ARM GAS  /tmp/cceFIm08.s 			page 1


   1              		.cpu cortex-m4
   2              		.eabi_attribute 27, 1
   3              		.eabi_attribute 28, 1
   4              		.eabi_attribute 20, 1
   5              		.eabi_attribute 21, 1
   6              		.eabi_attribute 23, 3
   7              		.eabi_attribute 24, 1
   8              		.eabi_attribute 25, 1
   9              		.eabi_attribute 26, 1
  10              		.eabi_attribute 30, 2
  11              		.eabi_attribute 34, 1
  12              		.eabi_attribute 18, 4
  13              		.file	"ahrs.c"
  14              		.text
  15              	.Ltext0:
  16              		.cfi_sections	.debug_frame
  17              		.section	.text.calculateAccConfidence,"ax",%progbits
  18              		.align	1
  19              		.p2align 4,,15
  20              		.syntax unified
  21              		.thumb
  22              		.thumb_func
  23              		.fpu fpv4-sp-d16
  24              		.type	calculateAccConfidence, %function
  25              	calculateAccConfidence:
  26              	.LFB219:
  27              		.file 1 "imu/ahrs.c"
  28              		.loc 1 31 0
  29              		.cfi_startproc
  30              		@ args = 0, pretend = 0, frame = 8
  31              		@ frame_needed = 0, uses_anonymous_args = 0
  32              	.LVL0:
  33              		.loc 1 37 0
  34 0000 DFED137A 		vldr.32	s15, .L5
  35 0004 D0ED006A 		vldr.32	s13, [r0]
  36 0008 9FED127A 		vldr.32	s14, .L5+4
  37 000c 20EE270A 		vmul.f32	s0, s0, s15
  38              	.LVL1:
  39              		.loc 1 40 0
  40 0010 F7EE007A 		vmov.f32	s15, #1.0e+0
  41              		.loc 1 37 0
  42 0014 A6EE870A 		vfma.f32	s0, s13, s14
  43              	.LVL2:
  44              		.loc 1 31 0
  45 0018 00B5     		push	{lr}
  46              		.cfi_def_cfa_offset 4
  47              		.cfi_offset 14, -4
  48              		.loc 1 40 0
  49 001a 30EE677A 		vsub.f32	s14, s0, s15
  50              		.loc 1 31 0
  51 001e 83B0     		sub	sp, sp, #12
  52              		.cfi_def_cfa_offset 16
  53              		.loc 1 40 0
  54 0020 B0EEC77A 		vabs.f32	s14, s14
  55 0024 F1EEC76A 		vsqrt.f32	s13, s14
  56 0028 02AB     		add	r3, sp, #8
  57              		.loc 1 41 0
ARM GAS  /tmp/cceFIm08.s 			page 2


  58 002a F0EE670A 		vmov.f32	s1, s15
  59              		.loc 1 40 0
  60 002e 77EEE67A 		vsub.f32	s15, s15, s13
  61              		.loc 1 38 0
  62 0032 80ED000A 		vstr.32	s0, [r0]
  63              		.loc 1 40 0
  64 0036 63ED017A 		vstmdb.32	r3!, {s15}
  65              		.loc 1 41 0
  66 003a 9FED070A 		vldr.32	s0, .L5+8
  67              	.LVL3:
  68 003e 1846     		mov	r0, r3
  69              	.LVL4:
  70 0040 FFF7FEFF 		bl	utils_truncate_number
  71              	.LVL5:
  72              		.loc 1 44 0
  73 0044 9DED010A 		vldr.32	s0, [sp, #4]
  74 0048 03B0     		add	sp, sp, #12
  75              		.cfi_def_cfa_offset 4
  76              		@ sp needed
  77 004a 5DF804FB 		ldr	pc, [sp], #4
  78              	.L6:
  79 004e 00BF     		.align	2
  80              	.L5:
  81 0050 CDCCCC3D 		.word	1036831949
  82 0054 6666663F 		.word	1063675494
  83 0058 00000000 		.word	0
  84              		.cfi_endproc
  85              	.LFE219:
  86              		.size	calculateAccConfidence, .-calculateAccConfidence
  87              		.section	.text.ahrs_init_attitude_info,"ax",%progbits
  88              		.align	1
  89              		.p2align 4,,15
  90              		.global	ahrs_init_attitude_info
  91              		.syntax unified
  92              		.thumb
  93              		.thumb_func
  94              		.fpu fpv4-sp-d16
  95              		.type	ahrs_init_attitude_info, %function
  96              	ahrs_init_attitude_info:
  97              	.LFB220:
  98              		.loc 1 46 0
  99              		.cfi_startproc
 100              		@ args = 0, pretend = 0, frame = 0
 101              		@ frame_needed = 0, uses_anonymous_args = 0
 102              		@ link register save eliminated.
 103              	.LVL6:
 104              		.loc 1 48 0
 105 0000 0023     		movs	r3, #0
 106              		.loc 1 47 0
 107 0002 4FF07E52 		mov	r2, #1065353216
 108              		.loc 1 55 0
 109 0006 0021     		movs	r1, #0
 110 0008 0162     		str	r1, [r0, #32]
 111              		.loc 1 47 0
 112 000a 0260     		str	r2, [r0]	@ float
 113              		.loc 1 54 0
 114 000c C261     		str	r2, [r0, #28]	@ float
ARM GAS  /tmp/cceFIm08.s 			page 3


 115              		.loc 1 48 0
 116 000e 4360     		str	r3, [r0, #4]	@ float
 117              		.loc 1 49 0
 118 0010 8360     		str	r3, [r0, #8]	@ float
 119              		.loc 1 50 0
 120 0012 C360     		str	r3, [r0, #12]	@ float
 121              		.loc 1 51 0
 122 0014 0361     		str	r3, [r0, #16]	@ float
 123              		.loc 1 52 0
 124 0016 4361     		str	r3, [r0, #20]	@ float
 125              		.loc 1 53 0
 126 0018 8361     		str	r3, [r0, #24]	@ float
 127              		.loc 1 56 0
 128 001a 7047     		bx	lr
 129              		.cfi_endproc
 130              	.LFE220:
 131              		.size	ahrs_init_attitude_info, .-ahrs_init_attitude_info
 132              		.section	.text.ahrs_update_initial_orientation,"ax",%progbits
 133              		.align	1
 134              		.p2align 4,,15
 135              		.global	ahrs_update_initial_orientation
 136              		.syntax unified
 137              		.thumb
 138              		.thumb_func
 139              		.fpu fpv4-sp-d16
 140              		.type	ahrs_update_initial_orientation, %function
 141              	ahrs_update_initial_orientation:
 142              	.LFB221:
 143              		.loc 1 58 0
 144              		.cfi_startproc
 145              		@ args = 0, pretend = 0, frame = 8
 146              		@ frame_needed = 0, uses_anonymous_args = 0
 147              	.LVL7:
 148 0000 10B5     		push	{r4, lr}
 149              		.cfi_def_cfa_offset 8
 150              		.cfi_offset 4, -8
 151              		.cfi_offset 14, -4
 152 0002 2DED0A8B 		vpush.64	{d8, d9, d10, d11, d12}
 153              		.cfi_def_cfa_offset 48
 154              		.cfi_offset 80, -48
 155              		.cfi_offset 81, -44
 156              		.cfi_offset 82, -40
 157              		.cfi_offset 83, -36
 158              		.cfi_offset 84, -32
 159              		.cfi_offset 85, -28
 160              		.cfi_offset 86, -24
 161              		.cfi_offset 87, -20
 162              		.cfi_offset 88, -16
 163              		.cfi_offset 89, -12
 164              		.loc 1 70 0
 165 0006 90ED01AA 		vldr.32	s20, [r0, #4]
 166              		.loc 1 64 0
 167 000a D0ED028A 		vldr.32	s17, [r0, #8]
 168              		.loc 1 67 0
 169 000e 91ED01CA 		vldr.32	s24, [r1, #4]
 170              		.loc 1 68 0
 171 0012 D1ED029A 		vldr.32	s19, [r1, #8]
ARM GAS  /tmp/cceFIm08.s 			page 4


 172              		.loc 1 66 0
 173 0016 D1ED00BA 		vldr.32	s23, [r1]
 174              		.loc 1 62 0
 175 001a D0ED00AA 		vldr.32	s21, [r0]
 176              	.LVL8:
 177              		.loc 1 70 0
 178 001e B1EE4AAA 		vneg.f32	s20, s20
 179              		.loc 1 58 0
 180 0022 82B0     		sub	sp, sp, #8
 181              		.cfi_def_cfa_offset 56
 182              		.loc 1 70 0
 183 0024 F0EE680A 		vmov.f32	s1, s17
 184 0028 B0EE4A0A 		vmov.f32	s0, s20
 185              		.loc 1 58 0
 186 002c 1446     		mov	r4, r2
 187              		.loc 1 70 0
 188 002e FFF7FEFF 		bl	atan2f
 189              	.LVL9:
 190 0032 B0EE409A 		vmov.f32	s18, s0
 191              		.loc 1 71 0
 192 0036 FFF7FEFF 		bl	sinf
 193              	.LVL10:
 194 003a B0EE408A 		vmov.f32	s16, s0
 195              		.loc 1 72 0
 196 003e B0EE490A 		vmov.f32	s0, s18
 197 0042 FFF7FEFF 		bl	cosf
 198              	.LVL11:
 199              		.loc 1 74 0
 200 0046 68EE808A 		vmul.f32	s17, s17, s0
 201              	.LVL12:
 202              		.loc 1 72 0
 203 004a B0EE40BA 		vmov.f32	s22, s0
 204              		.loc 1 74 0
 205 004e EAEE088A 		vfma.f32	s17, s20, s16
 206 0052 B1EE6A0A 		vneg.f32	s0, s21
 207 0056 80EE280A 		vdiv.f32	s0, s0, s17
 208 005a FFF7FEFF 		bl	atanf
 209              	.LVL13:
 210 005e F0EE408A 		vmov.f32	s17, s0
 211              		.loc 1 75 0
 212 0062 FFF7FEFF 		bl	sinf
 213              	.LVL14:
 214 0066 B0EE40AA 		vmov.f32	s20, s0
 215              		.loc 1 76 0
 216 006a B0EE680A 		vmov.f32	s0, s17
 217 006e FFF7FEFF 		bl	cosf
 218              	.LVL15:
 219              		.loc 1 78 0
 220 0072 6CEE080A 		vmul.f32	s1, s24, s16
 221              		.loc 1 79 0
 222 0076 28EE698A 		vnmul.f32	s16, s16, s19
 223              		.loc 1 78 0
 224 007a 60EE8A0A 		vmul.f32	s1, s1, s20
 225              		.loc 1 66 0
 226 007e F1EE6BBA 		vneg.f32	s23, s23
 227              	.LVL16:
 228              		.loc 1 79 0
ARM GAS  /tmp/cceFIm08.s 			page 5


 229 0082 ACEE0B8A 		vfma.f32	s16, s24, s22
 230              		.loc 1 78 0
 231 0086 EBEE800A 		vfma.f32	s1, s23, s0
 232 008a 69EE8A9A 		vmul.f32	s19, s19, s20
 233              	.LVL17:
 234              		.loc 1 80 0
 235 008e B1EE480A 		vneg.f32	s0, s16
 236              	.LVL18:
 237 0092 E9EE8B0A 		vfma.f32	s1, s19, s22
 238 0096 FFF7FEFF 		bl	atan2f
 239              	.LVL19:
 240 009a DFED2C7A 		vldr.32	s15, .L10
 241 009e 30EE670A 		vsub.f32	s0, s0, s15
 242 00a2 02A8     		add	r0, sp, #8
 243 00a4 20ED010A 		vstmdb.32	r0!, {s0}
 244              		.loc 1 83 0
 245 00a8 F6EE00AA 		vmov.f32	s21, #5.0e-1
 246              	.LVL20:
 247              		.loc 1 81 0
 248 00ac FFF7FEFF 		bl	utils_norm_angle_rad
 249              	.LVL21:
 250              		.loc 1 83 0
 251 00b0 69EE6A9A 		vnmul.f32	s19, s18, s21
 252              		.loc 1 85 0
 253 00b4 28EEAA8A 		vmul.f32	s16, s17, s21
 254              		.loc 1 83 0
 255 00b8 B0EE690A 		vmov.f32	s0, s19
 256 00bc FFF7FEFF 		bl	cosf
 257              	.LVL22:
 258 00c0 B0EE409A 		vmov.f32	s18, s0
 259              	.LVL23:
 260              		.loc 1 84 0
 261 00c4 B0EE690A 		vmov.f32	s0, s19
 262              	.LVL24:
 263 00c8 FFF7FEFF 		bl	sinf
 264              	.LVL25:
 265 00cc F0EE408A 		vmov.f32	s17, s0
 266              	.LVL26:
 267              		.loc 1 85 0
 268 00d0 B0EE480A 		vmov.f32	s0, s16
 269              	.LVL27:
 270 00d4 FFF7FEFF 		bl	cosf
 271              	.LVL28:
 272 00d8 B0EE40BA 		vmov.f32	s22, s0
 273              	.LVL29:
 274              		.loc 1 86 0
 275 00dc B0EE480A 		vmov.f32	s0, s16
 276              	.LVL30:
 277 00e0 FFF7FEFF 		bl	sinf
 278              	.LVL31:
 279              		.loc 1 87 0
 280 00e4 9DED01AA 		vldr.32	s20, [sp, #4]
 281              	.LVL32:
 282 00e8 2AEE6AAA 		vnmul.f32	s20, s20, s21
 283              		.loc 1 86 0
 284 00ec B0EE408A 		vmov.f32	s16, s0
 285              	.LVL33:
ARM GAS  /tmp/cceFIm08.s 			page 6


 286              		.loc 1 87 0
 287 00f0 B0EE4A0A 		vmov.f32	s0, s20
 288              	.LVL34:
 289 00f4 FFF7FEFF 		bl	cosf
 290              	.LVL35:
 291 00f8 F0EE409A 		vmov.f32	s19, s0
 292              	.LVL36:
 293              		.loc 1 88 0
 294 00fc B0EE4A0A 		vmov.f32	s0, s20
 295              	.LVL37:
 296 0100 FFF7FEFF 		bl	sinf
 297              	.LVL38:
 298              		.loc 1 90 0
 299 0104 68EE887A 		vmul.f32	s15, s17, s16
 300              		.loc 1 91 0
 301 0108 29EE088A 		vmul.f32	s16, s18, s16
 302              	.LVL39:
 303 010c 68EE8B8A 		vmul.f32	s17, s17, s22
 304              	.LVL40:
 305              		.loc 1 90 0
 306 0110 29EE0B9A 		vmul.f32	s18, s18, s22
 307              	.LVL41:
 308 0114 27EE806A 		vmul.f32	s12, s15, s0
 309              		.loc 1 91 0
 310 0118 60EE486A 		vnmul.f32	s13, s0, s16
 311              		.loc 1 93 0
 312 011c 69EEE77A 		vnmul.f32	s15, s19, s15
 313              		.loc 1 92 0
 314 0120 28EE807A 		vmul.f32	s14, s17, s0
 315              		.loc 1 90 0
 316 0124 A9EE296A 		vfma.f32	s12, s18, s19
 317              		.loc 1 93 0
 318 0128 E9EE007A 		vfma.f32	s15, s18, s0
 319              		.loc 1 91 0
 320 012c E8EEA96A 		vfma.f32	s13, s17, s19
 321              		.loc 1 92 0
 322 0130 A8EE297A 		vfma.f32	s14, s16, s19
 323              		.loc 1 90 0
 324 0134 84ED006A 		vstr.32	s12, [r4]
 325              		.loc 1 93 0
 326 0138 C4ED037A 		vstr.32	s15, [r4, #12]
 327              		.loc 1 91 0
 328 013c C4ED016A 		vstr.32	s13, [r4, #4]
 329              		.loc 1 92 0
 330 0140 84ED027A 		vstr.32	s14, [r4, #8]
 331              		.loc 1 94 0
 332 0144 02B0     		add	sp, sp, #8
 333              		.cfi_def_cfa_offset 48
 334              		@ sp needed
 335 0146 BDEC0A8B 		vldm	sp!, {d8-d12}
 336              		.cfi_restore 88
 337              		.cfi_restore 89
 338              		.cfi_restore 86
 339              		.cfi_restore 87
 340              		.cfi_restore 84
 341              		.cfi_restore 85
 342              		.cfi_restore 82
ARM GAS  /tmp/cceFIm08.s 			page 7


 343              		.cfi_restore 83
 344              		.cfi_restore 80
 345              		.cfi_restore 81
 346              		.cfi_def_cfa_offset 8
 347              	.LVL42:
 348 014a 10BD     		pop	{r4, pc}
 349              	.LVL43:
 350              	.L11:
 351              		.align	2
 352              	.L10:
 353 014c DB0FC93F 		.word	1070141403
 354              		.cfi_endproc
 355              	.LFE221:
 356              		.size	ahrs_update_initial_orientation, .-ahrs_update_initial_orientation
 357              		.section	.text.ahrs_update_mahony_imu,"ax",%progbits
 358              		.align	1
 359              		.p2align 4,,15
 360              		.global	ahrs_update_mahony_imu
 361              		.syntax unified
 362              		.thumb
 363              		.thumb_func
 364              		.fpu fpv4-sp-d16
 365              		.type	ahrs_update_mahony_imu, %function
 366              	ahrs_update_mahony_imu:
 367              	.LFB223:
 368              		.loc 1 224 0
 369              		.cfi_startproc
 370              		@ args = 0, pretend = 0, frame = 8
 371              		@ frame_needed = 0, uses_anonymous_args = 0
 372              	.LVL44:
 373 0000 30B5     		push	{r4, r5, lr}
 374              		.cfi_def_cfa_offset 12
 375              		.cfi_offset 4, -12
 376              		.cfi_offset 5, -8
 377              		.cfi_offset 14, -4
 378 0002 2DED0A8B 		vpush.64	{d8, d9, d10, d11, d12}
 379              		.cfi_def_cfa_offset 52
 380              		.cfi_offset 80, -52
 381              		.cfi_offset 81, -48
 382              		.cfi_offset 82, -44
 383              		.cfi_offset 83, -40
 384              		.cfi_offset 84, -36
 385              		.cfi_offset 85, -32
 386              		.cfi_offset 86, -28
 387              		.cfi_offset 87, -24
 388              		.cfi_offset 88, -20
 389              		.cfi_offset 89, -16
 390              		.loc 1 233 0
 391 0006 D1ED01BA 		vldr.32	s23, [r1, #4]
 392              		.loc 1 232 0
 393 000a D1ED009A 		vldr.32	s19, [r1]
 394              		.loc 1 234 0
 395 000e 91ED02CA 		vldr.32	s24, [r1, #8]
 396              		.loc 1 228 0
 397 0012 D0ED008A 		vldr.32	s17, [r0]
 398              		.loc 1 229 0
 399 0016 90ED01AA 		vldr.32	s20, [r0, #4]
ARM GAS  /tmp/cceFIm08.s 			page 8


 400              		.loc 1 230 0
 401 001a 90ED029A 		vldr.32	s18, [r0, #8]
 402              		.loc 1 236 0
 403 001e 2BEEAB8A 		vmul.f32	s16, s23, s23
 404              		.loc 1 224 0
 405 0022 83B0     		sub	sp, sp, #12
 406              		.cfi_def_cfa_offset 64
 407              		.loc 1 236 0
 408 0024 A9EEA98A 		vfma.f32	s16, s19, s19
 409 0028 0025     		movs	r5, #0
 410              		.loc 1 224 0
 411 002a 1446     		mov	r4, r2
 412 002c B0EE40BA 		vmov.f32	s22, s0
 413              	.LVL45:
 414              		.loc 1 236 0
 415 0030 ACEE0C8A 		vfma.f32	s16, s24, s24
 416 0034 B5EE408A 		vcmp.f32	s16, #0
 417 0038 F1EE10FA 		vmrs	APSR_nzcv, FPSCR
 418 003c F1EEC8AA 		vsqrt.f32	s21, s16
 419 0040 00F1F480 		bmi	.L27
 420              	.LVL46:
 421              		.loc 1 240 0
 422 0044 DFED8D7A 		vldr.32	s15, .L29
 423 0048 F4EEE7AA 		vcmpe.f32	s21, s15
 424 004c F1EE10FA 		vmrs	APSR_nzcv, FPSCR
 425 0050 61DC     		bgt	.L21
 426              	.LVL47:
 427              	.L26:
 428 0052 94ED034A 		vldr.32	s8, [r4, #12]
 429 0056 D4ED004A 		vldr.32	s9, [r4]
 430 005a D4ED017A 		vldr.32	s15, [r4, #4]
 431 005e D4ED023A 		vldr.32	s7, [r4, #8]
 432              	.LVL48:
 433              	.L15:
 434              		.loc 1 289 0
 435 0062 B6EE000A 		vmov.f32	s0, #5.0e-1
 436 0066 2BEE000A 		vmul.f32	s0, s22, s0
 437              		.loc 1 291 0
 438 006a 20EE095A 		vmul.f32	s10, s0, s18
 439              		.loc 1 289 0
 440 006e 60EE285A 		vmul.f32	s11, s0, s17
 441              	.LVL49:
 442              		.loc 1 296 0
 443 0072 65EE236A 		vmul.f32	s13, s10, s7
 444              		.loc 1 290 0
 445 0076 20EE0A0A 		vmul.f32	s0, s0, s20
 446              	.LVL50:
 447              		.loc 1 296 0
 448 007a E5EEA46A 		vfma.f32	s13, s11, s9
 449              		.loc 1 295 0
 450 007e 23EEC06A 		vnmul.f32	s12, s7, s0
 451              		.loc 1 296 0
 452 0082 E0EE446A 		vfms.f32	s13, s0, s8
 453              		.loc 1 295 0
 454 0086 A7EEE56A 		vfms.f32	s12, s15, s11
 455              		.loc 1 297 0
 456 008a 27EEC57A 		vnmul.f32	s14, s15, s10
ARM GAS  /tmp/cceFIm08.s 			page 9


 457              		.loc 1 295 0
 458 008e A5EE446A 		vfms.f32	s12, s10, s8
 459              		.loc 1 297 0
 460 0092 A0EE247A 		vfma.f32	s14, s0, s9
 461              		.loc 1 296 0
 462 0096 76EEA76A 		vadd.f32	s13, s13, s15
 463              		.loc 1 298 0
 464 009a 60EE277A 		vmul.f32	s15, s0, s15
 465              		.loc 1 295 0
 466 009e 36EE246A 		vadd.f32	s12, s12, s9
 467              		.loc 1 301 0
 468 00a2 26EEA60A 		vmul.f32	s0, s13, s13
 469              	.LVL51:
 470              		.loc 1 297 0
 471 00a6 A5EE847A 		vfma.f32	s14, s11, s8
 472              		.loc 1 298 0
 473 00aa E5EE247A 		vfma.f32	s15, s10, s9
 474              		.loc 1 301 0
 475 00ae A6EE060A 		vfma.f32	s0, s12, s12
 476              		.loc 1 297 0
 477 00b2 37EE237A 		vadd.f32	s14, s14, s7
 478              		.loc 1 298 0
 479 00b6 E5EEE37A 		vfms.f32	s15, s11, s7
 480              		.loc 1 301 0
 481 00ba A7EE070A 		vfma.f32	s0, s14, s14
 482              		.loc 1 298 0
 483 00be 77EE847A 		vadd.f32	s15, s15, s8
 484              		.loc 1 296 0
 485 00c2 C4ED016A 		vstr.32	s13, [r4, #4]
 486              	.LVL52:
 487              		.loc 1 301 0
 488 00c6 A7EEA70A 		vfma.f32	s0, s15, s15
 489              	.LVL53:
 490              		.loc 1 295 0
 491 00ca 84ED006A 		vstr.32	s12, [r4]
 492              	.LVL54:
 493 00ce B5EE400A 		vcmp.f32	s0, #0
 494 00d2 F1EE10FA 		vmrs	APSR_nzcv, FPSCR
 495              		.loc 1 297 0
 496 00d6 84ED027A 		vstr.32	s14, [r4, #8]
 497              	.LVL55:
 498              		.loc 1 298 0
 499 00da C4ED037A 		vstr.32	s15, [r4, #12]
 500              	.LBB30:
 501              	.LBB31:
 502              		.loc 1 579 0
 503 00de B1EEC08A 		vsqrt.f32	s16, s0
 504 00e2 00F19880 		bmi	.L28
 505              	.LVL56:
 506              	.L19:
 507 00e6 B7EE005A 		vmov.f32	s10, #1.0e+0
 508 00ea C5EE085A 		vdiv.f32	s11, s10, s16
 509              	.LBE31:
 510              	.LBE30:
 511              		.loc 1 302 0
 512 00ee 25EE866A 		vmul.f32	s12, s11, s12
 513              		.loc 1 303 0
ARM GAS  /tmp/cceFIm08.s 			page 10


 514 00f2 65EEA66A 		vmul.f32	s13, s11, s13
 515              		.loc 1 304 0
 516 00f6 25EE877A 		vmul.f32	s14, s11, s14
 517              		.loc 1 305 0
 518 00fa 65EEA77A 		vmul.f32	s15, s11, s15
 519              		.loc 1 302 0
 520 00fe 84ED006A 		vstr.32	s12, [r4]
 521              		.loc 1 303 0
 522 0102 C4ED016A 		vstr.32	s13, [r4, #4]
 523              		.loc 1 304 0
 524 0106 84ED027A 		vstr.32	s14, [r4, #8]
 525              		.loc 1 305 0
 526 010a C4ED037A 		vstr.32	s15, [r4, #12]
 527              		.loc 1 306 0
 528 010e 03B0     		add	sp, sp, #12
 529              		.cfi_remember_state
 530              		.cfi_def_cfa_offset 52
 531              		@ sp needed
 532 0110 BDEC0A8B 		vldm	sp!, {d8-d12}
 533              		.cfi_restore 88
 534              		.cfi_restore 89
 535              		.cfi_restore 86
 536              		.cfi_restore 87
 537              		.cfi_restore 84
 538              		.cfi_restore 85
 539              		.cfi_restore 82
 540              		.cfi_restore 83
 541              		.cfi_restore 80
 542              		.cfi_restore 81
 543              		.cfi_def_cfa_offset 12
 544              	.LVL57:
 545 0114 30BD     		pop	{r4, r5, pc}
 546              	.LVL58:
 547              	.L21:
 548              		.cfi_restore_state
 549              	.LBB33:
 550              		.loc 1 245 0
 551 0116 5A4B     		ldr	r3, .L29+4
 552 0118 0093     		str	r3, [sp]	@ float
 553              		.loc 1 248 0
 554 011a 04F11C00 		add	r0, r4, #28
 555              	.LVL59:
 556 011e B0EE6A0A 		vmov.f32	s0, s21
 557              	.LVL60:
 558              		.loc 1 246 0
 559 0122 0195     		str	r5, [sp, #4]	@ float
 560              		.loc 1 248 0
 561 0124 FFF7FEFF 		bl	calculateAccConfidence
 562              	.LVL61:
 563              		.loc 1 249 0
 564 0128 DDED007A 		vldr.32	s15, [sp]
 565 012c 60EE277A 		vmul.f32	s15, s0, s15
 566 0130 CDED007A 		vstr.32	s15, [sp]
 567              		.loc 1 250 0
 568 0134 DDED017A 		vldr.32	s15, [sp, #4]
 569 0138 20EE270A 		vmul.f32	s0, s0, s15
 570              	.LVL62:
ARM GAS  /tmp/cceFIm08.s 			page 11


 571 013c 8DED010A 		vstr.32	s0, [sp, #4]
 572              	.LVL63:
 573              	.L20:
 574              	.LBB34:
 575              	.LBB35:
 576              		.loc 1 579 0
 577 0140 F7EE007A 		vmov.f32	s15, #1.0e+0
 578 0144 87EEAA6A 		vdiv.f32	s12, s15, s21
 579              	.LVL64:
 580              	.LBE35:
 581              	.LBE34:
 582              		.loc 1 269 0
 583 0148 0023     		movs	r3, #0
 584              		.loc 1 259 0
 585 014a D4ED004A 		vldr.32	s9, [r4]
 586 014e 94ED034A 		vldr.32	s8, [r4, #12]
 587 0152 D4ED023A 		vldr.32	s7, [r4, #8]
 588 0156 D4ED017A 		vldr.32	s15, [r4, #4]
 589              		.loc 1 269 0
 590 015a DDED012A 		vldr.32	s5, [sp, #4]
 591              		.loc 1 261 0
 592 015e FEEE006A 		vmov.f32	s13, #-5.0e-1
 593 0162 E4EEA46A 		vfma.f32	s13, s9, s9
 594              		.loc 1 260 0
 595 0166 64EE235A 		vmul.f32	s11, s8, s7
 596              		.loc 1 261 0
 597 016a E4EE046A 		vfma.f32	s13, s8, s8
 598              		.loc 1 260 0
 599 016e E7EEA45A 		vfma.f32	s11, s15, s9
 600              		.loc 1 254 0
 601 0172 69EE869A 		vmul.f32	s19, s19, s12
 602              	.LVL65:
 603              		.loc 1 255 0
 604 0176 6BEE86BA 		vmul.f32	s23, s23, s12
 605              	.LVL66:
 606              		.loc 1 259 0
 607 017a 23EEE47A 		vnmul.f32	s14, s7, s9
 608              		.loc 1 256 0
 609 017e 2CEE066A 		vmul.f32	s12, s24, s12
 610              	.LVL67:
 611              		.loc 1 259 0
 612 0182 A7EE847A 		vfma.f32	s14, s15, s8
 613              	.LVL68:
 614              		.loc 1 264 0
 615 0186 25EEC65A 		vnmul.f32	s10, s11, s12
 616              		.loc 1 265 0
 617 018a 26EEE93A 		vnmul.f32	s6, s13, s19
 618              		.loc 1 264 0
 619 018e ABEEA65A 		vfma.f32	s10, s23, s13
 620              		.loc 1 265 0
 621 0192 A6EE073A 		vfma.f32	s6, s12, s14
 622              		.loc 1 269 0
 623 0196 F5EEC02A 		vcmpe.f32	s5, #0
 624              		.loc 1 266 0
 625 019a 27EE6B7A 		vnmul.f32	s14, s14, s23
 626              	.LVL69:
 627              		.loc 1 269 0
ARM GAS  /tmp/cceFIm08.s 			page 12


 628 019e F1EE10FA 		vmrs	APSR_nzcv, FPSCR
 629              		.loc 1 264 0
 630 01a2 F0EE456A 		vmov.f32	s13, s10
 631              	.LVL70:
 632              		.loc 1 266 0
 633 01a6 A9EEA57A 		vfma.f32	s14, s19, s11
 634              	.LVL71:
 635              		.loc 1 269 0
 636 01aa 30DD     		ble	.L23
 637              		.loc 1 270 0
 638 01ac DDED011A 		vldr.32	s3, [sp, #4]
 639              		.loc 1 271 0
 640 01b0 9DED012A 		vldr.32	s4, [sp, #4]
 641              		.loc 1 272 0
 642 01b4 DDED012A 		vldr.32	s5, [sp, #4]
 643              		.loc 1 270 0
 644 01b8 94ED045A 		vldr.32	s10, [r4, #16]
 645              	.LVL72:
 646              		.loc 1 271 0
 647 01bc D4ED055A 		vldr.32	s11, [r4, #20]
 648              	.LVL73:
 649              		.loc 1 272 0
 650 01c0 94ED066A 		vldr.32	s12, [r4, #24]
 651              	.LVL74:
 652              		.loc 1 270 0
 653 01c4 61EEA61A 		vmul.f32	s3, s3, s13
 654              		.loc 1 271 0
 655 01c8 22EE032A 		vmul.f32	s4, s4, s6
 656              		.loc 1 272 0
 657 01cc 62EE872A 		vmul.f32	s5, s5, s14
 658              		.loc 1 270 0
 659 01d0 A1EE8B5A 		vfma.f32	s10, s3, s22
 660              		.loc 1 271 0
 661 01d4 E2EE0B5A 		vfma.f32	s11, s4, s22
 662              		.loc 1 272 0
 663 01d8 A2EE8B6A 		vfma.f32	s12, s5, s22
 664              		.loc 1 273 0
 665 01dc 78EE858A 		vadd.f32	s17, s17, s10
 666              	.LVL75:
 667              		.loc 1 274 0
 668 01e0 3AEE25AA 		vadd.f32	s20, s20, s11
 669              	.LVL76:
 670              		.loc 1 275 0
 671 01e4 39EE069A 		vadd.f32	s18, s18, s12
 672              	.LVL77:
 673              		.loc 1 270 0
 674 01e8 84ED045A 		vstr.32	s10, [r4, #16]
 675              		.loc 1 271 0
 676 01ec C4ED055A 		vstr.32	s11, [r4, #20]
 677              		.loc 1 272 0
 678 01f0 84ED066A 		vstr.32	s12, [r4, #24]
 679              	.L18:
 680              		.loc 1 283 0
 681 01f4 9DED005A 		vldr.32	s10, [sp]
 682              		.loc 1 284 0
 683 01f8 DDED005A 		vldr.32	s11, [sp]
 684              		.loc 1 285 0
ARM GAS  /tmp/cceFIm08.s 			page 13


 685 01fc 9DED006A 		vldr.32	s12, [sp]
 686              		.loc 1 283 0
 687 0200 E5EE268A 		vfma.f32	s17, s10, s13
 688              	.LVL78:
 689              		.loc 1 284 0
 690 0204 A5EE83AA 		vfma.f32	s20, s11, s6
 691              	.LVL79:
 692              		.loc 1 285 0
 693 0208 A6EE079A 		vfma.f32	s18, s12, s14
 694              	.LVL80:
 695 020c 29E7     		b	.L15
 696              	.LVL81:
 697              	.L23:
 698              		.loc 1 277 0
 699 020e 2361     		str	r3, [r4, #16]	@ float
 700              		.loc 1 278 0
 701 0210 6361     		str	r3, [r4, #20]	@ float
 702              		.loc 1 279 0
 703 0212 A361     		str	r3, [r4, #24]	@ float
 704 0214 EEE7     		b	.L18
 705              	.LVL82:
 706              	.L28:
 707              	.LBE33:
 708              	.LBB40:
 709              	.LBB32:
 710              		.loc 1 579 0
 711 0216 FFF7FEFF 		bl	sqrtf
 712              	.LVL83:
 713 021a 94ED006A 		vldr.32	s12, [r4]
 714 021e D4ED016A 		vldr.32	s13, [r4, #4]
 715 0222 94ED027A 		vldr.32	s14, [r4, #8]
 716 0226 D4ED037A 		vldr.32	s15, [r4, #12]
 717 022a 5CE7     		b	.L19
 718              	.LVL84:
 719              	.L27:
 720              	.LBE32:
 721              	.LBE40:
 722              		.loc 1 236 0
 723 022c B0EE480A 		vmov.f32	s0, s16
 724              	.LVL85:
 725 0230 FFF7FEFF 		bl	sqrtf
 726              	.LVL86:
 727              		.loc 1 240 0
 728 0234 DFED117A 		vldr.32	s15, .L29
 729 0238 F4EEE7AA 		vcmpe.f32	s21, s15
 730 023c F1EE10FA 		vmrs	APSR_nzcv, FPSCR
 731 0240 7FF707AF 		ble	.L26
 732              	.LBB41:
 733              		.loc 1 245 0
 734 0244 0E4B     		ldr	r3, .L29+4
 735 0246 0093     		str	r3, [sp]	@ float
 736              		.loc 1 248 0
 737 0248 04F11C00 		add	r0, r4, #28
 738 024c B0EE6A0A 		vmov.f32	s0, s21
 739              		.loc 1 246 0
 740 0250 0195     		str	r5, [sp, #4]	@ float
 741              		.loc 1 248 0
ARM GAS  /tmp/cceFIm08.s 			page 14


 742 0252 FFF7FEFF 		bl	calculateAccConfidence
 743              	.LVL87:
 744              		.loc 1 249 0
 745 0256 9DED007A 		vldr.32	s14, [sp]
 746 025a 20EE077A 		vmul.f32	s14, s0, s14
 747              		.loc 1 248 0
 748 025e F0EE407A 		vmov.f32	s15, s0
 749              	.LVL88:
 750              		.loc 1 249 0
 751 0262 8DED007A 		vstr.32	s14, [sp]
 752              		.loc 1 250 0
 753 0266 9DED017A 		vldr.32	s14, [sp, #4]
 754 026a 67EE877A 		vmul.f32	s15, s15, s14
 755              	.LBB38:
 756              	.LBB36:
 757              		.loc 1 579 0
 758 026e B0EE480A 		vmov.f32	s0, s16
 759              	.LVL89:
 760              	.LBE36:
 761              	.LBE38:
 762              		.loc 1 250 0
 763 0272 CDED017A 		vstr.32	s15, [sp, #4]
 764              	.LVL90:
 765              	.LBB39:
 766              	.LBB37:
 767              		.loc 1 579 0
 768 0276 FFF7FEFF 		bl	sqrtf
 769              	.LVL91:
 770 027a 61E7     		b	.L20
 771              	.L30:
 772              		.align	2
 773              	.L29:
 774 027c 0AD7233C 		.word	1008981770
 775 0280 9A99193F 		.word	1058642330
 776              	.LBE37:
 777              	.LBE39:
 778              	.LBE41:
 779              		.cfi_endproc
 780              	.LFE223:
 781              		.size	ahrs_update_mahony_imu, .-ahrs_update_mahony_imu
 782              		.section	.text.ahrs_update_mahony,"ax",%progbits
 783              		.align	1
 784              		.p2align 4,,15
 785              		.global	ahrs_update_mahony
 786              		.syntax unified
 787              		.thumb
 788              		.thumb_func
 789              		.fpu fpv4-sp-d16
 790              		.type	ahrs_update_mahony, %function
 791              	ahrs_update_mahony:
 792              	.LFB222:
 793              		.loc 1 96 0
 794              		.cfi_startproc
 795              		@ args = 0, pretend = 0, frame = 32
 796              		@ frame_needed = 0, uses_anonymous_args = 0
 797              	.LVL92:
 798 0000 70B5     		push	{r4, r5, r6, lr}
ARM GAS  /tmp/cceFIm08.s 			page 15


 799              		.cfi_def_cfa_offset 16
 800              		.cfi_offset 4, -16
 801              		.cfi_offset 5, -12
 802              		.cfi_offset 6, -8
 803              		.cfi_offset 14, -4
 804 0002 2DED108B 		vpush.64	{d8, d9, d10, d11, d12, d13, d14, d15}
 805              		.cfi_def_cfa_offset 80
 806              		.cfi_offset 80, -80
 807              		.cfi_offset 81, -76
 808              		.cfi_offset 82, -72
 809              		.cfi_offset 83, -68
 810              		.cfi_offset 84, -64
 811              		.cfi_offset 85, -60
 812              		.cfi_offset 86, -56
 813              		.cfi_offset 87, -52
 814              		.cfi_offset 88, -48
 815              		.cfi_offset 89, -44
 816              		.cfi_offset 90, -40
 817              		.cfi_offset 91, -36
 818              		.cfi_offset 92, -32
 819              		.cfi_offset 93, -28
 820              		.cfi_offset 94, -24
 821              		.cfi_offset 95, -20
 822 0006 1C46     		mov	r4, r3
 823              		.loc 1 112 0
 824 0008 1B6A     		ldr	r3, [r3, #32]
 825              	.LVL93:
 826              		.loc 1 100 0
 827 000a D0ED008A 		vldr.32	s17, [r0]
 828              	.LVL94:
 829              		.loc 1 101 0
 830 000e 90ED01CA 		vldr.32	s24, [r0, #4]
 831              	.LVL95:
 832              		.loc 1 102 0
 833 0012 90ED029A 		vldr.32	s18, [r0, #8]
 834              	.LVL96:
 835              		.loc 1 104 0
 836 0016 D1ED00AA 		vldr.32	s21, [r1]
 837              	.LVL97:
 838              		.loc 1 105 0
 839 001a 91ED01BA 		vldr.32	s22, [r1, #4]
 840              	.LVL98:
 841              		.loc 1 106 0
 842 001e D1ED02BA 		vldr.32	s23, [r1, #8]
 843              	.LVL99:
 844              		.loc 1 108 0
 845 0022 D2ED00DA 		vldr.32	s27, [r2]
 846              	.LVL100:
 847              		.loc 1 109 0
 848 0026 D2ED019A 		vldr.32	s19, [r2, #4]
 849              	.LVL101:
 850              		.loc 1 110 0
 851 002a 92ED02AA 		vldr.32	s20, [r2, #8]
 852              	.LVL102:
 853              		.loc 1 96 0
 854 002e 88B0     		sub	sp, sp, #32
 855              		.cfi_def_cfa_offset 112
ARM GAS  /tmp/cceFIm08.s 			page 16


 856              		.loc 1 96 0
 857 0030 0646     		mov	r6, r0
 858 0032 0D46     		mov	r5, r1
 859 0034 F0EE40CA 		vmov.f32	s25, s0
 860              		.loc 1 112 0
 861 0038 002B     		cmp	r3, #0
 862 003a 00F09580 		beq	.L50
 863              	.LVL103:
 864              	.L32:
 865              		.loc 1 118 0
 866 003e F5EE40DA 		vcmp.f32	s27, #0
 867 0042 F1EE10FA 		vmrs	APSR_nzcv, FPSCR
 868 0046 04D1     		bne	.L33
 869              		.loc 1 118 0 is_stmt 0 discriminator 1
 870 0048 F5EE409A 		vcmp.f32	s19, #0
 871 004c F1EE10FA 		vmrs	APSR_nzcv, FPSCR
 872 0050 79D0     		beq	.L51
 873              	.L33:
 874              		.loc 1 123 0 is_stmt 1
 875 0052 2BEE0B8A 		vmul.f32	s16, s22, s22
 876 0056 0025     		movs	r5, #0
 877              	.LVL104:
 878 0058 AAEEAA8A 		vfma.f32	s16, s21, s21
 879 005c ABEEAB8A 		vfma.f32	s16, s23, s23
 880 0060 B5EE408A 		vcmp.f32	s16, #0
 881 0064 F1EE10FA 		vmrs	APSR_nzcv, FPSCR
 882 0068 B1EEC8DA 		vsqrt.f32	s26, s16
 883 006c 00F18F81 		bmi	.L52
 884              	.LVL105:
 885              		.loc 1 127 0
 886 0070 DFEDEE7A 		vldr.32	s15, .L56
 887 0074 B4EEE7DA 		vcmpe.f32	s26, s15
 888 0078 F1EE10FA 		vmrs	APSR_nzcv, FPSCR
 889 007c 7CDC     		bgt	.L44
 890              	.L49:
 891 007e D4ED005A 		vldr.32	s11, [r4]
 892 0082 D4ED017A 		vldr.32	s15, [r4, #4]
 893 0086 94ED025A 		vldr.32	s10, [r4, #8]
 894 008a D4ED034A 		vldr.32	s9, [r4, #12]
 895              	.LVL106:
 896              	.L36:
 897              		.loc 1 205 0
 898 008e B6EE000A 		vmov.f32	s0, #5.0e-1
 899 0092 2CEE800A 		vmul.f32	s0, s25, s0
 900              		.loc 1 211 0
 901 0096 B1EE644A 		vneg.f32	s8, s9
 902              		.loc 1 207 0
 903 009a 20EE099A 		vmul.f32	s18, s0, s18
 904              	.LVL107:
 905              		.loc 1 205 0
 906 009e 60EE288A 		vmul.f32	s17, s0, s17
 907              	.LVL108:
 908              		.loc 1 212 0
 909 00a2 69EE056A 		vmul.f32	s13, s18, s10
 910              		.loc 1 206 0
 911 00a6 20EE0C0A 		vmul.f32	s0, s0, s24
 912              	.LVL109:
ARM GAS  /tmp/cceFIm08.s 			page 17


 913              		.loc 1 212 0
 914 00aa E8EEA56A 		vfma.f32	s13, s17, s11
 915              		.loc 1 211 0
 916 00ae 25EE406A 		vnmul.f32	s12, s10, s0
 917              		.loc 1 212 0
 918 00b2 E4EE006A 		vfma.f32	s13, s8, s0
 919              		.loc 1 211 0
 920 00b6 A7EEE86A 		vfms.f32	s12, s15, s17
 921              		.loc 1 213 0
 922 00ba 27EEC97A 		vnmul.f32	s14, s15, s18
 923              		.loc 1 211 0
 924 00be A4EE096A 		vfma.f32	s12, s8, s18
 925              		.loc 1 213 0
 926 00c2 A0EE257A 		vfma.f32	s14, s0, s11
 927              		.loc 1 212 0
 928 00c6 76EEA76A 		vadd.f32	s13, s13, s15
 929              		.loc 1 214 0
 930 00ca 60EE277A 		vmul.f32	s15, s0, s15
 931              	.LVL110:
 932              		.loc 1 211 0
 933 00ce 36EE256A 		vadd.f32	s12, s12, s11
 934              		.loc 1 217 0
 935 00d2 26EEA60A 		vmul.f32	s0, s13, s13
 936              	.LVL111:
 937              		.loc 1 213 0
 938 00d6 A4EEA87A 		vfma.f32	s14, s9, s17
 939              		.loc 1 214 0
 940 00da E9EE257A 		vfma.f32	s15, s18, s11
 941              		.loc 1 217 0
 942 00de A6EE060A 		vfma.f32	s0, s12, s12
 943              		.loc 1 213 0
 944 00e2 37EE057A 		vadd.f32	s14, s14, s10
 945              		.loc 1 214 0
 946 00e6 E8EEC57A 		vfms.f32	s15, s17, s10
 947              		.loc 1 217 0
 948 00ea A7EE070A 		vfma.f32	s0, s14, s14
 949              		.loc 1 214 0
 950 00ee 77EEA47A 		vadd.f32	s15, s15, s9
 951              		.loc 1 212 0
 952 00f2 C4ED016A 		vstr.32	s13, [r4, #4]
 953              		.loc 1 217 0
 954 00f6 A7EEA70A 		vfma.f32	s0, s15, s15
 955              	.LVL112:
 956              		.loc 1 211 0
 957 00fa 84ED006A 		vstr.32	s12, [r4]
 958 00fe B5EE400A 		vcmp.f32	s0, #0
 959 0102 F1EE10FA 		vmrs	APSR_nzcv, FPSCR
 960              		.loc 1 213 0
 961 0106 84ED027A 		vstr.32	s14, [r4, #8]
 962              		.loc 1 214 0
 963 010a C4ED037A 		vstr.32	s15, [r4, #12]
 964              	.LBB42:
 965              	.LBB43:
 966              		.loc 1 579 0
 967 010e B1EEC08A 		vsqrt.f32	s16, s0
 968 0112 00F13181 		bmi	.L53
 969              	.LVL113:
ARM GAS  /tmp/cceFIm08.s 			page 18


 970              	.L42:
 971 0116 B7EE005A 		vmov.f32	s10, #1.0e+0
 972 011a C5EE085A 		vdiv.f32	s11, s10, s16
 973              	.LBE43:
 974              	.LBE42:
 975              		.loc 1 218 0
 976 011e 25EE866A 		vmul.f32	s12, s11, s12
 977              		.loc 1 219 0
 978 0122 65EEA66A 		vmul.f32	s13, s11, s13
 979              		.loc 1 220 0
 980 0126 25EE877A 		vmul.f32	s14, s11, s14
 981              		.loc 1 221 0
 982 012a 65EEA77A 		vmul.f32	s15, s11, s15
 983              		.loc 1 218 0
 984 012e 84ED006A 		vstr.32	s12, [r4]
 985              		.loc 1 219 0
 986 0132 C4ED016A 		vstr.32	s13, [r4, #4]
 987              		.loc 1 220 0
 988 0136 84ED027A 		vstr.32	s14, [r4, #8]
 989              		.loc 1 221 0
 990 013a C4ED037A 		vstr.32	s15, [r4, #12]
 991              		.loc 1 222 0
 992 013e 08B0     		add	sp, sp, #32
 993              		.cfi_remember_state
 994              		.cfi_def_cfa_offset 80
 995              		@ sp needed
 996 0140 BDEC108B 		vldm	sp!, {d8-d15}
 997              		.cfi_restore 94
 998              		.cfi_restore 95
 999              		.cfi_restore 92
 1000              		.cfi_restore 93
 1001              		.cfi_restore 90
 1002              		.cfi_restore 91
 1003              		.cfi_restore 88
 1004              		.cfi_restore 89
 1005              		.cfi_restore 86
 1006              		.cfi_restore 87
 1007              		.cfi_restore 84
 1008              		.cfi_restore 85
 1009              		.cfi_restore 82
 1010              		.cfi_restore 83
 1011              		.cfi_restore 80
 1012              		.cfi_restore 81
 1013              		.cfi_def_cfa_offset 16
 1014              	.LVL114:
 1015 0144 70BD     		pop	{r4, r5, r6, pc}
 1016              	.LVL115:
 1017              	.L51:
 1018              		.cfi_restore_state
 1019              		.loc 1 118 0 discriminator 2
 1020 0146 B5EE40AA 		vcmp.f32	s20, #0
 1021 014a F1EE10FA 		vmrs	APSR_nzcv, FPSCR
 1022 014e 80D1     		bne	.L33
 1023              		.loc 1 119 0
 1024 0150 2246     		mov	r2, r4
 1025 0152 B0EE6C0A 		vmov.f32	s0, s25
 1026 0156 2946     		mov	r1, r5
ARM GAS  /tmp/cceFIm08.s 			page 19


 1027 0158 3046     		mov	r0, r6
 1028              		.loc 1 222 0
 1029 015a 08B0     		add	sp, sp, #32
 1030              		.cfi_remember_state
 1031              		.cfi_def_cfa_offset 80
 1032              		@ sp needed
 1033 015c BDEC108B 		vldm	sp!, {d8-d15}
 1034              		.cfi_restore 94
 1035              		.cfi_restore 95
 1036              		.cfi_restore 92
 1037              		.cfi_restore 93
 1038              		.cfi_restore 90
 1039              		.cfi_restore 91
 1040              		.cfi_restore 88
 1041              		.cfi_restore 89
 1042              		.cfi_restore 86
 1043              		.cfi_restore 87
 1044              		.cfi_restore 84
 1045              		.cfi_restore 85
 1046              		.cfi_restore 82
 1047              		.cfi_restore 83
 1048              		.cfi_restore 80
 1049              		.cfi_restore 81
 1050              		.cfi_def_cfa_offset 16
 1051              	.LVL116:
 1052 0160 BDE87040 		pop	{r4, r5, r6, lr}
 1053              		.cfi_restore 14
 1054              		.cfi_restore 6
 1055              		.cfi_restore 5
 1056              		.cfi_restore 4
 1057              		.cfi_def_cfa_offset 0
 1058              	.LVL117:
 1059              		.loc 1 119 0
 1060 0164 FFF7FEBF 		b	ahrs_update_mahony_imu
 1061              	.LVL118:
 1062              	.L50:
 1063              		.cfi_restore_state
 1064              		.loc 1 113 0
 1065 0168 1146     		mov	r1, r2
 1066              	.LVL119:
 1067 016a 2846     		mov	r0, r5
 1068              	.LVL120:
 1069 016c 2246     		mov	r2, r4
 1070              	.LVL121:
 1071 016e FFF7FEFF 		bl	ahrs_update_initial_orientation
 1072              	.LVL122:
 1073              		.loc 1 114 0
 1074 0172 0123     		movs	r3, #1
 1075 0174 2362     		str	r3, [r4, #32]
 1076 0176 62E7     		b	.L32
 1077              	.LVL123:
 1078              	.L44:
 1079              	.LBB45:
 1080              		.loc 1 134 0
 1081 0178 AD4B     		ldr	r3, .L56+4
 1082 017a 0693     		str	r3, [sp, #24]	@ float
 1083              		.loc 1 137 0
ARM GAS  /tmp/cceFIm08.s 			page 20


 1084 017c 04F11C00 		add	r0, r4, #28
 1085 0180 B0EE4D0A 		vmov.f32	s0, s26
 1086              		.loc 1 135 0
 1087 0184 0795     		str	r5, [sp, #28]	@ float
 1088              		.loc 1 137 0
 1089 0186 FFF7FEFF 		bl	calculateAccConfidence
 1090              	.LVL124:
 1091              		.loc 1 138 0
 1092 018a DDED067A 		vldr.32	s15, [sp, #24]
 1093 018e 60EE277A 		vmul.f32	s15, s0, s15
 1094 0192 CDED067A 		vstr.32	s15, [sp, #24]
 1095              		.loc 1 139 0
 1096 0196 DDED077A 		vldr.32	s15, [sp, #28]
 1097 019a 20EE270A 		vmul.f32	s0, s0, s15
 1098              	.LVL125:
 1099 019e 8DED070A 		vstr.32	s0, [sp, #28]
 1100              	.LVL126:
 1101              	.L43:
 1102              	.LBB46:
 1103              	.LBB47:
 1104              		.loc 1 579 0
 1105 01a2 B7EE007A 		vmov.f32	s14, #1.0e+0
 1106 01a6 C7EE0D7A 		vdiv.f32	s15, s14, s26
 1107              	.LVL127:
 1108              	.LBE47:
 1109              	.LBE46:
 1110              		.loc 1 148 0
 1111 01aa 29EEA90A 		vmul.f32	s0, s19, s19
 1112              		.loc 1 143 0
 1113 01ae 6AEEA7AA 		vmul.f32	s21, s21, s15
 1114              	.LVL128:
 1115              		.loc 1 148 0
 1116 01b2 ADEEAD0A 		vfma.f32	s0, s27, s27
 1117              		.loc 1 144 0
 1118 01b6 2BEE27BA 		vmul.f32	s22, s22, s15
 1119              	.LVL129:
 1120              		.loc 1 148 0
 1121 01ba AAEE0A0A 		vfma.f32	s0, s20, s20
 1122              		.loc 1 145 0
 1123 01be 6BEEA7BA 		vmul.f32	s23, s23, s15
 1124              	.LVL130:
 1125 01c2 B5EE400A 		vcmp.f32	s0, #0
 1126 01c6 F1EE10FA 		vmrs	APSR_nzcv, FPSCR
 1127              	.LBB50:
 1128              	.LBB51:
 1129              		.loc 1 579 0
 1130 01ca B1EEC08A 		vsqrt.f32	s16, s0
 1131 01ce 00F10681 		bmi	.L54
 1132              	.LVL131:
 1133              	.L37:
 1134 01d2 F7EE007A 		vmov.f32	s15, #1.0e+0
 1135 01d6 87EE887A 		vdiv.f32	s14, s15, s16
 1136              	.LVL132:
 1137              	.LBE51:
 1138              	.LBE50:
 1139              		.loc 1 166 0
 1140 01da F6EE00EA 		vmov.f32	s29, #5.0e-1
ARM GAS  /tmp/cceFIm08.s 			page 21


 1141              		.loc 1 155 0
 1142 01de D4ED017A 		vldr.32	s15, [r4, #4]
 1143              		.loc 1 156 0
 1144 01e2 94ED025A 		vldr.32	s10, [r4, #8]
 1145              		.loc 1 157 0
 1146 01e6 D4ED034A 		vldr.32	s9, [r4, #12]
 1147              		.loc 1 154 0
 1148 01ea D4ED005A 		vldr.32	s11, [r4]
 1149              		.loc 1 167 0
 1150 01ee B0EE6EDA 		vmov.f32	s26, s29
 1151              	.LVL133:
 1152 01f2 A7EEE7DA 		vfms.f32	s26, s15, s15
 1153              		.loc 1 159 0
 1154 01f6 67EE85FA 		vmul.f32	s31, s15, s10
 1155              		.loc 1 163 0
 1156 01fa 64EEA46A 		vmul.f32	s13, s9, s9
 1157              		.loc 1 167 0
 1158 01fe B0EE6F6A 		vmov.f32	s12, s31
 1159              		.loc 1 150 0
 1160 0202 69EE879A 		vmul.f32	s19, s19, s14
 1161              	.LVL134:
 1162              		.loc 1 167 0
 1163 0206 A5EEA46A 		vfma.f32	s12, s11, s9
 1164 020a 3DEE660A 		vsub.f32	s0, s26, s13
 1165              		.loc 1 166 0
 1166 020e E5EEE4FA 		vfms.f32	s31, s11, s9
 1167              		.loc 1 161 0
 1168 0212 65EE053A 		vmul.f32	s7, s10, s10
 1169              		.loc 1 149 0
 1170 0216 2DEE878A 		vmul.f32	s16, s27, s14
 1171              	.LVL135:
 1172              		.loc 1 167 0
 1173 021a 20EE290A 		vmul.f32	s0, s0, s19
 1174              		.loc 1 166 0
 1175 021e 7EEEE3EA 		vsub.f32	s29, s29, s7
 1176              		.loc 1 167 0
 1177 0222 A6EE080A 		vfma.f32	s0, s12, s16
 1178              		.loc 1 155 0
 1179 0226 25EEA73A 		vmul.f32	s6, s11, s15
 1180              		.loc 1 162 0
 1181 022a 65EE24DA 		vmul.f32	s27, s10, s9
 1182              		.loc 1 166 0
 1183 022e 2FEEA96A 		vmul.f32	s12, s31, s19
 1184 0232 7EEEE6EA 		vsub.f32	s29, s29, s13
 1185              		.loc 1 151 0
 1186 0236 2AEE07AA 		vmul.f32	s20, s20, s14
 1187              	.LVL136:
 1188              		.loc 1 167 0
 1189 023a 3DEEC34A 		vsub.f32	s8, s27, s6
 1190              		.loc 1 166 0
 1191 023e AEEE886A 		vfma.f32	s12, s29, s16
 1192              		.loc 1 156 0
 1193 0242 25EE85EA 		vmul.f32	s28, s11, s10
 1194              		.loc 1 160 0
 1195 0246 27EEA47A 		vmul.f32	s14, s15, s9
 1196              		.loc 1 167 0
 1197 024a A4EE0A0A 		vfma.f32	s0, s8, s20
ARM GAS  /tmp/cceFIm08.s 			page 22


 1198              		.loc 1 166 0
 1199 024e 3EEE074A 		vadd.f32	s8, s28, s14
 1200              		.loc 1 167 0
 1201 0252 30EE000A 		vadd.f32	s0, s0, s0
 1202              		.loc 1 166 0
 1203 0256 A4EE0A6A 		vfma.f32	s12, s8, s20
 1204              		.loc 1 168 0
 1205 025a 20EE000A 		vmul.f32	s0, s0, s0
 1206              		.loc 1 166 0
 1207 025e 36EE066A 		vadd.f32	s12, s12, s12
 1208              		.loc 1 154 0
 1209 0262 25EEA5FA 		vmul.f32	s30, s11, s11
 1210              	.LVL137:
 1211              		.loc 1 168 0
 1212 0266 A6EE060A 		vfma.f32	s0, s12, s12
 1213 026a B5EE400A 		vcmp.f32	s0, #0
 1214 026e F1EE10FA 		vmrs	APSR_nzcv, FPSCR
 1215 0272 B1EEC06A 		vsqrt.f32	s12, s0
 1216              	.LVL138:
 1217 0276 00F1B580 		bmi	.L55
 1218              	.LVL139:
 1219              	.L38:
 1220              		.loc 1 185 0
 1221 027a 0023     		movs	r3, #0
 1222              		.loc 1 169 0
 1223 027c 73EE2DDA 		vadd.f32	s27, s6, s27
 1224              	.LVL140:
 1225 0280 37EE4EEA 		vsub.f32	s28, s14, s28
 1226              	.LVL141:
 1227 0284 2DEEA97A 		vmul.f32	s14, s27, s19
 1228 0288 3DEE63DA 		vsub.f32	s26, s26, s7
 1229 028c AEEE087A 		vfma.f32	s14, s28, s16
 1230              		.loc 1 174 0
 1231 0290 F6EE003A 		vmov.f32	s7, #5.0e-1
 1232              		.loc 1 169 0
 1233 0294 ADEE0A7A 		vfma.f32	s14, s26, s20
 1234              		.loc 1 174 0
 1235 0298 3FEE63FA 		vsub.f32	s30, s30, s7
 1236              	.LVL142:
 1237              		.loc 1 169 0
 1238 029c 37EE077A 		vadd.f32	s14, s14, s14
 1239              	.LVL143:
 1240              		.loc 1 174 0
 1241 02a0 7FEE266A 		vadd.f32	s13, s30, s13
 1242              	.LVL144:
 1243              		.loc 1 177 0
 1244 02a4 2DEE07DA 		vmul.f32	s26, s26, s14
 1245              		.loc 1 176 0
 1246 02a8 2DEE873A 		vmul.f32	s6, s27, s14
 1247              		.loc 1 175 0
 1248 02ac 2EEE077A 		vmul.f32	s14, s28, s14
 1249              	.LVL145:
 1250              		.loc 1 177 0
 1251 02b0 A4EE06DA 		vfma.f32	s26, s8, s12
 1252              		.loc 1 175 0
 1253 02b4 AEEE867A 		vfma.f32	s14, s29, s12
 1254              	.LVL146:
ARM GAS  /tmp/cceFIm08.s 			page 23


 1255              		.loc 1 176 0
 1256 02b8 AFEE863A 		vfma.f32	s6, s31, s12
 1257              	.LVL147:
 1258              		.loc 1 181 0
 1259 02bc 6DEE481A 		vnmul.f32	s3, s26, s16
 1260              		.loc 1 182 0
 1261 02c0 2BEE4E6A 		vnmul.f32	s12, s22, s28
 1262              	.LVL148:
 1263              		.loc 1 180 0
 1264 02c4 6BEEED3A 		vnmul.f32	s7, s23, s27
 1265              		.loc 1 181 0
 1266 02c8 26EEEA4A 		vnmul.f32	s8, s13, s21
 1267              		.loc 1 182 0
 1268 02cc 27EE692A 		vnmul.f32	s4, s14, s19
 1269              		.loc 1 180 0
 1270 02d0 23EE4A1A 		vnmul.f32	s2, s6, s20
 1271              		.loc 1 181 0
 1272 02d4 EAEE071A 		vfma.f32	s3, s20, s14
 1273              		.loc 1 180 0
 1274 02d8 EBEE263A 		vfma.f32	s7, s22, s13
 1275              		.loc 1 182 0
 1276 02dc B0EE467A 		vmov.f32	s14, s12
 1277              	.LVL149:
 1278              		.loc 1 181 0
 1279 02e0 F0EE446A 		vmov.f32	s13, s8
 1280              	.LVL150:
 1281              		.loc 1 185 0
 1282 02e4 DDED072A 		vldr.32	s5, [sp, #28]
 1283              		.loc 1 180 0
 1284 02e8 A9EE8D1A 		vfma.f32	s2, s19, s26
 1285              		.loc 1 182 0
 1286 02ec A8EE032A 		vfma.f32	s4, s16, s6
 1287              		.loc 1 181 0
 1288 02f0 EEEE2B6A 		vfma.f32	s13, s28, s23
 1289              		.loc 1 182 0
 1290 02f4 ADEEAA7A 		vfma.f32	s14, s27, s21
 1291              		.loc 1 185 0
 1292 02f8 F5EEC02A 		vcmpe.f32	s5, #0
 1293 02fc F1EE10FA 		vmrs	APSR_nzcv, FPSCR
 1294              		.loc 1 180 0
 1295 0300 33EE816A 		vadd.f32	s12, s7, s2
 1296              	.LVL151:
 1297              		.loc 1 181 0
 1298 0304 76EEA16A 		vadd.f32	s13, s13, s3
 1299              	.LVL152:
 1300              		.loc 1 182 0
 1301 0308 37EE027A 		vadd.f32	s14, s14, s4
 1302              	.LVL153:
 1303              		.loc 1 185 0
 1304 030c 30DD     		ble	.L46
 1305              		.loc 1 186 0
 1306 030e DDED071A 		vldr.32	s3, [sp, #28]
 1307              		.loc 1 187 0
 1308 0312 9DED072A 		vldr.32	s4, [sp, #28]
 1309              		.loc 1 188 0
 1310 0316 DDED072A 		vldr.32	s5, [sp, #28]
 1311              		.loc 1 186 0
ARM GAS  /tmp/cceFIm08.s 			page 24


 1312 031a 94ED043A 		vldr.32	s6, [r4, #16]
 1313              	.LVL154:
 1314              		.loc 1 187 0
 1315 031e D4ED053A 		vldr.32	s7, [r4, #20]
 1316              		.loc 1 188 0
 1317 0322 94ED064A 		vldr.32	s8, [r4, #24]
 1318              		.loc 1 186 0
 1319 0326 61EE861A 		vmul.f32	s3, s3, s12
 1320              		.loc 1 187 0
 1321 032a 22EE262A 		vmul.f32	s4, s4, s13
 1322              		.loc 1 188 0
 1323 032e 62EE872A 		vmul.f32	s5, s5, s14
 1324              		.loc 1 186 0
 1325 0332 A1EEAC3A 		vfma.f32	s6, s3, s25
 1326              		.loc 1 187 0
 1327 0336 E2EE2C3A 		vfma.f32	s7, s4, s25
 1328              		.loc 1 188 0
 1329 033a A2EEAC4A 		vfma.f32	s8, s5, s25
 1330              		.loc 1 189 0
 1331 033e 78EE838A 		vadd.f32	s17, s17, s6
 1332              	.LVL155:
 1333              		.loc 1 190 0
 1334 0342 3CEE23CA 		vadd.f32	s24, s24, s7
 1335              	.LVL156:
 1336              		.loc 1 191 0
 1337 0346 39EE049A 		vadd.f32	s18, s18, s8
 1338              	.LVL157:
 1339              		.loc 1 186 0
 1340 034a 84ED043A 		vstr.32	s6, [r4, #16]
 1341              		.loc 1 187 0
 1342 034e C4ED053A 		vstr.32	s7, [r4, #20]
 1343              		.loc 1 188 0
 1344 0352 84ED064A 		vstr.32	s8, [r4, #24]
 1345              	.L41:
 1346              		.loc 1 199 0
 1347 0356 9DED063A 		vldr.32	s6, [sp, #24]
 1348              		.loc 1 200 0
 1349 035a DDED063A 		vldr.32	s7, [sp, #24]
 1350              		.loc 1 201 0
 1351 035e 9DED064A 		vldr.32	s8, [sp, #24]
 1352              		.loc 1 199 0
 1353 0362 E3EE068A 		vfma.f32	s17, s6, s12
 1354              	.LVL158:
 1355              		.loc 1 200 0
 1356 0366 A3EEA6CA 		vfma.f32	s24, s7, s13
 1357              	.LVL159:
 1358              		.loc 1 201 0
 1359 036a A4EE079A 		vfma.f32	s18, s8, s14
 1360              	.LVL160:
 1361 036e 8EE6     		b	.L36
 1362              	.LVL161:
 1363              	.L46:
 1364              		.loc 1 193 0
 1365 0370 2361     		str	r3, [r4, #16]	@ float
 1366              		.loc 1 194 0
 1367 0372 6361     		str	r3, [r4, #20]	@ float
 1368              		.loc 1 195 0
ARM GAS  /tmp/cceFIm08.s 			page 25


 1369 0374 A361     		str	r3, [r4, #24]	@ float
 1370 0376 EEE7     		b	.L41
 1371              	.LVL162:
 1372              	.L53:
 1373              	.LBE45:
 1374              	.LBB56:
 1375              	.LBB44:
 1376              		.loc 1 579 0
 1377 0378 FFF7FEFF 		bl	sqrtf
 1378              	.LVL163:
 1379 037c 94ED006A 		vldr.32	s12, [r4]
 1380 0380 D4ED016A 		vldr.32	s13, [r4, #4]
 1381 0384 94ED027A 		vldr.32	s14, [r4, #8]
 1382 0388 D4ED037A 		vldr.32	s15, [r4, #12]
 1383 038c C3E6     		b	.L42
 1384              	.LVL164:
 1385              	.L52:
 1386              	.LBE44:
 1387              	.LBE56:
 1388              		.loc 1 123 0
 1389 038e B0EE480A 		vmov.f32	s0, s16
 1390 0392 FFF7FEFF 		bl	sqrtf
 1391              	.LVL165:
 1392              		.loc 1 127 0
 1393 0396 DFED257A 		vldr.32	s15, .L56
 1394 039a B4EEE7DA 		vcmpe.f32	s26, s15
 1395 039e F1EE10FA 		vmrs	APSR_nzcv, FPSCR
 1396 03a2 7FF76CAE 		ble	.L49
 1397              	.LBB57:
 1398              		.loc 1 134 0
 1399 03a6 224B     		ldr	r3, .L56+4
 1400 03a8 0693     		str	r3, [sp, #24]	@ float
 1401              		.loc 1 137 0
 1402 03aa 04F11C00 		add	r0, r4, #28
 1403 03ae B0EE4D0A 		vmov.f32	s0, s26
 1404              		.loc 1 135 0
 1405 03b2 0795     		str	r5, [sp, #28]	@ float
 1406              		.loc 1 137 0
 1407 03b4 FFF7FEFF 		bl	calculateAccConfidence
 1408              	.LVL166:
 1409              		.loc 1 138 0
 1410 03b8 9DED067A 		vldr.32	s14, [sp, #24]
 1411 03bc 20EE077A 		vmul.f32	s14, s0, s14
 1412              		.loc 1 137 0
 1413 03c0 F0EE407A 		vmov.f32	s15, s0
 1414              	.LVL167:
 1415              		.loc 1 138 0
 1416 03c4 8DED067A 		vstr.32	s14, [sp, #24]
 1417              		.loc 1 139 0
 1418 03c8 9DED077A 		vldr.32	s14, [sp, #28]
 1419 03cc 67EE877A 		vmul.f32	s15, s15, s14
 1420              	.LBB53:
 1421              	.LBB48:
 1422              		.loc 1 579 0
 1423 03d0 B0EE480A 		vmov.f32	s0, s16
 1424              	.LVL168:
 1425              	.LBE48:
ARM GAS  /tmp/cceFIm08.s 			page 26


 1426              	.LBE53:
 1427              		.loc 1 139 0
 1428 03d4 CDED077A 		vstr.32	s15, [sp, #28]
 1429              	.LVL169:
 1430              	.LBB54:
 1431              	.LBB49:
 1432              		.loc 1 579 0
 1433 03d8 FFF7FEFF 		bl	sqrtf
 1434              	.LVL170:
 1435 03dc E1E6     		b	.L43
 1436              	.LVL171:
 1437              	.L54:
 1438              	.LBE49:
 1439              	.LBE54:
 1440              	.LBB55:
 1441              	.LBB52:
 1442 03de FFF7FEFF 		bl	sqrtf
 1443              	.LVL172:
 1444 03e2 F6E6     		b	.L37
 1445              	.LVL173:
 1446              	.L55:
 1447 03e4 8DED056A 		vstr.32	s12, [sp, #20]	@ int
 1448 03e8 CDED046A 		vstr.32	s13, [sp, #16]	@ int
 1449 03ec CDED033A 		vstr.32	s7, [sp, #12]	@ int
 1450 03f0 8DED027A 		vstr.32	s14, [sp, #8]	@ int
 1451 03f4 8DED013A 		vstr.32	s6, [sp, #4]	@ int
 1452 03f8 8DED004A 		vstr.32	s8, [sp]	@ int
 1453              	.LBE52:
 1454              	.LBE55:
 1455              		.loc 1 168 0
 1456 03fc FFF7FEFF 		bl	sqrtf
 1457              	.LVL174:
 1458 0400 D4ED005A 		vldr.32	s11, [r4]
 1459 0404 D4ED017A 		vldr.32	s15, [r4, #4]
 1460 0408 94ED025A 		vldr.32	s10, [r4, #8]
 1461 040c D4ED034A 		vldr.32	s9, [r4, #12]
 1462 0410 9DED056A 		vldr.32	s12, [sp, #20]	@ int
 1463 0414 DDED046A 		vldr.32	s13, [sp, #16]	@ int
 1464 0418 DDED033A 		vldr.32	s7, [sp, #12]	@ int
 1465 041c 9DED027A 		vldr.32	s14, [sp, #8]	@ int
 1466 0420 9DED013A 		vldr.32	s6, [sp, #4]	@ int
 1467 0424 9DED004A 		vldr.32	s8, [sp]	@ int
 1468 0428 27E7     		b	.L38
 1469              	.L57:
 1470 042a 00BF     		.align	2
 1471              	.L56:
 1472 042c 0AD7233C 		.word	1008981770
 1473 0430 9A99193F 		.word	1058642330
 1474              	.LBE57:
 1475              		.cfi_endproc
 1476              	.LFE222:
 1477              		.size	ahrs_update_mahony, .-ahrs_update_mahony
 1478              		.section	.text.ahrs_update_madgwick_imu,"ax",%progbits
 1479              		.align	1
 1480              		.p2align 4,,15
 1481              		.global	ahrs_update_madgwick_imu
 1482              		.syntax unified
ARM GAS  /tmp/cceFIm08.s 			page 27


 1483              		.thumb
 1484              		.thumb_func
 1485              		.fpu fpv4-sp-d16
 1486              		.type	ahrs_update_madgwick_imu, %function
 1487              	ahrs_update_madgwick_imu:
 1488              	.LFB225:
 1489              		.loc 1 433 0
 1490              		.cfi_startproc
 1491              		@ args = 0, pretend = 0, frame = 0
 1492              		@ frame_needed = 0, uses_anonymous_args = 0
 1493              	.LVL175:
 1494 0000 10B5     		push	{r4, lr}
 1495              		.cfi_def_cfa_offset 8
 1496              		.cfi_offset 4, -8
 1497              		.cfi_offset 14, -4
 1498 0002 2DED108B 		vpush.64	{d8, d9, d10, d11, d12, d13, d14, d15}
 1499              		.cfi_def_cfa_offset 72
 1500              		.cfi_offset 80, -72
 1501              		.cfi_offset 81, -68
 1502              		.cfi_offset 82, -64
 1503              		.cfi_offset 83, -60
 1504              		.cfi_offset 84, -56
 1505              		.cfi_offset 85, -52
 1506              		.cfi_offset 86, -48
 1507              		.cfi_offset 87, -44
 1508              		.cfi_offset 88, -40
 1509              		.cfi_offset 89, -36
 1510              		.cfi_offset 90, -32
 1511              		.cfi_offset 91, -28
 1512              		.cfi_offset 92, -24
 1513              		.cfi_offset 93, -20
 1514              		.cfi_offset 94, -16
 1515              		.cfi_offset 95, -12
 1516              		.loc 1 447 0
 1517 0006 91ED01EA 		vldr.32	s28, [r1, #4]
 1518              		.loc 1 444 0
 1519 000a D0ED026A 		vldr.32	s13, [r0, #8]
 1520              		.loc 1 443 0
 1521 000e 90ED017A 		vldr.32	s14, [r0, #4]
 1522              		.loc 1 438 0
 1523 0012 92ED018A 		vldr.32	s16, [r2, #4]
 1524              		.loc 1 439 0
 1525 0016 D2ED02BA 		vldr.32	s23, [r2, #8]
 1526              		.loc 1 446 0
 1527 001a D1ED008A 		vldr.32	s17, [r1]
 1528              		.loc 1 442 0
 1529 001e D0ED007A 		vldr.32	s15, [r0]
 1530              		.loc 1 437 0
 1531 0022 92ED00CA 		vldr.32	s24, [r2]
 1532              	.LVL176:
 1533              		.loc 1 448 0
 1534 0026 D1ED02EA 		vldr.32	s29, [r1, #8]
 1535              		.loc 1 440 0
 1536 002a D2ED03CA 		vldr.32	s25, [r2, #12]
 1537              	.LVL177:
 1538              		.loc 1 456 0
 1539 002e 2EEE0E9A 		vmul.f32	s18, s28, s28
ARM GAS  /tmp/cceFIm08.s 			page 28


 1540              		.loc 1 453 0
 1541 0032 26EEC8BA 		vnmul.f32	s22, s13, s16
 1542              		.loc 1 451 0
 1543 0036 27EE6BAA 		vnmul.f32	s20, s14, s23
 1544              		.loc 1 452 0
 1545 003a 6BEEA6AA 		vmul.f32	s21, s23, s13
 1546              		.loc 1 454 0
 1547 003e 28EE07DA 		vmul.f32	s26, s16, s14
 1548              		.loc 1 456 0
 1549 0042 A8EEA89A 		vfma.f32	s18, s17, s17
 1550              		.loc 1 433 0
 1551 0046 1446     		mov	r4, r2
 1552              		.loc 1 451 0
 1553 0048 A8EE67AA 		vfms.f32	s20, s16, s15
 1554              		.loc 1 452 0
 1555 004c ECEE27AA 		vfma.f32	s21, s24, s15
 1556              		.loc 1 453 0
 1557 0050 ACEE07BA 		vfma.f32	s22, s24, s14
 1558              		.loc 1 454 0
 1559 0054 ACEE26DA 		vfma.f32	s26, s24, s13
 1560              		.loc 1 456 0
 1561 0058 AEEEAE9A 		vfma.f32	s18, s29, s29
 1562              		.loc 1 451 0
 1563 005c B1EE6C6A 		vneg.f32	s12, s25
 1564              		.loc 1 453 0
 1565 0060 ACEEA7BA 		vfma.f32	s22, s25, s15
 1566              		.loc 1 454 0
 1567 0064 ABEEE7DA 		vfms.f32	s26, s23, s15
 1568              		.loc 1 451 0
 1569 0068 A6EE26AA 		vfma.f32	s20, s12, s13
 1570              		.loc 1 452 0
 1571 006c E6EE07AA 		vfma.f32	s21, s12, s14
 1572 0070 B5EE409A 		vcmp.f32	s18, #0
 1573              		.loc 1 451 0
 1574 0074 F6EE007A 		vmov.f32	s15, #5.0e-1
 1575              	.LVL178:
 1576 0078 F1EE10FA 		vmrs	APSR_nzcv, FPSCR
 1577              		.loc 1 433 0
 1578 007c F0EE40DA 		vmov.f32	s27, s0
 1579              		.loc 1 453 0
 1580 0080 2BEE27BA 		vmul.f32	s22, s22, s15
 1581              		.loc 1 451 0
 1582 0084 2AEE27AA 		vmul.f32	s20, s20, s15
 1583              	.LVL179:
 1584              		.loc 1 452 0
 1585 0088 6AEEA7AA 		vmul.f32	s21, s21, s15
 1586              	.LVL180:
 1587              		.loc 1 454 0
 1588 008c 2DEE27DA 		vmul.f32	s26, s26, s15
 1589              	.LVL181:
 1590              		.loc 1 456 0
 1591 0090 B1EEC9FA 		vsqrt.f32	s30, s18
 1592 0094 35D4     		bmi	.L67
 1593              	.LVL182:
 1594              		.loc 1 460 0
 1595 0096 DFED6E7A 		vldr.32	s15, .L70
 1596 009a B4EEE7FA 		vcmpe.f32	s30, s15
ARM GAS  /tmp/cceFIm08.s 			page 29


 1597 009e F1EE10FA 		vmrs	APSR_nzcv, FPSCR
 1598 00a2 3DDC     		bgt	.L64
 1599              	.LVL183:
 1600              	.L61:
 1601              		.loc 1 507 0
 1602 00a4 AAEEAD8A 		vfma.f32	s16, s21, s27
 1603              	.LVL184:
 1604              		.loc 1 506 0
 1605 00a8 AAEE2DCA 		vfma.f32	s24, s20, s27
 1606              	.LVL185:
 1607              		.loc 1 512 0
 1608 00ac 28EE080A 		vmul.f32	s0, s16, s16
 1609              		.loc 1 508 0
 1610 00b0 EBEE2DBA 		vfma.f32	s23, s22, s27
 1611              	.LVL186:
 1612              		.loc 1 512 0
 1613 00b4 ACEE0C0A 		vfma.f32	s0, s24, s24
 1614              		.loc 1 509 0
 1615 00b8 EDEE2DCA 		vfma.f32	s25, s26, s27
 1616              	.LVL187:
 1617              		.loc 1 512 0
 1618 00bc ABEEAB0A 		vfma.f32	s0, s23, s23
 1619 00c0 ACEEAC0A 		vfma.f32	s0, s25, s25
 1620              	.LVL188:
 1621 00c4 B5EE400A 		vcmp.f32	s0, #0
 1622 00c8 F1EE10FA 		vmrs	APSR_nzcv, FPSCR
 1623              	.LBB58:
 1624              	.LBB59:
 1625              		.loc 1 579 0
 1626 00cc F1EEC09A 		vsqrt.f32	s19, s0
 1627 00d0 00F1B880 		bmi	.L68
 1628              	.LVL189:
 1629              	.L63:
 1630 00d4 B7EE007A 		vmov.f32	s14, #1.0e+0
 1631 00d8 C7EE297A 		vdiv.f32	s15, s14, s19
 1632              	.LVL190:
 1633              	.LBE59:
 1634              	.LBE58:
 1635              		.loc 1 513 0
 1636 00dc 2CEE27CA 		vmul.f32	s24, s24, s15
 1637              	.LVL191:
 1638              		.loc 1 514 0
 1639 00e0 28EE278A 		vmul.f32	s16, s16, s15
 1640              	.LVL192:
 1641              		.loc 1 515 0
 1642 00e4 2BEEA79A 		vmul.f32	s18, s23, s15
 1643              	.LVL193:
 1644              		.loc 1 516 0
 1645 00e8 6CEEA78A 		vmul.f32	s17, s25, s15
 1646              	.LVL194:
 1647              		.loc 1 518 0
 1648 00ec 84ED00CA 		vstr.32	s24, [r4]
 1649              		.loc 1 519 0
 1650 00f0 84ED018A 		vstr.32	s16, [r4, #4]
 1651              		.loc 1 520 0
 1652 00f4 84ED029A 		vstr.32	s18, [r4, #8]
 1653              		.loc 1 521 0
ARM GAS  /tmp/cceFIm08.s 			page 30


 1654 00f8 C4ED038A 		vstr.32	s17, [r4, #12]
 1655              		.loc 1 522 0
 1656 00fc BDEC108B 		vldm	sp!, {d8-d15}
 1657              		.cfi_remember_state
 1658              		.cfi_restore 94
 1659              		.cfi_restore 95
 1660              		.cfi_restore 92
 1661              		.cfi_restore 93
 1662              		.cfi_restore 90
 1663              		.cfi_restore 91
 1664              		.cfi_restore 88
 1665              		.cfi_restore 89
 1666              		.cfi_restore 86
 1667              		.cfi_restore 87
 1668              		.cfi_restore 84
 1669              		.cfi_restore 85
 1670              		.cfi_restore 82
 1671              		.cfi_restore 83
 1672              		.cfi_restore 80
 1673              		.cfi_restore 81
 1674              		.cfi_def_cfa_offset 8
 1675              	.LVL195:
 1676 0100 10BD     		pop	{r4, pc}
 1677              	.LVL196:
 1678              	.L67:
 1679              		.cfi_restore_state
 1680              		.loc 1 456 0
 1681 0102 B0EE490A 		vmov.f32	s0, s18
 1682              	.LVL197:
 1683 0106 FFF7FEFF 		bl	sqrtf
 1684              	.LVL198:
 1685              		.loc 1 460 0
 1686 010a DFED517A 		vldr.32	s15, .L70
 1687 010e B4EEE7FA 		vcmpe.f32	s30, s15
 1688 0112 F1EE10FA 		vmrs	APSR_nzcv, FPSCR
 1689 0116 C5DD     		ble	.L61
 1690              	.LVL199:
 1691              	.LBB61:
 1692              	.LBB62:
 1693              	.LBB63:
 1694              		.loc 1 579 0
 1695 0118 B0EE490A 		vmov.f32	s0, s18
 1696 011c FFF7FEFF 		bl	sqrtf
 1697              	.LVL200:
 1698              	.L64:
 1699 0120 F7EE007A 		vmov.f32	s15, #1.0e+0
 1700 0124 C7EE8F4A 		vdiv.f32	s9, s15, s30
 1701              	.LBE63:
 1702              	.LBE62:
 1703              		.loc 1 475 0
 1704 0128 7CEEAC5A 		vadd.f32	s11, s25, s25
 1705              		.loc 1 467 0
 1706 012c 68EEA48A 		vmul.f32	s17, s17, s9
 1707              	.LVL201:
 1708              		.loc 1 476 0
 1709 0130 B1EE007A 		vmov.f32	s14, #4.0e+0
 1710              		.loc 1 477 0
ARM GAS  /tmp/cceFIm08.s 			page 31


 1711 0134 28EE075A 		vmul.f32	s10, s16, s14
 1712              		.loc 1 488 0
 1713 0138 65EEE89A 		vnmul.f32	s19, s11, s17
 1714              		.loc 1 484 0
 1715 013c 2CEEAC6A 		vmul.f32	s12, s25, s25
 1716              		.loc 1 481 0
 1717 0140 6CEE0C6A 		vmul.f32	s13, s24, s24
 1718              		.loc 1 488 0
 1719 0144 E5EE069A 		vfma.f32	s19, s10, s12
 1720 0148 66EE876A 		vmul.f32	s13, s13, s14
 1721              		.loc 1 472 0
 1722 014c 3CEE0C4A 		vadd.f32	s8, s24, s24
 1723              		.loc 1 488 0
 1724 0150 E6EE889A 		vfma.f32	s19, s13, s16
 1725              		.loc 1 489 0
 1726 0154 28EE849A 		vmul.f32	s18, s17, s8
 1727              		.loc 1 487 0
 1728 0158 64EECE7A 		vnmul.f32	s15, s9, s28
 1729              		.loc 1 489 0
 1730 015c A6EEAB9A 		vfma.f32	s18, s13, s23
 1731              		.loc 1 488 0
 1732 0160 E7EE849A 		vfma.f32	s19, s15, s8
 1733              		.loc 1 478 0
 1734 0164 6BEE876A 		vmul.f32	s13, s23, s14
 1735              		.loc 1 479 0
 1736 0168 F2EE003A 		vmov.f32	s7, #8.0e+0
 1737              		.loc 1 489 0
 1738 016c A6EE869A 		vfma.f32	s18, s13, s12
 1739              		.loc 1 479 0
 1740 0170 68EE232A 		vmul.f32	s5, s16, s7
 1741              		.loc 1 482 0
 1742 0174 28EE086A 		vmul.f32	s12, s16, s16
 1743              		.loc 1 488 0
 1744 0178 79EEC59A 		vsub.f32	s19, s19, s10
 1745              		.loc 1 489 0
 1746 017c A7EEA59A 		vfma.f32	s18, s15, s11
 1747              		.loc 1 488 0
 1748 0180 E2EE869A 		vfma.f32	s19, s5, s12
 1749              		.loc 1 474 0
 1750 0184 7BEEAB5A 		vadd.f32	s11, s23, s23
 1751              		.loc 1 483 0
 1752 0188 2BEEAB4A 		vmul.f32	s8, s23, s23
 1753              		.loc 1 476 0
 1754 018c 2CEE073A 		vmul.f32	s6, s24, s14
 1755              		.loc 1 487 0
 1756 0190 28EEA5EA 		vmul.f32	s28, s17, s11
 1757              	.LVL202:
 1758              		.loc 1 488 0
 1759 0194 E2EE849A 		vfma.f32	s19, s5, s8
 1760              		.loc 1 487 0
 1761 0198 A3EE04EA 		vfma.f32	s28, s6, s8
 1762              		.loc 1 469 0
 1763 019c 6EEEA4EA 		vmul.f32	s29, s29, s9
 1764              	.LVL203:
 1765              		.loc 1 480 0
 1766 01a0 6BEEA33A 		vmul.f32	s7, s23, s7
 1767              	.LVL204:
ARM GAS  /tmp/cceFIm08.s 			page 32


 1768              		.loc 1 489 0
 1769 01a4 39EE669A 		vsub.f32	s18, s18, s13
 1770              		.loc 1 488 0
 1771 01a8 EEEE859A 		vfma.f32	s19, s29, s10
 1772              		.loc 1 489 0
 1773 01ac A3EE869A 		vfma.f32	s18, s7, s12
 1774              		.loc 1 487 0
 1775 01b0 A3EE06EA 		vfma.f32	s28, s6, s12
 1776              		.loc 1 473 0
 1777 01b4 38EE085A 		vadd.f32	s10, s16, s16
 1778              	.LVL205:
 1779              		.loc 1 490 0
 1780 01b8 26EE076A 		vmul.f32	s12, s12, s14
 1781              	.LVL206:
 1782 01bc 65EE688A 		vnmul.f32	s17, s10, s17
 1783              	.LVL207:
 1784              		.loc 1 489 0
 1785 01c0 A3EE849A 		vfma.f32	s18, s7, s8
 1786              		.loc 1 487 0
 1787 01c4 A7EE85EA 		vfma.f32	s28, s15, s10
 1788              	.LVL208:
 1789              		.loc 1 490 0
 1790 01c8 E6EE2C8A 		vfma.f32	s17, s12, s25
 1791              		.loc 1 491 0
 1792 01cc 29EEA90A 		vmul.f32	s0, s19, s19
 1793              		.loc 1 490 0
 1794 01d0 24EE077A 		vmul.f32	s14, s8, s14
 1795              	.LVL209:
 1796              		.loc 1 489 0
 1797 01d4 AEEEA69A 		vfma.f32	s18, s29, s13
 1798              	.LVL210:
 1799              		.loc 1 491 0
 1800 01d8 AEEE0E0A 		vfma.f32	s0, s28, s28
 1801              		.loc 1 490 0
 1802 01dc E7EE2C8A 		vfma.f32	s17, s14, s25
 1803              		.loc 1 491 0
 1804 01e0 A9EE090A 		vfma.f32	s0, s18, s18
 1805              		.loc 1 490 0
 1806 01e4 E7EEA58A 		vfma.f32	s17, s15, s11
 1807              	.LVL211:
 1808              		.loc 1 491 0
 1809 01e8 A8EEA80A 		vfma.f32	s0, s17, s17
 1810              	.LVL212:
 1811 01ec B5EE400A 		vcmp.f32	s0, #0
 1812 01f0 F1EE10FA 		vmrs	APSR_nzcv, FPSCR
 1813              	.LBB64:
 1814              	.LBB65:
 1815              		.loc 1 579 0
 1816 01f4 F1EEC0EA 		vsqrt.f32	s29, s0
 1817              	.LVL213:
 1818 01f8 27D4     		bmi	.L69
 1819              	.LVL214:
 1820              	.L62:
 1821              	.LBE65:
 1822              	.LBE64:
 1823              		.loc 1 498 0
 1824 01fa 04F11C00 		add	r0, r4, #28
ARM GAS  /tmp/cceFIm08.s 			page 33


 1825              	.LBB68:
 1826              	.LBB66:
 1827              		.loc 1 579 0
 1828 01fe B7EE007A 		vmov.f32	s14, #1.0e+0
 1829 0202 C7EE2E7A 		vdiv.f32	s15, s14, s29
 1830              	.LVL215:
 1831              	.LBE66:
 1832              	.LBE68:
 1833              		.loc 1 498 0
 1834 0206 B0EE4F0A 		vmov.f32	s0, s30
 1835              		.loc 1 492 0
 1836 020a 2EEE27EA 		vmul.f32	s28, s28, s15
 1837              	.LVL216:
 1838              		.loc 1 493 0
 1839 020e 69EEA79A 		vmul.f32	s19, s19, s15
 1840              	.LVL217:
 1841              		.loc 1 494 0
 1842 0212 29EE279A 		vmul.f32	s18, s18, s15
 1843              	.LVL218:
 1844              		.loc 1 495 0
 1845 0216 68EEA78A 		vmul.f32	s17, s17, s15
 1846              	.LVL219:
 1847              		.loc 1 498 0
 1848 021a FFF7FEFF 		bl	calculateAccConfidence
 1849              	.LVL220:
 1850              		.loc 1 499 0
 1851 021e DFED0D7A 		vldr.32	s15, .L70+4
 1852 0222 27EECEEA 		vnmul.f32	s28, s15, s28
 1853              	.LVL221:
 1854              		.loc 1 500 0
 1855 0226 67EEE99A 		vnmul.f32	s19, s15, s19
 1856              	.LVL222:
 1857              		.loc 1 501 0
 1858 022a 27EEC99A 		vnmul.f32	s18, s15, s18
 1859              	.LVL223:
 1860              		.loc 1 502 0
 1861 022e 67EEE88A 		vnmul.f32	s17, s15, s17
 1862              	.LVL224:
 1863              		.loc 1 499 0
 1864 0232 AEEE00AA 		vfma.f32	s20, s28, s0
 1865              	.LVL225:
 1866              		.loc 1 500 0
 1867 0236 E9EE80AA 		vfma.f32	s21, s19, s0
 1868              	.LVL226:
 1869              		.loc 1 501 0
 1870 023a A9EE00BA 		vfma.f32	s22, s18, s0
 1871              	.LVL227:
 1872              		.loc 1 502 0
 1873 023e A8EE80DA 		vfma.f32	s26, s17, s0
 1874              	.LVL228:
 1875 0242 2FE7     		b	.L61
 1876              	.LVL229:
 1877              	.L68:
 1878              	.LBE61:
 1879              	.LBB70:
 1880              	.LBB60:
 1881              		.loc 1 579 0
ARM GAS  /tmp/cceFIm08.s 			page 34


 1882 0244 FFF7FEFF 		bl	sqrtf
 1883              	.LVL230:
 1884 0248 44E7     		b	.L63
 1885              	.LVL231:
 1886              	.L69:
 1887              	.LBE60:
 1888              	.LBE70:
 1889              	.LBB71:
 1890              	.LBB69:
 1891              	.LBB67:
 1892 024a FFF7FEFF 		bl	sqrtf
 1893              	.LVL232:
 1894 024e D4E7     		b	.L62
 1895              	.L71:
 1896              		.align	2
 1897              	.L70:
 1898 0250 0AD7233C 		.word	1008981770
 1899 0254 CDCCCC3D 		.word	1036831949
 1900              	.LBE67:
 1901              	.LBE69:
 1902              	.LBE71:
 1903              		.cfi_endproc
 1904              	.LFE225:
 1905              		.size	ahrs_update_madgwick_imu, .-ahrs_update_madgwick_imu
 1906              		.section	.text.ahrs_update_madgwick,"ax",%progbits
 1907              		.align	1
 1908              		.p2align 4,,15
 1909              		.global	ahrs_update_madgwick
 1910              		.syntax unified
 1911              		.thumb
 1912              		.thumb_func
 1913              		.fpu fpv4-sp-d16
 1914              		.type	ahrs_update_madgwick, %function
 1915              	ahrs_update_madgwick:
 1916              	.LFB224:
 1917              		.loc 1 308 0
 1918              		.cfi_startproc
 1919              		@ args = 0, pretend = 0, frame = 72
 1920              		@ frame_needed = 0, uses_anonymous_args = 0
 1921              	.LVL233:
 1922 0000 10B5     		push	{r4, lr}
 1923              		.cfi_def_cfa_offset 8
 1924              		.cfi_offset 4, -8
 1925              		.cfi_offset 14, -4
 1926 0002 2DED108B 		vpush.64	{d8, d9, d10, d11, d12, d13, d14, d15}
 1927              		.cfi_def_cfa_offset 72
 1928              		.cfi_offset 80, -72
 1929              		.cfi_offset 81, -68
 1930              		.cfi_offset 82, -64
 1931              		.cfi_offset 83, -60
 1932              		.cfi_offset 84, -56
 1933              		.cfi_offset 85, -52
 1934              		.cfi_offset 86, -48
 1935              		.cfi_offset 87, -44
 1936              		.cfi_offset 88, -40
 1937              		.cfi_offset 89, -36
 1938              		.cfi_offset 90, -32
ARM GAS  /tmp/cceFIm08.s 			page 35


 1939              		.cfi_offset 91, -28
 1940              		.cfi_offset 92, -24
 1941              		.cfi_offset 93, -20
 1942              		.cfi_offset 94, -16
 1943              		.cfi_offset 95, -12
 1944              		.loc 1 325 0
 1945 0006 92ED00EA 		vldr.32	s28, [r2]
 1946              		.loc 1 326 0
 1947 000a 92ED01CA 		vldr.32	s24, [r2, #4]
 1948              		.loc 1 327 0
 1949 000e D2ED02FA 		vldr.32	s31, [r2, #8]
 1950              		.loc 1 312 0
 1951 0012 D3ED009A 		vldr.32	s19, [r3]
 1952              	.LVL234:
 1953              		.loc 1 313 0
 1954 0016 93ED019A 		vldr.32	s18, [r3, #4]
 1955              	.LVL235:
 1956              		.loc 1 314 0
 1957 001a 93ED028A 		vldr.32	s16, [r3, #8]
 1958              	.LVL236:
 1959              		.loc 1 315 0
 1960 001e D3ED038A 		vldr.32	s17, [r3, #12]
 1961              	.LVL237:
 1962              		.loc 1 317 0
 1963 0022 90ED007A 		vldr.32	s14, [r0]
 1964              	.LVL238:
 1965              		.loc 1 318 0
 1966 0026 D0ED016A 		vldr.32	s13, [r0, #4]
 1967              	.LVL239:
 1968              		.loc 1 319 0
 1969 002a 90ED026A 		vldr.32	s12, [r0, #8]
 1970              	.LVL240:
 1971              		.loc 1 321 0
 1972 002e D1ED000A 		vldr.32	s1, [r1]
 1973              	.LVL241:
 1974              		.loc 1 322 0
 1975 0032 D1ED01EA 		vldr.32	s29, [r1, #4]
 1976              	.LVL242:
 1977              		.loc 1 323 0
 1978 0036 D1ED02DA 		vldr.32	s27, [r1, #8]
 1979              	.LVL243:
 1980              		.loc 1 330 0
 1981 003a B5EE40EA 		vcmp.f32	s28, #0
 1982 003e F1EE10FA 		vmrs	APSR_nzcv, FPSCR
 1983              		.loc 1 308 0
 1984 0042 92B0     		sub	sp, sp, #72
 1985              		.cfi_def_cfa_offset 144
 1986              		.loc 1 308 0
 1987 0044 F0EE40BA 		vmov.f32	s23, s0
 1988              		.loc 1 330 0
 1989 0048 04D1     		bne	.L73
 1990              		.loc 1 330 0 is_stmt 0 discriminator 1
 1991 004a B5EE40CA 		vcmp.f32	s24, #0
 1992 004e F1EE10FA 		vmrs	APSR_nzcv, FPSCR
 1993 0052 6ED0     		beq	.L84
 1994              	.L73:
 1995              		.loc 1 336 0 is_stmt 1
ARM GAS  /tmp/cceFIm08.s 			page 36


 1996 0054 66EEC87A 		vnmul.f32	s15, s13, s16
 1997              		.loc 1 341 0
 1998 0058 6EEEAECA 		vmul.f32	s25, s29, s29
 1999              		.loc 1 336 0
 2000 005c B1EE49FA 		vneg.f32	s30, s18
 2001 0060 EFEE077A 		vfma.f32	s15, s30, s14
 2002 0064 1C46     		mov	r4, r3
 2003              		.loc 1 337 0
 2004 0066 28EE06AA 		vmul.f32	s20, s16, s12
 2005              		.loc 1 338 0
 2006 006a 66EE49AA 		vnmul.f32	s21, s12, s18
 2007              		.loc 1 339 0
 2008 006e 29EE26BA 		vmul.f32	s22, s18, s13
 2009              		.loc 1 341 0
 2010 0072 E0EEA0CA 		vfma.f32	s25, s1, s1
 2011              		.loc 1 337 0
 2012 0076 A9EE87AA 		vfma.f32	s20, s19, s14
 2013              		.loc 1 338 0
 2014 007a E9EEA6AA 		vfma.f32	s21, s19, s13
 2015              		.loc 1 339 0
 2016 007e A9EE86BA 		vfma.f32	s22, s19, s12
 2017              		.loc 1 336 0
 2018 0082 F1EE685A 		vneg.f32	s11, s17
 2019              		.loc 1 341 0
 2020 0086 EDEEADCA 		vfma.f32	s25, s27, s27
 2021              		.loc 1 336 0
 2022 008a E5EE867A 		vfma.f32	s15, s11, s12
 2023              		.loc 1 338 0
 2024 008e E8EE87AA 		vfma.f32	s21, s17, s14
 2025              		.loc 1 339 0
 2026 0092 A8EE47BA 		vfms.f32	s22, s16, s14
 2027              		.loc 1 337 0
 2028 0096 A5EEA6AA 		vfma.f32	s20, s11, s13
 2029              		.loc 1 336 0
 2030 009a B6EE007A 		vmov.f32	s14, #5.0e-1
 2031              	.LVL244:
 2032 009e 67EE877A 		vmul.f32	s15, s15, s14
 2033 00a2 F5EE40CA 		vcmp.f32	s25, #0
 2034 00a6 F1EE10FA 		vmrs	APSR_nzcv, FPSCR
 2035 00aa CDED007A 		vstr.32	s15, [sp]
 2036              	.LVL245:
 2037              		.loc 1 337 0
 2038 00ae 2AEE07AA 		vmul.f32	s20, s20, s14
 2039              	.LVL246:
 2040              		.loc 1 338 0
 2041 00b2 6AEE87AA 		vmul.f32	s21, s21, s14
 2042              	.LVL247:
 2043              		.loc 1 339 0
 2044 00b6 2BEE07BA 		vmul.f32	s22, s22, s14
 2045              	.LVL248:
 2046              		.loc 1 341 0
 2047 00ba B1EEECDA 		vsqrt.f32	s26, s25
 2048 00be 45D4     		bmi	.L85
 2049              	.LVL249:
 2050              		.loc 1 345 0
 2051 00c0 DFEDF87A 		vldr.32	s15, .L90
 2052              	.LVL250:
ARM GAS  /tmp/cceFIm08.s 			page 37


 2053 00c4 B4EEE7DA 		vcmpe.f32	s26, s15
 2054 00c8 F1EE10FA 		vmrs	APSR_nzcv, FPSCR
 2055 00cc 55DC     		bgt	.L81
 2056              	.LVL251:
 2057              	.L76:
 2058              		.loc 1 416 0
 2059 00ce AAEE2B9A 		vfma.f32	s18, s20, s23
 2060              	.LVL252:
 2061              		.loc 1 415 0
 2062 00d2 DDED007A 		vldr.32	s15, [sp]
 2063 00d6 E7EEAB9A 		vfma.f32	s19, s15, s23
 2064              	.LVL253:
 2065              		.loc 1 421 0
 2066 00da 29EE090A 		vmul.f32	s0, s18, s18
 2067              		.loc 1 417 0
 2068 00de AAEEAB8A 		vfma.f32	s16, s21, s23
 2069              	.LVL254:
 2070              		.loc 1 421 0
 2071 00e2 A9EEA90A 		vfma.f32	s0, s19, s19
 2072              		.loc 1 418 0
 2073 00e6 EBEE2B8A 		vfma.f32	s17, s22, s23
 2074              	.LVL255:
 2075              		.loc 1 421 0
 2076 00ea A8EE080A 		vfma.f32	s0, s16, s16
 2077 00ee A8EEA80A 		vfma.f32	s0, s17, s17
 2078              	.LVL256:
 2079 00f2 B5EE400A 		vcmp.f32	s0, #0
 2080 00f6 F1EE10FA 		vmrs	APSR_nzcv, FPSCR
 2081              	.LBB72:
 2082              	.LBB73:
 2083              		.loc 1 579 0
 2084 00fa B1EEC0AA 		vsqrt.f32	s20, s0
 2085              	.LVL257:
 2086 00fe 00F1B881 		bmi	.L86
 2087              	.LVL258:
 2088              	.L80:
 2089 0102 B7EE007A 		vmov.f32	s14, #1.0e+0
 2090 0106 C7EE0A7A 		vdiv.f32	s15, s14, s20
 2091              	.LVL259:
 2092              	.LBE73:
 2093              	.LBE72:
 2094              		.loc 1 422 0
 2095 010a 69EEA79A 		vmul.f32	s19, s19, s15
 2096              	.LVL260:
 2097              		.loc 1 423 0
 2098 010e 29EE279A 		vmul.f32	s18, s18, s15
 2099              	.LVL261:
 2100              		.loc 1 424 0
 2101 0112 28EE278A 		vmul.f32	s16, s16, s15
 2102              	.LVL262:
 2103              		.loc 1 425 0
 2104 0116 68EEA78A 		vmul.f32	s17, s17, s15
 2105              	.LVL263:
 2106              		.loc 1 427 0
 2107 011a C4ED009A 		vstr.32	s19, [r4]
 2108              		.loc 1 428 0
 2109 011e 84ED019A 		vstr.32	s18, [r4, #4]
ARM GAS  /tmp/cceFIm08.s 			page 38


 2110              		.loc 1 429 0
 2111 0122 84ED028A 		vstr.32	s16, [r4, #8]
 2112              		.loc 1 430 0
 2113 0126 C4ED038A 		vstr.32	s17, [r4, #12]
 2114              		.loc 1 431 0
 2115 012a 12B0     		add	sp, sp, #72
 2116              		.cfi_remember_state
 2117              		.cfi_def_cfa_offset 72
 2118              	.LVL264:
 2119              		@ sp needed
 2120 012c BDEC108B 		vldm	sp!, {d8-d15}
 2121              		.cfi_restore 94
 2122              		.cfi_restore 95
 2123              		.cfi_restore 92
 2124              		.cfi_restore 93
 2125              		.cfi_restore 90
 2126              		.cfi_restore 91
 2127              		.cfi_restore 88
 2128              		.cfi_restore 89
 2129              		.cfi_restore 86
 2130              		.cfi_restore 87
 2131              		.cfi_restore 84
 2132              		.cfi_restore 85
 2133              		.cfi_restore 82
 2134              		.cfi_restore 83
 2135              		.cfi_restore 80
 2136              		.cfi_restore 81
 2137              		.cfi_def_cfa_offset 8
 2138              	.LVL265:
 2139 0130 10BD     		pop	{r4, pc}
 2140              	.LVL266:
 2141              	.L84:
 2142              		.cfi_restore_state
 2143              		.loc 1 330 0 discriminator 2
 2144 0132 F5EE40FA 		vcmp.f32	s31, #0
 2145 0136 F1EE10FA 		vmrs	APSR_nzcv, FPSCR
 2146 013a 8BD1     		bne	.L73
 2147              		.loc 1 331 0
 2148 013c 1A46     		mov	r2, r3
 2149              	.LVL267:
 2150              		.loc 1 431 0
 2151 013e 12B0     		add	sp, sp, #72
 2152              		.cfi_remember_state
 2153              		.cfi_def_cfa_offset 72
 2154              		@ sp needed
 2155 0140 BDEC108B 		vldm	sp!, {d8-d15}
 2156              		.cfi_restore 94
 2157              		.cfi_restore 95
 2158              		.cfi_restore 92
 2159              		.cfi_restore 93
 2160              		.cfi_restore 90
 2161              		.cfi_restore 91
 2162              		.cfi_restore 88
 2163              		.cfi_restore 89
 2164              		.cfi_restore 86
 2165              		.cfi_restore 87
 2166              		.cfi_restore 84
ARM GAS  /tmp/cceFIm08.s 			page 39


 2167              		.cfi_restore 85
 2168              		.cfi_restore 82
 2169              		.cfi_restore 83
 2170              		.cfi_restore 80
 2171              		.cfi_restore 81
 2172              		.cfi_def_cfa_offset 8
 2173              	.LVL268:
 2174 0144 BDE81040 		pop	{r4, lr}
 2175              		.cfi_restore 14
 2176              		.cfi_restore 4
 2177              		.cfi_def_cfa_offset 0
 2178              		.loc 1 331 0
 2179 0148 FFF7FEBF 		b	ahrs_update_madgwick_imu
 2180              	.LVL269:
 2181              	.L85:
 2182              		.cfi_restore_state
 2183              		.loc 1 341 0
 2184 014c B0EE6C0A 		vmov.f32	s0, s25
 2185              	.LVL270:
 2186 0150 CDED010A 		vstr.32	s1, [sp, #4]	@ int
 2187 0154 FFF7FEFF 		bl	sqrtf
 2188              	.LVL271:
 2189              		.loc 1 345 0
 2190 0158 DFEDD27A 		vldr.32	s15, .L90
 2191 015c DDED010A 		vldr.32	s1, [sp, #4]	@ int
 2192 0160 B4EEE7DA 		vcmpe.f32	s26, s15
 2193 0164 F1EE10FA 		vmrs	APSR_nzcv, FPSCR
 2194 0168 B1DD     		ble	.L76
 2195              	.LBB75:
 2196              	.LBB76:
 2197              	.LBB77:
 2198              		.loc 1 579 0
 2199 016a B0EE6C0A 		vmov.f32	s0, s25
 2200 016e CDED010A 		vstr.32	s1, [sp, #4]	@ int
 2201              	.LVL272:
 2202 0172 FFF7FEFF 		bl	sqrtf
 2203              	.LVL273:
 2204 0176 DDED010A 		vldr.32	s1, [sp, #4]	@ int
 2205              	.LVL274:
 2206              	.L81:
 2207 017a F7EE007A 		vmov.f32	s15, #1.0e+0
 2208 017e 87EE8D3A 		vdiv.f32	s6, s15, s26
 2209              	.LBE77:
 2210              	.LBE76:
 2211              		.loc 1 360 0
 2212 0182 2CEE0C0A 		vmul.f32	s0, s24, s24
 2213              		.loc 1 355 0
 2214 0186 60EE837A 		vmul.f32	s15, s1, s6
 2215              		.loc 1 360 0
 2216 018a AEEE0E0A 		vfma.f32	s0, s28, s28
 2217              		.loc 1 355 0
 2218 018e CDED027A 		vstr.32	s15, [sp, #8]
 2219              	.LVL275:
 2220              		.loc 1 360 0
 2221 0192 AFEEAF0A 		vfma.f32	s0, s31, s31
 2222              		.loc 1 357 0
 2223 0196 6DEE837A 		vmul.f32	s15, s27, s6
ARM GAS  /tmp/cceFIm08.s 			page 40


 2224              	.LVL276:
 2225 019a B5EE400A 		vcmp.f32	s0, #0
 2226 019e F1EE10FA 		vmrs	APSR_nzcv, FPSCR
 2227              		.loc 1 356 0
 2228 01a2 2EEE836A 		vmul.f32	s12, s29, s6
 2229              	.LVL277:
 2230              		.loc 1 357 0
 2231 01a6 CDED037A 		vstr.32	s15, [sp, #12]
 2232              	.LVL278:
 2233              	.LBB78:
 2234              	.LBB79:
 2235              		.loc 1 579 0
 2236 01aa F1EEC0CA 		vsqrt.f32	s25, s0
 2237 01ae 00F17281 		bmi	.L87
 2238              	.LVL279:
 2239              	.L77:
 2240 01b2 F7EE007A 		vmov.f32	s15, #1.0e+0
 2241              	.LVL280:
 2242 01b6 87EEAC5A 		vdiv.f32	s10, s15, s25
 2243              	.LVL281:
 2244              	.LBE79:
 2245              	.LBE78:
 2246              		.loc 1 366 0
 2247 01ba 79EEA9EA 		vadd.f32	s29, s19, s19
 2248              	.LVL282:
 2249              		.loc 1 362 0
 2250 01be 2CEE05CA 		vmul.f32	s24, s24, s10
 2251              	.LVL283:
 2252              		.loc 1 361 0
 2253 01c2 2EEE05EA 		vmul.f32	s28, s28, s10
 2254              	.LVL284:
 2255              		.loc 1 376 0
 2256 01c6 69EEA97A 		vmul.f32	s15, s19, s19
 2257              		.loc 1 366 0
 2258 01ca 2EEE8E3A 		vmul.f32	s6, s29, s28
 2259              		.loc 1 389 0
 2260 01ce 2CEE270A 		vmul.f32	s0, s24, s15
 2261              		.loc 1 367 0
 2262 01d2 6EEE8CDA 		vmul.f32	s27, s29, s24
 2263              		.loc 1 363 0
 2264 01d6 6FEE850A 		vmul.f32	s1, s31, s10
 2265              	.LVL285:
 2266              		.loc 1 389 0
 2267 01da A8EE830A 		vfma.f32	s0, s17, s6
 2268              		.loc 1 388 0
 2269 01de 6DEEE86A 		vnmul.f32	s13, s27, s17
 2270              		.loc 1 368 0
 2271 01e2 2EEEA07A 		vmul.f32	s14, s29, s1
 2272              	.LVL286:
 2273              		.loc 1 388 0
 2274 01e6 EEEE276A 		vfma.f32	s13, s28, s15
 2275              		.loc 1 389 0
 2276 01ea AFEE070A 		vfma.f32	s0, s30, s14
 2277              		.loc 1 369 0
 2278 01ee 39EE091A 		vadd.f32	s2, s18, s18
 2279              		.loc 1 388 0
 2280 01f2 E8EE076A 		vfma.f32	s13, s16, s14
ARM GAS  /tmp/cceFIm08.s 			page 41


 2281              		.loc 1 369 0
 2282 01f6 61EE0E4A 		vmul.f32	s9, s2, s28
 2283              	.LVL287:
 2284              		.loc 1 380 0
 2285 01fa 69EE09FA 		vmul.f32	s31, s18, s18
 2286              		.loc 1 389 0
 2287 01fe A8EE240A 		vfma.f32	s0, s16, s9
 2288              		.loc 1 388 0
 2289 0202 EEEE2F6A 		vfma.f32	s13, s28, s31
 2290              		.loc 1 389 0
 2291 0206 B1EE4C7A 		vneg.f32	s14, s24
 2292              	.LVL288:
 2293              		.loc 1 388 0
 2294 020a 61EE0C5A 		vmul.f32	s11, s2, s24
 2295              		.loc 1 389 0
 2296 020e A7EE2F0A 		vfma.f32	s0, s14, s31
 2297              		.loc 1 388 0
 2298 0212 E5EE886A 		vfma.f32	s13, s11, s16
 2299              		.loc 1 383 0
 2300 0216 28EE08FA 		vmul.f32	s30, s16, s16
 2301              		.loc 1 372 0
 2302 021a 38EE084A 		vadd.f32	s8, s16, s16
 2303              		.loc 1 388 0
 2304 021e 61EE205A 		vmul.f32	s11, s2, s1
 2305              		.loc 1 389 0
 2306 0222 ACEE0F0A 		vfma.f32	s0, s24, s30
 2307              		.loc 1 388 0
 2308 0226 E5EEA86A 		vfma.f32	s13, s11, s17
 2309              		.loc 1 389 0
 2310 022a 60EE845A 		vmul.f32	s11, s1, s8
 2311              		.loc 1 388 0
 2312 022e B1EE4E5A 		vneg.f32	s10, s28
 2313              		.loc 1 389 0
 2314 0232 A5EEA80A 		vfma.f32	s0, s11, s17
 2315              		.loc 1 388 0
 2316 0236 E5EE0F6A 		vfma.f32	s13, s10, s30
 2317              		.loc 1 385 0
 2318 023a 68EEA85A 		vmul.f32	s11, s17, s17
 2319              		.loc 1 372 0
 2320 023e 8DED014A 		vstr.32	s8, [sp, #4]
 2321              	.LVL289:
 2322              		.loc 1 389 0
 2323 0242 A7EE250A 		vfma.f32	s0, s14, s11
 2324              		.loc 1 388 0
 2325 0246 E5EE256A 		vfma.f32	s13, s10, s11
 2326              		.loc 1 390 0
 2327 024a 20EE000A 		vmul.f32	s0, s0, s0
 2328              		.loc 1 375 0
 2329 024e 28EE847A 		vmul.f32	s14, s17, s8
 2330              		.loc 1 390 0
 2331 0252 A6EEA60A 		vfma.f32	s0, s13, s13
 2332              		.loc 1 381 0
 2333 0256 29EE084A 		vmul.f32	s8, s18, s16
 2334              	.LVL290:
 2335 025a B5EE400A 		vcmp.f32	s0, #0
 2336 025e F1EE10FA 		vmrs	APSR_nzcv, FPSCR
 2337 0262 8DED044A 		vstr.32	s8, [sp, #16]
ARM GAS  /tmp/cceFIm08.s 			page 42


 2338              		.loc 1 374 0
 2339 0266 6EEE883A 		vmul.f32	s7, s29, s16
 2340              		.loc 1 373 0
 2341 026a 78EEA86A 		vadd.f32	s13, s17, s17
 2342              	.LVL291:
 2343              		.loc 1 390 0
 2344 026e F1EEC0CA 		vsqrt.f32	s25, s0
 2345              		.loc 1 377 0
 2346 0272 29EE895A 		vmul.f32	s10, s19, s18
 2347              	.LVL292:
 2348              		.loc 1 378 0
 2349 0276 69EE881A 		vmul.f32	s3, s19, s16
 2350              	.LVL293:
 2351              		.loc 1 382 0
 2352 027a 29EE282A 		vmul.f32	s4, s18, s17
 2353              	.LVL294:
 2354              		.loc 1 384 0
 2355 027e 28EE284A 		vmul.f32	s8, s16, s17
 2356              	.LVL295:
 2357 0282 00F11381 		bmi	.L88
 2358              	.LVL296:
 2359              	.L78:
 2360              		.loc 1 391 0
 2361 0286 69EE2DDA 		vmul.f32	s27, s18, s27
 2362              	.LVL297:
 2363 028a F1EE602A 		vneg.f32	s5, s1
 2364 028e E3EE48DA 		vfms.f32	s27, s6, s16
 2365              		.loc 1 396 0
 2366 0292 35EE040A 		vadd.f32	s0, s10, s8
 2367              		.loc 1 391 0
 2368 0296 E0EEA7DA 		vfma.f32	s27, s1, s15
 2369 029a 9DED014A 		vldr.32	s8, [sp, #4]
 2370 029e F0EE6D7A 		vmov.f32	s15, s27
 2371 02a2 E8EEA47A 		vfma.f32	s15, s17, s9
 2372 02a6 2CEE043A 		vmul.f32	s6, s24, s8
 2373 02aa E2EEAF7A 		vfma.f32	s15, s5, s31
 2374              		.loc 1 396 0
 2375 02ae B0EE004A 		vmov.f32	s8, #2.0e+0
 2376              		.loc 1 391 0
 2377 02b2 E3EE287A 		vfma.f32	s15, s6, s17
 2378              		.loc 1 396 0
 2379 02b6 A5EE047A 		vfma.f32	s14, s10, s8
 2380              		.loc 1 391 0
 2381 02ba E2EE8F7A 		vfma.f32	s15, s5, s30
 2382              		.loc 1 397 0
 2383 02be B7EE003A 		vmov.f32	s6, #1.0e+0
 2384              		.loc 1 391 0
 2385 02c2 E0EEA57A 		vfma.f32	s15, s1, s11
 2386              	.LVL298:
 2387              		.loc 1 396 0
 2388 02c6 D2EE043A 		vfnms.f32	s7, s4, s8
 2389              		.loc 1 397 0
 2390 02ca AFEEC43A 		vfms.f32	s6, s31, s8
 2391              		.loc 1 396 0
 2392 02ce B6EE005A 		vmov.f32	s10, #5.0e-1
 2393 02d2 37EE467A 		vsub.f32	s14, s14, s12
 2394 02d6 75EE4F2A 		vsub.f32	s5, s10, s30
ARM GAS  /tmp/cceFIm08.s 			page 43


 2395 02da 72EE614A 		vsub.f32	s9, s4, s3
 2396 02de 9DED026A 		vldr.32	s12, [sp, #8]
 2397              		.loc 1 397 0
 2398 02e2 AFEE443A 		vfms.f32	s6, s30, s8
 2399              		.loc 1 396 0
 2400 02e6 73EEC63A 		vsub.f32	s7, s7, s12
 2401 02ea 72EEE55A 		vsub.f32	s11, s5, s11
 2402              		.loc 1 397 0
 2403 02ee 2EEE876A 		vmul.f32	s12, s29, s14
 2404              		.loc 1 396 0
 2405 02f2 64EEA74A 		vmul.f32	s9, s9, s15
 2406              		.loc 1 397 0
 2407 02f6 A3EEA66A 		vfma.f32	s12, s7, s13
 2408              		.loc 1 396 0
 2409 02fa E5EEAC4A 		vfma.f32	s9, s11, s25
 2410              		.loc 1 397 0
 2411 02fe DDED035A 		vldr.32	s11, [sp, #12]
 2412 0302 F1EE00DA 		vmov.f32	s27, #4.0e+0
 2413              		.loc 1 396 0
 2414 0306 29EEA84A 		vmul.f32	s8, s19, s17
 2415 030a 69EE082A 		vmul.f32	s5, s18, s16
 2416              		.loc 1 397 0
 2417 030e 33EE653A 		vsub.f32	s6, s6, s11
 2418              		.loc 1 396 0
 2419 0312 35EE6F5A 		vsub.f32	s10, s10, s31
 2420              		.loc 1 397 0
 2421 0316 6DEEC95A 		vnmul.f32	s11, s27, s18
 2422              		.loc 1 396 0
 2423 031a 72EEC42A 		vsub.f32	s5, s5, s8
 2424 031e 20EE274A 		vmul.f32	s8, s0, s15
 2425              		.loc 1 397 0
 2426 0322 A5EE836A 		vfma.f32	s12, s11, s6
 2427              		.loc 1 398 0
 2428 0326 67EE266A 		vmul.f32	s13, s14, s13
 2429              		.loc 1 396 0
 2430 032a 35EE4F5A 		vsub.f32	s10, s10, s30
 2431 032e A2EEAC4A 		vfma.f32	s8, s5, s25
 2432 0332 61EE075A 		vmul.f32	s11, s2, s14
 2433              		.loc 1 392 0
 2434 0336 3CEEAC0A 		vadd.f32	s0, s25, s25
 2435              	.LVL299:
 2436              		.loc 1 396 0
 2437 033a DDED012A 		vldr.32	s5, [sp, #4]
 2438 033e 74EECE4A 		vsub.f32	s9, s9, s28
 2439 0342 31EE822A 		vadd.f32	s4, s3, s4
 2440              		.loc 1 397 0
 2441 0346 28EEA7EA 		vmul.f32	s28, s17, s15
 2442              	.LVL300:
 2443              		.loc 1 398 0
 2444 034a EEEEE36A 		vfms.f32	s13, s29, s7
 2445              		.loc 1 396 0
 2446 034e 25EE275A 		vmul.f32	s10, s10, s15
 2447 0352 68EE2CEA 		vmul.f32	s29, s16, s25
 2448              	.LVL301:
 2449              		.loc 1 398 0
 2450 0356 B1EE400A 		vneg.f32	s0, s0
 2451              	.LVL302:
ARM GAS  /tmp/cceFIm08.s 			page 44


 2452              		.loc 1 396 0
 2453 035a E2EEE35A 		vfms.f32	s11, s5, s7
 2454 035e A2EE2C5A 		vfma.f32	s10, s4, s25
 2455              		.loc 1 397 0
 2456 0362 8DED02EA 		vstr.32	s28, [sp, #8]
 2457              	.LVL303:
 2458              		.loc 1 396 0
 2459 0366 29EE272A 		vmul.f32	s4, s18, s15
 2460              		.loc 1 397 0
 2461 036a A4EE8E6A 		vfma.f32	s12, s9, s28
 2462              		.loc 1 398 0
 2463 036e 68EE2DDA 		vmul.f32	s27, s16, s27
 2464 0372 20EE08EA 		vmul.f32	s28, s0, s16
 2465              		.loc 1 397 0
 2466 0376 F0EE6EFA 		vmov.f32	s31, s29
 2467              	.LVL304:
 2468              		.loc 1 393 0
 2469 037a 77EEA72A 		vadd.f32	s5, s15, s15
 2470              	.LVL305:
 2471              		.loc 1 396 0
 2472 037e 68EE271A 		vmul.f32	s3, s16, s15
 2473              		.loc 1 397 0
 2474 0382 E9EEA7FA 		vfma.f32	s31, s19, s15
 2475              		.loc 1 396 0
 2476 0386 B1EE6CFA 		vneg.f32	s30, s25
 2477              	.LVL306:
 2478              		.loc 1 398 0
 2479 038a A9EEE7EA 		vfms.f32	s28, s19, s15
 2480 038e E3EE6D6A 		vfms.f32	s13, s6, s27
 2481              		.loc 1 399 0
 2482 0392 DDED017A 		vldr.32	s15, [sp, #4]
 2483              	.LVL307:
 2484              		.loc 1 396 0
 2485 0396 B0EE423A 		vmov.f32	s6, s4
 2486 039a 34EE4CCA 		vsub.f32	s24, s8, s24
 2487              	.LVL308:
 2488 039e E1EEE45A 		vfms.f32	s11, s3, s9
 2489              		.loc 1 397 0
 2490 03a2 22EEC94A 		vnmul.f32	s8, s5, s18
 2491              		.loc 1 396 0
 2492 03a6 AFEE283A 		vfma.f32	s6, s30, s17
 2493              		.loc 1 399 0
 2494 03aa 27EE277A 		vmul.f32	s14, s14, s15
 2495              		.loc 1 397 0
 2496 03ae ACEE2F6A 		vfma.f32	s12, s24, s31
 2497 03b2 A8EEAC4A 		vfma.f32	s8, s17, s25
 2498              		.loc 1 399 0
 2499 03b6 A1EE237A 		vfma.f32	s14, s2, s7
 2500 03ba A0EE282A 		vfma.f32	s4, s0, s17
 2501              		.loc 1 396 0
 2502 03be 35EE605A 		vsub.f32	s10, s10, s1
 2503              		.loc 1 398 0
 2504 03c2 69EE2C7A 		vmul.f32	s15, s18, s25
 2505              		.loc 1 396 0
 2506 03c6 E3EE0C5A 		vfma.f32	s11, s6, s24
 2507              		.loc 1 398 0
 2508 03ca E4EE8E6A 		vfma.f32	s13, s9, s28
ARM GAS  /tmp/cceFIm08.s 			page 45


 2509 03ce 9DED02EA 		vldr.32	s28, [sp, #8]
 2510              		.loc 1 397 0
 2511 03d2 A5EE046A 		vfma.f32	s12, s10, s8
 2512              		.loc 1 398 0
 2513 03d6 62EEC82A 		vnmul.f32	s5, s5, s16
 2514              	.LVL309:
 2515 03da 3EEE271A 		vadd.f32	s2, s28, s15
 2516              		.loc 1 399 0
 2517 03de A4EE827A 		vfma.f32	s14, s9, s4
 2518              		.loc 1 398 0
 2519 03e2 E9EEAC2A 		vfma.f32	s5, s19, s25
 2520 03e6 ECEE016A 		vfma.f32	s13, s24, s2
 2521              		.loc 1 399 0
 2522 03ea EFEE291A 		vfma.f32	s3, s30, s19
 2523              		.loc 1 396 0
 2524 03ee EEEE855A 		vfma.f32	s11, s29, s10
 2525              	.LVL310:
 2526              		.loc 1 400 0
 2527 03f2 26EE060A 		vmul.f32	s0, s12, s12
 2528              		.loc 1 399 0
 2529 03f6 F0EE47CA 		vmov.f32	s25, s14
 2530              	.LVL311:
 2531 03fa ECEE21CA 		vfma.f32	s25, s24, s3
 2532              		.loc 1 398 0
 2533 03fe E5EE226A 		vfma.f32	s13, s10, s5
 2534              	.LVL312:
 2535              		.loc 1 400 0
 2536 0402 A5EEA50A 		vfma.f32	s0, s11, s11
 2537              		.loc 1 399 0
 2538 0406 E5EE27CA 		vfma.f32	s25, s10, s15
 2539              	.LVL313:
 2540              		.loc 1 400 0
 2541 040a A6EEA60A 		vfma.f32	s0, s13, s13
 2542 040e ACEEAC0A 		vfma.f32	s0, s25, s25
 2543              	.LVL314:
 2544 0412 B5EE400A 		vcmp.f32	s0, #0
 2545 0416 F1EE10FA 		vmrs	APSR_nzcv, FPSCR
 2546              	.LBB81:
 2547              	.LBB82:
 2548              		.loc 1 579 0
 2549 041a B1EEC0CA 		vsqrt.f32	s24, s0
 2550 041e 2BD4     		bmi	.L89
 2551              	.LVL315:
 2552              	.L79:
 2553              	.LBE82:
 2554              	.LBE81:
 2555              		.loc 1 407 0
 2556 0420 04F11C00 		add	r0, r4, #28
 2557              	.LBB85:
 2558              	.LBB83:
 2559              		.loc 1 579 0
 2560 0424 B7EE007A 		vmov.f32	s14, #1.0e+0
 2561 0428 C7EE0C7A 		vdiv.f32	s15, s14, s24
 2562              	.LBE83:
 2563              	.LBE85:
 2564              		.loc 1 407 0
 2565 042c B0EE4D0A 		vmov.f32	s0, s26
ARM GAS  /tmp/cceFIm08.s 			page 46


 2566              		.loc 1 401 0
 2567 0430 65EEA7DA 		vmul.f32	s27, s11, s15
 2568              	.LVL316:
 2569              		.loc 1 402 0
 2570 0434 26EE27DA 		vmul.f32	s26, s12, s15
 2571              	.LVL317:
 2572              		.loc 1 403 0
 2573 0438 26EEA7CA 		vmul.f32	s24, s13, s15
 2574              	.LVL318:
 2575              		.loc 1 404 0
 2576 043c 6CEEA7CA 		vmul.f32	s25, s25, s15
 2577              	.LVL319:
 2578              		.loc 1 407 0
 2579 0440 FFF7FEFF 		bl	calculateAccConfidence
 2580              	.LVL320:
 2581              		.loc 1 408 0
 2582 0444 DFED187A 		vldr.32	s15, .L90+4
 2583 0448 67EEED5A 		vnmul.f32	s11, s15, s27
 2584              		.loc 1 409 0
 2585 044c 27EECD6A 		vnmul.f32	s12, s15, s26
 2586              		.loc 1 410 0
 2587 0450 67EECC6A 		vnmul.f32	s13, s15, s24
 2588              		.loc 1 411 0
 2589 0454 67EEECCA 		vnmul.f32	s25, s15, s25
 2590              	.LVL321:
 2591              		.loc 1 408 0
 2592 0458 DDED007A 		vldr.32	s15, [sp]
 2593 045c E5EE807A 		vfma.f32	s15, s11, s0
 2594              		.loc 1 409 0
 2595 0460 A6EE00AA 		vfma.f32	s20, s12, s0
 2596              	.LVL322:
 2597              		.loc 1 408 0
 2598 0464 CDED007A 		vstr.32	s15, [sp]
 2599              	.LVL323:
 2600              		.loc 1 410 0
 2601 0468 E6EE80AA 		vfma.f32	s21, s13, s0
 2602              	.LVL324:
 2603              		.loc 1 411 0
 2604 046c ACEE80BA 		vfma.f32	s22, s25, s0
 2605              	.LVL325:
 2606 0470 2DE6     		b	.L76
 2607              	.LVL326:
 2608              	.L86:
 2609              	.LBE75:
 2610              	.LBB88:
 2611              	.LBB74:
 2612              		.loc 1 579 0
 2613 0472 FFF7FEFF 		bl	sqrtf
 2614              	.LVL327:
 2615 0476 44E6     		b	.L80
 2616              	.LVL328:
 2617              	.L89:
 2618 0478 CDED036A 		vstr.32	s13, [sp, #12]	@ int
 2619              	.LVL329:
 2620 047c 8DED026A 		vstr.32	s12, [sp, #8]	@ int
 2621 0480 CDED015A 		vstr.32	s11, [sp, #4]	@ int
 2622              	.LVL330:
ARM GAS  /tmp/cceFIm08.s 			page 47


 2623              	.LBE74:
 2624              	.LBE88:
 2625              	.LBB89:
 2626              	.LBB86:
 2627              	.LBB84:
 2628 0484 FFF7FEFF 		bl	sqrtf
 2629              	.LVL331:
 2630 0488 DDED036A 		vldr.32	s13, [sp, #12]	@ int
 2631 048c 9DED026A 		vldr.32	s12, [sp, #8]	@ int
 2632 0490 DDED015A 		vldr.32	s11, [sp, #4]	@ int
 2633 0494 C4E7     		b	.L79
 2634              	.LVL332:
 2635              	.L87:
 2636 0496 8DED016A 		vstr.32	s12, [sp, #4]	@ int
 2637              	.LBE84:
 2638              	.LBE86:
 2639              	.LBB87:
 2640              	.LBB80:
 2641 049a FFF7FEFF 		bl	sqrtf
 2642              	.LVL333:
 2643 049e 9DED016A 		vldr.32	s12, [sp, #4]	@ int
 2644 04a2 86E6     		b	.L77
 2645              	.L91:
 2646              		.align	2
 2647              	.L90:
 2648 04a4 0AD7233C 		.word	1008981770
 2649 04a8 CDCCCC3D 		.word	1036831949
 2650              	.LVL334:
 2651              	.L88:
 2652 04ac CDED115A 		vstr.32	s11, [sp, #68]	@ int
 2653 04b0 8DED104A 		vstr.32	s8, [sp, #64]	@ int
 2654 04b4 8DED0F2A 		vstr.32	s4, [sp, #60]	@ int
 2655 04b8 CDED0E1A 		vstr.32	s3, [sp, #56]	@ int
 2656 04bc 8DED0D5A 		vstr.32	s10, [sp, #52]	@ int
 2657 04c0 CDED0C7A 		vstr.32	s15, [sp, #48]	@ int
 2658 04c4 8DED0B7A 		vstr.32	s14, [sp, #44]	@ int
 2659 04c8 CDED0A3A 		vstr.32	s7, [sp, #40]	@ int
 2660 04cc CDED096A 		vstr.32	s13, [sp, #36]	@ int
 2661 04d0 CDED084A 		vstr.32	s9, [sp, #32]	@ int
 2662 04d4 8DED073A 		vstr.32	s6, [sp, #28]	@ int
 2663 04d8 CDED060A 		vstr.32	s1, [sp, #24]	@ int
 2664 04dc 8DED056A 		vstr.32	s12, [sp, #20]	@ int
 2665 04e0 8DED041A 		vstr.32	s2, [sp, #16]	@ int
 2666              	.LVL335:
 2667              	.LBE80:
 2668              	.LBE87:
 2669              		.loc 1 390 0
 2670 04e4 FFF7FEFF 		bl	sqrtf
 2671              	.LVL336:
 2672 04e8 DDED115A 		vldr.32	s11, [sp, #68]	@ int
 2673 04ec 9DED104A 		vldr.32	s8, [sp, #64]	@ int
 2674 04f0 9DED0F2A 		vldr.32	s4, [sp, #60]	@ int
 2675 04f4 DDED0E1A 		vldr.32	s3, [sp, #56]	@ int
 2676 04f8 9DED0D5A 		vldr.32	s10, [sp, #52]	@ int
 2677 04fc DDED0C7A 		vldr.32	s15, [sp, #48]	@ int
 2678 0500 9DED0B7A 		vldr.32	s14, [sp, #44]	@ int
 2679 0504 DDED0A3A 		vldr.32	s7, [sp, #40]	@ int
ARM GAS  /tmp/cceFIm08.s 			page 48


 2680 0508 DDED096A 		vldr.32	s13, [sp, #36]	@ int
 2681 050c DDED084A 		vldr.32	s9, [sp, #32]	@ int
 2682 0510 9DED073A 		vldr.32	s6, [sp, #28]	@ int
 2683 0514 DDED060A 		vldr.32	s1, [sp, #24]	@ int
 2684 0518 9DED056A 		vldr.32	s12, [sp, #20]	@ int
 2685 051c 9DED041A 		vldr.32	s2, [sp, #16]	@ int
 2686 0520 B1E6     		b	.L78
 2687              	.LBE89:
 2688              		.cfi_endproc
 2689              	.LFE224:
 2690              		.size	ahrs_update_madgwick, .-ahrs_update_madgwick
 2691 0522 00BF     		.section	.text.ahrs_get_roll,"ax",%progbits
 2692              		.align	1
 2693              		.p2align 4,,15
 2694              		.global	ahrs_get_roll
 2695              		.syntax unified
 2696              		.thumb
 2697              		.thumb_func
 2698              		.fpu fpv4-sp-d16
 2699              		.type	ahrs_get_roll, %function
 2700              	ahrs_get_roll:
 2701              	.LFB226:
 2702              		.loc 1 524 0
 2703              		.cfi_startproc
 2704              		@ args = 0, pretend = 0, frame = 0
 2705              		@ frame_needed = 0, uses_anonymous_args = 0
 2706              	.LVL337:
 2707              		.loc 1 527 0
 2708 0000 90ED020A 		vldr.32	s0, [r0, #8]
 2709              		.loc 1 526 0
 2710 0004 D0ED017A 		vldr.32	s15, [r0, #4]
 2711              	.LVL338:
 2712              		.loc 1 530 0
 2713 0008 90ED037A 		vldr.32	s14, [r0, #12]
 2714 000c D0ED006A 		vldr.32	s13, [r0]
 2715 0010 60EE000A 		vmul.f32	s1, s0, s0
 2716 0014 20EE070A 		vmul.f32	s0, s0, s14
 2717              	.LVL339:
 2718 0018 E7EEA70A 		vfma.f32	s1, s15, s15
 2719              		.loc 1 524 0
 2720 001c 08B5     		push	{r3, lr}
 2721              		.cfi_def_cfa_offset 8
 2722              		.cfi_offset 3, -8
 2723              		.cfi_offset 14, -4
 2724              		.loc 1 530 0
 2725 001e B6EE007A 		vmov.f32	s14, #5.0e-1
 2726 0022 A6EEA70A 		vfma.f32	s0, s13, s15
 2727 0026 77EE600A 		vsub.f32	s1, s14, s1
 2728 002a FFF7FEFF 		bl	atan2f
 2729              	.LVL340:
 2730              		.loc 1 531 0
 2731 002e B1EE400A 		vneg.f32	s0, s0
 2732 0032 08BD     		pop	{r3, pc}
 2733              		.cfi_endproc
 2734              	.LFE226:
 2735              		.size	ahrs_get_roll, .-ahrs_get_roll
 2736              		.section	.text.ahrs_get_pitch,"ax",%progbits
ARM GAS  /tmp/cceFIm08.s 			page 49


 2737              		.align	1
 2738              		.p2align 4,,15
 2739              		.global	ahrs_get_pitch
 2740              		.syntax unified
 2741              		.thumb
 2742              		.thumb_func
 2743              		.fpu fpv4-sp-d16
 2744              		.type	ahrs_get_pitch, %function
 2745              	ahrs_get_pitch:
 2746              	.LFB227:
 2747              		.loc 1 533 0
 2748              		.cfi_startproc
 2749              		@ args = 0, pretend = 0, frame = 0
 2750              		@ frame_needed = 0, uses_anonymous_args = 0
 2751              		@ link register save eliminated.
 2752              	.LVL341:
 2753              		.loc 1 539 0
 2754 0000 D0ED007A 		vldr.32	s15, [r0]
 2755 0004 90ED020A 		vldr.32	s0, [r0, #8]
 2756 0008 D0ED016A 		vldr.32	s13, [r0, #4]
 2757 000c 90ED037A 		vldr.32	s14, [r0, #12]
 2758 0010 20EE670A 		vnmul.f32	s0, s0, s15
 2759 0014 F8EE007A 		vmov.f32	s15, #-2.0e+0
 2760 0018 A6EE870A 		vfma.f32	s0, s13, s14
 2761 001c 20EE270A 		vmul.f32	s0, s0, s15
 2762 0020 FFF7FEBF 		b	asinf
 2763              	.LVL342:
 2764              		.cfi_endproc
 2765              	.LFE227:
 2766              		.size	ahrs_get_pitch, .-ahrs_get_pitch
 2767              		.section	.text.ahrs_get_yaw,"ax",%progbits
 2768              		.align	1
 2769              		.p2align 4,,15
 2770              		.global	ahrs_get_yaw
 2771              		.syntax unified
 2772              		.thumb
 2773              		.thumb_func
 2774              		.fpu fpv4-sp-d16
 2775              		.type	ahrs_get_yaw, %function
 2776              	ahrs_get_yaw:
 2777              	.LFB228:
 2778              		.loc 1 542 0
 2779              		.cfi_startproc
 2780              		@ args = 0, pretend = 0, frame = 0
 2781              		@ frame_needed = 0, uses_anonymous_args = 0
 2782              	.LVL343:
 2783              		.loc 1 546 0
 2784 0000 D0ED037A 		vldr.32	s15, [r0, #12]
 2785              		.loc 1 545 0
 2786 0004 90ED027A 		vldr.32	s14, [r0, #8]
 2787              	.LVL344:
 2788              		.loc 1 548 0
 2789 0008 90ED010A 		vldr.32	s0, [r0, #4]
 2790 000c D0ED006A 		vldr.32	s13, [r0]
 2791 0010 67EEA70A 		vmul.f32	s1, s15, s15
 2792 0014 27EE000A 		vmul.f32	s0, s14, s0
 2793 0018 E7EE070A 		vfma.f32	s1, s14, s14
ARM GAS  /tmp/cceFIm08.s 			page 50


 2794              		.loc 1 542 0
 2795 001c 08B5     		push	{r3, lr}
 2796              		.cfi_def_cfa_offset 8
 2797              		.cfi_offset 3, -8
 2798              		.cfi_offset 14, -4
 2799              		.loc 1 548 0
 2800 001e B6EE007A 		vmov.f32	s14, #5.0e-1
 2801              	.LVL345:
 2802 0022 A6EEA70A 		vfma.f32	s0, s13, s15
 2803 0026 77EE600A 		vsub.f32	s1, s14, s1
 2804 002a FFF7FEFF 		bl	atan2f
 2805              	.LVL346:
 2806              		.loc 1 549 0
 2807 002e B1EE400A 		vneg.f32	s0, s0
 2808 0032 08BD     		pop	{r3, pc}
 2809              		.cfi_endproc
 2810              	.LFE228:
 2811              		.size	ahrs_get_yaw, .-ahrs_get_yaw
 2812              		.section	.text.ahrs_get_roll_pitch_yaw,"ax",%progbits
 2813              		.align	1
 2814              		.p2align 4,,15
 2815              		.global	ahrs_get_roll_pitch_yaw
 2816              		.syntax unified
 2817              		.thumb
 2818              		.thumb_func
 2819              		.fpu fpv4-sp-d16
 2820              		.type	ahrs_get_roll_pitch_yaw, %function
 2821              	ahrs_get_roll_pitch_yaw:
 2822              	.LFB229:
 2823              		.loc 1 551 0
 2824              		.cfi_startproc
 2825              		@ args = 0, pretend = 0, frame = 0
 2826              		@ frame_needed = 0, uses_anonymous_args = 0
 2827              	.LVL347:
 2828 0000 10B5     		push	{r4, lr}
 2829              		.cfi_def_cfa_offset 8
 2830              		.cfi_offset 4, -8
 2831              		.cfi_offset 14, -4
 2832 0002 2DED068B 		vpush.64	{d8, d9, d10}
 2833              		.cfi_def_cfa_offset 32
 2834              		.cfi_offset 80, -32
 2835              		.cfi_offset 81, -28
 2836              		.cfi_offset 82, -24
 2837              		.cfi_offset 83, -20
 2838              		.cfi_offset 84, -16
 2839              		.cfi_offset 85, -12
 2840              		.loc 1 555 0
 2841 0006 91ED029A 		vldr.32	s18, [r1, #8]
 2842              		.loc 1 554 0
 2843 000a 91ED018A 		vldr.32	s16, [r1, #4]
 2844              		.loc 1 556 0
 2845 000e D1ED038A 		vldr.32	s17, [r1, #12]
 2846              		.loc 1 553 0
 2847 0012 91ED00AA 		vldr.32	s20, [r1]
 2848              	.LVL348:
 2849              		.loc 1 558 0
 2850 0016 69EE099A 		vmul.f32	s19, s18, s18
ARM GAS  /tmp/cceFIm08.s 			page 51


 2851 001a 29EE280A 		vmul.f32	s0, s18, s17
 2852 001e F0EE690A 		vmov.f32	s1, s19
 2853 0022 E8EE080A 		vfma.f32	s1, s16, s16
 2854              		.loc 1 551 0
 2855 0026 0446     		mov	r4, r0
 2856              		.loc 1 558 0
 2857 0028 F6EE00AA 		vmov.f32	s21, #5.0e-1
 2858 002c 7AEEE00A 		vsub.f32	s1, s21, s1
 2859 0030 AAEE080A 		vfma.f32	s0, s20, s16
 2860 0034 FFF7FEFF 		bl	atan2f
 2861              	.LVL349:
 2862              		.loc 1 559 0
 2863 0038 69EE4A7A 		vnmul.f32	s15, s18, s20
 2864 003c B8EE007A 		vmov.f32	s14, #-2.0e+0
 2865 0040 E8EE287A 		vfma.f32	s15, s16, s17
 2866              		.loc 1 558 0
 2867 0044 B1EE400A 		vneg.f32	s0, s0
 2868 0048 84ED000A 		vstr.32	s0, [r4]
 2869              		.loc 1 559 0
 2870 004c 27EE870A 		vmul.f32	s0, s15, s14
 2871 0050 FFF7FEFF 		bl	asinf
 2872              	.LVL350:
 2873              		.loc 1 560 0
 2874 0054 E8EEA89A 		vfma.f32	s19, s17, s17
 2875 0058 28EE098A 		vmul.f32	s16, s16, s18
 2876              	.LVL351:
 2877              		.loc 1 559 0
 2878 005c 84ED010A 		vstr.32	s0, [r4, #4]
 2879              		.loc 1 560 0
 2880 0060 B0EE480A 		vmov.f32	s0, s16
 2881 0064 7AEEE90A 		vsub.f32	s1, s21, s19
 2882 0068 AAEE280A 		vfma.f32	s0, s20, s17
 2883 006c FFF7FEFF 		bl	atan2f
 2884              	.LVL352:
 2885              		.loc 1 561 0
 2886 0070 BDEC068B 		vldm	sp!, {d8-d10}
 2887              		.cfi_restore 84
 2888              		.cfi_restore 85
 2889              		.cfi_restore 82
 2890              		.cfi_restore 83
 2891              		.cfi_restore 80
 2892              		.cfi_restore 81
 2893              		.cfi_def_cfa_offset 8
 2894              	.LVL353:
 2895              		.loc 1 560 0
 2896 0074 B1EE400A 		vneg.f32	s0, s0
 2897 0078 84ED020A 		vstr.32	s0, [r4, #8]
 2898              		.loc 1 561 0
 2899 007c 10BD     		pop	{r4, pc}
 2900              		.cfi_endproc
 2901              	.LFE229:
 2902              		.size	ahrs_get_roll_pitch_yaw, .-ahrs_get_roll_pitch_yaw
 2903 007e 00BF     		.text
 2904              	.Letext0:
 2905              		.file 2 "/usr/arm-none-eabi/include/machine/_default_types.h"
 2906              		.file 3 "/usr/arm-none-eabi/include/sys/_stdint.h"
 2907              		.file 4 "ChibiOS_3.0.2/os/rt/ports/ARMCMx/compilers/GCC/chtypes.h"
ARM GAS  /tmp/cceFIm08.s 			page 52


 2908              		.file 5 "ChibiOS_3.0.2/os/rt/include/chsystypes.h"
 2909              		.file 6 "ChibiOS_3.0.2/os/rt/include/chschd.h"
 2910              		.file 7 "ChibiOS_3.0.2/os/ext/CMSIS/include/core_cm4.h"
 2911              		.file 8 "ChibiOS_3.0.2/os/ext/CMSIS/ST/system_stm32f4xx.h"
 2912              		.file 9 "ChibiOS_3.0.2/os/rt/ports/ARMCMx/chcore.h"
 2913              		.file 10 "ChibiOS_3.0.2/os/rt/ports/ARMCMx/chcore_v7m.h"
 2914              		.file 11 "ChibiOS_3.0.2/os/rt/include/chtm.h"
 2915              		.file 12 "ChibiOS_3.0.2/os/rt/include/chsem.h"
 2916              		.file 13 "ChibiOS_3.0.2/os/rt/include/chmtx.h"
 2917              		.file 14 "ChibiOS_3.0.2/os/rt/include/chregistry.h"
 2918              		.file 15 "./datatypes.h"
 2919              		.file 16 "./conf_general.h"
 2920              		.file 17 "/usr/arm-none-eabi/include/sys/lock.h"
 2921              		.file 18 "/usr/arm-none-eabi/include/sys/_types.h"
 2922              		.file 19 "/usr/lib/gcc/arm-none-eabi/7.3.1/include/stddef.h"
 2923              		.file 20 "/usr/arm-none-eabi/include/sys/reent.h"
 2924              		.file 21 "/usr/arm-none-eabi/include/math.h"
 2925              		.file 22 "./utils.h"