ARM GAS  /tmp/ccAPA4Us.s 			page 1


   1              		.cpu cortex-m4
   2              		.eabi_attribute 27, 1
   3              		.eabi_attribute 28, 1
   4              		.eabi_attribute 20, 1
   5              		.eabi_attribute 21, 1
   6              		.eabi_attribute 23, 3
   7              		.eabi_attribute 24, 1
   8              		.eabi_attribute 25, 1
   9              		.eabi_attribute 26, 1
  10              		.eabi_attribute 30, 2
  11              		.eabi_attribute 34, 1
  12              		.eabi_attribute 18, 4
  13              		.file	"app.c"
  14              		.text
  15              	.Ltext0:
  16              		.cfi_sections	.debug_frame
  17              		.section	.text.output_vt_cb,"ax",%progbits
  18              		.align	1
  19              		.p2align 4,,15
  20              		.syntax unified
  21              		.thumb
  22              		.thumb_func
  23              		.fpu fpv4-sp-d16
  24              		.type	output_vt_cb, %function
  25              	output_vt_cb:
  26              	.LFB260:
  27              		.file 1 "applications/app.c"
  28              		.loc 1 157 0
  29              		.cfi_startproc
  30              		@ args = 0, pretend = 0, frame = 0
  31              		@ frame_needed = 0, uses_anonymous_args = 0
  32              		@ link register save eliminated.
  33              	.LVL0:
  34              		.loc 1 159 0
  35 0000 014B     		ldr	r3, .L3
  36 0002 0022     		movs	r2, #0
  37 0004 1A70     		strb	r2, [r3]
  38              		.loc 1 160 0
  39 0006 7047     		bx	lr
  40              	.L4:
  41              		.align	2
  42              	.L3:
  43 0008 00000000 		.word	.LANCHOR0
  44              		.cfi_endproc
  45              	.LFE260:
  46              		.size	output_vt_cb, .-output_vt_cb
  47              		.section	.text.app_get_configuration,"ax",%progbits
  48              		.align	1
  49              		.p2align 4,,15
  50              		.global	app_get_configuration
  51              		.syntax unified
  52              		.thumb
  53              		.thumb_func
  54              		.fpu fpv4-sp-d16
  55              		.type	app_get_configuration, %function
  56              	app_get_configuration:
  57              	.LFB256:
ARM GAS  /tmp/ccAPA4Us.s 			page 2


  58              		.loc 1 37 0
  59              		.cfi_startproc
  60              		@ args = 0, pretend = 0, frame = 0
  61              		@ frame_needed = 0, uses_anonymous_args = 0
  62              		@ link register save eliminated.
  63              		.loc 1 39 0
  64 0000 0048     		ldr	r0, .L6
  65 0002 7047     		bx	lr
  66              	.L7:
  67              		.align	2
  68              	.L6:
  69 0004 00000000 		.word	.LANCHOR1
  70              		.cfi_endproc
  71              	.LFE256:
  72              		.size	app_get_configuration, .-app_get_configuration
  73              		.section	.text.app_set_configuration,"ax",%progbits
  74              		.align	1
  75              		.p2align 4,,15
  76              		.global	app_set_configuration
  77              		.syntax unified
  78              		.thumb
  79              		.thumb_func
  80              		.fpu fpv4-sp-d16
  81              		.type	app_set_configuration, %function
  82              	app_set_configuration:
  83              	.LFB257:
  84              		.loc 1 47 0
  85              		.cfi_startproc
  86              		@ args = 0, pretend = 0, frame = 0
  87              		@ frame_needed = 0, uses_anonymous_args = 0
  88              	.LVL1:
  89 0000 70B5     		push	{r4, r5, r6, lr}
  90              		.cfi_def_cfa_offset 16
  91              		.cfi_offset 4, -16
  92              		.cfi_offset 5, -12
  93              		.cfi_offset 6, -8
  94              		.cfi_offset 14, -4
  95              		.loc 1 47 0
  96 0002 0546     		mov	r5, r0
  97              		.loc 1 55 0
  98 0004 2C4E     		ldr	r6, .L21
  99              		.loc 1 48 0
 100 0006 2D48     		ldr	r0, .L21+4
 101              	.LVL2:
 102 0008 2946     		mov	r1, r5
 103 000a CC22     		movs	r2, #204
 104 000c FFF7FEFF 		bl	memcpy
 105              	.LVL3:
 106              		.loc 1 50 0
 107 0010 FFF7FEFF 		bl	app_ppm_stop
 108              	.LVL4:
 109              		.loc 1 51 0
 110 0014 FFF7FEFF 		bl	app_adc_stop
 111              	.LVL5:
 112              		.loc 1 52 0
 113 0018 FFF7FEFF 		bl	app_uartcomm_stop
 114              	.LVL6:
ARM GAS  /tmp/ccAPA4Us.s 			page 3


 115              		.loc 1 53 0
 116 001c FFF7FEFF 		bl	app_nunchuk_stop
 117              	.LVL7:
 118              		.loc 1 55 0
 119 0020 3378     		ldrb	r3, [r6]	@ zero_extendqisi2
 120 0022 13B3     		cbz	r3, .L20
 121              	.L9:
 122              		.loc 1 67 0
 123 0024 254C     		ldr	r4, .L21+4
 124              		.loc 1 60 0
 125 0026 287D     		ldrb	r0, [r5, #20]	@ zero_extendqisi2
 126 0028 FFF7FEFF 		bl	comm_can_set_baud
 127              	.LVL8:
 128              		.loc 1 67 0
 129 002c 637E     		ldrb	r3, [r4, #25]	@ zero_extendqisi2
 130 002e 013B     		subs	r3, r3, #1
 131 0030 062B     		cmp	r3, #6
 132 0032 07D8     		bhi	.L10
 133 0034 DFE803F0 		tbb	[pc, r3]
 134              	.L12:
 135 0038 04       		.byte	(.L11-.L12)/2
 136 0039 24       		.byte	(.L13-.L12)/2
 137 003a 28       		.byte	(.L14-.L12)/2
 138 003b 2D       		.byte	(.L15-.L12)/2
 139 003c 34       		.byte	(.L16-.L12)/2
 140 003d 3C       		.byte	(.L17-.L12)/2
 141 003e 1C       		.byte	(.L18-.L12)/2
 142 003f 00       		.p2align 1
 143              	.L11:
 144              		.loc 1 69 0
 145 0040 FFF7FEFF 		bl	app_ppm_start
 146              	.LVL9:
 147              	.L10:
 148              		.loc 1 115 0
 149 0044 1E48     		ldr	r0, .L21+8
 150 0046 FFF7FEFF 		bl	app_ppm_configure
 151              	.LVL10:
 152              		.loc 1 116 0
 153 004a 1E48     		ldr	r0, .L21+12
 154 004c FFF7FEFF 		bl	app_adc_configure
 155              	.LVL11:
 156              		.loc 1 117 0
 157 0050 A17D     		ldrb	r1, [r4, #22]	@ zero_extendqisi2
 158 0052 D4F89800 		ldr	r0, [r4, #152]
 159 0056 FFF7FEFF 		bl	app_uartcomm_configure
 160              	.LVL12:
 161              		.loc 1 118 0
 162 005a 1B48     		ldr	r0, .L21+16
 163 005c FFF7FEFF 		bl	app_nunchuk_configure
 164              	.LVL13:
 165              		.loc 1 124 0
 166 0060 1A48     		ldr	r0, .L21+20
 167              		.loc 1 125 0
 168 0062 BDE87040 		pop	{r4, r5, r6, lr}
 169              		.cfi_remember_state
 170              		.cfi_restore 14
 171              		.cfi_restore 6
ARM GAS  /tmp/ccAPA4Us.s 			page 4


 172              		.cfi_restore 5
 173              		.cfi_restore 4
 174              		.cfi_def_cfa_offset 0
 175              	.LVL14:
 176              		.loc 1 124 0
 177 0066 FFF7FEBF 		b	rfhelp_update_conf
 178              	.LVL15:
 179              	.L20:
 180              		.cfi_restore_state
 181              		.loc 1 56 0
 182 006a FFF7FEFF 		bl	nrf_driver_stop
 183              	.LVL16:
 184 006e D9E7     		b	.L9
 185              	.L18:
 186              		.loc 1 98 0
 187 0070 3378     		ldrb	r3, [r6]	@ zero_extendqisi2
 188 0072 002B     		cmp	r3, #0
 189 0074 E6D1     		bne	.L10
 190              		.loc 1 99 0
 191 0076 FFF7FEFF 		bl	nrf_driver_init
 192              	.LVL17:
 193              		.loc 1 100 0
 194 007a FFF7FEFF 		bl	rfhelp_restart
 195              	.LVL18:
 196 007e E1E7     		b	.L10
 197              	.L13:
 198              		.loc 1 73 0
 199 0080 0120     		movs	r0, #1
 200 0082 FFF7FEFF 		bl	app_adc_start
 201              	.LVL19:
 202              		.loc 1 74 0
 203 0086 DDE7     		b	.L10
 204              	.L14:
 205              		.loc 1 77 0
 206 0088 FFF7FEFF 		bl	hw_stop_i2c
 207              	.LVL20:
 208              		.loc 1 78 0
 209 008c FFF7FEFF 		bl	app_uartcomm_start
 210              	.LVL21:
 211              		.loc 1 79 0
 212 0090 D8E7     		b	.L10
 213              	.L15:
 214              		.loc 1 82 0
 215 0092 FFF7FEFF 		bl	hw_stop_i2c
 216              	.LVL22:
 217              		.loc 1 83 0
 218 0096 FFF7FEFF 		bl	app_ppm_start
 219              	.LVL23:
 220              		.loc 1 84 0
 221 009a FFF7FEFF 		bl	app_uartcomm_start
 222              	.LVL24:
 223              		.loc 1 85 0
 224 009e D1E7     		b	.L10
 225              	.L16:
 226              		.loc 1 88 0
 227 00a0 FFF7FEFF 		bl	hw_stop_i2c
 228              	.LVL25:
ARM GAS  /tmp/ccAPA4Us.s 			page 5


 229              		.loc 1 89 0
 230 00a4 0020     		movs	r0, #0
 231 00a6 FFF7FEFF 		bl	app_adc_start
 232              	.LVL26:
 233              		.loc 1 90 0
 234 00aa FFF7FEFF 		bl	app_uartcomm_start
 235              	.LVL27:
 236              		.loc 1 91 0
 237 00ae C9E7     		b	.L10
 238              	.L17:
 239              		.loc 1 94 0
 240 00b0 FFF7FEFF 		bl	app_nunchuk_start
 241              	.LVL28:
 242              		.loc 1 95 0
 243 00b4 C6E7     		b	.L10
 244              	.L22:
 245 00b6 00BF     		.align	2
 246              	.L21:
 247 00b8 00000000 		.word	conf_general_permanent_nrf_found
 248 00bc 00000000 		.word	.LANCHOR1
 249 00c0 1C000000 		.word	.LANCHOR1+28
 250 00c4 54000000 		.word	.LANCHOR1+84
 251 00c8 9C000000 		.word	.LANCHOR1+156
 252 00cc C0000000 		.word	.LANCHOR1+192
 253              		.cfi_endproc
 254              	.LFE257:
 255              		.size	app_set_configuration, .-app_set_configuration
 256              		.section	.text.app_disable_output,"ax",%progbits
 257              		.align	1
 258              		.p2align 4,,15
 259              		.global	app_disable_output
 260              		.syntax unified
 261              		.thumb
 262              		.thumb_func
 263              		.fpu fpv4-sp-d16
 264              		.type	app_disable_output, %function
 265              	app_disable_output:
 266              	.LFB258:
 267              		.loc 1 136 0
 268              		.cfi_startproc
 269              		@ args = 0, pretend = 0, frame = 0
 270              		@ frame_needed = 0, uses_anonymous_args = 0
 271              	.LVL29:
 272              		.loc 1 137 0
 273 0000 1D4B     		ldr	r3, .L39
 274 0002 1A78     		ldrb	r2, [r3]	@ zero_extendqisi2
 275              		.loc 1 136 0
 276 0004 10B5     		push	{r4, lr}
 277              		.cfi_def_cfa_offset 8
 278              		.cfi_offset 4, -8
 279              		.cfi_offset 14, -4
 280              		.loc 1 137 0
 281 0006 1AB9     		cbnz	r2, .L24
 282              	.LVL30:
 283              	.LBB97:
 284              	.LBB98:
 285              		.file 2 "ChibiOS_3.0.2/os/rt/include/chvt.h"
ARM GAS  /tmp/ccAPA4Us.s 			page 6


 286              		.loc 2 212 0
 287 0008 1C4C     		ldr	r4, .L39+4
 288              	.LBE98:
 289              	.LBE97:
 290              		.loc 1 139 0
 291 000a 0121     		movs	r1, #1
 292              	.LBB100:
 293              	.LBB99:
 294              		.loc 2 212 0
 295 000c E260     		str	r2, [r4, #12]
 296              	.LBE99:
 297              	.LBE100:
 298              		.loc 1 139 0
 299 000e 1970     		strb	r1, [r3]
 300              	.LVL31:
 301              	.L24:
 302              		.loc 1 142 0
 303 0010 78B3     		cbz	r0, .L38
 304              		.loc 1 144 0
 305 0012 431C     		adds	r3, r0, #1
 306 0014 0ED1     		bne	.L27
 307              		.loc 1 145 0
 308 0016 1A4B     		ldr	r3, .L39+8
 309 0018 0122     		movs	r2, #1
 310 001a 1A70     		strb	r2, [r3]
 311              	.LVL32:
 312              	.LBB101:
 313              	.LBB102:
 314              	.LBB103:
 315              	.LBB104:
 316              	.LBB105:
 317              		.file 3 "ChibiOS_3.0.2/os/ext/CMSIS/include/core_cmFunc.h"
 318              		.loc 3 546 0
 319 001c 2023     		movs	r3, #32
 320              		.syntax unified
 321              	@ 546 "ChibiOS_3.0.2/os/ext/CMSIS/include/core_cmFunc.h" 1
 322 001e 83F31188 		MSR basepri, r3
 323              	@ 0 "" 2
 324              	.LVL33:
 325              		.thumb
 326              		.syntax unified
 327              	.LBE105:
 328              	.LBE104:
 329              	.LBE103:
 330              	.LBE102:
 331              	.LBB106:
 332              	.LBB107:
 333              		.loc 2 376 0
 334 0022 1648     		ldr	r0, .L39+4
 335              	.LVL34:
 336 0024 C368     		ldr	r3, [r0, #12]
 337 0026 0BB1     		cbz	r3, .L37
 338              		.loc 2 377 0
 339 0028 FFF7FEFF 		bl	chVTDoResetI
 340              	.LVL35:
 341              	.L37:
 342              	.LBE107:
ARM GAS  /tmp/ccAPA4Us.s 			page 7


 343              	.LBE106:
 344              	.LBE101:
 345              	.LBB108:
 346              	.LBB109:
 347              	.LBB110:
 348              	.LBB111:
 349              	.LBB112:
 350              	.LBB113:
 351              		.loc 3 546 0
 352 002c 0023     		movs	r3, #0
 353              		.syntax unified
 354              	@ 546 "ChibiOS_3.0.2/os/ext/CMSIS/include/core_cmFunc.h" 1
 355 002e 83F31188 		MSR basepri, r3
 356              	@ 0 "" 2
 357              	.LVL36:
 358              		.thumb
 359              		.syntax unified
 360              	.L23:
 361              	.LBE113:
 362              	.LBE112:
 363              	.LBE111:
 364              	.LBE110:
 365              	.LBE109:
 366              	.LBE108:
 367              		.loc 1 151 0
 368 0032 10BD     		pop	{r4, pc}
 369              	.LVL37:
 370              	.L27:
 371              		.loc 1 149 0
 372 0034 42F21074 		movw	r4, #10000
 373 0038 04FB00F0 		mul	r0, r4, r0
 374              	.LVL38:
 375 003c 1149     		ldr	r1, .L39+12
 376              		.loc 1 148 0
 377 003e 104B     		ldr	r3, .L39+8
 378              	.LVL39:
 379              		.loc 1 149 0
 380 0040 00F2E734 		addw	r4, r0, #999
 381 0044 A1FB0424 		umull	r2, r4, r1, r4
 382              		.loc 1 148 0
 383 0048 0122     		movs	r2, #1
 384 004a 1A70     		strb	r2, [r3]
 385              		.loc 1 149 0
 386 004c A409     		lsrs	r4, r4, #6
 387              	.LVL40:
 388              	.LBB127:
 389              	.LBB118:
 390              	.LBB119:
 391              	.LBB120:
 392              	.LBB121:
 393              		.loc 3 546 0
 394 004e 2023     		movs	r3, #32
 395              		.syntax unified
 396              	@ 546 "ChibiOS_3.0.2/os/ext/CMSIS/include/core_cmFunc.h" 1
 397 0050 83F31188 		MSR basepri, r3
 398              	@ 0 "" 2
 399              	.LVL41:
ARM GAS  /tmp/ccAPA4Us.s 			page 8


 400              		.thumb
 401              		.syntax unified
 402              	.LBE121:
 403              	.LBE120:
 404              	.LBE119:
 405              	.LBE118:
 406              	.LBB122:
 407              	.LBB123:
 408              	.LBB124:
 409              	.LBB125:
 410              		.loc 2 376 0
 411 0054 0948     		ldr	r0, .L39+4
 412 0056 C368     		ldr	r3, [r0, #12]
 413 0058 0BB1     		cbz	r3, .L29
 414              		.loc 2 377 0
 415 005a FFF7FEFF 		bl	chVTDoResetI
 416              	.LVL42:
 417              	.L29:
 418              	.LBE125:
 419              	.LBE124:
 420              		.loc 2 424 0
 421 005e 2146     		mov	r1, r4
 422 0060 0023     		movs	r3, #0
 423 0062 094A     		ldr	r2, .L39+16
 424 0064 0548     		ldr	r0, .L39+4
 425 0066 FFF7FEFF 		bl	chVTDoSetI
 426              	.LVL43:
 427              	.LBE123:
 428              	.LBE122:
 429              	.LBB126:
 430              	.LBB117:
 431              	.LBB116:
 432              	.LBB115:
 433              	.LBB114:
 434              		.loc 3 546 0
 435 006a 0023     		movs	r3, #0
 436              		.syntax unified
 437              	@ 546 "ChibiOS_3.0.2/os/ext/CMSIS/include/core_cmFunc.h" 1
 438 006c 83F31188 		MSR basepri, r3
 439              	@ 0 "" 2
 440              	.LVL44:
 441              		.thumb
 442              		.syntax unified
 443 0070 DFE7     		b	.L23
 444              	.LVL45:
 445              	.L38:
 446              	.LBE114:
 447              	.LBE115:
 448              	.LBE116:
 449              	.LBE117:
 450              	.LBE126:
 451              	.LBE127:
 452              		.loc 1 143 0
 453 0072 034B     		ldr	r3, .L39+8
 454 0074 1870     		strb	r0, [r3]
 455              		.loc 1 151 0
 456 0076 10BD     		pop	{r4, pc}
ARM GAS  /tmp/ccAPA4Us.s 			page 9


 457              	.L40:
 458              		.align	2
 459              	.L39:
 460 0078 00000000 		.word	.LANCHOR2
 461 007c 00000000 		.word	.LANCHOR3
 462 0080 00000000 		.word	.LANCHOR0
 463 0084 D34D6210 		.word	274877907
 464 0088 00000000 		.word	output_vt_cb
 465              		.cfi_endproc
 466              	.LFE258:
 467              		.size	app_disable_output, .-app_disable_output
 468              		.section	.text.app_is_output_disabled,"ax",%progbits
 469              		.align	1
 470              		.p2align 4,,15
 471              		.global	app_is_output_disabled
 472              		.syntax unified
 473              		.thumb
 474              		.thumb_func
 475              		.fpu fpv4-sp-d16
 476              		.type	app_is_output_disabled, %function
 477              	app_is_output_disabled:
 478              	.LFB259:
 479              		.loc 1 153 0
 480              		.cfi_startproc
 481              		@ args = 0, pretend = 0, frame = 0
 482              		@ frame_needed = 0, uses_anonymous_args = 0
 483              		@ link register save eliminated.
 484              		.loc 1 154 0
 485 0000 014B     		ldr	r3, .L42
 486 0002 1878     		ldrb	r0, [r3]	@ zero_extendqisi2
 487              		.loc 1 155 0
 488 0004 7047     		bx	lr
 489              	.L43:
 490 0006 00BF     		.align	2
 491              	.L42:
 492 0008 00000000 		.word	.LANCHOR0
 493              		.cfi_endproc
 494              	.LFE259:
 495              		.size	app_is_output_disabled, .-app_is_output_disabled
 496              		.section	.bss.appconf,"aw",%nobits
 497              		.align	2
 498              		.set	.LANCHOR1,. + 0
 499              		.type	appconf, %object
 500              		.size	appconf, 204
 501              	appconf:
 502 0000 00000000 		.space	204
 502      00000000 
 502      00000000 
 502      00000000 
 502      00000000 
 503              		.section	.bss.output_disabled_now,"aw",%nobits
 504              		.set	.LANCHOR0,. + 0
 505              		.type	output_disabled_now, %object
 506              		.size	output_disabled_now, 1
 507              	output_disabled_now:
 508 0000 00       		.space	1
 509              		.section	.bss.output_vt,"aw",%nobits
ARM GAS  /tmp/ccAPA4Us.s 			page 10


 510              		.align	2
 511              		.set	.LANCHOR3,. + 0
 512              		.type	output_vt, %object
 513              		.size	output_vt, 20
 514              	output_vt:
 515 0000 00000000 		.space	20
 515      00000000 
 515      00000000 
 515      00000000 
 515      00000000 
 516              		.section	.bss.output_vt_init_done,"aw",%nobits
 517              		.set	.LANCHOR2,. + 0
 518              		.type	output_vt_init_done, %object
 519              		.size	output_vt_init_done, 1
 520              	output_vt_init_done:
 521 0000 00       		.space	1
 522              		.text
 523              	.Letext0:
 524              		.file 4 "/usr/arm-none-eabi/include/machine/_default_types.h"
 525              		.file 5 "/usr/arm-none-eabi/include/sys/_stdint.h"
 526              		.file 6 "/usr/lib/gcc/arm-none-eabi/7.3.1/include/stddef.h"
 527              		.file 7 "ChibiOS_3.0.2/os/rt/ports/ARMCMx/compilers/GCC/chtypes.h"
 528              		.file 8 "ChibiOS_3.0.2/os/rt/include/chsystypes.h"
 529              		.file 9 "ChibiOS_3.0.2/os/rt/include/chschd.h"
 530              		.file 10 "ChibiOS_3.0.2/os/ext/CMSIS/include/core_cm4.h"
 531              		.file 11 "ChibiOS_3.0.2/os/ext/CMSIS/ST/system_stm32f4xx.h"
 532              		.file 12 "ChibiOS_3.0.2/os/ext/CMSIS/ST/stm32f407xx.h"
 533              		.file 13 "ChibiOS_3.0.2/os/rt/ports/ARMCMx/chcore.h"
 534              		.file 14 "ChibiOS_3.0.2/os/rt/ports/ARMCMx/chcore_v7m.h"
 535              		.file 15 "ChibiOS_3.0.2/os/rt/include/chtm.h"
 536              		.file 16 "ChibiOS_3.0.2/os/rt/include/chsem.h"
 537              		.file 17 "ChibiOS_3.0.2/os/rt/include/chmtx.h"
 538              		.file 18 "ChibiOS_3.0.2/os/rt/include/chregistry.h"
 539              		.file 19 "ChibiOS_3.0.2/os/rt/include/chevents.h"
 540              		.file 20 "ChibiOS_3.0.2/os/rt/include/chqueues.h"
 541              		.file 21 "./datatypes.h"
 542              		.file 22 "./conf_general.h"
 543              		.file 23 "ChibiOS_3.0.2/os/hal/ports/STM32/STM32F4xx/stm32_dma.h"
 544              		.file 24 "ChibiOS_3.0.2/os/hal/ports/STM32/LLD/GPIOv2/pal_lld.h"
 545              		.file 25 "ChibiOS_3.0.2/os/hal/include/can.h"
 546              		.file 26 "ChibiOS_3.0.2/os/hal/ports/STM32/LLD/can_lld.h"
 547              		.file 27 "ChibiOS_3.0.2/os/hal/include/i2c.h"
 548              		.file 28 "ChibiOS_3.0.2/os/hal/ports/STM32/LLD/I2Cv1/i2c_lld.h"
 549              		.file 29 "ChibiOS_3.0.2/os/hal/include/icu.h"
 550              		.file 30 "ChibiOS_3.0.2/os/hal/ports/STM32/LLD/TIMv1/icu_lld.h"
 551              		.file 31 "ChibiOS_3.0.2/os/hal/ports/STM32/LLD/TIMv1/stm32_tim.h"
 552              		.file 32 "ChibiOS_3.0.2/os/hal/include/serial.h"
 553              		.file 33 "ChibiOS_3.0.2/os/hal/ports/STM32/LLD/USARTv1/serial_lld.h"
 554              		.file 34 "ChibiOS_3.0.2/os/hal/include/spi.h"
 555              		.file 35 "ChibiOS_3.0.2/os/hal/ports/STM32/LLD/SPIv1/spi_lld.h"
 556              		.file 36 "ChibiOS_3.0.2/os/hal/include/usb.h"
 557              		.file 37 "ChibiOS_3.0.2/os/hal/ports/STM32/LLD/OTGv1/usb_lld.h"
 558              		.file 38 "ChibiOS_3.0.2/os/hal/ports/STM32/LLD/OTGv1/stm32_otg.h"
 559              		.file 39 "ChibiOS_3.0.2/os/rt/include/chsys.h"
 560              		.file 40 "applications/app.h"
 561              		.file 41 "./comm_can.h"
 562              		.file 42 "nrf/rfhelp.h"
ARM GAS  /tmp/ccAPA4Us.s 			page 11


 563              		.file 43 "nrf/nrf_driver.h"
 564              		.file 44 "hwconf/hw.h"
 565              		.file 45 "<built-in>"