ARM GAS  /tmp/ccdeWoOQ.s 			page 1


   1              		.cpu cortex-m4
   2              		.eabi_attribute 27, 1
   3              		.eabi_attribute 28, 1
   4              		.eabi_attribute 20, 1
   5              		.eabi_attribute 21, 1
   6              		.eabi_attribute 23, 3
   7              		.eabi_attribute 24, 1
   8              		.eabi_attribute 25, 1
   9              		.eabi_attribute 26, 1
  10              		.eabi_attribute 30, 2
  11              		.eabi_attribute 34, 1
  12              		.eabi_attribute 18, 4
  13              		.file	"app_nunchuk.c"
  14              		.text
  15              	.Ltext0:
  16              		.cfi_sections	.debug_frame
  17              		.section	.text.terminal_cmd_nunchuk_status,"ax",%progbits
  18              		.align	1
  19              		.p2align 4,,15
  20              		.syntax unified
  21              		.thumb
  22              		.thumb_func
  23              		.fpu fpv4-sp-d16
  24              		.type	terminal_cmd_nunchuk_status, %function
  25              	terminal_cmd_nunchuk_status:
  26              	.LFB263:
  27              		.file 1 "applications/app_nunchuk.c"
  28              		.loc 1 498 0
  29              		.cfi_startproc
  30              		@ args = 0, pretend = 0, frame = 0
  31              		@ frame_needed = 0, uses_anonymous_args = 0
  32              	.LVL0:
  33 0000 08B5     		push	{r3, lr}
  34              		.cfi_def_cfa_offset 8
  35              		.cfi_offset 3, -8
  36              		.cfi_offset 14, -4
  37              		.loc 1 502 0
  38 0002 0948     		ldr	r0, .L6
  39              	.LVL1:
  40 0004 FFF7FEFF 		bl	commands_printf
  41              	.LVL2:
  42              		.loc 1 503 0
  43 0008 084B     		ldr	r3, .L6+4
  44 000a 094A     		ldr	r2, .L6+8
  45 000c 1978     		ldrb	r1, [r3]	@ zero_extendqisi2
  46 000e 094B     		ldr	r3, .L6+12
  47 0010 0948     		ldr	r0, .L6+16
  48 0012 0029     		cmp	r1, #0
  49 0014 14BF     		ite	ne
  50 0016 1146     		movne	r1, r2
  51 0018 1946     		moveq	r1, r3
  52 001a FFF7FEFF 		bl	commands_printf
  53              	.LVL3:
  54              		.loc 1 504 0
  55 001e 0748     		ldr	r0, .L6+20
  56              		.loc 1 505 0
  57 0020 BDE80840 		pop	{r3, lr}
ARM GAS  /tmp/ccdeWoOQ.s 			page 2


  58              		.cfi_restore 14
  59              		.cfi_restore 3
  60              		.cfi_def_cfa_offset 0
  61              		.loc 1 504 0
  62 0024 FFF7FEBF 		b	commands_printf
  63              	.LVL4:
  64              	.L7:
  65              		.align	2
  66              	.L6:
  67 0028 08000000 		.word	.LC2
  68 002c 00000000 		.word	.LANCHOR0
  69 0030 00000000 		.word	.LC0
  70 0034 04000000 		.word	.LC1
  71 0038 18000000 		.word	.LC3
  72 003c 24000000 		.word	.LC4
  73              		.cfi_endproc
  74              	.LFE263:
  75              		.size	terminal_cmd_nunchuk_status, .-terminal_cmd_nunchuk_status
  76              		.section	.text.output_thread,"ax",%progbits
  77              		.align	1
  78              		.p2align 4,,15
  79              		.syntax unified
  80              		.thumb
  81              		.thumb_func
  82              		.fpu fpv4-sp-d16
  83              		.type	output_thread, %function
  84              	output_thread:
  85              	.LFB262:
  86              		.loc 1 203 0
  87              		.cfi_startproc
  88              		@ args = 0, pretend = 0, frame = 24
  89              		@ frame_needed = 0, uses_anonymous_args = 0
  90              	.LVL5:
  91 0000 2DE9F04F 		push	{r4, r5, r6, r7, r8, r9, r10, fp, lr}
  92              		.cfi_def_cfa_offset 36
  93              		.cfi_offset 4, -36
  94              		.cfi_offset 5, -32
  95              		.cfi_offset 6, -28
  96              		.cfi_offset 7, -24
  97              		.cfi_offset 8, -20
  98              		.cfi_offset 9, -16
  99              		.cfi_offset 10, -12
 100              		.cfi_offset 11, -8
 101              		.cfi_offset 14, -4
 102              	.LBB86:
 103              	.LBB87:
 104              		.file 2 "ChibiOS_3.0.2/os/rt/include/chregistry.h"
 105              		.loc 2 135 0
 106 0004 DFF83883 		ldr	r8, .L180+80
 107 0008 B94A     		ldr	r2, .L180
 108 000a D8F81830 		ldr	r3, [r8, #24]
 109 000e B94C     		ldr	r4, .L180+4
 110 0010 B94F     		ldr	r7, .L180+8
 111 0012 BA4E     		ldr	r6, .L180+12
 112 0014 DFF82C93 		ldr	r9, .L180+84
 113              	.LBE87:
 114              	.LBE86:
ARM GAS  /tmp/ccdeWoOQ.s 			page 3


 115              		.loc 1 203 0
 116 0018 2DED0E8B 		vpush.64	{d8, d9, d10, d11, d12, d13, d14}
 117              		.cfi_def_cfa_offset 92
 118              		.cfi_offset 80, -92
 119              		.cfi_offset 81, -88
 120              		.cfi_offset 82, -84
 121              		.cfi_offset 83, -80
 122              		.cfi_offset 84, -76
 123              		.cfi_offset 85, -72
 124              		.cfi_offset 86, -68
 125              		.cfi_offset 87, -64
 126              		.cfi_offset 88, -60
 127              		.cfi_offset 89, -56
 128              		.cfi_offset 90, -52
 129              		.cfi_offset 91, -48
 130              		.cfi_offset 92, -44
 131              		.cfi_offset 93, -40
 132              	.LBB89:
 133              		.loc 1 238 0
 134 001c DFEDB8AA 		vldr.32	s21, .L180+16
 135              	.LBB90:
 136              	.LBB91:
 137              		.loc 1 89 0
 138 0020 9FEDB8AA 		vldr.32	s20, .L180+20
 139              	.LBE91:
 140              	.LBE90:
 141              	.LBB96:
 142              	.LBB97:
 143              	.LBB98:
 144              		.loc 1 458 0
 145 0024 DFEDB89A 		vldr.32	s19, .L180+24
 146 0028 9FEDB89A 		vldr.32	s18, .L180+28
 147              	.LBE98:
 148              	.LBE97:
 149              	.LBE96:
 150              	.LBE89:
 151              	.LBB156:
 152              	.LBB88:
 153              		.loc 2 135 0
 154 002c 9A61     		str	r2, [r3, #24]
 155              	.LBE88:
 156              	.LBE156:
 157              		.loc 1 203 0
 158 002e 87B0     		sub	sp, sp, #28
 159              		.cfi_def_cfa_offset 120
 160              	.LVL6:
 161              	.L167:
 162              		.loc 1 208 0
 163 0030 0025     		movs	r5, #0
 164              	.LVL7:
 165              	.L9:
 166              	.LBB157:
 167              		.loc 1 211 0
 168 0032 3220     		movs	r0, #50
 169 0034 FFF7FEFF 		bl	chThdSleep
 170              	.LVL8:
 171              		.loc 1 214 0
ARM GAS  /tmp/ccdeWoOQ.s 			page 4


 172 0038 94ED008A 		vldr.32	s16, [r4]
 173 003c FFF7FEFF 		bl	mc_interface_get_rpm
 174              	.LVL9:
 175 0040 D4ED007A 		vldr.32	s15, [r4]
 176 0044 38EE400A 		vsub.f32	s0, s16, s0
 177 0048 B6EE007A 		vmov.f32	s14, #5.0e-1
 178 004c E0EE477A 		vfms.f32	s15, s0, s14
 179 0050 C4ED007A 		vstr.32	s15, [r4]
 180              		.loc 1 216 0
 181 0054 FFF7FEFF 		bl	timeout_has_timeout
 182              	.LVL10:
 183 0058 0028     		cmp	r0, #0
 184 005a E9D1     		bne	.L167
 185              		.loc 1 216 0 is_stmt 0 discriminator 1
 186 005c 3B68     		ldr	r3, [r7]
 187 005e 002B     		cmp	r3, #0
 188 0060 E6D1     		bne	.L167
 189              		.loc 1 216 0 discriminator 2
 190 0062 3378     		ldrb	r3, [r6]	@ zero_extendqisi2
 191 0064 002B     		cmp	r3, #0
 192 0066 E3D0     		beq	.L167
 193              		.loc 1 223 0 is_stmt 1
 194 0068 A94B     		ldr	r3, .L180+32
 195 006a 1A68     		ldr	r2, [r3]
 196              	.LVL11:
 197              	.LBB112:
 198              	.LBB113:
 199              	.LBB114:
 200              	.LBB115:
 201              		.file 3 "ChibiOS_3.0.2/os/rt/include/chvt.h"
 202              		.loc 3 231 0
 203 006c D8F82830 		ldr	r3, [r8, #40]
 204              	.LVL12:
 205              	.LBE115:
 206              	.LBE114:
 207              		.loc 3 267 0
 208 0070 9B1A     		subs	r3, r3, r2
 209              	.LBE113:
 210              	.LBE112:
 211              		.loc 1 223 0
 212 0072 44F62062 		movw	r2, #20000
 213 0076 9342     		cmp	r3, r2
 214 0078 DAD8     		bhi	.L167
 215              		.loc 1 228 0
 216 007a FFF7FEFF 		bl	app_is_output_disabled
 217              	.LVL13:
 218 007e 8346     		mov	fp, r0
 219 0080 0028     		cmp	r0, #0
 220 0082 D5D1     		bne	.L167
 221              		.loc 1 233 0
 222 0084 FFF7FEFF 		bl	mc_interface_get_configuration
 223              	.LVL14:
 224 0088 8246     		mov	r10, r0
 225              	.LVL15:
 226              		.loc 1 236 0
 227 008a FFF7FEFF 		bl	mc_interface_get_tot_current_directional_filtered
 228              	.LVL16:
ARM GAS  /tmp/ccdeWoOQ.s 			page 5


 229              		.loc 1 238 0
 230 008e DAED018A 		vldr.32	s17, [r10, #4]
 231 0092 DAED197A 		vldr.32	s15, [r10, #100]
 232              		.loc 1 240 0
 233 0096 99F81430 		ldrb	r3, [r9, #20]	@ zero_extendqisi2
 234              		.loc 1 238 0
 235 009a 68EEA78A 		vmul.f32	s17, s17, s15
 236              		.loc 1 236 0
 237 009e B0EE40BA 		vmov.f32	s22, s0
 238              	.LVL17:
 239              		.loc 1 238 0
 240 00a2 68EEAA8A 		vmul.f32	s17, s17, s21
 241              	.LVL18:
 242              		.loc 1 240 0
 243 00a6 23B1     		cbz	r3, .L11
 244              		.loc 1 240 0 is_stmt 0 discriminator 1
 245 00a8 99F81530 		ldrb	r3, [r9, #21]	@ zero_extendqisi2
 246 00ac 002B     		cmp	r3, #0
 247 00ae 40F08382 		bne	.L168
 248              	.L11:
 249              		.loc 1 246 0 is_stmt 1
 250 00b2 F0EECB7A 		vabs.f32	s15, s22
 251 00b6 F4EEE87A 		vcmpe.f32	s15, s17
 252 00ba F1EE10FA 		vmrs	APSR_nzcv, FPSCR
 253 00be 08D5     		bpl	.L13
 254              		.loc 1 247 0
 255 00c0 99F81630 		ldrb	r3, [r9, #22]	@ zero_extendqisi2
 256 00c4 002B     		cmp	r3, #0
 257 00c6 00F0FC80 		beq	.L15
 258              		.loc 1 248 0
 259 00ca 924A     		ldr	r2, .L180+36
 260 00cc 99F81730 		ldrb	r3, [r9, #23]	@ zero_extendqisi2
 261 00d0 1370     		strb	r3, [r2]
 262              	.L13:
 263              		.loc 1 258 0
 264 00d2 3378     		ldrb	r3, [r6]	@ zero_extendqisi2
 265 00d4 022B     		cmp	r3, #2
 266 00d6 00F0F080 		beq	.L17
 267 00da 8E4B     		ldr	r3, .L180+36
 268 00dc 93F800B0 		ldrb	fp, [r3]	@ zero_extendqisi2
 269              	.L18:
 270              		.loc 1 262 0
 271 00e0 8D4A     		ldr	r2, .L180+40
 272 00e2 99F81530 		ldrb	r3, [r9, #21]	@ zero_extendqisi2
 273 00e6 1370     		strb	r3, [r2]
 274              		.loc 1 264 0
 275 00e8 5846     		mov	r0, fp
 276 00ea FFF7FEFF 		bl	led_external_set_reversed
 277              	.LVL19:
 278              	.LBB116:
 279              	.LBB92:
 280              		.loc 1 89 0
 281 00ee D9ED017A 		vldr.32	s15, [r9, #4]	@ int
 282 00f2 9FED8A8A 		vldr.32	s16, .L180+44
 283              	.LBE92:
 284              	.LBE116:
 285              		.loc 1 267 0
ARM GAS  /tmp/ccdeWoOQ.s 			page 6


 286 00f6 96ED010A 		vldr.32	s0, [r6, #4]
 287              	.LBB117:
 288              	.LBB93:
 289              		.loc 1 89 0
 290 00fa F8EEE77A 		vcvt.f32.s32	s15, s15
 291              	.LBE93:
 292              	.LBE117:
 293              		.loc 1 267 0
 294 00fe F7EE000A 		vmov.f32	s1, #1.0e+0
 295              	.LBB118:
 296              	.LBB94:
 297              		.loc 1 89 0
 298 0102 77EECA7A 		vsub.f32	s15, s15, s20
 299              	.LBE94:
 300              	.LBE118:
 301              		.loc 1 267 0
 302 0106 03A8     		add	r0, sp, #12
 303              	.LBB119:
 304              	.LBB95:
 305              		.loc 1 89 0
 306 0108 67EE887A 		vmul.f32	s15, s15, s16
 307              	.LBE95:
 308              	.LBE119:
 309              		.loc 1 266 0
 310 010c CDED037A 		vstr.32	s15, [sp, #12]
 311              		.loc 1 267 0
 312 0110 FFF7FEFF 		bl	utils_deadband
 313              	.LVL20:
 314              		.loc 1 268 0
 315 0114 D6ED050A 		vldr.32	s1, [r6, #20]
 316 0118 9DED030A 		vldr.32	s0, [sp, #12]
 317 011c 96ED061A 		vldr.32	s2, [r6, #24]
 318 0120 307F     		ldrb	r0, [r6, #28]	@ zero_extendqisi2
 319 0122 FFF7FEFF 		bl	utils_throttle_curve
 320              	.LVL21:
 321              		.loc 1 271 0
 322 0126 D9ED007A 		vldr.32	s15, [r9]	@ int
 323              		.loc 1 272 0
 324 012a 9FED7D7A 		vldr.32	s14, .L180+48
 325              		.loc 1 268 0
 326 012e 8DED030A 		vstr.32	s0, [sp, #12]
 327              		.loc 1 271 0
 328 0132 F8EEE77A 		vcvt.f32.s32	s15, s15
 329              		.loc 1 272 0
 330 0136 B4EEC70A 		vcmpe.f32	s0, s14
 331              		.loc 1 271 0
 332 013a 77EECA7A 		vsub.f32	s15, s15, s20
 333              		.loc 1 272 0
 334 013e F1EE10FA 		vmrs	APSR_nzcv, FPSCR
 335              		.loc 1 271 0
 336 0142 27EE888A 		vmul.f32	s16, s15, s16
 337              	.LVL22:
 338              		.loc 1 273 0
 339 0146 DFED777A 		vldr.32	s15, .L180+52
 340 014a B4EEE78A 		vcmpe.f32	s16, s15
 341              		.loc 1 272 0
 342 014e 40F1A480 		bpl	.L155
ARM GAS  /tmp/ccdeWoOQ.s 			page 7


 343              		.loc 1 273 0
 344 0152 F1EE10FA 		vmrs	APSR_nzcv, FPSCR
 345 0156 00F18F81 		bmi	.L169
 346              		.loc 1 275 0
 347 015a DFED737A 		vldr.32	s15, .L180+56
 348 015e B4EEE78A 		vcmpe.f32	s16, s15
 349 0162 F1EE10FA 		vmrs	APSR_nzcv, FPSCR
 350              		.loc 1 276 0
 351 0166 CCBF     		ite	gt
 352 0168 0620     		movgt	r0, #6
 353              		.loc 1 278 0
 354 016a 0220     		movle	r0, #2
 355 016c FFF7FEFF 		bl	led_external_set_state
 356              	.LVL23:
 357              	.L23:
 358              		.loc 1 290 0
 359 0170 99F81430 		ldrb	r3, [r9, #20]	@ zero_extendqisi2
 360 0174 03F0FF0B 		and	fp, r3, #255
 361 0178 5BB3     		cbz	r3, .L30
 362 017a 664B     		ldr	r3, .L180+36
 363 017c 94ED000A 		vldr.32	s0, [r4]
 364 0180 1B78     		ldrb	r3, [r3]	@ zero_extendqisi2
 365              	.LBB120:
 366              		.loc 1 294 0
 367 0182 6A4A     		ldr	r2, .L180+60
 368              		.loc 1 293 0
 369 0184 002D     		cmp	r5, #0
 370 0186 40F02281 		bne	.L31
 371              		.loc 1 294 0
 372 018a 82ED000A 		vstr.32	s0, [r2]
 373              		.loc 1 296 0
 374 018e B5EEC00A 		vcmpe.f32	s0, #0
 375 0192 002B     		cmp	r3, #0
 376 0194 00F0B481 		beq	.L32
 377              		.loc 1 296 0 is_stmt 0 discriminator 1
 378 0198 F1EE10FA 		vmrs	APSR_nzcv, FPSCR
 379 019c 0EDD     		ble	.L34
 380              	.L33:
 381              		.loc 1 297 0 is_stmt 1
 382 019e DAED577A 		vldr.32	s15, [r10, #348]
 383 01a2 B0EEC00A 		vabs.f32	s0, s0
 384 01a6 B4EEE70A 		vcmpe.f32	s0, s15
 385 01aa F1EE10FA 		vmrs	APSR_nzcv, FPSCR
 386 01ae 3FF73FAF 		bgt	.L167
 387              		.loc 1 301 0
 388 01b2 9FED5F0A 		vldr.32	s0, .L180+64
 389 01b6 5D4B     		ldr	r3, .L180+60
 390 01b8 83ED000A 		vstr.32	s0, [r3]
 391              	.L34:
 392              	.LVL24:
 393              		.loc 1 330 0
 394 01bc FFF7FEFF 		bl	mc_interface_set_pid_speed
 395              	.LVL25:
 396              		.loc 1 333 0
 397 01c0 737F     		ldrb	r3, [r6, #29]	@ zero_extendqisi2
 398 01c2 002B     		cmp	r3, #0
 399 01c4 40F03281 		bne	.L170
ARM GAS  /tmp/ccdeWoOQ.s 			page 8


 400              	.LVL26:
 401              	.L41:
 402              		.loc 1 347 0
 403 01c8 5A4B     		ldr	r3, .L180+68
 404              		.loc 1 349 0
 405 01ca 5D46     		mov	r5, fp
 406              		.loc 1 347 0
 407 01cc 83ED00BA 		vstr.32	s22, [r3]
 408              		.loc 1 349 0
 409 01d0 2FE7     		b	.L9
 410              	.LVL27:
 411              	.L30:
 412              	.LBE120:
 413              		.loc 1 356 0
 414 01d2 DDED037A 		vldr.32	s15, [sp, #12]
 415 01d6 F5EEC07A 		vcmpe.f32	s15, #0
 416 01da F1EE10FA 		vmrs	APSR_nzcv, FPSCR
 417              		.loc 1 359 0
 418 01de B6BF     		itet	lt
 419 01e0 9AED208A 		vldrlt.32	s16, [r10, #128]
 420              	.LVL28:
 421              		.loc 1 357 0
 422 01e4 9AED1F8A 		vldrge.32	s16, [r10, #124]
 423              		.loc 1 359 0
 424 01e8 B0EEC88A 		vabslt.f32	s16, s16
 425 01ec 28EE278A 		vmul.f32	s16, s16, s15
 426              	.LVL29:
 427              		.loc 1 363 0
 428 01f0 FFF7FEFF 		bl	mc_interface_get_rpm
 429              	.LVL30:
 430              		.loc 1 364 0
 431 01f4 474B     		ldr	r3, .L180+36
 432 01f6 1B78     		ldrb	r3, [r3]	@ zero_extendqisi2
 433              		.loc 1 363 0
 434 01f8 B0EE40DA 		vmov.f32	s26, s0
 435              	.LVL31:
 436              		.loc 1 364 0
 437 01fc 0BB1     		cbz	r3, .L48
 438              		.loc 1 365 0
 439 01fe B1EE40DA 		vneg.f32	s26, s0
 440              	.LVL32:
 441              	.L48:
 442              		.loc 1 371 0
 443 0202 737F     		ldrb	r3, [r6, #29]	@ zero_extendqisi2
 444              		.loc 1 368 0
 445 0204 F0EE4DCA 		vmov.f32	s25, s26
 446              		.loc 1 371 0
 447 0208 002B     		cmp	r3, #0
 448 020a 40F09D80 		bne	.L171
 449              	.LVL33:
 450              	.L49:
 451              		.loc 1 401 0
 452 020e 494B     		ldr	r3, .L180+68
 453              		.loc 1 399 0
 454 0210 9AED01CA 		vldr.32	s24, [r10, #4]
 455              		.loc 1 401 0
 456 0214 D3ED00DA 		vldr.32	s27, [r3]
ARM GAS  /tmp/ccdeWoOQ.s 			page 9


 457              		.loc 1 399 0
 458 0218 DAED19BA 		vldr.32	s23, [r10, #100]
 459              		.loc 1 400 0
 460 021c 9AED02EA 		vldr.32	s28, [r10, #8]
 461 0220 DAED1AEA 		vldr.32	s29, [r10, #104]
 462              	.LVL34:
 463              		.loc 1 401 0
 464 0224 F0EEED7A 		vabs.f32	s15, s27
 465 0228 B0EEC87A 		vabs.f32	s14, s16
 466 022c B4EEE77A 		vcmpe.f32	s14, s15
 467              		.loc 1 403 0
 468 0230 DDED037A 		vldr.32	s15, [sp, #12]
 469 0234 9FED407A 		vldr.32	s14, .L180+72
 470 0238 F0EEE77A 		vabs.f32	s15, s15
 471              		.loc 1 401 0
 472 023c F1EE10FA 		vmrs	APSR_nzcv, FPSCR
 473              		.loc 1 403 0
 474 0240 F4EEC77A 		vcmpe.f32	s15, s14
 475              		.loc 1 401 0
 476 0244 CCBF     		ite	gt
 477 0246 96ED020A 		vldrgt.32	s0, [r6, #8]
 478 024a 96ED030A 		vldrle.32	s0, [r6, #12]
 479              	.LVL35:
 480              		.loc 1 403 0
 481 024e F1EE10FA 		vmrs	APSR_nzcv, FPSCR
 482 0252 05DD     		ble	.L60
 483              		.loc 1 404 0
 484 0254 96ED020A 		vldr.32	s0, [r6, #8]
 485              	.LVL36:
 486 0258 D6ED030A 		vldr.32	s1, [r6, #12]
 487 025c FFF7FEFF 		bl	fminf
 488              	.LVL37:
 489              	.L60:
 490              		.loc 1 407 0
 491 0260 DFED367A 		vldr.32	s15, .L180+76
 492 0264 B4EEE70A 		vcmpe.f32	s0, s15
 493 0268 F1EE10FA 		vmrs	APSR_nzcv, FPSCR
 494 026c 00F30881 		bgt	.L172
 495              	.LVL38:
 496              	.L62:
 497              		.loc 1 437 0
 498 0270 304B     		ldr	r3, .L180+68
 499              		.loc 1 439 0
 500 0272 B5EEC08A 		vcmpe.f32	s16, #0
 501 0276 F1EE10FA 		vmrs	APSR_nzcv, FPSCR
 502              		.loc 1 437 0
 503 027a 83ED008A 		vstr.32	s16, [r3]
 504              		.loc 1 439 0
 505 027e 00F1E881 		bmi	.L173
 506              	.LVL39:
 507              	.LBB130:
 508              		.loc 1 454 0
 509 0282 737F     		ldrb	r3, [r6, #29]	@ zero_extendqisi2
 510 0284 002B     		cmp	r3, #0
 511 0286 40F04081 		bne	.L174
 512              	.LVL40:
 513              	.L79:
ARM GAS  /tmp/ccdeWoOQ.s 			page 10


 514              		.loc 1 489 0
 515 028a 224B     		ldr	r3, .L180+36
 516 028c 1B78     		ldrb	r3, [r3]	@ zero_extendqisi2
 517 028e 4BB3     		cbz	r3, .L87
 518              		.loc 1 490 0
 519 0290 B1EE480A 		vneg.f32	s0, s16
 520 0294 FFF7FEFF 		bl	mc_interface_set_current
 521              	.LVL41:
 522 0298 CAE6     		b	.L167
 523              	.LVL42:
 524              	.L155:
 525              	.LBE130:
 526              		.loc 1 281 0
 527 029a F1EE10FA 		vmrs	APSR_nzcv, FPSCR
 528 029e 00F19280 		bmi	.L175
 529              		.loc 1 283 0
 530 02a2 DFED217A 		vldr.32	s15, .L180+56
 531 02a6 B4EEE78A 		vcmpe.f32	s16, s15
 532 02aa F1EE10FA 		vmrs	APSR_nzcv, FPSCR
 533              		.loc 1 284 0
 534 02ae CCBF     		ite	gt
 535 02b0 0420     		movgt	r0, #4
 536              		.loc 1 286 0
 537 02b2 0120     		movle	r0, #1
 538 02b4 FFF7FEFF 		bl	led_external_set_state
 539              	.LVL43:
 540 02b8 5AE7     		b	.L23
 541              	.LVL44:
 542              	.L17:
 543              		.loc 1 259 0
 544 02ba 164A     		ldr	r2, .L180+36
 545 02bc 0023     		movs	r3, #0
 546 02be 1370     		strb	r3, [r2]
 547 02c0 0EE7     		b	.L18
 548              	.L15:
 549              		.loc 1 249 0
 550 02c2 99F81530 		ldrb	r3, [r9, #21]	@ zero_extendqisi2
 551 02c6 002B     		cmp	r3, #0
 552 02c8 3FF403AF 		beq	.L13
 553              		.loc 1 249 0 is_stmt 0 discriminator 1
 554 02cc 124B     		ldr	r3, .L180+40
 555 02ce 1B78     		ldrb	r3, [r3]	@ zero_extendqisi2
 556 02d0 002B     		cmp	r3, #0
 557 02d2 7FF4FEAE 		bne	.L13
 558              		.loc 1 250 0 is_stmt 1
 559 02d6 0F49     		ldr	r1, .L180+36
 560 02d8 0A78     		ldrb	r2, [r1]	@ zero_extendqisi2
 561 02da 002A     		cmp	r2, #0
 562 02dc 00F0F981 		beq	.L16
 563              		.loc 1 251 0
 564 02e0 0B70     		strb	r3, [r1]
 565 02e2 F6E6     		b	.L13
 566              	.LVL45:
 567              	.L87:
 568              	.LBB131:
 569              		.loc 1 492 0
 570 02e4 B0EE480A 		vmov.f32	s0, s16
ARM GAS  /tmp/ccdeWoOQ.s 			page 11


 571 02e8 FFF7FEFF 		bl	mc_interface_set_current
 572              	.LVL46:
 573 02ec A0E6     		b	.L167
 574              	.L181:
 575 02ee 00BF     		.align	2
 576              	.L180:
 577 02f0 00000000 		.word	.LC5
 578 02f4 00000000 		.word	.LANCHOR1
 579 02f8 00000000 		.word	.LANCHOR2
 580 02fc 00000000 		.word	.LANCHOR3
 581 0300 CDCC4C3E 		.word	1045220557
 582 0304 00000043 		.word	1124073472
 583 0308 00401C46 		.word	1176256512
 584 030c CDCCCC3D 		.word	1036831949
 585 0310 00000000 		.word	.LANCHOR4
 586 0314 00000000 		.word	.LANCHOR6
 587 0318 00000000 		.word	.LANCHOR7
 588 031c 0000003C 		.word	1006632960
 589 0320 6F1283BA 		.word	3129152111
 590 0324 CDCCCCBE 		.word	3201092813
 591 0328 CDCCCC3E 		.word	1053609165
 592 032c 00000000 		.word	.LANCHOR8
 593 0330 00000000 		.word	0
 594 0334 00000000 		.word	.LANCHOR9
 595 0338 6F12833A 		.word	981668463
 596 033c 0AD7233C 		.word	1008981770
 597 0340 00000000 		.word	ch
 598 0344 00000000 		.word	.LANCHOR5
 599              	.LVL47:
 600              	.L171:
 601              	.LBE131:
 602              	.LBB132:
 603              		.loc 1 372 0
 604 0348 0025     		movs	r5, #0
 605              	.LVL48:
 606              	.L56:
 607              	.LBB133:
 608              		.loc 1 373 0
 609 034a 2846     		mov	r0, r5
 610 034c FFF7FEFF 		bl	comm_can_get_status_msg_index
 611              	.LVL49:
 612              		.loc 1 375 0
 613 0350 0368     		ldr	r3, [r0]
 614 0352 002B     		cmp	r3, #0
 615              	.LBE133:
 616              		.loc 1 372 0
 617 0354 05F10105 		add	r5, r5, #1
 618              	.LVL50:
 619              	.LBB140:
 620              		.loc 1 375 0
 621 0358 32DB     		blt	.L50
 622              	.LBB134:
 623              	.LBB135:
 624              	.LBB136:
 625              	.LBB137:
 626              		.loc 3 231 0 discriminator 1
 627 035a D8F82830 		ldr	r3, [r8, #40]
ARM GAS  /tmp/ccdeWoOQ.s 			page 12


 628              	.LVL51:
 629              	.LBE137:
 630              	.LBE136:
 631              		.loc 3 267 0 discriminator 1
 632 035e 4268     		ldr	r2, [r0, #4]
 633 0360 9B1A     		subs	r3, r3, r2
 634              	.LBE135:
 635              	.LBE134:
 636              		.loc 1 375 0 discriminator 1
 637 0362 07EE903A 		vmov	s15, r3	@ int
 638 0366 F8EE677A 		vcvt.f32.u32	s15, s15
 639              	.LBB138:
 640              		.loc 1 391 0 discriminator 1
 641 036a F0EECB6A 		vabs.f32	s13, s22
 642              	.LBE138:
 643              		.loc 1 375 0 discriminator 1
 644 036e 87EEA97A 		vdiv.f32	s14, s15, s19
 645 0372 B4EEC97A 		vcmpe.f32	s14, s18
 646 0376 F1EE10FA 		vmrs	APSR_nzcv, FPSCR
 647 037a 21D5     		bpl	.L50
 648              	.LBB139:
 649              		.loc 1 377 0
 650 037c D74B     		ldr	r3, .L182
 651              		.loc 1 376 0
 652 037e D0ED027A 		vldr.32	s15, [r0, #8]
 653              	.LVL52:
 654              		.loc 1 377 0
 655 0382 1B78     		ldrb	r3, [r3]	@ zero_extendqisi2
 656 0384 0BB1     		cbz	r3, .L52
 657              		.loc 1 378 0
 658 0386 F1EE677A 		vneg.f32	s15, s15
 659              	.LVL53:
 660              	.L52:
 661              		.loc 1 387 0
 662 038a 90ED046A 		vldr.32	s12, [r0, #16]
 663              		.loc 1 386 0
 664 038e 90ED037A 		vldr.32	s14, [r0, #12]
 665              		.loc 1 382 0
 666 0392 F4EE6C7A 		vcmp.f32	s15, s25
 667 0396 F1EE10FA 		vmrs	APSR_nzcv, FPSCR
 668              		.loc 1 387 0
 669 039a B5EEC06A 		vcmpe.f32	s12, #0
 670              		.loc 1 382 0
 671 039e 48BF     		it	mi
 672 03a0 F0EE67CA 		vmovmi.f32	s25, s15
 673              	.LVL54:
 674              		.loc 1 387 0
 675 03a4 F1EE10FA 		vmrs	APSR_nzcv, FPSCR
 676              		.loc 1 388 0
 677 03a8 48BF     		it	mi
 678 03aa B1EE477A 		vnegmi.f32	s14, s14
 679              	.LVL55:
 680              		.loc 1 391 0
 681 03ae F0EEC77A 		vabs.f32	s15, s14
 682              	.LVL56:
 683              		.loc 1 392 0
 684 03b2 F4EE667A 		vcmp.f32	s15, s13
ARM GAS  /tmp/ccdeWoOQ.s 			page 13


 685 03b6 F1EE10FA 		vmrs	APSR_nzcv, FPSCR
 686 03ba C8BF     		it	gt
 687 03bc B0EE47BA 		vmovgt.f32	s22, s14
 688              	.LVL57:
 689              	.L50:
 690              	.LBE139:
 691              	.LBE140:
 692              		.loc 1 372 0 discriminator 2
 693 03c0 0A2D     		cmp	r5, #10
 694 03c2 C2D1     		bne	.L56
 695 03c4 23E7     		b	.L49
 696              	.LVL58:
 697              	.L175:
 698              	.LBE132:
 699              		.loc 1 282 0
 700 03c6 0320     		movs	r0, #3
 701 03c8 FFF7FEFF 		bl	led_external_set_state
 702              	.LVL59:
 703 03cc D0E6     		b	.L23
 704              	.L31:
 705 03ce D2ED007A 		vldr.32	s15, [r2]
 706              	.LBB141:
 707              		.loc 1 308 0
 708 03d2 F5EEC07A 		vcmpe.f32	s15, #0
 709              		.loc 1 307 0
 710 03d6 002B     		cmp	r3, #0
 711 03d8 00F0F680 		beq	.L36
 712              		.loc 1 312 0
 713 03dc 96ED047A 		vldr.32	s14, [r6, #16]
 714 03e0 DDED036A 		vldr.32	s13, [sp, #12]
 715 03e4 DFEDBE5A 		vldr.32	s11, .L182+4
 716              		.loc 1 314 0
 717 03e8 96ED046A 		vldr.32	s12, [r6, #16]
 718              		.loc 1 312 0
 719 03ec BD4B     		ldr	r3, .L182+8
 720              		.loc 1 308 0
 721 03ee F1EE10FA 		vmrs	APSR_nzcv, FPSCR
 722 03f2 C8BF     		it	gt
 723 03f4 DFEDBC7A 		vldrgt.32	s15, .L182+12
 724              		.loc 1 312 0
 725 03f8 26EEC77A 		vnmul.f32	s14, s13, s14
 726              		.loc 1 314 0
 727 03fc 70EE466A 		vsub.f32	s13, s0, s12
 728              		.loc 1 312 0
 729 0400 E7EE257A 		vfma.f32	s15, s14, s11
 730              		.loc 1 314 0
 731 0404 F4EEE67A 		vcmpe.f32	s15, s13
 732 0408 F1EE10FA 		vmrs	APSR_nzcv, FPSCR
 733              		.loc 1 312 0
 734 040c C3ED007A 		vstr.32	s15, [r3]
 735              		.loc 1 314 0
 736 0410 40F1D780 		bpl	.L161
 737              		.loc 1 315 0
 738 0414 D6ED047A 		vldr.32	s15, [r6, #16]
 739 0418 30EE670A 		vsub.f32	s0, s0, s15
 740 041c 83ED000A 		vstr.32	s0, [r3]
 741              	.LVL60:
ARM GAS  /tmp/ccdeWoOQ.s 			page 14


 742              		.loc 1 330 0
 743 0420 FFF7FEFF 		bl	mc_interface_set_pid_speed
 744              	.LVL61:
 745              		.loc 1 333 0
 746 0424 737F     		ldrb	r3, [r6, #29]	@ zero_extendqisi2
 747 0426 002B     		cmp	r3, #0
 748 0428 3FF4CEAE 		beq	.L41
 749              	.L170:
 750              	.LBB121:
 751              		.loc 1 334 0
 752 042c FFF7FEFF 		bl	mc_interface_get_tot_current_directional_filtered
 753              	.LVL62:
 754              	.LBB122:
 755              		.loc 1 336 0
 756 0430 0025     		movs	r5, #0
 757              	.LBE122:
 758              		.loc 1 334 0
 759 0432 B0EE408A 		vmov.f32	s16, s0
 760              	.LVL63:
 761 0436 02E0     		b	.L44
 762              	.LVL64:
 763              	.L42:
 764              	.LBB129:
 765              		.loc 1 336 0 discriminator 2
 766 0438 0A2D     		cmp	r5, #10
 767 043a 3FF4C5AE 		beq	.L41
 768              	.LVL65:
 769              	.L44:
 770              	.LBB123:
 771              		.loc 1 337 0
 772 043e 2846     		mov	r0, r5
 773 0440 FFF7FEFF 		bl	comm_can_get_status_msg_index
 774              	.LVL66:
 775              		.loc 1 339 0
 776 0444 0268     		ldr	r2, [r0]
 777 0446 002A     		cmp	r2, #0
 778              	.LBE123:
 779              		.loc 1 336 0
 780 0448 05F10105 		add	r5, r5, #1
 781              	.LVL67:
 782              	.LBB128:
 783              		.loc 1 339 0
 784 044c F4DB     		blt	.L42
 785              	.LBB124:
 786              	.LBB125:
 787              		.loc 3 267 0 discriminator 1
 788 044e 4168     		ldr	r1, [r0, #4]
 789              	.LBB126:
 790              	.LBB127:
 791              		.loc 3 231 0 discriminator 1
 792 0450 D8F82830 		ldr	r3, [r8, #40]
 793              	.LVL68:
 794              	.LBE127:
 795              	.LBE126:
 796              		.loc 3 267 0 discriminator 1
 797 0454 5B1A     		subs	r3, r3, r1
 798              	.LBE125:
ARM GAS  /tmp/ccdeWoOQ.s 			page 15


 799              	.LBE124:
 800              		.loc 1 339 0 discriminator 1
 801 0456 07EE903A 		vmov	s15, r3	@ int
 802 045a F8EE677A 		vcvt.f32.u32	s15, s15
 803 045e 87EEA97A 		vdiv.f32	s14, s15, s19
 804 0462 B4EEC97A 		vcmpe.f32	s14, s18
 805 0466 F1EE10FA 		vmrs	APSR_nzcv, FPSCR
 806 046a E5D5     		bpl	.L42
 807              		.loc 1 340 0
 808 046c D0B2     		uxtb	r0, r2
 809              	.LVL69:
 810 046e B0EE480A 		vmov.f32	s0, s16
 811 0472 FFF7FEFF 		bl	comm_can_set_current
 812              	.LVL70:
 813 0476 DFE7     		b	.L42
 814              	.LVL71:
 815              	.L169:
 816              	.LBE128:
 817              	.LBE129:
 818              	.LBE121:
 819              	.LBE141:
 820              		.loc 1 274 0
 821 0478 0520     		movs	r0, #5
 822 047a FFF7FEFF 		bl	led_external_set_state
 823              	.LVL72:
 824 047e 77E6     		b	.L23
 825              	.LVL73:
 826              	.L172:
 827              		.loc 1 399 0
 828 0480 6CEE2BBA 		vmul.f32	s23, s24, s23
 829              	.LVL74:
 830              		.loc 1 400 0
 831 0484 B0EECEEA 		vabs.f32	s28, s28
 832              		.loc 1 399 0
 833 0488 EEEE2EBA 		vfma.f32	s23, s28, s29
 834              	.LBB142:
 835              		.loc 1 412 0
 836 048c 04A8     		add	r0, sp, #16
 837              		.loc 1 408 0
 838 048e 9FED977A 		vldr.32	s14, .L182+16
 839              		.loc 1 410 0
 840 0492 CDED04DA 		vstr.32	s27, [sp, #16]
 841              		.loc 1 408 0
 842 0496 F1EE047A 		vmov.f32	s15, #5.0e+0
 843 049a 20EE077A 		vmul.f32	s14, s0, s14
 844 049e 6BEEA77A 		vmul.f32	s15, s23, s15
 845              		.loc 1 412 0
 846 04a2 B0EE480A 		vmov.f32	s0, s16
 847              	.LVL75:
 848              		.loc 1 408 0
 849 04a6 C7EE87BA 		vdiv.f32	s23, s15, s14
 850              	.LVL76:
 851              		.loc 1 412 0
 852 04aa F0EE6B0A 		vmov.f32	s1, s23
 853 04ae FFF7FEFF 		bl	utils_step_towards
 854              	.LVL77:
 855              		.loc 1 418 0
ARM GAS  /tmp/ccdeWoOQ.s 			page 16


 856 04b2 8A4B     		ldr	r3, .L182
 857              		.loc 1 413 0
 858 04b4 9DED048A 		vldr.32	s16, [sp, #16]
 859              	.LVL78:
 860              		.loc 1 418 0
 861 04b8 1B78     		ldrb	r3, [r3]	@ zero_extendqisi2
 862              		.loc 1 417 0
 863 04ba 8DED058A 		vstr.32	s16, [sp, #20]
 864              		.loc 1 418 0
 865 04be 002B     		cmp	r3, #0
 866 04c0 00F0A480 		beq	.L64
 867              		.loc 1 419 0
 868 04c4 78EE0B7A 		vadd.f32	s15, s16, s22
 869 04c8 F0EEE77A 		vabs.f32	s15, s15
 870 04cc F4EEE87A 		vcmpe.f32	s15, s17
 871 04d0 F1EE10FA 		vmrs	APSR_nzcv, FPSCR
 872 04d4 00F30E81 		bgt	.L176
 873              	.L65:
 874              	.LVL79:
 875              		.loc 1 430 0
 876 04d8 F4EEC8DA 		vcmpe.f32	s27, s16
 877 04dc F1EE10FA 		vmrs	APSR_nzcv, FPSCR
 878 04e0 3FF7C6AE 		bgt	.L62
 879              	.LVL80:
 880              	.L69:
 881              		.loc 1 430 0 is_stmt 0 discriminator 3
 882 04e4 DDED037A 		vldr.32	s15, [sp, #12]
 883 04e8 9FED817A 		vldr.32	s14, .L182+20
 884 04ec F0EEE77A 		vabs.f32	s15, s15
 885 04f0 F4EEC77A 		vcmpe.f32	s15, s14
 886 04f4 F1EE10FA 		vmrs	APSR_nzcv, FPSCR
 887 04f8 D8BF     		it	le
 888 04fa 9DED048A 		vldrle.32	s16, [sp, #16]
 889              	.LVL81:
 890 04fe B7E6     		b	.L62
 891              	.LVL82:
 892              	.L32:
 893              	.LBE142:
 894              	.LBB143:
 895              		.loc 1 296 0 is_stmt 1 discriminator 4
 896 0500 F1EE10FA 		vmrs	APSR_nzcv, FPSCR
 897 0504 3FF54BAE 		bmi	.L33
 898 0508 58E6     		b	.L34
 899              	.LVL83:
 900              	.L174:
 901              	.LBE143:
 902              	.LBB144:
 903              		.loc 1 451 0
 904 050a F0EE488A 		vmov.f32	s17, s16
 905              	.LVL84:
 906              	.LBB109:
 907              	.LBB105:
 908              	.LBB99:
 909              		.loc 1 466 0
 910 050e 9FED76BA 		vldr.32	s22, .L182+12
 911              	.LVL85:
 912              	.LBE99:
ARM GAS  /tmp/ccdeWoOQ.s 			page 17


 913              	.LBE105:
 914              		.loc 1 455 0
 915 0512 0025     		movs	r5, #0
 916 0514 06E0     		b	.L86
 917              	.LVL86:
 918              	.L178:
 919              	.LBB106:
 920              		.loc 1 473 0
 921 0516 B1EE680A 		vneg.f32	s0, s17
 922 051a FFF7FEFF 		bl	comm_can_set_current
 923              	.LVL87:
 924              	.L80:
 925              	.LBE106:
 926              		.loc 1 455 0 discriminator 2
 927 051e 0135     		adds	r5, r5, #1
 928              	.LVL88:
 929 0520 0A2D     		cmp	r5, #10
 930 0522 43D0     		beq	.L177
 931              	.LVL89:
 932              	.L86:
 933              	.LBB107:
 934              		.loc 1 456 0
 935 0524 2846     		mov	r0, r5
 936 0526 FFF7FEFF 		bl	comm_can_get_status_msg_index
 937              	.LVL90:
 938              		.loc 1 458 0
 939 052a 0368     		ldr	r3, [r0]
 940 052c 002B     		cmp	r3, #0
 941 052e F6DB     		blt	.L80
 942              	.LVL91:
 943              	.LBB100:
 944              	.LBB101:
 945              	.LBB102:
 946              	.LBB103:
 947              		.loc 3 231 0 discriminator 1
 948 0530 D8F82810 		ldr	r1, [r8, #40]
 949              	.LVL92:
 950              	.LBE103:
 951              	.LBE102:
 952              		.loc 3 267 0 discriminator 1
 953 0534 4268     		ldr	r2, [r0, #4]
 954 0536 8A1A     		subs	r2, r1, r2
 955              	.LBE101:
 956              	.LBE100:
 957              		.loc 1 458 0 discriminator 1
 958 0538 07EE902A 		vmov	s15, r2	@ int
 959 053c F8EE677A 		vcvt.f32.u32	s15, s15
 960 0540 87EEA97A 		vdiv.f32	s14, s15, s19
 961 0544 B4EEC97A 		vcmpe.f32	s14, s18
 962 0548 F1EE10FA 		vmrs	APSR_nzcv, FPSCR
 963 054c E7D5     		bpl	.L80
 964 054e 634A     		ldr	r2, .L182
 965              		.loc 1 459 0
 966 0550 B17F     		ldrb	r1, [r6, #30]	@ zero_extendqisi2
 967 0552 1278     		ldrb	r2, [r2]	@ zero_extendqisi2
 968 0554 01B3     		cbz	r1, .L82
 969              	.LBB104:
ARM GAS  /tmp/ccdeWoOQ.s 			page 18


 970              		.loc 1 460 0
 971 0556 90ED020A 		vldr.32	s0, [r0, #8]
 972              	.LVL93:
 973              		.loc 1 461 0
 974 055a 0AB1     		cbz	r2, .L83
 975              		.loc 1 462 0
 976 055c B1EE400A 		vneg.f32	s0, s0
 977              	.LVL94:
 978              	.L83:
 979              		.loc 1 466 0
 980 0560 96ED081A 		vldr.32	s2, [r6, #32]
 981 0564 DFED600A 		vldr.32	s1, .L182+12
 982 0568 0190     		str	r0, [sp, #4]
 983 056a 30EE6C0A 		vsub.f32	s0, s0, s25
 984              	.LVL95:
 985 056e B0EE4B2A 		vmov.f32	s4, s22
 986 0572 F0EE481A 		vmov.f32	s3, s16
 987 0576 FFF7FEFF 		bl	utils_map
 988              	.LVL96:
 989              		.loc 1 467 0
 990 057a DAED5F7A 		vldr.32	s15, [r10, #380]
 991 057e 0198     		ldr	r0, [sp, #4]
 992 0580 564A     		ldr	r2, .L182
 993 0582 0368     		ldr	r3, [r0]
 994 0584 1278     		ldrb	r2, [r2]	@ zero_extendqisi2
 995 0586 F4EEC07A 		vcmpe.f32	s15, s0
 996 058a F1EE10FA 		vmrs	APSR_nzcv, FPSCR
 997              		.loc 1 466 0
 998 058e F0EE408A 		vmov.f32	s17, s0
 999              	.LVL97:
 1000              		.loc 1 468 0
 1001 0592 C8BF     		it	gt
 1002 0594 F0EE4B8A 		vmovgt.f32	s17, s22
 1003              	.LVL98:
 1004              	.L82:
 1005 0598 D8B2     		uxtb	r0, r3
 1006              	.LBE104:
 1007              		.loc 1 472 0
 1008 059a 002A     		cmp	r2, #0
 1009 059c BBD1     		bne	.L178
 1010              		.loc 1 475 0
 1011 059e B0EE680A 		vmov.f32	s0, s17
 1012              	.LBE107:
 1013              		.loc 1 455 0
 1014 05a2 0135     		adds	r5, r5, #1
 1015              	.LVL99:
 1016              	.LBB108:
 1017              		.loc 1 475 0
 1018 05a4 FFF7FEFF 		bl	comm_can_set_current
 1019              	.LVL100:
 1020              	.LBE108:
 1021              		.loc 1 455 0
 1022 05a8 0A2D     		cmp	r5, #10
 1023 05aa BBD1     		bne	.L86
 1024              	.L177:
 1025              	.LBE109:
 1026              		.loc 1 480 0
ARM GAS  /tmp/ccdeWoOQ.s 			page 19


 1027 05ac B37F     		ldrb	r3, [r6, #30]	@ zero_extendqisi2
 1028 05ae 002B     		cmp	r3, #0
 1029 05b0 75D1     		bne	.L179
 1030              	.LBB110:
 1031 05b2 B0EE688A 		vmov.f32	s16, s17
 1032              	.LVL101:
 1033 05b6 68E6     		b	.L79
 1034              	.LVL102:
 1035              	.L168:
 1036              	.LBE110:
 1037              	.LBE144:
 1038              		.loc 1 241 0
 1039 05b8 0720     		movs	r0, #7
 1040              		.loc 1 242 0
 1041 05ba 5D46     		mov	r5, fp
 1042              	.LVL103:
 1043              		.loc 1 241 0
 1044 05bc FFF7FEFF 		bl	led_external_set_state
 1045              	.LVL104:
 1046              		.loc 1 243 0
 1047 05c0 37E5     		b	.L9
 1048              	.LVL105:
 1049              	.L161:
 1050              	.LBB145:
 1051 05c2 B0EE670A 		vmov.f32	s0, s15
 1052 05c6 F9E5     		b	.L34
 1053              	.L36:
 1054              		.loc 1 322 0
 1055 05c8 D6ED046A 		vldr.32	s13, [r6, #16]
 1056 05cc 9DED037A 		vldr.32	s14, [sp, #12]
 1057 05d0 DFED435A 		vldr.32	s11, .L182+4
 1058              		.loc 1 324 0
 1059 05d4 96ED046A 		vldr.32	s12, [r6, #16]
 1060              		.loc 1 322 0
 1061 05d8 424B     		ldr	r3, .L182+8
 1062              		.loc 1 318 0
 1063 05da F1EE10FA 		vmrs	APSR_nzcv, FPSCR
 1064 05de 48BF     		it	mi
 1065 05e0 DFED417A 		vldrmi.32	s15, .L182+12
 1066              		.loc 1 322 0
 1067 05e4 26EE877A 		vmul.f32	s14, s13, s14
 1068              		.loc 1 324 0
 1069 05e8 76EE006A 		vadd.f32	s13, s12, s0
 1070              		.loc 1 322 0
 1071 05ec E7EE257A 		vfma.f32	s15, s14, s11
 1072              		.loc 1 324 0
 1073 05f0 F4EEE67A 		vcmpe.f32	s15, s13
 1074 05f4 F1EE10FA 		vmrs	APSR_nzcv, FPSCR
 1075              		.loc 1 322 0
 1076 05f8 C3ED007A 		vstr.32	s15, [r3]
 1077              		.loc 1 324 0
 1078 05fc E1DD     		ble	.L161
 1079              		.loc 1 325 0
 1080 05fe D6ED047A 		vldr.32	s15, [r6, #16]
 1081 0602 30EE270A 		vadd.f32	s0, s0, s15
 1082 0606 83ED000A 		vstr.32	s0, [r3]
 1083 060a D7E5     		b	.L34
ARM GAS  /tmp/ccdeWoOQ.s 			page 20


 1084              	.LVL106:
 1085              	.L64:
 1086              	.LBE145:
 1087              	.LBB146:
 1088              		.loc 1 423 0
 1089 060c 78EE4B7A 		vsub.f32	s15, s16, s22
 1090 0610 F0EEE77A 		vabs.f32	s15, s15
 1091 0614 F4EEE87A 		vcmpe.f32	s15, s17
 1092 0618 F1EE10FA 		vmrs	APSR_nzcv, FPSCR
 1093 061c 7FF75CAF 		ble	.L65
 1094              		.loc 1 424 0
 1095 0620 7BEEAB0A 		vadd.f32	s1, s23, s23
 1096 0624 B0EE4B0A 		vmov.f32	s0, s22
 1097 0628 05A8     		add	r0, sp, #20
 1098 062a FFF7FEFF 		bl	utils_step_towards
 1099              	.LVL107:
 1100              	.L67:
 1101              		.loc 1 430 0
 1102 062e F4EEC8DA 		vcmpe.f32	s27, s16
 1103 0632 F1EE10FA 		vmrs	APSR_nzcv, FPSCR
 1104              		.loc 1 429 0
 1105 0636 DDED057A 		vldr.32	s15, [sp, #20]
 1106              	.LVL108:
 1107              		.loc 1 430 0
 1108 063a 07DD     		ble	.L164
 1109              		.loc 1 429 0 discriminator 2
 1110 063c 9DED048A 		vldr.32	s16, [sp, #16]
 1111              	.LVL109:
 1112              		.loc 1 430 0 discriminator 2
 1113 0640 F4EEC87A 		vcmpe.f32	s15, s16
 1114 0644 F1EE10FA 		vmrs	APSR_nzcv, FPSCR
 1115 0648 7FF512AE 		bpl	.L62
 1116              	.L164:
 1117              		.loc 1 429 0
 1118 064c B0EE678A 		vmov.f32	s16, s15
 1119 0650 48E7     		b	.L69
 1120              	.LVL110:
 1121              	.L173:
 1122              	.LBE146:
 1123              		.loc 1 440 0
 1124 0652 B0EE480A 		vmov.f32	s0, s16
 1125 0656 FFF7FEFF 		bl	mc_interface_set_brake_current
 1126              	.LVL111:
 1127              	.LBB147:
 1128              		.loc 1 443 0
 1129 065a 0025     		movs	r5, #0
 1130 065c 02E0     		b	.L77
 1131              	.LVL112:
 1132              	.L75:
 1133              		.loc 1 443 0 is_stmt 0 discriminator 2
 1134 065e 0A2D     		cmp	r5, #10
 1135 0660 3FF4E6AC 		beq	.L167
 1136              	.LVL113:
 1137              	.L77:
 1138              	.LBB148:
 1139              		.loc 1 444 0 is_stmt 1
 1140 0664 2846     		mov	r0, r5
ARM GAS  /tmp/ccdeWoOQ.s 			page 21


 1141 0666 FFF7FEFF 		bl	comm_can_get_status_msg_index
 1142              	.LVL114:
 1143              		.loc 1 446 0
 1144 066a 0268     		ldr	r2, [r0]
 1145 066c 002A     		cmp	r2, #0
 1146              	.LBE148:
 1147              		.loc 1 443 0
 1148 066e 05F10105 		add	r5, r5, #1
 1149              	.LVL115:
 1150              	.LBB153:
 1151              		.loc 1 446 0
 1152 0672 F4DB     		blt	.L75
 1153              	.LBB149:
 1154              	.LBB150:
 1155              		.loc 3 267 0 discriminator 1
 1156 0674 4168     		ldr	r1, [r0, #4]
 1157              	.LBB151:
 1158              	.LBB152:
 1159              		.loc 3 231 0 discriminator 1
 1160 0676 D8F82830 		ldr	r3, [r8, #40]
 1161              	.LVL116:
 1162              	.LBE152:
 1163              	.LBE151:
 1164              		.loc 3 267 0 discriminator 1
 1165 067a 5B1A     		subs	r3, r3, r1
 1166              	.LBE150:
 1167              	.LBE149:
 1168              		.loc 1 446 0 discriminator 1
 1169 067c 07EE903A 		vmov	s15, r3	@ int
 1170 0680 F8EE677A 		vcvt.f32.u32	s15, s15
 1171 0684 87EEA97A 		vdiv.f32	s14, s15, s19
 1172 0688 B4EEC97A 		vcmpe.f32	s14, s18
 1173 068c F1EE10FA 		vmrs	APSR_nzcv, FPSCR
 1174 0690 E5D5     		bpl	.L75
 1175              		.loc 1 447 0
 1176 0692 D0B2     		uxtb	r0, r2
 1177              	.LVL117:
 1178 0694 B0EE480A 		vmov.f32	s0, s16
 1179 0698 FFF7FEFF 		bl	comm_can_set_current_brake
 1180              	.LVL118:
 1181 069c DFE7     		b	.L75
 1182              	.LVL119:
 1183              	.L179:
 1184              	.LBE153:
 1185              	.LBE147:
 1186              	.LBB154:
 1187              	.LBB111:
 1188              		.loc 1 482 0
 1189 069e 9FED122A 		vldr.32	s4, .L182+12
 1190 06a2 96ED081A 		vldr.32	s2, [r6, #32]
 1191 06a6 F0EE481A 		vmov.f32	s3, s16
 1192 06aa 3DEE6C0A 		vsub.f32	s0, s26, s25
 1193              	.LVL120:
 1194 06ae F0EE420A 		vmov.f32	s1, s4
 1195 06b2 FFF7FEFF 		bl	utils_map
 1196              	.LVL121:
 1197              		.loc 1 483 0
ARM GAS  /tmp/ccdeWoOQ.s 			page 22


 1198 06b6 9AED5F7A 		vldr.32	s14, [r10, #380]
 1199              		.loc 1 484 0
 1200 06ba DFED0B7A 		vldr.32	s15, .L182+12
 1201 06be B4EE407A 		vcmp.f32	s14, s0
 1202              		.loc 1 482 0
 1203 06c2 B0EE408A 		vmov.f32	s16, s0
 1204              	.LVL122:
 1205              		.loc 1 484 0
 1206 06c6 F1EE10FA 		vmrs	APSR_nzcv, FPSCR
 1207 06ca C8BF     		it	gt
 1208 06cc B0EE678A 		vmovgt.f32	s16, s15
 1209 06d0 DBE5     		b	.L79
 1210              	.LVL123:
 1211              	.L16:
 1212              	.LBE111:
 1213              	.LBE154:
 1214              		.loc 1 253 0
 1215 06d2 024A     		ldr	r2, .L182
 1216 06d4 0123     		movs	r3, #1
 1217 06d6 1370     		strb	r3, [r2]
 1218 06d8 FBE4     		b	.L13
 1219              	.L183:
 1220 06da 00BF     		.align	2
 1221              	.L182:
 1222 06dc 00000000 		.word	.LANCHOR6
 1223 06e0 0AD7A33B 		.word	1000593162
 1224 06e4 00000000 		.word	.LANCHOR8
 1225 06e8 00000000 		.word	0
 1226 06ec 00007A44 		.word	1148846080
 1227 06f0 6F12833A 		.word	981668463
 1228              	.LVL124:
 1229              	.L176:
 1230              	.LBB155:
 1231              		.loc 1 420 0
 1232 06f4 7BEEAB0A 		vadd.f32	s1, s23, s23
 1233 06f8 B1EE4B0A 		vneg.f32	s0, s22
 1234 06fc 05A8     		add	r0, sp, #20
 1235 06fe FFF7FEFF 		bl	utils_step_towards
 1236              	.LVL125:
 1237 0702 94E7     		b	.L67
 1238              	.LBE155:
 1239              	.LBE157:
 1240              		.cfi_endproc
 1241              	.LFE262:
 1242              		.size	output_thread, .-output_thread
 1243              		.section	.text.app_nunchuk_configure,"ax",%progbits
 1244              		.align	1
 1245              		.p2align 4,,15
 1246              		.global	app_nunchuk_configure
 1247              		.syntax unified
 1248              		.thumb
 1249              		.thumb_func
 1250              		.fpu fpv4-sp-d16
 1251              		.type	app_nunchuk_configure, %function
 1252              	app_nunchuk_configure:
 1253              	.LFB256:
 1254              		.loc 1 59 0
ARM GAS  /tmp/ccdeWoOQ.s 			page 23


 1255              		.cfi_startproc
 1256              		@ args = 0, pretend = 0, frame = 0
 1257              		@ frame_needed = 0, uses_anonymous_args = 0
 1258              		@ link register save eliminated.
 1259              	.LVL126:
 1260 0000 30B4     		push	{r4, r5}
 1261              		.cfi_def_cfa_offset 8
 1262              		.cfi_offset 4, -8
 1263              		.cfi_offset 5, -4
 1264              		.loc 1 60 0
 1265 0002 0546     		mov	r5, r0
 1266 0004 0FCD     		ldmia	r5!, {r0, r1, r2, r3}
 1267              	.LVL127:
 1268 0006 064C     		ldr	r4, .L186
 1269 0008 0FC4     		stmia	r4!, {r0, r1, r2, r3}
 1270 000a 0FCD     		ldmia	r5!, {r0, r1, r2, r3}
 1271              	.LVL128:
 1272 000c 0FC4     		stmia	r4!, {r0, r1, r2, r3}
 1273 000e 2A68     		ldr	r2, [r5]
 1274 0010 2260     		str	r2, [r4]
 1275              		.loc 1 62 0
 1276 0012 044B     		ldr	r3, .L186+4
 1277 0014 0449     		ldr	r1, .L186+8
 1278 0016 0548     		ldr	r0, .L186+12
 1279 0018 0022     		movs	r2, #0
 1280              		.loc 1 67 0
 1281 001a 30BC     		pop	{r4, r5}
 1282              		.cfi_restore 5
 1283              		.cfi_restore 4
 1284              		.cfi_def_cfa_offset 0
 1285              	.LVL129:
 1286              		.loc 1 62 0
 1287 001c FFF7FEBF 		b	terminal_register_command_callback
 1288              	.LVL130:
 1289              	.L187:
 1290              		.align	2
 1291              	.L186:
 1292 0020 00000000 		.word	.LANCHOR3
 1293 0024 00000000 		.word	terminal_cmd_nunchuk_status
 1294 0028 00000000 		.word	.LC6
 1295 002c 24000000 		.word	.LC7
 1296              		.cfi_endproc
 1297              	.LFE256:
 1298              		.size	app_nunchuk_configure, .-app_nunchuk_configure
 1299              		.section	.text.app_nunchuk_start,"ax",%progbits
 1300              		.align	1
 1301              		.p2align 4,,15
 1302              		.global	app_nunchuk_start
 1303              		.syntax unified
 1304              		.thumb
 1305              		.thumb_func
 1306              		.fpu fpv4-sp-d16
 1307              		.type	app_nunchuk_start, %function
 1308              	app_nunchuk_start:
 1309              	.LFB257:
 1310              		.loc 1 69 0
 1311              		.cfi_startproc
ARM GAS  /tmp/ccdeWoOQ.s 			page 24


 1312              		@ args = 0, pretend = 0, frame = 0
 1313              		@ frame_needed = 0, uses_anonymous_args = 0
 1314 0000 10B5     		push	{r4, lr}
 1315              		.cfi_def_cfa_offset 8
 1316              		.cfi_offset 4, -8
 1317              		.cfi_offset 14, -4
 1318              		.loc 1 70 0
 1319 0002 094A     		ldr	r2, .L190
 1320              		.loc 1 71 0
 1321 0004 094B     		ldr	r3, .L190+4
 1322              		.loc 1 69 0
 1323 0006 82B0     		sub	sp, sp, #8
 1324              		.cfi_def_cfa_offset 16
 1325              		.loc 1 70 0
 1326 0008 8021     		movs	r1, #128
 1327              		.loc 1 71 0
 1328 000a 0024     		movs	r4, #0
 1329              		.loc 1 70 0
 1330 000c 5160     		str	r1, [r2, #4]
 1331              		.loc 1 71 0
 1332 000e 1C70     		strb	r4, [r3]
 1333              		.loc 1 72 0
 1334 0010 FFF7FEFF 		bl	hw_start_i2c
 1335              	.LVL131:
 1336              		.loc 1 73 0
 1337 0014 0094     		str	r4, [sp]
 1338 0016 064B     		ldr	r3, .L190+8
 1339 0018 0648     		ldr	r0, .L190+12
 1340 001a 4022     		movs	r2, #64
 1341 001c 4FF4B361 		mov	r1, #1432
 1342 0020 FFF7FEFF 		bl	chThdCreateStatic
 1343              	.LVL132:
 1344              		.loc 1 74 0
 1345 0024 02B0     		add	sp, sp, #8
 1346              		.cfi_def_cfa_offset 8
 1347              		@ sp needed
 1348 0026 10BD     		pop	{r4, pc}
 1349              	.L191:
 1350              		.align	2
 1351              	.L190:
 1352 0028 00000000 		.word	.LANCHOR5
 1353 002c 00000000 		.word	.LANCHOR10
 1354 0030 00000000 		.word	chuk_thread
 1355 0034 00000000 		.word	.LANCHOR11
 1356              		.cfi_endproc
 1357              	.LFE257:
 1358              		.size	app_nunchuk_start, .-app_nunchuk_start
 1359              		.section	.text.app_nunchuk_stop,"ax",%progbits
 1360              		.align	1
 1361              		.p2align 4,,15
 1362              		.global	app_nunchuk_stop
 1363              		.syntax unified
 1364              		.thumb
 1365              		.thumb_func
 1366              		.fpu fpv4-sp-d16
 1367              		.type	app_nunchuk_stop, %function
 1368              	app_nunchuk_stop:
ARM GAS  /tmp/ccdeWoOQ.s 			page 25


 1369              	.LFB258:
 1370              		.loc 1 76 0
 1371              		.cfi_startproc
 1372              		@ args = 0, pretend = 0, frame = 0
 1373              		@ frame_needed = 0, uses_anonymous_args = 0
 1374              		.loc 1 77 0
 1375 0000 084B     		ldr	r3, .L206
 1376              		.loc 1 76 0
 1377 0002 10B5     		push	{r4, lr}
 1378              		.cfi_def_cfa_offset 8
 1379              		.cfi_offset 4, -8
 1380              		.cfi_offset 14, -4
 1381              		.loc 1 77 0
 1382 0004 0122     		movs	r2, #1
 1383              		.loc 1 79 0
 1384 0006 084C     		ldr	r4, .L206+4
 1385              		.loc 1 77 0
 1386 0008 1A70     		strb	r2, [r3]
 1387              		.loc 1 79 0
 1388 000a 2378     		ldrb	r3, [r4]	@ zero_extendqisi2
 1389 000c 1BB1     		cbz	r3, .L204
 1390 000e 06E0     		b	.L205
 1391              	.L195:
 1392              		.loc 1 84 0
 1393 0010 0A20     		movs	r0, #10
 1394 0012 FFF7FEFF 		bl	chThdSleep
 1395              	.LVL133:
 1396              	.L204:
 1397              		.loc 1 83 0
 1398 0016 2378     		ldrb	r3, [r4]	@ zero_extendqisi2
 1399 0018 002B     		cmp	r3, #0
 1400 001a F9D1     		bne	.L195
 1401              		.loc 1 86 0
 1402 001c 10BD     		pop	{r4, pc}
 1403              	.L205:
 1404              		.loc 1 80 0
 1405 001e FFF7FEFF 		bl	hw_stop_i2c
 1406              	.LVL134:
 1407 0022 F8E7     		b	.L204
 1408              	.L207:
 1409              		.align	2
 1410              	.L206:
 1411 0024 00000000 		.word	.LANCHOR10
 1412 0028 00000000 		.word	.LANCHOR12
 1413              		.cfi_endproc
 1414              	.LFE258:
 1415              		.size	app_nunchuk_stop, .-app_nunchuk_stop
 1416              		.section	.text.app_nunchuk_get_decoded_chuk,"ax",%progbits
 1417              		.align	1
 1418              		.p2align 4,,15
 1419              		.global	app_nunchuk_get_decoded_chuk
 1420              		.syntax unified
 1421              		.thumb
 1422              		.thumb_func
 1423              		.fpu fpv4-sp-d16
 1424              		.type	app_nunchuk_get_decoded_chuk, %function
 1425              	app_nunchuk_get_decoded_chuk:
ARM GAS  /tmp/ccdeWoOQ.s 			page 26


 1426              	.LFB259:
 1427              		.loc 1 88 0
 1428              		.cfi_startproc
 1429              		@ args = 0, pretend = 0, frame = 0
 1430              		@ frame_needed = 0, uses_anonymous_args = 0
 1431              		@ link register save eliminated.
 1432              		.loc 1 89 0
 1433 0000 064B     		ldr	r3, .L209
 1434 0002 9FED077A 		vldr.32	s14, .L209+4
 1435 0006 D3ED017A 		vldr.32	s15, [r3, #4]	@ int
 1436 000a 9FED060A 		vldr.32	s0, .L209+8
 1437 000e F8EEE77A 		vcvt.f32.s32	s15, s15
 1438 0012 77EEC77A 		vsub.f32	s15, s15, s14
 1439              		.loc 1 90 0
 1440 0016 27EE800A 		vmul.f32	s0, s15, s0
 1441 001a 7047     		bx	lr
 1442              	.L210:
 1443              		.align	2
 1444              	.L209:
 1445 001c 00000000 		.word	.LANCHOR5
 1446 0020 00000043 		.word	1124073472
 1447 0024 0000003C 		.word	1006632960
 1448              		.cfi_endproc
 1449              	.LFE259:
 1450              		.size	app_nunchuk_get_decoded_chuk, .-app_nunchuk_get_decoded_chuk
 1451              		.section	.text.app_nunchuk_update_output,"ax",%progbits
 1452              		.align	1
 1453              		.p2align 4,,15
 1454              		.global	app_nunchuk_update_output
 1455              		.syntax unified
 1456              		.thumb
 1457              		.thumb_func
 1458              		.fpu fpv4-sp-d16
 1459              		.type	app_nunchuk_update_output, %function
 1460              	app_nunchuk_update_output:
 1461              	.LFB260:
 1462              		.loc 1 92 0
 1463              		.cfi_startproc
 1464              		@ args = 0, pretend = 0, frame = 0
 1465              		@ frame_needed = 0, uses_anonymous_args = 0
 1466              	.LVL135:
 1467 0000 F0B5     		push	{r4, r5, r6, r7, lr}
 1468              		.cfi_def_cfa_offset 20
 1469              		.cfi_offset 4, -20
 1470              		.cfi_offset 5, -16
 1471              		.cfi_offset 6, -12
 1472              		.cfi_offset 7, -8
 1473              		.cfi_offset 14, -4
 1474              		.loc 1 93 0
 1475 0002 164A     		ldr	r2, .L216
 1476 0004 1378     		ldrb	r3, [r2]	@ zero_extendqisi2
 1477              		.loc 1 92 0
 1478 0006 83B0     		sub	sp, sp, #12
 1479              		.cfi_def_cfa_offset 32
 1480              		.loc 1 92 0
 1481 0008 0446     		mov	r4, r0
 1482              		.loc 1 93 0
ARM GAS  /tmp/ccdeWoOQ.s 			page 27


 1483 000a ABB1     		cbz	r3, .L214
 1484 000c 144E     		ldr	r6, .L216+4
 1485              	.LVL136:
 1486              	.L212:
 1487              		.loc 1 100 0
 1488 000e 154D     		ldr	r5, .L216+8
 1489 0010 0FCC     		ldmia	r4!, {r0, r1, r2, r3}
 1490              	.LVL137:
 1491 0012 0FC5     		stmia	r5!, {r0, r1, r2, r3}
 1492 0014 94E80300 		ldm	r4, {r0, r1}
 1493              	.LBB158:
 1494              	.LBB159:
 1495              	.LBB160:
 1496              	.LBB161:
 1497              	.LBB162:
 1498              	.LBB163:
 1499              		.file 4 "ChibiOS_3.0.2/os/ext/CMSIS/include/core_cmFunc.h"
 1500              		.loc 4 546 0
 1501 0018 2023     		movs	r3, #32
 1502              	.LBE163:
 1503              	.LBE162:
 1504              	.LBE161:
 1505              	.LBE160:
 1506              	.LBE159:
 1507              	.LBE158:
 1508              		.loc 1 100 0
 1509 001a 85E80300 		stm	r5, {r0, r1}
 1510              	.LVL138:
 1511              	.LBB183:
 1512              	.LBB182:
 1513              	.LBB167:
 1514              	.LBB166:
 1515              	.LBB165:
 1516              	.LBB164:
 1517              		.loc 4 546 0
 1518              		.syntax unified
 1519              	@ 546 "ChibiOS_3.0.2/os/ext/CMSIS/include/core_cmFunc.h" 1
 1520 001e 83F31188 		MSR basepri, r3
 1521              	@ 0 "" 2
 1522              	.LVL139:
 1523              		.thumb
 1524              		.syntax unified
 1525              	.LBE164:
 1526              	.LBE165:
 1527              	.LBE166:
 1528              	.LBE167:
 1529              	.LBB168:
 1530              	.LBB169:
 1531              		.loc 3 231 0
 1532 0022 114B     		ldr	r3, .L216+12
 1533              	.LBE169:
 1534              	.LBE168:
 1535              	.LBB171:
 1536              	.LBB172:
 1537              	.LBB173:
 1538              	.LBB174:
 1539              	.LBB175:
ARM GAS  /tmp/ccdeWoOQ.s 			page 28


 1540              		.loc 4 546 0
 1541 0024 0022     		movs	r2, #0
 1542              	.LBE175:
 1543              	.LBE174:
 1544              	.LBE173:
 1545              	.LBE172:
 1546              	.LBE171:
 1547              	.LBB180:
 1548              	.LBB170:
 1549              		.loc 3 231 0
 1550 0026 9B6A     		ldr	r3, [r3, #40]
 1551              	.LVL140:
 1552              	.LBE170:
 1553              	.LBE180:
 1554              	.LBB181:
 1555              	.LBB179:
 1556              	.LBB178:
 1557              	.LBB177:
 1558              	.LBB176:
 1559              		.loc 4 546 0
 1560              		.syntax unified
 1561              	@ 546 "ChibiOS_3.0.2/os/ext/CMSIS/include/core_cmFunc.h" 1
 1562 0028 82F31188 		MSR basepri, r2
 1563              	@ 0 "" 2
 1564              	.LVL141:
 1565              		.thumb
 1566              		.syntax unified
 1567              	.LBE176:
 1568              	.LBE177:
 1569              	.LBE178:
 1570              	.LBE179:
 1571              	.LBE181:
 1572              	.LBE182:
 1573              	.LBE183:
 1574              		.loc 1 101 0
 1575 002c 3360     		str	r3, [r6]
 1576              		.loc 1 103 0
 1577 002e 03B0     		add	sp, sp, #12
 1578              		.cfi_remember_state
 1579              		.cfi_def_cfa_offset 20
 1580              		@ sp needed
 1581 0030 BDE8F040 		pop	{r4, r5, r6, r7, lr}
 1582              		.cfi_restore 14
 1583              		.cfi_restore 7
 1584              		.cfi_restore 6
 1585              		.cfi_restore 5
 1586              		.cfi_restore 4
 1587              		.cfi_def_cfa_offset 0
 1588              	.LVL142:
 1589              		.loc 1 102 0
 1590 0034 FFF7FEBF 		b	timeout_reset
 1591              	.LVL143:
 1592              	.L214:
 1593              		.cfi_restore_state
 1594              		.loc 1 94 0
 1595 0038 094E     		ldr	r6, .L216+4
 1596              		.loc 1 96 0
ARM GAS  /tmp/ccdeWoOQ.s 			page 29


 1597 003a 0A48     		ldr	r0, .L216+8
 1598              	.LVL144:
 1599 003c 03F0FF01 		and	r1, r3, #255
 1600              		.loc 1 95 0
 1601 0040 0127     		movs	r7, #1
 1602              		.loc 1 96 0
 1603 0042 8025     		movs	r5, #128
 1604              		.loc 1 97 0
 1605 0044 0091     		str	r1, [sp]
 1606              		.loc 1 94 0
 1607 0046 3160     		str	r1, [r6]
 1608              		.loc 1 97 0
 1609 0048 084B     		ldr	r3, .L216+16
 1610              		.loc 1 95 0
 1611 004a 1770     		strb	r7, [r2]
 1612              		.loc 1 97 0
 1613 004c 4FF4B361 		mov	r1, #1432
 1614              		.loc 1 96 0
 1615 0050 4560     		str	r5, [r0, #4]
 1616              		.loc 1 97 0
 1617 0052 4022     		movs	r2, #64
 1618 0054 0648     		ldr	r0, .L216+20
 1619 0056 FFF7FEFF 		bl	chThdCreateStatic
 1620              	.LVL145:
 1621 005a D8E7     		b	.L212
 1622              	.L217:
 1623              		.align	2
 1624              	.L216:
 1625 005c 00000000 		.word	.LANCHOR0
 1626 0060 00000000 		.word	.LANCHOR4
 1627 0064 00000000 		.word	.LANCHOR5
 1628 0068 00000000 		.word	ch
 1629 006c 00000000 		.word	output_thread
 1630 0070 00000000 		.word	.LANCHOR13
 1631              		.cfi_endproc
 1632              	.LFE260:
 1633              		.size	app_nunchuk_update_output, .-app_nunchuk_update_output
 1634              		.section	.text.chuk_thread,"ax",%progbits
 1635              		.align	1
 1636              		.p2align 4,,15
 1637              		.syntax unified
 1638              		.thumb
 1639              		.thumb_func
 1640              		.fpu fpv4-sp-d16
 1641              		.type	chuk_thread, %function
 1642              	chuk_thread:
 1643              	.LFB261:
 1644              		.loc 1 105 0
 1645              		.cfi_startproc
 1646              		@ args = 0, pretend = 0, frame = 48
 1647              		@ frame_needed = 0, uses_anonymous_args = 0
 1648              	.LVL146:
 1649 0000 2DE9F04F 		push	{r4, r5, r6, r7, r8, r9, r10, fp, lr}
 1650              		.cfi_def_cfa_offset 36
 1651              		.cfi_offset 4, -36
 1652              		.cfi_offset 5, -32
 1653              		.cfi_offset 6, -28
ARM GAS  /tmp/ccdeWoOQ.s 			page 30


 1654              		.cfi_offset 7, -24
 1655              		.cfi_offset 8, -20
 1656              		.cfi_offset 9, -16
 1657              		.cfi_offset 10, -12
 1658              		.cfi_offset 11, -8
 1659              		.cfi_offset 14, -4
 1660              	.LBB184:
 1661              	.LBB185:
 1662              		.loc 2 135 0
 1663 0004 704B     		ldr	r3, .L235
 1664 0006 714A     		ldr	r2, .L235+4
 1665 0008 9B69     		ldr	r3, [r3, #24]
 1666              	.LBE185:
 1667              	.LBE184:
 1668              	.LBB187:
 1669              		.loc 1 124 0
 1670 000a DFF8D4A1 		ldr	r10, .L235+24
 1671              	.LBE187:
 1672              	.LBB192:
 1673              	.LBB186:
 1674              		.loc 2 135 0
 1675 000e 9A61     		str	r2, [r3, #24]
 1676              	.LVL147:
 1677              	.LBE186:
 1678              	.LBE192:
 1679              		.loc 1 109 0
 1680 0010 6F4A     		ldr	r2, .L235+8
 1681 0012 0123     		movs	r3, #1
 1682              		.loc 1 105 0
 1683 0014 91B0     		sub	sp, sp, #68
 1684              		.cfi_def_cfa_offset 104
 1685              		.loc 1 109 0
 1686 0016 1370     		strb	r3, [r2]
 1687              	.LVL148:
 1688              		.loc 1 118 0
 1689 0018 FFF7FEFF 		bl	hw_start_i2c
 1690              	.LVL149:
 1691              		.loc 1 119 0
 1692 001c 6420     		movs	r0, #100
 1693 001e FFF7FEFF 		bl	chThdSleep
 1694              	.LVL150:
 1695              	.LBB193:
 1696              		.loc 1 124 0
 1697 0022 9AF80030 		ldrb	r3, [r10]	@ zero_extendqisi2
 1698 0026 002B     		cmp	r3, #0
 1699 0028 40F0CA80 		bne	.L233
 1700 002c DFF8A8B1 		ldr	fp, .L235+16
 1701 0030 DFF8B091 		ldr	r9, .L235+28
 1702              		.loc 1 132 0
 1703 0034 674C     		ldr	r4, .L235+12
 1704 0036 0BF10606 		add	r6, fp, #6
 1705 003a 04AD     		add	r5, sp, #16
 1706 003c 0FE0     		b	.L219
 1707              	.LVL151:
 1708              	.L220:
 1709              		.loc 1 194 0
 1710 003e 0223     		movs	r3, #2
ARM GAS  /tmp/ccdeWoOQ.s 			page 31


 1711 0040 C9F80030 		str	r3, [r9]
 1712              		.loc 1 195 0
 1713 0044 FFF7FEFF 		bl	hw_try_restore_i2c
 1714              	.LVL152:
 1715              		.loc 1 196 0
 1716 0048 4FF47A70 		mov	r0, #1000
 1717 004c FFF7FEFF 		bl	chThdSleep
 1718              	.LVL153:
 1719              	.L224:
 1720              		.loc 1 199 0
 1721 0050 6420     		movs	r0, #100
 1722 0052 FFF7FEFF 		bl	chThdSleep
 1723              	.LVL154:
 1724              		.loc 1 124 0
 1725 0056 9AF80030 		ldrb	r3, [r10]	@ zero_extendqisi2
 1726 005a 002B     		cmp	r3, #0
 1727 005c 77D1     		bne	.L225
 1728              	.L219:
 1729              		.loc 1 130 0
 1730 005e 45F2F053 		movw	r3, #22000
 1731              		.loc 1 132 0
 1732 0062 2046     		mov	r0, r4
 1733              		.loc 1 130 0
 1734 0064 ADF81C30 		strh	r3, [sp, #28]	@ movhi
 1735              		.loc 1 133 0
 1736 0068 3227     		movs	r7, #50
 1737              		.loc 1 132 0
 1738 006a FFF7FEFF 		bl	i2cAcquireBus
 1739              	.LVL155:
 1740              		.loc 1 133 0
 1741 006e 0023     		movs	r3, #0
 1742 0070 CDE90137 		strd	r3, r7, [sp, #4]
 1743 0074 0095     		str	r5, [sp]
 1744 0076 0223     		movs	r3, #2
 1745 0078 07AA     		add	r2, sp, #28
 1746 007a 5221     		movs	r1, #82
 1747 007c 2046     		mov	r0, r4
 1748 007e FFF7FEFF 		bl	i2cMasterTransmitTimeout
 1749              	.LVL156:
 1750 0082 8046     		mov	r8, r0
 1751              	.LVL157:
 1752              		.loc 1 134 0
 1753 0084 2046     		mov	r0, r4
 1754              	.LVL158:
 1755 0086 FFF7FEFF 		bl	i2cReleaseBus
 1756              	.LVL159:
 1757              		.loc 1 137 0
 1758 008a B8F1000F 		cmp	r8, #0
 1759 008e D6D1     		bne	.L220
 1760              		.loc 1 138 0
 1761 0090 FB23     		movs	r3, #251
 1762              		.loc 1 140 0
 1763 0092 2046     		mov	r0, r4
 1764              		.loc 1 138 0
 1765 0094 ADF81C30 		strh	r3, [sp, #28]	@ movhi
 1766              		.loc 1 140 0
 1767 0098 FFF7FEFF 		bl	i2cAcquireBus
ARM GAS  /tmp/ccdeWoOQ.s 			page 32


 1768              	.LVL160:
 1769              		.loc 1 141 0
 1770 009c CDE90187 		strd	r8, r7, [sp, #4]
 1771 00a0 0095     		str	r5, [sp]
 1772 00a2 0223     		movs	r3, #2
 1773 00a4 07AA     		add	r2, sp, #28
 1774 00a6 5221     		movs	r1, #82
 1775 00a8 2046     		mov	r0, r4
 1776 00aa FFF7FEFF 		bl	i2cMasterTransmitTimeout
 1777              	.LVL161:
 1778 00ae 8046     		mov	r8, r0
 1779              	.LVL162:
 1780              		.loc 1 142 0
 1781 00b0 2046     		mov	r0, r4
 1782              	.LVL163:
 1783 00b2 FFF7FEFF 		bl	i2cReleaseBus
 1784              	.LVL164:
 1785              		.loc 1 146 0
 1786 00b6 B8F1000F 		cmp	r8, #0
 1787 00ba C0D1     		bne	.L220
 1788              		.loc 1 148 0
 1789 00bc 2046     		mov	r0, r4
 1790              		.loc 1 147 0
 1791 00be 8DF81C80 		strb	r8, [sp, #28]
 1792              		.loc 1 148 0
 1793 00c2 FFF7FEFF 		bl	i2cAcquireBus
 1794              	.LVL165:
 1795              		.loc 1 149 0
 1796 00c6 CDE90187 		strd	r8, r7, [sp, #4]
 1797 00ca 0095     		str	r5, [sp]
 1798 00cc 0123     		movs	r3, #1
 1799 00ce 07AA     		add	r2, sp, #28
 1800 00d0 5221     		movs	r1, #82
 1801 00d2 2046     		mov	r0, r4
 1802 00d4 FFF7FEFF 		bl	i2cMasterTransmitTimeout
 1803              	.LVL166:
 1804 00d8 8046     		mov	r8, r0
 1805              	.LVL167:
 1806              		.loc 1 150 0
 1807 00da 2046     		mov	r0, r4
 1808              	.LVL168:
 1809 00dc FFF7FEFF 		bl	i2cReleaseBus
 1810              	.LVL169:
 1811              		.loc 1 154 0
 1812 00e0 B8F1000F 		cmp	r8, #0
 1813 00e4 ABD1     		bne	.L220
 1814              		.loc 1 155 0
 1815 00e6 1E20     		movs	r0, #30
 1816 00e8 FFF7FEFF 		bl	chThdSleep
 1817              	.LVL170:
 1818              		.loc 1 157 0
 1819 00ec 2046     		mov	r0, r4
 1820 00ee FFF7FEFF 		bl	i2cAcquireBus
 1821              	.LVL171:
 1822              		.loc 1 158 0
 1823 00f2 0097     		str	r7, [sp]
 1824 00f4 0623     		movs	r3, #6
ARM GAS  /tmp/ccdeWoOQ.s 			page 33


 1825 00f6 2A46     		mov	r2, r5
 1826 00f8 5221     		movs	r1, #82
 1827 00fa 2046     		mov	r0, r4
 1828 00fc FFF7FEFF 		bl	i2cMasterReceiveTimeout
 1829              	.LVL172:
 1830 0100 0746     		mov	r7, r0
 1831              	.LVL173:
 1832              		.loc 1 159 0
 1833 0102 2046     		mov	r0, r4
 1834              	.LVL174:
 1835 0104 FFF7FEFF 		bl	i2cReleaseBus
 1836              	.LVL175:
 1837              		.loc 1 163 0
 1838 0108 002F     		cmp	r7, #0
 1839 010a 98D1     		bne	.L220
 1840 010c 324B     		ldr	r3, .L235+16
 1841 010e 2946     		mov	r1, r5
 1842              	.LBB188:
 1843              		.loc 1 165 0
 1844 0110 0122     		movs	r2, #1
 1845              	.LVL176:
 1846              	.L222:
 1847              	.LBB189:
 1848              		.loc 1 168 0
 1849 0112 13F8017B 		ldrb	r7, [r3], #1	@ zero_extendqisi2
 1850              	.LVL177:
 1851 0116 11F8010B 		ldrb	r0, [r1], #1	@ zero_extendqisi2
 1852              		.loc 1 169 0
 1853 011a 8742     		cmp	r7, r0
 1854 011c 18BF     		it	ne
 1855 011e 0022     		movne	r2, #0
 1856              	.LVL178:
 1857              		.loc 1 167 0
 1858 0120 9E42     		cmp	r6, r3
 1859 0122 F6D1     		bne	.L222
 1860              	.LBE189:
 1861              		.loc 1 173 0
 1862 0124 95E80300 		ldm	r5, {r0, r1}
 1863 0128 2C4B     		ldr	r3, .L235+20
 1864              	.LVL179:
 1865 012a CBF80000 		str	r0, [fp]
 1866 012e 1980     		strh	r1, [r3]	@ movhi
 1867              		.loc 1 175 0
 1868 0130 AAB1     		cbz	r2, .L234
 1869              	.LVL180:
 1870              	.L223:
 1871              		.loc 1 190 0
 1872 0132 FFF7FEFF 		bl	timeout_has_timeout
 1873              	.LVL181:
 1874 0136 0028     		cmp	r0, #0
 1875 0138 8AD0     		beq	.L224
 1876              		.loc 1 191 0
 1877 013a 0123     		movs	r3, #1
 1878              	.LBE188:
 1879              		.loc 1 199 0
 1880 013c 6420     		movs	r0, #100
 1881              	.LBB190:
ARM GAS  /tmp/ccdeWoOQ.s 			page 34


 1882              		.loc 1 191 0
 1883 013e C9F80030 		str	r3, [r9]
 1884              	.LBE190:
 1885              		.loc 1 199 0
 1886 0142 FFF7FEFF 		bl	chThdSleep
 1887              	.LVL182:
 1888              		.loc 1 124 0
 1889 0146 9AF80030 		ldrb	r3, [r10]	@ zero_extendqisi2
 1890 014a 002B     		cmp	r3, #0
 1891 014c 87D0     		beq	.L219
 1892              	.L225:
 1893              		.loc 1 125 0
 1894 014e 204A     		ldr	r2, .L235+8
 1895 0150 0023     		movs	r3, #0
 1896 0152 1370     		strb	r3, [r2]
 1897              		.loc 1 126 0
 1898 0154 C9F80030 		str	r3, [r9]
 1899              	.LBE193:
 1900              		.loc 1 201 0
 1901 0158 11B0     		add	sp, sp, #68
 1902              		.cfi_remember_state
 1903              		.cfi_def_cfa_offset 36
 1904              		@ sp needed
 1905 015a BDE8F08F 		pop	{r4, r5, r6, r7, r8, r9, r10, fp, pc}
 1906              	.LVL183:
 1907              	.L234:
 1908              		.cfi_restore_state
 1909              	.LBB194:
 1910              	.LBB191:
 1911              		.loc 1 179 0
 1912 015e 9DF81530 		ldrb	r3, [sp, #21]	@ zero_extendqisi2
 1913 0162 9DF81200 		ldrb	r0, [sp, #18]	@ zero_extendqisi2
 1914              		.loc 1 180 0
 1915 0166 9DF81310 		ldrb	r1, [sp, #19]	@ zero_extendqisi2
 1916              		.loc 1 176 0
 1917 016a C9F80020 		str	r2, [r9]
 1918              		.loc 1 184 0
 1919 016e 8DF83E20 		strb	r2, [sp, #62]
 1920              		.loc 1 185 0
 1921 0172 8DF83F20 		strb	r2, [sp, #63]
 1922              		.loc 1 179 0
 1923 0176 C3F38102 		ubfx	r2, r3, #2, #2
 1924              	.LVL184:
 1925              		.loc 1 181 0
 1926 017a 9DF81470 		ldrb	r7, [sp, #20]	@ zero_extendqisi2
 1927              		.loc 1 179 0
 1928 017e 42EA8002 		orr	r2, r2, r0, lsl #2
 1929              		.loc 1 180 0
 1930 0182 C3F30110 		ubfx	r0, r3, #4, #2
 1931 0186 40EA8100 		orr	r0, r0, r1, lsl #2
 1932              		.loc 1 181 0
 1933 018a 9909     		lsrs	r1, r3, #6
 1934 018c 41EA8701 		orr	r1, r1, r7, lsl #2
 1935              		.loc 1 179 0
 1936 0190 0C92     		str	r2, [sp, #48]
 1937              		.loc 1 177 0
 1938 0192 9DF81070 		ldrb	r7, [sp, #16]	@ zero_extendqisi2
ARM GAS  /tmp/ccdeWoOQ.s 			page 35


 1939              		.loc 1 181 0
 1940 0196 0E91     		str	r1, [sp, #56]
 1941              		.loc 1 182 0
 1942 0198 DA43     		mvns	r2, r3
 1943              		.loc 1 178 0
 1944 019a 9DF81110 		ldrb	r1, [sp, #17]	@ zero_extendqisi2
 1945              		.loc 1 180 0
 1946 019e 0D90     		str	r0, [sp, #52]
 1947              		.loc 1 183 0
 1948 01a0 6FEA5303 		mvn	r3, r3, lsr #1
 1949              		.loc 1 182 0
 1950 01a4 02F00102 		and	r2, r2, #1
 1951              		.loc 1 183 0
 1952 01a8 03F00103 		and	r3, r3, #1
 1953              		.loc 1 187 0
 1954 01ac 0AA8     		add	r0, sp, #40
 1955              		.loc 1 182 0
 1956 01ae 8DF83D20 		strb	r2, [sp, #61]
 1957              		.loc 1 183 0
 1958 01b2 8DF83C30 		strb	r3, [sp, #60]
 1959              		.loc 1 178 0
 1960 01b6 CDE90A71 		strd	r7, r1, [sp, #40]
 1961              		.loc 1 187 0
 1962 01ba FFF7FEFF 		bl	app_nunchuk_update_output
 1963              	.LVL185:
 1964 01be B8E7     		b	.L223
 1965              	.LVL186:
 1966              	.L233:
 1967 01c0 DFF82090 		ldr	r9, .L235+28
 1968 01c4 C3E7     		b	.L225
 1969              	.L236:
 1970 01c6 00BF     		.align	2
 1971              	.L235:
 1972 01c8 00000000 		.word	ch
 1973 01cc 00000000 		.word	.LC8
 1974 01d0 00000000 		.word	.LANCHOR12
 1975 01d4 00000000 		.word	I2CD2
 1976 01d8 00000000 		.word	.LANCHOR14
 1977 01dc 04000000 		.word	.LANCHOR14+4
 1978 01e0 00000000 		.word	.LANCHOR10
 1979 01e4 00000000 		.word	.LANCHOR2
 1980              	.LBE191:
 1981              	.LBE194:
 1982              		.cfi_endproc
 1983              	.LFE261:
 1984              		.size	chuk_thread, .-chuk_thread
 1985              		.section	.bss.chuck_d,"aw",%nobits
 1986              		.align	2
 1987              		.set	.LANCHOR5,. + 0
 1988              		.type	chuck_d, %object
 1989              		.size	chuck_d, 24
 1990              	chuck_d:
 1991 0000 00000000 		.space	24
 1991      00000000 
 1991      00000000 
 1991      00000000 
 1991      00000000 
ARM GAS  /tmp/ccdeWoOQ.s 			page 36


 1992              		.section	.bss.chuck_error,"aw",%nobits
 1993              		.align	2
 1994              		.set	.LANCHOR2,. + 0
 1995              		.type	chuck_error, %object
 1996              		.size	chuck_error, 4
 1997              	chuck_error:
 1998 0000 00000000 		.space	4
 1999              		.section	.bss.chuk_thread_wa,"aw",%nobits
 2000              		.align	3
 2001              		.set	.LANCHOR11,. + 0
 2002              		.type	chuk_thread_wa, %object
 2003              		.size	chuk_thread_wa, 1432
 2004              	chuk_thread_wa:
 2005 0000 00000000 		.space	1432
 2005      00000000 
 2005      00000000 
 2005      00000000 
 2005      00000000 
 2006              		.section	.bss.config,"aw",%nobits
 2007              		.align	2
 2008              		.set	.LANCHOR3,. + 0
 2009              		.type	config, %object
 2010              		.size	config, 36
 2011              	config:
 2012 0000 00000000 		.space	36
 2012      00000000 
 2012      00000000 
 2012      00000000 
 2012      00000000 
 2013              		.section	.bss.is_reverse.12059,"aw",%nobits
 2014              		.set	.LANCHOR6,. + 0
 2015              		.type	is_reverse.12059, %object
 2016              		.size	is_reverse.12059, 1
 2017              	is_reverse.12059:
 2018 0000 00       		.space	1
 2019              		.section	.bss.is_running,"aw",%nobits
 2020              		.set	.LANCHOR12,. + 0
 2021              		.type	is_running, %object
 2022              		.size	is_running, 1
 2023              	is_running:
 2024 0000 00       		.space	1
 2025              		.section	.bss.last_buffer.12045,"aw",%nobits
 2026              		.align	2
 2027              		.set	.LANCHOR14,. + 0
 2028              		.type	last_buffer.12045, %object
 2029              		.size	last_buffer.12045, 6
 2030              	last_buffer.12045:
 2031 0000 00000000 		.space	6
 2031      0000
 2032              		.section	.bss.last_update_time,"aw",%nobits
 2033              		.align	2
 2034              		.set	.LANCHOR4,. + 0
 2035              		.type	last_update_time, %object
 2036              		.size	last_update_time, 4
 2037              	last_update_time:
 2038 0000 00000000 		.space	4
 2039              		.section	.bss.output_running,"aw",%nobits
ARM GAS  /tmp/ccdeWoOQ.s 			page 37


 2040              		.set	.LANCHOR0,. + 0
 2041              		.type	output_running, %object
 2042              		.size	output_running, 1
 2043              	output_running:
 2044 0000 00       		.space	1
 2045              		.section	.bss.output_thread_wa,"aw",%nobits
 2046              		.align	3
 2047              		.set	.LANCHOR13,. + 0
 2048              		.type	output_thread_wa, %object
 2049              		.size	output_thread_wa, 1432
 2050              	output_thread_wa:
 2051 0000 00000000 		.space	1432
 2051      00000000 
 2051      00000000 
 2051      00000000 
 2051      00000000 
 2052              		.section	.bss.pid_rpm.12066,"aw",%nobits
 2053              		.align	2
 2054              		.set	.LANCHOR8,. + 0
 2055              		.type	pid_rpm.12066, %object
 2056              		.size	pid_rpm.12066, 4
 2057              	pid_rpm.12066:
 2058 0000 00000000 		.space	4
 2059              		.section	.bss.prev_current.12062,"aw",%nobits
 2060              		.align	2
 2061              		.set	.LANCHOR9,. + 0
 2062              		.type	prev_current.12062, %object
 2063              		.size	prev_current.12062, 4
 2064              	prev_current.12062:
 2065 0000 00000000 		.space	4
 2066              		.section	.bss.rpm_filtered.12056,"aw",%nobits
 2067              		.align	2
 2068              		.set	.LANCHOR1,. + 0
 2069              		.type	rpm_filtered.12056, %object
 2070              		.size	rpm_filtered.12056, 4
 2071              	rpm_filtered.12056:
 2072 0000 00000000 		.space	4
 2073              		.section	.bss.was_z.12060,"aw",%nobits
 2074              		.set	.LANCHOR7,. + 0
 2075              		.type	was_z.12060, %object
 2076              		.size	was_z.12060, 1
 2077              	was_z.12060:
 2078 0000 00       		.space	1
 2079              		.section	.data.stop_now,"aw",%progbits
 2080              		.set	.LANCHOR10,. + 0
 2081              		.type	stop_now, %object
 2082              		.size	stop_now, 1
 2083              	stop_now:
 2084 0000 01       		.byte	1
 2085              		.section	.rodata.app_nunchuk_configure.str1.4,"aMS",%progbits,1
 2086              		.align	2
 2087              	.LC6:
 2088 0000 5072696E 		.ascii	"Print the status of the nunchuk app\000"
 2088      74207468 
 2088      65207374 
 2088      61747573 
 2088      206F6620 
ARM GAS  /tmp/ccdeWoOQ.s 			page 38


 2089              	.LC7:
 2090 0024 6E756E63 		.ascii	"nunchuk_status\000"
 2090      68756B5F 
 2090      73746174 
 2090      757300
 2091              		.section	.rodata.chuk_thread.str1.4,"aMS",%progbits,1
 2092              		.align	2
 2093              	.LC8:
 2094 0000 4E756E63 		.ascii	"Nunchuk i2c\000"
 2094      68756B20 
 2094      69326300 
 2095              		.section	.rodata.output_thread.str1.4,"aMS",%progbits,1
 2096              		.align	2
 2097              	.LC5:
 2098 0000 4E756E63 		.ascii	"Nunchuk output\000"
 2098      68756B20 
 2098      6F757470 
 2098      757400
 2099              		.section	.rodata.terminal_cmd_nunchuk_status.str1.4,"aMS",%progbits,1
 2100              		.align	2
 2101              	.LC0:
 2102 0000 4F6E00   		.ascii	"On\000"
 2103 0003 00       		.space	1
 2104              	.LC1:
 2105 0004 4F666600 		.ascii	"Off\000"
 2106              	.LC2:
 2107 0008 4E756E63 		.ascii	"Nunchuk Status\000"
 2107      68756B20 
 2107      53746174 
 2107      757300
 2108 0017 00       		.space	1
 2109              	.LC3:
 2110 0018 4F757470 		.ascii	"Output: %s\000"
 2110      75743A20 
 2110      257300
 2111 0023 00       		.space	1
 2112              	.LC4:
 2113 0024 2000     		.ascii	" \000"
 2114              		.text
 2115              	.Letext0:
 2116              		.file 5 "/usr/arm-none-eabi/include/machine/_default_types.h"
 2117              		.file 6 "/usr/arm-none-eabi/include/sys/_stdint.h"
 2118              		.file 7 "/usr/lib/gcc/arm-none-eabi/7.3.1/include/stddef.h"
 2119              		.file 8 "ChibiOS_3.0.2/os/rt/ports/ARMCMx/compilers/GCC/chtypes.h"
 2120              		.file 9 "ChibiOS_3.0.2/os/rt/include/chsystypes.h"
 2121              		.file 10 "ChibiOS_3.0.2/os/rt/include/chschd.h"
 2122              		.file 11 "ChibiOS_3.0.2/os/ext/CMSIS/include/core_cm4.h"
 2123              		.file 12 "ChibiOS_3.0.2/os/ext/CMSIS/ST/system_stm32f4xx.h"
 2124              		.file 13 "ChibiOS_3.0.2/os/ext/CMSIS/ST/stm32f407xx.h"
 2125              		.file 14 "ChibiOS_3.0.2/os/rt/ports/ARMCMx/chcore.h"
 2126              		.file 15 "ChibiOS_3.0.2/os/rt/ports/ARMCMx/chcore_v7m.h"
 2127              		.file 16 "ChibiOS_3.0.2/os/rt/include/chtm.h"
 2128              		.file 17 "ChibiOS_3.0.2/os/rt/include/chsem.h"
 2129              		.file 18 "ChibiOS_3.0.2/os/rt/include/chmtx.h"
 2130              		.file 19 "ChibiOS_3.0.2/os/rt/include/chevents.h"
 2131              		.file 20 "ChibiOS_3.0.2/os/rt/include/chqueues.h"
 2132              		.file 21 "./datatypes.h"
ARM GAS  /tmp/ccdeWoOQ.s 			page 39


 2133              		.file 22 "./conf_general.h"
 2134              		.file 23 "ChibiOS_3.0.2/os/hal/ports/STM32/STM32F4xx/stm32_dma.h"
 2135              		.file 24 "ChibiOS_3.0.2/os/hal/ports/STM32/LLD/GPIOv2/pal_lld.h"
 2136              		.file 25 "ChibiOS_3.0.2/os/hal/include/can.h"
 2137              		.file 26 "ChibiOS_3.0.2/os/hal/ports/STM32/LLD/can_lld.h"
 2138              		.file 27 "ChibiOS_3.0.2/os/hal/include/i2c.h"
 2139              		.file 28 "ChibiOS_3.0.2/os/hal/ports/STM32/LLD/I2Cv1/i2c_lld.h"
 2140              		.file 29 "ChibiOS_3.0.2/os/hal/include/icu.h"
 2141              		.file 30 "ChibiOS_3.0.2/os/hal/ports/STM32/LLD/TIMv1/icu_lld.h"
 2142              		.file 31 "ChibiOS_3.0.2/os/hal/ports/STM32/LLD/TIMv1/stm32_tim.h"
 2143              		.file 32 "ChibiOS_3.0.2/os/hal/include/serial.h"
 2144              		.file 33 "ChibiOS_3.0.2/os/hal/ports/STM32/LLD/USARTv1/serial_lld.h"
 2145              		.file 34 "ChibiOS_3.0.2/os/hal/include/spi.h"
 2146              		.file 35 "ChibiOS_3.0.2/os/hal/ports/STM32/LLD/SPIv1/spi_lld.h"
 2147              		.file 36 "ChibiOS_3.0.2/os/hal/include/usb.h"
 2148              		.file 37 "ChibiOS_3.0.2/os/hal/ports/STM32/LLD/OTGv1/usb_lld.h"
 2149              		.file 38 "ChibiOS_3.0.2/os/hal/ports/STM32/LLD/OTGv1/stm32_otg.h"
 2150              		.file 39 "./mc_interface.h"
 2151              		.file 40 "/usr/arm-none-eabi/include/sys/lock.h"
 2152              		.file 41 "/usr/arm-none-eabi/include/sys/_types.h"
 2153              		.file 42 "/usr/arm-none-eabi/include/sys/reent.h"
 2154              		.file 43 "/usr/arm-none-eabi/include/math.h"
 2155              		.file 44 "ChibiOS_3.0.2/os/rt/include/chsys.h"
 2156              		.file 45 "./commands.h"
 2157              		.file 46 "./comm_can.h"
 2158              		.file 47 "./utils.h"
 2159              		.file 48 "ChibiOS_3.0.2/os/rt/include/chthreads.h"
 2160              		.file 49 "./timeout.h"
 2161              		.file 50 "applications/app.h"
 2162              		.file 51 "./led_external.h"
 2163              		.file 52 "hwconf/hw.h"
 2164              		.file 53 "./terminal.h"