ARM GAS  /tmp/cckXMKaQ.s 			page 1


   1              		.cpu cortex-m4
   2              		.eabi_attribute 27, 1
   3              		.eabi_attribute 28, 1
   4              		.eabi_attribute 20, 1
   5              		.eabi_attribute 21, 1
   6              		.eabi_attribute 23, 3
   7              		.eabi_attribute 24, 1
   8              		.eabi_attribute 25, 1
   9              		.eabi_attribute 26, 1
  10              		.eabi_attribute 30, 2
  11              		.eabi_attribute 34, 1
  12              		.eabi_attribute 18, 4
  13              		.file	"app_adc.c"
  14              		.text
  15              	.Ltext0:
  16              		.cfi_sections	.debug_frame
  17              		.section	.text.adc_thread,"ax",%progbits
  18              		.align	1
  19              		.p2align 4,,15
  20              		.syntax unified
  21              		.thumb
  22              		.thumb_func
  23              		.fpu fpv4-sp-d16
  24              		.type	adc_thread, %function
  25              	adc_thread:
  26              	.LFB263:
  27              		.file 1 "applications/app_adc.c"
  28              		.loc 1 88 0
  29              		.cfi_startproc
  30              		@ args = 0, pretend = 0, frame = 16
  31              		@ frame_needed = 0, uses_anonymous_args = 0
  32              	.LVL0:
  33 0000 2DE9F04F 		push	{r4, r5, r6, r7, r8, r9, r10, fp, lr}
  34              		.cfi_def_cfa_offset 36
  35              		.cfi_offset 4, -36
  36              		.cfi_offset 5, -32
  37              		.cfi_offset 6, -28
  38              		.cfi_offset 7, -24
  39              		.cfi_offset 8, -20
  40              		.cfi_offset 9, -16
  41              		.cfi_offset 10, -12
  42              		.cfi_offset 11, -8
  43              		.cfi_offset 14, -4
  44              	.LBB64:
  45              	.LBB65:
  46              		.file 2 "ChibiOS_3.0.2/os/rt/include/chregistry.h"
  47              		.loc 2 135 0
  48 0004 DFF88893 		ldr	r9, .L231+88
  49              	.LBE65:
  50              	.LBE64:
  51              		.loc 1 94 0
  52 0008 DFF888A3 		ldr	r10, .L231+92
  53              	.LBB69:
  54              	.LBB66:
  55              		.loc 2 135 0
  56 000c D9F81820 		ldr	r2, [r9, #24]
  57              	.LBE66:
ARM GAS  /tmp/cckXMKaQ.s 			page 2


  58              	.LBE69:
  59              		.loc 1 94 0
  60 0010 9AF80030 		ldrb	r3, [r10]	@ zero_extendqisi2
  61              	.LBB70:
  62              	.LBB67:
  63              		.loc 2 135 0
  64 0014 C849     		ldr	r1, .L231
  65              	.LBE67:
  66              	.LBE70:
  67              		.loc 1 88 0
  68 0016 2DED088B 		vpush.64	{d8, d9, d10, d11}
  69              		.cfi_def_cfa_offset 68
  70              		.cfi_offset 80, -68
  71              		.cfi_offset 81, -64
  72              		.cfi_offset 82, -60
  73              		.cfi_offset 83, -56
  74              		.cfi_offset 84, -52
  75              		.cfi_offset 85, -48
  76              		.cfi_offset 86, -44
  77              		.cfi_offset 87, -40
  78              	.LBB71:
  79              	.LBB68:
  80              		.loc 2 135 0
  81 001a 9161     		str	r1, [r2, #24]
  82              	.LVL1:
  83              	.LBE68:
  84              	.LBE71:
  85              		.loc 1 88 0
  86 001c 85B0     		sub	sp, sp, #20
  87              		.cfi_def_cfa_offset 88
  88              		.loc 1 95 0
  89 001e 2022     		movs	r2, #32
  90              		.loc 1 94 0
  91 0020 002B     		cmp	r3, #0
  92 0022 00F03583 		beq	.L2
  93              		.loc 1 95 0
  94 0026 4FF48061 		mov	r1, #1024
  95 002a C448     		ldr	r0, .L231+4
  96              	.LVL2:
  97 002c FFF7FEFF 		bl	_pal_lld_setgroupmode
  98              	.LVL3:
  99              		.loc 1 96 0
 100 0030 2022     		movs	r2, #32
 101 0032 4FF40061 		mov	r1, #2048
 102 0036 C148     		ldr	r0, .L231+4
 103 0038 FFF7FEFF 		bl	_pal_lld_setgroupmode
 104              	.LVL4:
 105              	.L3:
 106              		.loc 1 101 0
 107 003c C04A     		ldr	r2, .L231+8
 108 003e C14C     		ldr	r4, .L231+12
 109              	.LBB72:
 110              		.loc 1 120 0
 111 0040 9FEDC18A 		vldr.32	s16, .L231+16
 112              		.loc 1 125 0
 113 0044 9FEDC19A 		vldr.32	s18, .L231+20
 114              	.LBB73:
ARM GAS  /tmp/cckXMKaQ.s 			page 3


 115              	.LBB74:
 116              	.LBB75:
 117              		.loc 1 525 0
 118 0048 DFEDC18A 		vldr.32	s17, .L231+24
 119 004c DFEDC19A 		vldr.32	s19, .L231+28
 120              	.LBE75:
 121              	.LBE74:
 122              	.LBE73:
 123              	.LBE72:
 124              		.loc 1 101 0
 125 0050 0123     		movs	r3, #1
 126 0052 1370     		strb	r3, [r2]
 127              	.L4:
 128              	.LBB158:
 129              		.loc 1 105 0
 130 0054 236C     		ldr	r3, [r4, #64]
 131 0056 42F21075 		movw	r5, #10000
 132 005a B5FBF3F5 		udiv	r5, r5, r3
 133              	.LVL5:
 134              		.loc 1 109 0
 135 005e 002D     		cmp	r5, #0
 136 0060 08BF     		it	eq
 137 0062 0125     		moveq	r5, #1
 138              	.LVL6:
 139              		.loc 1 111 0
 140 0064 2846     		mov	r0, r5
 141 0066 FFF7FEFF 		bl	chThdSleep
 142              	.LVL7:
 143              		.loc 1 113 0
 144 006a BB4B     		ldr	r3, .L231+32
 145 006c 1B78     		ldrb	r3, [r3]	@ zero_extendqisi2
 146 006e 002B     		cmp	r3, #0
 147 0070 40F0EF82 		bne	.L219
 148              		.loc 1 119 0
 149 0074 FFF7FEFF 		bl	mc_interface_get_fault
 150              	.LVL8:
 151 0078 10B1     		cbz	r0, .L7
 152              		.loc 1 120 0
 153 007a B84B     		ldr	r3, .L231+36
 154 007c 83ED008A 		vstr.32	s16, [r3]
 155              	.L7:
 156              		.loc 1 124 0
 157 0080 B74E     		ldr	r6, .L231+40
 158              		.loc 1 126 0
 159 0082 9FEDB80A 		vldr.32	s0, .L231+44
 160              		.loc 1 124 0
 161 0086 B389     		ldrh	r3, [r6, #12]
 162 0088 07EE103A 		vmov	s14, r3	@ int
 163 008c B8EE477A 		vcvt.f32.u32	s14, s14
 164              		.loc 1 128 0
 165 0090 B54B     		ldr	r3, .L231+48
 166              		.loc 1 125 0
 167 0092 C7EE097A 		vdiv.f32	s15, s14, s18
 168              		.loc 1 126 0
 169 0096 27EE800A 		vmul.f32	s0, s15, s0
 170              		.loc 1 128 0
 171 009a 83ED000A 		vstr.32	s0, [r3]
ARM GAS  /tmp/cckXMKaQ.s 			page 4


 172              		.loc 1 131 0
 173 009e 237F     		ldrb	r3, [r4, #28]	@ zero_extendqisi2
 174              		.loc 1 126 0
 175 00a0 8DED020A 		vstr.32	s0, [sp, #8]
 176              		.loc 1 131 0
 177 00a4 3BB3     		cbz	r3, .L8
 178              	.LBB85:
 179              		.loc 1 135 0
 180 00a6 B149     		ldr	r1, .L231+52
 181 00a8 B14B     		ldr	r3, .L231+56
 182 00aa 0A68     		ldr	r2, [r1]
 183 00ac 501C     		adds	r0, r2, #1
 184 00ae 03EB8202 		add	r2, r3, r2, lsl #2
 185 00b2 82ED000A 		vstr.32	s0, [r2]
 186              	.LBB86:
 187              		.loc 1 142 0
 188 00b6 D3ED007A 		vldr.32	s15, [r3]
 189 00ba D3ED015A 		vldr.32	s11, [r3, #4]
 190 00be 93ED026A 		vldr.32	s12, [r3, #8]
 191 00c2 D3ED036A 		vldr.32	s13, [r3, #12]
 192 00c6 93ED047A 		vldr.32	s14, [r3, #16]
 193              	.LBE86:
 194              		.loc 1 135 0
 195 00ca 0860     		str	r0, [r1]
 196              	.LBB87:
 197              		.loc 1 142 0
 198 00cc 77EE887A 		vadd.f32	s15, s15, s16
 199              	.LBE87:
 200              		.loc 1 144 0
 201 00d0 B1EE045A 		vmov.f32	s10, #5.0e+0
 202              	.LBB88:
 203              		.loc 1 142 0
 204 00d4 77EEA57A 		vadd.f32	s15, s15, s11
 205              	.LBE88:
 206              		.loc 1 136 0
 207 00d8 0428     		cmp	r0, #4
 208              	.LBB89:
 209              		.loc 1 142 0
 210 00da 77EE867A 		vadd.f32	s15, s15, s12
 211              	.LBE89:
 212              		.loc 1 137 0
 213 00de C8BF     		it	gt
 214 00e0 0022     		movgt	r2, #0
 215              	.LBB90:
 216              		.loc 1 142 0
 217 00e2 77EEA67A 		vadd.f32	s15, s15, s13
 218              	.LBE90:
 219              		.loc 1 137 0
 220 00e6 C8BF     		it	gt
 221 00e8 0A60     		strgt	r2, [r1]
 222              	.LVL9:
 223              	.LBB91:
 224              		.loc 1 142 0
 225 00ea 77EE877A 		vadd.f32	s15, s15, s14
 226              	.LBE91:
 227              		.loc 1 144 0
 228 00ee 87EE850A 		vdiv.f32	s0, s15, s10
ARM GAS  /tmp/cckXMKaQ.s 			page 5


 229 00f2 8DED020A 		vstr.32	s0, [sp, #8]
 230              	.LVL10:
 231              	.L8:
 232              	.LBE85:
 233              		.loc 1 148 0
 234 00f6 2378     		ldrb	r3, [r4]	@ zero_extendqisi2
 235 00f8 DBB2     		uxtb	r3, r3
 236 00fa 0D2B     		cmp	r3, #13
 237 00fc 00F24E81 		bhi	.L10
 238 0100 0122     		movs	r2, #1
 239 0102 02FA03F3 		lsl	r3, r2, r3
 240 0106 42F26442 		movw	r2, #9316
 241 010a 1342     		tst	r3, r2
 242 010c 00F04681 		beq	.L10
 243              		.loc 1 155 0
 244 0110 D4ED047A 		vldr.32	s15, [r4, #16]
 245 0114 F4EEC07A 		vcmpe.f32	s15, s0
 246 0118 F1EE10FA 		vmrs	APSR_nzcv, FPSCR
 247 011c 40F3AB82 		ble	.L209
 248              		.loc 1 156 0
 249 0120 D4ED020A 		vldr.32	s1, [r4, #8]
 250 0124 94ED041A 		vldr.32	s2, [r4, #16]
 251 0128 B6EE002A 		vmov.f32	s4, #5.0e-1
 252 012c F0EE481A 		vmov.f32	s3, s16
 253 0130 FFF7FEFF 		bl	utils_map
 254              	.LVL11:
 255 0134 8DED020A 		vstr.32	s0, [sp, #8]
 256              	.L13:
 257              		.loc 1 171 0
 258 0138 02A8     		add	r0, sp, #8
 259 013a F7EE000A 		vmov.f32	s1, #1.0e+0
 260 013e B0EE480A 		vmov.f32	s0, s16
 261 0142 FFF7FEFF 		bl	utils_truncate_number
 262              	.LVL12:
 263              		.loc 1 174 0
 264 0146 94F82030 		ldrb	r3, [r4, #32]	@ zero_extendqisi2
 265              		.loc 1 175 0
 266 014a DDED027A 		vldr.32	s15, [sp, #8]
 267              		.loc 1 174 0
 268 014e 2BB1     		cbz	r3, .L15
 269              		.loc 1 175 0
 270 0150 B7EE007A 		vmov.f32	s14, #1.0e+0
 271 0154 77EE677A 		vsub.f32	s15, s14, s15
 272 0158 CDED027A 		vstr.32	s15, [sp, #8]
 273              	.L15:
 274              		.loc 1 178 0
 275 015c 854B     		ldr	r3, .L231+60
 276              		.loc 1 184 0
 277 015e 9FED810A 		vldr.32	s0, .L231+44
 278              		.loc 1 178 0
 279 0162 C3ED007A 		vstr.32	s15, [r3]
 280              		.loc 1 182 0
 281 0166 F389     		ldrh	r3, [r6, #14]
 282 0168 07EE103A 		vmov	s14, r3	@ int
 283 016c B8EE477A 		vcvt.f32.u32	s14, s14
 284              		.loc 1 189 0
 285 0170 814B     		ldr	r3, .L231+64
ARM GAS  /tmp/cckXMKaQ.s 			page 6


 286              		.loc 1 183 0
 287 0172 C7EE097A 		vdiv.f32	s15, s14, s18
 288              		.loc 1 184 0
 289 0176 27EE800A 		vmul.f32	s0, s15, s0
 290              		.loc 1 189 0
 291 017a 83ED000A 		vstr.32	s0, [r3]
 292              		.loc 1 192 0
 293 017e 237F     		ldrb	r3, [r4, #28]	@ zero_extendqisi2
 294              		.loc 1 184 0
 295 0180 8DED030A 		vstr.32	s0, [sp, #12]
 296              		.loc 1 192 0
 297 0184 3BB3     		cbz	r3, .L16
 298              	.LBB92:
 299              		.loc 1 196 0
 300 0186 7D49     		ldr	r1, .L231+68
 301 0188 7D4B     		ldr	r3, .L231+72
 302 018a 0A68     		ldr	r2, [r1]
 303 018c 501C     		adds	r0, r2, #1
 304 018e 03EB8202 		add	r2, r3, r2, lsl #2
 305 0192 82ED000A 		vstr.32	s0, [r2]
 306              	.LBB93:
 307              		.loc 1 203 0
 308 0196 D3ED007A 		vldr.32	s15, [r3]
 309 019a D3ED015A 		vldr.32	s11, [r3, #4]
 310 019e 93ED026A 		vldr.32	s12, [r3, #8]
 311 01a2 D3ED036A 		vldr.32	s13, [r3, #12]
 312 01a6 93ED047A 		vldr.32	s14, [r3, #16]
 313              	.LBE93:
 314              		.loc 1 196 0
 315 01aa 0860     		str	r0, [r1]
 316              	.LBB94:
 317              		.loc 1 203 0
 318 01ac 77EE887A 		vadd.f32	s15, s15, s16
 319              	.LBE94:
 320              		.loc 1 205 0
 321 01b0 B1EE045A 		vmov.f32	s10, #5.0e+0
 322              	.LBB95:
 323              		.loc 1 203 0
 324 01b4 77EEA57A 		vadd.f32	s15, s15, s11
 325              	.LBE95:
 326              		.loc 1 197 0
 327 01b8 0428     		cmp	r0, #4
 328              	.LBB96:
 329              		.loc 1 203 0
 330 01ba 77EE867A 		vadd.f32	s15, s15, s12
 331              	.LBE96:
 332              		.loc 1 198 0
 333 01be C8BF     		it	gt
 334 01c0 0022     		movgt	r2, #0
 335              	.LBB97:
 336              		.loc 1 203 0
 337 01c2 77EEA67A 		vadd.f32	s15, s15, s13
 338              	.LBE97:
 339              		.loc 1 198 0
 340 01c6 C8BF     		it	gt
 341 01c8 0A60     		strgt	r2, [r1]
 342              	.LVL13:
ARM GAS  /tmp/cckXMKaQ.s 			page 7


 343              	.LBB98:
 344              		.loc 1 203 0
 345 01ca 77EE877A 		vadd.f32	s15, s15, s14
 346              	.LBE98:
 347              		.loc 1 205 0
 348 01ce 87EE850A 		vdiv.f32	s0, s15, s10
 349 01d2 8DED030A 		vstr.32	s0, [sp, #12]
 350              	.LVL14:
 351              	.L16:
 352              	.LBE92:
 353              		.loc 1 209 0
 354 01d6 D4ED050A 		vldr.32	s1, [r4, #20]
 355 01da 94ED061A 		vldr.32	s2, [r4, #24]
 356 01de B7EE002A 		vmov.f32	s4, #1.0e+0
 357 01e2 F0EE481A 		vmov.f32	s3, s16
 358 01e6 FFF7FEFF 		bl	utils_map
 359              	.LVL15:
 360 01ea 04A8     		add	r0, sp, #16
 361 01ec 20ED010A 		vstmdb.32	r0!, {s0}
 362              		.loc 1 210 0
 363 01f0 F7EE000A 		vmov.f32	s1, #1.0e+0
 364 01f4 B0EE480A 		vmov.f32	s0, s16
 365 01f8 FFF7FEFF 		bl	utils_truncate_number
 366              	.LVL16:
 367              		.loc 1 213 0
 368 01fc 94F82130 		ldrb	r3, [r4, #33]	@ zero_extendqisi2
 369              		.loc 1 214 0
 370 0200 DDED037A 		vldr.32	s15, [sp, #12]
 371              		.loc 1 213 0
 372 0204 2BB1     		cbz	r3, .L19
 373              		.loc 1 214 0
 374 0206 B7EE007A 		vmov.f32	s14, #1.0e+0
 375 020a 77EE677A 		vsub.f32	s15, s14, s15
 376 020e CDED037A 		vstr.32	s15, [sp, #12]
 377              	.L19:
 378              		.loc 1 217 0
 379 0212 5C4B     		ldr	r3, .L231+76
 380 0214 C3ED007A 		vstr.32	s15, [r3]
 381              	.LVL17:
 382              		.loc 1 222 0
 383 0218 9AF80030 		ldrb	r3, [r10]	@ zero_extendqisi2
 384 021c 03F0FF02 		and	r2, r3, #255
 385 0220 002B     		cmp	r3, #0
 386 0222 00F0C581 		beq	.L20
 387              		.loc 1 223 0
 388 0226 454B     		ldr	r3, .L231+4
 389 0228 1F69     		ldr	r7, [r3, #16]
 390              		.loc 1 224 0
 391 022a A37F     		ldrb	r3, [r4, #30]	@ zero_extendqisi2
 392              		.loc 1 223 0
 393 022c BF0A     		lsrs	r7, r7, #10
 394              	.LVL18:
 395              		.loc 1 224 0
 396 022e 03B9     		cbnz	r3, .L215
 397 0230 FF43     		mvns	r7, r7
 398              	.LVL19:
 399              	.L215:
ARM GAS  /tmp/cckXMKaQ.s 			page 8


 400              		.loc 1 227 0
 401 0232 424B     		ldr	r3, .L231+4
 402 0234 1E69     		ldr	r6, [r3, #16]
 403              		.loc 1 228 0
 404 0236 E37F     		ldrb	r3, [r4, #31]	@ zero_extendqisi2
 405              		.loc 1 227 0
 406 0238 F60A     		lsrs	r6, r6, #11
 407 023a 07F00107 		and	r7, r7, #1
 408              	.LVL20:
 409 023e F243     		mvns	r2, r6
 410              	.LVL21:
 411              		.loc 1 228 0
 412 0240 002B     		cmp	r3, #0
 413 0242 00F0CF81 		beq	.L216
 414              		.loc 1 229 0
 415 0246 06F00106 		and	r6, r6, #1
 416              	.LVL22:
 417              	.L24:
 418              		.loc 1 251 0
 419 024a FFF7FEFF 		bl	app_is_output_disabled
 420              	.LVL23:
 421 024e 8046     		mov	r8, r0
 422 0250 0028     		cmp	r0, #0
 423 0252 7FF4FFAE 		bne	.L4
 424              		.loc 1 255 0
 425 0256 2378     		ldrb	r3, [r4]	@ zero_extendqisi2
 426 0258 DBB2     		uxtb	r3, r3
 427 025a 0E2B     		cmp	r3, #14
 428 025c 17D8     		bhi	.L30
 429 025e 0122     		movs	r2, #1
 430 0260 02FA03F3 		lsl	r3, r2, r3
 431 0264 44F68802 		movw	r2, #18568
 432 0268 1342     		tst	r3, r2
 433 026a 40F0FA81 		bne	.L31
 434 026e 42F26442 		movw	r2, #9316
 435 0272 1342     		tst	r3, r2
 436 0274 40F01182 		bne	.L32
 437 0278 13F4887F 		tst	r3, #272
 438 027c 07D0     		beq	.L30
 439              		.loc 1 268 0
 440 027e 9DED027A 		vldr.32	s14, [sp, #8]
 441 0282 DDED037A 		vldr.32	s15, [sp, #12]
 442 0286 77EE677A 		vsub.f32	s15, s14, s15
 443 028a CDED027A 		vstr.32	s15, [sp, #8]
 444              	.L30:
 445              		.loc 1 286 0
 446 028e 94ED010A 		vldr.32	s0, [r4, #4]
 447              		.loc 1 294 0
 448 0292 DFF804B1 		ldr	fp, .L231+96
 449              		.loc 1 286 0
 450 0296 02A8     		add	r0, sp, #8
 451 0298 F7EE000A 		vmov.f32	s1, #1.0e+0
 452 029c FFF7FEFF 		bl	utils_deadband
 453              	.LVL24:
 454              		.loc 1 289 0
 455 02a0 D4ED090A 		vldr.32	s1, [r4, #36]
 456 02a4 9DED020A 		vldr.32	s0, [sp, #8]
ARM GAS  /tmp/cckXMKaQ.s 			page 9


 457 02a8 94ED0A1A 		vldr.32	s2, [r4, #40]
 458 02ac 94F82C00 		ldrb	r0, [r4, #44]	@ zero_extendqisi2
 459 02b0 FFF7FEFF 		bl	utils_throttle_curve
 460              	.LVL25:
 461              		.loc 1 294 0
 462 02b4 DBED007A 		vldr.32	s15, [fp]
 463              		.loc 1 289 0
 464 02b8 8DED020A 		vstr.32	s0, [sp, #8]
 465              		.loc 1 294 0
 466 02bc B0EEC07A 		vabs.f32	s14, s0
 467 02c0 F0EEE77A 		vabs.f32	s15, s15
 468 02c4 B4EEE77A 		vcmpe.f32	s14, s15
 469              		.loc 1 296 0
 470 02c8 DFED2F7A 		vldr.32	s15, .L231+80
 471              		.loc 1 294 0
 472 02cc F1EE10FA 		vmrs	APSR_nzcv, FPSCR
 473              		.loc 1 296 0
 474 02d0 B4EEE77A 		vcmpe.f32	s14, s15
 475              		.loc 1 289 0
 476 02d4 B0EE40AA 		vmov.f32	s20, s0
 477              		.loc 1 294 0
 478 02d8 CCBF     		ite	gt
 479 02da 94ED0C0A 		vldrgt.32	s0, [r4, #48]
 480 02de 94ED0D0A 		vldrle.32	s0, [r4, #52]
 481              	.LVL26:
 482              		.loc 1 296 0
 483 02e2 F1EE10FA 		vmrs	APSR_nzcv, FPSCR
 484 02e6 05DD     		ble	.L37
 485              		.loc 1 297 0
 486 02e8 94ED0C0A 		vldr.32	s0, [r4, #48]
 487              	.LVL27:
 488 02ec D4ED0D0A 		vldr.32	s1, [r4, #52]
 489 02f0 FFF7FEFF 		bl	fminf
 490              	.LVL28:
 491              	.L37:
 492              		.loc 1 300 0
 493 02f4 DFED257A 		vldr.32	s15, .L231+84
 494 02f8 B4EEE70A 		vcmpe.f32	s0, s15
 495 02fc F1EE10FA 		vmrs	APSR_nzcv, FPSCR
 496 0300 00F38081 		bgt	.L220
 497              	.LVL29:
 498              	.L39:
 499              		.loc 1 310 0
 500 0304 FFF7FEFF 		bl	mc_interface_get_configuration
 501              	.LVL30:
 502 0308 8346     		mov	fp, r0
 503              	.LVL31:
 504              		.loc 1 311 0
 505 030a FFF7FEFF 		bl	mc_interface_get_rpm
 506              	.LVL32:
 507              		.loc 1 315 0
 508 030e 2378     		ldrb	r3, [r4]	@ zero_extendqisi2
 509 0310 013B     		subs	r3, r3, #1
 510 0312 0D2B     		cmp	r3, #13
 511 0314 3FF69EAE 		bhi	.L4
 512 0318 DFE813F0 		tbh	[pc, r3, lsl #1]
 513              	.L43:
ARM GAS  /tmp/cckXMKaQ.s 			page 10


 514 031c 2A01     		.2byte	(.L42-.L43)/2
 515 031e 2A01     		.2byte	(.L42-.L43)/2
 516 0320 2A01     		.2byte	(.L42-.L43)/2
 517 0322 0701     		.2byte	(.L44-.L43)/2
 518 0324 0701     		.2byte	(.L44-.L43)/2
 519 0326 0701     		.2byte	(.L44-.L43)/2
 520 0328 0701     		.2byte	(.L44-.L43)/2
 521 032a 0701     		.2byte	(.L44-.L43)/2
 522 032c 8B00     		.2byte	(.L45-.L43)/2
 523 032e 8B00     		.2byte	(.L45-.L43)/2
 524 0330 8B00     		.2byte	(.L45-.L43)/2
 525 0332 4D00     		.2byte	(.L46-.L43)/2
 526 0334 4D00     		.2byte	(.L46-.L43)/2
 527 0336 4D00     		.2byte	(.L46-.L43)/2
 528              		.p2align 1
 529              	.L232:
 530              		.align	2
 531              	.L231:
 532 0338 00000000 		.word	.LC0
 533 033c 00040240 		.word	1073873920
 534 0340 00000000 		.word	.LANCHOR1
 535 0344 00000000 		.word	.LANCHOR2
 536 0348 00000000 		.word	0
 537 034c 00F07F45 		.word	1166012416
 538 0350 00401C46 		.word	1176256512
 539 0354 CDCCCC3D 		.word	1036831949
 540 0358 00000000 		.word	.LANCHOR3
 541 035c 00000000 		.word	.LANCHOR4
 542 0360 00000000 		.word	ADC_Value
 543 0364 33335340 		.word	1079194419
 544 0368 00000000 		.word	.LANCHOR5
 545 036c 00000000 		.word	.LANCHOR6
 546 0370 00000000 		.word	.LANCHOR7
 547 0374 00000000 		.word	.LANCHOR8
 548 0378 00000000 		.word	.LANCHOR9
 549 037c 00000000 		.word	.LANCHOR10
 550 0380 00000000 		.word	.LANCHOR11
 551 0384 00000000 		.word	.LANCHOR12
 552 0388 6F12833A 		.word	981668463
 553 038c 0AD7233C 		.word	1008981770
 554 0390 00000000 		.word	ch
 555 0394 00000000 		.word	.LANCHOR0
 556 0398 00000000 		.word	.LANCHOR13
 557              	.LVL33:
 558              	.L10:
 559              		.loc 1 166 0
 560 039c D4ED020A 		vldr.32	s1, [r4, #8]
 561 03a0 94ED031A 		vldr.32	s2, [r4, #12]
 562 03a4 B7EE002A 		vmov.f32	s4, #1.0e+0
 563 03a8 F0EE481A 		vmov.f32	s3, s16
 564 03ac FFF7FEFF 		bl	utils_map
 565              	.LVL34:
 566 03b0 8DED020A 		vstr.32	s0, [sp, #8]
 567              		.loc 1 167 0
 568 03b4 C0E6     		b	.L13
 569              	.LVL35:
 570              	.L46:
ARM GAS  /tmp/cckXMKaQ.s 			page 11


 571              		.loc 1 376 0
 572 03b6 D64B     		ldr	r3, .L233
 573 03b8 DFEDD67A 		vldr.32	s15, .L233+4
 574 03bc 93ED007A 		vldr.32	s14, [r3]
 575              		.loc 1 370 0
 576 03c0 9DED02AA 		vldr.32	s20, [sp, #8]
 577              	.LVL36:
 578              		.loc 1 376 0
 579 03c4 B4EEE77A 		vcmpe.f32	s14, s15
 580 03c8 F1EE10FA 		vmrs	APSR_nzcv, FPSCR
 581 03cc 00F17081 		bmi	.L221
 582              	.L57:
 583              	.LVL37:
 584              	.LBB99:
 585              		.loc 1 378 0
 586 03d0 B5EEC0AA 		vcmpe.f32	s20, #0
 587 03d4 F1EE10FA 		vmrs	APSR_nzcv, FPSCR
 588              		.loc 1 381 0
 589 03d8 B4BF     		ite	lt
 590 03da 9BED060A 		vldrlt.32	s0, [fp, #24]
 591              		.loc 1 379 0
 592 03de 9BED070A 		vldrge.32	s0, [fp, #28]
 593 03e2 0193     		str	r3, [sp, #4]
 594              		.loc 1 381 0
 595 03e4 B8BF     		it	lt
 596 03e6 B0EEC00A 		vabslt.f32	s0, s0
 597 03ea 20EE0A0A 		vmul.f32	s0, s0, s20
 598              	.LVL38:
 599              		.loc 1 384 0
 600 03ee FFF7FEFF 		bl	mc_interface_set_pid_speed
 601              	.LVL39:
 602 03f2 DDED027A 		vldr.32	s15, [sp, #8]
 603 03f6 019B     		ldr	r3, [sp, #4]
 604              		.loc 1 385 0
 605 03f8 0126     		movs	r6, #1
 606              	.LVL40:
 607              	.L59:
 608              	.LBE99:
 609              		.loc 1 388 0
 610 03fa 9FEDC77A 		vldr.32	s14, .L233+8
 611 03fe F0EEE77A 		vabs.f32	s15, s15
 612 0402 F4EEC77A 		vcmpe.f32	s15, s14
 613 0406 F1EE10FA 		vmrs	APSR_nzcv, FPSCR
 614 040a 40F15981 		bpl	.L213
 615              		.loc 1 389 0
 616 040e 07EE905A 		vmov	s15, r5	@ int
 617 0412 B8EEE77A 		vcvt.f32.s32	s14, s15
 618 0416 DFEDC17A 		vldr.32	s15, .L233+12
 619 041a D3ED006A 		vldr.32	s13, [r3]
 620 041e 67EE277A 		vmul.f32	s15, s14, s15
 621              		.loc 1 308 0
 622 0422 0025     		movs	r5, #0
 623              	.LVL41:
 624              		.loc 1 389 0
 625 0424 87EEA87A 		vdiv.f32	s14, s15, s17
 626 0428 77EE267A 		vadd.f32	s15, s14, s13
 627 042c C3ED007A 		vstr.32	s15, [r3]
ARM GAS  /tmp/cckXMKaQ.s 			page 12


 628 0430 2EE0     		b	.L47
 629              	.LVL42:
 630              	.L45:
 631              		.loc 1 357 0
 632 0432 9DED020A 		vldr.32	s0, [sp, #8]
 633 0436 DFEDB87A 		vldr.32	s15, .L233+8
 634 043a B0EEC07A 		vabs.f32	s14, s0
 635 043e B4EEE77A 		vcmpe.f32	s14, s15
 636 0442 F1EE10FA 		vmrs	APSR_nzcv, FPSCR
 637 0446 40F15E81 		bpl	.L222
 638              		.loc 1 358 0
 639 044a 07EE905A 		vmov	s15, r5	@ int
 640 044e F8EEE76A 		vcvt.f32.s32	s13, s15
 641 0452 DFEDB27A 		vldr.32	s15, .L233+12
 642 0456 AE4B     		ldr	r3, .L233
 643 0458 66EEA76A 		vmul.f32	s13, s13, s15
 644 045c D3ED007A 		vldr.32	s15, [r3]
 645 0460 86EEA87A 		vdiv.f32	s14, s13, s17
 646 0464 77EE277A 		vadd.f32	s15, s14, s15
 647 0468 C3ED007A 		vstr.32	s15, [r3]
 648              	.L53:
 649              		.loc 1 361 0
 650 046c 93ED007A 		vldr.32	s14, [r3]
 651 0470 DFEDA87A 		vldr.32	s15, .L233+4
 652 0474 B4EEE77A 		vcmpe.f32	s14, s15
 653 0478 F1EE10FA 		vmrs	APSR_nzcv, FPSCR
 654 047c 40F1DE81 		bpl	.L55
 655              		.loc 1 361 0 is_stmt 0 discriminator 1
 656 0480 627F     		ldrb	r2, [r4, #29]	@ zero_extendqisi2
 657 0482 002A     		cmp	r2, #0
 658 0484 00F0DA81 		beq	.L55
 659              		.loc 1 312 0 is_stmt 1
 660 0488 0026     		movs	r6, #0
 661              	.LVL43:
 662              		.loc 1 307 0
 663 048a 9FEDA5AA 		vldr.32	s20, .L233+16
 664              		.loc 1 308 0
 665 048e 3546     		mov	r5, r6
 666              	.LVL44:
 667              	.L47:
 668              		.loc 1 398 0
 669 0490 93ED007A 		vldr.32	s14, [r3]
 670 0494 DFED9F7A 		vldr.32	s15, .L233+4
 671 0498 B4EEE77A 		vcmpe.f32	s14, s15
 672 049c F1EE10FA 		vmrs	APSR_nzcv, FPSCR
 673 04a0 40F14C81 		bpl	.L64
 674              		.loc 1 398 0 is_stmt 0 discriminator 1
 675 04a4 627F     		ldrb	r2, [r4, #29]	@ zero_extendqisi2
 676 04a6 002A     		cmp	r2, #0
 677 04a8 00F04881 		beq	.L64
 678              	.LBB100:
 679              		.loc 1 400 0 is_stmt 1
 680 04ac 9D4A     		ldr	r2, .L233+20
 681 04ae 93ED007A 		vldr.32	s14, [r3]
 682 04b2 D2ED007A 		vldr.32	s15, [r2]	@ int
 683 04b6 F8EEE77A 		vcvt.f32.s32	s15, s15
 684 04ba F4EE477A 		vcmp.f32	s15, s14
ARM GAS  /tmp/cckXMKaQ.s 			page 13


 685 04be F1EE10FA 		vmrs	APSR_nzcv, FPSCR
 686              		.loc 1 401 0
 687 04c2 08BF     		it	eq
 688 04c4 83ED008A 		vstreq.32	s16, [r3]
 689              		.loc 1 403 0
 690 04c8 D3ED007A 		vldr.32	s15, [r3]
 691 04cc FDEEE77A 		vcvt.s32.f32	s15, s15
 692 04d0 C2ED007A 		vstr.32	s15, [r2]	@ int
 693              		.loc 1 404 0
 694 04d4 FFF7FEFF 		bl	timeout_get_brake_current
 695              	.LVL45:
 696 04d8 FFF7FEFF 		bl	mc_interface_set_brake_current
 697              	.LVL46:
 698              		.loc 1 406 0
 699 04dc 94F83830 		ldrb	r3, [r4, #56]	@ zero_extendqisi2
 700 04e0 002B     		cmp	r3, #0
 701 04e2 3FF4B7AD 		beq	.L4
 702              	.LBB101:
 703              		.loc 1 407 0
 704 04e6 0025     		movs	r5, #0
 705              	.LVL47:
 706 04e8 02E0     		b	.L69
 707              	.LVL48:
 708              	.L67:
 709              		.loc 1 407 0 is_stmt 0 discriminator 2
 710 04ea 0A2D     		cmp	r5, #10
 711 04ec 3FF4B2AD 		beq	.L4
 712              	.LVL49:
 713              	.L69:
 714              	.LBB102:
 715              		.loc 1 408 0 is_stmt 1
 716 04f0 2846     		mov	r0, r5
 717 04f2 FFF7FEFF 		bl	comm_can_get_status_msg_index
 718              	.LVL50:
 719              		.loc 1 410 0
 720 04f6 0668     		ldr	r6, [r0]
 721 04f8 002E     		cmp	r6, #0
 722              	.LBE102:
 723              		.loc 1 407 0
 724 04fa 05F10105 		add	r5, r5, #1
 725              	.LVL51:
 726              	.LBB107:
 727              		.loc 1 410 0
 728 04fe F4DB     		blt	.L67
 729              	.LBB103:
 730              	.LBB104:
 731              		.file 3 "ChibiOS_3.0.2/os/rt/include/chvt.h"
 732              		.loc 3 267 0 discriminator 1
 733 0500 4268     		ldr	r2, [r0, #4]
 734              	.LBB105:
 735              	.LBB106:
 736              		.loc 3 231 0 discriminator 1
 737 0502 D9F82830 		ldr	r3, [r9, #40]
 738              	.LVL52:
 739              	.LBE106:
 740              	.LBE105:
 741              		.loc 3 267 0 discriminator 1
ARM GAS  /tmp/cckXMKaQ.s 			page 14


 742 0506 9B1A     		subs	r3, r3, r2
 743              	.LBE104:
 744              	.LBE103:
 745              		.loc 1 410 0 discriminator 1
 746 0508 07EE903A 		vmov	s15, r3	@ int
 747 050c F8EE677A 		vcvt.f32.u32	s15, s15
 748 0510 87EEA87A 		vdiv.f32	s14, s15, s17
 749 0514 B4EEE97A 		vcmpe.f32	s14, s19
 750 0518 F1EE10FA 		vmrs	APSR_nzcv, FPSCR
 751 051c E5D5     		bpl	.L67
 752              		.loc 1 411 0
 753 051e FFF7FEFF 		bl	timeout_get_brake_current
 754              	.LVL53:
 755 0522 F0B2     		uxtb	r0, r6
 756 0524 FFF7FEFF 		bl	comm_can_set_current_brake
 757              	.LVL54:
 758 0528 DFE7     		b	.L67
 759              	.LVL55:
 760              	.L44:
 761              	.LBE107:
 762              	.LBE101:
 763              	.LBE100:
 764              		.loc 1 337 0
 765 052a DDED027A 		vldr.32	s15, [sp, #8]
 766              		.loc 1 344 0
 767 052e 9FED7A7A 		vldr.32	s14, .L233+8
 768              		.loc 1 337 0
 769 0532 F5EEC07A 		vcmpe.f32	s15, #0
 770 0536 F1EE10FA 		vmrs	APSR_nzcv, FPSCR
 771              		.loc 1 344 0
 772 053a F4EEC77A 		vcmpe.f32	s15, s14
 773              		.loc 1 340 0
 774 053e B9BF     		ittee	lt
 775 0540 B0EEE7AA 		vabslt.f32	s20, s15
 776              	.LVL56:
 777              		.loc 1 341 0
 778 0544 4FF00108 		movlt	r8, #1
 779              		.loc 1 338 0
 780 0548 B0EE67AA 		vmovge.f32	s20, s15
 781              	.LVL57:
 782              		.loc 1 309 0
 783 054c 4FF00008 		movge	r8, #0
 784              	.LVL58:
 785              		.loc 1 344 0
 786 0550 F1EE10FA 		vmrs	APSR_nzcv, FPSCR
 787 0554 00F1BA80 		bmi	.L121
 788              		.loc 1 348 0
 789 0558 2278     		ldrb	r2, [r4]	@ zero_extendqisi2
 790 055a 6D4B     		ldr	r3, .L233
 791 055c 042A     		cmp	r2, #4
 792 055e 00F0CA80 		beq	.L52
 793              	.L224:
 794              		.loc 1 349 0 discriminator 1
 795 0562 2278     		ldrb	r2, [r4]	@ zero_extendqisi2
 796              		.loc 1 348 0 discriminator 1
 797 0564 052A     		cmp	r2, #5
 798 0566 00F0C680 		beq	.L52
ARM GAS  /tmp/cckXMKaQ.s 			page 15


 799              		.loc 1 312 0
 800 056a 0026     		movs	r6, #0
 801              	.LVL59:
 802              		.loc 1 336 0
 803 056c 0125     		movs	r5, #1
 804              	.LVL60:
 805 056e 8FE7     		b	.L47
 806              	.LVL61:
 807              	.L42:
 808              		.loc 1 320 0
 809 0570 9DED02AA 		vldr.32	s20, [sp, #8]
 810              	.LVL62:
 811              		.loc 1 326 0
 812 0574 DFED687A 		vldr.32	s15, .L233+8
 813 0578 B0EECA7A 		vabs.f32	s14, s20
 814 057c B4EEE77A 		vcmpe.f32	s14, s15
 815 0580 F1EE10FA 		vmrs	APSR_nzcv, FPSCR
 816 0584 40F19E80 		bpl	.L211
 817              		.loc 1 327 0
 818 0588 07EE905A 		vmov	s15, r5	@ int
 819 058c F8EEE76A 		vcvt.f32.s32	s13, s15
 820 0590 DFED627A 		vldr.32	s15, .L233+12
 821 0594 5E4B     		ldr	r3, .L233
 822 0596 66EEA76A 		vmul.f32	s13, s13, s15
 823 059a D3ED007A 		vldr.32	s15, [r3]
 824 059e 86EEA87A 		vdiv.f32	s14, s13, s17
 825              		.loc 1 312 0
 826 05a2 0026     		movs	r6, #0
 827              	.LVL63:
 828              		.loc 1 319 0
 829 05a4 0125     		movs	r5, #1
 830              	.LVL64:
 831              		.loc 1 327 0
 832 05a6 77EE277A 		vadd.f32	s15, s14, s15
 833 05aa C3ED007A 		vstr.32	s15, [r3]
 834 05ae 6FE7     		b	.L47
 835              	.LVL65:
 836              	.L20:
 837              		.loc 1 233 0
 838 05b0 2378     		ldrb	r3, [r4]	@ zero_extendqisi2
 839 05b2 032B     		cmp	r3, #3
 840 05b4 19D0     		beq	.L25
 841              		.loc 1 234 0 discriminator 1
 842 05b6 2378     		ldrb	r3, [r4]	@ zero_extendqisi2
 843              		.loc 1 233 0 discriminator 1
 844 05b8 052B     		cmp	r3, #5
 845 05ba 16D0     		beq	.L25
 846              		.loc 1 235 0
 847 05bc 2378     		ldrb	r3, [r4]	@ zero_extendqisi2
 848              		.loc 1 234 0
 849 05be 072B     		cmp	r3, #7
 850 05c0 13D0     		beq	.L25
 851              		.loc 1 236 0
 852 05c2 2378     		ldrb	r3, [r4]	@ zero_extendqisi2
 853              		.loc 1 235 0
 854 05c4 0B2B     		cmp	r3, #11
 855 05c6 10D0     		beq	.L25
ARM GAS  /tmp/cckXMKaQ.s 			page 16


 856              		.loc 1 242 0
 857 05c8 574B     		ldr	r3, .L233+24
 858 05ca 1F69     		ldr	r7, [r3, #16]
 859              		.loc 1 243 0
 860 05cc A37F     		ldrb	r3, [r4, #30]	@ zero_extendqisi2
 861              		.loc 1 242 0
 862 05ce BF09     		lsrs	r7, r7, #6
 863 05d0 F943     		mvns	r1, r7
 864              	.LVL66:
 865              		.loc 1 243 0
 866 05d2 03F0FF06 		and	r6, r3, #255
 867 05d6 002B     		cmp	r3, #0
 868 05d8 00F09780 		beq	.L223
 869              		.loc 1 244 0
 870 05dc 07F00107 		and	r7, r7, #1
 871              	.LVL67:
 872              		.loc 1 221 0
 873 05e0 1646     		mov	r6, r2
 874 05e2 32E6     		b	.L24
 875              	.LVL68:
 876              	.L216:
 877              		.loc 1 237 0
 878 05e4 02F00106 		and	r6, r2, #1
 879 05e8 2FE6     		b	.L24
 880              	.LVL69:
 881              	.L25:
 882 05ea 4F4B     		ldr	r3, .L233+24
 883 05ec 1E69     		ldr	r6, [r3, #16]
 884              		.loc 1 238 0
 885 05ee E37F     		ldrb	r3, [r4, #31]	@ zero_extendqisi2
 886              		.loc 1 237 0
 887 05f0 B609     		lsrs	r6, r6, #6
 888 05f2 F243     		mvns	r2, r6
 889              	.LVL70:
 890              		.loc 1 238 0
 891 05f4 03F0FF07 		and	r7, r3, #255
 892 05f8 002B     		cmp	r3, #0
 893 05fa F3D0     		beq	.L216
 894              		.loc 1 239 0
 895 05fc 06F00106 		and	r6, r6, #1
 896              	.LVL71:
 897              		.loc 1 220 0
 898 0600 0027     		movs	r7, #0
 899 0602 22E6     		b	.L24
 900              	.LVL72:
 901              	.L220:
 902              	.LBB108:
 903              		.loc 1 301 0
 904 0604 494A     		ldr	r2, .L233+28
 905              	.LBB109:
 906              	.LBB110:
 907              	.LBB111:
 908              	.LBB112:
 909              		.loc 3 231 0
 910 0606 D9F82830 		ldr	r3, [r9, #40]
 911              	.LVL73:
 912              	.LBE112:
ARM GAS  /tmp/cckXMKaQ.s 			page 17


 913              	.LBE111:
 914              		.loc 3 267 0
 915 060a 1168     		ldr	r1, [r2]
 916              	.LBE110:
 917              	.LBE109:
 918              		.loc 1 301 0
 919 060c 4848     		ldr	r0, .L233+32
 920              	.LBB114:
 921              	.LBB113:
 922              		.loc 3 267 0
 923 060e 0192     		str	r2, [sp, #4]
 924 0610 5B1A     		subs	r3, r3, r1
 925              	.LVL74:
 926              	.LBE113:
 927              	.LBE114:
 928              		.loc 1 301 0
 929 0612 4FF47A7C 		mov	ip, #1000
 930 0616 42F20F71 		movw	r1, #9999
 931 061a 0CFB0313 		mla	r3, ip, r3, r1
 932 061e A0FB0323 		umull	r2, r3, r0, r3
 933 0622 5B0B     		lsrs	r3, r3, #13
 934 0624 07EE903A 		vmov	s15, r3	@ int
 935 0628 DFED3C0A 		vldr.32	s1, .L233+12
 936              		.loc 1 302 0
 937 062c 4148     		ldr	r0, .L233+36
 938              		.loc 1 301 0
 939 062e F8EEE77A 		vcvt.f32.s32	s15, s15
 940 0632 60EE200A 		vmul.f32	s1, s0, s1
 941              		.loc 1 302 0
 942 0636 B0EE4A0A 		vmov.f32	s0, s20
 943              	.LVL75:
 944 063a C7EEA00A 		vdiv.f32	s1, s15, s1
 945 063e FFF7FEFF 		bl	utils_step_towards
 946              	.LVL76:
 947              		.loc 1 303 0
 948 0642 019A     		ldr	r2, [sp, #4]
 949              	.LBB115:
 950              	.LBB116:
 951              		.loc 3 231 0
 952 0644 D9F82830 		ldr	r3, [r9, #40]
 953              	.LBE116:
 954              	.LBE115:
 955              		.loc 1 303 0
 956 0648 1360     		str	r3, [r2]
 957              		.loc 1 304 0
 958 064a DBF80030 		ldr	r3, [fp]	@ float
 959 064e 0293     		str	r3, [sp, #8]	@ float
 960 0650 58E6     		b	.L39
 961              	.LVL77:
 962              	.L219:
 963              	.LBE108:
 964              		.loc 1 114 0
 965 0652 394A     		ldr	r2, .L233+40
 966 0654 0023     		movs	r3, #0
 967 0656 1370     		strb	r3, [r2]
 968              	.LBE158:
 969              		.loc 1 558 0
ARM GAS  /tmp/cckXMKaQ.s 			page 18


 970 0658 05B0     		add	sp, sp, #20
 971              		.cfi_remember_state
 972              		.cfi_def_cfa_offset 68
 973              		@ sp needed
 974 065a BDEC088B 		vldm	sp!, {d8-d11}
 975              		.cfi_restore 86
 976              		.cfi_restore 87
 977              		.cfi_restore 84
 978              		.cfi_restore 85
 979              		.cfi_restore 82
 980              		.cfi_restore 83
 981              		.cfi_restore 80
 982              		.cfi_restore 81
 983              		.cfi_def_cfa_offset 36
 984 065e BDE8F08F 		pop	{r4, r5, r6, r7, r8, r9, r10, fp, pc}
 985              	.LVL78:
 986              	.L31:
 987              		.cfi_restore_state
 988              	.LBB159:
 989              		.loc 1 276 0
 990 0662 002E     		cmp	r6, #0
 991 0664 3FF413AE 		beq	.L30
 992              		.loc 1 277 0
 993 0668 DDED027A 		vldr.32	s15, [sp, #8]
 994 066c F1EE677A 		vneg.f32	s15, s15
 995 0670 CDED027A 		vstr.32	s15, [sp, #8]
 996 0674 0BE6     		b	.L30
 997              	.LVL79:
 998              	.L209:
 999              		.loc 1 159 0
 1000 0676 D4ED040A 		vldr.32	s1, [r4, #16]
 1001 067a 94ED031A 		vldr.32	s2, [r4, #12]
 1002 067e B7EE002A 		vmov.f32	s4, #1.0e+0
 1003 0682 F6EE001A 		vmov.f32	s3, #5.0e-1
 1004 0686 FFF7FEFF 		bl	utils_map
 1005              	.LVL80:
 1006 068a 8DED020A 		vstr.32	s0, [sp, #8]
 1007 068e 53E5     		b	.L13
 1008              	.LVL81:
 1009              	.L2:
 1010              	.LBE159:
 1011              		.loc 1 98 0
 1012 0690 4021     		movs	r1, #64
 1013 0692 2548     		ldr	r0, .L233+24
 1014              	.LVL82:
 1015 0694 FFF7FEFF 		bl	_pal_lld_setgroupmode
 1016              	.LVL83:
 1017 0698 D0E4     		b	.L3
 1018              	.LVL84:
 1019              	.L32:
 1020              	.LBB160:
 1021              		.loc 1 263 0
 1022 069a DDED026A 		vldr.32	s13, [sp, #8]
 1023 069e B0EE007A 		vmov.f32	s14, #2.0e+0
 1024 06a2 FFEE007A 		vmov.f32	s15, #-1.0e+0
 1025 06a6 E6EE877A 		vfma.f32	s15, s13, s14
 1026 06aa CDED027A 		vstr.32	s15, [sp, #8]
ARM GAS  /tmp/cckXMKaQ.s 			page 19


 1027              		.loc 1 264 0
 1028 06ae EEE5     		b	.L30
 1029              	.LVL85:
 1030              	.L221:
 1031              		.loc 1 376 0 discriminator 1
 1032 06b0 627F     		ldrb	r2, [r4, #29]	@ zero_extendqisi2
 1033 06b2 002A     		cmp	r2, #0
 1034 06b4 3FF48CAE 		beq	.L57
 1035 06b8 F0EE4A7A 		vmov.f32	s15, s20
 1036              		.loc 1 312 0
 1037 06bc 0026     		movs	r6, #0
 1038              	.LVL86:
 1039 06be 9CE6     		b	.L59
 1040              	.LVL87:
 1041              	.L213:
 1042              		.loc 1 308 0
 1043 06c0 0025     		movs	r5, #0
 1044              	.LVL88:
 1045 06c2 E5E6     		b	.L47
 1046              	.LVL89:
 1047              	.L211:
 1048              		.loc 1 312 0
 1049 06c4 0026     		movs	r6, #0
 1050              	.LVL90:
 1051              		.loc 1 319 0
 1052 06c6 0125     		movs	r5, #1
 1053              	.LVL91:
 1054 06c8 114B     		ldr	r3, .L233
 1055 06ca E1E6     		b	.L47
 1056              	.LVL92:
 1057              	.L121:
 1058              		.loc 1 345 0
 1059 06cc 07EE905A 		vmov	s15, r5	@ int
 1060 06d0 F8EEE76A 		vcvt.f32.s32	s13, s15
 1061 06d4 DFED117A 		vldr.32	s15, .L233+12
 1062 06d8 0D4B     		ldr	r3, .L233
 1063 06da 66EEA76A 		vmul.f32	s13, s13, s15
 1064 06de D3ED007A 		vldr.32	s15, [r3]
 1065 06e2 86EEA87A 		vdiv.f32	s14, s13, s17
 1066 06e6 77EE277A 		vadd.f32	s15, s14, s15
 1067 06ea C3ED007A 		vstr.32	s15, [r3]
 1068              		.loc 1 348 0
 1069 06ee 2278     		ldrb	r2, [r4]	@ zero_extendqisi2
 1070 06f0 042A     		cmp	r2, #4
 1071 06f2 7FF436AF 		bne	.L224
 1072              	.L52:
 1073              		.loc 1 349 0
 1074 06f6 002E     		cmp	r6, #0
 1075 06f8 00F0C180 		beq	.L110
 1076              		.loc 1 336 0
 1077 06fc 3546     		mov	r5, r6
 1078              	.LVL93:
 1079              		.loc 1 350 0
 1080 06fe B1EE4AAA 		vneg.f32	s20, s20
 1081              	.LVL94:
 1082              		.loc 1 312 0
 1083 0702 0026     		movs	r6, #0
ARM GAS  /tmp/cckXMKaQ.s 			page 20


 1084              	.LVL95:
 1085 0704 C4E6     		b	.L47
 1086              	.LVL96:
 1087              	.L222:
 1088 0706 024B     		ldr	r3, .L233
 1089 0708 B0E6     		b	.L53
 1090              	.LVL97:
 1091              	.L223:
 1092              		.loc 1 242 0
 1093 070a 01F00107 		and	r7, r1, #1
 1094 070e 9CE5     		b	.L24
 1095              	.L234:
 1096              		.align	2
 1097              	.L233:
 1098 0710 00000000 		.word	.LANCHOR4
 1099 0714 0000FA43 		.word	1140457472
 1100 0718 6F12833A 		.word	981668463
 1101 071c 00007A44 		.word	1148846080
 1102 0720 00000000 		.word	0
 1103 0724 00000000 		.word	.LANCHOR15
 1104 0728 00040240 		.word	1073873920
 1105 072c 00000000 		.word	.LANCHOR14
 1106 0730 5917B7D1 		.word	-776530087
 1107 0734 00000000 		.word	.LANCHOR13
 1108 0738 00000000 		.word	.LANCHOR1
 1109              	.LVL98:
 1110              	.L64:
 1111              		.loc 1 428 0
 1112 073c DFF82CB3 		ldr	fp, .L235+20
 1113              	.LVL99:
 1114              		.loc 1 420 0
 1115 0740 FFF7FEFF 		bl	timeout_reset
 1116              	.LVL100:
 1117              		.loc 1 428 0
 1118 0744 DBF80010 		ldr	r1, [fp]
 1119 0748 0191     		str	r1, [sp, #4]
 1120 074a 4B1C     		adds	r3, r1, #1
 1121 074c CBF80030 		str	r3, [fp]
 1122 0750 FFF7FEFF 		bl	mc_interface_get_rpm
 1123              	.LVL101:
 1124              		.loc 1 429 0
 1125 0754 DBF80020 		ldr	r2, [fp]
 1126              		.loc 1 428 0
 1127 0758 BF4B     		ldr	r3, .L235
 1128 075a 0199     		ldr	r1, [sp, #4]
 1129              		.loc 1 433 0
 1130 075c DFEDBF7A 		vldr.32	s15, .L235+4
 1131              		.loc 1 428 0
 1132 0760 03EB8103 		add	r3, r3, r1, lsl #2
 1133              		.loc 1 429 0
 1134 0764 072A     		cmp	r2, #7
 1135              		.loc 1 428 0
 1136 0766 83ED000A 		vstr.32	s0, [r3]
 1137              		.loc 1 430 0
 1138 076a C4BF     		itt	gt
 1139 076c 0023     		movgt	r3, #0
 1140 076e CBF80030 		strgt	r3, [fp]
ARM GAS  /tmp/cckXMKaQ.s 			page 21


 1141              	.LVL102:
 1142 0772 B94B     		ldr	r3, .L235
 1143 0774 03F12002 		add	r2, r3, #32
 1144              	.LVL103:
 1145              	.L71:
 1146              	.LBB117:
 1147              		.loc 1 435 0 discriminator 3
 1148 0778 B3EC017A 		vldmia.32	r3!, {s14}
 1149              		.loc 1 434 0 discriminator 3
 1150 077c 9A42     		cmp	r2, r3
 1151              		.loc 1 435 0 discriminator 3
 1152 077e 77EE877A 		vadd.f32	s15, s15, s14
 1153              	.LVL104:
 1154              		.loc 1 434 0 discriminator 3
 1155 0782 F9D1     		bne	.L71
 1156              	.LVL105:
 1157              	.LBE117:
 1158              		.loc 1 439 0
 1159 0784 5DB1     		cbz	r5, .L72
 1160              		.loc 1 439 0 is_stmt 0 discriminator 1
 1161 0786 57B1     		cbz	r7, .L72
 1162              		.loc 1 439 0 discriminator 2
 1163 0788 9DED027A 		vldr.32	s14, [sp, #8]
 1164 078c DFEDB46A 		vldr.32	s13, .L235+8
 1165 0790 B0EEC77A 		vabs.f32	s14, s14
 1166 0794 B4EEE67A 		vcmpe.f32	s14, s13
 1167 0798 F1EE10FA 		vmrs	APSR_nzcv, FPSCR
 1168 079c 71D4     		bmi	.L225
 1169              	.L72:
 1170              		.loc 1 465 0 is_stmt 1
 1171 079e B14B     		ldr	r3, .L235+12
 1172 07a0 0027     		movs	r7, #0
 1173              	.LVL106:
 1174 07a2 1F70     		strb	r7, [r3]
 1175              		.loc 1 468 0
 1176 07a4 FFF7FEFF 		bl	mc_interface_get_rpm
 1177              	.LVL107:
 1178              		.loc 1 470 0
 1179 07a8 94F83830 		ldrb	r3, [r4, #56]	@ zero_extendqisi2
 1180              		.loc 1 468 0
 1181 07ac B0EE40BA 		vmov.f32	s22, s0
 1182              	.LVL108:
 1183              		.loc 1 469 0
 1184 07b0 F0EE40AA 		vmov.f32	s21, s0
 1185              		.loc 1 470 0
 1186 07b4 DBB9     		cbnz	r3, .L82
 1187              	.LVL109:
 1188              	.L79:
 1189              		.loc 1 485 0
 1190 07b6 26B1     		cbz	r6, .L83
 1191              		.loc 1 485 0 is_stmt 0 discriminator 1
 1192 07b8 94F83830 		ldrb	r3, [r4, #56]	@ zero_extendqisi2
 1193 07bc 002B     		cmp	r3, #0
 1194 07be 40F09480 		bne	.L226
 1195              	.LVL110:
 1196              	.L83:
 1197              		.loc 1 497 0 is_stmt 1
ARM GAS  /tmp/cckXMKaQ.s 			page 22


 1198 07c2 002D     		cmp	r5, #0
 1199 07c4 3FF446AC 		beq	.L4
 1200              		.loc 1 498 0
 1201 07c8 B8F1000F 		cmp	r8, #0
 1202 07cc 40F01B81 		bne	.L227
 1203              	.LVL111:
 1204              	.LBB118:
 1205              		.loc 1 512 0
 1206 07d0 B5EEC0AA 		vcmpe.f32	s20, #0
 1207 07d4 F1EE10FA 		vmrs	APSR_nzcv, FPSCR
 1208              		.loc 1 521 0
 1209 07d8 94F83830 		ldrb	r3, [r4, #56]	@ zero_extendqisi2
 1210              		.loc 1 512 0
 1211 07dc 43D4     		bmi	.L94
 1212              		.loc 1 521 0
 1213 07de 002B     		cmp	r3, #0
 1214 07e0 40F03781 		bne	.L228
 1215              	.LVL112:
 1216              	.L95:
 1217              		.loc 1 553 0
 1218 07e4 B0EE4A0A 		vmov.f32	s0, s20
 1219 07e8 FFF7FEFF 		bl	mc_interface_set_current_rel
 1220              	.LVL113:
 1221 07ec 32E4     		b	.L4
 1222              	.LVL114:
 1223              	.L82:
 1224              	.LBE118:
 1225              	.LBB119:
 1226              	.LBB120:
 1227              		.loc 1 472 0
 1228 07ee 3846     		mov	r0, r7
 1229 07f0 FFF7FEFF 		bl	comm_can_get_status_msg_index
 1230              	.LVL115:
 1231              		.loc 1 474 0
 1232 07f4 0368     		ldr	r3, [r0]
 1233 07f6 002B     		cmp	r3, #0
 1234              	.LBE120:
 1235              		.loc 1 471 0
 1236 07f8 07F10107 		add	r7, r7, #1
 1237              	.LVL116:
 1238              	.LBB127:
 1239              		.loc 1 474 0
 1240 07fc 1BDB     		blt	.L80
 1241              	.LBB121:
 1242              	.LBB122:
 1243              	.LBB123:
 1244              	.LBB124:
 1245              		.loc 3 231 0 discriminator 1
 1246 07fe D9F82830 		ldr	r3, [r9, #40]
 1247              	.LVL117:
 1248              	.LBE124:
 1249              	.LBE123:
 1250              		.loc 3 267 0 discriminator 1
 1251 0802 4268     		ldr	r2, [r0, #4]
 1252 0804 9B1A     		subs	r3, r3, r2
 1253              	.LBE122:
 1254              	.LBE121:
ARM GAS  /tmp/cckXMKaQ.s 			page 23


 1255              		.loc 1 474 0 discriminator 1
 1256 0806 07EE903A 		vmov	s15, r3	@ int
 1257 080a F8EE677A 		vcvt.f32.u32	s15, s15
 1258              	.LBB125:
 1259              		.loc 1 477 0 discriminator 1
 1260 080e F0EEEA6A 		vabs.f32	s13, s21
 1261              	.LBE125:
 1262              		.loc 1 474 0 discriminator 1
 1263 0812 87EEA87A 		vdiv.f32	s14, s15, s17
 1264 0816 B4EEE97A 		vcmpe.f32	s14, s19
 1265 081a F1EE10FA 		vmrs	APSR_nzcv, FPSCR
 1266 081e 0AD5     		bpl	.L80
 1267              	.LBB126:
 1268              		.loc 1 475 0
 1269 0820 D0ED027A 		vldr.32	s15, [r0, #8]
 1270              	.LVL118:
 1271              		.loc 1 477 0
 1272 0824 B0EEE77A 		vabs.f32	s14, s15
 1273              		.loc 1 478 0
 1274 0828 B4EE667A 		vcmp.f32	s14, s13
 1275 082c F1EE10FA 		vmrs	APSR_nzcv, FPSCR
 1276 0830 48BF     		it	mi
 1277 0832 F0EE67AA 		vmovmi.f32	s21, s15
 1278              	.LVL119:
 1279              	.L80:
 1280              	.LBE126:
 1281              	.LBE127:
 1282              		.loc 1 471 0 discriminator 2
 1283 0836 0A2F     		cmp	r7, #10
 1284 0838 D9D1     		bne	.L82
 1285 083a BCE7     		b	.L79
 1286              	.LVL120:
 1287              	.L55:
 1288              	.LBE119:
 1289              		.loc 1 362 0
 1290 083c DBED161A 		vldr.32	s3, [fp, #88]
 1291 0840 9BED162A 		vldr.32	s4, [fp, #88]
 1292 0844 0193     		str	r3, [sp, #4]
 1293 0846 F1EE611A 		vneg.f32	s3, s3
 1294 084a B7EE001A 		vmov.f32	s2, #1.0e+0
 1295 084e FFEE000A 		vmov.f32	s1, #-1.0e+0
 1296 0852 FFF7FEFF 		bl	utils_map
 1297              	.LVL121:
 1298 0856 FFF7FEFF 		bl	mc_interface_set_duty
 1299              	.LVL122:
 1300              		.loc 1 307 0
 1301 085a 9FED80AA 		vldr.32	s20, .L235+4
 1302 085e 019B     		ldr	r3, [sp, #4]
 1303              		.loc 1 308 0
 1304 0860 0025     		movs	r5, #0
 1305              	.LVL123:
 1306              		.loc 1 363 0
 1307 0862 0126     		movs	r6, #1
 1308              	.LVL124:
 1309 0864 14E6     		b	.L47
 1310              	.LVL125:
 1311              	.L94:
ARM GAS  /tmp/cckXMKaQ.s 			page 24


 1312              	.LBB128:
 1313              		.loc 1 514 0
 1314 0866 B1EE4AAA 		vneg.f32	s20, s20
 1315              	.LVL126:
 1316              		.loc 1 521 0
 1317 086a 03F0FF08 		and	r8, r3, #255
 1318              	.LVL127:
 1319 086e 002B     		cmp	r3, #0
 1320 0870 6BD1     		bne	.L229
 1321              	.LVL128:
 1322              	.L97:
 1323              		.loc 1 551 0
 1324 0872 B1EE4A0A 		vneg.f32	s0, s20
 1325 0876 FFF7FEFF 		bl	mc_interface_set_current_rel
 1326              	.LVL129:
 1327 087a FFF7EBBB 		b	.L4
 1328              	.LVL130:
 1329              	.L110:
 1330              	.LBE128:
 1331              		.loc 1 336 0
 1332 087e 0125     		movs	r5, #1
 1333              	.LVL131:
 1334 0880 06E6     		b	.L47
 1335              	.LVL132:
 1336              	.L225:
 1337              	.LBB129:
 1338              		.loc 1 442 0
 1339 0882 784B     		ldr	r3, .L235+12
 1340 0884 1A78     		ldrb	r2, [r3]	@ zero_extendqisi2
 1341 0886 002A     		cmp	r2, #0
 1342 0888 55D0     		beq	.L74
 1343 088a 774B     		ldr	r3, .L235+16
 1344 088c 93ED000A 		vldr.32	s0, [r3]
 1345              	.L75:
 1346              		.loc 1 447 0
 1347 0890 FFF7FEFF 		bl	mc_interface_set_pid_speed
 1348              	.LVL133:
 1349              		.loc 1 450 0
 1350 0894 94F83830 		ldrb	r3, [r4, #56]	@ zero_extendqisi2
 1351 0898 002B     		cmp	r3, #0
 1352 089a 3FF4DBAB 		beq	.L4
 1353              	.LBB130:
 1354              		.loc 1 451 0
 1355 089e FFF7FEFF 		bl	mc_interface_get_tot_current_directional_filtered
 1356              	.LVL134:
 1357              	.LBB131:
 1358              		.loc 1 453 0
 1359 08a2 0025     		movs	r5, #0
 1360              	.LVL135:
 1361              	.LBE131:
 1362              		.loc 1 451 0
 1363 08a4 B0EE40AA 		vmov.f32	s20, s0
 1364              	.LVL136:
 1365 08a8 02E0     		b	.L78
 1366              	.LVL137:
 1367              	.L76:
 1368              	.LBB138:
ARM GAS  /tmp/cckXMKaQ.s 			page 25


 1369              		.loc 1 453 0 discriminator 2
 1370 08aa 0A2D     		cmp	r5, #10
 1371 08ac 3FF4D2AB 		beq	.L4
 1372              	.LVL138:
 1373              	.L78:
 1374              	.LBB132:
 1375              		.loc 1 454 0
 1376 08b0 2846     		mov	r0, r5
 1377 08b2 FFF7FEFF 		bl	comm_can_get_status_msg_index
 1378              	.LVL139:
 1379              		.loc 1 456 0
 1380 08b6 0268     		ldr	r2, [r0]
 1381 08b8 002A     		cmp	r2, #0
 1382              	.LBE132:
 1383              		.loc 1 453 0
 1384 08ba 05F10105 		add	r5, r5, #1
 1385              	.LVL140:
 1386              	.LBB137:
 1387              		.loc 1 456 0
 1388 08be F4DB     		blt	.L76
 1389              	.LBB133:
 1390              	.LBB134:
 1391              		.loc 3 267 0 discriminator 1
 1392 08c0 4168     		ldr	r1, [r0, #4]
 1393              	.LBB135:
 1394              	.LBB136:
 1395              		.loc 3 231 0 discriminator 1
 1396 08c2 D9F82830 		ldr	r3, [r9, #40]
 1397              	.LVL141:
 1398              	.LBE136:
 1399              	.LBE135:
 1400              		.loc 3 267 0 discriminator 1
 1401 08c6 5B1A     		subs	r3, r3, r1
 1402              	.LBE134:
 1403              	.LBE133:
 1404              		.loc 1 456 0 discriminator 1
 1405 08c8 07EE903A 		vmov	s15, r3	@ int
 1406 08cc F8EE677A 		vcvt.f32.u32	s15, s15
 1407 08d0 87EEA87A 		vdiv.f32	s14, s15, s17
 1408 08d4 B4EEE97A 		vcmpe.f32	s14, s19
 1409 08d8 F1EE10FA 		vmrs	APSR_nzcv, FPSCR
 1410 08dc E5D5     		bpl	.L76
 1411              		.loc 1 457 0
 1412 08de D0B2     		uxtb	r0, r2
 1413              	.LVL142:
 1414 08e0 B0EE4A0A 		vmov.f32	s0, s20
 1415 08e4 FFF7FEFF 		bl	comm_can_set_current
 1416              	.LVL143:
 1417 08e8 DFE7     		b	.L76
 1418              	.LVL144:
 1419              	.L226:
 1420              	.LBE137:
 1421              	.LBE138:
 1422              	.LBE130:
 1423              	.LBE129:
 1424              	.LBB139:
 1425              		.loc 1 486 0
ARM GAS  /tmp/cckXMKaQ.s 			page 26


 1426 08ea FFF7FEFF 		bl	mc_interface_get_duty_cycle_now
 1427              	.LVL145:
 1428              	.LBB140:
 1429              		.loc 1 488 0
 1430 08ee 0026     		movs	r6, #0
 1431              	.LVL146:
 1432              	.LBE140:
 1433              		.loc 1 486 0
 1434 08f0 F0EE40BA 		vmov.f32	s23, s0
 1435              	.LVL147:
 1436 08f4 02E0     		b	.L86
 1437              	.LVL148:
 1438              	.L84:
 1439              	.LBB147:
 1440              		.loc 1 488 0 discriminator 2
 1441 08f6 0A2E     		cmp	r6, #10
 1442 08f8 3FF463AF 		beq	.L83
 1443              	.LVL149:
 1444              	.L86:
 1445              	.LBB141:
 1446              		.loc 1 489 0
 1447 08fc 3046     		mov	r0, r6
 1448 08fe FFF7FEFF 		bl	comm_can_get_status_msg_index
 1449              	.LVL150:
 1450              		.loc 1 491 0
 1451 0902 0268     		ldr	r2, [r0]
 1452 0904 002A     		cmp	r2, #0
 1453              	.LBE141:
 1454              		.loc 1 488 0
 1455 0906 06F10106 		add	r6, r6, #1
 1456              	.LVL151:
 1457              	.LBB146:
 1458              		.loc 1 491 0
 1459 090a F4DB     		blt	.L84
 1460              	.LBB142:
 1461              	.LBB143:
 1462              		.loc 3 267 0 discriminator 1
 1463 090c 4168     		ldr	r1, [r0, #4]
 1464              	.LBB144:
 1465              	.LBB145:
 1466              		.loc 3 231 0 discriminator 1
 1467 090e D9F82830 		ldr	r3, [r9, #40]
 1468              	.LVL152:
 1469              	.LBE145:
 1470              	.LBE144:
 1471              		.loc 3 267 0 discriminator 1
 1472 0912 5B1A     		subs	r3, r3, r1
 1473              	.LBE143:
 1474              	.LBE142:
 1475              		.loc 1 491 0 discriminator 1
 1476 0914 07EE903A 		vmov	s15, r3	@ int
 1477 0918 F8EE677A 		vcvt.f32.u32	s15, s15
 1478 091c 87EEA87A 		vdiv.f32	s14, s15, s17
 1479 0920 B4EEE97A 		vcmpe.f32	s14, s19
 1480 0924 F1EE10FA 		vmrs	APSR_nzcv, FPSCR
 1481 0928 E5D5     		bpl	.L84
 1482              		.loc 1 492 0
ARM GAS  /tmp/cckXMKaQ.s 			page 27


 1483 092a D0B2     		uxtb	r0, r2
 1484              	.LVL153:
 1485 092c B0EE6B0A 		vmov.f32	s0, s23
 1486 0930 FFF7FEFF 		bl	comm_can_set_duty
 1487              	.LVL154:
 1488 0934 DFE7     		b	.L84
 1489              	.LVL155:
 1490              	.L74:
 1491              	.LBE146:
 1492              	.LBE147:
 1493              	.LBE139:
 1494              		.loc 1 437 0
 1495 0936 B4EE000A 		vmov.f32	s0, #1.25e-1
 1496 093a 27EE800A 		vmul.f32	s0, s15, s0
 1497              	.LBB148:
 1498              		.loc 1 444 0
 1499 093e 4A49     		ldr	r1, .L235+16
 1500              		.loc 1 443 0
 1501 0940 0122     		movs	r2, #1
 1502              		.loc 1 444 0
 1503 0942 81ED000A 		vstr.32	s0, [r1]
 1504              		.loc 1 443 0
 1505 0946 1A70     		strb	r2, [r3]
 1506 0948 A2E7     		b	.L75
 1507              	.LVL156:
 1508              	.L229:
 1509              	.LBE148:
 1510              	.LBB149:
 1511              		.loc 1 516 0
 1512 094a B1EE4BBA 		vneg.f32	s22, s22
 1513              	.LVL157:
 1514              		.loc 1 517 0
 1515 094e F1EE6AAA 		vneg.f32	s21, s21
 1516              	.LVL158:
 1517              		.loc 1 515 0
 1518 0952 F0EE4ABA 		vmov.f32	s23, s20
 1519              	.LVL159:
 1520              	.L98:
 1521              		.loc 1 515 0 is_stmt 0 discriminator 1
 1522 0956 0025     		movs	r5, #0
 1523              	.LVL160:
 1524 0958 4646     		mov	r6, r8
 1525              	.LVL161:
 1526              	.L96:
 1527              	.LBB83:
 1528              	.LBB82:
 1529              		.loc 1 523 0 is_stmt 1
 1530 095a 2846     		mov	r0, r5
 1531 095c FFF7FEFF 		bl	comm_can_get_status_msg_index
 1532              	.LVL162:
 1533              		.loc 1 525 0
 1534 0960 0368     		ldr	r3, [r0]
 1535 0962 002B     		cmp	r3, #0
 1536 0964 30DB     		blt	.L99
 1537              	.LBB76:
 1538              	.LBB77:
 1539              	.LBB78:
ARM GAS  /tmp/cckXMKaQ.s 			page 28


 1540              	.LBB79:
 1541              		.loc 3 231 0 discriminator 1
 1542 0966 D9F82820 		ldr	r2, [r9, #40]
 1543              	.LVL163:
 1544              	.LBE79:
 1545              	.LBE78:
 1546              		.loc 3 267 0 discriminator 1
 1547 096a 4168     		ldr	r1, [r0, #4]
 1548 096c 521A     		subs	r2, r2, r1
 1549              	.LBE77:
 1550              	.LBE76:
 1551              		.loc 1 525 0 discriminator 1
 1552 096e 07EE902A 		vmov	s15, r2	@ int
 1553 0972 F8EE677A 		vcvt.f32.u32	s15, s15
 1554 0976 87EEA87A 		vdiv.f32	s14, s15, s17
 1555 097a B4EEE97A 		vcmpe.f32	s14, s19
 1556 097e F1EE10FA 		vmrs	APSR_nzcv, FPSCR
 1557 0982 21D5     		bpl	.L99
 1558              		.loc 1 526 0
 1559 0984 94F83920 		ldrb	r2, [r4, #57]	@ zero_extendqisi2
 1560              	.LBB80:
 1561              		.loc 1 533 0
 1562 0988 DFED340A 		vldr.32	s1, .L235+4
 1563              	.LBE80:
 1564              		.loc 1 526 0
 1565 098c 9AB1     		cbz	r2, .L101
 1566              	.LBB81:
 1567              		.loc 1 527 0
 1568 098e 90ED020A 		vldr.32	s0, [r0, #8]
 1569              	.LVL164:
 1570              		.loc 1 528 0
 1571 0992 0EB1     		cbz	r6, .L102
 1572              		.loc 1 529 0
 1573 0994 B1EE400A 		vneg.f32	s0, s0
 1574              	.LVL165:
 1575              	.L102:
 1576              		.loc 1 533 0
 1577 0998 94ED0F1A 		vldr.32	s2, [r4, #60]
 1578 099c 0190     		str	r0, [sp, #4]
 1579 099e 30EE6A0A 		vsub.f32	s0, s0, s21
 1580              	.LVL166:
 1581 09a2 B0EE482A 		vmov.f32	s4, s16
 1582 09a6 F0EE6B1A 		vmov.f32	s3, s23
 1583 09aa FFF7FEFF 		bl	utils_map
 1584              	.LVL167:
 1585 09ae 0198     		ldr	r0, [sp, #4]
 1586 09b0 0368     		ldr	r3, [r0]
 1587 09b2 B0EE40AA 		vmov.f32	s20, s0
 1588              	.LVL168:
 1589              	.L101:
 1590 09b6 DBB2     		uxtb	r3, r3
 1591              	.LBE81:
 1592              		.loc 1 537 0
 1593 09b8 B1EE4A0A 		vneg.f32	s0, s20
 1594 09bc 1846     		mov	r0, r3
 1595              		.loc 1 536 0
 1596 09be 0EB9     		cbnz	r6, .L217
ARM GAS  /tmp/cckXMKaQ.s 			page 29


 1597              		.loc 1 539 0
 1598 09c0 B0EE4A0A 		vmov.f32	s0, s20
 1599              	.L217:
 1600 09c4 FFF7FEFF 		bl	comm_can_set_current_rel
 1601              	.LVL169:
 1602              	.L99:
 1603              	.LBE82:
 1604              		.loc 1 522 0 discriminator 2
 1605 09c8 0135     		adds	r5, r5, #1
 1606              	.LVL170:
 1607 09ca 0A2D     		cmp	r5, #10
 1608 09cc C5D1     		bne	.L96
 1609              	.LBE83:
 1610              		.loc 1 544 0
 1611 09ce 94F83930 		ldrb	r3, [r4, #57]	@ zero_extendqisi2
 1612 09d2 B046     		mov	r8, r6
 1613 09d4 23B9     		cbnz	r3, .L230
 1614              		.loc 1 550 0
 1615 09d6 B8F1000F 		cmp	r8, #0
 1616 09da 3FF403AF 		beq	.L95
 1617 09de 48E7     		b	.L97
 1618              	.L230:
 1619              	.LVL171:
 1620              	.LBB84:
 1621              		.loc 1 546 0
 1622 09e0 94ED0F1A 		vldr.32	s2, [r4, #60]
 1623 09e4 DFED1D0A 		vldr.32	s1, .L235+4
 1624 09e8 F0EE6B1A 		vmov.f32	s3, s23
 1625 09ec 3BEE6A0A 		vsub.f32	s0, s22, s21
 1626              	.LVL172:
 1627 09f0 B0EE482A 		vmov.f32	s4, s16
 1628 09f4 FFF7FEFF 		bl	utils_map
 1629              	.LVL173:
 1630 09f8 B0EE40AA 		vmov.f32	s20, s0
 1631              	.LVL174:
 1632              	.LBE84:
 1633              		.loc 1 550 0
 1634 09fc B8F1000F 		cmp	r8, #0
 1635 0a00 3FF4F0AE 		beq	.L95
 1636 0a04 35E7     		b	.L97
 1637              	.LVL175:
 1638              	.L227:
 1639              	.LBE149:
 1640              		.loc 1 499 0
 1641 0a06 B0EE4A0A 		vmov.f32	s0, s20
 1642 0a0a FFF7FEFF 		bl	mc_interface_set_brake_current_rel
 1643              	.LVL176:
 1644              	.LBB150:
 1645              		.loc 1 502 0
 1646 0a0e 0025     		movs	r5, #0
 1647              	.LVL177:
 1648 0a10 02E0     		b	.L92
 1649              	.LVL178:
 1650              	.L90:
 1651              		.loc 1 502 0 is_stmt 0 discriminator 2
 1652 0a12 0A2D     		cmp	r5, #10
 1653 0a14 3FF41EAB 		beq	.L4
ARM GAS  /tmp/cckXMKaQ.s 			page 30


 1654              	.LVL179:
 1655              	.L92:
 1656              	.LBB151:
 1657              		.loc 1 503 0 is_stmt 1
 1658 0a18 2846     		mov	r0, r5
 1659 0a1a FFF7FEFF 		bl	comm_can_get_status_msg_index
 1660              	.LVL180:
 1661              		.loc 1 505 0
 1662 0a1e 0268     		ldr	r2, [r0]
 1663 0a20 002A     		cmp	r2, #0
 1664              	.LBE151:
 1665              		.loc 1 502 0
 1666 0a22 05F10105 		add	r5, r5, #1
 1667              	.LVL181:
 1668              	.LBB156:
 1669              		.loc 1 505 0
 1670 0a26 F4DB     		blt	.L90
 1671              	.LBB152:
 1672              	.LBB153:
 1673              		.loc 3 267 0 discriminator 1
 1674 0a28 4168     		ldr	r1, [r0, #4]
 1675              	.LBB154:
 1676              	.LBB155:
 1677              		.loc 3 231 0 discriminator 1
 1678 0a2a D9F82830 		ldr	r3, [r9, #40]
 1679              	.LVL182:
 1680              	.LBE155:
 1681              	.LBE154:
 1682              		.loc 3 267 0 discriminator 1
 1683 0a2e 5B1A     		subs	r3, r3, r1
 1684              	.LBE153:
 1685              	.LBE152:
 1686              		.loc 1 505 0 discriminator 1
 1687 0a30 07EE903A 		vmov	s15, r3	@ int
 1688 0a34 F8EE677A 		vcvt.f32.u32	s15, s15
 1689 0a38 87EEA87A 		vdiv.f32	s14, s15, s17
 1690 0a3c B4EEE97A 		vcmpe.f32	s14, s19
 1691 0a40 F1EE10FA 		vmrs	APSR_nzcv, FPSCR
 1692 0a44 E5D5     		bpl	.L90
 1693              		.loc 1 506 0
 1694 0a46 D0B2     		uxtb	r0, r2
 1695              	.LVL183:
 1696 0a48 B0EE4A0A 		vmov.f32	s0, s20
 1697 0a4c FFF7FEFF 		bl	comm_can_set_current_brake_rel
 1698              	.LVL184:
 1699 0a50 DFE7     		b	.L90
 1700              	.LVL185:
 1701              	.L228:
 1702              	.LBE156:
 1703              	.LBE150:
 1704              	.LBB157:
 1705              		.loc 1 521 0
 1706 0a52 F0EE4ABA 		vmov.f32	s23, s20
 1707 0a56 7EE7     		b	.L98
 1708              	.L236:
 1709              		.align	2
 1710              	.L235:
ARM GAS  /tmp/cckXMKaQ.s 			page 31


 1711 0a58 00000000 		.word	.LANCHOR17
 1712 0a5c 00000000 		.word	0
 1713 0a60 6F12833A 		.word	981668463
 1714 0a64 00000000 		.word	.LANCHOR18
 1715 0a68 00000000 		.word	.LANCHOR19
 1716 0a6c 00000000 		.word	.LANCHOR16
 1717              	.LBE157:
 1718              	.LBE160:
 1719              		.cfi_endproc
 1720              	.LFE263:
 1721              		.size	adc_thread, .-adc_thread
 1722              		.section	.text.app_adc_configure,"ax",%progbits
 1723              		.align	1
 1724              		.p2align 4,,15
 1725              		.global	app_adc_configure
 1726              		.syntax unified
 1727              		.thumb
 1728              		.thumb_func
 1729              		.fpu fpv4-sp-d16
 1730              		.type	app_adc_configure, %function
 1731              	app_adc_configure:
 1732              	.LFB256:
 1733              		.loc 1 53 0
 1734              		.cfi_startproc
 1735              		@ args = 0, pretend = 0, frame = 0
 1736              		@ frame_needed = 0, uses_anonymous_args = 0
 1737              	.LVL186:
 1738 0000 08B5     		push	{r3, lr}
 1739              		.cfi_def_cfa_offset 8
 1740              		.cfi_offset 3, -8
 1741              		.cfi_offset 14, -4
 1742              		.loc 1 54 0
 1743 0002 0146     		mov	r1, r0
 1744 0004 4422     		movs	r2, #68
 1745 0006 0348     		ldr	r0, .L239
 1746              	.LVL187:
 1747 0008 FFF7FEFF 		bl	memcpy
 1748              	.LVL188:
 1749              		.loc 1 55 0
 1750 000c 024B     		ldr	r3, .L239+4
 1751 000e 0022     		movs	r2, #0
 1752 0010 1A60     		str	r2, [r3]	@ float
 1753              		.loc 1 56 0
 1754 0012 08BD     		pop	{r3, pc}
 1755              	.L240:
 1756              		.align	2
 1757              	.L239:
 1758 0014 00000000 		.word	.LANCHOR2
 1759 0018 00000000 		.word	.LANCHOR4
 1760              		.cfi_endproc
 1761              	.LFE256:
 1762              		.size	app_adc_configure, .-app_adc_configure
 1763              		.section	.text.app_adc_start,"ax",%progbits
 1764              		.align	1
 1765              		.p2align 4,,15
 1766              		.global	app_adc_start
 1767              		.syntax unified
ARM GAS  /tmp/cckXMKaQ.s 			page 32


 1768              		.thumb
 1769              		.thumb_func
 1770              		.fpu fpv4-sp-d16
 1771              		.type	app_adc_start, %function
 1772              	app_adc_start:
 1773              	.LFB257:
 1774              		.loc 1 58 0
 1775              		.cfi_startproc
 1776              		@ args = 0, pretend = 0, frame = 0
 1777              		@ frame_needed = 0, uses_anonymous_args = 0
 1778              	.LVL189:
 1779 0000 30B5     		push	{r4, r5, lr}
 1780              		.cfi_def_cfa_offset 12
 1781              		.cfi_offset 4, -12
 1782              		.cfi_offset 5, -8
 1783              		.cfi_offset 14, -4
 1784              		.loc 1 59 0
 1785 0002 0849     		ldr	r1, .L243
 1786              		.loc 1 60 0
 1787 0004 084D     		ldr	r5, .L243+4
 1788              		.loc 1 61 0
 1789 0006 094B     		ldr	r3, .L243+8
 1790              		.loc 1 58 0
 1791 0008 83B0     		sub	sp, sp, #12
 1792              		.cfi_def_cfa_offset 24
 1793              		.loc 1 60 0
 1794 000a 0024     		movs	r4, #0
 1795              		.loc 1 61 0
 1796 000c 0094     		str	r4, [sp]
 1797 000e 4022     		movs	r2, #64
 1798              		.loc 1 59 0
 1799 0010 0870     		strb	r0, [r1]
 1800              		.loc 1 61 0
 1801 0012 4FF4B361 		mov	r1, #1432
 1802 0016 0648     		ldr	r0, .L243+12
 1803              	.LVL190:
 1804              		.loc 1 60 0
 1805 0018 2C70     		strb	r4, [r5]
 1806              	.LVL191:
 1807              		.loc 1 61 0
 1808 001a FFF7FEFF 		bl	chThdCreateStatic
 1809              	.LVL192:
 1810              		.loc 1 62 0
 1811 001e 03B0     		add	sp, sp, #12
 1812              		.cfi_def_cfa_offset 12
 1813              		@ sp needed
 1814 0020 30BD     		pop	{r4, r5, pc}
 1815              	.L244:
 1816 0022 00BF     		.align	2
 1817              	.L243:
 1818 0024 00000000 		.word	.LANCHOR0
 1819 0028 00000000 		.word	.LANCHOR3
 1820 002c 00000000 		.word	adc_thread
 1821 0030 00000000 		.word	.LANCHOR20
 1822              		.cfi_endproc
 1823              	.LFE257:
 1824              		.size	app_adc_start, .-app_adc_start
ARM GAS  /tmp/cckXMKaQ.s 			page 33


 1825              		.section	.text.app_adc_stop,"ax",%progbits
 1826              		.align	1
 1827              		.p2align 4,,15
 1828              		.global	app_adc_stop
 1829              		.syntax unified
 1830              		.thumb
 1831              		.thumb_func
 1832              		.fpu fpv4-sp-d16
 1833              		.type	app_adc_stop, %function
 1834              	app_adc_stop:
 1835              	.LFB258:
 1836              		.loc 1 64 0
 1837              		.cfi_startproc
 1838              		@ args = 0, pretend = 0, frame = 0
 1839              		@ frame_needed = 0, uses_anonymous_args = 0
 1840              		.loc 1 65 0
 1841 0000 064B     		ldr	r3, .L253
 1842              		.loc 1 64 0
 1843 0002 10B5     		push	{r4, lr}
 1844              		.cfi_def_cfa_offset 8
 1845              		.cfi_offset 4, -8
 1846              		.cfi_offset 14, -4
 1847              		.loc 1 65 0
 1848 0004 0122     		movs	r2, #1
 1849              		.loc 1 66 0
 1850 0006 064C     		ldr	r4, .L253+4
 1851              		.loc 1 65 0
 1852 0008 1A70     		strb	r2, [r3]
 1853              		.loc 1 66 0
 1854 000a 2378     		ldrb	r3, [r4]	@ zero_extendqisi2
 1855 000c 2BB1     		cbz	r3, .L245
 1856              	.L247:
 1857              		.loc 1 67 0
 1858 000e 0A20     		movs	r0, #10
 1859 0010 FFF7FEFF 		bl	chThdSleep
 1860              	.LVL193:
 1861              		.loc 1 66 0
 1862 0014 2378     		ldrb	r3, [r4]	@ zero_extendqisi2
 1863 0016 002B     		cmp	r3, #0
 1864 0018 F9D1     		bne	.L247
 1865              	.L245:
 1866              		.loc 1 69 0
 1867 001a 10BD     		pop	{r4, pc}
 1868              	.L254:
 1869              		.align	2
 1870              	.L253:
 1871 001c 00000000 		.word	.LANCHOR3
 1872 0020 00000000 		.word	.LANCHOR1
 1873              		.cfi_endproc
 1874              	.LFE258:
 1875              		.size	app_adc_stop, .-app_adc_stop
 1876              		.section	.text.app_adc_get_decoded_level,"ax",%progbits
 1877              		.align	1
 1878              		.p2align 4,,15
 1879              		.global	app_adc_get_decoded_level
 1880              		.syntax unified
 1881              		.thumb
ARM GAS  /tmp/cckXMKaQ.s 			page 34


 1882              		.thumb_func
 1883              		.fpu fpv4-sp-d16
 1884              		.type	app_adc_get_decoded_level, %function
 1885              	app_adc_get_decoded_level:
 1886              	.LFB259:
 1887              		.loc 1 71 0
 1888              		.cfi_startproc
 1889              		@ args = 0, pretend = 0, frame = 0
 1890              		@ frame_needed = 0, uses_anonymous_args = 0
 1891              		@ link register save eliminated.
 1892              		.loc 1 72 0
 1893 0000 014B     		ldr	r3, .L256
 1894 0002 93ED000A 		vldr.32	s0, [r3]
 1895              		.loc 1 73 0
 1896 0006 7047     		bx	lr
 1897              	.L257:
 1898              		.align	2
 1899              	.L256:
 1900 0008 00000000 		.word	.LANCHOR8
 1901              		.cfi_endproc
 1902              	.LFE259:
 1903              		.size	app_adc_get_decoded_level, .-app_adc_get_decoded_level
 1904              		.section	.text.app_adc_get_voltage,"ax",%progbits
 1905              		.align	1
 1906              		.p2align 4,,15
 1907              		.global	app_adc_get_voltage
 1908              		.syntax unified
 1909              		.thumb
 1910              		.thumb_func
 1911              		.fpu fpv4-sp-d16
 1912              		.type	app_adc_get_voltage, %function
 1913              	app_adc_get_voltage:
 1914              	.LFB260:
 1915              		.loc 1 75 0
 1916              		.cfi_startproc
 1917              		@ args = 0, pretend = 0, frame = 0
 1918              		@ frame_needed = 0, uses_anonymous_args = 0
 1919              		@ link register save eliminated.
 1920              		.loc 1 76 0
 1921 0000 014B     		ldr	r3, .L259
 1922 0002 93ED000A 		vldr.32	s0, [r3]
 1923              		.loc 1 77 0
 1924 0006 7047     		bx	lr
 1925              	.L260:
 1926              		.align	2
 1927              	.L259:
 1928 0008 00000000 		.word	.LANCHOR5
 1929              		.cfi_endproc
 1930              	.LFE260:
 1931              		.size	app_adc_get_voltage, .-app_adc_get_voltage
 1932              		.section	.text.app_adc_get_decoded_level2,"ax",%progbits
 1933              		.align	1
 1934              		.p2align 4,,15
 1935              		.global	app_adc_get_decoded_level2
 1936              		.syntax unified
 1937              		.thumb
 1938              		.thumb_func
ARM GAS  /tmp/cckXMKaQ.s 			page 35


 1939              		.fpu fpv4-sp-d16
 1940              		.type	app_adc_get_decoded_level2, %function
 1941              	app_adc_get_decoded_level2:
 1942              	.LFB261:
 1943              		.loc 1 79 0
 1944              		.cfi_startproc
 1945              		@ args = 0, pretend = 0, frame = 0
 1946              		@ frame_needed = 0, uses_anonymous_args = 0
 1947              		@ link register save eliminated.
 1948              		.loc 1 80 0
 1949 0000 014B     		ldr	r3, .L262
 1950 0002 93ED000A 		vldr.32	s0, [r3]
 1951              		.loc 1 81 0
 1952 0006 7047     		bx	lr
 1953              	.L263:
 1954              		.align	2
 1955              	.L262:
 1956 0008 00000000 		.word	.LANCHOR12
 1957              		.cfi_endproc
 1958              	.LFE261:
 1959              		.size	app_adc_get_decoded_level2, .-app_adc_get_decoded_level2
 1960              		.section	.text.app_adc_get_voltage2,"ax",%progbits
 1961              		.align	1
 1962              		.p2align 4,,15
 1963              		.global	app_adc_get_voltage2
 1964              		.syntax unified
 1965              		.thumb
 1966              		.thumb_func
 1967              		.fpu fpv4-sp-d16
 1968              		.type	app_adc_get_voltage2, %function
 1969              	app_adc_get_voltage2:
 1970              	.LFB262:
 1971              		.loc 1 83 0
 1972              		.cfi_startproc
 1973              		@ args = 0, pretend = 0, frame = 0
 1974              		@ frame_needed = 0, uses_anonymous_args = 0
 1975              		@ link register save eliminated.
 1976              		.loc 1 84 0
 1977 0000 014B     		ldr	r3, .L265
 1978 0002 93ED000A 		vldr.32	s0, [r3]
 1979              		.loc 1 85 0
 1980 0006 7047     		bx	lr
 1981              	.L266:
 1982              		.align	2
 1983              	.L265:
 1984 0008 00000000 		.word	.LANCHOR9
 1985              		.cfi_endproc
 1986              	.LFE262:
 1987              		.size	app_adc_get_voltage2, .-app_adc_get_voltage2
 1988              		.section	.bss.adc_thread_wa,"aw",%nobits
 1989              		.align	3
 1990              		.set	.LANCHOR20,. + 0
 1991              		.type	adc_thread_wa, %object
 1992              		.size	adc_thread_wa, 1432
 1993              	adc_thread_wa:
 1994 0000 00000000 		.space	1432
 1994      00000000 
ARM GAS  /tmp/cckXMKaQ.s 			page 36


 1994      00000000 
 1994      00000000 
 1994      00000000 
 1995              		.section	.bss.config,"aw",%nobits
 1996              		.align	2
 1997              		.set	.LANCHOR2,. + 0
 1998              		.type	config, %object
 1999              		.size	config, 68
 2000              	config:
 2001 0000 00000000 		.space	68
 2001      00000000 
 2001      00000000 
 2001      00000000 
 2001      00000000 
 2002              		.section	.bss.decoded_level,"aw",%nobits
 2003              		.align	2
 2004              		.set	.LANCHOR8,. + 0
 2005              		.type	decoded_level, %object
 2006              		.size	decoded_level, 4
 2007              	decoded_level:
 2008 0000 00000000 		.space	4
 2009              		.section	.bss.decoded_level2,"aw",%nobits
 2010              		.align	2
 2011              		.set	.LANCHOR12,. + 0
 2012              		.type	decoded_level2, %object
 2013              		.size	decoded_level2, 4
 2014              	decoded_level2:
 2015 0000 00000000 		.space	4
 2016              		.section	.bss.filter_buffer.11752,"aw",%nobits
 2017              		.align	2
 2018              		.set	.LANCHOR7,. + 0
 2019              		.type	filter_buffer.11752, %object
 2020              		.size	filter_buffer.11752, 20
 2021              	filter_buffer.11752:
 2022 0000 00000000 		.space	20
 2022      00000000 
 2022      00000000 
 2022      00000000 
 2022      00000000 
 2023              		.section	.bss.filter_buffer.11822,"aw",%nobits
 2024              		.align	2
 2025              		.set	.LANCHOR17,. + 0
 2026              		.type	filter_buffer.11822, %object
 2027              		.size	filter_buffer.11822, 32
 2028              	filter_buffer.11822:
 2029 0000 00000000 		.space	32
 2029      00000000 
 2029      00000000 
 2029      00000000 
 2029      00000000 
 2030              		.section	.bss.filter_buffer2.11766,"aw",%nobits
 2031              		.align	2
 2032              		.set	.LANCHOR11,. + 0
 2033              		.type	filter_buffer2.11766, %object
 2034              		.size	filter_buffer2.11766, 20
 2035              	filter_buffer2.11766:
 2036 0000 00000000 		.space	20
ARM GAS  /tmp/cckXMKaQ.s 			page 37


 2036      00000000 
 2036      00000000 
 2036      00000000 
 2036      00000000 
 2037              		.section	.bss.filter_ptr.11753,"aw",%nobits
 2038              		.align	2
 2039              		.set	.LANCHOR6,. + 0
 2040              		.type	filter_ptr.11753, %object
 2041              		.size	filter_ptr.11753, 4
 2042              	filter_ptr.11753:
 2043 0000 00000000 		.space	4
 2044              		.section	.bss.filter_ptr.11823,"aw",%nobits
 2045              		.align	2
 2046              		.set	.LANCHOR16,. + 0
 2047              		.type	filter_ptr.11823, %object
 2048              		.size	filter_ptr.11823, 4
 2049              	filter_ptr.11823:
 2050 0000 00000000 		.space	4
 2051              		.section	.bss.filter_ptr2.11767,"aw",%nobits
 2052              		.align	2
 2053              		.set	.LANCHOR10,. + 0
 2054              		.type	filter_ptr2.11767, %object
 2055              		.size	filter_ptr2.11767, 4
 2056              	filter_ptr2.11767:
 2057 0000 00000000 		.space	4
 2058              		.section	.bss.is_running,"aw",%nobits
 2059              		.set	.LANCHOR1,. + 0
 2060              		.type	is_running, %object
 2061              		.size	is_running, 1
 2062              	is_running:
 2063 0000 00       		.space	1
 2064              		.section	.bss.last_time.11788,"aw",%nobits
 2065              		.align	2
 2066              		.set	.LANCHOR14,. + 0
 2067              		.type	last_time.11788, %object
 2068              		.size	last_time.11788, 4
 2069              	last_time.11788:
 2070 0000 00000000 		.space	4
 2071              		.section	.bss.ms_without_power,"aw",%nobits
 2072              		.align	2
 2073              		.set	.LANCHOR4,. + 0
 2074              		.type	ms_without_power, %object
 2075              		.size	ms_without_power, 4
 2076              	ms_without_power:
 2077 0000 00000000 		.space	4
 2078              		.section	.bss.pid_rpm.11829,"aw",%nobits
 2079              		.align	2
 2080              		.set	.LANCHOR19,. + 0
 2081              		.type	pid_rpm.11829, %object
 2082              		.size	pid_rpm.11829, 4
 2083              	pid_rpm.11829:
 2084 0000 00000000 		.space	4
 2085              		.section	.bss.pulses_without_power_before.11815,"aw",%nobits
 2086              		.align	2
 2087              		.set	.LANCHOR15,. + 0
 2088              		.type	pulses_without_power_before.11815, %object
 2089              		.size	pulses_without_power_before.11815, 4
ARM GAS  /tmp/cckXMKaQ.s 			page 38


 2090              	pulses_without_power_before.11815:
 2091 0000 00000000 		.space	4
 2092              		.section	.bss.pwr_ramp.11789,"aw",%nobits
 2093              		.align	2
 2094              		.set	.LANCHOR13,. + 0
 2095              		.type	pwr_ramp.11789, %object
 2096              		.size	pwr_ramp.11789, 4
 2097              	pwr_ramp.11789:
 2098 0000 00000000 		.space	4
 2099              		.section	.bss.read_voltage,"aw",%nobits
 2100              		.align	2
 2101              		.set	.LANCHOR5,. + 0
 2102              		.type	read_voltage, %object
 2103              		.size	read_voltage, 4
 2104              	read_voltage:
 2105 0000 00000000 		.space	4
 2106              		.section	.bss.read_voltage2,"aw",%nobits
 2107              		.align	2
 2108              		.set	.LANCHOR9,. + 0
 2109              		.type	read_voltage2, %object
 2110              		.size	read_voltage2, 4
 2111              	read_voltage2:
 2112 0000 00000000 		.space	4
 2113              		.section	.bss.use_rx_tx_as_buttons,"aw",%nobits
 2114              		.set	.LANCHOR0,. + 0
 2115              		.type	use_rx_tx_as_buttons, %object
 2116              		.size	use_rx_tx_as_buttons, 1
 2117              	use_rx_tx_as_buttons:
 2118 0000 00       		.space	1
 2119              		.section	.bss.was_pid.11821,"aw",%nobits
 2120              		.set	.LANCHOR18,. + 0
 2121              		.type	was_pid.11821, %object
 2122              		.size	was_pid.11821, 1
 2123              	was_pid.11821:
 2124 0000 00       		.space	1
 2125              		.section	.data.stop_now,"aw",%progbits
 2126              		.set	.LANCHOR3,. + 0
 2127              		.type	stop_now, %object
 2128              		.size	stop_now, 1
 2129              	stop_now:
 2130 0000 01       		.byte	1
 2131              		.section	.rodata.adc_thread.str1.4,"aMS",%progbits,1
 2132              		.align	2
 2133              	.LC0:
 2134 0000 4150505F 		.ascii	"APP_ADC\000"
 2134      41444300 
 2135              		.text
 2136              	.Letext0:
 2137              		.file 4 "/usr/arm-none-eabi/include/machine/_default_types.h"
 2138              		.file 5 "/usr/arm-none-eabi/include/sys/_stdint.h"
 2139              		.file 6 "/usr/lib/gcc/arm-none-eabi/7.3.1/include/stddef.h"
 2140              		.file 7 "ChibiOS_3.0.2/os/rt/ports/ARMCMx/compilers/GCC/chtypes.h"
 2141              		.file 8 "ChibiOS_3.0.2/os/rt/include/chsystypes.h"
 2142              		.file 9 "ChibiOS_3.0.2/os/rt/include/chschd.h"
 2143              		.file 10 "ChibiOS_3.0.2/os/ext/CMSIS/include/core_cm4.h"
 2144              		.file 11 "ChibiOS_3.0.2/os/ext/CMSIS/ST/system_stm32f4xx.h"
 2145              		.file 12 "ChibiOS_3.0.2/os/ext/CMSIS/ST/stm32f407xx.h"
ARM GAS  /tmp/cckXMKaQ.s 			page 39


 2146              		.file 13 "ChibiOS_3.0.2/os/rt/ports/ARMCMx/chcore.h"
 2147              		.file 14 "ChibiOS_3.0.2/os/rt/ports/ARMCMx/chcore_v7m.h"
 2148              		.file 15 "ChibiOS_3.0.2/os/rt/include/chtm.h"
 2149              		.file 16 "ChibiOS_3.0.2/os/rt/include/chsem.h"
 2150              		.file 17 "ChibiOS_3.0.2/os/rt/include/chmtx.h"
 2151              		.file 18 "ChibiOS_3.0.2/os/rt/include/chevents.h"
 2152              		.file 19 "ChibiOS_3.0.2/os/rt/include/chqueues.h"
 2153              		.file 20 "./datatypes.h"
 2154              		.file 21 "./conf_general.h"
 2155              		.file 22 "ChibiOS_3.0.2/os/hal/ports/STM32/STM32F4xx/stm32_dma.h"
 2156              		.file 23 "ChibiOS_3.0.2/os/hal/ports/STM32/LLD/GPIOv2/pal_lld.h"
 2157              		.file 24 "ChibiOS_3.0.2/os/hal/include/can.h"
 2158              		.file 25 "ChibiOS_3.0.2/os/hal/ports/STM32/LLD/can_lld.h"
 2159              		.file 26 "ChibiOS_3.0.2/os/hal/include/i2c.h"
 2160              		.file 27 "ChibiOS_3.0.2/os/hal/ports/STM32/LLD/I2Cv1/i2c_lld.h"
 2161              		.file 28 "ChibiOS_3.0.2/os/hal/include/icu.h"
 2162              		.file 29 "ChibiOS_3.0.2/os/hal/ports/STM32/LLD/TIMv1/icu_lld.h"
 2163              		.file 30 "ChibiOS_3.0.2/os/hal/ports/STM32/LLD/TIMv1/stm32_tim.h"
 2164              		.file 31 "ChibiOS_3.0.2/os/hal/include/serial.h"
 2165              		.file 32 "ChibiOS_3.0.2/os/hal/ports/STM32/LLD/USARTv1/serial_lld.h"
 2166              		.file 33 "ChibiOS_3.0.2/os/hal/include/spi.h"
 2167              		.file 34 "ChibiOS_3.0.2/os/hal/ports/STM32/LLD/SPIv1/spi_lld.h"
 2168              		.file 35 "ChibiOS_3.0.2/os/hal/include/usb.h"
 2169              		.file 36 "ChibiOS_3.0.2/os/hal/ports/STM32/LLD/OTGv1/usb_lld.h"
 2170              		.file 37 "ChibiOS_3.0.2/os/hal/ports/STM32/LLD/OTGv1/stm32_otg.h"
 2171              		.file 38 "./mc_interface.h"
 2172              		.file 39 "/usr/arm-none-eabi/include/sys/lock.h"
 2173              		.file 40 "/usr/arm-none-eabi/include/sys/_types.h"
 2174              		.file 41 "/usr/arm-none-eabi/include/sys/reent.h"
 2175              		.file 42 "/usr/arm-none-eabi/include/math.h"
 2176              		.file 43 "./utils.h"
 2177              		.file 44 "./comm_can.h"
 2178              		.file 45 "./timeout.h"
 2179              		.file 46 "ChibiOS_3.0.2/os/rt/include/chthreads.h"
 2180              		.file 47 "applications/app.h"
 2181              		.file 48 "<built-in>"