ARM GAS  /tmp/ccxuzuSP.s 			page 1


   1              		.cpu cortex-m4
   2              		.eabi_attribute 27, 1
   3              		.eabi_attribute 28, 1
   4              		.eabi_attribute 20, 1
   5              		.eabi_attribute 21, 1
   6              		.eabi_attribute 23, 3
   7              		.eabi_attribute 24, 1
   8              		.eabi_attribute 25, 1
   9              		.eabi_attribute 26, 1
  10              		.eabi_attribute 30, 2
  11              		.eabi_attribute 34, 1
  12              		.eabi_attribute 18, 4
  13              		.file	"commands.c"
  14              		.text
  15              	.Ltext0:
  16              		.cfi_sections	.debug_frame
  17              		.section	.text.commands_send_packet,"ax",%progbits
  18              		.align	1
  19              		.p2align 4,,15
  20              		.global	commands_send_packet
  21              		.syntax unified
  22              		.thumb
  23              		.thumb_func
  24              		.fpu fpv4-sp-d16
  25              		.type	commands_send_packet, %function
  26              	commands_send_packet:
  27              	.LFB260:
  28              		.file 1 "commands.c"
  29              		.loc 1 88 0
  30              		.cfi_startproc
  31              		@ args = 0, pretend = 0, frame = 0
  32              		@ frame_needed = 0, uses_anonymous_args = 0
  33              		@ link register save eliminated.
  34              	.LVL0:
  35              		.loc 1 89 0
  36 0000 024B     		ldr	r3, .L4
  37 0002 1A68     		ldr	r2, [r3]
  38 0004 0AB1     		cbz	r2, .L1
  39              		.loc 1 90 0
  40 0006 1B68     		ldr	r3, [r3]
  41 0008 1847     		bx	r3	@ indirect register sibling call
  42              	.LVL1:
  43              	.L1:
  44              		.loc 1 92 0
  45 000a 7047     		bx	lr
  46              	.L5:
  47              		.align	2
  48              	.L4:
  49 000c 00000000 		.word	.LANCHOR0
  50              		.cfi_endproc
  51              	.LFE260:
  52              		.size	commands_send_packet, .-commands_send_packet
  53              		.section	.text.blocking_thread,"ax",%progbits
  54              		.align	1
  55              		.p2align 4,,15
  56              		.syntax unified
  57              		.thumb
ARM GAS  /tmp/ccxuzuSP.s 			page 2


  58              		.thumb_func
  59              		.fpu fpv4-sp-d16
  60              		.type	blocking_thread, %function
  61              	blocking_thread:
  62              	.LFB274:
  63              		.loc 1 1121 0
  64              		.cfi_startproc
  65              		@ args = 0, pretend = 0, frame = 32
  66              		@ frame_needed = 0, uses_anonymous_args = 0
  67              	.LVL2:
  68 0000 2DE9F04F 		push	{r4, r5, r6, r7, r8, r9, r10, fp, lr}
  69              		.cfi_def_cfa_offset 36
  70              		.cfi_offset 4, -36
  71              		.cfi_offset 5, -32
  72              		.cfi_offset 6, -28
  73              		.cfi_offset 7, -24
  74              		.cfi_offset 8, -20
  75              		.cfi_offset 9, -16
  76              		.cfi_offset 10, -12
  77              		.cfi_offset 11, -8
  78              		.cfi_offset 14, -4
  79              	.LBB148:
  80              	.LBB149:
  81              		.file 2 "ChibiOS_3.0.2/os/rt/include/chregistry.h"
  82              		.loc 2 135 0
  83 0004 A24B     		ldr	r3, .L106
  84              	.LBE149:
  85              	.LBE148:
  86              		.loc 1 1126 0
  87 0006 A34A     		ldr	r2, .L106+4
  88              	.LBB152:
  89              	.LBB150:
  90              		.loc 2 135 0
  91 0008 9B69     		ldr	r3, [r3, #24]
  92 000a A349     		ldr	r1, .L106+8
  93 000c A34F     		ldr	r7, .L106+12
  94 000e A44D     		ldr	r5, .L106+16
  95 0010 DFF8B092 		ldr	r9, .L106+52
  96 0014 A34E     		ldr	r6, .L106+20
  97 0016 DFF8B082 		ldr	r8, .L106+56
  98              	.LBE150:
  99              	.LBE152:
 100              		.loc 1 1121 0
 101 001a 2DED0A8B 		vpush.64	{d8, d9, d10, d11, d12}
 102              		.cfi_def_cfa_offset 76
 103              		.cfi_offset 80, -76
 104              		.cfi_offset 81, -72
 105              		.cfi_offset 82, -68
 106              		.cfi_offset 83, -64
 107              		.cfi_offset 84, -60
 108              		.cfi_offset 85, -56
 109              		.cfi_offset 86, -52
 110              		.cfi_offset 87, -48
 111              		.cfi_offset 88, -44
 112              		.cfi_offset 89, -40
 113              	.LBB153:
 114              	.LBB154:
ARM GAS  /tmp/ccxuzuSP.s 			page 3


 115              		.loc 1 1326 0
 116 001e 9FEDA28A 		vldr.32	s16, .L106+24
 117              	.LBE154:
 118              	.LBB155:
 119              		.loc 1 1306 0
 120 0022 9FEDA29A 		vldr.32	s18, .L106+28
 121              		.loc 1 1317 0
 122 0026 DFEDA29A 		vldr.32	s19, .L106+32
 123              		.loc 1 1312 0
 124 002a DFEDA28A 		vldr.32	s17, .L106+36
 125              	.LBE155:
 126              	.LBB156:
 127              		.loc 1 1271 0
 128 002e DFEDA2CA 		vldr.32	s25, .L106+40
 129              		.loc 1 1272 0
 130 0032 9FEDA2CA 		vldr.32	s24, .L106+44
 131              	.LBE156:
 132              	.LBE153:
 133              	.LBB178:
 134              	.LBB151:
 135              		.loc 2 135 0
 136 0036 9961     		str	r1, [r3, #24]
 137              	.LVL3:
 138              	.LBE151:
 139              	.LBE178:
 140              		.loc 1 1121 0
 141 0038 89B0     		sub	sp, sp, #36
 142              		.cfi_def_cfa_offset 112
 143              		.loc 1 1126 0
 144 003a 1360     		str	r3, [r2]
 145              	.LVL4:
 146              	.L49:
 147              	.LBB179:
 148              		.loc 1 1129 0
 149 003c 0120     		movs	r0, #1
 150 003e FFF7FEFF 		bl	chEvtWaitAny
 151              	.LVL5:
 152              		.loc 1 1141 0
 153 0042 3B78     		ldrb	r3, [r7]	@ zero_extendqisi2
 154              		.loc 1 1132 0
 155 0044 D9F80040 		ldr	r4, [r9]
 156              	.LVL6:
 157              		.loc 1 1141 0
 158 0048 143B     		subs	r3, r3, #20
 159 004a 322B     		cmp	r3, #50
 160 004c 3ED8     		bhi	.L7
 161 004e DFE813F0 		tbh	[pc, r3, lsl #1]
 162              	.L9:
 163 0052 C101     		.2byte	(.L8-.L9)/2
 164 0054 3D00     		.2byte	(.L7-.L9)/2
 165 0056 3D00     		.2byte	(.L7-.L9)/2
 166 0058 3D00     		.2byte	(.L7-.L9)/2
 167 005a CE01     		.2byte	(.L10-.L9)/2
 168 005c 8601     		.2byte	(.L11-.L9)/2
 169 005e 8202     		.2byte	(.L12-.L9)/2
 170 0060 2502     		.2byte	(.L13-.L9)/2
 171 0062 3D01     		.2byte	(.L14-.L9)/2
ARM GAS  /tmp/ccxuzuSP.s 			page 4


 172 0064 3D00     		.2byte	(.L7-.L9)/2
 173 0066 3D00     		.2byte	(.L7-.L9)/2
 174 0068 3D00     		.2byte	(.L7-.L9)/2
 175 006a 3D00     		.2byte	(.L7-.L9)/2
 176 006c 3D00     		.2byte	(.L7-.L9)/2
 177 006e 3D00     		.2byte	(.L7-.L9)/2
 178 0070 3D00     		.2byte	(.L7-.L9)/2
 179 0072 3D00     		.2byte	(.L7-.L9)/2
 180 0074 3D00     		.2byte	(.L7-.L9)/2
 181 0076 3D00     		.2byte	(.L7-.L9)/2
 182 0078 3D00     		.2byte	(.L7-.L9)/2
 183 007a 3D00     		.2byte	(.L7-.L9)/2
 184 007c 3D00     		.2byte	(.L7-.L9)/2
 185 007e 3D00     		.2byte	(.L7-.L9)/2
 186 0080 3D00     		.2byte	(.L7-.L9)/2
 187 0082 3D00     		.2byte	(.L7-.L9)/2
 188 0084 3D00     		.2byte	(.L7-.L9)/2
 189 0086 3D00     		.2byte	(.L7-.L9)/2
 190 0088 3D00     		.2byte	(.L7-.L9)/2
 191 008a 3D00     		.2byte	(.L7-.L9)/2
 192 008c 3D00     		.2byte	(.L7-.L9)/2
 193 008e 3D00     		.2byte	(.L7-.L9)/2
 194 0090 3D00     		.2byte	(.L7-.L9)/2
 195 0092 3D00     		.2byte	(.L7-.L9)/2
 196 0094 3D00     		.2byte	(.L7-.L9)/2
 197 0096 3D00     		.2byte	(.L7-.L9)/2
 198 0098 3D00     		.2byte	(.L7-.L9)/2
 199 009a 3D00     		.2byte	(.L7-.L9)/2
 200 009c DB00     		.2byte	(.L15-.L9)/2
 201 009e 9200     		.2byte	(.L16-.L9)/2
 202 00a0 3D00     		.2byte	(.L7-.L9)/2
 203 00a2 3D00     		.2byte	(.L7-.L9)/2
 204 00a4 3D00     		.2byte	(.L7-.L9)/2
 205 00a6 7B00     		.2byte	(.L17-.L9)/2
 206 00a8 3D00     		.2byte	(.L7-.L9)/2
 207 00aa 3D00     		.2byte	(.L7-.L9)/2
 208 00ac 3D00     		.2byte	(.L7-.L9)/2
 209 00ae 7400     		.2byte	(.L18-.L9)/2
 210 00b0 6D00     		.2byte	(.L19-.L9)/2
 211 00b2 5400     		.2byte	(.L20-.L9)/2
 212 00b4 4100     		.2byte	(.L21-.L9)/2
 213 00b6 3300     		.2byte	(.L22-.L9)/2
 214              		.p2align 1
 215              	.L22:
 216              	.LBB157:
 217              		.loc 1 1408 0
 218 00b8 FFF7FEFF 		bl	bm_disconnect
 219              	.LVL7:
 220              		.loc 1 1412 0
 221 00bc 3368     		ldr	r3, [r6]
 222              		.loc 1 1411 0
 223 00be 4622     		movs	r2, #70
 224 00c0 2A70     		strb	r2, [r5]
 225              		.loc 1 1412 0
 226 00c2 1BB1     		cbz	r3, .L7
 227              		.loc 1 1413 0
 228 00c4 3368     		ldr	r3, [r6]
ARM GAS  /tmp/ccxuzuSP.s 			page 5


 229 00c6 7648     		ldr	r0, .L106+16
 230 00c8 0121     		movs	r1, #1
 231 00ca 9847     		blx	r3
 232              	.LVL8:
 233              	.L7:
 234              	.LBE157:
 235              		.loc 1 1422 0
 236 00cc 0023     		movs	r3, #0
 237 00ce 88F80030 		strb	r3, [r8]
 238              	.LBE179:
 239              		.loc 1 1128 0
 240 00d2 B3E7     		b	.L49
 241              	.LVL9:
 242              	.L21:
 243              	.LBB180:
 244              	.LBB158:
 245              		.loc 1 1400 0
 246 00d4 0122     		movs	r2, #1
 247 00d6 4523     		movs	r3, #69
 248 00d8 0692     		str	r2, [sp, #24]
 249 00da 2B70     		strb	r3, [r5]
 250              		.loc 1 1401 0
 251 00dc FFF7FEFF 		bl	bm_reboot
 252              	.LVL10:
 253              	.L104:
 254 00e0 01B2     		sxth	r1, r0
 255 00e2 06AA     		add	r2, sp, #24
 256 00e4 6E48     		ldr	r0, .L106+16
 257 00e6 FFF7FEFF 		bl	buffer_append_int16
 258              	.LVL11:
 259              		.loc 1 1402 0
 260 00ea 3368     		ldr	r3, [r6]
 261 00ec 002B     		cmp	r3, #0
 262 00ee EDD0     		beq	.L7
 263              	.LVL12:
 264              	.L99:
 265              		.loc 1 1403 0
 266 00f0 3368     		ldr	r3, [r6]
 267 00f2 0699     		ldr	r1, [sp, #24]
 268 00f4 6A48     		ldr	r0, .L106+16
 269 00f6 9847     		blx	r3
 270              	.LVL13:
 271              	.LBE158:
 272              		.loc 1 1405 0
 273 00f8 E8E7     		b	.L7
 274              	.LVL14:
 275              	.L20:
 276              	.LBB159:
 277              		.loc 1 1385 0
 278 00fa 0023     		movs	r3, #0
 279              		.loc 1 1386 0
 280 00fc 06A9     		add	r1, sp, #24
 281 00fe 7048     		ldr	r0, .L106+48
 282              		.loc 1 1385 0
 283 0100 0693     		str	r3, [sp, #24]
 284              		.loc 1 1386 0
 285 0102 FFF7FEFF 		bl	buffer_get_uint32
ARM GAS  /tmp/ccxuzuSP.s 			page 6


 286              	.LVL15:
 287              		.loc 1 1388 0
 288 0106 0699     		ldr	r1, [sp, #24]
 289 0108 6D4B     		ldr	r3, .L106+48
 290 010a 621A     		subs	r2, r4, r1
 291 010c 1944     		add	r1, r1, r3
 292 010e FFF7FEFF 		bl	bm_write_flash
 293              	.LVL16:
 294              		.loc 1 1391 0
 295 0112 0124     		movs	r4, #1
 296              	.LVL17:
 297 0114 4423     		movs	r3, #68
 298              		.loc 1 1392 0
 299 0116 01B2     		sxth	r1, r0
 300 0118 06AA     		add	r2, sp, #24
 301 011a 6148     		ldr	r0, .L106+16
 302              	.LVL18:
 303              		.loc 1 1391 0
 304 011c 2B70     		strb	r3, [r5]
 305 011e 0694     		str	r4, [sp, #24]
 306              		.loc 1 1392 0
 307 0120 FFF7FEFF 		bl	buffer_append_int16
 308              	.LVL19:
 309              		.loc 1 1393 0
 310 0124 3368     		ldr	r3, [r6]
 311 0126 002B     		cmp	r3, #0
 312 0128 E2D1     		bne	.L99
 313 012a CFE7     		b	.L7
 314              	.LVL20:
 315              	.L19:
 316              	.LBE159:
 317              	.LBB160:
 318              		.loc 1 1377 0
 319 012c 0122     		movs	r2, #1
 320 012e 4323     		movs	r3, #67
 321 0130 0692     		str	r2, [sp, #24]
 322 0132 2B70     		strb	r3, [r5]
 323              		.loc 1 1378 0
 324 0134 FFF7FEFF 		bl	bm_erase_flash_all
 325              	.LVL21:
 326 0138 D2E7     		b	.L104
 327              	.LVL22:
 328              	.L18:
 329              	.LBE160:
 330              	.LBB161:
 331              		.loc 1 1368 0
 332 013a 0122     		movs	r2, #1
 333 013c 4223     		movs	r3, #66
 334 013e 0692     		str	r2, [sp, #24]
 335 0140 2B70     		strb	r3, [r5]
 336              		.loc 1 1369 0
 337 0142 FFF7FEFF 		bl	bm_connect
 338              	.LVL23:
 339 0146 CBE7     		b	.L104
 340              	.LVL24:
 341              	.L17:
 342              	.LBE161:
ARM GAS  /tmp/ccxuzuSP.s 			page 7


 343              	.LBB162:
 344              		.loc 1 1352 0
 345 0148 3E23     		movs	r3, #62
 346 014a 2B70     		strb	r3, [r5]
 347              	.LVL25:
 348 014c 0024     		movs	r4, #0
 349              	.LVL26:
 350 014e 4FF0010B 		mov	fp, #1
 351              	.LVL27:
 352              	.L43:
 353 0152 5FFA84FA 		uxtb	r10, r4
 354              	.LVL28:
 355              	.LBB163:
 356              		.loc 1 1355 0
 357 0156 5046     		mov	r0, r10
 358 0158 FFF7FEFF 		bl	comm_can_ping
 359              	.LVL29:
 360 015c 0134     		adds	r4, r4, #1
 361              	.LVL30:
 362 015e 18B1     		cbz	r0, .L42
 363              		.loc 1 1356 0
 364 0160 05F80BA0 		strb	r10, [r5, fp]
 365 0164 0BF1010B 		add	fp, fp, #1
 366              	.LVL31:
 367              	.L42:
 368              		.loc 1 1354 0 discriminator 2
 369 0168 FF2C     		cmp	r4, #255
 370 016a F2D1     		bne	.L43
 371              	.LBE163:
 372              		.loc 1 1360 0
 373 016c 3368     		ldr	r3, [r6]
 374 016e 002B     		cmp	r3, #0
 375 0170 ACD0     		beq	.L7
 376              		.loc 1 1361 0
 377 0172 5946     		mov	r1, fp
 378 0174 EBE1     		b	.L98
 379              	.LVL32:
 380              	.L16:
 381              	.LBE162:
 382              	.LBB164:
 383              		.loc 1 1325 0
 384 0176 7C78     		ldrb	r4, [r7, #1]	@ zero_extendqisi2
 385              	.LVL33:
 386              		.loc 1 1326 0
 387 0178 5148     		ldr	r0, .L106+48
 388              		.loc 1 1325 0
 389 017a 0034     		adds	r4, r4, #0
 390 017c 4FF0010A 		mov	r10, #1
 391              		.loc 1 1326 0
 392 0180 06A9     		add	r1, sp, #24
 393 0182 B0EE480A 		vmov.f32	s0, s16
 394              		.loc 1 1325 0
 395 0186 18BF     		it	ne
 396 0188 0124     		movne	r4, #1
 397              	.LVL34:
 398 018a CDF818A0 		str	r10, [sp, #24]
 399              		.loc 1 1326 0
ARM GAS  /tmp/ccxuzuSP.s 			page 8


 400 018e FFF7FEFF 		bl	buffer_get_float32
 401              	.LVL35:
 402              		.loc 1 1327 0
 403 0192 06A9     		add	r1, sp, #24
 404              		.loc 1 1326 0
 405 0194 B0EE40AA 		vmov.f32	s20, s0
 406              	.LVL36:
 407              		.loc 1 1327 0
 408 0198 4948     		ldr	r0, .L106+48
 409 019a B0EE480A 		vmov.f32	s0, s16
 410              	.LVL37:
 411 019e FFF7FEFF 		bl	buffer_get_float32
 412              	.LVL38:
 413              		.loc 1 1328 0
 414 01a2 06A9     		add	r1, sp, #24
 415              		.loc 1 1327 0
 416 01a4 F0EE40AA 		vmov.f32	s21, s0
 417              	.LVL39:
 418              		.loc 1 1328 0
 419 01a8 4548     		ldr	r0, .L106+48
 420 01aa B0EE480A 		vmov.f32	s0, s16
 421              	.LVL40:
 422 01ae FFF7FEFF 		bl	buffer_get_float32
 423              	.LVL41:
 424              		.loc 1 1329 0
 425 01b2 06A9     		add	r1, sp, #24
 426              		.loc 1 1328 0
 427 01b4 B0EE40BA 		vmov.f32	s22, s0
 428              	.LVL42:
 429              		.loc 1 1329 0
 430 01b8 4148     		ldr	r0, .L106+48
 431 01ba B0EE480A 		vmov.f32	s0, s16
 432              	.LVL43:
 433 01be FFF7FEFF 		bl	buffer_get_float32
 434              	.LVL44:
 435              		.loc 1 1330 0
 436 01c2 06A9     		add	r1, sp, #24
 437              		.loc 1 1329 0
 438 01c4 F0EE40BA 		vmov.f32	s23, s0
 439              	.LVL45:
 440              		.loc 1 1330 0
 441 01c8 3D48     		ldr	r0, .L106+48
 442 01ca B0EE480A 		vmov.f32	s0, s16
 443              	.LVL46:
 444 01ce FFF7FEFF 		bl	buffer_get_float32
 445              	.LVL47:
 446              		.loc 1 1332 0
 447 01d2 F0EE6B1A 		vmov.f32	s3, s23
 448 01d6 B0EE402A 		vmov.f32	s4, s0
 449 01da B0EE4B1A 		vmov.f32	s2, s22
 450 01de F0EE6A0A 		vmov.f32	s1, s21
 451 01e2 B0EE4A0A 		vmov.f32	s0, s20
 452              	.LVL48:
 453 01e6 2046     		mov	r0, r4
 454 01e8 FFF7FEFF 		bl	conf_general_detect_apply_all_foc_can
 455              	.LVL49:
 456              		.loc 1 1336 0
ARM GAS  /tmp/ccxuzuSP.s 			page 9


 457 01ec 3A23     		movs	r3, #58
 458              		.loc 1 1337 0
 459 01ee 01B2     		sxth	r1, r0
 460 01f0 06AA     		add	r2, sp, #24
 461 01f2 2B48     		ldr	r0, .L106+16
 462              	.LVL50:
 463              		.loc 1 1336 0
 464 01f4 2B70     		strb	r3, [r5]
 465 01f6 CDF818A0 		str	r10, [sp, #24]
 466              		.loc 1 1337 0
 467 01fa FFF7FEFF 		bl	buffer_append_int16
 468              	.LVL51:
 469              		.loc 1 1338 0
 470 01fe 3368     		ldr	r3, [r6]
 471 0200 002B     		cmp	r3, #0
 472 0202 7FF475AF 		bne	.L99
 473 0206 61E7     		b	.L7
 474              	.LVL52:
 475              	.L15:
 476              	.LBE164:
 477              	.LBB165:
 478              		.loc 1 1302 0
 479 0208 0023     		movs	r3, #0
 480              		.loc 1 1303 0
 481 020a 05A9     		add	r1, sp, #20
 482 020c 2C48     		ldr	r0, .L106+48
 483              		.loc 1 1302 0
 484 020e 0593     		str	r3, [sp, #20]
 485              		.loc 1 1303 0
 486 0210 B0EE480A 		vmov.f32	s0, s16
 487 0214 FFF7FEFF 		bl	buffer_get_float32
 488              	.LVL53:
 489              		.loc 1 1304 0
 490 0218 05A9     		add	r1, sp, #20
 491              		.loc 1 1303 0
 492 021a B0EE40AA 		vmov.f32	s20, s0
 493              	.LVL54:
 494              		.loc 1 1304 0
 495 021e 2848     		ldr	r0, .L106+48
 496 0220 B0EE480A 		vmov.f32	s0, s16
 497              	.LVL55:
 498 0224 FFF7FEFF 		bl	buffer_get_float32
 499              	.LVL56:
 500              		.loc 1 1305 0
 501 0228 05A9     		add	r1, sp, #20
 502              		.loc 1 1304 0
 503 022a B0EE40BA 		vmov.f32	s22, s0
 504              	.LVL57:
 505              		.loc 1 1305 0
 506 022e 2448     		ldr	r0, .L106+48
 507 0230 B0EE480A 		vmov.f32	s0, s16
 508              	.LVL58:
 509 0234 FFF7FEFF 		bl	buffer_get_float32
 510              	.LVL59:
 511              		.loc 1 1306 0
 512 0238 2148     		ldr	r0, .L106+48
 513              		.loc 1 1305 0
ARM GAS  /tmp/ccxuzuSP.s 			page 10


 514 023a F0EE40AA 		vmov.f32	s21, s0
 515              	.LVL60:
 516              		.loc 1 1306 0
 517 023e 05A9     		add	r1, sp, #20
 518 0240 B0EE490A 		vmov.f32	s0, s18
 519              	.LVL61:
 520 0244 FFF7FEFF 		bl	buffer_get_float32
 521              	.LVL62:
 522              		.loc 1 1309 0
 523 0248 06A8     		add	r0, sp, #24
 524 024a F0EE401A 		vmov.f32	s3, s0
 525 024e B0EE4B1A 		vmov.f32	s2, s22
 526 0252 F0EE6A0A 		vmov.f32	s1, s21
 527 0256 B0EE4A0A 		vmov.f32	s0, s20
 528              	.LVL63:
 529 025a FFF7FEFF 		bl	conf_general_measure_flux_linkage_openloop
 530              	.LVL64:
 531              		.loc 1 1311 0
 532 025e 0028     		cmp	r0, #0
 533 0260 00F0F781 		beq	.L38
 534 0264 9DED060A 		vldr.32	s0, [sp, #24]
 535              	.L39:
 536              		.loc 1 1316 0
 537 0268 0122     		movs	r2, #1
 538 026a 3923     		movs	r3, #57
 539              	.LVL65:
 540              	.L102:
 541              		.loc 1 1317 0
 542 026c F0EE690A 		vmov.f32	s1, s19
 543 0270 05A9     		add	r1, sp, #20
 544 0272 0B48     		ldr	r0, .L106+16
 545              		.loc 1 1316 0
 546 0274 2B70     		strb	r3, [r5]
 547 0276 0592     		str	r2, [sp, #20]
 548              		.loc 1 1317 0
 549 0278 FFF7FEFF 		bl	buffer_append_float32
 550              	.LVL66:
 551              		.loc 1 1318 0
 552 027c 3368     		ldr	r3, [r6]
 553 027e 002B     		cmp	r3, #0
 554 0280 3FF424AF 		beq	.L7
 555              		.loc 1 1319 0
 556 0284 3368     		ldr	r3, [r6]
 557 0286 0599     		ldr	r1, [sp, #20]
 558 0288 0548     		ldr	r0, .L106+16
 559 028a 9847     		blx	r3
 560              	.LVL67:
 561              	.LBE165:
 562              		.loc 1 1321 0
 563 028c 1EE7     		b	.L7
 564              	.L107:
 565 028e 00BF     		.align	2
 566              	.L106:
 567 0290 00000000 		.word	ch
 568 0294 00000000 		.word	.LANCHOR1
 569 0298 00000000 		.word	.LC0
 570 029c 00000000 		.word	.LANCHOR3
ARM GAS  /tmp/ccxuzuSP.s 			page 11


 571 02a0 00000000 		.word	.LANCHOR4
 572 02a4 00000000 		.word	.LANCHOR5
 573 02a8 00007A44 		.word	1148846080
 574 02ac 00247449 		.word	1232348160
 575 02b0 8096184B 		.word	1259902592
 576 02b4 00000000 		.word	0
 577 02b8 00401C46 		.word	1176256512
 578 02bc 0AD7233C 		.word	1008981770
 579 02c0 01000000 		.word	.LANCHOR3+1
 580 02c4 00000000 		.word	.LANCHOR2
 581 02c8 00000000 		.word	.LANCHOR9
 582              	.LVL68:
 583              	.L14:
 584              		.loc 1 1263 0
 585 02cc FFF7FEFF 		bl	mc_interface_get_configuration
 586              	.LVL69:
 587 02d0 4FF4E472 		mov	r2, #456
 588 02d4 0146     		mov	r1, r0
 589 02d6 C448     		ldr	r0, .L108
 590 02d8 FFF7FEFF 		bl	memcpy
 591              	.LVL70:
 592              		.loc 1 1265 0
 593 02dc C24B     		ldr	r3, .L108
 594 02de 93F89841 		ldrb	r4, [r3, #408]	@ zero_extendqisi2
 595              	.LVL71:
 596 02e2 002C     		cmp	r4, #0
 597 02e4 40F07081 		bne	.L35
 598              	.LBB166:
 599              		.loc 1 1266 0
 600 02e8 1946     		mov	r1, r3
 601 02ea 4FF4E472 		mov	r2, #456
 602 02ee BF48     		ldr	r0, .L108+4
 603 02f0 FFF7FEFF 		bl	memcpy
 604              	.LVL72:
 605              		.loc 1 1268 0
 606 02f4 05AA     		add	r2, sp, #20
 607 02f6 1146     		mov	r1, r2
 608 02f8 BD48     		ldr	r0, .L108+8
 609              		.loc 1 1267 0
 610 02fa 0594     		str	r4, [sp, #20]
 611              		.loc 1 1268 0
 612 02fc B0EE480A 		vmov.f32	s0, s16
 613 0300 FFF7FEFF 		bl	buffer_get_float32
 614              	.LVL73:
 615              		.loc 1 1274 0
 616 0304 B848     		ldr	r0, .L108
 617              		.loc 1 1273 0
 618 0306 BB4B     		ldr	r3, .L108+12
 619 0308 C0F8B030 		str	r3, [r0, #176]	@ float
 620              		.loc 1 1270 0
 621 030c 0222     		movs	r2, #2
 622              		.loc 1 1268 0
 623 030e B0EE40AA 		vmov.f32	s20, s0
 624              	.LVL74:
 625              		.loc 1 1270 0
 626 0312 8270     		strb	r2, [r0, #2]
 627              		.loc 1 1271 0
ARM GAS  /tmp/ccxuzuSP.s 			page 12


 628 0314 C0ED2DCA 		vstr.32	s25, [r0, #180]
 629              		.loc 1 1272 0
 630 0318 80ED2BCA 		vstr.32	s24, [r0, #172]
 631              		.loc 1 1274 0
 632 031c FFF7FEFF 		bl	mc_interface_set_configuration
 633              	.LVL75:
 634              		.loc 1 1277 0
 635 0320 B0EE4A0A 		vmov.f32	s0, s20
 636 0324 06A8     		add	r0, sp, #24
 637 0326 FFF7FEFF 		bl	mcpwm_foc_hall_detect
 638              	.LVL76:
 639 032a 0446     		mov	r4, r0
 640              	.LVL77:
 641              		.loc 1 1278 0
 642 032c AF48     		ldr	r0, .L108+4
 643 032e FFF7FEFF 		bl	mc_interface_set_configuration
 644              	.LVL78:
 645              		.loc 1 1282 0
 646 0332 06AB     		add	r3, sp, #24
 647 0334 03CB     		ldmia	r3!, {r0, r1}
 648              		.loc 1 1284 0
 649 0336 84F00104 		eor	r4, r4, #1
 650              	.LVL79:
 651              		.loc 1 1282 0
 652 033a AF4B     		ldr	r3, .L108+16
 653              		.loc 1 1284 0
 654 033c 6C72     		strb	r4, [r5, #9]
 655              		.loc 1 1286 0
 656 033e 3268     		ldr	r2, [r6]
 657              		.loc 1 1282 0
 658 0340 AD4C     		ldr	r4, .L108+16
 659 0342 1860     		str	r0, [r3]	@ unaligned
 660              		.loc 1 1281 0
 661 0344 1C20     		movs	r0, #28
 662              		.loc 1 1284 0
 663 0346 0A23     		movs	r3, #10
 664              		.loc 1 1282 0
 665 0348 6160     		str	r1, [r4, #4]	@ unaligned
 666              		.loc 1 1284 0
 667 034a 0593     		str	r3, [sp, #20]
 668              		.loc 1 1281 0
 669 034c 2870     		strb	r0, [r5]
 670              		.loc 1 1286 0
 671 034e 002A     		cmp	r2, #0
 672 0350 3FF4BCAE 		beq	.L7
 673              		.loc 1 1287 0
 674 0354 1946     		mov	r1, r3
 675 0356 601E     		subs	r0, r4, #1
 676 0358 3368     		ldr	r3, [r6]
 677 035a 9847     		blx	r3
 678              	.LVL80:
 679 035c B6E6     		b	.L7
 680              	.LVL81:
 681              	.L11:
 682              	.LBE166:
 683              	.LBB167:
 684              		.loc 1 1173 0
ARM GAS  /tmp/ccxuzuSP.s 			page 13


 685 035e FFF7FEFF 		bl	mc_interface_get_configuration
 686              	.LVL82:
 687 0362 4FF4E472 		mov	r2, #456
 688 0366 0146     		mov	r1, r0
 689 0368 9F48     		ldr	r0, .L108
 690 036a FFF7FEFF 		bl	memcpy
 691              	.LVL83:
 692              		.loc 1 1174 0
 693 036e 4FF4E472 		mov	r2, #456
 694 0372 9D49     		ldr	r1, .L108
 695 0374 9D48     		ldr	r0, .L108+4
 696 0376 FFF7FEFF 		bl	memcpy
 697              	.LVL84:
 698              		.loc 1 1177 0
 699 037a 9B48     		ldr	r0, .L108
 700              		.loc 1 1176 0
 701 037c 0223     		movs	r3, #2
 702 037e 8370     		strb	r3, [r0, #2]
 703              		.loc 1 1177 0
 704 0380 FFF7FEFF 		bl	mc_interface_set_configuration
 705              	.LVL85:
 706              		.loc 1 1181 0
 707 0384 05A9     		add	r1, sp, #20
 708 0386 04A8     		add	r0, sp, #16
 709              		.loc 1 1179 0
 710 0388 CDED048A 		vstr.32	s17, [sp, #16]
 711              		.loc 1 1180 0
 712 038c CDED058A 		vstr.32	s17, [sp, #20]
 713              		.loc 1 1181 0
 714 0390 FFF7FEFF 		bl	mcpwm_foc_measure_res_ind
 715              	.LVL86:
 716 0394 0446     		mov	r4, r0
 717              	.LVL87:
 718              		.loc 1 1182 0
 719 0396 9548     		ldr	r0, .L108+4
 720 0398 FFF7FEFF 		bl	mc_interface_set_configuration
 721              	.LVL88:
 722              		.loc 1 1184 0
 723 039c 002C     		cmp	r4, #0
 724 039e 00F00C81 		beq	.L26
 725 03a2 9DED040A 		vldr.32	s0, [sp, #16]
 726              	.L27:
 727              		.loc 1 1191 0
 728 03a6 9548     		ldr	r0, .L108+20
 729              		.loc 1 1190 0
 730 03a8 1923     		movs	r3, #25
 731 03aa 0122     		movs	r2, #1
 732              		.loc 1 1191 0
 733 03ac F0EE490A 		vmov.f32	s1, s18
 734 03b0 06A9     		add	r1, sp, #24
 735              		.loc 1 1190 0
 736 03b2 2B70     		strb	r3, [r5]
 737 03b4 0692     		str	r2, [sp, #24]
 738              		.loc 1 1191 0
 739 03b6 FFF7FEFF 		bl	buffer_append_float32
 740              	.LVL89:
 741              		.loc 1 1192 0
ARM GAS  /tmp/ccxuzuSP.s 			page 14


 742 03ba 06A9     		add	r1, sp, #24
 743 03bc F0EE480A 		vmov.f32	s1, s16
 744 03c0 9DED050A 		vldr.32	s0, [sp, #20]
 745 03c4 8D48     		ldr	r0, .L108+20
 746 03c6 FFF7FEFF 		bl	buffer_append_float32
 747              	.LVL90:
 748              		.loc 1 1193 0
 749 03ca 3368     		ldr	r3, [r6]
 750 03cc 002B     		cmp	r3, #0
 751 03ce 7FF48FAE 		bne	.L99
 752 03d2 7BE6     		b	.L7
 753              	.LVL91:
 754              	.L8:
 755              	.LBE167:
 756              		.loc 1 1344 0
 757 03d4 3C44     		add	r4, r4, r7
 758              	.LVL92:
 759 03d6 0023     		movs	r3, #0
 760 03d8 6370     		strb	r3, [r4, #1]
 761              	.LVL93:
 762              		.loc 1 1345 0
 763 03da 8948     		ldr	r0, .L108+24
 764 03dc FFF7FEFF 		bl	chMtxLock
 765              	.LVL94:
 766              		.loc 1 1346 0
 767 03e0 8348     		ldr	r0, .L108+8
 768 03e2 FFF7FEFF 		bl	terminal_process_string
 769              	.LVL95:
 770              		.loc 1 1347 0
 771 03e6 8648     		ldr	r0, .L108+24
 772 03e8 FFF7FEFF 		bl	chMtxUnlock
 773              	.LVL96:
 774              		.loc 1 1348 0
 775 03ec 6EE6     		b	.L7
 776              	.LVL97:
 777              	.L10:
 778              	.LBB168:
 779              		.loc 1 1143 0
 780 03ee 0023     		movs	r3, #0
 781              		.loc 1 1144 0
 782 03f0 02A9     		add	r1, sp, #8
 783 03f2 7F48     		ldr	r0, .L108+8
 784 03f4 9FED830A 		vldr.32	s0, .L108+28
 785              		.loc 1 1143 0
 786 03f8 0293     		str	r3, [sp, #8]
 787              		.loc 1 1144 0
 788 03fa FFF7FEFF 		bl	buffer_get_float32
 789              	.LVL98:
 790              		.loc 1 1145 0
 791 03fe 02A9     		add	r1, sp, #8
 792              		.loc 1 1144 0
 793 0400 B0EE40AA 		vmov.f32	s20, s0
 794              	.LVL99:
 795              		.loc 1 1145 0
 796 0404 7A48     		ldr	r0, .L108+8
 797 0406 9FED7F0A 		vldr.32	s0, .L108+28
 798              	.LVL100:
ARM GAS  /tmp/ccxuzuSP.s 			page 15


 799 040a FFF7FEFF 		bl	buffer_get_float32
 800              	.LVL101:
 801              		.loc 1 1146 0
 802 040e 02A9     		add	r1, sp, #8
 803              		.loc 1 1145 0
 804 0410 F0EE40AA 		vmov.f32	s21, s0
 805              	.LVL102:
 806              		.loc 1 1146 0
 807 0414 7648     		ldr	r0, .L108+8
 808 0416 9FED7B0A 		vldr.32	s0, .L108+28
 809              	.LVL103:
 810 041a FFF7FEFF 		bl	buffer_get_float32
 811              	.LVL104:
 812              		.loc 1 1152 0
 813 041e 05AB     		add	r3, sp, #20
 814 0420 B0EE401A 		vmov.f32	s2, s0
 815 0424 06AA     		add	r2, sp, #24
 816 0426 04A9     		add	r1, sp, #16
 817 0428 03A8     		add	r0, sp, #12
 818 042a F0EE6A0A 		vmov.f32	s1, s21
 819 042e B0EE4A0A 		vmov.f32	s0, s20
 820              	.LVL105:
 821 0432 FFF7FEFF 		bl	conf_general_detect_motor_param
 822              	.LVL106:
 823 0436 0028     		cmp	r0, #0
 824 0438 00F0E880 		beq	.L23
 825 043c DDED037A 		vldr.32	s15, [sp, #12]
 826 0440 67EE887A 		vmul.f32	s15, s15, s16
 827 0444 FDEEE77A 		vcvt.s32.f32	s15, s15
 828 0448 CDED017A 		vstr.32	s15, [sp, #4]	@ int
 829              	.L24:
 830              		.loc 1 1160 0
 831 044c 0120     		movs	r0, #1
 832 044e 1823     		movs	r3, #24
 833              		.loc 1 1161 0
 834 0450 02AA     		add	r2, sp, #8
 835 0452 0199     		ldr	r1, [sp, #4]
 836              		.loc 1 1160 0
 837 0454 0290     		str	r0, [sp, #8]
 838              		.loc 1 1161 0
 839 0456 6948     		ldr	r0, .L108+20
 840              		.loc 1 1160 0
 841 0458 2B70     		strb	r3, [r5]
 842              		.loc 1 1161 0
 843 045a FFF7FEFF 		bl	buffer_append_int32
 844              	.LVL107:
 845              		.loc 1 1162 0
 846 045e DDED047A 		vldr.32	s15, [sp, #16]
 847 0462 6648     		ldr	r0, .L108+20
 848 0464 67EE887A 		vmul.f32	s15, s15, s16
 849 0468 02AA     		add	r2, sp, #8
 850 046a FDEEE77A 		vcvt.s32.f32	s15, s15
 851 046e 17EE901A 		vmov	r1, s15	@ int
 852 0472 FFF7FEFF 		bl	buffer_append_int32
 853              	.LVL108:
 854              		.loc 1 1163 0
 855 0476 029B     		ldr	r3, [sp, #8]
ARM GAS  /tmp/ccxuzuSP.s 			page 16


 856              		.loc 1 1167 0
 857 0478 3468     		ldr	r4, [r6]
 858              	.LVL109:
 859              		.loc 1 1163 0
 860 047a 06AA     		add	r2, sp, #24
 861 047c 03CA     		ldmia	r2!, {r0, r1}
 862 047e EA18     		adds	r2, r5, r3
 863 0480 E850     		str	r0, [r5, r3]	@ unaligned
 864              		.loc 1 1165 0
 865 0482 0933     		adds	r3, r3, #9
 866              		.loc 1 1163 0
 867 0484 5160     		str	r1, [r2, #4]	@ unaligned
 868              		.loc 1 1165 0
 869 0486 0599     		ldr	r1, [sp, #20]
 870 0488 0293     		str	r3, [sp, #8]
 871 048a 1172     		strb	r1, [r2, #8]
 872              		.loc 1 1167 0
 873 048c 002C     		cmp	r4, #0
 874 048e 3FF41DAE 		beq	.L7
 875              		.loc 1 1168 0
 876 0492 1946     		mov	r1, r3
 877 0494 5948     		ldr	r0, .L108+20
 878 0496 3368     		ldr	r3, [r6]
 879 0498 9847     		blx	r3
 880              	.LVL110:
 881              	.LBE168:
 882              		.loc 1 1170 0
 883 049a 17E6     		b	.L7
 884              	.LVL111:
 885              	.L13:
 886              		.loc 1 1221 0
 887 049c FFF7FEFF 		bl	encoder_is_configured
 888              	.LVL112:
 889 04a0 0446     		mov	r4, r0
 890              	.LVL113:
 891 04a2 0028     		cmp	r0, #0
 892 04a4 00F0B880 		beq	.L32
 893              	.LBB169:
 894              		.loc 1 1222 0
 895 04a8 FFF7FEFF 		bl	mc_interface_get_configuration
 896              	.LVL114:
 897 04ac 4FF4E472 		mov	r2, #456
 898 04b0 0146     		mov	r1, r0
 899 04b2 4D48     		ldr	r0, .L108
 900 04b4 FFF7FEFF 		bl	memcpy
 901              	.LVL115:
 902              		.loc 1 1223 0
 903 04b8 4FF4E472 		mov	r2, #456
 904 04bc 4A49     		ldr	r1, .L108
 905 04be 4B48     		ldr	r0, .L108+4
 906 04c0 FFF7FEFF 		bl	memcpy
 907              	.LVL116:
 908              		.loc 1 1225 0
 909 04c4 0024     		movs	r4, #0
 910              		.loc 1 1226 0
 911 04c6 04A9     		add	r1, sp, #16
 912 04c8 4948     		ldr	r0, .L108+8
ARM GAS  /tmp/ccxuzuSP.s 			page 17


 913              		.loc 1 1225 0
 914 04ca 0494     		str	r4, [sp, #16]
 915              		.loc 1 1226 0
 916 04cc B0EE480A 		vmov.f32	s0, s16
 917 04d0 FFF7FEFF 		bl	buffer_get_float32
 918              	.LVL117:
 919              		.loc 1 1232 0
 920 04d4 4448     		ldr	r0, .L108
 921              		.loc 1 1231 0
 922 04d6 474B     		ldr	r3, .L108+12
 923 04d8 C0F8B030 		str	r3, [r0, #176]	@ float
 924              		.loc 1 1228 0
 925 04dc 0222     		movs	r2, #2
 926              		.loc 1 1226 0
 927 04de B0EE40AA 		vmov.f32	s20, s0
 928              	.LVL118:
 929              		.loc 1 1228 0
 930 04e2 8270     		strb	r2, [r0, #2]
 931              		.loc 1 1229 0
 932 04e4 C0ED2DCA 		vstr.32	s25, [r0, #180]
 933              		.loc 1 1230 0
 934 04e8 80ED2BCA 		vstr.32	s24, [r0, #172]
 935              		.loc 1 1232 0
 936 04ec FFF7FEFF 		bl	mc_interface_set_configuration
 937              	.LVL119:
 938              		.loc 1 1237 0
 939 04f0 B0EE4A0A 		vmov.f32	s0, s20
 940 04f4 03AB     		add	r3, sp, #12
 941 04f6 06AA     		add	r2, sp, #24
 942 04f8 05A9     		add	r1, sp, #20
 943 04fa 2046     		mov	r0, r4
 944              		.loc 1 1236 0
 945 04fc 8DF80C40 		strb	r4, [sp, #12]
 946              		.loc 1 1234 0
 947 0500 CDED058A 		vstr.32	s17, [sp, #20]
 948              		.loc 1 1235 0
 949 0504 CDED068A 		vstr.32	s17, [sp, #24]
 950              		.loc 1 1237 0
 951 0508 FFF7FEFF 		bl	mcpwm_foc_encoder_detect
 952              	.LVL120:
 953              		.loc 1 1238 0
 954 050c 3748     		ldr	r0, .L108+4
 955 050e FFF7FEFF 		bl	mc_interface_set_configuration
 956              	.LVL121:
 957              		.loc 1 1241 0
 958 0512 0122     		movs	r2, #1
 959 0514 1B23     		movs	r3, #27
 960              		.loc 1 1242 0
 961 0516 04A9     		add	r1, sp, #16
 962 0518 F0EE490A 		vmov.f32	s1, s18
 963 051c 9DED050A 		vldr.32	s0, [sp, #20]
 964 0520 3648     		ldr	r0, .L108+20
 965              		.loc 1 1241 0
 966 0522 0492     		str	r2, [sp, #16]
 967 0524 2B70     		strb	r3, [r5]
 968              		.loc 1 1242 0
 969 0526 FFF7FEFF 		bl	buffer_append_float32
ARM GAS  /tmp/ccxuzuSP.s 			page 18


 970              	.LVL122:
 971              		.loc 1 1243 0
 972 052a 04A9     		add	r1, sp, #16
 973 052c F0EE490A 		vmov.f32	s1, s18
 974 0530 9DED060A 		vldr.32	s0, [sp, #24]
 975 0534 3148     		ldr	r0, .L108+20
 976 0536 FFF7FEFF 		bl	buffer_append_float32
 977              	.LVL123:
 978              		.loc 1 1244 0
 979 053a 049B     		ldr	r3, [sp, #16]
 980 053c 9DF80C10 		ldrb	r1, [sp, #12]	@ zero_extendqisi2
 981              		.loc 1 1246 0
 982 0540 3268     		ldr	r2, [r6]
 983              		.loc 1 1244 0
 984 0542 E954     		strb	r1, [r5, r3]
 985 0544 591C     		adds	r1, r3, #1
 986 0546 0491     		str	r1, [sp, #16]
 987              		.loc 1 1246 0
 988 0548 002A     		cmp	r2, #0
 989 054a 3FF4BFAD 		beq	.L7
 990              	.LVL124:
 991              	.L98:
 992              	.LBE169:
 993              	.LBB170:
 994              		.loc 1 1361 0
 995 054e 3368     		ldr	r3, [r6]
 996 0550 2A48     		ldr	r0, .L108+20
 997 0552 9847     		blx	r3
 998              	.LVL125:
 999 0554 BAE5     		b	.L7
 1000              	.LVL126:
 1001              	.L12:
 1002              	.LBE170:
 1003              	.LBB171:
 1004              		.loc 1 1199 0
 1005 0556 0023     		movs	r3, #0
 1006              		.loc 1 1200 0
 1007 0558 05A9     		add	r1, sp, #20
 1008 055a 2548     		ldr	r0, .L108+8
 1009              		.loc 1 1199 0
 1010 055c 0593     		str	r3, [sp, #20]
 1011              		.loc 1 1200 0
 1012 055e B0EE480A 		vmov.f32	s0, s16
 1013 0562 FFF7FEFF 		bl	buffer_get_float32
 1014              	.LVL127:
 1015              		.loc 1 1201 0
 1016 0566 05A9     		add	r1, sp, #20
 1017              		.loc 1 1200 0
 1018 0568 B0EE40AA 		vmov.f32	s20, s0
 1019              	.LVL128:
 1020              		.loc 1 1201 0
 1021 056c 2048     		ldr	r0, .L108+8
 1022 056e B0EE480A 		vmov.f32	s0, s16
 1023              	.LVL129:
 1024 0572 FFF7FEFF 		bl	buffer_get_float32
 1025              	.LVL130:
 1026              		.loc 1 1202 0
ARM GAS  /tmp/ccxuzuSP.s 			page 19


 1027 0576 05A9     		add	r1, sp, #20
 1028              		.loc 1 1201 0
 1029 0578 B0EE40BA 		vmov.f32	s22, s0
 1030              	.LVL131:
 1031              		.loc 1 1202 0
 1032 057c 1C48     		ldr	r0, .L108+8
 1033 057e B0EE480A 		vmov.f32	s0, s16
 1034              	.LVL132:
 1035 0582 FFF7FEFF 		bl	buffer_get_float32
 1036              	.LVL133:
 1037              		.loc 1 1203 0
 1038 0586 1A48     		ldr	r0, .L108+8
 1039              		.loc 1 1202 0
 1040 0588 F0EE40AA 		vmov.f32	s21, s0
 1041              	.LVL134:
 1042              		.loc 1 1203 0
 1043 058c 05A9     		add	r1, sp, #20
 1044 058e B0EE490A 		vmov.f32	s0, s18
 1045              	.LVL135:
 1046 0592 FFF7FEFF 		bl	buffer_get_float32
 1047              	.LVL136:
 1048              		.loc 1 1206 0
 1049 0596 06A8     		add	r0, sp, #24
 1050 0598 F0EE401A 		vmov.f32	s3, s0
 1051 059c B0EE4B1A 		vmov.f32	s2, s22
 1052 05a0 F0EE6A0A 		vmov.f32	s1, s21
 1053 05a4 B0EE4A0A 		vmov.f32	s0, s20
 1054              	.LVL137:
 1055 05a8 FFF7FEFF 		bl	conf_general_measure_flux_linkage
 1056              	.LVL138:
 1057              		.loc 1 1208 0
 1058 05ac 0028     		cmp	r0, #0
 1059 05ae 55D0     		beq	.L29
 1060 05b0 9DED060A 		vldr.32	s0, [sp, #24]
 1061              	.L30:
 1062              		.loc 1 1213 0
 1063 05b4 0122     		movs	r2, #1
 1064 05b6 1A23     		movs	r3, #26
 1065 05b8 58E6     		b	.L102
 1066              	.LVL139:
 1067              	.L26:
 1068              	.LBE171:
 1069              	.LBB172:
 1070              		.loc 1 1186 0
 1071 05ba B0EE680A 		vmov.f32	s0, s17
 1072              		.loc 1 1185 0
 1073 05be CDED048A 		vstr.32	s17, [sp, #16]
 1074              		.loc 1 1186 0
 1075 05c2 CDED058A 		vstr.32	s17, [sp, #20]
 1076 05c6 EEE6     		b	.L27
 1077              	.LVL140:
 1078              	.L35:
 1079              	.LBE172:
 1080              	.LBB173:
 1081              		.loc 1 1292 0
 1082 05c8 4FF0FF33 		mov	r3, #-1
 1083              		.loc 1 1295 0
ARM GAS  /tmp/ccxuzuSP.s 			page 20


 1084 05cc 3268     		ldr	r2, [r6]
 1085              		.loc 1 1292 0
 1086 05ce C5E90033 		strd	r3, r3, [r5]
 1087              	.LVL141:
 1088              		.loc 1 1294 0
 1089 05d2 0023     		movs	r3, #0
 1090 05d4 6B72     		strb	r3, [r5, #9]
 1091              		.loc 1 1295 0
 1092 05d6 002A     		cmp	r2, #0
 1093 05d8 3FF478AD 		beq	.L7
 1094              		.loc 1 1296 0
 1095 05dc 3368     		ldr	r3, [r6]
 1096 05de 0748     		ldr	r0, .L108+20
 1097 05e0 0A21     		movs	r1, #10
 1098 05e2 9847     		blx	r3
 1099              	.LVL142:
 1100 05e4 72E5     		b	.L7
 1101              	.L109:
 1102 05e6 00BF     		.align	2
 1103              	.L108:
 1104 05e8 00000000 		.word	.LANCHOR6
 1105 05ec 00000000 		.word	.LANCHOR7
 1106 05f0 01000000 		.word	.LANCHOR3+1
 1107 05f4 00002041 		.word	1092616192
 1108 05f8 01000000 		.word	.LANCHOR4+1
 1109 05fc 00000000 		.word	.LANCHOR4
 1110 0600 00000000 		.word	.LANCHOR8
 1111 0604 00007A44 		.word	1148846080
 1112 0608 00407A44 		.word	1148862464
 1113              	.LVL143:
 1114              	.L23:
 1115              	.LBE173:
 1116              	.LBB174:
 1117              		.loc 1 1155 0
 1118 060c CDED038A 		vstr.32	s17, [sp, #12]
 1119              		.loc 1 1156 0
 1120 0610 CDED048A 		vstr.32	s17, [sp, #16]
 1121 0614 0190     		str	r0, [sp, #4]
 1122 0616 19E7     		b	.L24
 1123              	.LVL144:
 1124              	.L32:
 1125              	.LBE174:
 1126              	.LBB175:
 1127              		.loc 1 1251 0
 1128 0618 0122     		movs	r2, #1
 1129 061a 1B23     		movs	r3, #27
 1130              		.loc 1 1252 0
 1131 061c F0EE490A 		vmov.f32	s1, s18
 1132 0620 1FED070A 		vldr.32	s0, .L108+32
 1133 0624 1048     		ldr	r0, .L110
 1134              		.loc 1 1251 0
 1135 0626 0692     		str	r2, [sp, #24]
 1136              		.loc 1 1252 0
 1137 0628 06A9     		add	r1, sp, #24
 1138              		.loc 1 1251 0
 1139 062a 2B70     		strb	r3, [r5]
 1140              		.loc 1 1252 0
ARM GAS  /tmp/ccxuzuSP.s 			page 21


 1141 062c FFF7FEFF 		bl	buffer_append_float32
 1142              	.LVL145:
 1143              		.loc 1 1253 0
 1144 0630 06A9     		add	r1, sp, #24
 1145 0632 F0EE490A 		vmov.f32	s1, s18
 1146 0636 B0EE680A 		vmov.f32	s0, s17
 1147 063a 0B48     		ldr	r0, .L110
 1148 063c FFF7FEFF 		bl	buffer_append_float32
 1149              	.LVL146:
 1150              		.loc 1 1254 0
 1151 0640 0699     		ldr	r1, [sp, #24]
 1152              		.loc 1 1256 0
 1153 0642 3268     		ldr	r2, [r6]
 1154              		.loc 1 1254 0
 1155 0644 6C54     		strb	r4, [r5, r1]
 1156 0646 0131     		adds	r1, r1, #1
 1157 0648 0691     		str	r1, [sp, #24]
 1158              		.loc 1 1256 0
 1159 064a 002A     		cmp	r2, #0
 1160 064c 7FF47FAF 		bne	.L98
 1161 0650 3CE5     		b	.L7
 1162              	.LVL147:
 1163              	.L38:
 1164              	.LBE175:
 1165              	.LBB176:
 1166              		.loc 1 1312 0
 1167 0652 9FED060A 		vldr.32	s0, .L110+4
 1168 0656 CDED068A 		vstr.32	s17, [sp, #24]
 1169 065a 05E6     		b	.L39
 1170              	.LVL148:
 1171              	.L29:
 1172              	.LBE176:
 1173              	.LBB177:
 1174              		.loc 1 1209 0
 1175 065c 9FED030A 		vldr.32	s0, .L110+4
 1176 0660 CDED068A 		vstr.32	s17, [sp, #24]
 1177 0664 A6E7     		b	.L30
 1178              	.L111:
 1179 0666 00BF     		.align	2
 1180              	.L110:
 1181 0668 00000000 		.word	.LANCHOR4
 1182 066c 00000000 		.word	0
 1183              	.LBE177:
 1184              	.LBE180:
 1185              		.cfi_endproc
 1186              	.LFE274:
 1187              		.size	blocking_thread, .-blocking_thread
 1188              		.section	.text.commands_init,"ax",%progbits
 1189              		.align	1
 1190              		.p2align 4,,15
 1191              		.global	commands_init
 1192              		.syntax unified
 1193              		.thumb
 1194              		.thumb_func
 1195              		.fpu fpv4-sp-d16
 1196              		.type	commands_init, %function
 1197              	commands_init:
ARM GAS  /tmp/ccxuzuSP.s 			page 22


 1198              	.LFB259:
 1199              		.loc 1 72 0
 1200              		.cfi_startproc
 1201              		@ args = 0, pretend = 0, frame = 0
 1202              		@ frame_needed = 0, uses_anonymous_args = 0
 1203 0000 00B5     		push	{lr}
 1204              		.cfi_def_cfa_offset 4
 1205              		.cfi_offset 14, -4
 1206              		.loc 1 73 0
 1207 0002 0B48     		ldr	r0, .L114
 1208              		.loc 1 72 0
 1209 0004 83B0     		sub	sp, sp, #12
 1210              		.cfi_def_cfa_offset 16
 1211              		.loc 1 73 0
 1212 0006 FFF7FEFF 		bl	chMtxObjectInit
 1213              	.LVL149:
 1214              		.loc 1 74 0
 1215 000a 0A48     		ldr	r0, .L114+4
 1216 000c FFF7FEFF 		bl	chMtxObjectInit
 1217              	.LVL150:
 1218              		.loc 1 75 0
 1219 0010 0948     		ldr	r0, .L114+8
 1220 0012 FFF7FEFF 		bl	chMtxObjectInit
 1221              	.LVL151:
 1222              		.loc 1 76 0
 1223 0016 0023     		movs	r3, #0
 1224 0018 0093     		str	r3, [sp]
 1225 001a 4022     		movs	r2, #64
 1226 001c 074B     		ldr	r3, .L114+12
 1227 001e 0848     		ldr	r0, .L114+16
 1228 0020 40F69811 		movw	r1, #2456
 1229 0024 FFF7FEFF 		bl	chThdCreateStatic
 1230              	.LVL152:
 1231              		.loc 1 77 0
 1232 0028 03B0     		add	sp, sp, #12
 1233              		.cfi_def_cfa_offset 4
 1234              		@ sp needed
 1235 002a 5DF804FB 		ldr	pc, [sp], #4
 1236              	.L115:
 1237 002e 00BF     		.align	2
 1238              	.L114:
 1239 0030 00000000 		.word	.LANCHOR10
 1240 0034 00000000 		.word	.LANCHOR11
 1241 0038 00000000 		.word	.LANCHOR8
 1242 003c 00000000 		.word	blocking_thread
 1243 0040 00000000 		.word	.LANCHOR12
 1244              		.cfi_endproc
 1245              	.LFE259:
 1246              		.size	commands_init, .-commands_init
 1247              		.section	.text.commands_send_packet_nrf,"ax",%progbits
 1248              		.align	1
 1249              		.p2align 4,,15
 1250              		.global	commands_send_packet_nrf
 1251              		.syntax unified
 1252              		.thumb
 1253              		.thumb_func
 1254              		.fpu fpv4-sp-d16
ARM GAS  /tmp/ccxuzuSP.s 			page 23


 1255              		.type	commands_send_packet_nrf, %function
 1256              	commands_send_packet_nrf:
 1257              	.LFB261:
 1258              		.loc 1 108 0
 1259              		.cfi_startproc
 1260              		@ args = 0, pretend = 0, frame = 0
 1261              		@ frame_needed = 0, uses_anonymous_args = 0
 1262              		@ link register save eliminated.
 1263              	.LVL153:
 1264              		.loc 1 109 0
 1265 0000 024B     		ldr	r3, .L118
 1266 0002 1A68     		ldr	r2, [r3]
 1267 0004 0AB1     		cbz	r2, .L116
 1268              		.loc 1 110 0
 1269 0006 1B68     		ldr	r3, [r3]
 1270 0008 1847     		bx	r3	@ indirect register sibling call
 1271              	.LVL154:
 1272              	.L116:
 1273              		.loc 1 112 0
 1274 000a 7047     		bx	lr
 1275              	.L119:
 1276              		.align	2
 1277              	.L118:
 1278 000c 00000000 		.word	.LANCHOR13
 1279              		.cfi_endproc
 1280              	.LFE261:
 1281              		.size	commands_send_packet_nrf, .-commands_send_packet_nrf
 1282              		.section	.text.commands_send_packet_last_blocking,"ax",%progbits
 1283              		.align	1
 1284              		.p2align 4,,15
 1285              		.global	commands_send_packet_last_blocking
 1286              		.syntax unified
 1287              		.thumb
 1288              		.thumb_func
 1289              		.fpu fpv4-sp-d16
 1290              		.type	commands_send_packet_last_blocking, %function
 1291              	commands_send_packet_last_blocking:
 1292              	.LFB262:
 1293              		.loc 1 123 0
 1294              		.cfi_startproc
 1295              		@ args = 0, pretend = 0, frame = 0
 1296              		@ frame_needed = 0, uses_anonymous_args = 0
 1297              		@ link register save eliminated.
 1298              	.LVL155:
 1299              		.loc 1 124 0
 1300 0000 024B     		ldr	r3, .L122
 1301 0002 1A68     		ldr	r2, [r3]
 1302 0004 0AB1     		cbz	r2, .L120
 1303              		.loc 1 125 0
 1304 0006 1B68     		ldr	r3, [r3]
 1305 0008 1847     		bx	r3	@ indirect register sibling call
 1306              	.LVL156:
 1307              	.L120:
 1308              		.loc 1 127 0
 1309 000a 7047     		bx	lr
 1310              	.L123:
 1311              		.align	2
ARM GAS  /tmp/ccxuzuSP.s 			page 24


 1312              	.L122:
 1313 000c 00000000 		.word	.LANCHOR5
 1314              		.cfi_endproc
 1315              	.LFE262:
 1316              		.size	commands_send_packet_last_blocking, .-commands_send_packet_last_blocking
 1317              		.section	.text.commands_printf,"ax",%progbits
 1318              		.align	1
 1319              		.p2align 4,,15
 1320              		.global	commands_printf
 1321              		.syntax unified
 1322              		.thumb
 1323              		.thumb_func
 1324              		.fpu fpv4-sp-d16
 1325              		.type	commands_printf, %function
 1326              	commands_printf:
 1327              	.LFB264:
 1328              		.loc 1 984 0
 1329              		.cfi_startproc
 1330              		@ args = 4, pretend = 16, frame = 8
 1331              		@ frame_needed = 0, uses_anonymous_args = 1
 1332              	.LVL157:
 1333 0000 0FB4     		push	{r0, r1, r2, r3}
 1334              		.cfi_def_cfa_offset 16
 1335              		.cfi_offset 0, -16
 1336              		.cfi_offset 1, -12
 1337              		.cfi_offset 2, -8
 1338              		.cfi_offset 3, -4
 1339 0002 70B5     		push	{r4, r5, r6, lr}
 1340              		.cfi_def_cfa_offset 32
 1341              		.cfi_offset 4, -32
 1342              		.cfi_offset 5, -28
 1343              		.cfi_offset 6, -24
 1344              		.cfi_offset 14, -20
 1345 0004 82B0     		sub	sp, sp, #8
 1346              		.cfi_def_cfa_offset 40
 1347              		.loc 1 984 0
 1348 0006 06AC     		add	r4, sp, #24
 1349              		.loc 1 992 0
 1350 0008 114D     		ldr	r5, .L130
 1351              		.loc 1 985 0
 1352 000a 1248     		ldr	r0, .L130+4
 1353              		.loc 1 984 0
 1354 000c 54F8046B 		ldr	r6, [r4], #4
 1355              		.loc 1 985 0
 1356 0010 FFF7FEFF 		bl	chMtxLock
 1357              	.LVL158:
 1358              		.loc 1 992 0
 1359 0014 2846     		mov	r0, r5
 1360 0016 1523     		movs	r3, #21
 1361 0018 00F8013B 		strb	r3, [r0], #1
 1362              		.loc 1 993 0
 1363 001c 3246     		mov	r2, r6
 1364 001e 2346     		mov	r3, r4
 1365 0020 FE21     		movs	r1, #254
 1366              		.loc 1 988 0
 1367 0022 0194     		str	r4, [sp, #4]
 1368              		.loc 1 993 0
ARM GAS  /tmp/ccxuzuSP.s 			page 25


 1369 0024 FFF7FEFF 		bl	vsnprintf
 1370              	.LVL159:
 1371              		.loc 1 996 0
 1372 0028 0028     		cmp	r0, #0
 1373 002a 09DD     		ble	.L125
 1374              	.LBB181:
 1375              	.LBB182:
 1376              		.loc 1 124 0
 1377 002c 0A4B     		ldr	r3, .L130+8
 1378              	.LBE182:
 1379              	.LBE181:
 1380              		.loc 1 998 0
 1381 002e FE28     		cmp	r0, #254
 1382              	.LBB185:
 1383              	.LBB183:
 1384              		.loc 1 124 0
 1385 0030 1A68     		ldr	r2, [r3]
 1386              	.LBE183:
 1387              	.LBE185:
 1388              		.loc 1 998 0
 1389 0032 A8BF     		it	ge
 1390 0034 FE20     		movge	r0, #254
 1391              	.LVL160:
 1392 0036 411C     		adds	r1, r0, #1
 1393              	.LVL161:
 1394              	.LBB186:
 1395              	.LBB184:
 1396              		.loc 1 124 0
 1397 0038 12B1     		cbz	r2, .L125
 1398              		.loc 1 125 0
 1399 003a 1B68     		ldr	r3, [r3]
 1400 003c 2846     		mov	r0, r5
 1401 003e 9847     		blx	r3
 1402              	.LVL162:
 1403              	.L125:
 1404              	.LBE184:
 1405              	.LBE186:
 1406              		.loc 1 1001 0
 1407 0040 0448     		ldr	r0, .L130+4
 1408 0042 FFF7FEFF 		bl	chMtxUnlock
 1409              	.LVL163:
 1410              		.loc 1 1002 0
 1411 0046 02B0     		add	sp, sp, #8
 1412              		.cfi_def_cfa_offset 32
 1413              		@ sp needed
 1414 0048 BDE87040 		pop	{r4, r5, r6, lr}
 1415              		.cfi_restore 14
 1416              		.cfi_restore 6
 1417              		.cfi_restore 5
 1418              		.cfi_restore 4
 1419              		.cfi_def_cfa_offset 16
 1420 004c 04B0     		add	sp, sp, #16
 1421              		.cfi_restore 3
 1422              		.cfi_restore 2
 1423              		.cfi_restore 1
 1424              		.cfi_restore 0
 1425              		.cfi_def_cfa_offset 0
ARM GAS  /tmp/ccxuzuSP.s 			page 26


 1426 004e 7047     		bx	lr
 1427              	.L131:
 1428              		.align	2
 1429              	.L130:
 1430 0050 00000000 		.word	.LANCHOR14
 1431 0054 00000000 		.word	.LANCHOR10
 1432 0058 00000000 		.word	.LANCHOR5
 1433              		.cfi_endproc
 1434              	.LFE264:
 1435              		.size	commands_printf, .-commands_printf
 1436              		.section	.text.commands_send_rotor_pos,"ax",%progbits
 1437              		.align	1
 1438              		.p2align 4,,15
 1439              		.global	commands_send_rotor_pos
 1440              		.syntax unified
 1441              		.thumb
 1442              		.thumb_func
 1443              		.fpu fpv4-sp-d16
 1444              		.type	commands_send_rotor_pos, %function
 1445              	commands_send_rotor_pos:
 1446              	.LFB265:
 1447              		.loc 1 1004 0
 1448              		.cfi_startproc
 1449              		@ args = 0, pretend = 0, frame = 16
 1450              		@ frame_needed = 0, uses_anonymous_args = 0
 1451              	.LVL164:
 1452 0000 10B5     		push	{r4, lr}
 1453              		.cfi_def_cfa_offset 8
 1454              		.cfi_offset 4, -8
 1455              		.cfi_offset 14, -4
 1456              		.loc 1 1008 0
 1457 0002 DFED0D7A 		vldr.32	s15, .L138
 1458 0006 20EE270A 		vmul.f32	s0, s0, s15
 1459              	.LVL165:
 1460              		.loc 1 1004 0
 1461 000a 84B0     		sub	sp, sp, #16
 1462              		.cfi_def_cfa_offset 24
 1463              		.loc 1 1008 0
 1464 000c FDEEC07A 		vcvt.s32.f32	s15, s0
 1465              		.loc 1 1007 0
 1466 0010 1623     		movs	r3, #22
 1467              		.loc 1 1008 0
 1468 0012 17EE901A 		vmov	r1, s15	@ int
 1469 0016 01AA     		add	r2, sp, #4
 1470 0018 02A8     		add	r0, sp, #8
 1471              		.loc 1 1007 0
 1472 001a 0124     		movs	r4, #1
 1473 001c 8DF80830 		strb	r3, [sp, #8]
 1474 0020 0194     		str	r4, [sp, #4]
 1475              		.loc 1 1008 0
 1476 0022 FFF7FEFF 		bl	buffer_append_int32
 1477              	.LVL166:
 1478              	.LBB187:
 1479              	.LBB188:
 1480              		.loc 1 89 0
 1481 0026 054B     		ldr	r3, .L138+4
 1482              	.LBE188:
ARM GAS  /tmp/ccxuzuSP.s 			page 27


 1483              	.LBE187:
 1484              		.loc 1 1009 0
 1485 0028 0199     		ldr	r1, [sp, #4]
 1486              	.LVL167:
 1487              	.LBB190:
 1488              	.LBB189:
 1489              		.loc 1 89 0
 1490 002a 1A68     		ldr	r2, [r3]
 1491 002c 12B1     		cbz	r2, .L132
 1492              		.loc 1 90 0
 1493 002e 1B68     		ldr	r3, [r3]
 1494 0030 02A8     		add	r0, sp, #8
 1495              	.LVL168:
 1496 0032 9847     		blx	r3
 1497              	.LVL169:
 1498              	.L132:
 1499              	.LBE189:
 1500              	.LBE190:
 1501              		.loc 1 1010 0
 1502 0034 04B0     		add	sp, sp, #16
 1503              		.cfi_def_cfa_offset 8
 1504              		@ sp needed
 1505 0036 10BD     		pop	{r4, pc}
 1506              	.L139:
 1507              		.align	2
 1508              	.L138:
 1509 0038 0050C347 		.word	1203982336
 1510 003c 00000000 		.word	.LANCHOR0
 1511              		.cfi_endproc
 1512              	.LFE265:
 1513              		.size	commands_send_rotor_pos, .-commands_send_rotor_pos
 1514              		.section	.text.commands_send_experiment_samples,"ax",%progbits
 1515              		.align	1
 1516              		.p2align 4,,15
 1517              		.global	commands_send_experiment_samples
 1518              		.syntax unified
 1519              		.thumb
 1520              		.thumb_func
 1521              		.fpu fpv4-sp-d16
 1522              		.type	commands_send_experiment_samples, %function
 1523              	commands_send_experiment_samples:
 1524              	.LFB266:
 1525              		.loc 1 1012 0
 1526              		.cfi_startproc
 1527              		@ args = 0, pretend = 0, frame = 8
 1528              		@ frame_needed = 1, uses_anonymous_args = 0
 1529              	.LVL170:
 1530 0000 2DE9F041 		push	{r4, r5, r6, r7, r8, lr}
 1531              		.cfi_def_cfa_offset 24
 1532              		.cfi_offset 4, -24
 1533              		.cfi_offset 5, -20
 1534              		.cfi_offset 6, -16
 1535              		.cfi_offset 7, -12
 1536              		.cfi_offset 8, -8
 1537              		.cfi_offset 14, -4
 1538 0004 2DED028B 		vpush.64	{d8}
 1539              		.cfi_def_cfa_offset 32
ARM GAS  /tmp/ccxuzuSP.s 			page 28


 1540              		.cfi_offset 80, -32
 1541              		.cfi_offset 81, -28
 1542              		.loc 1 1013 0
 1543 0008 8D00     		lsls	r5, r1, #2
 1544              		.loc 1 1012 0
 1545 000a 82B0     		sub	sp, sp, #8
 1546              		.cfi_def_cfa_offset 40
 1547              		.loc 1 1013 0
 1548 000c FF2D     		cmp	r5, #255
 1549              		.loc 1 1012 0
 1550 000e 00AF     		add	r7, sp, #0
 1551              		.cfi_def_cfa_register 7
 1552              		.loc 1 1013 0
 1553 0010 28DC     		bgt	.L140
 1554              	.LVL171:
 1555              		.loc 1 1017 0
 1556 0012 05F10803 		add	r3, r5, #8
 1557 0016 23F00703 		bic	r3, r3, #7
 1558 001a E846     		mov	r8, sp
 1559 001c ADEB030D 		sub	sp, sp, r3
 1560              		.loc 1 1020 0
 1561 0020 1722     		movs	r2, #23
 1562 0022 0123     		movs	r3, #1
 1563              	.LBB191:
 1564              		.loc 1 1022 0
 1565 0024 0029     		cmp	r1, #0
 1566              	.LBE191:
 1567              		.loc 1 1020 0
 1568 0026 8DF80020 		strb	r2, [sp]
 1569              		.loc 1 1017 0
 1570 002a 6E46     		mov	r6, sp
 1571              	.LVL172:
 1572              		.loc 1 1020 0
 1573 002c 7B60     		str	r3, [r7, #4]
 1574              	.LBB192:
 1575              		.loc 1 1022 0
 1576 002e 1FDD     		ble	.L146
 1577              		.loc 1 1023 0
 1578 0030 9FED108A 		vldr.32	s16, .L152
 1579 0034 0446     		mov	r4, r0
 1580 0036 0544     		add	r5, r5, r0
 1581              	.LVL173:
 1582              	.L143:
 1583              		.loc 1 1023 0 is_stmt 0 discriminator 3
 1584 0038 F4EC017A 		vldmia.32	r4!, {s15}
 1585 003c 67EE887A 		vmul.f32	s15, s15, s16
 1586 0040 3A1D     		adds	r2, r7, #4
 1587 0042 FDEEE77A 		vcvt.s32.f32	s15, s15
 1588 0046 3046     		mov	r0, r6
 1589 0048 17EE901A 		vmov	r1, s15	@ int
 1590 004c FFF7FEFF 		bl	buffer_append_int32
 1591              	.LVL174:
 1592              		.loc 1 1022 0 is_stmt 1 discriminator 3
 1593 0050 A542     		cmp	r5, r4
 1594 0052 F1D1     		bne	.L143
 1595 0054 7968     		ldr	r1, [r7, #4]
 1596              	.L142:
ARM GAS  /tmp/ccxuzuSP.s 			page 29


 1597              	.LVL175:
 1598              	.LBE192:
 1599              	.LBB193:
 1600              	.LBB194:
 1601              		.loc 1 89 0
 1602 0056 084B     		ldr	r3, .L152+4
 1603 0058 1A68     		ldr	r2, [r3]
 1604 005a 12B1     		cbz	r2, .L144
 1605              		.loc 1 90 0
 1606 005c 1B68     		ldr	r3, [r3]
 1607 005e 3046     		mov	r0, r6
 1608 0060 9847     		blx	r3
 1609              	.LVL176:
 1610              	.L144:
 1611 0062 C546     		mov	sp, r8
 1612              	.LVL177:
 1613              	.L140:
 1614              	.LBE194:
 1615              	.LBE193:
 1616              		.loc 1 1027 0
 1617 0064 0837     		adds	r7, r7, #8
 1618              		.cfi_remember_state
 1619              		.cfi_def_cfa_offset 32
 1620 0066 BD46     		mov	sp, r7
 1621              		.cfi_def_cfa_register 13
 1622              		@ sp needed
 1623 0068 BDEC028B 		vldm	sp!, {d8}
 1624              		.cfi_restore 80
 1625              		.cfi_restore 81
 1626              		.cfi_def_cfa_offset 24
 1627 006c BDE8F081 		pop	{r4, r5, r6, r7, r8, pc}
 1628              	.LVL178:
 1629              	.L146:
 1630              		.cfi_restore_state
 1631              	.LBB195:
 1632              		.loc 1 1022 0
 1633 0070 1946     		mov	r1, r3
 1634              	.LVL179:
 1635 0072 F0E7     		b	.L142
 1636              	.L153:
 1637              		.align	2
 1638              	.L152:
 1639 0074 00401C46 		.word	1176256512
 1640 0078 00000000 		.word	.LANCHOR0
 1641              	.LBE195:
 1642              		.cfi_endproc
 1643              	.LFE266:
 1644              		.size	commands_send_experiment_samples, .-commands_send_experiment_samples
 1645              		.section	.text.commands_get_disp_pos_mode,"ax",%progbits
 1646              		.align	1
 1647              		.p2align 4,,15
 1648              		.global	commands_get_disp_pos_mode
 1649              		.syntax unified
 1650              		.thumb
 1651              		.thumb_func
 1652              		.fpu fpv4-sp-d16
 1653              		.type	commands_get_disp_pos_mode, %function
ARM GAS  /tmp/ccxuzuSP.s 			page 30


 1654              	commands_get_disp_pos_mode:
 1655              	.LFB267:
 1656              		.loc 1 1029 0
 1657              		.cfi_startproc
 1658              		@ args = 0, pretend = 0, frame = 0
 1659              		@ frame_needed = 0, uses_anonymous_args = 0
 1660              		@ link register save eliminated.
 1661              		.loc 1 1030 0
 1662 0000 014B     		ldr	r3, .L155
 1663              		.loc 1 1031 0
 1664 0002 1878     		ldrb	r0, [r3]	@ zero_extendqisi2
 1665 0004 7047     		bx	lr
 1666              	.L156:
 1667 0006 00BF     		.align	2
 1668              	.L155:
 1669 0008 00000000 		.word	.LANCHOR15
 1670              		.cfi_endproc
 1671              	.LFE267:
 1672              		.size	commands_get_disp_pos_mode, .-commands_get_disp_pos_mode
 1673              		.section	.text.commands_set_app_data_handler,"ax",%progbits
 1674              		.align	1
 1675              		.p2align 4,,15
 1676              		.global	commands_set_app_data_handler
 1677              		.syntax unified
 1678              		.thumb
 1679              		.thumb_func
 1680              		.fpu fpv4-sp-d16
 1681              		.type	commands_set_app_data_handler, %function
 1682              	commands_set_app_data_handler:
 1683              	.LFB268:
 1684              		.loc 1 1033 0
 1685              		.cfi_startproc
 1686              		@ args = 0, pretend = 0, frame = 0
 1687              		@ frame_needed = 0, uses_anonymous_args = 0
 1688              		@ link register save eliminated.
 1689              	.LVL180:
 1690              		.loc 1 1034 0
 1691 0000 014B     		ldr	r3, .L158
 1692 0002 1860     		str	r0, [r3]
 1693              		.loc 1 1035 0
 1694 0004 7047     		bx	lr
 1695              	.L159:
 1696 0006 00BF     		.align	2
 1697              	.L158:
 1698 0008 00000000 		.word	.LANCHOR16
 1699              		.cfi_endproc
 1700              	.LFE268:
 1701              		.size	commands_set_app_data_handler, .-commands_set_app_data_handler
 1702              		.section	.text.commands_send_app_data,"ax",%progbits
 1703              		.align	1
 1704              		.p2align 4,,15
 1705              		.global	commands_send_app_data
 1706              		.syntax unified
 1707              		.thumb
 1708              		.thumb_func
 1709              		.fpu fpv4-sp-d16
 1710              		.type	commands_send_app_data, %function
ARM GAS  /tmp/ccxuzuSP.s 			page 31


 1711              	commands_send_app_data:
 1712              	.LFB269:
 1713              		.loc 1 1037 0
 1714              		.cfi_startproc
 1715              		@ args = 0, pretend = 0, frame = 0
 1716              		@ frame_needed = 0, uses_anonymous_args = 0
 1717              	.LVL181:
 1718 0000 70B5     		push	{r4, r5, r6, lr}
 1719              		.cfi_def_cfa_offset 16
 1720              		.cfi_offset 4, -16
 1721              		.cfi_offset 5, -12
 1722              		.cfi_offset 6, -8
 1723              		.cfi_offset 14, -4
 1724              		.loc 1 1040 0
 1725 0002 0D4D     		ldr	r5, .L166
 1726              		.loc 1 1037 0
 1727 0004 0646     		mov	r6, r0
 1728              		.loc 1 1039 0
 1729 0006 0D48     		ldr	r0, .L166+4
 1730              	.LVL182:
 1731              		.loc 1 1037 0
 1732 0008 0C46     		mov	r4, r1
 1733              		.loc 1 1039 0
 1734 000a FFF7FEFF 		bl	chMtxLock
 1735              	.LVL183:
 1736              		.loc 1 1040 0
 1737 000e 2846     		mov	r0, r5
 1738 0010 2423     		movs	r3, #36
 1739 0012 00F8013B 		strb	r3, [r0], #1
 1740              		.loc 1 1041 0
 1741 0016 2246     		mov	r2, r4
 1742 0018 3146     		mov	r1, r6
 1743 001a FFF7FEFF 		bl	memcpy
 1744              	.LVL184:
 1745              	.LBB196:
 1746              	.LBB197:
 1747              		.loc 1 89 0
 1748 001e 084B     		ldr	r3, .L166+8
 1749 0020 1A68     		ldr	r2, [r3]
 1750              	.LVL185:
 1751 0022 1AB1     		cbz	r2, .L161
 1752 0024 611C     		adds	r1, r4, #1
 1753              	.LVL186:
 1754              		.loc 1 90 0
 1755 0026 1B68     		ldr	r3, [r3]
 1756 0028 2846     		mov	r0, r5
 1757 002a 9847     		blx	r3
 1758              	.LVL187:
 1759              	.L161:
 1760              	.LBE197:
 1761              	.LBE196:
 1762              		.loc 1 1044 0
 1763 002c 0348     		ldr	r0, .L166+4
 1764              		.loc 1 1045 0
 1765 002e BDE87040 		pop	{r4, r5, r6, lr}
 1766              		.cfi_restore 14
 1767              		.cfi_restore 6
ARM GAS  /tmp/ccxuzuSP.s 			page 32


 1768              		.cfi_restore 5
 1769              		.cfi_restore 4
 1770              		.cfi_def_cfa_offset 0
 1771              	.LVL188:
 1772              		.loc 1 1044 0
 1773 0032 FFF7FEBF 		b	chMtxUnlock
 1774              	.LVL189:
 1775              	.L167:
 1776 0036 00BF     		.align	2
 1777              	.L166:
 1778 0038 00000000 		.word	.LANCHOR17
 1779 003c 00000000 		.word	.LANCHOR11
 1780 0040 00000000 		.word	.LANCHOR0
 1781              		.cfi_endproc
 1782              	.LFE269:
 1783              		.size	commands_send_app_data, .-commands_send_app_data
 1784              		.section	.text.commands_send_gpd_buffer_notify,"ax",%progbits
 1785              		.align	1
 1786              		.p2align 4,,15
 1787              		.global	commands_send_gpd_buffer_notify
 1788              		.syntax unified
 1789              		.thumb
 1790              		.thumb_func
 1791              		.fpu fpv4-sp-d16
 1792              		.type	commands_send_gpd_buffer_notify, %function
 1793              	commands_send_gpd_buffer_notify:
 1794              	.LFB270:
 1795              		.loc 1 1047 0
 1796              		.cfi_startproc
 1797              		@ args = 0, pretend = 0, frame = 8
 1798              		@ frame_needed = 0, uses_anonymous_args = 0
 1799              	.LVL190:
 1800 0000 00B5     		push	{lr}
 1801              		.cfi_def_cfa_offset 4
 1802              		.cfi_offset 14, -4
 1803              	.LBB198:
 1804              	.LBB199:
 1805              		.loc 1 89 0
 1806 0002 074B     		ldr	r3, .L174
 1807              	.LBE199:
 1808              	.LBE198:
 1809              		.loc 1 1047 0
 1810 0004 83B0     		sub	sp, sp, #12
 1811              		.cfi_def_cfa_offset 16
 1812              	.LBB202:
 1813              	.LBB200:
 1814              		.loc 1 89 0
 1815 0006 1A68     		ldr	r2, [r3]
 1816              	.LBE200:
 1817              	.LBE202:
 1818              		.loc 1 1050 0
 1819 0008 2721     		movs	r1, #39
 1820 000a 8DF80410 		strb	r1, [sp, #4]
 1821              	.LVL191:
 1822              	.LBB203:
 1823              	.LBB201:
 1824              		.loc 1 89 0
ARM GAS  /tmp/ccxuzuSP.s 			page 33


 1825 000e 1AB1     		cbz	r2, .L168
 1826              		.loc 1 90 0
 1827 0010 1B68     		ldr	r3, [r3]
 1828 0012 0121     		movs	r1, #1
 1829 0014 01A8     		add	r0, sp, #4
 1830              	.LVL192:
 1831 0016 9847     		blx	r3
 1832              	.LVL193:
 1833              	.L168:
 1834              	.LBE201:
 1835              	.LBE203:
 1836              		.loc 1 1052 0
 1837 0018 03B0     		add	sp, sp, #12
 1838              		.cfi_def_cfa_offset 4
 1839              		@ sp needed
 1840 001a 5DF804FB 		ldr	pc, [sp], #4
 1841              	.L175:
 1842 001e 00BF     		.align	2
 1843              	.L174:
 1844 0020 00000000 		.word	.LANCHOR0
 1845              		.cfi_endproc
 1846              	.LFE270:
 1847              		.size	commands_send_gpd_buffer_notify, .-commands_send_gpd_buffer_notify
 1848              		.section	.text.commands_send_mcconf,"ax",%progbits
 1849              		.align	1
 1850              		.p2align 4,,15
 1851              		.global	commands_send_mcconf
 1852              		.syntax unified
 1853              		.thumb
 1854              		.thumb_func
 1855              		.fpu fpv4-sp-d16
 1856              		.type	commands_send_mcconf, %function
 1857              	commands_send_mcconf:
 1858              	.LFB271:
 1859              		.loc 1 1054 0
 1860              		.cfi_startproc
 1861              		@ args = 0, pretend = 0, frame = 0
 1862              		@ frame_needed = 0, uses_anonymous_args = 0
 1863              	.LVL194:
 1864 0000 70B5     		push	{r4, r5, r6, lr}
 1865              		.cfi_def_cfa_offset 16
 1866              		.cfi_offset 4, -16
 1867              		.cfi_offset 5, -12
 1868              		.cfi_offset 6, -8
 1869              		.cfi_offset 14, -4
 1870              		.loc 1 1056 0
 1871 0002 0C4C     		ldr	r4, .L182
 1872              		.loc 1 1054 0
 1873 0004 0546     		mov	r5, r0
 1874              		.loc 1 1055 0
 1875 0006 0C48     		ldr	r0, .L182+4
 1876              	.LVL195:
 1877              		.loc 1 1054 0
 1878 0008 0E46     		mov	r6, r1
 1879              		.loc 1 1055 0
 1880 000a FFF7FEFF 		bl	chMtxLock
 1881              	.LVL196:
ARM GAS  /tmp/ccxuzuSP.s 			page 34


 1882              		.loc 1 1056 0
 1883 000e 2046     		mov	r0, r4
 1884              		.loc 1 1057 0
 1885 0010 3146     		mov	r1, r6
 1886              		.loc 1 1056 0
 1887 0012 00F8015B 		strb	r5, [r0], #1
 1888              		.loc 1 1057 0
 1889 0016 FFF7FEFF 		bl	confgenerator_serialize_mcconf
 1890              	.LVL197:
 1891              	.LBB204:
 1892              	.LBB205:
 1893              		.loc 1 89 0
 1894 001a 084B     		ldr	r3, .L182+8
 1895 001c 1A68     		ldr	r2, [r3]
 1896              	.LVL198:
 1897 001e 1AB1     		cbz	r2, .L177
 1898 0020 411C     		adds	r1, r0, #1
 1899              	.LVL199:
 1900              		.loc 1 90 0
 1901 0022 1B68     		ldr	r3, [r3]
 1902 0024 2046     		mov	r0, r4
 1903              	.LVL200:
 1904 0026 9847     		blx	r3
 1905              	.LVL201:
 1906              	.L177:
 1907              	.LBE205:
 1908              	.LBE204:
 1909              		.loc 1 1059 0
 1910 0028 0348     		ldr	r0, .L182+4
 1911              		.loc 1 1060 0
 1912 002a BDE87040 		pop	{r4, r5, r6, lr}
 1913              		.cfi_restore 14
 1914              		.cfi_restore 6
 1915              		.cfi_restore 5
 1916              		.cfi_restore 4
 1917              		.cfi_def_cfa_offset 0
 1918              	.LVL202:
 1919              		.loc 1 1059 0
 1920 002e FFF7FEBF 		b	chMtxUnlock
 1921              	.LVL203:
 1922              	.L183:
 1923 0032 00BF     		.align	2
 1924              	.L182:
 1925 0034 00000000 		.word	.LANCHOR17
 1926 0038 00000000 		.word	.LANCHOR11
 1927 003c 00000000 		.word	.LANCHOR0
 1928              		.cfi_endproc
 1929              	.LFE271:
 1930              		.size	commands_send_mcconf, .-commands_send_mcconf
 1931              		.section	.text.commands_send_appconf,"ax",%progbits
 1932              		.align	1
 1933              		.p2align 4,,15
 1934              		.global	commands_send_appconf
 1935              		.syntax unified
 1936              		.thumb
 1937              		.thumb_func
 1938              		.fpu fpv4-sp-d16
ARM GAS  /tmp/ccxuzuSP.s 			page 35


 1939              		.type	commands_send_appconf, %function
 1940              	commands_send_appconf:
 1941              	.LFB272:
 1942              		.loc 1 1062 0
 1943              		.cfi_startproc
 1944              		@ args = 0, pretend = 0, frame = 0
 1945              		@ frame_needed = 0, uses_anonymous_args = 0
 1946              	.LVL204:
 1947 0000 70B5     		push	{r4, r5, r6, lr}
 1948              		.cfi_def_cfa_offset 16
 1949              		.cfi_offset 4, -16
 1950              		.cfi_offset 5, -12
 1951              		.cfi_offset 6, -8
 1952              		.cfi_offset 14, -4
 1953              		.loc 1 1064 0
 1954 0002 0C4C     		ldr	r4, .L190
 1955              		.loc 1 1062 0
 1956 0004 0546     		mov	r5, r0
 1957              		.loc 1 1063 0
 1958 0006 0C48     		ldr	r0, .L190+4
 1959              	.LVL205:
 1960              		.loc 1 1062 0
 1961 0008 0E46     		mov	r6, r1
 1962              		.loc 1 1063 0
 1963 000a FFF7FEFF 		bl	chMtxLock
 1964              	.LVL206:
 1965              		.loc 1 1064 0
 1966 000e 2046     		mov	r0, r4
 1967              		.loc 1 1065 0
 1968 0010 3146     		mov	r1, r6
 1969              		.loc 1 1064 0
 1970 0012 00F8015B 		strb	r5, [r0], #1
 1971              		.loc 1 1065 0
 1972 0016 FFF7FEFF 		bl	confgenerator_serialize_appconf
 1973              	.LVL207:
 1974              	.LBB206:
 1975              	.LBB207:
 1976              		.loc 1 89 0
 1977 001a 084B     		ldr	r3, .L190+8
 1978 001c 1A68     		ldr	r2, [r3]
 1979              	.LVL208:
 1980 001e 1AB1     		cbz	r2, .L185
 1981 0020 411C     		adds	r1, r0, #1
 1982              	.LVL209:
 1983              		.loc 1 90 0
 1984 0022 1B68     		ldr	r3, [r3]
 1985 0024 2046     		mov	r0, r4
 1986              	.LVL210:
 1987 0026 9847     		blx	r3
 1988              	.LVL211:
 1989              	.L185:
 1990              	.LBE207:
 1991              	.LBE206:
 1992              		.loc 1 1067 0
 1993 0028 0348     		ldr	r0, .L190+4
 1994              		.loc 1 1068 0
 1995 002a BDE87040 		pop	{r4, r5, r6, lr}
ARM GAS  /tmp/ccxuzuSP.s 			page 36


 1996              		.cfi_restore 14
 1997              		.cfi_restore 6
 1998              		.cfi_restore 5
 1999              		.cfi_restore 4
 2000              		.cfi_def_cfa_offset 0
 2001              	.LVL212:
 2002              		.loc 1 1067 0
 2003 002e FFF7FEBF 		b	chMtxUnlock
 2004              	.LVL213:
 2005              	.L191:
 2006 0032 00BF     		.align	2
 2007              	.L190:
 2008 0034 00000000 		.word	.LANCHOR17
 2009 0038 00000000 		.word	.LANCHOR11
 2010 003c 00000000 		.word	.LANCHOR0
 2011              		.cfi_endproc
 2012              	.LFE272:
 2013              		.size	commands_send_appconf, .-commands_send_appconf
 2014              		.section	.text.commands_apply_mcconf_hw_limits,"ax",%progbits
 2015              		.align	1
 2016              		.p2align 4,,15
 2017              		.global	commands_apply_mcconf_hw_limits
 2018              		.syntax unified
 2019              		.thumb
 2020              		.thumb_func
 2021              		.fpu fpv4-sp-d16
 2022              		.type	commands_apply_mcconf_hw_limits, %function
 2023              	commands_apply_mcconf_hw_limits:
 2024              	.LFB273:
 2025              		.loc 1 1070 0
 2026              		.cfi_startproc
 2027              		@ args = 0, pretend = 0, frame = 0
 2028              		@ frame_needed = 0, uses_anonymous_args = 0
 2029              	.LVL214:
 2030 0000 10B5     		push	{r4, lr}
 2031              		.cfi_def_cfa_offset 8
 2032              		.cfi_offset 4, -8
 2033              		.cfi_offset 14, -4
 2034              		.loc 1 1071 0
 2035 0002 F7EE000A 		vmov.f32	s1, #1.0e+0
 2036              		.loc 1 1070 0
 2037 0006 0446     		mov	r4, r0
 2038              		.loc 1 1071 0
 2039 0008 9FED480A 		vldr.32	s0, .L197
 2040 000c 6430     		adds	r0, r0, #100
 2041              	.LVL215:
 2042 000e FFF7FEFF 		bl	utils_truncate_number
 2043              	.LVL216:
 2044              		.loc 1 1072 0
 2045 0012 04F16800 		add	r0, r4, #104
 2046 0016 F7EE000A 		vmov.f32	s1, #1.0e+0
 2047 001a 9FED440A 		vldr.32	s0, .L197
 2048 001e FFF7FEFF 		bl	utils_truncate_number
 2049              	.LVL217:
 2050              		.loc 1 1077 0
 2051 0022 94F82431 		ldrb	r3, [r4, #292]	@ zero_extendqisi2
 2052 0026 04F1B400 		add	r0, r4, #180
ARM GAS  /tmp/ccxuzuSP.s 			page 37


 2053 002a 002B     		cmp	r3, #0
 2054 002c 76D1     		bne	.L196
 2055              		.loc 1 1081 0
 2056 002e DFED400A 		vldr.32	s1, .L197+4
 2057 0032 9FED400A 		vldr.32	s0, .L197+8
 2058 0036 FFF7FEFF 		bl	utils_truncate_number
 2059              	.LVL218:
 2060              	.L194:
 2061              		.loc 1 1087 0
 2062 003a DFED3F0A 		vldr.32	s1, .L197+12
 2063 003e 9FED3F0A 		vldr.32	s0, .L197+16
 2064 0042 201D     		adds	r0, r4, #4
 2065 0044 FFF7FEFF 		bl	utils_truncate_number
 2066              	.LVL219:
 2067              		.loc 1 1088 0
 2068 0048 DFED3B0A 		vldr.32	s1, .L197+12
 2069 004c 9FED3B0A 		vldr.32	s0, .L197+16
 2070 0050 04F10800 		add	r0, r4, #8
 2071 0054 FFF7FEFF 		bl	utils_truncate_number
 2072              	.LVL220:
 2073              		.loc 1 1091 0
 2074 0058 DFED370A 		vldr.32	s1, .L197+12
 2075 005c 9FED370A 		vldr.32	s0, .L197+16
 2076 0060 04F10C00 		add	r0, r4, #12
 2077 0064 FFF7FEFF 		bl	utils_truncate_number
 2078              	.LVL221:
 2079              		.loc 1 1092 0
 2080 0068 DFED330A 		vldr.32	s1, .L197+12
 2081 006c 9FED330A 		vldr.32	s0, .L197+16
 2082 0070 04F11000 		add	r0, r4, #16
 2083 0074 FFF7FEFF 		bl	utils_truncate_number
 2084              	.LVL222:
 2085              		.loc 1 1095 0
 2086 0078 DFED310A 		vldr.32	s1, .L197+20
 2087 007c 9FED2B0A 		vldr.32	s0, .L197
 2088 0080 04F11400 		add	r0, r4, #20
 2089 0084 FFF7FEFF 		bl	utils_truncate_number
 2090              	.LVL223:
 2091              		.loc 1 1098 0
 2092 0088 DFED2E0A 		vldr.32	s1, .L197+24
 2093 008c B1EE080A 		vmov.f32	s0, #6.0e+0
 2094 0090 04F13000 		add	r0, r4, #48
 2095 0094 FFF7FEFF 		bl	utils_truncate_number
 2096              	.LVL224:
 2097              		.loc 1 1099 0
 2098 0098 DFED2A0A 		vldr.32	s1, .L197+24
 2099 009c B1EE080A 		vmov.f32	s0, #6.0e+0
 2100 00a0 04F12C00 		add	r0, r4, #44
 2101 00a4 FFF7FEFF 		bl	utils_truncate_number
 2102              	.LVL225:
 2103              		.loc 1 1102 0
 2104 00a8 DFED270A 		vldr.32	s1, .L197+28
 2105 00ac 9FED270A 		vldr.32	s0, .L197+32
 2106 00b0 04F11C00 		add	r0, r4, #28
 2107 00b4 FFF7FEFF 		bl	utils_truncate_number
 2108              	.LVL226:
 2109              		.loc 1 1103 0
ARM GAS  /tmp/ccxuzuSP.s 			page 38


 2110 00b8 DFED230A 		vldr.32	s1, .L197+28
 2111 00bc 9FED230A 		vldr.32	s0, .L197+32
 2112 00c0 04F11800 		add	r0, r4, #24
 2113 00c4 FFF7FEFF 		bl	utils_truncate_number
 2114              	.LVL227:
 2115              		.loc 1 1106 0
 2116 00c8 DFED210A 		vldr.32	s1, .L197+36
 2117 00cc 9FED170A 		vldr.32	s0, .L197
 2118 00d0 04F15400 		add	r0, r4, #84
 2119 00d4 FFF7FEFF 		bl	utils_truncate_number
 2120              	.LVL228:
 2121              		.loc 1 1109 0
 2122 00d8 DFED1E0A 		vldr.32	s1, .L197+40
 2123 00dc 9FED130A 		vldr.32	s0, .L197
 2124 00e0 04F15800 		add	r0, r4, #88
 2125 00e4 FFF7FEFF 		bl	utils_truncate_number
 2126              	.LVL229:
 2127              		.loc 1 1112 0
 2128 00e8 DFED1B0A 		vldr.32	s1, .L197+44
 2129 00ec 9FED1B0A 		vldr.32	s0, .L197+48
 2130 00f0 04F14000 		add	r0, r4, #64
 2131 00f4 FFF7FEFF 		bl	utils_truncate_number
 2132              	.LVL230:
 2133              		.loc 1 1113 0
 2134 00f8 DFED170A 		vldr.32	s1, .L197+44
 2135 00fc 9FED170A 		vldr.32	s0, .L197+48
 2136 0100 04F14400 		add	r0, r4, #68
 2137 0104 FFF7FEFF 		bl	utils_truncate_number
 2138              	.LVL231:
 2139              		.loc 1 1116 0
 2140 0108 04F59A70 		add	r0, r4, #308
 2141 010c F7EE000A 		vmov.f32	s1, #1.0e+0
 2142 0110 9FED130A 		vldr.32	s0, .L197+52
 2143              		.loc 1 1119 0
 2144 0114 BDE81040 		pop	{r4, lr}
 2145              		.cfi_remember_state
 2146              		.cfi_restore 14
 2147              		.cfi_restore 4
 2148              		.cfi_def_cfa_offset 0
 2149              	.LVL232:
 2150              		.loc 1 1116 0
 2151 0118 FFF7FEBF 		b	utils_truncate_number
 2152              	.LVL233:
 2153              	.L196:
 2154              		.cfi_restore_state
 2155              		.loc 1 1079 0
 2156 011c DFED110A 		vldr.32	s1, .L197+56
 2157 0120 9FED040A 		vldr.32	s0, .L197+8
 2158 0124 FFF7FEFF 		bl	utils_truncate_number
 2159              	.LVL234:
 2160 0128 87E7     		b	.L194
 2161              	.L198:
 2162 012a 00BF     		.align	2
 2163              	.L197:
 2164 012c 00000000 		.word	0
 2165 0130 00606A47 		.word	1198153728
 2166 0134 00803B45 		.word	1161527296
ARM GAS  /tmp/ccxuzuSP.s 			page 39


 2167 0138 0000F042 		.word	1123024896
 2168 013c 0000F0C2 		.word	3270508544
 2169 0140 00002043 		.word	1126170624
 2170 0144 00006442 		.word	1113849856
 2171 0148 00504348 		.word	1212370944
 2172 014c 005043C8 		.word	3359854592
 2173 0150 CDCCCC3D 		.word	1036831949
 2174 0154 A4707D3F 		.word	1065185444
 2175 0158 0000DC42 		.word	1121714176
 2176 015c 000020C2 		.word	3256877056
 2177 0160 CDCC4C3D 		.word	1028443341
 2178 0164 0060EA46 		.word	1189765120
 2179              		.cfi_endproc
 2180              	.LFE273:
 2181              		.size	commands_apply_mcconf_hw_limits, .-commands_apply_mcconf_hw_limits
 2182              		.section	.text.commands_process_packet,"ax",%progbits
 2183              		.align	1
 2184              		.p2align 4,,15
 2185              		.global	commands_process_packet
 2186              		.syntax unified
 2187              		.thumb
 2188              		.thumb_func
 2189              		.fpu fpv4-sp-d16
 2190              		.type	commands_process_packet, %function
 2191              	commands_process_packet:
 2192              	.LFB263:
 2193              		.loc 1 139 0
 2194              		.cfi_startproc
 2195              		@ args = 0, pretend = 0, frame = 88
 2196              		@ frame_needed = 0, uses_anonymous_args = 0
 2197              	.LVL235:
 2198              		.loc 1 141 0
 2199 0000 0029     		cmp	r1, #0
 2200 0002 00F0BB80 		beq	.L555
 2201              		.loc 1 139 0
 2202 0006 2DE9F04F 		push	{r4, r5, r6, r7, r8, r9, r10, fp, lr}
 2203              		.cfi_def_cfa_offset 36
 2204              		.cfi_offset 4, -36
 2205              		.cfi_offset 5, -32
 2206              		.cfi_offset 6, -28
 2207              		.cfi_offset 7, -24
 2208              		.cfi_offset 8, -20
 2209              		.cfi_offset 9, -16
 2210              		.cfi_offset 10, -12
 2211              		.cfi_offset 11, -8
 2212              		.cfi_offset 14, -4
 2213 000a 2DED088B 		vpush.64	{d8, d9, d10, d11}
 2214              		.cfi_def_cfa_offset 68
 2215              		.cfi_offset 80, -68
 2216              		.cfi_offset 81, -64
 2217              		.cfi_offset 82, -60
 2218              		.cfi_offset 83, -56
 2219              		.cfi_offset 84, -52
 2220              		.cfi_offset 85, -48
 2221              		.cfi_offset 86, -44
 2222              		.cfi_offset 87, -40
 2223              		.loc 1 151 0
ARM GAS  /tmp/ccxuzuSP.s 			page 40


 2224 000e 0546     		mov	r5, r0
 2225              		.loc 1 139 0
 2226 0010 97B0     		sub	sp, sp, #92
 2227              		.cfi_def_cfa_offset 160
 2228              		.loc 1 151 0
 2229 0012 15F8019B 		ldrb	r9, [r5], #1	@ zero_extendqisi2
 2230              	.LVL236:
 2231              		.loc 1 157 0
 2232 0016 B9F1340F 		cmp	r9, #52
 2233 001a 0646     		mov	r6, r0
 2234 001c 1746     		mov	r7, r2
 2235 001e 8846     		mov	r8, r1
 2236              		.loc 1 153 0
 2237 0020 01F1FF3A 		add	r10, r1, #-1
 2238              	.LVL237:
 2239              		.loc 1 157 0
 2240 0024 55D0     		beq	.L202
 2241              		.loc 1 157 0 is_stmt 0 discriminator 1
 2242 0026 B9F1370F 		cmp	r9, #55
 2243 002a 52D0     		beq	.L202
 2244              		.loc 1 161 0 is_stmt 1
 2245 002c AA4B     		ldr	r3, .L616
 2246 002e 1A60     		str	r2, [r3]
 2247              	.L204:
 2248              		.loc 1 167 0
 2249 0030 AA4B     		ldr	r3, .L616+4
 2250 0032 002F     		cmp	r7, #0
 2251 0034 08BF     		it	eq
 2252 0036 1F46     		moveq	r7, r3
 2253              	.LVL238:
 2254              		.loc 1 170 0
 2255 0038 B9F1460F 		cmp	r9, #70
 2256 003c 00F29980 		bhi	.L199
 2257 0040 DFE819F0 		tbh	[pc, r9, lsl #1]
 2258              	.L207:
 2259 0044 E505     		.2byte	(.L206-.L207)/2
 2260 0046 C100     		.2byte	(.L208-.L207)/2
 2261 0048 D400     		.2byte	(.L209-.L207)/2
 2262 004a FF00     		.2byte	(.L210-.L207)/2
 2263 004c 4A00     		.2byte	(.L211-.L207)/2
 2264 004e FF02     		.2byte	(.L212-.L207)/2
 2265 0050 6103     		.2byte	(.L213-.L207)/2
 2266 0052 8A01     		.2byte	(.L214-.L207)/2
 2267 0054 9E01     		.2byte	(.L215-.L207)/2
 2268 0056 C105     		.2byte	(.L216-.L207)/2
 2269 0058 D605     		.2byte	(.L217-.L207)/2
 2270 005a 9D00     		.2byte	(.L218-.L207)/2
 2271 005c 9700     		.2byte	(.L199-.L207)/2
 2272 005e 9B02     		.2byte	(.L219-.L207)/2
 2273 0060 F302     		.2byte	(.L220-.L207)/2
 2274 0062 F302     		.2byte	(.L220-.L207)/2
 2275 0064 1303     		.2byte	(.L221-.L207)/2
 2276 0066 E702     		.2byte	(.L222-.L207)/2
 2277 0068 E702     		.2byte	(.L222-.L207)/2
 2278 006a 5003     		.2byte	(.L223-.L207)/2
 2279 006c AE01     		.2byte	(.L224-.L207)/2
 2280 006e 9700     		.2byte	(.L199-.L207)/2
ARM GAS  /tmp/ccxuzuSP.s 			page 41


 2281 0070 9700     		.2byte	(.L199-.L207)/2
 2282 0072 9700     		.2byte	(.L199-.L207)/2
 2283 0074 AE01     		.2byte	(.L224-.L207)/2
 2284 0076 AE01     		.2byte	(.L224-.L207)/2
 2285 0078 AE01     		.2byte	(.L224-.L207)/2
 2286 007a AE01     		.2byte	(.L224-.L207)/2
 2287 007c AE01     		.2byte	(.L224-.L207)/2
 2288 007e C501     		.2byte	(.L225-.L207)/2
 2289 0080 B200     		.2byte	(.L226-.L207)/2
 2290 0082 2501     		.2byte	(.L227-.L207)/2
 2291 0084 5C01     		.2byte	(.L228-.L207)/2
 2292 0086 C701     		.2byte	(.L229-.L207)/2
 2293 0088 DE01     		.2byte	(.L230-.L207)/2
 2294 008a E601     		.2byte	(.L231-.L207)/2
 2295 008c 1E02     		.2byte	(.L232-.L207)/2
 2296 008e 9700     		.2byte	(.L199-.L207)/2
 2297 0090 6F02     		.2byte	(.L233-.L207)/2
 2298 0092 9700     		.2byte	(.L199-.L207)/2
 2299 0094 7F02     		.2byte	(.L234-.L207)/2
 2300 0096 8902     		.2byte	(.L235-.L207)/2
 2301 0098 7503     		.2byte	(.L236-.L207)/2
 2302 009a 8103     		.2byte	(.L237-.L207)/2
 2303 009c 8703     		.2byte	(.L238-.L207)/2
 2304 009e 9603     		.2byte	(.L239-.L207)/2
 2305 00a0 A803     		.2byte	(.L240-.L207)/2
 2306 00a2 B203     		.2byte	(.L241-.L207)/2
 2307 00a4 BC04     		.2byte	(.L242-.L207)/2
 2308 00a6 BC04     		.2byte	(.L242-.L207)/2
 2309 00a8 4A00     		.2byte	(.L211-.L207)/2
 2310 00aa B203     		.2byte	(.L241-.L207)/2
 2311 00ac 9700     		.2byte	(.L199-.L207)/2
 2312 00ae 9700     		.2byte	(.L199-.L207)/2
 2313 00b0 9700     		.2byte	(.L199-.L207)/2
 2314 00b2 A405     		.2byte	(.L243-.L207)/2
 2315 00b4 9700     		.2byte	(.L199-.L207)/2
 2316 00b6 AE01     		.2byte	(.L224-.L207)/2
 2317 00b8 AE01     		.2byte	(.L224-.L207)/2
 2318 00ba B500     		.2byte	(.L244-.L207)/2
 2319 00bc C400     		.2byte	(.L245-.L207)/2
 2320 00be F200     		.2byte	(.L246-.L207)/2
 2321 00c0 AE01     		.2byte	(.L224-.L207)/2
 2322 00c2 AB05     		.2byte	(.L247-.L207)/2
 2323 00c4 9605     		.2byte	(.L248-.L207)/2
 2324 00c6 2802     		.2byte	(.L249-.L207)/2
 2325 00c8 AE01     		.2byte	(.L224-.L207)/2
 2326 00ca AE01     		.2byte	(.L224-.L207)/2
 2327 00cc AE01     		.2byte	(.L224-.L207)/2
 2328 00ce AE01     		.2byte	(.L224-.L207)/2
 2329 00d0 AE01     		.2byte	(.L224-.L207)/2
 2330              	.LVL239:
 2331              		.p2align 1
 2332              	.L202:
 2333              		.loc 1 159 0
 2334 00d2 834B     		ldr	r3, .L616+8
 2335 00d4 1F60     		str	r7, [r3]
 2336 00d6 ABE7     		b	.L204
 2337              	.LVL240:
ARM GAS  /tmp/ccxuzuSP.s 			page 42


 2338              	.L211:
 2339              	.LBB208:
 2340              		.loc 1 251 0
 2341 00d8 0024     		movs	r4, #0
 2342              		.loc 1 252 0
 2343 00da 8248     		ldr	r0, .L616+12
 2344              		.loc 1 251 0
 2345 00dc 0394     		str	r4, [sp, #12]
 2346              		.loc 1 252 0
 2347 00de FFF7FEFF 		bl	chMtxLock
 2348              	.LVL241:
 2349              		.loc 1 254 0
 2350 00e2 039B     		ldr	r3, [sp, #12]
 2351 00e4 804E     		ldr	r6, .L616+16
 2352 00e6 5A1C     		adds	r2, r3, #1
 2353              		.loc 1 257 0
 2354 00e8 B9F1320F 		cmp	r9, #50
 2355              		.loc 1 254 0
 2356 00ec 0392     		str	r2, [sp, #12]
 2357 00ee 06F80390 		strb	r9, [r6, r3]
 2358              	.LVL242:
 2359              		.loc 1 257 0
 2360 00f2 00F0B986 		beq	.L560
 2361              		.loc 1 256 0
 2362 00f6 4FF0FF35 		mov	r5, #-1
 2363              	.LVL243:
 2364 00fa 03AC     		add	r4, sp, #12
 2365              	.LVL244:
 2366              	.L254:
 2367              		.loc 1 264 0
 2368 00fc FFF7FEFF 		bl	mc_interface_temp_fet_filtered
 2369              	.LVL245:
 2370 0100 2146     		mov	r1, r4
 2371 0102 F2EE040A 		vmov.f32	s1, #1.0e+1
 2372 0106 7848     		ldr	r0, .L616+16
 2373 0108 FFF7FEFF 		bl	buffer_append_float16
 2374              	.LVL246:
 2375              	.L255:
 2376              		.loc 1 266 0
 2377 010c AA07     		lsls	r2, r5, #30
 2378 010e 00F1A186 		bmi	.L561
 2379              	.L256:
 2380              		.loc 1 269 0
 2381 0112 6B07     		lsls	r3, r5, #29
 2382 0114 00F19486 		bmi	.L562
 2383              	.L257:
 2384              		.loc 1 272 0
 2385 0118 2807     		lsls	r0, r5, #28
 2386 011a 00F18786 		bmi	.L563
 2387              	.L258:
 2388              		.loc 1 275 0
 2389 011e E906     		lsls	r1, r5, #27
 2390 0120 00F10987 		bmi	.L564
 2391              	.L259:
 2392              		.loc 1 278 0
 2393 0124 AA06     		lsls	r2, r5, #26
 2394 0126 00F1FC86 		bmi	.L565
ARM GAS  /tmp/ccxuzuSP.s 			page 43


 2395              	.L260:
 2396              		.loc 1 281 0
 2397 012a 6B06     		lsls	r3, r5, #25
 2398 012c 00F1EF86 		bmi	.L566
 2399              	.L261:
 2400              		.loc 1 284 0
 2401 0130 2806     		lsls	r0, r5, #24
 2402 0132 00F1E286 		bmi	.L567
 2403              	.L262:
 2404              		.loc 1 287 0
 2405 0136 E905     		lsls	r1, r5, #23
 2406 0138 00F1C986 		bmi	.L568
 2407              	.L263:
 2408              		.loc 1 290 0
 2409 013c AA05     		lsls	r2, r5, #22
 2410 013e 00F1BB86 		bmi	.L569
 2411              	.L264:
 2412              		.loc 1 293 0
 2413 0142 6B05     		lsls	r3, r5, #21
 2414 0144 00F1AD86 		bmi	.L570
 2415              	.L265:
 2416              		.loc 1 296 0
 2417 0148 2805     		lsls	r0, r5, #20
 2418 014a 00F19F86 		bmi	.L571
 2419              	.L266:
 2420              		.loc 1 299 0
 2421 014e E904     		lsls	r1, r5, #19
 2422 0150 00F16186 		bmi	.L572
 2423              	.L267:
 2424              		.loc 1 302 0
 2425 0154 AA04     		lsls	r2, r5, #18
 2426 0156 00F12D86 		bmi	.L573
 2427              		.loc 1 305 0
 2428 015a 002D     		cmp	r5, #0
 2429 015c 40F03286 		bne	.L269
 2430              	.L270:
 2431              		.loc 1 317 0
 2432 0160 6A03     		lsls	r2, r5, #13
 2433 0162 00F10D86 		bmi	.L574
 2434              	.LVL247:
 2435              	.L320:
 2436              	.LBE208:
 2437              	.LBB210:
 2438              		.loc 1 723 0
 2439 0166 6048     		ldr	r0, .L616+16
 2440 0168 0399     		ldr	r1, [sp, #12]
 2441 016a B847     		blx	r7
 2442              	.LVL248:
 2443              		.loc 1 724 0
 2444 016c 5D48     		ldr	r0, .L616+12
 2445 016e FFF7FEFF 		bl	chMtxUnlock
 2446              	.LVL249:
 2447              	.L199:
 2448              	.LBE210:
 2449              		.loc 1 982 0
 2450 0172 17B0     		add	sp, sp, #92
 2451              		.cfi_def_cfa_offset 68
ARM GAS  /tmp/ccxuzuSP.s 			page 44


 2452              		@ sp needed
 2453 0174 BDEC088B 		vldm	sp!, {d8-d11}
 2454              		.cfi_restore 86
 2455              		.cfi_restore 87
 2456              		.cfi_restore 84
 2457              		.cfi_restore 85
 2458              		.cfi_restore 82
 2459              		.cfi_restore 83
 2460              		.cfi_restore 80
 2461              		.cfi_restore 81
 2462              		.cfi_def_cfa_offset 36
 2463 0178 BDE8F08F 		pop	{r4, r5, r6, r7, r8, r9, r10, fp, pc}
 2464              	.LVL250:
 2465              	.L555:
 2466              		.cfi_def_cfa_offset 0
 2467              		.cfi_restore 4
 2468              		.cfi_restore 5
 2469              		.cfi_restore 6
 2470              		.cfi_restore 7
 2471              		.cfi_restore 8
 2472              		.cfi_restore 9
 2473              		.cfi_restore 10
 2474              		.cfi_restore 11
 2475              		.cfi_restore 14
 2476 017c 7047     		bx	lr
 2477              	.LVL251:
 2478              	.L218:
 2479              		.cfi_def_cfa_offset 160
 2480              		.cfi_offset 4, -36
 2481              		.cfi_offset 5, -32
 2482              		.cfi_offset 6, -28
 2483              		.cfi_offset 7, -24
 2484              		.cfi_offset 8, -20
 2485              		.cfi_offset 9, -16
 2486              		.cfi_offset 10, -12
 2487              		.cfi_offset 11, -8
 2488              		.cfi_offset 14, -4
 2489              		.cfi_offset 80, -68
 2490              		.cfi_offset 81, -64
 2491              		.cfi_offset 82, -60
 2492              		.cfi_offset 83, -56
 2493              		.cfi_offset 84, -52
 2494              		.cfi_offset 85, -48
 2495              		.cfi_offset 86, -44
 2496              		.cfi_offset 87, -40
 2497              	.LBB237:
 2498              		.loc 1 364 0
 2499 017e FFF7FEFF 		bl	mc_interface_get_configuration
 2500              	.LVL252:
 2501 0182 5A4B     		ldr	r3, .L616+20
 2502 0184 0146     		mov	r1, r0
 2503 0186 4FF4E472 		mov	r2, #456
 2504 018a 1846     		mov	r0, r3
 2505 018c FFF7FEFF 		bl	memcpy
 2506              	.LVL253:
 2507              		.loc 1 367 0
 2508 0190 5749     		ldr	r1, .L616+24
ARM GAS  /tmp/ccxuzuSP.s 			page 45


 2509              		.loc 1 369 0
 2510 0192 8278     		ldrb	r2, [r0, #2]	@ zero_extendqisi2
 2511              		.loc 1 367 0
 2512 0194 7378     		ldrb	r3, [r6, #1]	@ zero_extendqisi2
 2513 0196 0B70     		strb	r3, [r1]
 2514              		.loc 1 369 0
 2515 0198 32B9     		cbnz	r2, .L226
 2516              		.loc 1 370 0
 2517 019a 002B     		cmp	r3, #0
 2518 019c 00F0B985 		beq	.L575
 2519              		.loc 1 372 0
 2520 01a0 012B     		cmp	r3, #1
 2521 01a2 01D1     		bne	.L226
 2522              		.loc 1 373 0
 2523 01a4 FFF7FEFF 		bl	mcpwm_set_detect
 2524              	.LVL254:
 2525              	.L226:
 2526              	.LBE237:
 2527              		.loc 1 474 0
 2528 01a8 FFF7FEFF 		bl	timeout_reset
 2529              	.LVL255:
 2530              		.loc 1 475 0
 2531 01ac E1E7     		b	.L199
 2532              	.L244:
 2533              		.loc 1 190 0
 2534 01ae 0123     		movs	r3, #1
 2535 01b0 3370     		strb	r3, [r6]
 2536              		.loc 1 191 0
 2537 01b2 FF20     		movs	r0, #255
 2538 01b4 4246     		mov	r2, r8
 2539 01b6 3146     		mov	r1, r6
 2540 01b8 0223     		movs	r3, #2
 2541 01ba FFF7FEFF 		bl	comm_can_send_buffer
 2542              	.LVL256:
 2543              		.loc 1 192 0
 2544 01be 4FF47A70 		mov	r0, #1000
 2545 01c2 FFF7FEFF 		bl	chThdSleep
 2546              	.LVL257:
 2547              	.L208:
 2548              		.loc 1 196 0
 2549 01c6 FFF7FEFF 		bl	flash_helper_jump_to_bootloader
 2550              	.LVL258:
 2551              		.loc 1 197 0
 2552 01ca D2E7     		b	.L199
 2553              	.L245:
 2554              		.loc 1 200 0
 2555 01cc FFF7FEFF 		bl	nrf_driver_ext_nrf_running
 2556              	.LVL259:
 2557 01d0 0028     		cmp	r0, #0
 2558 01d2 40F04585 		bne	.L576
 2559              	.L250:
 2560              		.loc 1 204 0
 2561 01d6 0223     		movs	r3, #2
 2562              		.loc 1 205 0
 2563 01d8 FF20     		movs	r0, #255
 2564 01da 4246     		mov	r2, r8
 2565              		.loc 1 204 0
ARM GAS  /tmp/ccxuzuSP.s 			page 46


 2566 01dc 3370     		strb	r3, [r6]
 2567              		.loc 1 205 0
 2568 01de 3146     		mov	r1, r6
 2569 01e0 FFF7FEFF 		bl	comm_can_send_buffer
 2570              	.LVL260:
 2571              		.loc 1 206 0
 2572 01e4 43F69820 		movw	r0, #15000
 2573 01e8 FFF7FEFF 		bl	chThdSleep
 2574              	.LVL261:
 2575              	.L209:
 2576              	.LBB238:
 2577              		.loc 1 210 0
 2578 01ec 0023     		movs	r3, #0
 2579 01ee 0393     		str	r3, [sp, #12]
 2580              		.loc 1 212 0
 2581 01f0 FFF7FEFF 		bl	nrf_driver_ext_nrf_running
 2582              	.LVL262:
 2583 01f4 18B1     		cbz	r0, .L251
 2584              		.loc 1 213 0
 2585 01f6 41F27070 		movw	r0, #6000
 2586 01fa FFF7FEFF 		bl	nrf_driver_pause
 2587              	.LVL263:
 2588              	.L251:
 2589              		.loc 1 215 0
 2590 01fe 03A9     		add	r1, sp, #12
 2591 0200 2846     		mov	r0, r5
 2592 0202 FFF7FEFF 		bl	buffer_get_uint32
 2593              	.LVL264:
 2594 0206 FFF7FEFF 		bl	flash_helper_erase_new_app
 2595              	.LVL265:
 2596              		.loc 1 220 0
 2597 020a A0F10902 		sub	r2, r0, #9
 2598              		.loc 1 219 0
 2599 020e 0223     		movs	r3, #2
 2600              		.loc 1 220 0
 2601 0210 B2FA82F2 		clz	r2, r2
 2602 0214 5209     		lsrs	r2, r2, #5
 2603              		.loc 1 221 0
 2604 0216 1946     		mov	r1, r3
 2605 0218 04A8     		add	r0, sp, #16
 2606              	.LVL266:
 2607              		.loc 1 220 0
 2608 021a 0393     		str	r3, [sp, #12]
 2609 021c 8DF81120 		strb	r2, [sp, #17]
 2610              		.loc 1 219 0
 2611 0220 8DF81030 		strb	r3, [sp, #16]
 2612              		.loc 1 221 0
 2613 0224 B847     		blx	r7
 2614              	.LVL267:
 2615              	.LBE238:
 2616              		.loc 1 222 0
 2617 0226 A4E7     		b	.L199
 2618              	.L246:
 2619              		.loc 1 225 0
 2620 0228 FFF7FEFF 		bl	nrf_driver_ext_nrf_running
 2621              	.LVL268:
 2622 022c 0028     		cmp	r0, #0
ARM GAS  /tmp/ccxuzuSP.s 			page 47


 2623 022e 40F01185 		bne	.L577
 2624              	.L252:
 2625              		.loc 1 229 0
 2626 0232 0323     		movs	r3, #3
 2627 0234 3370     		strb	r3, [r6]
 2628              		.loc 1 230 0
 2629 0236 4246     		mov	r2, r8
 2630 0238 3146     		mov	r1, r6
 2631 023a 0223     		movs	r3, #2
 2632 023c FF20     		movs	r0, #255
 2633 023e FFF7FEFF 		bl	comm_can_send_buffer
 2634              	.LVL269:
 2635              	.L210:
 2636              	.LBB239:
 2637              		.loc 1 234 0
 2638 0242 16A9     		add	r1, sp, #88
 2639 0244 0023     		movs	r3, #0
 2640 0246 41F84C3D 		str	r3, [r1, #-76]!
 2641              		.loc 1 235 0
 2642 024a 2846     		mov	r0, r5
 2643 024c FFF7FEFF 		bl	buffer_get_uint32
 2644              	.LVL270:
 2645 0250 0446     		mov	r4, r0
 2646              	.LVL271:
 2647              		.loc 1 237 0
 2648 0252 FFF7FEFF 		bl	nrf_driver_ext_nrf_running
 2649              	.LVL272:
 2650 0256 18B1     		cbz	r0, .L253
 2651              		.loc 1 238 0
 2652 0258 4FF4FA60 		mov	r0, #2000
 2653 025c FFF7FEFF 		bl	nrf_driver_pause
 2654              	.LVL273:
 2655              	.L253:
 2656              		.loc 1 240 0
 2657 0260 0399     		ldr	r1, [sp, #12]
 2658 0262 2046     		mov	r0, r4
 2659 0264 AAEB0102 		sub	r2, r10, r1
 2660 0268 2944     		add	r1, r1, r5
 2661 026a FFF7FEFF 		bl	flash_helper_write_new_app_data
 2662              	.LVL274:
 2663              		.loc 1 245 0
 2664 026e A0F10904 		sub	r4, r0, #9
 2665              	.LVL275:
 2666 0272 0223     		movs	r3, #2
 2667 0274 B4FA84F4 		clz	r4, r4
 2668 0278 6409     		lsrs	r4, r4, #5
 2669              		.loc 1 244 0
 2670 027a 0322     		movs	r2, #3
 2671              		.loc 1 246 0
 2672 027c 1946     		mov	r1, r3
 2673 027e 04A8     		add	r0, sp, #16
 2674              	.LVL276:
 2675              		.loc 1 245 0
 2676 0280 8DF81140 		strb	r4, [sp, #17]
 2677 0284 0393     		str	r3, [sp, #12]
 2678              		.loc 1 244 0
 2679 0286 8DF81020 		strb	r2, [sp, #16]
ARM GAS  /tmp/ccxuzuSP.s 			page 48


 2680              		.loc 1 246 0
 2681 028a B847     		blx	r7
 2682              	.LVL277:
 2683              	.LBE239:
 2684              		.loc 1 247 0
 2685 028c 71E7     		b	.L199
 2686              	.L227:
 2687              	.LBB240:
 2688              		.loc 1 480 0
 2689 028e 0122     		movs	r2, #1
 2690 0290 1F23     		movs	r3, #31
 2691 0292 0392     		str	r2, [sp, #12]
 2692 0294 8DF81030 		strb	r3, [sp, #16]
 2693              		.loc 1 481 0
 2694 0298 FFF7FEFF 		bl	app_ppm_get_decoded_level
 2695              	.LVL278:
 2696 029c 9FED158A 		vldr.32	s16, .L616+28
 2697 02a0 20EE080A 		vmul.f32	s0, s0, s16
 2698 02a4 04A8     		add	r0, sp, #16
 2699 02a6 FDEEC07A 		vcvt.s32.f32	s15, s0
 2700 02aa 03AA     		add	r2, sp, #12
 2701 02ac 17EE901A 		vmov	r1, s15	@ int
 2702 02b0 FFF7FEFF 		bl	buffer_append_int32
 2703              	.LVL279:
 2704              		.loc 1 482 0
 2705 02b4 0020     		movs	r0, #0
 2706 02b6 FFF7FEFF 		bl	servodec_get_last_pulse_len
 2707              	.LVL280:
 2708              	.L558:
 2709              	.LBE240:
 2710              	.LBB241:
 2711              		.loc 1 493 0
 2712 02ba 20EE080A 		vmul.f32	s0, s0, s16
 2713 02be 03AA     		add	r2, sp, #12
 2714 02c0 FDEEC07A 		vcvt.s32.f32	s15, s0
 2715 02c4 17EE901A 		vmov	r1, s15	@ int
 2716              	.L559:
 2717 02c8 04A8     		add	r0, sp, #16
 2718 02ca FFF7FEFF 		bl	buffer_append_int32
 2719              	.LVL281:
 2720              		.loc 1 494 0
 2721 02ce 04A8     		add	r0, sp, #16
 2722 02d0 0399     		ldr	r1, [sp, #12]
 2723 02d2 B847     		blx	r7
 2724              	.LVL282:
 2725              	.LBE241:
 2726              		.loc 1 495 0
 2727 02d4 4DE7     		b	.L199
 2728              	.L617:
 2729 02d6 00BF     		.align	2
 2730              	.L616:
 2731 02d8 00000000 		.word	.LANCHOR0
 2732 02dc 00000000 		.word	commands_send_packet
 2733 02e0 00000000 		.word	.LANCHOR13
 2734 02e4 00000000 		.word	.LANCHOR11
 2735 02e8 00000000 		.word	.LANCHOR17
 2736 02ec 00000000 		.word	.LANCHOR18
ARM GAS  /tmp/ccxuzuSP.s 			page 49


 2737 02f0 00000000 		.word	.LANCHOR15
 2738 02f4 00247449 		.word	1232348160
 2739 02f8 00007A44 		.word	1148846080
 2740              	.L228:
 2741              	.LBB242:
 2742              		.loc 1 489 0
 2743 02fc 2023     		movs	r3, #32
 2744 02fe 0122     		movs	r2, #1
 2745 0300 8DF81030 		strb	r3, [sp, #16]
 2746 0304 0392     		str	r2, [sp, #12]
 2747              		.loc 1 490 0
 2748 0306 FFF7FEFF 		bl	app_adc_get_decoded_level
 2749              	.LVL283:
 2750 030a 1FED068A 		vldr.32	s16, .L616+28
 2751 030e 20EE080A 		vmul.f32	s0, s0, s16
 2752 0312 03AA     		add	r2, sp, #12
 2753 0314 FDEEC07A 		vcvt.s32.f32	s15, s0
 2754 0318 04A8     		add	r0, sp, #16
 2755 031a 17EE901A 		vmov	r1, s15	@ int
 2756 031e FFF7FEFF 		bl	buffer_append_int32
 2757              	.LVL284:
 2758              		.loc 1 491 0
 2759 0322 FFF7FEFF 		bl	app_adc_get_voltage
 2760              	.LVL285:
 2761 0326 20EE080A 		vmul.f32	s0, s0, s16
 2762 032a 03AA     		add	r2, sp, #12
 2763 032c FDEEC07A 		vcvt.s32.f32	s15, s0
 2764 0330 04A8     		add	r0, sp, #16
 2765 0332 17EE901A 		vmov	r1, s15	@ int
 2766 0336 FFF7FEFF 		bl	buffer_append_int32
 2767              	.LVL286:
 2768              		.loc 1 492 0
 2769 033a FFF7FEFF 		bl	app_adc_get_decoded_level2
 2770              	.LVL287:
 2771 033e 20EE080A 		vmul.f32	s0, s0, s16
 2772 0342 03AA     		add	r2, sp, #12
 2773 0344 FDEEC07A 		vcvt.s32.f32	s15, s0
 2774 0348 04A8     		add	r0, sp, #16
 2775 034a 17EE901A 		vmov	r1, s15	@ int
 2776 034e FFF7FEFF 		bl	buffer_append_int32
 2777              	.LVL288:
 2778              		.loc 1 493 0
 2779 0352 FFF7FEFF 		bl	app_adc_get_voltage2
 2780              	.LVL289:
 2781 0356 B0E7     		b	.L558
 2782              	.L214:
 2783              	.LBE242:
 2784              	.LBB243:
 2785              		.loc 1 340 0
 2786 0358 16A9     		add	r1, sp, #88
 2787 035a 0023     		movs	r3, #0
 2788 035c 41F8483D 		str	r3, [r1, #-72]!
 2789              		.loc 1 341 0
 2790 0360 2846     		mov	r0, r5
 2791 0362 FFF7FEFF 		bl	buffer_get_int32
 2792              	.LVL290:
 2793 0366 07EE100A 		vmov	s14, r0	@ int
ARM GAS  /tmp/ccxuzuSP.s 			page 50


 2794 036a 5FED1D7A 		vldr.32	s15, .L616+32
 2795 036e B8EEC70A 		vcvt.f32.s32	s0, s14
 2796 0372 80EE270A 		vdiv.f32	s0, s0, s15
 2797 0376 FFF7FEFF 		bl	mc_interface_set_brake_current
 2798              	.LVL291:
 2799              		.loc 1 342 0
 2800 037a FFF7FEFF 		bl	timeout_reset
 2801              	.LVL292:
 2802              	.LBE243:
 2803              		.loc 1 343 0
 2804 037e F8E6     		b	.L199
 2805              	.L215:
 2806              	.LBB244:
 2807              		.loc 1 346 0
 2808 0380 16A9     		add	r1, sp, #88
 2809 0382 0023     		movs	r3, #0
 2810 0384 41F8483D 		str	r3, [r1, #-72]!
 2811              		.loc 1 347 0
 2812 0388 2846     		mov	r0, r5
 2813 038a FFF7FEFF 		bl	buffer_get_int32
 2814              	.LVL293:
 2815 038e 07EE900A 		vmov	s15, r0	@ int
 2816 0392 B8EEE70A 		vcvt.f32.s32	s0, s15
 2817 0396 FFF7FEFF 		bl	mc_interface_set_pid_speed
 2818              	.LVL294:
 2819              		.loc 1 348 0
 2820 039a FFF7FEFF 		bl	timeout_reset
 2821              	.LVL295:
 2822              	.LBE244:
 2823              		.loc 1 349 0
 2824 039e E8E6     		b	.L199
 2825              	.L224:
 2826              		.loc 1 970 0
 2827 03a0 C44C     		ldr	r4, .L618
 2828 03a2 2378     		ldrb	r3, [r4]	@ zero_extendqisi2
 2829 03a4 002B     		cmp	r3, #0
 2830 03a6 7FF4E4AE 		bne	.L199
 2831              		.loc 1 971 0
 2832 03aa 4246     		mov	r2, r8
 2833 03ac 3146     		mov	r1, r6
 2834 03ae C248     		ldr	r0, .L618+4
 2835 03b0 FFF7FEFF 		bl	memcpy
 2836              	.LVL296:
 2837              		.loc 1 972 0
 2838 03b4 C14B     		ldr	r3, .L618+8
 2839              		.loc 1 975 0
 2840 03b6 C249     		ldr	r1, .L618+12
 2841              		.loc 1 972 0
 2842 03b8 C3F800A0 		str	r10, [r3]
 2843              		.loc 1 974 0
 2844 03bc C14A     		ldr	r2, .L618+16
 2845              		.loc 1 975 0
 2846 03be 0868     		ldr	r0, [r1]
 2847              		.loc 1 973 0
 2848 03c0 0123     		movs	r3, #1
 2849              		.loc 1 975 0
 2850 03c2 1946     		mov	r1, r3
ARM GAS  /tmp/ccxuzuSP.s 			page 51


 2851              		.loc 1 973 0
 2852 03c4 2370     		strb	r3, [r4]
 2853              		.loc 1 974 0
 2854 03c6 1760     		str	r7, [r2]
 2855              		.loc 1 975 0
 2856 03c8 FFF7FEFF 		bl	chEvtSignal
 2857              	.LVL297:
 2858 03cc D1E6     		b	.L199
 2859              	.L225:
 2860              	.LBB245:
 2861              	.LBB246:
 2862              		.file 3 "ChibiOS_3.0.2/os/ext/CMSIS/include/core_cmFunc.h"
 2863              		.loc 3 342 0
 2864              		.syntax unified
 2865              	@ 342 "ChibiOS_3.0.2/os/ext/CMSIS/include/core_cmFunc.h" 1
 2866 03ce 72B6     		cpsid i
 2867              	@ 0 "" 2
 2868              		.thumb
 2869              		.syntax unified
 2870              	.L282:
 2871 03d0 FEE7     		b	.L282
 2872              	.L229:
 2873              	.LBE246:
 2874              	.LBE245:
 2875              	.LBB247:
 2876              		.loc 1 500 0
 2877 03d2 2123     		movs	r3, #33
 2878 03d4 0122     		movs	r2, #1
 2879 03d6 0392     		str	r2, [sp, #12]
 2880 03d8 8DF81030 		strb	r3, [sp, #16]
 2881              		.loc 1 501 0
 2882 03dc FFF7FEFF 		bl	app_nunchuk_get_decoded_chuk
 2883              	.LVL298:
 2884 03e0 DFEDB97A 		vldr.32	s15, .L618+20
 2885 03e4 60EE277A 		vmul.f32	s15, s0, s15
 2886 03e8 04A8     		add	r0, sp, #16
 2887 03ea FDEEE77A 		vcvt.s32.f32	s15, s15
 2888 03ee 03AA     		add	r2, sp, #12
 2889 03f0 17EE901A 		vmov	r1, s15	@ int
 2890 03f4 FFF7FEFF 		bl	buffer_append_int32
 2891              	.LVL299:
 2892              		.loc 1 502 0
 2893 03f8 04A8     		add	r0, sp, #16
 2894 03fa 0399     		ldr	r1, [sp, #12]
 2895 03fc B847     		blx	r7
 2896              	.LVL300:
 2897              	.LBE247:
 2898              		.loc 1 503 0
 2899 03fe B8E6     		b	.L199
 2900              	.L230:
 2901              		.loc 1 506 0
 2902 0400 A8F10202 		sub	r2, r8, #2
 2903 0404 0023     		movs	r3, #0
 2904 0406 B11C     		adds	r1, r6, #2
 2905 0408 7078     		ldrb	r0, [r6, #1]	@ zero_extendqisi2
 2906 040a FFF7FEFF 		bl	comm_can_send_buffer
 2907              	.LVL301:
ARM GAS  /tmp/ccxuzuSP.s 			page 52


 2908              		.loc 1 507 0
 2909 040e B0E6     		b	.L199
 2910              	.L231:
 2911              	.LBB248:
 2912              		.loc 1 515 0
 2913 0410 F278     		ldrb	r2, [r6, #3]	@ zero_extendqisi2
 2914              		.loc 1 516 0
 2915 0412 3379     		ldrb	r3, [r6, #4]	@ zero_extendqisi2
 2916              		.loc 1 513 0
 2917 0414 7178     		ldrb	r1, [r6, #1]	@ zero_extendqisi2
 2918              		.loc 1 514 0
 2919 0416 B478     		ldrb	r4, [r6, #2]	@ zero_extendqisi2
 2920              		.loc 1 513 0
 2921 0418 0491     		str	r1, [sp, #16]
 2922              		.loc 1 515 0
 2923 041a 0032     		adds	r2, r2, #0
 2924 041c 18BF     		it	ne
 2925 041e 0122     		movne	r2, #1
 2926              		.loc 1 516 0
 2927 0420 0033     		adds	r3, r3, #0
 2928 0422 18BF     		it	ne
 2929 0424 0123     		movne	r3, #1
 2930              		.loc 1 517 0
 2931 0426 03A9     		add	r1, sp, #12
 2932              		.loc 1 515 0
 2933 0428 8DF82420 		strb	r2, [sp, #36]
 2934              		.loc 1 517 0
 2935 042c 2846     		mov	r0, r5
 2936              		.loc 1 516 0
 2937 042e 0422     		movs	r2, #4
 2938 0430 8DF82530 		strb	r3, [sp, #37]
 2939 0434 0392     		str	r2, [sp, #12]
 2940              		.loc 1 514 0
 2941 0436 0594     		str	r4, [sp, #20]
 2942              		.loc 1 517 0
 2943 0438 FFF7FEFF 		bl	buffer_get_int16
 2944              	.LVL302:
 2945              		.loc 1 518 0
 2946 043c 03A9     		add	r1, sp, #12
 2947              		.loc 1 517 0
 2948 043e 0690     		str	r0, [sp, #24]
 2949              		.loc 1 518 0
 2950 0440 2846     		mov	r0, r5
 2951 0442 FFF7FEFF 		bl	buffer_get_int16
 2952              	.LVL303:
 2953              		.loc 1 519 0
 2954 0446 03A9     		add	r1, sp, #12
 2955              		.loc 1 518 0
 2956 0448 0790     		str	r0, [sp, #28]
 2957              		.loc 1 519 0
 2958 044a 2846     		mov	r0, r5
 2959 044c FFF7FEFF 		bl	buffer_get_int16
 2960              	.LVL304:
 2961              		.loc 1 521 0
 2962 0450 039B     		ldr	r3, [sp, #12]
 2963              		.loc 1 519 0
 2964 0452 0890     		str	r0, [sp, #32]
ARM GAS  /tmp/ccxuzuSP.s 			page 53


 2965              		.loc 1 521 0
 2966 0454 991C     		adds	r1, r3, #2
 2967 0456 5145     		cmp	r1, r10
 2968 0458 00F25484 		bhi	.L283
 2969              		.loc 1 523 0
 2970 045c EA18     		adds	r2, r5, r3
 2971              		.loc 1 522 0
 2972 045e EB5C     		ldrb	r3, [r5, r3]	@ zero_extendqisi2
 2973              		.loc 1 523 0
 2974 0460 5278     		ldrb	r2, [r2, #1]	@ zero_extendqisi2
 2975 0462 0391     		str	r1, [sp, #12]
 2976 0464 0032     		adds	r2, r2, #0
 2977 0466 18BF     		it	ne
 2978 0468 0122     		movne	r2, #1
 2979              		.loc 1 522 0
 2980 046a 0033     		adds	r3, r3, #0
 2981 046c 18BF     		it	ne
 2982 046e 0123     		movne	r3, #1
 2983              		.loc 1 523 0
 2984 0470 8DF82720 		strb	r2, [sp, #39]
 2985              		.loc 1 522 0
 2986 0474 8DF82630 		strb	r3, [sp, #38]
 2987              	.L284:
 2988              		.loc 1 528 0
 2989 0478 04A8     		add	r0, sp, #16
 2990 047a FFF7FEFF 		bl	app_nunchuk_update_output
 2991              	.LVL305:
 2992              	.LBE248:
 2993              		.loc 1 529 0
 2994 047e 78E6     		b	.L199
 2995              	.L232:
 2996              		.loc 1 532 0
 2997 0480 924B     		ldr	r3, .L618+24
 2998 0482 1A68     		ldr	r2, [r3]
 2999 0484 002A     		cmp	r2, #0
 3000 0486 3FF474AE 		beq	.L199
 3001              		.loc 1 533 0
 3002 048a 1B68     		ldr	r3, [r3]
 3003 048c 5146     		mov	r1, r10
 3004 048e 2846     		mov	r0, r5
 3005 0490 9847     		blx	r3
 3006              	.LVL306:
 3007 0492 6EE6     		b	.L199
 3008              	.L249:
 3009              	.LBB249:
 3010              		.loc 1 863 0
 3011 0494 16A9     		add	r1, sp, #88
 3012 0496 0023     		movs	r3, #0
 3013 0498 41F84C3D 		str	r3, [r1, #-76]!
 3014              		.loc 1 861 0
 3015 049c 0122     		movs	r2, #1
 3016 049e 4123     		movs	r3, #65
 3017              		.loc 1 864 0
 3018 04a0 2846     		mov	r0, r5
 3019              		.loc 1 861 0
 3020 04a2 8DF81030 		strb	r3, [sp, #16]
 3021 04a6 0292     		str	r2, [sp, #8]
ARM GAS  /tmp/ccxuzuSP.s 			page 54


 3022              		.loc 1 864 0
 3023 04a8 FFF7FEFF 		bl	buffer_get_uint16
 3024              	.LVL307:
 3025              		.loc 1 895 0
 3026 04ac 04AC     		add	r4, sp, #16
 3027              		.loc 1 864 0
 3028 04ae 0546     		mov	r5, r0
 3029              	.LVL308:
 3030              		.loc 1 895 0
 3031 04b0 0146     		mov	r1, r0
 3032 04b2 02AA     		add	r2, sp, #8
 3033 04b4 2046     		mov	r0, r4
 3034              	.LVL309:
 3035 04b6 FFF7FEFF 		bl	buffer_append_uint16
 3036              	.LVL310:
 3037              		.loc 1 897 0
 3038 04ba EB07     		lsls	r3, r5, #31
 3039 04bc 00F17886 		bmi	.L578
 3040              	.L334:
 3041              		.loc 1 900 0
 3042 04c0 AE07     		lsls	r6, r5, #30
 3043              	.LVL311:
 3044 04c2 00F16D86 		bmi	.L579
 3045              	.L335:
 3046              		.loc 1 903 0
 3047 04c6 6807     		lsls	r0, r5, #29
 3048 04c8 00F16286 		bmi	.L580
 3049              	.L336:
 3050              		.loc 1 907 0
 3051 04cc 2907     		lsls	r1, r5, #28
 3052 04ce 00F15786 		bmi	.L581
 3053              	.L337:
 3054              		.loc 1 910 0
 3055 04d2 EA06     		lsls	r2, r5, #27
 3056 04d4 00F14C86 		bmi	.L582
 3057              	.L338:
 3058              		.loc 1 913 0
 3059 04d8 AB06     		lsls	r3, r5, #26
 3060 04da 00F14186 		bmi	.L583
 3061              	.L339:
 3062              		.loc 1 917 0
 3063 04de 6E06     		lsls	r6, r5, #25
 3064 04e0 00F13686 		bmi	.L584
 3065              	.L340:
 3066              		.loc 1 920 0
 3067 04e4 2806     		lsls	r0, r5, #24
 3068 04e6 00F12B86 		bmi	.L585
 3069              	.L341:
 3070              		.loc 1 923 0
 3071 04ea E905     		lsls	r1, r5, #23
 3072 04ec 00F12086 		bmi	.L586
 3073              	.L342:
 3074              		.loc 1 927 0
 3075 04f0 AA05     		lsls	r2, r5, #22
 3076 04f2 00F11586 		bmi	.L587
 3077              	.L343:
 3078              		.loc 1 930 0
ARM GAS  /tmp/ccxuzuSP.s 			page 55


 3079 04f6 6B05     		lsls	r3, r5, #21
 3080 04f8 00F10A86 		bmi	.L588
 3081              	.L344:
 3082              		.loc 1 933 0
 3083 04fc 2E05     		lsls	r6, r5, #20
 3084 04fe 00F1FF85 		bmi	.L589
 3085              	.L345:
 3086              		.loc 1 937 0
 3087 0502 E804     		lsls	r0, r5, #19
 3088 0504 00F1F485 		bmi	.L590
 3089              	.L346:
 3090              		.loc 1 940 0
 3091 0508 A904     		lsls	r1, r5, #18
 3092 050a 00F1D285 		bmi	.L591
 3093              	.L347:
 3094              		.loc 1 943 0
 3095 050e 6A04     		lsls	r2, r5, #17
 3096 0510 00F1C785 		bmi	.L592
 3097              	.L348:
 3098              		.loc 1 946 0
 3099 0514 2B04     		lsls	r3, r5, #16
 3100 0516 00F1BC85 		bmi	.L593
 3101              	.L349:
 3102              		.loc 1 950 0
 3103 051a 2046     		mov	r0, r4
 3104 051c 0299     		ldr	r1, [sp, #8]
 3105 051e B847     		blx	r7
 3106              	.LVL312:
 3107              	.LBE249:
 3108              		.loc 1 951 0
 3109 0520 27E6     		b	.L199
 3110              	.LVL313:
 3111              	.L233:
 3112              	.LBB250:
 3113              		.loc 1 551 0
 3114 0522 FFF7FEFF 		bl	timeout_reset
 3115              	.LVL314:
 3116              		.loc 1 552 0
 3117 0526 16A9     		add	r1, sp, #88
 3118 0528 0023     		movs	r3, #0
 3119 052a 41F8483D 		str	r3, [r1, #-72]!
 3120              		.loc 1 553 0
 3121 052e 2846     		mov	r0, r5
 3122 0530 FFF7FEFF 		bl	buffer_get_int32
 3123              	.LVL315:
 3124 0534 07EE900A 		vmov	s15, r0	@ int
 3125 0538 B8EEE70A 		vcvt.f32.s32	s0, s15
 3126 053c FFF7FEFF 		bl	gpdrive_set_switching_frequency
 3127              	.LVL316:
 3128              	.LBE250:
 3129              		.loc 1 554 0
 3130 0540 17E6     		b	.L199
 3131              	.L234:
 3132              	.LBB251:
 3133              		.loc 1 559 0
 3134 0542 0122     		movs	r2, #1
 3135 0544 2823     		movs	r3, #40
ARM GAS  /tmp/ccxuzuSP.s 			page 56


 3136 0546 0392     		str	r2, [sp, #12]
 3137 0548 8DF81030 		strb	r3, [sp, #16]
 3138              		.loc 1 560 0
 3139 054c FFF7FEFF 		bl	gpdrive_buffer_size_left
 3140              	.LVL317:
 3141 0550 03AA     		add	r2, sp, #12
 3142 0552 0146     		mov	r1, r0
 3143 0554 B8E6     		b	.L559
 3144              	.L235:
 3145              	.LBE251:
 3146              	.LBB252:
 3147              		.loc 1 565 0
 3148 0556 FFF7FEFF 		bl	timeout_reset
 3149              	.LVL318:
 3150              		.loc 1 566 0
 3151 055a 0023     		movs	r3, #0
 3152              		.loc 1 567 0
 3153 055c 9A45     		cmp	r10, r3
 3154              		.loc 1 566 0
 3155 055e 0493     		str	r3, [sp, #16]
 3156              		.loc 1 567 0
 3157 0560 7FF707AE 		ble	.L199
 3158 0564 04AC     		add	r4, sp, #16
 3159              	.L287:
 3160              		.loc 1 568 0
 3161 0566 2146     		mov	r1, r4
 3162 0568 2846     		mov	r0, r5
 3163 056a FFF7FEFF 		bl	buffer_get_float32_auto
 3164              	.LVL319:
 3165 056e FFF7FEFF 		bl	gpdrive_add_buffer_sample
 3166              	.LVL320:
 3167              		.loc 1 567 0
 3168 0572 049B     		ldr	r3, [sp, #16]
 3169 0574 5345     		cmp	r3, r10
 3170 0576 F6DB     		blt	.L287
 3171 0578 FBE5     		b	.L199
 3172              	.L219:
 3173              	.LBE252:
 3174              		.loc 1 388 0
 3175 057a FFF7FEFF 		bl	mc_interface_get_configuration
 3176              	.LVL321:
 3177 057e 544C     		ldr	r4, .L618+28
 3178 0580 0146     		mov	r1, r0
 3179 0582 4FF4E472 		mov	r2, #456
 3180 0586 2046     		mov	r0, r4
 3181 0588 FFF7FEFF 		bl	memcpy
 3182              	.LVL322:
 3183              		.loc 1 390 0
 3184 058c 2146     		mov	r1, r4
 3185 058e 2846     		mov	r0, r5
 3186 0590 FFF7FEFF 		bl	confgenerator_deserialize_mcconf
 3187              	.LVL323:
 3188 0594 0028     		cmp	r0, #0
 3189 0596 00F0E983 		beq	.L276
 3190              	.LBB253:
 3191              		.loc 1 391 0
 3192 059a F7EE000A 		vmov.f32	s1, #1.0e+0
ARM GAS  /tmp/ccxuzuSP.s 			page 57


 3193 059e 9FED500A 		vldr.32	s0, .L618+44
 3194 05a2 04F16400 		add	r0, r4, #100
 3195 05a6 FFF7FEFF 		bl	utils_truncate_number
 3196              	.LVL324:
 3197              		.loc 1 392 0
 3198 05aa F7EE000A 		vmov.f32	s1, #1.0e+0
 3199 05ae 9FED4C0A 		vldr.32	s0, .L618+44
 3200 05b2 04F16800 		add	r0, r4, #104
 3201 05b6 FFF7FEFF 		bl	utils_truncate_number
 3202              	.LVL325:
 3203              		.loc 1 394 0
 3204 05ba 94ED196A 		vldr.32	s12, [r4, #100]
 3205              		.loc 1 395 0
 3206 05be D4ED1A6A 		vldr.32	s13, [r4, #104]
 3207              		.loc 1 394 0
 3208 05c2 94ED017A 		vldr.32	s14, [r4, #4]
 3209              		.loc 1 395 0
 3210 05c6 D4ED027A 		vldr.32	s15, [r4, #8]
 3211              		.loc 1 397 0
 3212 05ca 2369     		ldr	r3, [r4, #16]	@ float
 3213              		.loc 1 396 0
 3214 05cc E268     		ldr	r2, [r4, #12]	@ float
 3215              		.loc 1 397 0
 3216 05ce A367     		str	r3, [r4, #120]	@ float
 3217              		.loc 1 394 0
 3218 05d0 27EE067A 		vmul.f32	s14, s14, s12
 3219              		.loc 1 395 0
 3220 05d4 67EEA67A 		vmul.f32	s15, s15, s13
 3221              		.loc 1 401 0
 3222 05d8 2046     		mov	r0, r4
 3223              		.loc 1 396 0
 3224 05da 6267     		str	r2, [r4, #116]	@ float
 3225              		.loc 1 394 0
 3226 05dc 84ED1B7A 		vstr.32	s14, [r4, #108]
 3227              		.loc 1 398 0
 3228 05e0 84ED1F7A 		vstr.32	s14, [r4, #124]
 3229              		.loc 1 395 0
 3230 05e4 C4ED1C7A 		vstr.32	s15, [r4, #112]
 3231              		.loc 1 399 0
 3232 05e8 C4ED207A 		vstr.32	s15, [r4, #128]
 3233              		.loc 1 401 0
 3234 05ec FFF7FEFF 		bl	commands_apply_mcconf_hw_limits
 3235              	.LVL326:
 3236              		.loc 1 402 0
 3237 05f0 2046     		mov	r0, r4
 3238 05f2 FFF7FEFF 		bl	conf_general_store_mc_configuration
 3239              	.LVL327:
 3240              		.loc 1 403 0
 3241 05f6 2046     		mov	r0, r4
 3242 05f8 FFF7FEFF 		bl	mc_interface_set_configuration
 3243              	.LVL328:
 3244              		.loc 1 404 0
 3245 05fc 4FF4FA60 		mov	r0, #2000
 3246 0600 FFF7FEFF 		bl	chThdSleep
 3247              	.LVL329:
 3248              		.loc 1 408 0
 3249 0604 16A8     		add	r0, sp, #88
ARM GAS  /tmp/ccxuzuSP.s 			page 58


 3250 0606 0D23     		movs	r3, #13
 3251 0608 00F8483D 		strb	r3, [r0, #-72]!
 3252              		.loc 1 409 0
 3253 060c 0121     		movs	r1, #1
 3254 060e B847     		blx	r7
 3255              	.LVL330:
 3256              	.LBE253:
 3257 0610 AFE5     		b	.L199
 3258              	.LVL331:
 3259              	.L222:
 3260              		.loc 1 446 0
 3261 0612 B9F1110F 		cmp	r9, #17
 3262 0616 00F08083 		beq	.L594
 3263              		.loc 1 449 0
 3264 061a 2E48     		ldr	r0, .L618+32
 3265 061c FFF7FEFF 		bl	confgenerator_set_defaults_appconf
 3266              	.LVL332:
 3267              	.L281:
 3268              		.loc 1 452 0
 3269 0620 4846     		mov	r0, r9
 3270 0622 2C49     		ldr	r1, .L618+32
 3271 0624 FFF7FEFF 		bl	commands_send_appconf
 3272              	.LVL333:
 3273              		.loc 1 453 0
 3274 0628 A3E5     		b	.L199
 3275              	.L220:
 3276              		.loc 1 417 0
 3277 062a B9F10E0F 		cmp	r9, #14
 3278 062e 00F07C83 		beq	.L595
 3279              		.loc 1 420 0
 3280 0632 2748     		ldr	r0, .L618+28
 3281 0634 FFF7FEFF 		bl	confgenerator_set_defaults_mcconf
 3282              	.LVL334:
 3283              	.L278:
 3284              		.loc 1 423 0
 3285 0638 4846     		mov	r0, r9
 3286 063a 2549     		ldr	r1, .L618+28
 3287 063c FFF7FEFF 		bl	commands_send_mcconf
 3288              	.LVL335:
 3289              		.loc 1 424 0
 3290 0640 97E5     		b	.L199
 3291              	.L212:
 3292              	.LBB254:
 3293              		.loc 1 328 0
 3294 0642 16A9     		add	r1, sp, #88
 3295 0644 0023     		movs	r3, #0
 3296 0646 41F8483D 		str	r3, [r1, #-72]!
 3297              		.loc 1 329 0
 3298 064a 2846     		mov	r0, r5
 3299 064c FFF7FEFF 		bl	buffer_get_int32
 3300              	.LVL336:
 3301 0650 07EE100A 		vmov	s14, r0	@ int
 3302 0654 DFED207A 		vldr.32	s15, .L618+36
 3303 0658 B8EEC70A 		vcvt.f32.s32	s0, s14
 3304 065c 80EE270A 		vdiv.f32	s0, s0, s15
 3305 0660 FFF7FEFF 		bl	mc_interface_set_duty
 3306              	.LVL337:
ARM GAS  /tmp/ccxuzuSP.s 			page 59


 3307              		.loc 1 330 0
 3308 0664 FFF7FEFF 		bl	timeout_reset
 3309              	.LVL338:
 3310              	.LBE254:
 3311              		.loc 1 331 0
 3312 0668 83E5     		b	.L199
 3313              	.L221:
 3314              		.loc 1 427 0
 3315 066a FFF7FEFF 		bl	app_get_configuration
 3316              	.LVL339:
 3317 066e 194C     		ldr	r4, .L618+32
 3318 0670 0146     		mov	r1, r0
 3319 0672 CC22     		movs	r2, #204
 3320 0674 2046     		mov	r0, r4
 3321 0676 FFF7FEFF 		bl	memcpy
 3322              	.LVL340:
 3323              		.loc 1 429 0
 3324 067a 2146     		mov	r1, r4
 3325 067c 2846     		mov	r0, r5
 3326 067e FFF7FEFF 		bl	confgenerator_deserialize_appconf
 3327              	.LVL341:
 3328 0682 0028     		cmp	r0, #0
 3329 0684 00F07783 		beq	.L279
 3330              	.LBB255:
 3331              		.loc 1 430 0
 3332 0688 2046     		mov	r0, r4
 3333 068a FFF7FEFF 		bl	conf_general_store_app_configuration
 3334              	.LVL342:
 3335              		.loc 1 431 0
 3336 068e 2046     		mov	r0, r4
 3337 0690 FFF7FEFF 		bl	app_set_configuration
 3338              	.LVL343:
 3339              		.loc 1 432 0
 3340 0694 94ED020A 		vldr.32	s0, [r4, #8]
 3341 0698 6068     		ldr	r0, [r4, #4]
 3342 069a FFF7FEFF 		bl	timeout_configure
 3343              	.LVL344:
 3344              		.loc 1 433 0
 3345 069e 4FF4FA60 		mov	r0, #2000
 3346 06a2 FFF7FEFF 		bl	chThdSleep
 3347              	.LVL345:
 3348              		.loc 1 437 0
 3349 06a6 16A8     		add	r0, sp, #88
 3350 06a8 1023     		movs	r3, #16
 3351 06aa 00F8483D 		strb	r3, [r0, #-72]!
 3352              		.loc 1 438 0
 3353 06ae 0121     		movs	r1, #1
 3354 06b0 B847     		blx	r7
 3355              	.LVL346:
 3356              	.LBE255:
 3357 06b2 5EE5     		b	.L199
 3358              	.L619:
 3359              		.align	2
 3360              	.L618:
 3361 06b4 00000000 		.word	.LANCHOR9
 3362 06b8 00000000 		.word	.LANCHOR3
 3363 06bc 00000000 		.word	.LANCHOR2
ARM GAS  /tmp/ccxuzuSP.s 			page 60


 3364 06c0 00000000 		.word	.LANCHOR1
 3365 06c4 00000000 		.word	.LANCHOR5
 3366 06c8 00247449 		.word	1232348160
 3367 06cc 00000000 		.word	.LANCHOR16
 3368 06d0 00000000 		.word	.LANCHOR18
 3369 06d4 00000000 		.word	.LANCHOR19
 3370 06d8 0050C347 		.word	1203982336
 3371 06dc 00007A44 		.word	1148846080
 3372 06e0 00000000 		.word	0
 3373              	.LVL347:
 3374              	.L223:
 3375              	.LBB256:
 3376              		.loc 1 461 0
 3377 06e4 16A9     		add	r1, sp, #88
 3378 06e6 0123     		movs	r3, #1
 3379 06e8 41F8483D 		str	r3, [r1, #-72]!
 3380              		.loc 1 462 0
 3381 06ec 2846     		mov	r0, r5
 3382              		.loc 1 461 0
 3383 06ee 7478     		ldrb	r4, [r6, #1]	@ zero_extendqisi2
 3384              	.LVL348:
 3385              		.loc 1 462 0
 3386 06f0 FFF7FEFF 		bl	buffer_get_uint16
 3387              	.LVL349:
 3388              		.loc 1 463 0
 3389 06f4 049B     		ldr	r3, [sp, #16]
 3390              		.loc 1 464 0
 3391 06f6 0146     		mov	r1, r0
 3392 06f8 EA5C     		ldrb	r2, [r5, r3]	@ zero_extendqisi2
 3393 06fa 2046     		mov	r0, r4
 3394              	.LVL350:
 3395              		.loc 1 463 0
 3396 06fc 0133     		adds	r3, r3, #1
 3397 06fe 0493     		str	r3, [sp, #16]
 3398              	.LVL351:
 3399              		.loc 1 464 0
 3400 0700 FFF7FEFF 		bl	mc_interface_sample_print_data
 3401              	.LVL352:
 3402              	.LBE256:
 3403              		.loc 1 465 0
 3404 0704 35E5     		b	.L199
 3405              	.LVL353:
 3406              	.L213:
 3407              	.LBB257:
 3408              		.loc 1 334 0
 3409 0706 16A9     		add	r1, sp, #88
 3410 0708 0023     		movs	r3, #0
 3411 070a 41F8483D 		str	r3, [r1, #-72]!
 3412              		.loc 1 335 0
 3413 070e 2846     		mov	r0, r5
 3414 0710 FFF7FEFF 		bl	buffer_get_int32
 3415              	.LVL354:
 3416 0714 07EE100A 		vmov	s14, r0	@ int
 3417 0718 5FED107A 		vldr.32	s15, .L618+40
 3418 071c B8EEC70A 		vcvt.f32.s32	s0, s14
 3419 0720 80EE270A 		vdiv.f32	s0, s0, s15
 3420 0724 FFF7FEFF 		bl	mc_interface_set_current
ARM GAS  /tmp/ccxuzuSP.s 			page 61


 3421              	.LVL355:
 3422              		.loc 1 336 0
 3423 0728 FFF7FEFF 		bl	timeout_reset
 3424              	.LVL356:
 3425              	.LBE257:
 3426              		.loc 1 337 0
 3427 072c 21E5     		b	.L199
 3428              	.L236:
 3429              	.LBB258:
 3430              		.loc 1 573 0
 3431 072e FFF7FEFF 		bl	timeout_reset
 3432              	.LVL357:
 3433              		.loc 1 574 0
 3434 0732 16A9     		add	r1, sp, #88
 3435 0734 0023     		movs	r3, #0
 3436 0736 41F8483D 		str	r3, [r1, #-72]!
 3437              		.loc 1 575 0
 3438 073a 2846     		mov	r0, r5
 3439 073c FFF7FEFF 		bl	buffer_get_float32_auto
 3440              	.LVL358:
 3441 0740 FFF7FEFF 		bl	gpdrive_add_buffer_sample
 3442              	.LVL359:
 3443              	.LBE258:
 3444              		.loc 1 576 0
 3445 0744 15E5     		b	.L199
 3446              	.L237:
 3447              	.LBB259:
 3448              		.loc 1 579 0
 3449 0746 FFF7FEFF 		bl	timeout_reset
 3450              	.LVL360:
 3451              		.loc 1 581 0
 3452 074a 7078     		ldrb	r0, [r6, #1]	@ zero_extendqisi2
 3453 074c FFF7FEFF 		bl	gpdrive_set_mode
 3454              	.LVL361:
 3455              	.LBE259:
 3456              		.loc 1 582 0
 3457 0750 0FE5     		b	.L199
 3458              	.LVL362:
 3459              	.L238:
 3460              	.LBB260:
 3461              		.loc 1 585 0
 3462 0752 FFF7FEFF 		bl	timeout_reset
 3463              	.LVL363:
 3464              		.loc 1 587 0
 3465 0756 BAF1000F 		cmp	r10, #0
 3466 075a 7FF70AAD 		ble	.L199
 3467 075e 731E     		subs	r3, r6, #1
 3468 0760 9844     		add	r8, r8, r3
 3469              	.LVL364:
 3470              	.L288:
 3471              		.loc 1 588 0
 3472 0762 16F9010F 		ldrsb	r0, [r6, #1]!
 3473              	.LVL365:
 3474 0766 FFF7FEFF 		bl	gpdrive_add_buffer_sample_int
 3475              	.LVL366:
 3476              		.loc 1 587 0
 3477 076a B045     		cmp	r8, r6
ARM GAS  /tmp/ccxuzuSP.s 			page 62


 3478 076c F9D1     		bne	.L288
 3479 076e 00E5     		b	.L199
 3480              	.LVL367:
 3481              	.L239:
 3482              	.LBE260:
 3483              	.LBB261:
 3484              		.loc 1 593 0
 3485 0770 FFF7FEFF 		bl	timeout_reset
 3486              	.LVL368:
 3487              		.loc 1 594 0
 3488 0774 0023     		movs	r3, #0
 3489              		.loc 1 595 0
 3490 0776 9A45     		cmp	r10, r3
 3491              		.loc 1 594 0
 3492 0778 0493     		str	r3, [sp, #16]
 3493              		.loc 1 595 0
 3494 077a 7FF7FAAC 		ble	.L199
 3495 077e 04AC     		add	r4, sp, #16
 3496              	.L290:
 3497              		.loc 1 596 0
 3498 0780 2146     		mov	r1, r4
 3499 0782 2846     		mov	r0, r5
 3500 0784 FFF7FEFF 		bl	buffer_get_int16
 3501              	.LVL369:
 3502 0788 FFF7FEFF 		bl	gpdrive_add_buffer_sample_int
 3503              	.LVL370:
 3504              		.loc 1 595 0
 3505 078c 049B     		ldr	r3, [sp, #16]
 3506 078e 5345     		cmp	r3, r10
 3507 0790 F6DB     		blt	.L290
 3508 0792 EEE4     		b	.L199
 3509              	.L240:
 3510              	.LBE261:
 3511              	.LBB262:
 3512              		.loc 1 601 0
 3513 0794 16A9     		add	r1, sp, #88
 3514 0796 0023     		movs	r3, #0
 3515 0798 41F8483D 		str	r3, [r1, #-72]!
 3516              		.loc 1 602 0
 3517 079c 2846     		mov	r0, r5
 3518 079e FFF7FEFF 		bl	buffer_get_float32_auto
 3519              	.LVL371:
 3520 07a2 FFF7FEFF 		bl	gpdrive_set_buffer_int_scale
 3521              	.LVL372:
 3522              	.LBE262:
 3523              		.loc 1 603 0
 3524 07a6 E4E4     		b	.L199
 3525              	.L241:
 3526              	.LVL373:
 3527              	.LBB263:
 3528              		.loc 1 615 0
 3529 07a8 0020     		movs	r0, #0
 3530 07aa FFF7FEFF 		bl	mc_interface_get_amp_hours
 3531              	.LVL374:
 3532 07ae 1FED348A 		vldr.32	s16, .L618+44
 3533              	.LBB211:
 3534              	.LBB212:
ARM GAS  /tmp/ccxuzuSP.s 			page 63


 3535              	.LBB213:
 3536              	.LBB214:
 3537              	.LBB215:
 3538              	.LBB216:
 3539              		.file 4 "ChibiOS_3.0.2/os/rt/include/chvt.h"
 3540              		.loc 4 231 0
 3541 07b2 7C4E     		ldr	r6, .L620
 3542              	.LBE216:
 3543              	.LBE215:
 3544              	.LBE214:
 3545              	.LBE213:
 3546              		.loc 1 624 0
 3547 07b4 9FED7CBA 		vldr.32	s22, .L620+4
 3548 07b8 DFED7CAA 		vldr.32	s21, .L620+8
 3549              	.LBE212:
 3550              	.LBE211:
 3551              		.loc 1 616 0
 3552 07bc 0020     		movs	r0, #0
 3553              		.loc 1 615 0
 3554 07be 30EE08AA 		vadd.f32	s20, s0, s16
 3555              	.LVL375:
 3556              		.loc 1 616 0
 3557 07c2 FFF7FEFF 		bl	mc_interface_get_amp_hours_charged
 3558              	.LVL376:
 3559              		.loc 1 617 0
 3560 07c6 0020     		movs	r0, #0
 3561              		.loc 1 616 0
 3562 07c8 70EE089A 		vadd.f32	s19, s0, s16
 3563              	.LVL377:
 3564              		.loc 1 617 0
 3565 07cc FFF7FEFF 		bl	mc_interface_get_watt_hours
 3566              	.LVL378:
 3567              		.loc 1 618 0
 3568 07d0 0020     		movs	r0, #0
 3569              		.loc 1 617 0
 3570 07d2 30EE089A 		vadd.f32	s18, s0, s16
 3571              	.LVL379:
 3572              		.loc 1 618 0
 3573 07d6 FFF7FEFF 		bl	mc_interface_get_watt_hours_charged
 3574              	.LVL380:
 3575 07da 70EE088A 		vadd.f32	s17, s0, s16
 3576              	.LVL381:
 3577              		.loc 1 619 0
 3578 07de FFF7FEFF 		bl	mc_interface_get_tot_current_filtered
 3579              	.LVL382:
 3580 07e2 70EE08BA 		vadd.f32	s23, s0, s16
 3581              	.LVL383:
 3582              		.loc 1 620 0
 3583 07e6 FFF7FEFF 		bl	mc_interface_get_tot_current_in_filtered
 3584              	.LVL384:
 3585 07ea 30EE088A 		vadd.f32	s16, s0, s16
 3586              	.LVL385:
 3587              	.LBB234:
 3588              		.loc 1 622 0
 3589 07ee 0024     		movs	r4, #0
 3590              	.LBE234:
 3591              		.loc 1 613 0
ARM GAS  /tmp/ccxuzuSP.s 			page 64


 3592 07f0 4FF00108 		mov	r8, #1
 3593              	.LVL386:
 3594              	.L299:
 3595              	.LBB235:
 3596              	.LBB233:
 3597              		.loc 1 623 0
 3598 07f4 2046     		mov	r0, r4
 3599 07f6 FFF7FEFF 		bl	comm_can_get_status_msg_index
 3600              	.LVL387:
 3601              		.loc 1 624 0
 3602 07fa 0368     		ldr	r3, [r0]
 3603 07fc 002B     		cmp	r3, #0
 3604 07fe 15DB     		blt	.L291
 3605              	.LVL388:
 3606              	.LBB220:
 3607              	.LBB219:
 3608              	.LBB218:
 3609              	.LBB217:
 3610              		.loc 4 231 0 discriminator 1
 3611 0800 B36A     		ldr	r3, [r6, #40]
 3612              	.LVL389:
 3613              	.LBE217:
 3614              	.LBE218:
 3615              		.loc 4 267 0 discriminator 1
 3616 0802 4268     		ldr	r2, [r0, #4]
 3617 0804 9B1A     		subs	r3, r3, r2
 3618              	.LBE219:
 3619              	.LBE220:
 3620              		.loc 1 624 0 discriminator 1
 3621 0806 07EE903A 		vmov	s15, r3	@ int
 3622 080a F8EE677A 		vcvt.f32.u32	s15, s15
 3623 080e 87EE8B7A 		vdiv.f32	s14, s15, s22
 3624 0812 B4EEEA7A 		vcmpe.f32	s14, s21
 3625 0816 F1EE10FA 		vmrs	APSR_nzcv, FPSCR
 3626 081a 07D5     		bpl	.L291
 3627              		.loc 1 625 0
 3628 081c D0ED037A 		vldr.32	s15, [r0, #12]
 3629              		.loc 1 626 0
 3630 0820 08F10108 		add	r8, r8, #1
 3631              	.LVL390:
 3632              		.loc 1 625 0
 3633 0824 7BEEA7BA 		vadd.f32	s23, s23, s15
 3634              	.LVL391:
 3635              		.loc 1 626 0
 3636 0828 5FFA88F8 		uxtb	r8, r8
 3637              	.LVL392:
 3638              	.L291:
 3639              		.loc 1 629 0
 3640 082c 2046     		mov	r0, r4
 3641              	.LVL393:
 3642 082e FFF7FEFF 		bl	comm_can_get_status_msg_2_index
 3643              	.LVL394:
 3644              		.loc 1 630 0
 3645 0832 0368     		ldr	r3, [r0]
 3646 0834 002B     		cmp	r3, #0
 3647 0836 15DB     		blt	.L293
 3648              	.LVL395:
ARM GAS  /tmp/ccxuzuSP.s 			page 65


 3649              	.LBB221:
 3650              	.LBB222:
 3651              	.LBB223:
 3652              	.LBB224:
 3653              		.loc 4 231 0 discriminator 1
 3654 0838 B36A     		ldr	r3, [r6, #40]
 3655              	.LVL396:
 3656              	.LBE224:
 3657              	.LBE223:
 3658              		.loc 4 267 0 discriminator 1
 3659 083a 4268     		ldr	r2, [r0, #4]
 3660 083c 9B1A     		subs	r3, r3, r2
 3661              	.LBE222:
 3662              	.LBE221:
 3663              		.loc 1 630 0 discriminator 1
 3664 083e 07EE903A 		vmov	s15, r3	@ int
 3665 0842 F8EE677A 		vcvt.f32.u32	s15, s15
 3666 0846 87EE8B7A 		vdiv.f32	s14, s15, s22
 3667 084a B4EEEA7A 		vcmpe.f32	s14, s21
 3668 084e F1EE10FA 		vmrs	APSR_nzcv, FPSCR
 3669 0852 07D5     		bpl	.L293
 3670              		.loc 1 631 0
 3671 0854 90ED027A 		vldr.32	s14, [r0, #8]
 3672              		.loc 1 632 0
 3673 0858 D0ED037A 		vldr.32	s15, [r0, #12]
 3674              		.loc 1 631 0
 3675 085c 3AEE07AA 		vadd.f32	s20, s20, s14
 3676              	.LVL397:
 3677              		.loc 1 632 0
 3678 0860 79EEA79A 		vadd.f32	s19, s19, s15
 3679              	.LVL398:
 3680              	.L293:
 3681              		.loc 1 635 0
 3682 0864 2046     		mov	r0, r4
 3683              	.LVL399:
 3684 0866 FFF7FEFF 		bl	comm_can_get_status_msg_3_index
 3685              	.LVL400:
 3686              		.loc 1 636 0
 3687 086a 0368     		ldr	r3, [r0]
 3688 086c 002B     		cmp	r3, #0
 3689 086e 15DB     		blt	.L295
 3690              	.LVL401:
 3691              	.LBB225:
 3692              	.LBB226:
 3693              	.LBB227:
 3694              	.LBB228:
 3695              		.loc 4 231 0 discriminator 1
 3696 0870 B36A     		ldr	r3, [r6, #40]
 3697              	.LVL402:
 3698              	.LBE228:
 3699              	.LBE227:
 3700              		.loc 4 267 0 discriminator 1
 3701 0872 4268     		ldr	r2, [r0, #4]
 3702 0874 9B1A     		subs	r3, r3, r2
 3703              	.LBE226:
 3704              	.LBE225:
 3705              		.loc 1 636 0 discriminator 1
ARM GAS  /tmp/ccxuzuSP.s 			page 66


 3706 0876 07EE903A 		vmov	s15, r3	@ int
 3707 087a F8EE677A 		vcvt.f32.u32	s15, s15
 3708 087e 87EE8B7A 		vdiv.f32	s14, s15, s22
 3709 0882 B4EEEA7A 		vcmpe.f32	s14, s21
 3710 0886 F1EE10FA 		vmrs	APSR_nzcv, FPSCR
 3711 088a 07D5     		bpl	.L295
 3712              		.loc 1 637 0
 3713 088c 90ED027A 		vldr.32	s14, [r0, #8]
 3714              		.loc 1 638 0
 3715 0890 D0ED037A 		vldr.32	s15, [r0, #12]
 3716              		.loc 1 637 0
 3717 0894 39EE079A 		vadd.f32	s18, s18, s14
 3718              	.LVL403:
 3719              		.loc 1 638 0
 3720 0898 78EEA78A 		vadd.f32	s17, s17, s15
 3721              	.LVL404:
 3722              	.L295:
 3723              		.loc 1 641 0
 3724 089c 2046     		mov	r0, r4
 3725              	.LVL405:
 3726 089e FFF7FEFF 		bl	comm_can_get_status_msg_4_index
 3727              	.LVL406:
 3728              		.loc 1 642 0
 3729 08a2 0368     		ldr	r3, [r0]
 3730 08a4 002B     		cmp	r3, #0
 3731 08a6 11DB     		blt	.L297
 3732              	.LVL407:
 3733              	.LBB229:
 3734              	.LBB230:
 3735              	.LBB231:
 3736              	.LBB232:
 3737              		.loc 4 231 0 discriminator 1
 3738 08a8 B36A     		ldr	r3, [r6, #40]
 3739              	.LVL408:
 3740              	.LBE232:
 3741              	.LBE231:
 3742              		.loc 4 267 0 discriminator 1
 3743 08aa 4268     		ldr	r2, [r0, #4]
 3744 08ac 9B1A     		subs	r3, r3, r2
 3745              	.LBE230:
 3746              	.LBE229:
 3747              		.loc 1 642 0 discriminator 1
 3748 08ae 07EE903A 		vmov	s15, r3	@ int
 3749 08b2 F8EE677A 		vcvt.f32.u32	s15, s15
 3750 08b6 87EE8B7A 		vdiv.f32	s14, s15, s22
 3751 08ba B4EEEA7A 		vcmpe.f32	s14, s21
 3752 08be F1EE10FA 		vmrs	APSR_nzcv, FPSCR
 3753              		.loc 1 643 0 discriminator 1
 3754 08c2 44BF     		itt	mi
 3755 08c4 D0ED047A 		vldrmi.32	s15, [r0, #16]
 3756 08c8 38EE278A 		vaddmi.f32	s16, s16, s15
 3757              	.LVL409:
 3758              	.L297:
 3759              	.LBE233:
 3760              		.loc 1 622 0 discriminator 2
 3761 08cc 0134     		adds	r4, r4, #1
 3762              	.LVL410:
ARM GAS  /tmp/ccxuzuSP.s 			page 67


 3763 08ce 0A2C     		cmp	r4, #10
 3764 08d0 90D1     		bne	.L299
 3765              	.LBE235:
 3766              		.loc 1 647 0
 3767 08d2 16A8     		add	r0, sp, #88
 3768              	.LVL411:
 3769 08d4 0023     		movs	r3, #0
 3770 08d6 40F8503D 		str	r3, [r0, #-80]!	@ float
 3771              		.loc 1 648 0
 3772 08da FFF7FEFF 		bl	mc_interface_get_battery_level
 3773              	.LVL412:
 3774              		.loc 1 650 0
 3775 08de 0024     		movs	r4, #0
 3776              	.LVL413:
 3777              		.loc 1 651 0
 3778 08e0 3348     		ldr	r0, .L620+12
 3779              		.loc 1 650 0
 3780 08e2 0394     		str	r4, [sp, #12]
 3781              		.loc 1 648 0
 3782 08e4 F0EE40AA 		vmov.f32	s21, s0
 3783              	.LVL414:
 3784              		.loc 1 651 0
 3785 08e8 FFF7FEFF 		bl	chMtxLock
 3786              	.LVL415:
 3787              		.loc 1 653 0
 3788 08ec 039B     		ldr	r3, [sp, #12]
 3789 08ee 314E     		ldr	r6, .L620+16
 3790 08f0 5A1C     		adds	r2, r3, #1
 3791              		.loc 1 656 0
 3792 08f2 B9F1330F 		cmp	r9, #51
 3793              		.loc 1 653 0
 3794 08f6 0392     		str	r2, [sp, #12]
 3795 08f8 06F80390 		strb	r9, [r6, r3]
 3796              	.LVL416:
 3797              		.loc 1 656 0
 3798 08fc 00F0B883 		beq	.L596
 3799              		.loc 1 655 0
 3800 0900 4FF0FF35 		mov	r5, #-1
 3801              	.LVL417:
 3802 0904 03AC     		add	r4, sp, #12
 3803              	.LVL418:
 3804              	.L300:
 3805              		.loc 1 663 0
 3806 0906 FFF7FEFF 		bl	mc_interface_temp_fet_filtered
 3807              	.LVL419:
 3808 090a 2146     		mov	r1, r4
 3809 090c F2EE040A 		vmov.f32	s1, #1.0e+1
 3810 0910 2848     		ldr	r0, .L620+16
 3811 0912 FFF7FEFF 		bl	buffer_append_float16
 3812              	.LVL420:
 3813              	.L301:
 3814              		.loc 1 665 0
 3815 0916 A807     		lsls	r0, r5, #30
 3816 0918 00F1A183 		bmi	.L597
 3817              	.L302:
 3818              		.loc 1 668 0
 3819 091c 6907     		lsls	r1, r5, #29
ARM GAS  /tmp/ccxuzuSP.s 			page 68


 3820 091e 00F19583 		bmi	.L598
 3821              	.L303:
 3822              		.loc 1 671 0
 3823 0922 2A07     		lsls	r2, r5, #28
 3824 0924 00F18983 		bmi	.L599
 3825              	.L304:
 3826              		.loc 1 674 0
 3827 0928 EB06     		lsls	r3, r5, #27
 3828 092a 00F17D83 		bmi	.L600
 3829              	.L305:
 3830              		.loc 1 677 0
 3831 092e A806     		lsls	r0, r5, #26
 3832 0930 00F17183 		bmi	.L601
 3833              	.L306:
 3834              		.loc 1 680 0
 3835 0934 6906     		lsls	r1, r5, #25
 3836 0936 00F16583 		bmi	.L602
 3837              	.L307:
 3838              		.loc 1 683 0
 3839 093a 2A06     		lsls	r2, r5, #24
 3840 093c 00F14D83 		bmi	.L603
 3841              	.L308:
 3842              		.loc 1 686 0
 3843 0940 EB05     		lsls	r3, r5, #23
 3844 0942 00F14183 		bmi	.L604
 3845              	.L309:
 3846              		.loc 1 689 0
 3847 0946 A805     		lsls	r0, r5, #22
 3848 0948 00F13583 		bmi	.L605
 3849              	.L310:
 3850              		.loc 1 692 0
 3851 094c 6905     		lsls	r1, r5, #21
 3852 094e 00F12983 		bmi	.L606
 3853              	.L311:
 3854              		.loc 1 695 0
 3855 0952 2A05     		lsls	r2, r5, #20
 3856 0954 00F11D83 		bmi	.L607
 3857              	.L312:
 3858              		.loc 1 698 0
 3859 0958 EB04     		lsls	r3, r5, #19
 3860 095a 00F11183 		bmi	.L608
 3861              	.L313:
 3862              		.loc 1 701 0
 3863 095e A804     		lsls	r0, r5, #18
 3864 0960 00F10583 		bmi	.L609
 3865              	.L314:
 3866              		.loc 1 704 0
 3867 0964 6904     		lsls	r1, r5, #17
 3868 0966 00F1F982 		bmi	.L610
 3869              	.L315:
 3870              		.loc 1 707 0
 3871 096a 2A04     		lsls	r2, r5, #16
 3872 096c 00F1ED82 		bmi	.L611
 3873              	.L316:
 3874              		.loc 1 710 0
 3875 0970 EB03     		lsls	r3, r5, #15
 3876 0972 00F1BD81 		bmi	.L612
ARM GAS  /tmp/ccxuzuSP.s 			page 69


 3877              	.LVL421:
 3878              	.L317:
 3879              		.loc 1 713 0
 3880 0976 A803     		lsls	r0, r5, #14
 3881 0978 00F1B281 		bmi	.L613
 3882              	.L318:
 3883              		.loc 1 716 0
 3884 097c 6903     		lsls	r1, r5, #13
 3885 097e 04D5     		bpl	.L319
 3886              		.loc 1 717 0
 3887 0980 039B     		ldr	r3, [sp, #12]
 3888 0982 06F80380 		strb	r8, [r6, r3]
 3889 0986 0133     		adds	r3, r3, #1
 3890 0988 0393     		str	r3, [sp, #12]
 3891              	.L319:
 3892              		.loc 1 719 0
 3893 098a 2A03     		lsls	r2, r5, #12
 3894 098c 7FF5EBAB 		bpl	.L320
 3895              		.loc 1 720 0
 3896 0990 2146     		mov	r1, r4
 3897 0992 DFED090A 		vldr.32	s1, .L620+20
 3898 0996 0748     		ldr	r0, .L620+16
 3899 0998 9DED020A 		vldr.32	s0, [sp, #8]
 3900 099c FFF7FEFF 		bl	buffer_append_float32
 3901              	.LVL422:
 3902 09a0 FFF7E1BB 		b	.L320
 3903              	.L621:
 3904              		.align	2
 3905              	.L620:
 3906 09a4 00000000 		.word	ch
 3907 09a8 00401C46 		.word	1176256512
 3908 09ac CDCCCC3D 		.word	1036831949
 3909 09b0 00000000 		.word	.LANCHOR11
 3910 09b4 00000000 		.word	.LANCHOR17
 3911 09b8 00007A44 		.word	1148846080
 3912              	.LVL423:
 3913              	.L242:
 3914              	.LBE263:
 3915              	.LBB264:
 3916              		.loc 1 729 0
 3917 09bc FFF7FEFF 		bl	mc_interface_get_configuration
 3918              	.LVL424:
 3919 09c0 4FF4E472 		mov	r2, #456
 3920 09c4 0146     		mov	r1, r0
 3921 09c6 DD48     		ldr	r0, .L622
 3922 09c8 FFF7FEFF 		bl	memcpy
 3923              	.LVL425:
 3924              		.loc 1 733 0
 3925 09cc B278     		ldrb	r2, [r6, #2]	@ zero_extendqisi2
 3926 09ce 0092     		str	r2, [sp]
 3927              		.loc 1 739 0
 3928 09d0 3379     		ldrb	r3, [r6, #4]	@ zero_extendqisi2
 3929              		.loc 1 734 0
 3930 09d2 F278     		ldrb	r2, [r6, #3]	@ zero_extendqisi2
 3931 09d4 0192     		str	r2, [sp, #4]
 3932              		.loc 1 735 0
 3933 09d6 0422     		movs	r2, #4
ARM GAS  /tmp/ccxuzuSP.s 			page 70


 3934              		.loc 1 732 0
 3935 09d8 96F801B0 		ldrb	fp, [r6, #1]	@ zero_extendqisi2
 3936              	.LVL426:
 3937              		.loc 1 735 0
 3938 09dc 0392     		str	r2, [sp, #12]
 3939              	.LVL427:
 3940              		.loc 1 739 0
 3941 09de 002B     		cmp	r3, #0
 3942 09e0 00F03581 		beq	.L352
 3943              	.LBB265:
 3944              	.LBB266:
 3945              	.LBB267:
 3946              	.LBB268:
 3947              	.LBB269:
 3948              	.LBB270:
 3949              		.loc 4 231 0
 3950 09e4 DFF860A3 		ldr	r10, .L622+12
 3951              	.LVL428:
 3952              	.LBE270:
 3953              	.LBE269:
 3954              	.LBE268:
 3955              	.LBE267:
 3956              		.loc 1 742 0
 3957 09e8 9FEDD59A 		vldr.32	s18, .L622+4
 3958 09ec DFEDD58A 		vldr.32	s17, .L622+8
 3959              	.LBE266:
 3960              		.loc 1 740 0
 3961 09f0 0024     		movs	r4, #0
 3962              	.LBE265:
 3963              		.loc 1 737 0
 3964 09f2 B7EE008A 		vmov.f32	s16, #1.0e+0
 3965              	.LVL429:
 3966              	.L324:
 3967              	.LBB277:
 3968              	.LBB275:
 3969              		.loc 1 741 0
 3970 09f6 2046     		mov	r0, r4
 3971 09f8 FFF7FEFF 		bl	comm_can_get_status_msg_index
 3972              	.LVL430:
 3973              		.loc 1 742 0
 3974 09fc 0368     		ldr	r3, [r0]
 3975 09fe 002B     		cmp	r3, #0
 3976              	.LBE275:
 3977              		.loc 1 740 0
 3978 0a00 04F10104 		add	r4, r4, #1
 3979              	.LVL431:
 3980              	.LBB276:
 3981              		.loc 1 742 0
 3982 0a04 12DB     		blt	.L322
 3983              	.LBB274:
 3984              	.LBB273:
 3985              		.loc 4 267 0 discriminator 1
 3986 0a06 4168     		ldr	r1, [r0, #4]
 3987              	.LBB272:
 3988              	.LBB271:
 3989              		.loc 4 231 0 discriminator 1
 3990 0a08 DAF82830 		ldr	r3, [r10, #40]
ARM GAS  /tmp/ccxuzuSP.s 			page 71


 3991              	.LVL432:
 3992              	.LBE271:
 3993              	.LBE272:
 3994              		.loc 4 267 0 discriminator 1
 3995 0a0c 5B1A     		subs	r3, r3, r1
 3996              	.LBE273:
 3997              	.LBE274:
 3998              		.loc 1 742 0 discriminator 1
 3999 0a0e 07EE903A 		vmov	s15, r3	@ int
 4000 0a12 F8EE677A 		vcvt.f32.u32	s15, s15
 4001              		.loc 1 743 0 discriminator 1
 4002 0a16 B7EE007A 		vmov.f32	s14, #1.0e+0
 4003              		.loc 1 742 0 discriminator 1
 4004 0a1a C7EE896A 		vdiv.f32	s13, s15, s18
 4005 0a1e F4EEE86A 		vcmpe.f32	s13, s17
 4006 0a22 F1EE10FA 		vmrs	APSR_nzcv, FPSCR
 4007              		.loc 1 743 0 discriminator 1
 4008 0a26 48BF     		it	mi
 4009 0a28 38EE078A 		vaddmi.f32	s16, s16, s14
 4010              	.LVL433:
 4011              	.L322:
 4012              	.LBE276:
 4013              		.loc 1 740 0 discriminator 2
 4014 0a2c 0A2C     		cmp	r4, #10
 4015 0a2e E2D1     		bne	.L324
 4016              	.LVL434:
 4017              	.L321:
 4018              	.LBE277:
 4019              		.loc 1 748 0
 4020 0a30 03AC     		add	r4, sp, #12
 4021 0a32 2146     		mov	r1, r4
 4022 0a34 2846     		mov	r0, r5
 4023 0a36 FFF7FEFF 		bl	buffer_get_float32_auto
 4024              	.LVL435:
 4025 0a3a DFF800A3 		ldr	r10, .L622
 4026              		.loc 1 749 0
 4027 0a3e 2146     		mov	r1, r4
 4028 0a40 2846     		mov	r0, r5
 4029              		.loc 1 748 0
 4030 0a42 8AED1A0A 		vstr.32	s0, [r10, #104]
 4031              		.loc 1 749 0
 4032 0a46 FFF7FEFF 		bl	buffer_get_float32_auto
 4033              	.LVL436:
 4034              		.loc 1 751 0
 4035 0a4a B9F1310F 		cmp	r9, #49
 4036              		.loc 1 749 0
 4037 0a4e 8AED190A 		vstr.32	s0, [r10, #100]
 4038              		.loc 1 751 0
 4039 0a52 00F00F81 		beq	.L614
 4040              		.loc 1 765 0
 4041 0a56 2146     		mov	r1, r4
 4042 0a58 2846     		mov	r0, r5
 4043 0a5a FFF7FEFF 		bl	buffer_get_float32_auto
 4044              	.LVL437:
 4045              		.loc 1 766 0
 4046 0a5e 2146     		mov	r1, r4
 4047 0a60 2846     		mov	r0, r5
ARM GAS  /tmp/ccxuzuSP.s 			page 72


 4048              		.loc 1 765 0
 4049 0a62 8AED060A 		vstr.32	s0, [r10, #24]
 4050              		.loc 1 766 0
 4051 0a66 FFF7FEFF 		bl	buffer_get_float32_auto
 4052              	.LVL438:
 4053 0a6a 8AED070A 		vstr.32	s0, [r10, #28]
 4054              	.L326:
 4055              		.loc 1 769 0
 4056 0a6e 2146     		mov	r1, r4
 4057 0a70 2846     		mov	r0, r5
 4058 0a72 FFF7FEFF 		bl	buffer_get_float32_auto
 4059              	.LVL439:
 4060              		.loc 1 770 0
 4061 0a76 2146     		mov	r1, r4
 4062 0a78 2846     		mov	r0, r5
 4063              		.loc 1 769 0
 4064 0a7a 8AED150A 		vstr.32	s0, [r10, #84]
 4065              		.loc 1 770 0
 4066 0a7e FFF7FEFF 		bl	buffer_get_float32_auto
 4067              	.LVL440:
 4068              		.loc 1 771 0
 4069 0a82 2146     		mov	r1, r4
 4070 0a84 2846     		mov	r0, r5
 4071              		.loc 1 770 0
 4072 0a86 8AED160A 		vstr.32	s0, [r10, #88]
 4073              		.loc 1 771 0
 4074 0a8a FFF7FEFF 		bl	buffer_get_float32_auto
 4075              	.LVL441:
 4076 0a8e 80EE080A 		vdiv.f32	s0, s0, s16
 4077              		.loc 1 772 0
 4078 0a92 2146     		mov	r1, r4
 4079 0a94 2846     		mov	r0, r5
 4080              		.loc 1 771 0
 4081 0a96 8AED180A 		vstr.32	s0, [r10, #96]
 4082              		.loc 1 772 0
 4083 0a9a FFF7FEFF 		bl	buffer_get_float32_auto
 4084              	.LVL442:
 4085 0a9e C0EE087A 		vdiv.f32	s15, s0, s16
 4086              		.loc 1 777 0
 4087 0aa2 039A     		ldr	r2, [sp, #12]
 4088              		.loc 1 778 0
 4089 0aa4 2146     		mov	r1, r4
 4090              		.loc 1 777 0
 4091 0aa6 083A     		subs	r2, r2, #8
 4092              		.loc 1 778 0
 4093 0aa8 2846     		mov	r0, r5
 4094              		.loc 1 777 0
 4095 0aaa 0392     		str	r2, [sp, #12]
 4096              		.loc 1 778 0
 4097 0aac 9AED180A 		vldr.32	s0, [r10, #96]
 4098              		.loc 1 772 0
 4099 0ab0 CAED177A 		vstr.32	s15, [r10, #92]
 4100              		.loc 1 778 0
 4101 0ab4 FFF7FEFF 		bl	buffer_append_float32_auto
 4102              	.LVL443:
 4103              		.loc 1 779 0
 4104 0ab8 2846     		mov	r0, r5
ARM GAS  /tmp/ccxuzuSP.s 			page 73


 4105 0aba 2146     		mov	r1, r4
 4106 0abc 9AED170A 		vldr.32	s0, [r10, #92]
 4107 0ac0 FFF7FEFF 		bl	buffer_append_float32_auto
 4108              	.LVL444:
 4109              		.loc 1 781 0
 4110 0ac4 9AED027A 		vldr.32	s14, [r10, #8]
 4111 0ac8 9AED1A6A 		vldr.32	s12, [r10, #104]
 4112              		.loc 1 782 0
 4113 0acc DAED017A 		vldr.32	s15, [r10, #4]
 4114 0ad0 DAED196A 		vldr.32	s13, [r10, #100]
 4115              		.loc 1 786 0
 4116 0ad4 9948     		ldr	r0, .L622
 4117              		.loc 1 781 0
 4118 0ad6 27EE067A 		vmul.f32	s14, s14, s12
 4119              		.loc 1 782 0
 4120 0ada 67EEA67A 		vmul.f32	s15, s15, s13
 4121              		.loc 1 781 0
 4122 0ade 8AED1C7A 		vstr.32	s14, [r10, #112]
 4123              		.loc 1 783 0
 4124 0ae2 8AED207A 		vstr.32	s14, [r10, #128]
 4125              		.loc 1 782 0
 4126 0ae6 CAED1B7A 		vstr.32	s15, [r10, #108]
 4127              		.loc 1 784 0
 4128 0aea CAED1F7A 		vstr.32	s15, [r10, #124]
 4129              		.loc 1 786 0
 4130 0aee FFF7FEFF 		bl	commands_apply_mcconf_hw_limits
 4131              	.LVL445:
 4132              		.loc 1 788 0
 4133 0af2 BBF1000F 		cmp	fp, #0
 4134 0af6 40F0B980 		bne	.L615
 4135              	.L327:
 4136              		.loc 1 792 0
 4137 0afa 9048     		ldr	r0, .L622
 4138 0afc FFF7FEFF 		bl	mc_interface_set_configuration
 4139              	.LVL446:
 4140              		.loc 1 794 0
 4141 0b00 009B     		ldr	r3, [sp]
 4142 0b02 43B3     		cbz	r3, .L328
 4143              		.loc 1 796 0
 4144 0b04 0024     		movs	r4, #0
 4145              		.loc 1 795 0
 4146 0b06 3023     		movs	r3, #48
 4147              	.LBB278:
 4148              	.LBB279:
 4149              		.loc 1 803 0
 4150 0b08 DFED8D8A 		vldr.32	s17, .L622+4
 4151 0b0c 9FED8D8A 		vldr.32	s16, .L622+8
 4152              	.LVL447:
 4153              	.LBB280:
 4154              	.LBB281:
 4155              	.LBB282:
 4156              	.LBB283:
 4157              		.loc 4 231 0
 4158 0b10 8D4D     		ldr	r5, .L622+12
 4159              	.LVL448:
 4160              	.LBE283:
 4161              	.LBE282:
ARM GAS  /tmp/ccxuzuSP.s 			page 74


 4162              	.LBE281:
 4163              	.LBE280:
 4164              	.LBE279:
 4165              	.LBE278:
 4166              		.loc 1 795 0
 4167 0b12 3370     		strb	r3, [r6]
 4168              		.loc 1 796 0
 4169 0b14 B470     		strb	r4, [r6, #2]
 4170              		.loc 1 797 0
 4171 0b16 F470     		strb	r4, [r6, #3]
 4172              		.loc 1 798 0
 4173 0b18 3471     		strb	r4, [r6, #4]
 4174              	.LVL449:
 4175              	.L331:
 4176              	.LBB290:
 4177              	.LBB288:
 4178              		.loc 1 802 0
 4179 0b1a 2046     		mov	r0, r4
 4180 0b1c FFF7FEFF 		bl	comm_can_get_status_msg_index
 4181              	.LVL450:
 4182              		.loc 1 803 0
 4183 0b20 0268     		ldr	r2, [r0]
 4184 0b22 002A     		cmp	r2, #0
 4185              	.LBE288:
 4186              		.loc 1 801 0
 4187 0b24 04F10104 		add	r4, r4, #1
 4188              	.LVL451:
 4189              	.LBB289:
 4190              		.loc 1 803 0
 4191 0b28 13DB     		blt	.L329
 4192              	.LBB287:
 4193              	.LBB286:
 4194              		.loc 4 267 0 discriminator 1
 4195 0b2a 4168     		ldr	r1, [r0, #4]
 4196              	.LBB285:
 4197              	.LBB284:
 4198              		.loc 4 231 0 discriminator 1
 4199 0b2c AB6A     		ldr	r3, [r5, #40]
 4200              	.LVL452:
 4201              	.LBE284:
 4202              	.LBE285:
 4203              		.loc 4 267 0 discriminator 1
 4204 0b2e 5B1A     		subs	r3, r3, r1
 4205              	.LBE286:
 4206              	.LBE287:
 4207              		.loc 1 803 0 discriminator 1
 4208 0b30 07EE903A 		vmov	s15, r3	@ int
 4209 0b34 F8EE677A 		vcvt.f32.u32	s15, s15
 4210 0b38 87EEA87A 		vdiv.f32	s14, s15, s17
 4211 0b3c B4EEC87A 		vcmpe.f32	s14, s16
 4212 0b40 F1EE10FA 		vmrs	APSR_nzcv, FPSCR
 4213 0b44 05D5     		bpl	.L329
 4214              		.loc 1 804 0
 4215 0b46 D0B2     		uxtb	r0, r2
 4216              	.LVL453:
 4217 0b48 0023     		movs	r3, #0
 4218 0b4a 4246     		mov	r2, r8
ARM GAS  /tmp/ccxuzuSP.s 			page 75


 4219 0b4c 3146     		mov	r1, r6
 4220 0b4e FFF7FEFF 		bl	comm_can_send_buffer
 4221              	.LVL454:
 4222              	.L329:
 4223              	.LBE289:
 4224              		.loc 1 801 0 discriminator 2
 4225 0b52 0A2C     		cmp	r4, #10
 4226 0b54 E1D1     		bne	.L331
 4227              	.LVL455:
 4228              	.L328:
 4229              	.LBE290:
 4230              		.loc 1 809 0
 4231 0b56 019B     		ldr	r3, [sp, #4]
 4232 0b58 002B     		cmp	r3, #0
 4233 0b5a 3FF40AAB 		beq	.L199
 4234              	.LBB291:
 4235              		.loc 1 812 0
 4236 0b5e 16A8     		add	r0, sp, #88
 4237 0b60 0123     		movs	r3, #1
 4238 0b62 00F8489D 		strb	r9, [r0, #-72]!
 4239              		.loc 1 813 0
 4240 0b66 1946     		mov	r1, r3
 4241              		.loc 1 812 0
 4242 0b68 0393     		str	r3, [sp, #12]
 4243              		.loc 1 813 0
 4244 0b6a B847     		blx	r7
 4245              	.LVL456:
 4246              	.LBE291:
 4247              	.LBE264:
 4248              		.loc 1 815 0
 4249 0b6c FFF701BB 		b	.L199
 4250              	.LVL457:
 4251              	.L248:
 4252              		.loc 1 852 0
 4253 0b70 0023     		movs	r3, #0
 4254 0b72 06F80830 		strb	r3, [r6, r8]
 4255              		.loc 1 853 0
 4256 0b76 7548     		ldr	r0, .L622+16
 4257 0b78 FFF7FEFF 		bl	chMtxLock
 4258              	.LVL458:
 4259              		.loc 1 854 0
 4260 0b7c 2846     		mov	r0, r5
 4261 0b7e FFF7FEFF 		bl	terminal_process_string
 4262              	.LVL459:
 4263              		.loc 1 855 0
 4264 0b82 7248     		ldr	r0, .L622+16
 4265 0b84 FFF7FEFF 		bl	chMtxUnlock
 4266              	.LVL460:
 4267              		.loc 1 856 0
 4268 0b88 FFF7F3BA 		b	.L199
 4269              	.L243:
 4270              		.loc 1 836 0
 4271 0b8c 5FFA8AF1 		uxtb	r1, r10
 4272 0b90 2846     		mov	r0, r5
 4273 0b92 FFF7FEFF 		bl	nrf_driver_process_packet
 4274              	.LVL461:
 4275              		.loc 1 837 0
ARM GAS  /tmp/ccxuzuSP.s 			page 76


 4276 0b96 FFF7ECBA 		b	.L199
 4277              	.L247:
 4278              	.LBB293:
 4279              		.loc 1 841 0
 4280 0b9a 16A9     		add	r1, sp, #88
 4281 0b9c 0123     		movs	r3, #1
 4282 0b9e 41F8483D 		str	r3, [r1, #-72]!
 4283 0ba2 7478     		ldrb	r4, [r6, #1]	@ zero_extendqisi2
 4284              	.LVL462:
 4285              		.loc 1 842 0
 4286 0ba4 2846     		mov	r0, r5
 4287 0ba6 FFF7FEFF 		bl	buffer_get_int32
 4288              	.LVL463:
 4289              		.loc 1 843 0
 4290 0baa FFF7FEFF 		bl	app_disable_output
 4291              	.LVL464:
 4292              		.loc 1 845 0
 4293 0bae 002C     		cmp	r4, #0
 4294 0bb0 3FF4DFAA 		beq	.L199
 4295              		.loc 1 846 0
 4296 0bb4 0023     		movs	r3, #0
 4297              		.loc 1 847 0
 4298 0bb6 4246     		mov	r2, r8
 4299              		.loc 1 846 0
 4300 0bb8 7370     		strb	r3, [r6, #1]
 4301              		.loc 1 847 0
 4302 0bba 3146     		mov	r1, r6
 4303 0bbc FF20     		movs	r0, #255
 4304 0bbe FFF7FEFF 		bl	comm_can_send_buffer
 4305              	.LVL465:
 4306              	.LBE293:
 4307              		.loc 1 849 0
 4308 0bc2 FFF7D6BA 		b	.L199
 4309              	.LVL466:
 4310              	.L216:
 4311              	.LBB294:
 4312              		.loc 1 352 0
 4313 0bc6 16A9     		add	r1, sp, #88
 4314 0bc8 0023     		movs	r3, #0
 4315 0bca 41F8483D 		str	r3, [r1, #-72]!
 4316              		.loc 1 353 0
 4317 0bce 2846     		mov	r0, r5
 4318 0bd0 FFF7FEFF 		bl	buffer_get_int32
 4319              	.LVL467:
 4320 0bd4 07EE100A 		vmov	s14, r0	@ int
 4321 0bd8 DFED5D7A 		vldr.32	s15, .L622+20
 4322 0bdc B8EEC70A 		vcvt.f32.s32	s0, s14
 4323 0be0 80EE270A 		vdiv.f32	s0, s0, s15
 4324 0be4 FFF7FEFF 		bl	mc_interface_set_pid_pos
 4325              	.LVL468:
 4326              		.loc 1 354 0
 4327 0be8 FFF7FEFF 		bl	timeout_reset
 4328              	.LVL469:
 4329              	.LBE294:
 4330              		.loc 1 355 0
 4331 0bec FFF7C1BA 		b	.L199
 4332              	.L217:
ARM GAS  /tmp/ccxuzuSP.s 			page 77


 4333              	.LBB295:
 4334              		.loc 1 358 0
 4335 0bf0 16A9     		add	r1, sp, #88
 4336 0bf2 0023     		movs	r3, #0
 4337 0bf4 41F8483D 		str	r3, [r1, #-72]!
 4338              		.loc 1 359 0
 4339 0bf8 2846     		mov	r0, r5
 4340 0bfa 9FED560A 		vldr.32	s0, .L622+24
 4341 0bfe FFF7FEFF 		bl	buffer_get_float32
 4342              	.LVL470:
 4343 0c02 FFF7FEFF 		bl	mc_interface_set_handbrake
 4344              	.LVL471:
 4345              		.loc 1 360 0
 4346 0c06 FFF7FEFF 		bl	timeout_reset
 4347              	.LVL472:
 4348              	.LBE295:
 4349              		.loc 1 361 0
 4350 0c0a FFF7B2BA 		b	.L199
 4351              	.L206:
 4352              	.LVL473:
 4353              	.LBB296:
 4354              		.loc 1 178 0
 4355 0c0e 524A     		ldr	r2, .L622+28
 4356              		.loc 1 181 0
 4357 0c10 524B     		ldr	r3, .L622+32
 4358              		.loc 1 178 0
 4359 0c12 1188     		ldrh	r1, [r2]	@ unaligned
 4360 0c14 9078     		ldrb	r0, [r2, #2]	@ zero_extendqisi2
 4361 0c16 ADF81310 		strh	r1, [sp, #19]	@ unaligned
 4362              		.loc 1 175 0
 4363 0c1a 3722     		movs	r2, #55
 4364              		.loc 1 174 0
 4365 0c1c 4FF44071 		mov	r1, #768
 4366              		.loc 1 178 0
 4367 0c20 8DF81500 		strb	r0, [sp, #21]
 4368              	.LVL474:
 4369              		.loc 1 174 0
 4370 0c24 ADF81010 		strh	r1, [sp, #16]	@ movhi
 4371              		.loc 1 175 0
 4372 0c28 8DF81220 		strb	r2, [sp, #18]
 4373              		.loc 1 181 0
 4374 0c2c 07CB     		ldmia	r3!, {r0, r1, r2}
 4375 0c2e CDF81A10 		str	r1, [sp, #26]	@ unaligned
 4376 0c32 CDF81600 		str	r0, [sp, #22]	@ unaligned
 4377 0c36 CDF81E20 		str	r2, [sp, #30]	@ unaligned
 4378              	.LVL475:
 4379              		.loc 1 184 0
 4380 0c3a FFF7FEFF 		bl	app_get_configuration
 4381              	.LVL476:
 4382              		.loc 1 186 0
 4383 0c3e 1321     		movs	r1, #19
 4384              		.loc 1 184 0
 4385 0c40 437D     		ldrb	r3, [r0, #21]	@ zero_extendqisi2
 4386 0c42 8DF82230 		strb	r3, [sp, #34]
 4387              		.loc 1 186 0
 4388 0c46 04A8     		add	r0, sp, #16
 4389 0c48 B847     		blx	r7
ARM GAS  /tmp/ccxuzuSP.s 			page 78


 4390              	.LVL477:
 4391              	.LBE296:
 4392              		.loc 1 187 0
 4393 0c4a FFF792BA 		b	.L199
 4394              	.LVL478:
 4395              	.L352:
 4396              	.LBB297:
 4397              		.loc 1 737 0
 4398 0c4e B7EE008A 		vmov.f32	s16, #1.0e+0
 4399 0c52 EDE6     		b	.L321
 4400              	.LVL479:
 4401              	.L577:
 4402              	.LBE297:
 4403              		.loc 1 226 0
 4404 0c54 4FF4FA60 		mov	r0, #2000
 4405 0c58 FFF7FEFF 		bl	nrf_driver_pause
 4406              	.LVL480:
 4407 0c5c FFF7E9BA 		b	.L252
 4408              	.L576:
 4409              		.loc 1 201 0
 4410 0c60 41F27070 		movw	r0, #6000
 4411 0c64 FFF7FEFF 		bl	nrf_driver_pause
 4412              	.LVL481:
 4413 0c68 FFF7B5BA 		b	.L250
 4414              	.LVL482:
 4415              	.L615:
 4416              	.LBB298:
 4417              		.loc 1 789 0
 4418 0c6c 3348     		ldr	r0, .L622
 4419 0c6e FFF7FEFF 		bl	conf_general_store_mc_configuration
 4420              	.LVL483:
 4421 0c72 42E7     		b	.L327
 4422              	.L614:
 4423              	.LBB292:
 4424              		.loc 1 752 0
 4425 0c74 9AF8B131 		ldrb	r3, [r10, #433]	@ zero_extendqisi2
 4426 0c78 9FED396A 		vldr.32	s12, .L622+36
 4427 0c7c DAED6D6A 		vldr.32	s13, [r10, #436]
 4428              		.loc 1 753 0
 4429 0c80 DFED385A 		vldr.32	s11, .L622+40
 4430 0c84 9AED6E7A 		vldr.32	s14, [r10, #440]
 4431              		.loc 1 752 0
 4432 0c88 07EE903A 		vmov	s15, r3	@ int
 4433 0c8c FAEEEF7A 		vcvt.f32.s32	s15, s15, #1
 4434              		.loc 1 753 0
 4435 0c90 27EE257A 		vmul.f32	s14, s14, s11
 4436              		.loc 1 752 0
 4437 0c94 67EE867A 		vmul.f32	s15, s15, s12
 4438              		.loc 1 755 0
 4439 0c98 2146     		mov	r1, r4
 4440              		.loc 1 752 0
 4441 0c9a 67EEA67A 		vmul.f32	s15, s15, s13
 4442              		.loc 1 755 0
 4443 0c9e 2846     		mov	r0, r5
 4444              		.loc 1 752 0
 4445 0ca0 C7EE878A 		vdiv.f32	s17, s15, s14
 4446              	.LVL484:
ARM GAS  /tmp/ccxuzuSP.s 			page 79


 4447              		.loc 1 755 0
 4448 0ca4 FFF7FEFF 		bl	buffer_get_float32_auto
 4449              	.LVL485:
 4450              		.loc 1 756 0
 4451 0ca8 2146     		mov	r1, r4
 4452 0caa 2846     		mov	r0, r5
 4453              		.loc 1 755 0
 4454 0cac 20EE280A 		vmul.f32	s0, s0, s17
 4455 0cb0 8AED060A 		vstr.32	s0, [r10, #24]
 4456              		.loc 1 756 0
 4457 0cb4 FFF7FEFF 		bl	buffer_get_float32_auto
 4458              	.LVL486:
 4459              		.loc 1 761 0
 4460 0cb8 039A     		ldr	r2, [sp, #12]
 4461              		.loc 1 756 0
 4462 0cba 60EE288A 		vmul.f32	s17, s0, s17
 4463              	.LVL487:
 4464              		.loc 1 761 0
 4465 0cbe 083A     		subs	r2, r2, #8
 4466              		.loc 1 762 0
 4467 0cc0 2146     		mov	r1, r4
 4468 0cc2 9AED060A 		vldr.32	s0, [r10, #24]
 4469              		.loc 1 756 0
 4470 0cc6 CAED078A 		vstr.32	s17, [r10, #28]
 4471              		.loc 1 762 0
 4472 0cca 2846     		mov	r0, r5
 4473              		.loc 1 761 0
 4474 0ccc 0392     		str	r2, [sp, #12]
 4475              		.loc 1 762 0
 4476 0cce FFF7FEFF 		bl	buffer_append_float32_auto
 4477              	.LVL488:
 4478              		.loc 1 763 0
 4479 0cd2 2146     		mov	r1, r4
 4480 0cd4 9AED070A 		vldr.32	s0, [r10, #28]
 4481 0cd8 2846     		mov	r0, r5
 4482 0cda FFF7FEFF 		bl	buffer_append_float32_auto
 4483              	.LVL489:
 4484              	.LBE292:
 4485 0cde C6E6     		b	.L326
 4486              	.LVL490:
 4487              	.L613:
 4488              	.LBE298:
 4489              	.LBB299:
 4490              		.loc 1 714 0
 4491 0ce0 FFF7FEFF 		bl	app_get_configuration
 4492              	.LVL491:
 4493 0ce4 039B     		ldr	r3, [sp, #12]
 4494 0ce6 5A1C     		adds	r2, r3, #1
 4495 0ce8 0392     		str	r2, [sp, #12]
 4496 0cea 0278     		ldrb	r2, [r0]	@ zero_extendqisi2
 4497 0cec F254     		strb	r2, [r6, r3]
 4498 0cee 45E6     		b	.L318
 4499              	.LVL492:
 4500              	.L612:
 4501              		.loc 1 711 0
 4502 0cf0 DDF80C90 		ldr	r9, [sp, #12]
 4503              	.LVL493:
ARM GAS  /tmp/ccxuzuSP.s 			page 80


 4504 0cf4 09F10103 		add	r3, r9, #1
 4505 0cf8 0393     		str	r3, [sp, #12]
 4506 0cfa FFF7FEFF 		bl	mc_interface_get_fault
 4507              	.LVL494:
 4508 0cfe 06F80900 		strb	r0, [r6, r9]
 4509 0d02 38E6     		b	.L317
 4510              	.LVL495:
 4511              	.L283:
 4512              	.LBE299:
 4513              	.LBB300:
 4514              		.loc 1 525 0
 4515 0d04 0023     		movs	r3, #0
 4516 0d06 8DF82630 		strb	r3, [sp, #38]
 4517              		.loc 1 526 0
 4518 0d0a 8DF82730 		strb	r3, [sp, #39]
 4519 0d0e FFF7B3BB 		b	.L284
 4520              	.LVL496:
 4521              	.L575:
 4522              	.LBE300:
 4523              	.LBB301:
 4524              		.loc 1 371 0
 4525 0d12 FFF7FEFF 		bl	mc_interface_release_motor
 4526              	.LVL497:
 4527 0d16 FFF747BA 		b	.L226
 4528              	.LVL498:
 4529              	.L594:
 4530              	.LBE301:
 4531              		.loc 1 447 0
 4532 0d1a FFF7FEFF 		bl	app_get_configuration
 4533              	.LVL499:
 4534 0d1e CC22     		movs	r2, #204
 4535 0d20 0146     		mov	r1, r0
 4536 0d22 1148     		ldr	r0, .L622+44
 4537 0d24 FFF7FEFF 		bl	memcpy
 4538              	.LVL500:
 4539 0d28 7AE4     		b	.L281
 4540              	.L595:
 4541              		.loc 1 418 0
 4542 0d2a FFF7FEFF 		bl	mc_interface_get_configuration
 4543              	.LVL501:
 4544 0d2e 4FF4E472 		mov	r2, #456
 4545 0d32 0146     		mov	r1, r0
 4546 0d34 0148     		ldr	r0, .L622
 4547 0d36 FFF7FEFF 		bl	memcpy
 4548              	.LVL502:
 4549 0d3a 7DE4     		b	.L278
 4550              	.L623:
 4551              		.align	2
 4552              	.L622:
 4553 0d3c 00000000 		.word	.LANCHOR18
 4554 0d40 00401C46 		.word	1176256512
 4555 0d44 CDCCCC3D 		.word	1036831949
 4556 0d48 00000000 		.word	ch
 4557 0d4c 00000000 		.word	.LANCHOR8
 4558 0d50 00247449 		.word	1232348160
 4559 0d54 00007A44 		.word	1148846080
 4560 0d58 00000000 		.word	.LC1
ARM GAS  /tmp/ccxuzuSP.s 			page 81


 4561 0d5c 107AFF1F 		.word	536836624
 4562 0d60 00007042 		.word	1114636288
 4563 0d64 DB0F4940 		.word	1078530011
 4564 0d68 00000000 		.word	.LANCHOR19
 4565              	.L276:
 4566              		.loc 1 411 0
 4567 0d6c D548     		ldr	r0, .L624
 4568 0d6e FFF7FEFF 		bl	commands_printf
 4569              	.LVL503:
 4570 0d72 FFF7FEB9 		b	.L199
 4571              	.L279:
 4572              		.loc 1 440 0
 4573 0d76 D448     		ldr	r0, .L624+4
 4574 0d78 FFF7FEFF 		bl	commands_printf
 4575              	.LVL504:
 4576 0d7c FFF7F9B9 		b	.L199
 4577              	.LVL505:
 4578              	.L574:
 4579              	.LBB302:
 4580              		.loc 1 318 0
 4581 0d80 2146     		mov	r1, r4
 4582 0d82 F2EE040A 		vmov.f32	s1, #1.0e+1
 4583 0d86 9FEDD90A 		vldr.32	s0, .L624+40
 4584 0d8a D048     		ldr	r0, .L624+8
 4585 0d8c FFF7FEFF 		bl	buffer_append_float16
 4586              	.LVL506:
 4587              		.loc 1 319 0
 4588 0d90 2146     		mov	r1, r4
 4589 0d92 F2EE040A 		vmov.f32	s1, #1.0e+1
 4590 0d96 9FEDD50A 		vldr.32	s0, .L624+40
 4591 0d9a CC48     		ldr	r0, .L624+8
 4592 0d9c FFF7FEFF 		bl	buffer_append_float16
 4593              	.LVL507:
 4594              		.loc 1 320 0
 4595 0da0 2146     		mov	r1, r4
 4596 0da2 F2EE040A 		vmov.f32	s1, #1.0e+1
 4597 0da6 9FEDD10A 		vldr.32	s0, .L624+40
 4598 0daa C848     		ldr	r0, .L624+8
 4599 0dac FFF7FEFF 		bl	buffer_append_float16
 4600              	.LVL508:
 4601 0db0 FFF7D9B9 		b	.L320
 4602              	.L573:
 4603              		.loc 1 303 0
 4604 0db4 0020     		movs	r0, #0
 4605 0db6 FFF7FEFF 		bl	mc_interface_get_tachometer_value
 4606              	.LVL509:
 4607 0dba 2246     		mov	r2, r4
 4608 0dbc 0146     		mov	r1, r0
 4609 0dbe C348     		ldr	r0, .L624+8
 4610 0dc0 FFF7FEFF 		bl	buffer_append_int32
 4611              	.LVL510:
 4612              	.L269:
 4613              		.loc 1 306 0
 4614 0dc4 0020     		movs	r0, #0
 4615 0dc6 FFF7FEFF 		bl	mc_interface_get_tachometer_abs_value
 4616              	.LVL511:
 4617 0dca 2246     		mov	r2, r4
ARM GAS  /tmp/ccxuzuSP.s 			page 82


 4618 0dcc 0146     		mov	r1, r0
 4619 0dce BF48     		ldr	r0, .L624+8
 4620 0dd0 FFF7FEFF 		bl	buffer_append_int32
 4621              	.LVL512:
 4622              		.loc 1 308 0
 4623 0dd4 2B04     		lsls	r3, r5, #16
 4624 0dd6 08D5     		bpl	.L271
 4625              		.loc 1 309 0
 4626 0dd8 DDF80C80 		ldr	r8, [sp, #12]
 4627 0ddc 08F10103 		add	r3, r8, #1
 4628 0de0 0393     		str	r3, [sp, #12]
 4629 0de2 FFF7FEFF 		bl	mc_interface_get_fault
 4630              	.LVL513:
 4631 0de6 06F80800 		strb	r0, [r6, r8]
 4632              	.L271:
 4633              		.loc 1 311 0
 4634 0dea E803     		lsls	r0, r5, #15
 4635 0dec 07D5     		bpl	.L272
 4636              		.loc 1 312 0
 4637 0dee FFF7FEFF 		bl	mc_interface_get_pid_pos_now
 4638              	.LVL514:
 4639 0df2 2146     		mov	r1, r4
 4640 0df4 DFEDB60A 		vldr.32	s1, .L624+12
 4641 0df8 B448     		ldr	r0, .L624+8
 4642 0dfa FFF7FEFF 		bl	buffer_append_float32
 4643              	.LVL515:
 4644              	.L272:
 4645              		.loc 1 314 0
 4646 0dfe A903     		lsls	r1, r5, #14
 4647 0e00 7FF5AEA9 		bpl	.L270
 4648              		.loc 1 315 0
 4649 0e04 FFF7FEFF 		bl	app_get_configuration
 4650              	.LVL516:
 4651 0e08 039B     		ldr	r3, [sp, #12]
 4652 0e0a 5A1C     		adds	r2, r3, #1
 4653 0e0c 0392     		str	r2, [sp, #12]
 4654 0e0e 0278     		ldrb	r2, [r0]	@ zero_extendqisi2
 4655 0e10 F254     		strb	r2, [r6, r3]
 4656 0e12 FFF7A5B9 		b	.L270
 4657              	.L572:
 4658              		.loc 1 300 0
 4659 0e16 0020     		movs	r0, #0
 4660 0e18 FFF7FEFF 		bl	mc_interface_get_watt_hours_charged
 4661              	.LVL517:
 4662 0e1c 2146     		mov	r1, r4
 4663 0e1e DFEDAD0A 		vldr.32	s1, .L624+16
 4664 0e22 AA48     		ldr	r0, .L624+8
 4665 0e24 FFF7FEFF 		bl	buffer_append_float32
 4666              	.LVL518:
 4667 0e28 FFF794B9 		b	.L267
 4668              	.L563:
 4669              		.loc 1 273 0
 4670 0e2c FFF7FEFF 		bl	mc_interface_read_reset_avg_input_current
 4671              	.LVL519:
 4672 0e30 2146     		mov	r1, r4
 4673 0e32 DFEDA90A 		vldr.32	s1, .L624+20
 4674 0e36 A548     		ldr	r0, .L624+8
ARM GAS  /tmp/ccxuzuSP.s 			page 83


 4675 0e38 FFF7FEFF 		bl	buffer_append_float32
 4676              	.LVL520:
 4677 0e3c FFF76FB9 		b	.L258
 4678              	.L562:
 4679              		.loc 1 270 0
 4680 0e40 FFF7FEFF 		bl	mc_interface_read_reset_avg_motor_current
 4681              	.LVL521:
 4682 0e44 2146     		mov	r1, r4
 4683 0e46 DFEDA40A 		vldr.32	s1, .L624+20
 4684 0e4a A048     		ldr	r0, .L624+8
 4685 0e4c FFF7FEFF 		bl	buffer_append_float32
 4686              	.LVL522:
 4687 0e50 FFF762B9 		b	.L257
 4688              	.L561:
 4689              		.loc 1 267 0
 4690 0e54 FFF7FEFF 		bl	mc_interface_temp_motor_filtered
 4691              	.LVL523:
 4692 0e58 2146     		mov	r1, r4
 4693 0e5a F2EE040A 		vmov.f32	s1, #1.0e+1
 4694 0e5e 9B48     		ldr	r0, .L624+8
 4695 0e60 FFF7FEFF 		bl	buffer_append_float16
 4696              	.LVL524:
 4697 0e64 FFF755B9 		b	.L256
 4698              	.LVL525:
 4699              	.L560:
 4700              	.LBB209:
 4701              		.loc 1 258 0
 4702 0e68 16A9     		add	r1, sp, #88
 4703              		.loc 1 259 0
 4704 0e6a 2846     		mov	r0, r5
 4705              		.loc 1 258 0
 4706 0e6c 41F8484D 		str	r4, [r1, #-72]!
 4707              		.loc 1 259 0
 4708 0e70 FFF7FEFF 		bl	buffer_get_uint32
 4709              	.LVL526:
 4710              		.loc 1 260 0
 4711 0e74 03AC     		add	r4, sp, #12
 4712 0e76 0146     		mov	r1, r0
 4713              		.loc 1 259 0
 4714 0e78 0546     		mov	r5, r0
 4715              	.LVL527:
 4716              		.loc 1 260 0
 4717 0e7a 2246     		mov	r2, r4
 4718 0e7c 3046     		mov	r0, r6
 4719              	.LVL528:
 4720 0e7e FFF7FEFF 		bl	buffer_append_uint32
 4721              	.LVL529:
 4722              	.LBE209:
 4723              		.loc 1 263 0
 4724 0e82 E907     		lsls	r1, r5, #31
 4725 0e84 7FF542A9 		bpl	.L255
 4726 0e88 FFF738B9 		b	.L254
 4727              	.L571:
 4728              		.loc 1 297 0
 4729 0e8c 0020     		movs	r0, #0
 4730 0e8e FFF7FEFF 		bl	mc_interface_get_watt_hours
 4731              	.LVL530:
ARM GAS  /tmp/ccxuzuSP.s 			page 84


 4732 0e92 2146     		mov	r1, r4
 4733 0e94 DFED8F0A 		vldr.32	s1, .L624+16
 4734 0e98 8C48     		ldr	r0, .L624+8
 4735 0e9a FFF7FEFF 		bl	buffer_append_float32
 4736              	.LVL531:
 4737 0e9e FFF756B9 		b	.L266
 4738              	.L570:
 4739              		.loc 1 294 0
 4740 0ea2 0020     		movs	r0, #0
 4741 0ea4 FFF7FEFF 		bl	mc_interface_get_amp_hours_charged
 4742              	.LVL532:
 4743 0ea8 2146     		mov	r1, r4
 4744 0eaa DFED8A0A 		vldr.32	s1, .L624+16
 4745 0eae 8748     		ldr	r0, .L624+8
 4746 0eb0 FFF7FEFF 		bl	buffer_append_float32
 4747              	.LVL533:
 4748 0eb4 FFF748B9 		b	.L265
 4749              	.L569:
 4750              		.loc 1 291 0
 4751 0eb8 0020     		movs	r0, #0
 4752 0eba FFF7FEFF 		bl	mc_interface_get_amp_hours
 4753              	.LVL534:
 4754 0ebe 2146     		mov	r1, r4
 4755 0ec0 DFED840A 		vldr.32	s1, .L624+16
 4756 0ec4 8148     		ldr	r0, .L624+8
 4757 0ec6 FFF7FEFF 		bl	buffer_append_float32
 4758              	.LVL535:
 4759 0eca FFF73AB9 		b	.L264
 4760              	.L568:
 4761              		.loc 1 288 0
 4762 0ece 834B     		ldr	r3, .L624+24
 4763 0ed0 9FED837A 		vldr.32	s14, .L624+28
 4764 0ed4 DB8A     		ldrh	r3, [r3, #22]
 4765 0ed6 9FED830A 		vldr.32	s0, .L624+32
 4766 0eda 7C48     		ldr	r0, .L624+8
 4767 0edc 07EE903A 		vmov	s15, r3	@ int
 4768 0ee0 F8EE677A 		vcvt.f32.u32	s15, s15
 4769 0ee4 2146     		mov	r1, r4
 4770 0ee6 67EE877A 		vmul.f32	s15, s15, s14
 4771 0eea F2EE040A 		vmov.f32	s1, #1.0e+1
 4772 0eee 27EE800A 		vmul.f32	s0, s15, s0
 4773 0ef2 FFF7FEFF 		bl	buffer_append_float16
 4774              	.LVL536:
 4775 0ef6 FFF721B9 		b	.L263
 4776              	.L567:
 4777              		.loc 1 285 0
 4778 0efa FFF7FEFF 		bl	mc_interface_get_rpm
 4779              	.LVL537:
 4780 0efe 2146     		mov	r1, r4
 4781 0f00 F7EE000A 		vmov.f32	s1, #1.0e+0
 4782 0f04 7148     		ldr	r0, .L624+8
 4783 0f06 FFF7FEFF 		bl	buffer_append_float32
 4784              	.LVL538:
 4785 0f0a FFF714B9 		b	.L262
 4786              	.L566:
 4787              		.loc 1 282 0
 4788 0f0e FFF7FEFF 		bl	mc_interface_get_duty_cycle_now
ARM GAS  /tmp/ccxuzuSP.s 			page 85


 4789              	.LVL539:
 4790 0f12 2146     		mov	r1, r4
 4791 0f14 DFED740A 		vldr.32	s1, .L624+36
 4792 0f18 6C48     		ldr	r0, .L624+8
 4793 0f1a FFF7FEFF 		bl	buffer_append_float16
 4794              	.LVL540:
 4795 0f1e FFF707B9 		b	.L261
 4796              	.L565:
 4797              		.loc 1 279 0
 4798 0f22 FFF7FEFF 		bl	mc_interface_read_reset_avg_iq
 4799              	.LVL541:
 4800 0f26 2146     		mov	r1, r4
 4801 0f28 DFED6B0A 		vldr.32	s1, .L624+20
 4802 0f2c 6748     		ldr	r0, .L624+8
 4803 0f2e FFF7FEFF 		bl	buffer_append_float32
 4804              	.LVL542:
 4805 0f32 FFF7FAB8 		b	.L260
 4806              	.L564:
 4807              		.loc 1 276 0
 4808 0f36 FFF7FEFF 		bl	mc_interface_read_reset_avg_id
 4809              	.LVL543:
 4810 0f3a 2146     		mov	r1, r4
 4811 0f3c DFED660A 		vldr.32	s1, .L624+20
 4812 0f40 6248     		ldr	r0, .L624+8
 4813 0f42 FFF7FEFF 		bl	buffer_append_float32
 4814              	.LVL544:
 4815 0f46 FFF7EDB8 		b	.L259
 4816              	.LVL545:
 4817              	.L611:
 4818              	.LBE302:
 4819              	.LBB303:
 4820              		.loc 1 708 0
 4821 0f4a FFF7FEFF 		bl	mc_interface_get_pid_pos_now
 4822              	.LVL546:
 4823 0f4e 2146     		mov	r1, r4
 4824 0f50 DFED5F0A 		vldr.32	s1, .L624+12
 4825 0f54 5D48     		ldr	r0, .L624+8
 4826 0f56 FFF7FEFF 		bl	buffer_append_float32
 4827              	.LVL547:
 4828 0f5a 09E5     		b	.L316
 4829              	.L610:
 4830              		.loc 1 705 0
 4831 0f5c FFF7FEFF 		bl	mc_interface_get_distance_abs
 4832              	.LVL548:
 4833 0f60 2146     		mov	r1, r4
 4834 0f62 DFED610A 		vldr.32	s1, .L624+36
 4835 0f66 5948     		ldr	r0, .L624+8
 4836 0f68 FFF7FEFF 		bl	buffer_append_float32
 4837              	.LVL549:
 4838 0f6c FDE4     		b	.L315
 4839              	.L609:
 4840              		.loc 1 702 0
 4841 0f6e FFF7FEFF 		bl	mc_interface_get_distance
 4842              	.LVL550:
 4843 0f72 2146     		mov	r1, r4
 4844 0f74 DFED5C0A 		vldr.32	s1, .L624+36
 4845 0f78 5448     		ldr	r0, .L624+8
ARM GAS  /tmp/ccxuzuSP.s 			page 86


 4846 0f7a FFF7FEFF 		bl	buffer_append_float32
 4847              	.LVL551:
 4848 0f7e F1E4     		b	.L314
 4849              	.L608:
 4850              		.loc 1 699 0
 4851 0f80 B0EE680A 		vmov.f32	s0, s17
 4852 0f84 2146     		mov	r1, r4
 4853 0f86 DFED530A 		vldr.32	s1, .L624+16
 4854 0f8a 5048     		ldr	r0, .L624+8
 4855 0f8c FFF7FEFF 		bl	buffer_append_float32
 4856              	.LVL552:
 4857 0f90 E5E4     		b	.L313
 4858              	.L607:
 4859              		.loc 1 696 0
 4860 0f92 B0EE490A 		vmov.f32	s0, s18
 4861 0f96 2146     		mov	r1, r4
 4862 0f98 DFED4E0A 		vldr.32	s1, .L624+16
 4863 0f9c 4B48     		ldr	r0, .L624+8
 4864 0f9e FFF7FEFF 		bl	buffer_append_float32
 4865              	.LVL553:
 4866 0fa2 D9E4     		b	.L312
 4867              	.L606:
 4868              		.loc 1 693 0
 4869 0fa4 B0EE690A 		vmov.f32	s0, s19
 4870 0fa8 2146     		mov	r1, r4
 4871 0faa DFED4A0A 		vldr.32	s1, .L624+16
 4872 0fae 4748     		ldr	r0, .L624+8
 4873 0fb0 FFF7FEFF 		bl	buffer_append_float32
 4874              	.LVL554:
 4875 0fb4 CDE4     		b	.L311
 4876              	.L605:
 4877              		.loc 1 690 0
 4878 0fb6 B0EE4A0A 		vmov.f32	s0, s20
 4879 0fba 2146     		mov	r1, r4
 4880 0fbc DFED450A 		vldr.32	s1, .L624+16
 4881 0fc0 4248     		ldr	r0, .L624+8
 4882 0fc2 FFF7FEFF 		bl	buffer_append_float32
 4883              	.LVL555:
 4884 0fc6 C1E4     		b	.L310
 4885              	.L604:
 4886              		.loc 1 687 0
 4887 0fc8 B0EE6A0A 		vmov.f32	s0, s21
 4888 0fcc 2146     		mov	r1, r4
 4889 0fce DFED460A 		vldr.32	s1, .L624+36
 4890 0fd2 3E48     		ldr	r0, .L624+8
 4891 0fd4 FFF7FEFF 		bl	buffer_append_float16
 4892              	.LVL556:
 4893 0fd8 B5E4     		b	.L309
 4894              	.L603:
 4895              		.loc 1 684 0
 4896 0fda 404B     		ldr	r3, .L624+24
 4897 0fdc 9FED407A 		vldr.32	s14, .L624+28
 4898 0fe0 DB8A     		ldrh	r3, [r3, #22]
 4899 0fe2 9FED400A 		vldr.32	s0, .L624+32
 4900 0fe6 3948     		ldr	r0, .L624+8
 4901 0fe8 07EE903A 		vmov	s15, r3	@ int
 4902 0fec F8EE677A 		vcvt.f32.u32	s15, s15
ARM GAS  /tmp/ccxuzuSP.s 			page 87


 4903 0ff0 2146     		mov	r1, r4
 4904 0ff2 67EE877A 		vmul.f32	s15, s15, s14
 4905 0ff6 F2EE040A 		vmov.f32	s1, #1.0e+1
 4906 0ffa 27EE800A 		vmul.f32	s0, s15, s0
 4907 0ffe FFF7FEFF 		bl	buffer_append_float16
 4908              	.LVL557:
 4909 1002 9DE4     		b	.L308
 4910              	.L602:
 4911              		.loc 1 681 0
 4912 1004 FFF7FEFF 		bl	mc_interface_get_speed
 4913              	.LVL558:
 4914 1008 2146     		mov	r1, r4
 4915 100a DFED370A 		vldr.32	s1, .L624+36
 4916 100e 2F48     		ldr	r0, .L624+8
 4917 1010 FFF7FEFF 		bl	buffer_append_float32
 4918              	.LVL559:
 4919 1014 91E4     		b	.L307
 4920              	.L601:
 4921              		.loc 1 678 0
 4922 1016 FFF7FEFF 		bl	mc_interface_get_rpm
 4923              	.LVL560:
 4924 101a 2146     		mov	r1, r4
 4925 101c F7EE000A 		vmov.f32	s1, #1.0e+0
 4926 1020 2A48     		ldr	r0, .L624+8
 4927 1022 FFF7FEFF 		bl	buffer_append_float32
 4928              	.LVL561:
 4929 1026 85E4     		b	.L306
 4930              	.L600:
 4931              		.loc 1 675 0
 4932 1028 FFF7FEFF 		bl	mc_interface_get_duty_cycle_now
 4933              	.LVL562:
 4934 102c 2146     		mov	r1, r4
 4935 102e DFED2E0A 		vldr.32	s1, .L624+36
 4936 1032 2648     		ldr	r0, .L624+8
 4937 1034 FFF7FEFF 		bl	buffer_append_float16
 4938              	.LVL563:
 4939 1038 79E4     		b	.L305
 4940              	.L599:
 4941              		.loc 1 672 0
 4942 103a B0EE480A 		vmov.f32	s0, s16
 4943 103e 2146     		mov	r1, r4
 4944 1040 DFED250A 		vldr.32	s1, .L624+20
 4945 1044 2148     		ldr	r0, .L624+8
 4946 1046 FFF7FEFF 		bl	buffer_append_float32
 4947              	.LVL564:
 4948 104a 6DE4     		b	.L304
 4949              	.L598:
 4950              		.loc 1 669 0
 4951 104c B0EE6B0A 		vmov.f32	s0, s23
 4952 1050 2146     		mov	r1, r4
 4953 1052 DFED210A 		vldr.32	s1, .L624+20
 4954 1056 1D48     		ldr	r0, .L624+8
 4955 1058 FFF7FEFF 		bl	buffer_append_float32
 4956              	.LVL565:
 4957 105c 61E4     		b	.L303
 4958              	.L597:
 4959              		.loc 1 666 0
ARM GAS  /tmp/ccxuzuSP.s 			page 88


 4960 105e FFF7FEFF 		bl	mc_interface_temp_motor_filtered
 4961              	.LVL566:
 4962 1062 2146     		mov	r1, r4
 4963 1064 F2EE040A 		vmov.f32	s1, #1.0e+1
 4964 1068 1848     		ldr	r0, .L624+8
 4965 106a FFF7FEFF 		bl	buffer_append_float16
 4966              	.LVL567:
 4967 106e 55E4     		b	.L302
 4968              	.LVL568:
 4969              	.L596:
 4970              	.LBB236:
 4971              		.loc 1 657 0
 4972 1070 16A9     		add	r1, sp, #88
 4973              		.loc 1 658 0
 4974 1072 2846     		mov	r0, r5
 4975              		.loc 1 657 0
 4976 1074 41F8484D 		str	r4, [r1, #-72]!
 4977              		.loc 1 658 0
 4978 1078 FFF7FEFF 		bl	buffer_get_uint32
 4979              	.LVL569:
 4980              		.loc 1 659 0
 4981 107c 03AC     		add	r4, sp, #12
 4982              		.loc 1 658 0
 4983 107e 0546     		mov	r5, r0
 4984              	.LVL570:
 4985              		.loc 1 659 0
 4986 1080 0146     		mov	r1, r0
 4987 1082 2246     		mov	r2, r4
 4988 1084 3046     		mov	r0, r6
 4989              	.LVL571:
 4990 1086 FFF7FEFF 		bl	buffer_append_uint32
 4991              	.LVL572:
 4992              	.LBE236:
 4993              		.loc 1 662 0
 4994 108a EB07     		lsls	r3, r5, #31
 4995 108c 7FF543AC 		bpl	.L301
 4996 1090 39E4     		b	.L300
 4997              	.LVL573:
 4998              	.L593:
 4999              	.LBE303:
 5000              	.LBB304:
 5001              		.loc 1 947 0
 5002 1092 02A9     		add	r1, sp, #8
 5003 1094 9FED150A 		vldr.32	s0, .L624+40
 5004 1098 2046     		mov	r0, r4
 5005 109a FFF7FEFF 		bl	buffer_append_float32_auto
 5006              	.LVL574:
 5007 109e FFF73CBA 		b	.L349
 5008              	.L592:
 5009              		.loc 1 944 0
 5010 10a2 02A9     		add	r1, sp, #8
 5011 10a4 9FED110A 		vldr.32	s0, .L624+40
 5012 10a8 2046     		mov	r0, r4
 5013 10aa FFF7FEFF 		bl	buffer_append_float32_auto
 5014              	.LVL575:
 5015 10ae FFF731BA 		b	.L348
 5016              	.L591:
ARM GAS  /tmp/ccxuzuSP.s 			page 89


 5017              		.loc 1 941 0
 5018 10b2 02A9     		add	r1, sp, #8
 5019 10b4 9FED0D0A 		vldr.32	s0, .L624+40
 5020 10b8 2046     		mov	r0, r4
 5021 10ba FFF7FEFF 		bl	buffer_append_float32_auto
 5022              	.LVL576:
 5023 10be FFF726BA 		b	.L347
 5024              	.L625:
 5025 10c2 00BF     		.align	2
 5026              	.L624:
 5027 10c4 04000000 		.word	.LC2
 5028 10c8 3C000000 		.word	.LC3
 5029 10cc 00000000 		.word	.LANCHOR17
 5030 10d0 00247449 		.word	1232348160
 5031 10d4 00401C46 		.word	1176256512
 5032 10d8 0000C842 		.word	1120403456
 5033 10dc 00000000 		.word	ADC_Value
 5034 10e0 6740533A 		.word	978534503
 5035 10e4 74D19541 		.word	1100337524
 5036 10e8 00007A44 		.word	1148846080
 5037 10ec 00000000 		.word	0
 5038              	.L590:
 5039              		.loc 1 938 0
 5040 10f0 02A9     		add	r1, sp, #8
 5041 10f2 1FED020A 		vldr.32	s0, .L624+40
 5042 10f6 2046     		mov	r0, r4
 5043 10f8 FFF7FEFF 		bl	buffer_append_float32_auto
 5044              	.LVL577:
 5045 10fc FFF704BA 		b	.L346
 5046              	.L589:
 5047              		.loc 1 934 0
 5048 1100 02A9     		add	r1, sp, #8
 5049 1102 1FED060A 		vldr.32	s0, .L624+40
 5050 1106 2046     		mov	r0, r4
 5051 1108 FFF7FEFF 		bl	buffer_append_float32_auto
 5052              	.LVL578:
 5053 110c FFF7F9B9 		b	.L345
 5054              	.L588:
 5055              		.loc 1 931 0
 5056 1110 02A9     		add	r1, sp, #8
 5057 1112 1FED0A0A 		vldr.32	s0, .L624+40
 5058 1116 2046     		mov	r0, r4
 5059 1118 FFF7FEFF 		bl	buffer_append_float32_auto
 5060              	.LVL579:
 5061 111c FFF7EEB9 		b	.L344
 5062              	.L587:
 5063              		.loc 1 928 0
 5064 1120 02A9     		add	r1, sp, #8
 5065 1122 1FED0E0A 		vldr.32	s0, .L624+40
 5066 1126 2046     		mov	r0, r4
 5067 1128 FFF7FEFF 		bl	buffer_append_float32_auto
 5068              	.LVL580:
 5069 112c FFF7E3B9 		b	.L343
 5070              	.L586:
 5071              		.loc 1 924 0
 5072 1130 02A9     		add	r1, sp, #8
 5073 1132 1FED120A 		vldr.32	s0, .L624+40
ARM GAS  /tmp/ccxuzuSP.s 			page 90


 5074 1136 2046     		mov	r0, r4
 5075 1138 FFF7FEFF 		bl	buffer_append_float32_auto
 5076              	.LVL581:
 5077 113c FFF7D8B9 		b	.L342
 5078              	.L585:
 5079              		.loc 1 921 0
 5080 1140 02A9     		add	r1, sp, #8
 5081 1142 1FED160A 		vldr.32	s0, .L624+40
 5082 1146 2046     		mov	r0, r4
 5083 1148 FFF7FEFF 		bl	buffer_append_float32_auto
 5084              	.LVL582:
 5085 114c FFF7CDB9 		b	.L341
 5086              	.L584:
 5087              		.loc 1 918 0
 5088 1150 02A9     		add	r1, sp, #8
 5089 1152 1FED1A0A 		vldr.32	s0, .L624+40
 5090 1156 2046     		mov	r0, r4
 5091 1158 FFF7FEFF 		bl	buffer_append_float32_auto
 5092              	.LVL583:
 5093 115c FFF7C2B9 		b	.L340
 5094              	.L583:
 5095              		.loc 1 914 0
 5096 1160 02A9     		add	r1, sp, #8
 5097 1162 1FED1E0A 		vldr.32	s0, .L624+40
 5098 1166 2046     		mov	r0, r4
 5099 1168 FFF7FEFF 		bl	buffer_append_float32_auto
 5100              	.LVL584:
 5101 116c FFF7B7B9 		b	.L339
 5102              	.L582:
 5103              		.loc 1 911 0
 5104 1170 02A9     		add	r1, sp, #8
 5105 1172 1FED220A 		vldr.32	s0, .L624+40
 5106 1176 2046     		mov	r0, r4
 5107 1178 FFF7FEFF 		bl	buffer_append_float32_auto
 5108              	.LVL585:
 5109 117c FFF7ACB9 		b	.L338
 5110              	.L581:
 5111              		.loc 1 908 0
 5112 1180 02A9     		add	r1, sp, #8
 5113 1182 1FED260A 		vldr.32	s0, .L624+40
 5114 1186 2046     		mov	r0, r4
 5115 1188 FFF7FEFF 		bl	buffer_append_float32_auto
 5116              	.LVL586:
 5117 118c FFF7A1B9 		b	.L337
 5118              	.L580:
 5119              		.loc 1 904 0
 5120 1190 02A9     		add	r1, sp, #8
 5121 1192 1FED2A0A 		vldr.32	s0, .L624+40
 5122 1196 2046     		mov	r0, r4
 5123 1198 FFF7FEFF 		bl	buffer_append_float32_auto
 5124              	.LVL587:
 5125 119c FFF796B9 		b	.L336
 5126              	.L579:
 5127              		.loc 1 901 0
 5128 11a0 02A9     		add	r1, sp, #8
 5129 11a2 1FED2E0A 		vldr.32	s0, .L624+40
 5130 11a6 2046     		mov	r0, r4
ARM GAS  /tmp/ccxuzuSP.s 			page 91


 5131 11a8 FFF7FEFF 		bl	buffer_append_float32_auto
 5132              	.LVL588:
 5133 11ac FFF78BB9 		b	.L335
 5134              	.LVL589:
 5135              	.L578:
 5136              		.loc 1 898 0
 5137 11b0 02A9     		add	r1, sp, #8
 5138 11b2 1FED320A 		vldr.32	s0, .L624+40
 5139 11b6 2046     		mov	r0, r4
 5140 11b8 FFF7FEFF 		bl	buffer_append_float32_auto
 5141              	.LVL590:
 5142 11bc FFF780B9 		b	.L334
 5143              	.LBE304:
 5144              		.cfi_endproc
 5145              	.LFE263:
 5146              		.size	commands_process_packet, .-commands_process_packet
 5147              		.section	.bss.appconf.13403,"aw",%nobits
 5148              		.align	2
 5149              		.set	.LANCHOR19,. + 0
 5150              		.type	appconf.13403, %object
 5151              		.size	appconf.13403, 204
 5152              	appconf.13403:
 5153 0000 00000000 		.space	204
 5153      00000000 
 5153      00000000 
 5153      00000000 
 5153      00000000 
 5154              		.section	.bss.appdata_func,"aw",%nobits
 5155              		.align	2
 5156              		.set	.LANCHOR16,. + 0
 5157              		.type	appdata_func, %object
 5158              		.size	appdata_func, 4
 5159              	appdata_func:
 5160 0000 00000000 		.space	4
 5161              		.section	.bss.blocking_thread_cmd_buffer,"aw",%nobits
 5162              		.align	2
 5163              		.set	.LANCHOR3,. + 0
 5164              		.type	blocking_thread_cmd_buffer, %object
 5165              		.size	blocking_thread_cmd_buffer, 512
 5166              	blocking_thread_cmd_buffer:
 5167 0000 00000000 		.space	512
 5167      00000000 
 5167      00000000 
 5167      00000000 
 5167      00000000 
 5168              		.section	.bss.blocking_thread_cmd_len,"aw",%nobits
 5169              		.align	2
 5170              		.set	.LANCHOR2,. + 0
 5171              		.type	blocking_thread_cmd_len, %object
 5172              		.size	blocking_thread_cmd_len, 4
 5173              	blocking_thread_cmd_len:
 5174 0000 00000000 		.space	4
 5175              		.section	.bss.blocking_thread_wa,"aw",%nobits
 5176              		.align	3
 5177              		.set	.LANCHOR12,. + 0
 5178              		.type	blocking_thread_wa, %object
 5179              		.size	blocking_thread_wa, 2456
ARM GAS  /tmp/ccxuzuSP.s 			page 92


 5180              	blocking_thread_wa:
 5181 0000 00000000 		.space	2456
 5181      00000000 
 5181      00000000 
 5181      00000000 
 5181      00000000 
 5182              		.section	.bss.blocking_tp,"aw",%nobits
 5183              		.align	2
 5184              		.set	.LANCHOR1,. + 0
 5185              		.type	blocking_tp, %object
 5186              		.size	blocking_tp, 4
 5187              	blocking_tp:
 5188 0000 00000000 		.space	4
 5189              		.section	.bss.display_position_mode,"aw",%nobits
 5190              		.set	.LANCHOR15,. + 0
 5191              		.type	display_position_mode, %object
 5192              		.size	display_position_mode, 1
 5193              	display_position_mode:
 5194 0000 00       		.space	1
 5195              		.section	.bss.is_blocking,"aw",%nobits
 5196              		.set	.LANCHOR9,. + 0
 5197              		.type	is_blocking, %object
 5198              		.size	is_blocking, 1
 5199              	is_blocking:
 5200 0000 00       		.space	1
 5201              		.section	.bss.mcconf.13402,"aw",%nobits
 5202              		.align	2
 5203              		.set	.LANCHOR18,. + 0
 5204              		.type	mcconf.13402, %object
 5205              		.size	mcconf.13402, 456
 5206              	mcconf.13402:
 5207 0000 00000000 		.space	456
 5207      00000000 
 5207      00000000 
 5207      00000000 
 5207      00000000 
 5208              		.section	.bss.mcconf.13634,"aw",%nobits
 5209              		.align	2
 5210              		.set	.LANCHOR6,. + 0
 5211              		.type	mcconf.13634, %object
 5212              		.size	mcconf.13634, 456
 5213              	mcconf.13634:
 5214 0000 00000000 		.space	456
 5214      00000000 
 5214      00000000 
 5214      00000000 
 5214      00000000 
 5215              		.section	.bss.mcconf_old.13635,"aw",%nobits
 5216              		.align	2
 5217              		.set	.LANCHOR7,. + 0
 5218              		.type	mcconf_old.13635, %object
 5219              		.size	mcconf_old.13635, 456
 5220              	mcconf_old.13635:
 5221 0000 00000000 		.space	456
 5221      00000000 
 5221      00000000 
 5221      00000000 
ARM GAS  /tmp/ccxuzuSP.s 			page 93


 5221      00000000 
 5222              		.section	.bss.print_buffer.13581,"aw",%nobits
 5223              		.align	2
 5224              		.set	.LANCHOR14,. + 0
 5225              		.type	print_buffer.13581, %object
 5226              		.size	print_buffer.13581, 255
 5227              	print_buffer.13581:
 5228 0000 00000000 		.space	255
 5228      00000000 
 5228      00000000 
 5228      00000000 
 5228      00000000 
 5229              		.section	.bss.print_mutex,"aw",%nobits
 5230              		.align	2
 5231              		.set	.LANCHOR10,. + 0
 5232              		.type	print_mutex, %object
 5233              		.size	print_mutex, 16
 5234              	print_mutex:
 5235 0000 00000000 		.space	16
 5235      00000000 
 5235      00000000 
 5235      00000000 
 5236              		.section	.bss.send_buffer.13636,"aw",%nobits
 5237              		.align	2
 5238              		.set	.LANCHOR4,. + 0
 5239              		.type	send_buffer.13636, %object
 5240              		.size	send_buffer.13636, 256
 5241              	send_buffer.13636:
 5242 0000 00000000 		.space	256
 5242      00000000 
 5242      00000000 
 5242      00000000 
 5242      00000000 
 5243              		.section	.bss.send_buffer_global,"aw",%nobits
 5244              		.align	2
 5245              		.set	.LANCHOR17,. + 0
 5246              		.type	send_buffer_global, %object
 5247              		.size	send_buffer_global, 512
 5248              	send_buffer_global:
 5249 0000 00000000 		.space	512
 5249      00000000 
 5249      00000000 
 5249      00000000 
 5249      00000000 
 5250              		.section	.bss.send_buffer_mutex,"aw",%nobits
 5251              		.align	2
 5252              		.set	.LANCHOR11,. + 0
 5253              		.type	send_buffer_mutex, %object
 5254              		.size	send_buffer_mutex, 16
 5255              	send_buffer_mutex:
 5256 0000 00000000 		.space	16
 5256      00000000 
 5256      00000000 
 5256      00000000 
 5257              		.section	.bss.send_func,"aw",%nobits
 5258              		.align	2
 5259              		.set	.LANCHOR0,. + 0
ARM GAS  /tmp/ccxuzuSP.s 			page 94


 5260              		.type	send_func, %object
 5261              		.size	send_func, 4
 5262              	send_func:
 5263 0000 00000000 		.space	4
 5264              		.section	.bss.send_func_blocking,"aw",%nobits
 5265              		.align	2
 5266              		.set	.LANCHOR5,. + 0
 5267              		.type	send_func_blocking, %object
 5268              		.size	send_func_blocking, 4
 5269              	send_func_blocking:
 5270 0000 00000000 		.space	4
 5271              		.section	.bss.send_func_nrf,"aw",%nobits
 5272              		.align	2
 5273              		.set	.LANCHOR13,. + 0
 5274              		.type	send_func_nrf, %object
 5275              		.size	send_func_nrf, 4
 5276              	send_func_nrf:
 5277 0000 00000000 		.space	4
 5278              		.section	.bss.terminal_mutex,"aw",%nobits
 5279              		.align	2
 5280              		.set	.LANCHOR8,. + 0
 5281              		.type	terminal_mutex, %object
 5282              		.size	terminal_mutex, 16
 5283              	terminal_mutex:
 5284 0000 00000000 		.space	16
 5284      00000000 
 5284      00000000 
 5284      00000000 
 5285              		.section	.rodata.blocking_thread.str1.4,"aMS",%progbits,1
 5286              		.align	2
 5287              	.LC0:
 5288 0000 636F6D6D 		.ascii	"comm_block\000"
 5288      5F626C6F 
 5288      636B00
 5289              		.section	.rodata.commands_process_packet.str1.4,"aMS",%progbits,1
 5290              		.align	2
 5291              	.LC1:
 5292 0000 363000   		.ascii	"60\000"
 5293 0003 00       		.space	1
 5294              	.LC2:
 5295 0004 5761726E 		.ascii	"Warning: Could not set mcconf due to wrong signatur"
 5295      696E673A 
 5295      20436F75 
 5295      6C64206E 
 5295      6F742073 
 5296 0037 6500     		.ascii	"e\000"
 5297 0039 000000   		.space	3
 5298              	.LC3:
 5299 003c 5761726E 		.ascii	"Warning: Could not set appconf due to wrong signatu"
 5299      696E673A 
 5299      20436F75 
 5299      6C64206E 
 5299      6F742073 
 5300 006f 726500   		.ascii	"re\000"
 5301              		.text
 5302              	.Letext0:
 5303              		.file 5 "/usr/arm-none-eabi/include/machine/_default_types.h"
ARM GAS  /tmp/ccxuzuSP.s 			page 95


 5304              		.file 6 "/usr/arm-none-eabi/include/sys/_stdint.h"
 5305              		.file 7 "/usr/lib/gcc/arm-none-eabi/7.3.1/include/stddef.h"
 5306              		.file 8 "ChibiOS_3.0.2/os/rt/ports/ARMCMx/compilers/GCC/chtypes.h"
 5307              		.file 9 "ChibiOS_3.0.2/os/rt/include/chsystypes.h"
 5308              		.file 10 "ChibiOS_3.0.2/os/rt/include/chschd.h"
 5309              		.file 11 "ChibiOS_3.0.2/os/ext/CMSIS/include/core_cm4.h"
 5310              		.file 12 "ChibiOS_3.0.2/os/ext/CMSIS/ST/system_stm32f4xx.h"
 5311              		.file 13 "ChibiOS_3.0.2/os/ext/CMSIS/ST/stm32f407xx.h"
 5312              		.file 14 "ChibiOS_3.0.2/os/rt/ports/ARMCMx/chcore.h"
 5313              		.file 15 "ChibiOS_3.0.2/os/rt/ports/ARMCMx/chcore_v7m.h"
 5314              		.file 16 "ChibiOS_3.0.2/os/rt/include/chtm.h"
 5315              		.file 17 "ChibiOS_3.0.2/os/rt/include/chsem.h"
 5316              		.file 18 "ChibiOS_3.0.2/os/rt/include/chmtx.h"
 5317              		.file 19 "ChibiOS_3.0.2/os/rt/include/chevents.h"
 5318              		.file 20 "ChibiOS_3.0.2/os/rt/include/chqueues.h"
 5319              		.file 21 "datatypes.h"
 5320              		.file 22 "./conf_general.h"
 5321              		.file 23 "ChibiOS_3.0.2/ext/stdperiph_stm32f4/inc/stm32f4xx_flash.h"
 5322              		.file 24 "ChibiOS_3.0.2/os/hal/ports/STM32/STM32F4xx/stm32_dma.h"
 5323              		.file 25 "ChibiOS_3.0.2/os/hal/ports/STM32/LLD/GPIOv2/pal_lld.h"
 5324              		.file 26 "ChibiOS_3.0.2/os/hal/include/can.h"
 5325              		.file 27 "ChibiOS_3.0.2/os/hal/ports/STM32/LLD/can_lld.h"
 5326              		.file 28 "ChibiOS_3.0.2/os/hal/include/i2c.h"
 5327              		.file 29 "ChibiOS_3.0.2/os/hal/ports/STM32/LLD/I2Cv1/i2c_lld.h"
 5328              		.file 30 "ChibiOS_3.0.2/os/hal/include/icu.h"
 5329              		.file 31 "ChibiOS_3.0.2/os/hal/ports/STM32/LLD/TIMv1/icu_lld.h"
 5330              		.file 32 "ChibiOS_3.0.2/os/hal/ports/STM32/LLD/TIMv1/stm32_tim.h"
 5331              		.file 33 "ChibiOS_3.0.2/os/hal/include/serial.h"
 5332              		.file 34 "ChibiOS_3.0.2/os/hal/ports/STM32/LLD/USARTv1/serial_lld.h"
 5333              		.file 35 "ChibiOS_3.0.2/os/hal/include/spi.h"
 5334              		.file 36 "ChibiOS_3.0.2/os/hal/ports/STM32/LLD/SPIv1/spi_lld.h"
 5335              		.file 37 "ChibiOS_3.0.2/os/hal/include/usb.h"
 5336              		.file 38 "ChibiOS_3.0.2/os/hal/ports/STM32/LLD/OTGv1/usb_lld.h"
 5337              		.file 39 "ChibiOS_3.0.2/os/hal/ports/STM32/LLD/OTGv1/stm32_otg.h"
 5338              		.file 40 "mc_interface.h"
 5339              		.file 41 "mcpwm.h"
 5340              		.file 42 "/usr/arm-none-eabi/include/sys/lock.h"
 5341              		.file 43 "/usr/arm-none-eabi/include/sys/_types.h"
 5342              		.file 44 "/usr/arm-none-eabi/include/sys/reent.h"
 5343              		.file 45 "/usr/arm-none-eabi/include/math.h"
 5344              		.file 46 "/usr/lib/gcc/arm-none-eabi/7.3.1/include/stdarg.h"
 5345              		.file 47 "<built-in>"
 5346              		.file 48 "ChibiOS_3.0.2/os/rt/include/chthreads.h"
 5347              		.file 49 "buffer.h"
 5348              		.file 50 "mcpwm_foc.h"
 5349              		.file 51 "comm_can.h"
 5350              		.file 52 "blackmagic/bm_if.h"
 5351              		.file 53 "terminal.h"
 5352              		.file 54 "encoder.h"
 5353              		.file 55 "utils.h"
 5354              		.file 56 "confgenerator.h"
 5355              		.file 57 "/usr/arm-none-eabi/include/stdio.h"
 5356              		.file 58 "applications/app.h"
 5357              		.file 59 "nrf/nrf_driver.h"
 5358              		.file 60 "flash_helper.h"
 5359              		.file 61 "timeout.h"
 5360              		.file 62 "servo_dec.h"
ARM GAS  /tmp/ccxuzuSP.s 			page 96


 5361              		.file 63 "gpdrive.h"