ARM GAS  /tmp/ccjQGkoy.s 			page 1


   1              		.cpu cortex-m4
   2              		.eabi_attribute 27, 1
   3              		.eabi_attribute 28, 1
   4              		.eabi_attribute 20, 1
   5              		.eabi_attribute 21, 1
   6              		.eabi_attribute 23, 3
   7              		.eabi_attribute 24, 1
   8              		.eabi_attribute 25, 1
   9              		.eabi_attribute 26, 1
  10              		.eabi_attribute 30, 2
  11              		.eabi_attribute 34, 1
  12              		.eabi_attribute 18, 4
  13              		.file	"comm_can.c"
  14              		.text
  15              	.Ltext0:
  16              		.cfi_sections	.debug_frame
  17              		.section	.text.cancom_read_thread,"ax",%progbits
  18              		.align	1
  19              		.p2align 4,,15
  20              		.syntax unified
  21              		.thumb
  22              		.thumb_func
  23              		.fpu fpv4-sp-d16
  24              		.type	cancom_read_thread, %function
  25              	cancom_read_thread:
  26              	.LFB288:
  27              		.file 1 "comm_can.c"
  28              		.loc 1 694 0
  29              		.cfi_startproc
  30              		@ args = 0, pretend = 0, frame = 40
  31              		@ frame_needed = 0, uses_anonymous_args = 0
  32              	.LVL0:
  33 0000 2DE9F04F 		push	{r4, r5, r6, r7, r8, r9, r10, fp, lr}
  34              		.cfi_def_cfa_offset 36
  35              		.cfi_offset 4, -36
  36              		.cfi_offset 5, -32
  37              		.cfi_offset 6, -28
  38              		.cfi_offset 7, -24
  39              		.cfi_offset 8, -20
  40              		.cfi_offset 9, -16
  41              		.cfi_offset 10, -12
  42              		.cfi_offset 11, -8
  43              		.cfi_offset 14, -4
  44              	.LBB137:
  45              	.LBB138:
  46              		.file 2 "ChibiOS_3.0.2/os/rt/include/chregistry.h"
  47              		.loc 2 135 0
  48 0004 DFF8D4B0 		ldr	fp, .L15+20
  49 0008 2F4A     		ldr	r2, .L15
  50 000a DBF81830 		ldr	r3, [fp, #24]
  51              	.LBE138:
  52              	.LBE137:
  53              	.LBB140:
  54              	.LBB141:
  55              	.LBB142:
  56              		.file 3 "ChibiOS_3.0.2/os/rt/include/chevents.h"
  57              		.loc 3 193 0
ARM GAS  /tmp/ccjQGkoy.s 			page 2


  58 000e 2F48     		ldr	r0, .L15+4
  59              	.LVL1:
  60              	.LBE142:
  61              	.LBE141:
  62              	.LBE140:
  63              	.LBB145:
  64              	.LBB139:
  65              		.loc 2 135 0
  66 0010 9A61     		str	r2, [r3, #24]
  67              	.LVL2:
  68              	.LBE139:
  69              	.LBE145:
  70              		.loc 1 694 0
  71 0012 8BB0     		sub	sp, sp, #44
  72              		.cfi_def_cfa_offset 80
  73              	.LVL3:
  74              	.LBB146:
  75              	.LBB144:
  76              	.LBB143:
  77              		.loc 3 193 0
  78 0014 6946     		mov	r1, sp
  79 0016 4FF0FF33 		mov	r3, #-1
  80 001a 0122     		movs	r2, #1
  81 001c FFF7FEFF 		bl	chEvtRegisterMaskWithFlags
  82              	.LVL4:
  83              	.LBE143:
  84              	.LBE144:
  85              	.LBE146:
  86              	.LBB147:
  87              		.loc 1 711 0
  88 0020 2B4F     		ldr	r7, .L15+8
  89 0022 2C4D     		ldr	r5, .L15+12
  90 0024 DFF8B890 		ldr	r9, .L15+24
  91              	.L3:
  92              	.LBE147:
  93              	.LBB148:
  94              	.LBB149:
  95              		.file 4 "ChibiOS_3.0.2/os/rt/include/chthreads.h"
  96              		.loc 4 233 0
  97 0028 DBF81830 		ldr	r3, [fp, #24]
  98              	.LBE149:
  99              	.LBE148:
 100              		.loc 1 703 0
 101 002c 5B7F     		ldrb	r3, [r3, #29]	@ zero_extendqisi2
 102 002e 13F00404 		ands	r4, r3, #4
 103 0032 42D1     		bne	.L14
 104              	.L7:
 105              	.LBB151:
 106              		.loc 1 705 0
 107 0034 0120     		movs	r0, #1
 108 0036 FFF7FEFF 		bl	timeout_feed_WDT
 109              	.LVL5:
 110              		.loc 1 707 0
 111 003a 6421     		movs	r1, #100
 112 003c 4FF0FF30 		mov	r0, #-1
 113 0040 FFF7FEFF 		bl	chEvtWaitAnyTimeout
 114              	.LVL6:
ARM GAS  /tmp/ccjQGkoy.s 			page 3


 115 0044 0028     		cmp	r0, #0
 116 0046 EFD0     		beq	.L3
 117              		.loc 1 711 0
 118 0048 05AA     		add	r2, sp, #20
 119 004a 2346     		mov	r3, r4
 120 004c 2146     		mov	r1, r4
 121 004e 3846     		mov	r0, r7
 122 0050 FFF7FEFF 		bl	canReceive
 123              	.LVL7:
 124              		.loc 1 713 0
 125 0054 0028     		cmp	r0, #0
 126 0056 E7D1     		bne	.L3
 127 0058 DFF88880 		ldr	r8, .L15+28
 128              		.loc 1 715 0
 129 005c 1E4E     		ldr	r6, .L15+16
 130              		.loc 1 718 0
 131 005e 8246     		mov	r10, r0
 132              	.L6:
 133              	.LVL8:
 134              		.loc 1 715 0
 135 0060 3046     		mov	r0, r6
 136              		.loc 1 716 0
 137 0062 05AC     		add	r4, sp, #20
 138              		.loc 1 715 0
 139 0064 FFF7FEFF 		bl	chMtxLock
 140              	.LVL9:
 141              		.loc 1 716 0
 142 0068 0FCC     		ldmia	r4!, {r0, r1, r2, r3}
 143 006a D5F800C0 		ldr	ip, [r5]
 144 006e D4F800E0 		ldr	lr, [r4]
 145 0072 0CEB8C04 		add	r4, ip, ip, lsl #2
 146 0076 09EB8404 		add	r4, r9, r4, lsl #2
 147 007a 0FC4     		stmia	r4!, {r0, r1, r2, r3}
 148 007c 0CF10103 		add	r3, ip, #1
 149              		.loc 1 717 0
 150 0080 642B     		cmp	r3, #100
 151              		.loc 1 720 0
 152 0082 3046     		mov	r0, r6
 153              		.loc 1 716 0
 154 0084 2B60     		str	r3, [r5]
 155 0086 C4F800E0 		str	lr, [r4]
 156              		.loc 1 718 0
 157 008a 08BF     		it	eq
 158 008c C5F800A0 		streq	r10, [r5]
 159              		.loc 1 720 0
 160 0090 FFF7FEFF 		bl	chMtxUnlock
 161              	.LVL10:
 162              		.loc 1 722 0
 163 0094 0121     		movs	r1, #1
 164 0096 D8F80000 		ldr	r0, [r8]
 165 009a FFF7FEFF 		bl	chEvtSignal
 166              	.LVL11:
 167              		.loc 1 724 0
 168 009e 0023     		movs	r3, #0
 169 00a0 1946     		mov	r1, r3
 170 00a2 05AA     		add	r2, sp, #20
 171 00a4 3846     		mov	r0, r7
ARM GAS  /tmp/ccjQGkoy.s 			page 4


 172 00a6 FFF7FEFF 		bl	canReceive
 173              	.LVL12:
 174              		.loc 1 713 0
 175 00aa 0028     		cmp	r0, #0
 176 00ac D8D0     		beq	.L6
 177              	.LBE151:
 178              	.LBB152:
 179              	.LBB150:
 180              		.loc 4 233 0
 181 00ae DBF81830 		ldr	r3, [fp, #24]
 182              	.LBE150:
 183              	.LBE152:
 184              		.loc 1 703 0
 185 00b2 5B7F     		ldrb	r3, [r3, #29]	@ zero_extendqisi2
 186 00b4 13F00404 		ands	r4, r3, #4
 187 00b8 BCD0     		beq	.L7
 188              	.LVL13:
 189              	.L14:
 190              		.loc 1 728 0
 191 00ba 6946     		mov	r1, sp
 192 00bc 0348     		ldr	r0, .L15+4
 193              	.LVL14:
 194 00be FFF7FEFF 		bl	chEvtUnregister
 195              	.LVL15:
 196              		.loc 1 729 0
 197 00c2 0BB0     		add	sp, sp, #44
 198              		.cfi_def_cfa_offset 36
 199              	.LVL16:
 200              		@ sp needed
 201 00c4 BDE8F08F 		pop	{r4, r5, r6, r7, r8, r9, r10, fp, pc}
 202              	.LVL17:
 203              	.L16:
 204              		.align	2
 205              	.L15:
 206 00c8 00000000 		.word	.LC0
 207 00cc 18000000 		.word	CAND1+24
 208 00d0 00000000 		.word	CAND1
 209 00d4 00000000 		.word	.LANCHOR1
 210 00d8 00000000 		.word	.LANCHOR0
 211 00dc 00000000 		.word	ch
 212 00e0 00000000 		.word	.LANCHOR2
 213 00e4 00000000 		.word	.LANCHOR3
 214              		.cfi_endproc
 215              	.LFE288:
 216              		.size	cancom_read_thread, .-cancom_read_thread
 217              		.section	.text.comm_can_init,"ax",%progbits
 218              		.align	1
 219              		.p2align 4,,15
 220              		.global	comm_can_init
 221              		.syntax unified
 222              		.thumb
 223              		.thumb_func
 224              		.fpu fpv4-sp-d16
 225              		.type	comm_can_init, %function
 226              	comm_can_init:
 227              	.LFB256:
 228              		.loc 1 89 0
ARM GAS  /tmp/ccjQGkoy.s 			page 5


 229              		.cfi_startproc
 230              		@ args = 0, pretend = 0, frame = 0
 231              		@ frame_needed = 0, uses_anonymous_args = 0
 232              	.LVL18:
 233 0000 30B5     		push	{r4, r5, lr}
 234              		.cfi_def_cfa_offset 12
 235              		.cfi_offset 4, -12
 236              		.cfi_offset 5, -8
 237              		.cfi_offset 14, -4
 238 0002 2548     		ldr	r0, .L21
 239 0004 2549     		ldr	r1, .L21+4
 240 0006 264D     		ldr	r5, .L21+8
 241 0008 264C     		ldr	r4, .L21+12
 242 000a 83B0     		sub	sp, sp, #12
 243              		.cfi_def_cfa_offset 24
 244              		.loc 1 89 0
 245 000c 0023     		movs	r3, #0
 246              	.LBB153:
 247              		.loc 1 91 0
 248 000e 4FF0FF32 		mov	r2, #-1
 249              	.LVL19:
 250              	.L18:
 251              		.loc 1 92 0 discriminator 3
 252 0012 EA50     		str	r2, [r5, r3]
 253              		.loc 1 93 0 discriminator 3
 254 0014 E250     		str	r2, [r4, r3]
 255 0016 1033     		adds	r3, r3, #16
 256              		.loc 1 90 0 discriminator 3
 257 0018 A02B     		cmp	r3, #160
 258              		.loc 1 91 0 discriminator 3
 259 001a 40F8142B 		str	r2, [r0], #20
 260              		.loc 1 94 0 discriminator 3
 261 001e 41F8182B 		str	r2, [r1], #24
 262              		.loc 1 90 0 discriminator 3
 263 0022 F6D1     		bne	.L18
 264              	.LBE153:
 265              		.loc 1 99 0
 266 0024 204B     		ldr	r3, .L21+16
 267              		.loc 1 98 0
 268 0026 214A     		ldr	r2, .L21+20
 269              		.loc 1 101 0
 270 0028 2148     		ldr	r0, .L21+24
 271              		.loc 1 98 0
 272 002a 0024     		movs	r4, #0
 273              		.loc 1 99 0
 274 002c 1C60     		str	r4, [r3]
 275              		.loc 1 98 0
 276 002e 1460     		str	r4, [r2]
 277              		.loc 1 101 0
 278 0030 FFF7FEFF 		bl	chMtxObjectInit
 279              	.LVL20:
 280              		.loc 1 102 0
 281 0034 1F48     		ldr	r0, .L21+28
 282 0036 FFF7FEFF 		bl	chMtxObjectInit
 283              	.LVL21:
 284              		.loc 1 104 0
 285 003a 40F28A42 		movw	r2, #1162
ARM GAS  /tmp/ccjQGkoy.s 			page 6


 286 003e 4FF48071 		mov	r1, #256
 287 0042 1D48     		ldr	r0, .L21+32
 288 0044 FFF7FEFF 		bl	_pal_lld_setgroupmode
 289              	.LVL22:
 290              		.loc 1 108 0
 291 0048 40F28A42 		movw	r2, #1162
 292 004c 4FF40071 		mov	r1, #512
 293 0050 1948     		ldr	r0, .L21+32
 294 0052 FFF7FEFF 		bl	_pal_lld_setgroupmode
 295              	.LVL23:
 296              		.loc 1 113 0
 297 0056 1949     		ldr	r1, .L21+36
 298 0058 1948     		ldr	r0, .L21+40
 299 005a FFF7FEFF 		bl	canStart
 300              	.LVL24:
 301              		.loc 1 115 0
 302 005e FFF7FEFF 		bl	canard_driver_init
 303              	.LVL25:
 304              		.loc 1 117 0
 305 0062 0094     		str	r4, [sp]
 306 0064 174B     		ldr	r3, .L21+44
 307 0066 1848     		ldr	r0, .L21+48
 308 0068 4122     		movs	r2, #65
 309 006a 4FF46671 		mov	r1, #920
 310 006e FFF7FEFF 		bl	chThdCreateStatic
 311              	.LVL26:
 312              		.loc 1 119 0
 313 0072 0094     		str	r4, [sp]
 314 0074 154B     		ldr	r3, .L21+52
 315 0076 1648     		ldr	r0, .L21+56
 316 0078 4022     		movs	r2, #64
 317 007a 4FF4B361 		mov	r1, #1432
 318 007e FFF7FEFF 		bl	chThdCreateStatic
 319              	.LVL27:
 320              		.loc 1 121 0
 321 0082 0094     		str	r4, [sp]
 322 0084 134B     		ldr	r3, .L21+60
 323 0086 1448     		ldr	r0, .L21+64
 324 0088 4022     		movs	r2, #64
 325 008a 41F29811 		movw	r1, #4504
 326 008e FFF7FEFF 		bl	chThdCreateStatic
 327              	.LVL28:
 328              		.loc 1 124 0
 329 0092 03B0     		add	sp, sp, #12
 330              		.cfi_def_cfa_offset 12
 331              		@ sp needed
 332 0094 30BD     		pop	{r4, r5, pc}
 333              	.L22:
 334 0096 00BF     		.align	2
 335              	.L21:
 336 0098 00000000 		.word	.LANCHOR4
 337 009c 00000000 		.word	.LANCHOR5
 338 00a0 00000000 		.word	.LANCHOR6
 339 00a4 00000000 		.word	.LANCHOR7
 340 00a8 00000000 		.word	.LANCHOR1
 341 00ac 00000000 		.word	.LANCHOR8
 342 00b0 00000000 		.word	.LANCHOR9
ARM GAS  /tmp/ccjQGkoy.s 			page 7


 343 00b4 00000000 		.word	.LANCHOR0
 344 00b8 00040240 		.word	1073873920
 345 00bc 00000000 		.word	.LANCHOR10
 346 00c0 00000000 		.word	CAND1
 347 00c4 00000000 		.word	cancom_read_thread
 348 00c8 00000000 		.word	.LANCHOR11
 349 00cc 00000000 		.word	cancom_status_thread
 350 00d0 00000000 		.word	.LANCHOR12
 351 00d4 00000000 		.word	cancom_process_thread
 352 00d8 00000000 		.word	cancom_process_thread_wa
 353              		.cfi_endproc
 354              	.LFE256:
 355              		.size	comm_can_init, .-comm_can_init
 356              		.section	.text.comm_can_set_baud,"ax",%progbits
 357              		.align	1
 358              		.p2align 4,,15
 359              		.global	comm_can_set_baud
 360              		.syntax unified
 361              		.thumb
 362              		.thumb_func
 363              		.fpu fpv4-sp-d16
 364              		.type	comm_can_set_baud, %function
 365              	comm_can_set_baud:
 366              	.LFB257:
 367              		.loc 1 126 0
 368              		.cfi_startproc
 369              		@ args = 0, pretend = 0, frame = 0
 370              		@ frame_needed = 0, uses_anonymous_args = 0
 371              	.LVL29:
 372 0000 10B5     		push	{r4, lr}
 373              		.cfi_def_cfa_offset 8
 374              		.cfi_offset 4, -8
 375              		.cfi_offset 14, -4
 376              		.loc 1 127 0
 377 0002 0328     		cmp	r0, #3
 378 0004 18D8     		bhi	.L23
 379 0006 DFE800F0 		tbb	[pc, r0]
 380              	.L26:
 381 000a 14       		.byte	(.L25-.L26)/2
 382 000b 11       		.byte	(.L27-.L26)/2
 383 000c 0E       		.byte	(.L28-.L26)/2
 384 000d 02       		.byte	(.L29-.L26)/2
 385              		.p2align 1
 386              	.L29:
 387              	.LVL30:
 388              	.LBB154:
 389              	.LBB155:
 390              		.loc 1 1128 0
 391 000e 0B4C     		ldr	r4, .L32
 392 0010 0B4B     		ldr	r3, .L32+4
 393              	.LVL31:
 394              	.L31:
 395              		.loc 1 1131 0
 396 0012 0C48     		ldr	r0, .L32+8
 397              	.LVL32:
 398              		.loc 1 1128 0
 399 0014 6360     		str	r3, [r4, #4]
ARM GAS  /tmp/ccjQGkoy.s 			page 8


 400              		.loc 1 1131 0
 401 0016 FFF7FEFF 		bl	canStop
 402              	.LVL33:
 403              		.loc 1 1132 0
 404 001a 2146     		mov	r1, r4
 405 001c 0948     		ldr	r0, .L32+8
 406              	.LBE155:
 407              	.LBE154:
 408              		.loc 1 134 0
 409 001e BDE81040 		pop	{r4, lr}
 410              		.cfi_remember_state
 411              		.cfi_restore 14
 412              		.cfi_restore 4
 413              		.cfi_def_cfa_offset 0
 414              	.LBB157:
 415              	.LBB156:
 416              		.loc 1 1132 0
 417 0022 FFF7FEBF 		b	canStart
 418              	.LVL34:
 419              	.L28:
 420              		.cfi_restore_state
 421              	.LBE156:
 422              	.LBE157:
 423              	.LBB158:
 424              	.LBB159:
 425              		.loc 1 1128 0
 426 0026 054C     		ldr	r4, .L32
 427 0028 074B     		ldr	r3, .L32+12
 428 002a F2E7     		b	.L31
 429              	.LVL35:
 430              	.L27:
 431              	.LBE159:
 432              	.LBE158:
 433              	.LBB160:
 434              	.LBB161:
 435 002c 034C     		ldr	r4, .L32
 436 002e 074B     		ldr	r3, .L32+16
 437 0030 EFE7     		b	.L31
 438              	.LVL36:
 439              	.L25:
 440              	.LBE161:
 441              	.LBE160:
 442              	.LBB162:
 443              	.LBB163:
 444 0032 024C     		ldr	r4, .L32
 445 0034 064B     		ldr	r3, .L32+20
 446 0036 ECE7     		b	.L31
 447              	.LVL37:
 448              	.L23:
 449              	.LBE163:
 450              	.LBE162:
 451              		.loc 1 134 0
 452 0038 10BD     		pop	{r4, pc}
 453              	.L33:
 454 003a 00BF     		.align	2
 455              	.L32:
 456 003c 00000000 		.word	.LANCHOR10
ARM GAS  /tmp/ccjQGkoy.s 			page 9


 457 0040 02002903 		.word	53018626
 458 0044 00000000 		.word	CAND1
 459 0048 05002903 		.word	53018629
 460 004c 07004E03 		.word	55443463
 461 0050 0F004E03 		.word	55443471
 462              		.cfi_endproc
 463              	.LFE257:
 464              		.size	comm_can_set_baud, .-comm_can_set_baud
 465              		.section	.text.comm_can_transmit_eid,"ax",%progbits
 466              		.align	1
 467              		.p2align 4,,15
 468              		.global	comm_can_transmit_eid
 469              		.syntax unified
 470              		.thumb
 471              		.thumb_func
 472              		.fpu fpv4-sp-d16
 473              		.type	comm_can_transmit_eid, %function
 474              	comm_can_transmit_eid:
 475              	.LFB258:
 476              		.loc 1 136 0
 477              		.cfi_startproc
 478              		@ args = 0, pretend = 0, frame = 16
 479              		@ frame_needed = 0, uses_anonymous_args = 0
 480              	.LVL38:
 481 0000 70B5     		push	{r4, r5, r6, lr}
 482              		.cfi_def_cfa_offset 16
 483              		.cfi_offset 4, -16
 484              		.cfi_offset 5, -12
 485              		.cfi_offset 6, -8
 486              		.cfi_offset 14, -4
 487 0002 84B0     		sub	sp, sp, #16
 488              		.cfi_def_cfa_offset 32
 489 0004 082A     		cmp	r2, #8
 490              		.loc 1 143 0
 491 0006 9DF80030 		ldrb	r3, [sp]	@ zero_extendqisi2
 492              		.loc 1 144 0
 493 000a 019E     		ldr	r6, [sp, #4]
 494              		.loc 1 149 0
 495 000c 0F4D     		ldr	r5, .L36
 496              		.loc 1 145 0
 497 000e 43F02003 		orr	r3, r3, #32
 498 0012 28BF     		it	cs
 499 0014 0822     		movcs	r2, #8
 500              	.LVL39:
 501              		.loc 1 146 0
 502 0016 04AC     		add	r4, sp, #16
 503 0018 03F0EF03 		and	r3, r3, #239
 504 001c 62F30303 		bfi	r3, r2, #0, #4
 505 0020 04F8103D 		strb	r3, [r4, #-16]!
 506              		.loc 1 144 0
 507 0024 60F31C06 		bfi	r6, r0, #0, #29
 508              		.loc 1 147 0
 509 0028 02A8     		add	r0, sp, #8
 510              	.LVL40:
 511              		.loc 1 144 0
 512 002a 0196     		str	r6, [sp, #4]
 513              		.loc 1 147 0
ARM GAS  /tmp/ccjQGkoy.s 			page 10


 514 002c FFF7FEFF 		bl	memcpy
 515              	.LVL41:
 516              		.loc 1 149 0
 517 0030 2846     		mov	r0, r5
 518 0032 FFF7FEFF 		bl	chMtxLock
 519              	.LVL42:
 520              		.loc 1 150 0
 521 0036 2246     		mov	r2, r4
 522 0038 3223     		movs	r3, #50
 523 003a 0021     		movs	r1, #0
 524 003c 0448     		ldr	r0, .L36+4
 525 003e FFF7FEFF 		bl	canTransmit
 526              	.LVL43:
 527              		.loc 1 151 0
 528 0042 2846     		mov	r0, r5
 529 0044 FFF7FEFF 		bl	chMtxUnlock
 530              	.LVL44:
 531              		.loc 1 157 0
 532 0048 04B0     		add	sp, sp, #16
 533              		.cfi_def_cfa_offset 16
 534              		@ sp needed
 535 004a 70BD     		pop	{r4, r5, r6, pc}
 536              	.L37:
 537              		.align	2
 538              	.L36:
 539 004c 00000000 		.word	.LANCHOR9
 540 0050 00000000 		.word	CAND1
 541              		.cfi_endproc
 542              	.LFE258:
 543              		.size	comm_can_transmit_eid, .-comm_can_transmit_eid
 544              		.section	.text.cancom_status_thread,"ax",%progbits
 545              		.align	1
 546              		.p2align 4,,15
 547              		.syntax unified
 548              		.thumb
 549              		.thumb_func
 550              		.fpu fpv4-sp-d16
 551              		.type	cancom_status_thread, %function
 552              	cancom_status_thread:
 553              	.LFB290:
 554              		.loc 1 1055 0
 555              		.cfi_startproc
 556              		@ args = 0, pretend = 0, frame = 16
 557              		@ frame_needed = 0, uses_anonymous_args = 0
 558              	.LVL45:
 559 0000 30B5     		push	{r4, r5, lr}
 560              		.cfi_def_cfa_offset 12
 561              		.cfi_offset 4, -12
 562              		.cfi_offset 5, -8
 563              		.cfi_offset 14, -4
 564              	.LBB164:
 565              	.LBB165:
 566              		.loc 2 135 0
 567 0002 754B     		ldr	r3, .L50
 568 0004 754A     		ldr	r2, .L50+4
 569 0006 9B69     		ldr	r3, [r3, #24]
 570              	.LBE165:
ARM GAS  /tmp/ccjQGkoy.s 			page 11


 571              	.LBE164:
 572              		.loc 1 1055 0
 573 0008 2DED048B 		vpush.64	{d8, d9}
 574              		.cfi_def_cfa_offset 28
 575              		.cfi_offset 80, -28
 576              		.cfi_offset 81, -24
 577              		.cfi_offset 82, -20
 578              		.cfi_offset 83, -16
 579              	.LBB167:
 580              	.LBB168:
 581              		.loc 1 1091 0
 582 000c DFED748A 		vldr.32	s17, .L50+8
 583              	.LBE168:
 584              	.LBB169:
 585              		.loc 1 1103 0
 586 0010 DFED749A 		vldr.32	s19, .L50+12
 587              	.LBE169:
 588              	.LBB170:
 589              		.loc 1 1071 0
 590 0014 9FED749A 		vldr.32	s18, .L50+16
 591              	.LBE170:
 592              	.LBE167:
 593              	.LBB175:
 594              	.LBB166:
 595              		.loc 2 135 0
 596 0018 9A61     		str	r2, [r3, #24]
 597              	.LBE166:
 598              	.LBE175:
 599              		.loc 1 1055 0
 600 001a 85B0     		sub	sp, sp, #20
 601              		.cfi_def_cfa_offset 48
 602 001c 0FE0     		b	.L45
 603              	.LVL46:
 604              	.L41:
 605              	.LBB176:
 606              		.loc 1 1076 0
 607 001e 9A1E     		subs	r2, r3, #2
 608 0020 022A     		cmp	r2, #2
 609 0022 49D9     		bls	.L48
 610              	.LVL47:
 611              	.L42:
 612              		.loc 1 1087 0
 613 0024 033B     		subs	r3, r3, #3
 614 0026 012B     		cmp	r3, #1
 615 0028 6ED9     		bls	.L49
 616              	.L40:
 617              		.loc 1 1109 0
 618 002a 2369     		ldr	r3, [r4, #16]
 619 002c 42F21070 		movw	r0, #10000
 620 0030 B0FBF3F0 		udiv	r0, r0, r3
 621              	.LVL48:
 622              		.loc 1 1111 0
 623 0034 0028     		cmp	r0, #0
 624              	.LVL49:
 625              		.loc 1 1114 0
 626 0036 08BF     		it	eq
 627 0038 0120     		moveq	r0, #1
ARM GAS  /tmp/ccjQGkoy.s 			page 12


 628              	.LVL50:
 629 003a FFF7FEFF 		bl	chThdSleep
 630              	.LVL51:
 631              	.L45:
 632              		.loc 1 1060 0
 633 003e FFF7FEFF 		bl	app_get_configuration
 634              	.LVL52:
 635              		.loc 1 1062 0
 636 0042 C27D     		ldrb	r2, [r0, #23]	@ zero_extendqisi2
 637              		.loc 1 1060 0
 638 0044 0446     		mov	r4, r0
 639              	.LVL53:
 640              		.loc 1 1062 0
 641 0046 002A     		cmp	r2, #0
 642 0048 EFD1     		bne	.L40
 643              		.loc 1 1063 0
 644 004a 037B     		ldrb	r3, [r0, #12]	@ zero_extendqisi2
 645 004c 591E     		subs	r1, r3, #1
 646 004e 0329     		cmp	r1, #3
 647 0050 E5D8     		bhi	.L41
 648              	.LBB171:
 649              		.loc 1 1067 0
 650 0052 0192     		str	r2, [sp, #4]
 651              		.loc 1 1069 0
 652 0054 FFF7FEFF 		bl	mc_interface_get_rpm
 653              	.LVL54:
 654 0058 FDEEC07A 		vcvt.s32.f32	s15, s0
 655 005c 01AA     		add	r2, sp, #4
 656 005e 17EE901A 		vmov	r1, s15	@ int
 657 0062 02A8     		add	r0, sp, #8
 658 0064 FFF7FEFF 		bl	buffer_append_int32
 659              	.LVL55:
 660              		.loc 1 1070 0
 661 0068 FFF7FEFF 		bl	mc_interface_get_tot_current_filtered
 662              	.LVL56:
 663 006c F2EE047A 		vmov.f32	s15, #1.0e+1
 664 0070 20EE270A 		vmul.f32	s0, s0, s15
 665 0074 01AA     		add	r2, sp, #4
 666 0076 BDEEC00A 		vcvt.s32.f32	s0, s0
 667 007a 02A8     		add	r0, sp, #8
 668 007c 10EE103A 		vmov	r3, s0	@ int
 669 0080 19B2     		sxth	r1, r3
 670 0082 FFF7FEFF 		bl	buffer_append_int16
 671              	.LVL57:
 672              		.loc 1 1071 0
 673 0086 FFF7FEFF 		bl	mc_interface_get_duty_cycle_now
 674              	.LVL58:
 675 008a 20EE090A 		vmul.f32	s0, s0, s18
 676 008e 01AA     		add	r2, sp, #4
 677 0090 BDEEC00A 		vcvt.s32.f32	s0, s0
 678 0094 02A8     		add	r0, sp, #8
 679 0096 10EE103A 		vmov	r3, s0	@ int
 680 009a 19B2     		sxth	r1, r3
 681 009c FFF7FEFF 		bl	buffer_append_int16
 682              	.LVL59:
 683              		.loc 1 1072 0
 684 00a0 2078     		ldrb	r0, [r4]	@ zero_extendqisi2
ARM GAS  /tmp/ccjQGkoy.s 			page 13


 685 00a2 9DF80420 		ldrb	r2, [sp, #4]	@ zero_extendqisi2
 686 00a6 40F41060 		orr	r0, r0, #2304
 687 00aa 02A9     		add	r1, sp, #8
 688 00ac FFF7FEFF 		bl	comm_can_transmit_eid
 689              	.LVL60:
 690 00b0 237B     		ldrb	r3, [r4, #12]	@ zero_extendqisi2
 691              	.LBE171:
 692              		.loc 1 1076 0
 693 00b2 9A1E     		subs	r2, r3, #2
 694 00b4 022A     		cmp	r2, #2
 695 00b6 B5D8     		bhi	.L42
 696              	.L48:
 697              	.LBB172:
 698              		.loc 1 1079 0
 699 00b8 0025     		movs	r5, #0
 700              		.loc 1 1081 0
 701 00ba 2846     		mov	r0, r5
 702              		.loc 1 1079 0
 703 00bc 0195     		str	r5, [sp, #4]
 704              		.loc 1 1081 0
 705 00be FFF7FEFF 		bl	mc_interface_get_amp_hours
 706              	.LVL61:
 707 00c2 20EE280A 		vmul.f32	s0, s0, s17
 708 00c6 01AA     		add	r2, sp, #4
 709 00c8 FDEEC07A 		vcvt.s32.f32	s15, s0
 710 00cc 02A8     		add	r0, sp, #8
 711 00ce 17EE901A 		vmov	r1, s15	@ int
 712 00d2 FFF7FEFF 		bl	buffer_append_int32
 713              	.LVL62:
 714              		.loc 1 1082 0
 715 00d6 2846     		mov	r0, r5
 716 00d8 FFF7FEFF 		bl	mc_interface_get_amp_hours_charged
 717              	.LVL63:
 718 00dc 20EE280A 		vmul.f32	s0, s0, s17
 719 00e0 01AA     		add	r2, sp, #4
 720 00e2 FDEEC07A 		vcvt.s32.f32	s15, s0
 721 00e6 02A8     		add	r0, sp, #8
 722 00e8 17EE901A 		vmov	r1, s15	@ int
 723 00ec FFF7FEFF 		bl	buffer_append_int32
 724              	.LVL64:
 725              		.loc 1 1083 0
 726 00f0 2078     		ldrb	r0, [r4]	@ zero_extendqisi2
 727 00f2 9DF80420 		ldrb	r2, [sp, #4]	@ zero_extendqisi2
 728 00f6 40F46060 		orr	r0, r0, #3584
 729 00fa 02A9     		add	r1, sp, #8
 730 00fc FFF7FEFF 		bl	comm_can_transmit_eid
 731              	.LVL65:
 732 0100 237B     		ldrb	r3, [r4, #12]	@ zero_extendqisi2
 733              	.LBE172:
 734              		.loc 1 1087 0
 735 0102 033B     		subs	r3, r3, #3
 736 0104 012B     		cmp	r3, #1
 737 0106 90D8     		bhi	.L40
 738              	.L49:
 739              	.LBB173:
 740              		.loc 1 1089 0
 741 0108 0025     		movs	r5, #0
ARM GAS  /tmp/ccjQGkoy.s 			page 14


 742              		.loc 1 1091 0
 743 010a 2846     		mov	r0, r5
 744              		.loc 1 1089 0
 745 010c 0195     		str	r5, [sp, #4]
 746              		.loc 1 1091 0
 747 010e FFF7FEFF 		bl	mc_interface_get_watt_hours
 748              	.LVL66:
 749 0112 20EE280A 		vmul.f32	s0, s0, s17
 750 0116 01AA     		add	r2, sp, #4
 751 0118 FDEEC07A 		vcvt.s32.f32	s15, s0
 752 011c 02A8     		add	r0, sp, #8
 753 011e 17EE901A 		vmov	r1, s15	@ int
 754 0122 FFF7FEFF 		bl	buffer_append_int32
 755              	.LVL67:
 756              		.loc 1 1092 0
 757 0126 2846     		mov	r0, r5
 758 0128 FFF7FEFF 		bl	mc_interface_get_watt_hours_charged
 759              	.LVL68:
 760 012c 20EE280A 		vmul.f32	s0, s0, s17
 761 0130 01AA     		add	r2, sp, #4
 762 0132 FDEEC07A 		vcvt.s32.f32	s15, s0
 763 0136 02A8     		add	r0, sp, #8
 764 0138 17EE901A 		vmov	r1, s15	@ int
 765 013c FFF7FEFF 		bl	buffer_append_int32
 766              	.LVL69:
 767              		.loc 1 1093 0
 768 0140 2078     		ldrb	r0, [r4]	@ zero_extendqisi2
 769 0142 9DF80420 		ldrb	r2, [sp, #4]	@ zero_extendqisi2
 770 0146 40F47060 		orr	r0, r0, #3840
 771 014a 02A9     		add	r1, sp, #8
 772 014c FFF7FEFF 		bl	comm_can_transmit_eid
 773              	.LVL70:
 774              	.LBE173:
 775              		.loc 1 1097 0
 776 0150 237B     		ldrb	r3, [r4, #12]	@ zero_extendqisi2
 777 0152 042B     		cmp	r3, #4
 778 0154 7FF469AF 		bne	.L40
 779              	.LBB174:
 780              		.loc 1 1098 0
 781 0158 0195     		str	r5, [sp, #4]
 782              		.loc 1 1100 0
 783 015a FFF7FEFF 		bl	mc_interface_temp_fet_filtered
 784              	.LVL71:
 785 015e B2EE048A 		vmov.f32	s16, #1.0e+1
 786 0162 20EE080A 		vmul.f32	s0, s0, s16
 787 0166 01AA     		add	r2, sp, #4
 788 0168 BDEEC00A 		vcvt.s32.f32	s0, s0
 789 016c 02A8     		add	r0, sp, #8
 790 016e 10EE103A 		vmov	r3, s0	@ int
 791 0172 19B2     		sxth	r1, r3
 792 0174 FFF7FEFF 		bl	buffer_append_int16
 793              	.LVL72:
 794              		.loc 1 1101 0
 795 0178 FFF7FEFF 		bl	mc_interface_temp_motor_filtered
 796              	.LVL73:
 797 017c 20EE080A 		vmul.f32	s0, s0, s16
 798 0180 01AA     		add	r2, sp, #4
ARM GAS  /tmp/ccjQGkoy.s 			page 15


 799 0182 BDEEC00A 		vcvt.s32.f32	s0, s0
 800 0186 02A8     		add	r0, sp, #8
 801 0188 10EE103A 		vmov	r3, s0	@ int
 802 018c 19B2     		sxth	r1, r3
 803 018e FFF7FEFF 		bl	buffer_append_int16
 804              	.LVL74:
 805              		.loc 1 1102 0
 806 0192 FFF7FEFF 		bl	mc_interface_get_tot_current_in_filtered
 807              	.LVL75:
 808 0196 20EE080A 		vmul.f32	s0, s0, s16
 809 019a 01AA     		add	r2, sp, #4
 810 019c BDEEC00A 		vcvt.s32.f32	s0, s0
 811 01a0 02A8     		add	r0, sp, #8
 812 01a2 10EE103A 		vmov	r3, s0	@ int
 813 01a6 19B2     		sxth	r1, r3
 814 01a8 FFF7FEFF 		bl	buffer_append_int16
 815              	.LVL76:
 816              		.loc 1 1103 0
 817 01ac FFF7FEFF 		bl	mc_interface_get_pid_pos_now
 818              	.LVL77:
 819 01b0 20EE290A 		vmul.f32	s0, s0, s19
 820 01b4 01AA     		add	r2, sp, #4
 821 01b6 BDEEC00A 		vcvt.s32.f32	s0, s0
 822 01ba 02A8     		add	r0, sp, #8
 823 01bc 10EE103A 		vmov	r3, s0	@ int
 824 01c0 19B2     		sxth	r1, r3
 825 01c2 FFF7FEFF 		bl	buffer_append_int16
 826              	.LVL78:
 827              		.loc 1 1104 0
 828 01c6 2078     		ldrb	r0, [r4]	@ zero_extendqisi2
 829 01c8 9DF80420 		ldrb	r2, [sp, #4]	@ zero_extendqisi2
 830 01cc 40F48050 		orr	r0, r0, #4096
 831 01d0 02A9     		add	r1, sp, #8
 832 01d2 FFF7FEFF 		bl	comm_can_transmit_eid
 833              	.LVL79:
 834 01d6 28E7     		b	.L40
 835              	.L51:
 836              		.align	2
 837              	.L50:
 838 01d8 00000000 		.word	ch
 839 01dc 00000000 		.word	.LC1
 840 01e0 00401C46 		.word	1176256512
 841 01e4 00004842 		.word	1112014848
 842 01e8 00007A44 		.word	1148846080
 843              	.LBE174:
 844              	.LBE176:
 845              		.cfi_endproc
 846              	.LFE290:
 847              		.size	cancom_status_thread, .-cancom_status_thread
 848              		.section	.text.comm_can_transmit_sid,"ax",%progbits
 849              		.align	1
 850              		.p2align 4,,15
 851              		.global	comm_can_transmit_sid
 852              		.syntax unified
 853              		.thumb
 854              		.thumb_func
 855              		.fpu fpv4-sp-d16
ARM GAS  /tmp/ccjQGkoy.s 			page 16


 856              		.type	comm_can_transmit_sid, %function
 857              	comm_can_transmit_sid:
 858              	.LFB259:
 859              		.loc 1 159 0
 860              		.cfi_startproc
 861              		@ args = 0, pretend = 0, frame = 16
 862              		@ frame_needed = 0, uses_anonymous_args = 0
 863              	.LVL80:
 864 0000 70B5     		push	{r4, r5, r6, lr}
 865              		.cfi_def_cfa_offset 16
 866              		.cfi_offset 4, -16
 867              		.cfi_offset 5, -12
 868              		.cfi_offset 6, -8
 869              		.cfi_offset 14, -4
 870 0002 84B0     		sub	sp, sp, #16
 871              		.cfi_def_cfa_offset 32
 872 0004 082A     		cmp	r2, #8
 873              		.loc 1 166 0
 874 0006 9DF80030 		ldrb	r3, [sp]	@ zero_extendqisi2
 875              		.loc 1 167 0
 876 000a BDF80460 		ldrh	r6, [sp, #4]
 877              		.loc 1 172 0
 878 000e 0F4D     		ldr	r5, .L54
 879 0010 28BF     		it	cs
 880 0012 0822     		movcs	r2, #8
 881              	.LVL81:
 882              		.loc 1 169 0
 883 0014 04AC     		add	r4, sp, #16
 884 0016 03F0CF03 		and	r3, r3, #207
 885 001a 62F30303 		bfi	r3, r2, #0, #4
 886 001e 04F8103D 		strb	r3, [r4, #-16]!
 887              		.loc 1 167 0
 888 0022 60F30A06 		bfi	r6, r0, #0, #11
 889              		.loc 1 170 0
 890 0026 02A8     		add	r0, sp, #8
 891              	.LVL82:
 892              		.loc 1 167 0
 893 0028 ADF80460 		strh	r6, [sp, #4]	@ movhi
 894              		.loc 1 170 0
 895 002c FFF7FEFF 		bl	memcpy
 896              	.LVL83:
 897              		.loc 1 172 0
 898 0030 2846     		mov	r0, r5
 899 0032 FFF7FEFF 		bl	chMtxLock
 900              	.LVL84:
 901              		.loc 1 173 0
 902 0036 2246     		mov	r2, r4
 903 0038 3223     		movs	r3, #50
 904 003a 0021     		movs	r1, #0
 905 003c 0448     		ldr	r0, .L54+4
 906 003e FFF7FEFF 		bl	canTransmit
 907              	.LVL85:
 908              		.loc 1 174 0
 909 0042 2846     		mov	r0, r5
 910 0044 FFF7FEFF 		bl	chMtxUnlock
 911              	.LVL86:
 912              		.loc 1 180 0
ARM GAS  /tmp/ccjQGkoy.s 			page 17


 913 0048 04B0     		add	sp, sp, #16
 914              		.cfi_def_cfa_offset 16
 915              		@ sp needed
 916 004a 70BD     		pop	{r4, r5, r6, pc}
 917              	.L55:
 918              		.align	2
 919              	.L54:
 920 004c 00000000 		.word	.LANCHOR9
 921 0050 00000000 		.word	CAND1
 922              		.cfi_endproc
 923              	.LFE259:
 924              		.size	comm_can_transmit_sid, .-comm_can_transmit_sid
 925              		.section	.text.comm_can_set_sid_rx_callback,"ax",%progbits
 926              		.align	1
 927              		.p2align 4,,15
 928              		.global	comm_can_set_sid_rx_callback
 929              		.syntax unified
 930              		.thumb
 931              		.thumb_func
 932              		.fpu fpv4-sp-d16
 933              		.type	comm_can_set_sid_rx_callback, %function
 934              	comm_can_set_sid_rx_callback:
 935              	.LFB260:
 936              		.loc 1 188 0
 937              		.cfi_startproc
 938              		@ args = 0, pretend = 0, frame = 0
 939              		@ frame_needed = 0, uses_anonymous_args = 0
 940              		@ link register save eliminated.
 941              	.LVL87:
 942              		.loc 1 189 0
 943 0000 014B     		ldr	r3, .L57
 944 0002 1860     		str	r0, [r3]
 945              		.loc 1 190 0
 946 0004 7047     		bx	lr
 947              	.L58:
 948 0006 00BF     		.align	2
 949              	.L57:
 950 0008 00000000 		.word	.LANCHOR13
 951              		.cfi_endproc
 952              	.LFE260:
 953              		.size	comm_can_set_sid_rx_callback, .-comm_can_set_sid_rx_callback
 954              		.section	.text.comm_can_send_buffer,"ax",%progbits
 955              		.align	1
 956              		.p2align 4,,15
 957              		.global	comm_can_send_buffer
 958              		.syntax unified
 959              		.thumb
 960              		.thumb_func
 961              		.fpu fpv4-sp-d16
 962              		.type	comm_can_send_buffer, %function
 963              	comm_can_send_buffer:
 964              	.LFB261:
 965              		.loc 1 212 0
 966              		.cfi_startproc
 967              		@ args = 0, pretend = 0, frame = 24
 968              		@ frame_needed = 0, uses_anonymous_args = 0
 969              	.LVL88:
ARM GAS  /tmp/ccjQGkoy.s 			page 18


 970 0000 2DE9F04F 		push	{r4, r5, r6, r7, r8, r9, r10, fp, lr}
 971              		.cfi_def_cfa_offset 36
 972              		.cfi_offset 4, -36
 973              		.cfi_offset 5, -32
 974              		.cfi_offset 6, -28
 975              		.cfi_offset 7, -24
 976              		.cfi_offset 8, -20
 977              		.cfi_offset 9, -16
 978              		.cfi_offset 10, -12
 979              		.cfi_offset 11, -8
 980              		.cfi_offset 14, -4
 981 0004 87B0     		sub	sp, sp, #28
 982              		.cfi_def_cfa_offset 64
 983              		.loc 1 215 0
 984 0006 062A     		cmp	r2, #6
 985              		.loc 1 212 0
 986 0008 1546     		mov	r5, r2
 987 000a 8246     		mov	r10, r0
 988 000c 0E46     		mov	r6, r1
 989 000e 0193     		str	r3, [sp, #4]
 990              		.loc 1 215 0
 991 0010 45D9     		bls	.L60
 992 0012 D3B2     		uxtb	r3, r2
 993              	.LVL89:
 994 0014 40F4A067 		orr	r7, r0, #1280
 995 0018 0293     		str	r3, [sp, #8]
 996              	.LBB187:
 997              	.LBB188:
 998              	.LBB189:
 999              		.loc 1 224 0
 1000 001a 0021     		movs	r1, #0
 1001              	.LVL90:
 1002              	.LBB190:
 1003              	.LBB191:
 1004              		.loc 1 226 0
 1005 001c 40F20318 		movw	r8, #259
 1006 0020 01E0     		b	.L61
 1007              	.LVL91:
 1008              	.L66:
 1009 0022 4445     		cmp	r4, r8
 1010 0024 53D0     		beq	.L63
 1011              	.LVL92:
 1012              	.L61:
 1013              		.loc 1 230 0
 1014 0026 CC1D     		adds	r4, r1, #7
 1015              	.LVL93:
 1016 0028 5FFA84F9 		uxtb	r9, r4
 1017              		.loc 1 233 0
 1018 002c A9F10703 		sub	r3, r9, #7
 1019              		.loc 1 235 0
 1020 0030 A542     		cmp	r5, r4
 1021 0032 3144     		add	r1, r1, r6
 1022              		.loc 1 233 0
 1023 0034 8DF81030 		strb	r3, [sp, #16]
 1024              		.loc 1 235 0
 1025 0038 7DD3     		bcc	.L64
 1026              		.loc 1 236 0
ARM GAS  /tmp/ccjQGkoy.s 			page 19


 1027 003a 8A88     		ldrh	r2, [r1, #4]	@ unaligned
 1028 003c 0868     		ldr	r0, [r1]	@ unaligned
 1029 003e 8B79     		ldrb	r3, [r1, #6]	@ zero_extendqisi2
 1030 0040 ADF81520 		strh	r2, [sp, #21]	@ unaligned
 1031 0044 CDF81100 		str	r0, [sp, #17]	@ unaligned
 1032 0048 8DF81730 		strb	r3, [sp, #23]
 1033 004c 0822     		movs	r2, #8
 1034              	.LVL94:
 1035              	.L65:
 1036              		.loc 1 242 0
 1037 004e 04A9     		add	r1, sp, #16
 1038 0050 3846     		mov	r0, r7
 1039 0052 FFF7FEFF 		bl	comm_can_transmit_eid
 1040              	.LVL95:
 1041              	.LBE191:
 1042              		.loc 1 225 0
 1043 0056 A542     		cmp	r5, r4
 1044 0058 2146     		mov	r1, r4
 1045 005a E2D8     		bhi	.L66
 1046              	.LVL96:
 1047              	.L67:
 1048              	.LBE190:
 1049              		.loc 1 263 0
 1050 005c FFF7FEFF 		bl	app_get_configuration
 1051              	.LVL97:
 1052              		.loc 1 264 0
 1053 0060 019A     		ldr	r2, [sp, #4]
 1054              		.loc 1 263 0
 1055 0062 0378     		ldrb	r3, [r0]	@ zero_extendqisi2
 1056 0064 8DF81030 		strb	r3, [sp, #16]
 1057              	.LVL98:
 1058              		.loc 1 267 0
 1059 0068 2946     		mov	r1, r5
 1060              		.loc 1 265 0
 1061 006a 2B0A     		lsrs	r3, r5, #8
 1062              		.loc 1 264 0
 1063 006c 8DF81120 		strb	r2, [sp, #17]
 1064              	.LVL99:
 1065              		.loc 1 267 0
 1066 0070 3046     		mov	r0, r6
 1067              		.loc 1 266 0
 1068 0072 029A     		ldr	r2, [sp, #8]
 1069 0074 8DF81320 		strb	r2, [sp, #19]
 1070              		.loc 1 265 0
 1071 0078 8DF81230 		strb	r3, [sp, #18]
 1072              	.LVL100:
 1073              		.loc 1 267 0
 1074 007c FFF7FEFF 		bl	crc16
 1075              	.LVL101:
 1076              		.loc 1 271 0
 1077 0080 04A9     		add	r1, sp, #16
 1078              		.loc 1 267 0
 1079 0082 0346     		mov	r3, r0
 1080              	.LVL102:
 1081              		.loc 1 268 0
 1082 0084 040A     		lsrs	r4, r0, #8
 1083              		.loc 1 271 0
ARM GAS  /tmp/ccjQGkoy.s 			page 20


 1084 0086 0622     		movs	r2, #6
 1085 0088 4AF4E060 		orr	r0, r10, #1792
 1086              	.LVL103:
 1087              		.loc 1 269 0
 1088 008c 8DF81530 		strb	r3, [sp, #21]
 1089              		.loc 1 268 0
 1090 0090 8DF81440 		strb	r4, [sp, #20]
 1091              	.LVL104:
 1092              		.loc 1 271 0
 1093 0094 FFF7FEFF 		bl	comm_can_transmit_eid
 1094              	.LVL105:
 1095              	.LBE189:
 1096              	.LBE188:
 1097              	.LBE187:
 1098              		.loc 1 274 0
 1099 0098 07B0     		add	sp, sp, #28
 1100              		.cfi_remember_state
 1101              		.cfi_def_cfa_offset 36
 1102              		@ sp needed
 1103 009a BDE8F08F 		pop	{r4, r5, r6, r7, r8, r9, r10, fp, pc}
 1104              	.LVL106:
 1105              	.L60:
 1106              		.cfi_restore_state
 1107              	.LBB199:
 1108              		.loc 1 217 0
 1109 009e FFF7FEFF 		bl	app_get_configuration
 1110              	.LVL107:
 1111 00a2 0378     		ldrb	r3, [r0]	@ zero_extendqisi2
 1112 00a4 8DF81030 		strb	r3, [sp, #16]
 1113              	.LVL108:
 1114              		.loc 1 219 0
 1115 00a8 3146     		mov	r1, r6
 1116              		.loc 1 218 0
 1117 00aa 019B     		ldr	r3, [sp, #4]
 1118 00ac 8DF81130 		strb	r3, [sp, #17]
 1119              		.loc 1 219 0
 1120 00b0 2A46     		mov	r2, r5
 1121 00b2 0DF11200 		add	r0, sp, #18
 1122 00b6 FFF7FEFF 		bl	memcpy
 1123              	.LVL109:
 1124              		.loc 1 220 0
 1125 00ba AA1C     		adds	r2, r5, #2
 1126              	.LVL110:
 1127              		.loc 1 221 0
 1128 00bc D2B2     		uxtb	r2, r2
 1129              	.LVL111:
 1130 00be 4AF40060 		orr	r0, r10, #2048
 1131 00c2 04A9     		add	r1, sp, #16
 1132 00c4 FFF7FEFF 		bl	comm_can_transmit_eid
 1133              	.LVL112:
 1134              	.LBE199:
 1135              		.loc 1 274 0
 1136 00c8 07B0     		add	sp, sp, #28
 1137              		.cfi_remember_state
 1138              		.cfi_def_cfa_offset 36
 1139              		@ sp needed
 1140 00ca BDE8F08F 		pop	{r4, r5, r6, r7, r8, r9, r10, fp, pc}
ARM GAS  /tmp/ccjQGkoy.s 			page 21


 1141              	.LVL113:
 1142              	.L63:
 1143              		.cfi_restore_state
 1144              	.LBB200:
 1145              	.LBB198:
 1146              	.LBB197:
 1147              	.LBB193:
 1148              	.LBB194:
 1149              		.loc 1 255 0
 1150 00ce 029B     		ldr	r3, [sp, #8]
 1151 00d0 0396     		str	r6, [sp, #12]
 1152 00d2 9F1D     		adds	r7, r3, #6
 1153 00d4 0833     		adds	r3, r3, #8
 1154 00d6 4AF4C069 		orr	r9, r10, #1536
 1155 00da A6F10608 		sub	r8, r6, #6
 1156 00de 9B46     		mov	fp, r3
 1157 00e0 0CE0     		b	.L70
 1158              	.LVL114:
 1159              	.L74:
 1160              		.loc 1 252 0
 1161 00e2 0A68     		ldr	r2, [r1]	@ unaligned
 1162 00e4 8B88     		ldrh	r3, [r1, #4]	@ unaligned
 1163 00e6 CDF81220 		str	r2, [sp, #18]	@ unaligned
 1164              		.loc 1 258 0
 1165 00ea 04A9     		add	r1, sp, #16
 1166              		.loc 1 252 0
 1167 00ec 0822     		movs	r2, #8
 1168              		.loc 1 258 0
 1169 00ee 4846     		mov	r0, r9
 1170              		.loc 1 252 0
 1171 00f0 ADF81630 		strh	r3, [sp, #22]	@ unaligned
 1172              		.loc 1 258 0
 1173 00f4 FFF7FEFF 		bl	comm_can_transmit_eid
 1174              	.LVL115:
 1175              	.LBE194:
 1176              		.loc 1 246 0
 1177 00f8 A542     		cmp	r5, r4
 1178 00fa 1AD9     		bls	.L73
 1179              	.LVL116:
 1180              	.L70:
 1181              	.LBB195:
 1182              		.loc 1 248 0
 1183 00fc 220A     		lsrs	r2, r4, #8
 1184              		.loc 1 249 0
 1185 00fe 8DF81140 		strb	r4, [sp, #17]
 1186              		.loc 1 251 0
 1187 0102 0634     		adds	r4, r4, #6
 1188              	.LVL117:
 1189 0104 E6B2     		uxtb	r6, r4
 1190              	.LVL118:
 1191 0106 A542     		cmp	r5, r4
 1192              		.loc 1 248 0
 1193 0108 8DF81020 		strb	r2, [sp, #16]
 1194 010c 08EB0401 		add	r1, r8, r4
 1195              		.loc 1 255 0
 1196 0110 A7EB0602 		sub	r2, r7, r6
 1197              		.loc 1 251 0
ARM GAS  /tmp/ccjQGkoy.s 			page 22


 1198 0114 E5D2     		bcs	.L74
 1199              		.loc 1 255 0
 1200 0116 D2B2     		uxtb	r2, r2
 1201 0118 0DF11200 		add	r0, sp, #18
 1202 011c FFF7FEFF 		bl	memcpy
 1203              	.LVL119:
 1204 0120 ABEB0602 		sub	r2, fp, r6
 1205 0124 D2B2     		uxtb	r2, r2
 1206              		.loc 1 258 0
 1207 0126 04A9     		add	r1, sp, #16
 1208 0128 4846     		mov	r0, r9
 1209 012a FFF7FEFF 		bl	comm_can_transmit_eid
 1210              	.LVL120:
 1211              	.LBE195:
 1212              		.loc 1 246 0
 1213 012e A542     		cmp	r5, r4
 1214 0130 E4D8     		bhi	.L70
 1215              	.L73:
 1216 0132 039E     		ldr	r6, [sp, #12]
 1217 0134 92E7     		b	.L67
 1218              	.LVL121:
 1219              	.L64:
 1220              	.LBE193:
 1221              	.LBB196:
 1222              	.LBB192:
 1223              		.loc 1 239 0
 1224 0136 029B     		ldr	r3, [sp, #8]
 1225 0138 C9F10702 		rsb	r2, r9, #7
 1226 013c 1A44     		add	r2, r2, r3
 1227 013e D2B2     		uxtb	r2, r2
 1228 0140 0DF11100 		add	r0, sp, #17
 1229 0144 FFF7FEFF 		bl	memcpy
 1230              	.LVL122:
 1231 0148 029B     		ldr	r3, [sp, #8]
 1232 014a C9F10802 		rsb	r2, r9, #8
 1233 014e 1A44     		add	r2, r2, r3
 1234 0150 D2B2     		uxtb	r2, r2
 1235 0152 7CE7     		b	.L65
 1236              	.LBE192:
 1237              	.LBE196:
 1238              	.LBE197:
 1239              	.LBE198:
 1240              	.LBE200:
 1241              		.cfi_endproc
 1242              	.LFE261:
 1243              		.size	comm_can_send_buffer, .-comm_can_send_buffer
 1244              		.section	.text.send_packet_wrapper,"ax",%progbits
 1245              		.align	1
 1246              		.p2align 4,,15
 1247              		.syntax unified
 1248              		.thumb
 1249              		.thumb_func
 1250              		.fpu fpv4-sp-d16
 1251              		.type	send_packet_wrapper, %function
 1252              	send_packet_wrapper:
 1253              	.LFB291:
 1254              		.loc 1 1118 0
ARM GAS  /tmp/ccjQGkoy.s 			page 23


 1255              		.cfi_startproc
 1256              		@ args = 0, pretend = 0, frame = 0
 1257              		@ frame_needed = 0, uses_anonymous_args = 0
 1258              		@ link register save eliminated.
 1259              	.LVL123:
 1260 0000 10B4     		push	{r4}
 1261              		.cfi_def_cfa_offset 4
 1262              		.cfi_offset 4, -4
 1263              		.loc 1 1119 0
 1264 0002 044C     		ldr	r4, .L77
 1265 0004 0A46     		mov	r2, r1
 1266 0006 0123     		movs	r3, #1
 1267 0008 0146     		mov	r1, r0
 1268              	.LVL124:
 1269 000a 2078     		ldrb	r0, [r4]	@ zero_extendqisi2
 1270              	.LVL125:
 1271              		.loc 1 1120 0
 1272 000c 5DF8044B 		ldr	r4, [sp], #4
 1273              		.cfi_restore 4
 1274              		.cfi_def_cfa_offset 0
 1275              		.loc 1 1119 0
 1276 0010 FFF7FEBF 		b	comm_can_send_buffer
 1277              	.LVL126:
 1278              	.L78:
 1279              		.align	2
 1280              	.L77:
 1281 0014 00000000 		.word	.LANCHOR14
 1282              		.cfi_endproc
 1283              	.LFE291:
 1284              		.size	send_packet_wrapper, .-send_packet_wrapper
 1285              		.section	.text.comm_can_set_duty,"ax",%progbits
 1286              		.align	1
 1287              		.p2align 4,,15
 1288              		.global	comm_can_set_duty
 1289              		.syntax unified
 1290              		.thumb
 1291              		.thumb_func
 1292              		.fpu fpv4-sp-d16
 1293              		.type	comm_can_set_duty, %function
 1294              	comm_can_set_duty:
 1295              	.LFB262:
 1296              		.loc 1 276 0
 1297              		.cfi_startproc
 1298              		@ args = 0, pretend = 0, frame = 8
 1299              		@ frame_needed = 0, uses_anonymous_args = 0
 1300              	.LVL127:
 1301 0000 10B5     		push	{r4, lr}
 1302              		.cfi_def_cfa_offset 8
 1303              		.cfi_offset 4, -8
 1304              		.cfi_offset 14, -4
 1305              		.loc 1 279 0
 1306 0002 DFED0C7A 		vldr.32	s15, .L81
 1307 0006 20EE270A 		vmul.f32	s0, s0, s15
 1308              	.LVL128:
 1309              		.loc 1 276 0
 1310 000a 82B0     		sub	sp, sp, #8
 1311              		.cfi_def_cfa_offset 16
ARM GAS  /tmp/ccjQGkoy.s 			page 24


 1312              		.loc 1 277 0
 1313 000c 02AA     		add	r2, sp, #8
 1314              		.loc 1 279 0
 1315 000e FDEEC07A 		vcvt.s32.f32	s15, s0
 1316              		.loc 1 277 0
 1317 0012 0023     		movs	r3, #0
 1318 0014 42F8083D 		str	r3, [r2, #-8]!
 1319              		.loc 1 279 0
 1320 0018 17EE901A 		vmov	r1, s15	@ int
 1321              		.loc 1 276 0
 1322 001c 0446     		mov	r4, r0
 1323              		.loc 1 279 0
 1324 001e 01A8     		add	r0, sp, #4
 1325              	.LVL129:
 1326 0020 FFF7FEFF 		bl	buffer_append_int32
 1327              	.LVL130:
 1328              		.loc 1 280 0
 1329 0024 01A9     		add	r1, sp, #4
 1330 0026 2046     		mov	r0, r4
 1331 0028 9DF80020 		ldrb	r2, [sp]	@ zero_extendqisi2
 1332 002c FFF7FEFF 		bl	comm_can_transmit_eid
 1333              	.LVL131:
 1334              		.loc 1 282 0
 1335 0030 02B0     		add	sp, sp, #8
 1336              		.cfi_def_cfa_offset 8
 1337              		@ sp needed
 1338 0032 10BD     		pop	{r4, pc}
 1339              	.L82:
 1340              		.align	2
 1341              	.L81:
 1342 0034 0050C347 		.word	1203982336
 1343              		.cfi_endproc
 1344              	.LFE262:
 1345              		.size	comm_can_set_duty, .-comm_can_set_duty
 1346              		.section	.text.comm_can_set_current,"ax",%progbits
 1347              		.align	1
 1348              		.p2align 4,,15
 1349              		.global	comm_can_set_current
 1350              		.syntax unified
 1351              		.thumb
 1352              		.thumb_func
 1353              		.fpu fpv4-sp-d16
 1354              		.type	comm_can_set_current, %function
 1355              	comm_can_set_current:
 1356              	.LFB263:
 1357              		.loc 1 284 0
 1358              		.cfi_startproc
 1359              		@ args = 0, pretend = 0, frame = 8
 1360              		@ frame_needed = 0, uses_anonymous_args = 0
 1361              	.LVL132:
 1362 0000 10B5     		push	{r4, lr}
 1363              		.cfi_def_cfa_offset 8
 1364              		.cfi_offset 4, -8
 1365              		.cfi_offset 14, -4
 1366              		.loc 1 287 0
 1367 0002 DFED0D7A 		vldr.32	s15, .L85
 1368 0006 20EE270A 		vmul.f32	s0, s0, s15
ARM GAS  /tmp/ccjQGkoy.s 			page 25


 1369              	.LVL133:
 1370              		.loc 1 284 0
 1371 000a 82B0     		sub	sp, sp, #8
 1372              		.cfi_def_cfa_offset 16
 1373              		.loc 1 285 0
 1374 000c 02AA     		add	r2, sp, #8
 1375              		.loc 1 287 0
 1376 000e FDEEC07A 		vcvt.s32.f32	s15, s0
 1377              		.loc 1 285 0
 1378 0012 0023     		movs	r3, #0
 1379 0014 42F8083D 		str	r3, [r2, #-8]!
 1380              		.loc 1 287 0
 1381 0018 17EE901A 		vmov	r1, s15	@ int
 1382              		.loc 1 284 0
 1383 001c 0446     		mov	r4, r0
 1384              		.loc 1 287 0
 1385 001e 01A8     		add	r0, sp, #4
 1386              	.LVL134:
 1387 0020 FFF7FEFF 		bl	buffer_append_int32
 1388              	.LVL135:
 1389              		.loc 1 288 0
 1390 0024 01A9     		add	r1, sp, #4
 1391 0026 44F48070 		orr	r0, r4, #256
 1392 002a 9DF80020 		ldrb	r2, [sp]	@ zero_extendqisi2
 1393 002e FFF7FEFF 		bl	comm_can_transmit_eid
 1394              	.LVL136:
 1395              		.loc 1 290 0
 1396 0032 02B0     		add	sp, sp, #8
 1397              		.cfi_def_cfa_offset 8
 1398              		@ sp needed
 1399 0034 10BD     		pop	{r4, pc}
 1400              	.L86:
 1401 0036 00BF     		.align	2
 1402              	.L85:
 1403 0038 00007A44 		.word	1148846080
 1404              		.cfi_endproc
 1405              	.LFE263:
 1406              		.size	comm_can_set_current, .-comm_can_set_current
 1407              		.section	.text.comm_can_set_current_brake,"ax",%progbits
 1408              		.align	1
 1409              		.p2align 4,,15
 1410              		.global	comm_can_set_current_brake
 1411              		.syntax unified
 1412              		.thumb
 1413              		.thumb_func
 1414              		.fpu fpv4-sp-d16
 1415              		.type	comm_can_set_current_brake, %function
 1416              	comm_can_set_current_brake:
 1417              	.LFB264:
 1418              		.loc 1 292 0
 1419              		.cfi_startproc
 1420              		@ args = 0, pretend = 0, frame = 8
 1421              		@ frame_needed = 0, uses_anonymous_args = 0
 1422              	.LVL137:
 1423 0000 10B5     		push	{r4, lr}
 1424              		.cfi_def_cfa_offset 8
 1425              		.cfi_offset 4, -8
ARM GAS  /tmp/ccjQGkoy.s 			page 26


 1426              		.cfi_offset 14, -4
 1427              		.loc 1 295 0
 1428 0002 DFED0D7A 		vldr.32	s15, .L89
 1429 0006 20EE270A 		vmul.f32	s0, s0, s15
 1430              	.LVL138:
 1431              		.loc 1 292 0
 1432 000a 82B0     		sub	sp, sp, #8
 1433              		.cfi_def_cfa_offset 16
 1434              		.loc 1 293 0
 1435 000c 02AA     		add	r2, sp, #8
 1436              		.loc 1 295 0
 1437 000e FDEEC07A 		vcvt.s32.f32	s15, s0
 1438              		.loc 1 293 0
 1439 0012 0023     		movs	r3, #0
 1440 0014 42F8083D 		str	r3, [r2, #-8]!
 1441              		.loc 1 295 0
 1442 0018 17EE901A 		vmov	r1, s15	@ int
 1443              		.loc 1 292 0
 1444 001c 0446     		mov	r4, r0
 1445              		.loc 1 295 0
 1446 001e 01A8     		add	r0, sp, #4
 1447              	.LVL139:
 1448 0020 FFF7FEFF 		bl	buffer_append_int32
 1449              	.LVL140:
 1450              		.loc 1 296 0
 1451 0024 01A9     		add	r1, sp, #4
 1452 0026 44F40070 		orr	r0, r4, #512
 1453 002a 9DF80020 		ldrb	r2, [sp]	@ zero_extendqisi2
 1454 002e FFF7FEFF 		bl	comm_can_transmit_eid
 1455              	.LVL141:
 1456              		.loc 1 298 0
 1457 0032 02B0     		add	sp, sp, #8
 1458              		.cfi_def_cfa_offset 8
 1459              		@ sp needed
 1460 0034 10BD     		pop	{r4, pc}
 1461              	.L90:
 1462 0036 00BF     		.align	2
 1463              	.L89:
 1464 0038 00007A44 		.word	1148846080
 1465              		.cfi_endproc
 1466              	.LFE264:
 1467              		.size	comm_can_set_current_brake, .-comm_can_set_current_brake
 1468              		.section	.text.comm_can_set_rpm,"ax",%progbits
 1469              		.align	1
 1470              		.p2align 4,,15
 1471              		.global	comm_can_set_rpm
 1472              		.syntax unified
 1473              		.thumb
 1474              		.thumb_func
 1475              		.fpu fpv4-sp-d16
 1476              		.type	comm_can_set_rpm, %function
 1477              	comm_can_set_rpm:
 1478              	.LFB265:
 1479              		.loc 1 300 0
 1480              		.cfi_startproc
 1481              		@ args = 0, pretend = 0, frame = 8
 1482              		@ frame_needed = 0, uses_anonymous_args = 0
ARM GAS  /tmp/ccjQGkoy.s 			page 27


 1483              	.LVL142:
 1484 0000 10B5     		push	{r4, lr}
 1485              		.cfi_def_cfa_offset 8
 1486              		.cfi_offset 4, -8
 1487              		.cfi_offset 14, -4
 1488 0002 82B0     		sub	sp, sp, #8
 1489              		.cfi_def_cfa_offset 16
 1490              		.loc 1 301 0
 1491 0004 02AA     		add	r2, sp, #8
 1492              		.loc 1 303 0
 1493 0006 FDEEC07A 		vcvt.s32.f32	s15, s0
 1494              		.loc 1 301 0
 1495 000a 0023     		movs	r3, #0
 1496 000c 42F8083D 		str	r3, [r2, #-8]!
 1497              		.loc 1 303 0
 1498 0010 17EE901A 		vmov	r1, s15	@ int
 1499              		.loc 1 300 0
 1500 0014 0446     		mov	r4, r0
 1501              		.loc 1 303 0
 1502 0016 01A8     		add	r0, sp, #4
 1503              	.LVL143:
 1504 0018 FFF7FEFF 		bl	buffer_append_int32
 1505              	.LVL144:
 1506              		.loc 1 304 0
 1507 001c 01A9     		add	r1, sp, #4
 1508 001e 44F44070 		orr	r0, r4, #768
 1509 0022 9DF80020 		ldrb	r2, [sp]	@ zero_extendqisi2
 1510 0026 FFF7FEFF 		bl	comm_can_transmit_eid
 1511              	.LVL145:
 1512              		.loc 1 306 0
 1513 002a 02B0     		add	sp, sp, #8
 1514              		.cfi_def_cfa_offset 8
 1515              		@ sp needed
 1516 002c 10BD     		pop	{r4, pc}
 1517              		.cfi_endproc
 1518              	.LFE265:
 1519              		.size	comm_can_set_rpm, .-comm_can_set_rpm
 1520 002e 00BF     		.section	.text.comm_can_set_pos,"ax",%progbits
 1521              		.align	1
 1522              		.p2align 4,,15
 1523              		.global	comm_can_set_pos
 1524              		.syntax unified
 1525              		.thumb
 1526              		.thumb_func
 1527              		.fpu fpv4-sp-d16
 1528              		.type	comm_can_set_pos, %function
 1529              	comm_can_set_pos:
 1530              	.LFB266:
 1531              		.loc 1 308 0
 1532              		.cfi_startproc
 1533              		@ args = 0, pretend = 0, frame = 8
 1534              		@ frame_needed = 0, uses_anonymous_args = 0
 1535              	.LVL146:
 1536 0000 10B5     		push	{r4, lr}
 1537              		.cfi_def_cfa_offset 8
 1538              		.cfi_offset 4, -8
 1539              		.cfi_offset 14, -4
ARM GAS  /tmp/ccjQGkoy.s 			page 28


 1540              		.loc 1 311 0
 1541 0002 DFED0D7A 		vldr.32	s15, .L95
 1542 0006 20EE270A 		vmul.f32	s0, s0, s15
 1543              	.LVL147:
 1544              		.loc 1 308 0
 1545 000a 82B0     		sub	sp, sp, #8
 1546              		.cfi_def_cfa_offset 16
 1547              		.loc 1 309 0
 1548 000c 02AA     		add	r2, sp, #8
 1549              		.loc 1 311 0
 1550 000e FDEEC07A 		vcvt.s32.f32	s15, s0
 1551              		.loc 1 309 0
 1552 0012 0023     		movs	r3, #0
 1553 0014 42F8083D 		str	r3, [r2, #-8]!
 1554              		.loc 1 311 0
 1555 0018 17EE901A 		vmov	r1, s15	@ int
 1556              		.loc 1 308 0
 1557 001c 0446     		mov	r4, r0
 1558              		.loc 1 311 0
 1559 001e 01A8     		add	r0, sp, #4
 1560              	.LVL148:
 1561 0020 FFF7FEFF 		bl	buffer_append_int32
 1562              	.LVL149:
 1563              		.loc 1 312 0
 1564 0024 01A9     		add	r1, sp, #4
 1565 0026 44F48060 		orr	r0, r4, #1024
 1566 002a 9DF80020 		ldrb	r2, [sp]	@ zero_extendqisi2
 1567 002e FFF7FEFF 		bl	comm_can_transmit_eid
 1568              	.LVL150:
 1569              		.loc 1 314 0
 1570 0032 02B0     		add	sp, sp, #8
 1571              		.cfi_def_cfa_offset 8
 1572              		@ sp needed
 1573 0034 10BD     		pop	{r4, pc}
 1574              	.L96:
 1575 0036 00BF     		.align	2
 1576              	.L95:
 1577 0038 00247449 		.word	1232348160
 1578              		.cfi_endproc
 1579              	.LFE266:
 1580              		.size	comm_can_set_pos, .-comm_can_set_pos
 1581              		.section	.text.comm_can_set_current_rel,"ax",%progbits
 1582              		.align	1
 1583              		.p2align 4,,15
 1584              		.global	comm_can_set_current_rel
 1585              		.syntax unified
 1586              		.thumb
 1587              		.thumb_func
 1588              		.fpu fpv4-sp-d16
 1589              		.type	comm_can_set_current_rel, %function
 1590              	comm_can_set_current_rel:
 1591              	.LFB267:
 1592              		.loc 1 325 0
 1593              		.cfi_startproc
 1594              		@ args = 0, pretend = 0, frame = 8
 1595              		@ frame_needed = 0, uses_anonymous_args = 0
 1596              	.LVL151:
ARM GAS  /tmp/ccjQGkoy.s 			page 29


 1597 0000 10B5     		push	{r4, lr}
 1598              		.cfi_def_cfa_offset 8
 1599              		.cfi_offset 4, -8
 1600              		.cfi_offset 14, -4
 1601 0002 82B0     		sub	sp, sp, #8
 1602              		.cfi_def_cfa_offset 16
 1603              		.loc 1 326 0
 1604 0004 02A9     		add	r1, sp, #8
 1605 0006 0023     		movs	r3, #0
 1606 0008 41F8083D 		str	r3, [r1, #-8]!
 1607              		.loc 1 325 0
 1608 000c 0446     		mov	r4, r0
 1609              		.loc 1 328 0
 1610 000e DFED070A 		vldr.32	s1, .L99
 1611 0012 01A8     		add	r0, sp, #4
 1612              	.LVL152:
 1613 0014 FFF7FEFF 		bl	buffer_append_float32
 1614              	.LVL153:
 1615              		.loc 1 329 0
 1616 0018 01A9     		add	r1, sp, #4
 1617 001a 44F42060 		orr	r0, r4, #2560
 1618 001e 9DF80020 		ldrb	r2, [sp]	@ zero_extendqisi2
 1619 0022 FFF7FEFF 		bl	comm_can_transmit_eid
 1620              	.LVL154:
 1621              		.loc 1 331 0
 1622 0026 02B0     		add	sp, sp, #8
 1623              		.cfi_def_cfa_offset 8
 1624              		@ sp needed
 1625 0028 10BD     		pop	{r4, pc}
 1626              	.L100:
 1627 002a 00BF     		.align	2
 1628              	.L99:
 1629 002c 0050C347 		.word	1203982336
 1630              		.cfi_endproc
 1631              	.LFE267:
 1632              		.size	comm_can_set_current_rel, .-comm_can_set_current_rel
 1633              		.section	.text.comm_can_set_current_brake_rel,"ax",%progbits
 1634              		.align	1
 1635              		.p2align 4,,15
 1636              		.global	comm_can_set_current_brake_rel
 1637              		.syntax unified
 1638              		.thumb
 1639              		.thumb_func
 1640              		.fpu fpv4-sp-d16
 1641              		.type	comm_can_set_current_brake_rel, %function
 1642              	comm_can_set_current_brake_rel:
 1643              	.LFB268:
 1644              		.loc 1 342 0
 1645              		.cfi_startproc
 1646              		@ args = 0, pretend = 0, frame = 8
 1647              		@ frame_needed = 0, uses_anonymous_args = 0
 1648              	.LVL155:
 1649 0000 10B5     		push	{r4, lr}
 1650              		.cfi_def_cfa_offset 8
 1651              		.cfi_offset 4, -8
 1652              		.cfi_offset 14, -4
 1653 0002 82B0     		sub	sp, sp, #8
ARM GAS  /tmp/ccjQGkoy.s 			page 30


 1654              		.cfi_def_cfa_offset 16
 1655              		.loc 1 343 0
 1656 0004 02A9     		add	r1, sp, #8
 1657 0006 0023     		movs	r3, #0
 1658 0008 41F8083D 		str	r3, [r1, #-8]!
 1659              		.loc 1 342 0
 1660 000c 0446     		mov	r4, r0
 1661              		.loc 1 345 0
 1662 000e DFED070A 		vldr.32	s1, .L103
 1663 0012 01A8     		add	r0, sp, #4
 1664              	.LVL156:
 1665 0014 FFF7FEFF 		bl	buffer_append_float32
 1666              	.LVL157:
 1667              		.loc 1 346 0
 1668 0018 01A9     		add	r1, sp, #4
 1669 001a 44F43060 		orr	r0, r4, #2816
 1670 001e 9DF80020 		ldrb	r2, [sp]	@ zero_extendqisi2
 1671 0022 FFF7FEFF 		bl	comm_can_transmit_eid
 1672              	.LVL158:
 1673              		.loc 1 348 0
 1674 0026 02B0     		add	sp, sp, #8
 1675              		.cfi_def_cfa_offset 8
 1676              		@ sp needed
 1677 0028 10BD     		pop	{r4, pc}
 1678              	.L104:
 1679 002a 00BF     		.align	2
 1680              	.L103:
 1681 002c 0050C347 		.word	1203982336
 1682              		.cfi_endproc
 1683              	.LFE268:
 1684              		.size	comm_can_set_current_brake_rel, .-comm_can_set_current_brake_rel
 1685              		.section	.text.comm_can_set_handbrake,"ax",%progbits
 1686              		.align	1
 1687              		.p2align 4,,15
 1688              		.global	comm_can_set_handbrake
 1689              		.syntax unified
 1690              		.thumb
 1691              		.thumb_func
 1692              		.fpu fpv4-sp-d16
 1693              		.type	comm_can_set_handbrake, %function
 1694              	comm_can_set_handbrake:
 1695              	.LFB269:
 1696              		.loc 1 359 0
 1697              		.cfi_startproc
 1698              		@ args = 0, pretend = 0, frame = 8
 1699              		@ frame_needed = 0, uses_anonymous_args = 0
 1700              	.LVL159:
 1701 0000 10B5     		push	{r4, lr}
 1702              		.cfi_def_cfa_offset 8
 1703              		.cfi_offset 4, -8
 1704              		.cfi_offset 14, -4
 1705 0002 82B0     		sub	sp, sp, #8
 1706              		.cfi_def_cfa_offset 16
 1707              		.loc 1 360 0
 1708 0004 02A9     		add	r1, sp, #8
 1709 0006 0023     		movs	r3, #0
 1710 0008 41F8083D 		str	r3, [r1, #-8]!
ARM GAS  /tmp/ccjQGkoy.s 			page 31


 1711              		.loc 1 359 0
 1712 000c 0446     		mov	r4, r0
 1713              		.loc 1 362 0
 1714 000e DFED070A 		vldr.32	s1, .L107
 1715 0012 01A8     		add	r0, sp, #4
 1716              	.LVL160:
 1717 0014 FFF7FEFF 		bl	buffer_append_float32
 1718              	.LVL161:
 1719              		.loc 1 363 0
 1720 0018 01A9     		add	r1, sp, #4
 1721 001a 44F44060 		orr	r0, r4, #3072
 1722 001e 9DF80020 		ldrb	r2, [sp]	@ zero_extendqisi2
 1723 0022 FFF7FEFF 		bl	comm_can_transmit_eid
 1724              	.LVL162:
 1725              		.loc 1 365 0
 1726 0026 02B0     		add	sp, sp, #8
 1727              		.cfi_def_cfa_offset 8
 1728              		@ sp needed
 1729 0028 10BD     		pop	{r4, pc}
 1730              	.L108:
 1731 002a 00BF     		.align	2
 1732              	.L107:
 1733 002c 00007A44 		.word	1148846080
 1734              		.cfi_endproc
 1735              	.LFE269:
 1736              		.size	comm_can_set_handbrake, .-comm_can_set_handbrake
 1737              		.section	.text.comm_can_set_handbrake_rel,"ax",%progbits
 1738              		.align	1
 1739              		.p2align 4,,15
 1740              		.global	comm_can_set_handbrake_rel
 1741              		.syntax unified
 1742              		.thumb
 1743              		.thumb_func
 1744              		.fpu fpv4-sp-d16
 1745              		.type	comm_can_set_handbrake_rel, %function
 1746              	comm_can_set_handbrake_rel:
 1747              	.LFB270:
 1748              		.loc 1 376 0
 1749              		.cfi_startproc
 1750              		@ args = 0, pretend = 0, frame = 8
 1751              		@ frame_needed = 0, uses_anonymous_args = 0
 1752              	.LVL163:
 1753 0000 10B5     		push	{r4, lr}
 1754              		.cfi_def_cfa_offset 8
 1755              		.cfi_offset 4, -8
 1756              		.cfi_offset 14, -4
 1757 0002 82B0     		sub	sp, sp, #8
 1758              		.cfi_def_cfa_offset 16
 1759              		.loc 1 377 0
 1760 0004 02A9     		add	r1, sp, #8
 1761 0006 0023     		movs	r3, #0
 1762 0008 41F8083D 		str	r3, [r1, #-8]!
 1763              		.loc 1 376 0
 1764 000c 0446     		mov	r4, r0
 1765              		.loc 1 379 0
 1766 000e DFED070A 		vldr.32	s1, .L111
 1767 0012 01A8     		add	r0, sp, #4
ARM GAS  /tmp/ccjQGkoy.s 			page 32


 1768              	.LVL164:
 1769 0014 FFF7FEFF 		bl	buffer_append_float32
 1770              	.LVL165:
 1771              		.loc 1 380 0
 1772 0018 01A9     		add	r1, sp, #4
 1773 001a 44F45060 		orr	r0, r4, #3328
 1774 001e 9DF80020 		ldrb	r2, [sp]	@ zero_extendqisi2
 1775 0022 FFF7FEFF 		bl	comm_can_transmit_eid
 1776              	.LVL166:
 1777              		.loc 1 382 0
 1778 0026 02B0     		add	sp, sp, #8
 1779              		.cfi_def_cfa_offset 8
 1780              		@ sp needed
 1781 0028 10BD     		pop	{r4, pc}
 1782              	.L112:
 1783 002a 00BF     		.align	2
 1784              	.L111:
 1785 002c 0050C347 		.word	1203982336
 1786              		.cfi_endproc
 1787              	.LFE270:
 1788              		.size	comm_can_set_handbrake_rel, .-comm_can_set_handbrake_rel
 1789              		.section	.text.comm_can_ping,"ax",%progbits
 1790              		.align	1
 1791              		.p2align 4,,15
 1792              		.global	comm_can_ping
 1793              		.syntax unified
 1794              		.thumb
 1795              		.thumb_func
 1796              		.fpu fpv4-sp-d16
 1797              		.type	comm_can_ping, %function
 1798              	comm_can_ping:
 1799              	.LFB271:
 1800              		.loc 1 393 0
 1801              		.cfi_startproc
 1802              		@ args = 0, pretend = 0, frame = 8
 1803              		@ frame_needed = 0, uses_anonymous_args = 0
 1804              	.LVL167:
 1805 0000 30B5     		push	{r4, r5, lr}
 1806              		.cfi_def_cfa_offset 12
 1807              		.cfi_offset 4, -12
 1808              		.cfi_offset 5, -8
 1809              		.cfi_offset 14, -4
 1810              	.LBB201:
 1811              	.LBB202:
 1812              		.loc 4 176 0
 1813 0002 104B     		ldr	r3, .L115
 1814              	.LBE202:
 1815              	.LBE201:
 1816              		.loc 1 395 0
 1817 0004 104C     		ldr	r4, .L115+4
 1818 0006 9B69     		ldr	r3, [r3, #24]
 1819 0008 2360     		str	r3, [r4]
 1820              		.loc 1 393 0
 1821 000a 83B0     		sub	sp, sp, #12
 1822              		.cfi_def_cfa_offset 24
 1823              		.loc 1 393 0
 1824 000c 0546     		mov	r5, r0
ARM GAS  /tmp/ccjQGkoy.s 			page 33


 1825              		.loc 1 396 0
 1826 000e 4FF0FF30 		mov	r0, #-1
 1827              	.LVL168:
 1828 0012 FFF7FEFF 		bl	chEvtGetAndClearEvents
 1829              	.LVL169:
 1830              		.loc 1 399 0
 1831 0016 FFF7FEFF 		bl	app_get_configuration
 1832              	.LVL170:
 1833 001a 02A9     		add	r1, sp, #8
 1834 001c 0378     		ldrb	r3, [r0]	@ zero_extendqisi2
 1835 001e 01F8043D 		strb	r3, [r1, #-4]!
 1836              		.loc 1 400 0
 1837 0022 45F48850 		orr	r0, r5, #4352
 1838 0026 0122     		movs	r2, #1
 1839 0028 FFF7FEFF 		bl	comm_can_transmit_eid
 1840              	.LVL171:
 1841              		.loc 1 403 0
 1842 002c 6421     		movs	r1, #100
 1843 002e 4FF00050 		mov	r0, #536870912
 1844 0032 FFF7FEFF 		bl	chEvtWaitAnyTimeout
 1845              	.LVL172:
 1846              		.loc 1 404 0
 1847 0036 0023     		movs	r3, #0
 1848              		.loc 1 410 0
 1849 0038 C01A     		subs	r0, r0, r3
 1850 003a 18BF     		it	ne
 1851 003c 0120     		movne	r0, #1
 1852              	.LVL173:
 1853              		.loc 1 404 0
 1854 003e 2360     		str	r3, [r4]
 1855              		.loc 1 410 0
 1856 0040 03B0     		add	sp, sp, #12
 1857              		.cfi_def_cfa_offset 12
 1858              		@ sp needed
 1859 0042 30BD     		pop	{r4, r5, pc}
 1860              	.L116:
 1861              		.align	2
 1862              	.L115:
 1863 0044 00000000 		.word	ch
 1864 0048 00000000 		.word	.LANCHOR15
 1865              		.cfi_endproc
 1866              	.LFE271:
 1867              		.size	comm_can_ping, .-comm_can_ping
 1868              		.section	.text.comm_can_detect_apply_all_foc,"ax",%progbits
 1869              		.align	1
 1870              		.p2align 4,,15
 1871              		.global	comm_can_detect_apply_all_foc
 1872              		.syntax unified
 1873              		.thumb
 1874              		.thumb_func
 1875              		.fpu fpv4-sp-d16
 1876              		.type	comm_can_detect_apply_all_foc, %function
 1877              	comm_can_detect_apply_all_foc:
 1878              	.LFB272:
 1879              		.loc 1 424 0
 1880              		.cfi_startproc
 1881              		@ args = 0, pretend = 0, frame = 16
ARM GAS  /tmp/ccjQGkoy.s 			page 34


 1882              		@ frame_needed = 0, uses_anonymous_args = 0
 1883              	.LVL174:
 1884 0000 30B5     		push	{r4, r5, lr}
 1885              		.cfi_def_cfa_offset 12
 1886              		.cfi_offset 4, -12
 1887              		.cfi_offset 5, -8
 1888              		.cfi_offset 14, -4
 1889 0002 2DED028B 		vpush.64	{d8}
 1890              		.cfi_def_cfa_offset 20
 1891              		.cfi_offset 80, -20
 1892              		.cfi_offset 81, -16
 1893 0006 85B0     		sub	sp, sp, #20
 1894              		.cfi_def_cfa_offset 40
 1895              		.loc 1 425 0
 1896 0008 0023     		movs	r3, #0
 1897              		.loc 1 424 0
 1898 000a 0D46     		mov	r5, r1
 1899 000c 0446     		mov	r4, r0
 1900 000e B0EE408A 		vmov.f32	s16, s0
 1901              		.loc 1 425 0
 1902 0012 0193     		str	r3, [sp, #4]
 1903              		.loc 1 427 0
 1904 0014 FFF7FEFF 		bl	app_get_configuration
 1905              	.LVL175:
 1906 0018 019B     		ldr	r3, [sp, #4]
 1907 001a 0278     		ldrb	r2, [r0]	@ zero_extendqisi2
 1908              		.loc 1 429 0
 1909 001c DFED0D0A 		vldr.32	s1, .L119
 1910              		.loc 1 428 0
 1911 0020 04A9     		add	r1, sp, #16
 1912 0022 981C     		adds	r0, r3, #2
 1913 0024 41F80C0D 		str	r0, [r1, #-12]!
 1914              		.loc 1 427 0
 1915 0028 04A8     		add	r0, sp, #16
 1916 002a 0344     		add	r3, r3, r0
 1917              		.loc 1 429 0
 1918 002c B0EE480A 		vmov.f32	s0, s16
 1919 0030 02A8     		add	r0, sp, #8
 1920              		.loc 1 427 0
 1921 0032 03F8082C 		strb	r2, [r3, #-8]
 1922              		.loc 1 428 0
 1923 0036 03F8075C 		strb	r5, [r3, #-7]
 1924              		.loc 1 429 0
 1925 003a FFF7FEFF 		bl	buffer_append_float32
 1926              	.LVL176:
 1927              		.loc 1 430 0
 1928 003e 02A9     		add	r1, sp, #8
 1929 0040 44F49850 		orr	r0, r4, #4864
 1930 0044 9DF80420 		ldrb	r2, [sp, #4]	@ zero_extendqisi2
 1931 0048 FFF7FEFF 		bl	comm_can_transmit_eid
 1932              	.LVL177:
 1933              		.loc 1 432 0
 1934 004c 05B0     		add	sp, sp, #20
 1935              		.cfi_def_cfa_offset 20
 1936              		@ sp needed
 1937 004e BDEC028B 		vldm	sp!, {d8}
 1938              		.cfi_restore 80
ARM GAS  /tmp/ccjQGkoy.s 			page 35


 1939              		.cfi_restore 81
 1940              		.cfi_def_cfa_offset 12
 1941              	.LVL178:
 1942 0052 30BD     		pop	{r4, r5, pc}
 1943              	.L120:
 1944              		.align	2
 1945              	.L119:
 1946 0054 00007A44 		.word	1148846080
 1947              		.cfi_endproc
 1948              	.LFE272:
 1949              		.size	comm_can_detect_apply_all_foc, .-comm_can_detect_apply_all_foc
 1950              		.section	.text.comm_can_conf_current_limits,"ax",%progbits
 1951              		.align	1
 1952              		.p2align 4,,15
 1953              		.global	comm_can_conf_current_limits
 1954              		.syntax unified
 1955              		.thumb
 1956              		.thumb_func
 1957              		.fpu fpv4-sp-d16
 1958              		.type	comm_can_conf_current_limits, %function
 1959              	comm_can_conf_current_limits:
 1960              	.LFB273:
 1961              		.loc 1 450 0
 1962              		.cfi_startproc
 1963              		@ args = 0, pretend = 0, frame = 16
 1964              		@ frame_needed = 0, uses_anonymous_args = 0
 1965              	.LVL179:
 1966 0000 70B5     		push	{r4, r5, r6, lr}
 1967              		.cfi_def_cfa_offset 16
 1968              		.cfi_offset 4, -16
 1969              		.cfi_offset 5, -12
 1970              		.cfi_offset 6, -8
 1971              		.cfi_offset 14, -4
 1972 0002 2DED028B 		vpush.64	{d8}
 1973              		.cfi_def_cfa_offset 24
 1974              		.cfi_offset 80, -24
 1975              		.cfi_offset 81, -20
 1976 0006 84B0     		sub	sp, sp, #16
 1977              		.cfi_def_cfa_offset 40
 1978              		.loc 1 451 0
 1979 0008 04AC     		add	r4, sp, #16
 1980 000a 0023     		movs	r3, #0
 1981 000c 44F80C3D 		str	r3, [r4, #-12]!
 1982              		.loc 1 450 0
 1983 0010 B0EE608A 		vmov.f32	s16, s1
 1984 0014 0546     		mov	r5, r0
 1985 0016 0E46     		mov	r6, r1
 1986              		.loc 1 453 0
 1987 0018 02A8     		add	r0, sp, #8
 1988              	.LVL180:
 1989 001a 2146     		mov	r1, r4
 1990              	.LVL181:
 1991 001c DFED0D0A 		vldr.32	s1, .L125
 1992              	.LVL182:
 1993 0020 FFF7FEFF 		bl	buffer_append_float32
 1994              	.LVL183:
 1995              		.loc 1 454 0
ARM GAS  /tmp/ccjQGkoy.s 			page 36


 1996 0024 02A8     		add	r0, sp, #8
 1997 0026 2146     		mov	r1, r4
 1998 0028 B0EE480A 		vmov.f32	s0, s16
 1999 002c DFED090A 		vldr.32	s1, .L125
 2000 0030 FFF7FEFF 		bl	buffer_append_float32
 2001              	.LVL184:
 2002              		.loc 1 457 0
 2003 0034 002E     		cmp	r6, #0
 2004 0036 14BF     		ite	ne
 2005 0038 4FF4B050 		movne	r0, #5632
 2006 003c 4FF4A850 		moveq	r0, #5376
 2007              		.loc 1 455 0
 2008 0040 02A9     		add	r1, sp, #8
 2009 0042 2843     		orrs	r0, r0, r5
 2010 0044 9DF80420 		ldrb	r2, [sp, #4]	@ zero_extendqisi2
 2011 0048 FFF7FEFF 		bl	comm_can_transmit_eid
 2012              	.LVL185:
 2013              		.loc 1 458 0
 2014 004c 04B0     		add	sp, sp, #16
 2015              		.cfi_def_cfa_offset 24
 2016              		@ sp needed
 2017 004e BDEC028B 		vldm	sp!, {d8}
 2018              		.cfi_restore 80
 2019              		.cfi_restore 81
 2020              		.cfi_def_cfa_offset 16
 2021              	.LVL186:
 2022 0052 70BD     		pop	{r4, r5, r6, pc}
 2023              	.L126:
 2024              		.align	2
 2025              	.L125:
 2026 0054 00007A44 		.word	1148846080
 2027              		.cfi_endproc
 2028              	.LFE273:
 2029              		.size	comm_can_conf_current_limits, .-comm_can_conf_current_limits
 2030              		.section	.text.comm_can_conf_current_limits_in,"ax",%progbits
 2031              		.align	1
 2032              		.p2align 4,,15
 2033              		.global	comm_can_conf_current_limits_in
 2034              		.syntax unified
 2035              		.thumb
 2036              		.thumb_func
 2037              		.fpu fpv4-sp-d16
 2038              		.type	comm_can_conf_current_limits_in, %function
 2039              	comm_can_conf_current_limits_in:
 2040              	.LFB274:
 2041              		.loc 1 476 0
 2042              		.cfi_startproc
 2043              		@ args = 0, pretend = 0, frame = 16
 2044              		@ frame_needed = 0, uses_anonymous_args = 0
 2045              	.LVL187:
 2046 0000 70B5     		push	{r4, r5, r6, lr}
 2047              		.cfi_def_cfa_offset 16
 2048              		.cfi_offset 4, -16
 2049              		.cfi_offset 5, -12
 2050              		.cfi_offset 6, -8
 2051              		.cfi_offset 14, -4
 2052 0002 2DED028B 		vpush.64	{d8}
ARM GAS  /tmp/ccjQGkoy.s 			page 37


 2053              		.cfi_def_cfa_offset 24
 2054              		.cfi_offset 80, -24
 2055              		.cfi_offset 81, -20
 2056 0006 84B0     		sub	sp, sp, #16
 2057              		.cfi_def_cfa_offset 40
 2058              		.loc 1 477 0
 2059 0008 04AC     		add	r4, sp, #16
 2060 000a 0023     		movs	r3, #0
 2061 000c 44F80C3D 		str	r3, [r4, #-12]!
 2062              		.loc 1 476 0
 2063 0010 B0EE608A 		vmov.f32	s16, s1
 2064 0014 0546     		mov	r5, r0
 2065 0016 0E46     		mov	r6, r1
 2066              		.loc 1 479 0
 2067 0018 02A8     		add	r0, sp, #8
 2068              	.LVL188:
 2069 001a 2146     		mov	r1, r4
 2070              	.LVL189:
 2071 001c DFED0D0A 		vldr.32	s1, .L131
 2072              	.LVL190:
 2073 0020 FFF7FEFF 		bl	buffer_append_float32
 2074              	.LVL191:
 2075              		.loc 1 480 0
 2076 0024 02A8     		add	r0, sp, #8
 2077 0026 2146     		mov	r1, r4
 2078 0028 B0EE480A 		vmov.f32	s0, s16
 2079 002c DFED090A 		vldr.32	s1, .L131
 2080 0030 FFF7FEFF 		bl	buffer_append_float32
 2081              	.LVL192:
 2082              		.loc 1 483 0
 2083 0034 002E     		cmp	r6, #0
 2084 0036 14BF     		ite	ne
 2085 0038 4FF4C050 		movne	r0, #6144
 2086 003c 4FF4B850 		moveq	r0, #5888
 2087              		.loc 1 481 0
 2088 0040 02A9     		add	r1, sp, #8
 2089 0042 2843     		orrs	r0, r0, r5
 2090 0044 9DF80420 		ldrb	r2, [sp, #4]	@ zero_extendqisi2
 2091 0048 FFF7FEFF 		bl	comm_can_transmit_eid
 2092              	.LVL193:
 2093              		.loc 1 484 0
 2094 004c 04B0     		add	sp, sp, #16
 2095              		.cfi_def_cfa_offset 24
 2096              		@ sp needed
 2097 004e BDEC028B 		vldm	sp!, {d8}
 2098              		.cfi_restore 80
 2099              		.cfi_restore 81
 2100              		.cfi_def_cfa_offset 16
 2101              	.LVL194:
 2102 0052 70BD     		pop	{r4, r5, r6, pc}
 2103              	.L132:
 2104              		.align	2
 2105              	.L131:
 2106 0054 00007A44 		.word	1148846080
 2107              		.cfi_endproc
 2108              	.LFE274:
 2109              		.size	comm_can_conf_current_limits_in, .-comm_can_conf_current_limits_in
ARM GAS  /tmp/ccjQGkoy.s 			page 38


 2110              		.section	.text.comm_can_conf_foc_erpms,"ax",%progbits
 2111              		.align	1
 2112              		.p2align 4,,15
 2113              		.global	comm_can_conf_foc_erpms
 2114              		.syntax unified
 2115              		.thumb
 2116              		.thumb_func
 2117              		.fpu fpv4-sp-d16
 2118              		.type	comm_can_conf_foc_erpms, %function
 2119              	comm_can_conf_foc_erpms:
 2120              	.LFB275:
 2121              		.loc 1 502 0
 2122              		.cfi_startproc
 2123              		@ args = 0, pretend = 0, frame = 16
 2124              		@ frame_needed = 0, uses_anonymous_args = 0
 2125              	.LVL195:
 2126 0000 70B5     		push	{r4, r5, r6, lr}
 2127              		.cfi_def_cfa_offset 16
 2128              		.cfi_offset 4, -16
 2129              		.cfi_offset 5, -12
 2130              		.cfi_offset 6, -8
 2131              		.cfi_offset 14, -4
 2132 0002 2DED028B 		vpush.64	{d8}
 2133              		.cfi_def_cfa_offset 24
 2134              		.cfi_offset 80, -24
 2135              		.cfi_offset 81, -20
 2136 0006 84B0     		sub	sp, sp, #16
 2137              		.cfi_def_cfa_offset 40
 2138              		.loc 1 503 0
 2139 0008 04AC     		add	r4, sp, #16
 2140 000a 0023     		movs	r3, #0
 2141 000c 44F80C3D 		str	r3, [r4, #-12]!
 2142              		.loc 1 502 0
 2143 0010 B0EE608A 		vmov.f32	s16, s1
 2144 0014 0546     		mov	r5, r0
 2145 0016 0E46     		mov	r6, r1
 2146              		.loc 1 505 0
 2147 0018 02A8     		add	r0, sp, #8
 2148              	.LVL196:
 2149 001a 2146     		mov	r1, r4
 2150              	.LVL197:
 2151 001c DFED0D0A 		vldr.32	s1, .L137
 2152              	.LVL198:
 2153 0020 FFF7FEFF 		bl	buffer_append_float32
 2154              	.LVL199:
 2155              		.loc 1 506 0
 2156 0024 02A8     		add	r0, sp, #8
 2157 0026 2146     		mov	r1, r4
 2158 0028 B0EE480A 		vmov.f32	s0, s16
 2159 002c DFED090A 		vldr.32	s1, .L137
 2160 0030 FFF7FEFF 		bl	buffer_append_float32
 2161              	.LVL200:
 2162              		.loc 1 509 0
 2163 0034 002E     		cmp	r6, #0
 2164 0036 14BF     		ite	ne
 2165 0038 4FF4D050 		movne	r0, #6656
 2166 003c 4FF4C850 		moveq	r0, #6400
ARM GAS  /tmp/ccjQGkoy.s 			page 39


 2167              		.loc 1 507 0
 2168 0040 02A9     		add	r1, sp, #8
 2169 0042 2843     		orrs	r0, r0, r5
 2170 0044 9DF80420 		ldrb	r2, [sp, #4]	@ zero_extendqisi2
 2171 0048 FFF7FEFF 		bl	comm_can_transmit_eid
 2172              	.LVL201:
 2173              		.loc 1 510 0
 2174 004c 04B0     		add	sp, sp, #16
 2175              		.cfi_def_cfa_offset 24
 2176              		@ sp needed
 2177 004e BDEC028B 		vldm	sp!, {d8}
 2178              		.cfi_restore 80
 2179              		.cfi_restore 81
 2180              		.cfi_def_cfa_offset 16
 2181              	.LVL202:
 2182 0052 70BD     		pop	{r4, r5, r6, pc}
 2183              	.L138:
 2184              		.align	2
 2185              	.L137:
 2186 0054 00007A44 		.word	1148846080
 2187              		.cfi_endproc
 2188              	.LFE275:
 2189              		.size	comm_can_conf_foc_erpms, .-comm_can_conf_foc_erpms
 2190              		.section	.text.comm_can_detect_all_foc_res,"ax",%progbits
 2191              		.align	1
 2192              		.p2align 4,,15
 2193              		.global	comm_can_detect_all_foc_res
 2194              		.syntax unified
 2195              		.thumb
 2196              		.thumb_func
 2197              		.fpu fpv4-sp-d16
 2198              		.type	comm_can_detect_all_foc_res, %function
 2199              	comm_can_detect_all_foc_res:
 2200              	.LFB276:
 2201              		.loc 1 512 0
 2202              		.cfi_startproc
 2203              		@ args = 0, pretend = 0, frame = 0
 2204              		@ frame_needed = 0, uses_anonymous_args = 0
 2205              		@ link register save eliminated.
 2206              	.LVL203:
 2207              		.loc 1 513 0
 2208 0000 034B     		ldr	r3, .L142
 2209 0002 1B68     		ldr	r3, [r3]
 2210 0004 8342     		cmp	r3, r0
 2211              		.loc 1 514 0
 2212 0006 86BF     		itte	hi
 2213 0008 024A     		ldrhi	r2, .L142+4
 2214 000a D056     		ldrsbhi	r0, [r2, r3]
 2215              	.LVL204:
 2216              		.loc 1 516 0
 2217 000c 0248     		ldrls	r0, .L142+8
 2218              		.loc 1 518 0
 2219 000e 7047     		bx	lr
 2220              	.L143:
 2221              		.align	2
 2222              	.L142:
 2223 0010 00000000 		.word	.LANCHOR16
ARM GAS  /tmp/ccjQGkoy.s 			page 40


 2224 0014 00000000 		.word	.LANCHOR17
 2225 0018 19FCFFFF 		.word	-999
 2226              		.cfi_endproc
 2227              	.LFE276:
 2228              		.size	comm_can_detect_all_foc_res, .-comm_can_detect_all_foc_res
 2229              		.section	.text.comm_can_detect_all_foc_res_size,"ax",%progbits
 2230              		.align	1
 2231              		.p2align 4,,15
 2232              		.global	comm_can_detect_all_foc_res_size
 2233              		.syntax unified
 2234              		.thumb
 2235              		.thumb_func
 2236              		.fpu fpv4-sp-d16
 2237              		.type	comm_can_detect_all_foc_res_size, %function
 2238              	comm_can_detect_all_foc_res_size:
 2239              	.LFB277:
 2240              		.loc 1 520 0
 2241              		.cfi_startproc
 2242              		@ args = 0, pretend = 0, frame = 0
 2243              		@ frame_needed = 0, uses_anonymous_args = 0
 2244              		@ link register save eliminated.
 2245              		.loc 1 521 0
 2246 0000 014B     		ldr	r3, .L145
 2247              		.loc 1 522 0
 2248 0002 1868     		ldr	r0, [r3]
 2249 0004 7047     		bx	lr
 2250              	.L146:
 2251 0006 00BF     		.align	2
 2252              	.L145:
 2253 0008 00000000 		.word	.LANCHOR16
 2254              		.cfi_endproc
 2255              	.LFE277:
 2256              		.size	comm_can_detect_all_foc_res_size, .-comm_can_detect_all_foc_res_size
 2257              		.section	.text.comm_can_detect_all_foc_res_clear,"ax",%progbits
 2258              		.align	1
 2259              		.p2align 4,,15
 2260              		.global	comm_can_detect_all_foc_res_clear
 2261              		.syntax unified
 2262              		.thumb
 2263              		.thumb_func
 2264              		.fpu fpv4-sp-d16
 2265              		.type	comm_can_detect_all_foc_res_clear, %function
 2266              	comm_can_detect_all_foc_res_clear:
 2267              	.LFB278:
 2268              		.loc 1 524 0
 2269              		.cfi_startproc
 2270              		@ args = 0, pretend = 0, frame = 0
 2271              		@ frame_needed = 0, uses_anonymous_args = 0
 2272              		@ link register save eliminated.
 2273              		.loc 1 525 0
 2274 0000 014B     		ldr	r3, .L148
 2275 0002 0022     		movs	r2, #0
 2276 0004 1A60     		str	r2, [r3]
 2277              		.loc 1 526 0
 2278 0006 7047     		bx	lr
 2279              	.L149:
 2280              		.align	2
ARM GAS  /tmp/ccjQGkoy.s 			page 41


 2281              	.L148:
 2282 0008 00000000 		.word	.LANCHOR16
 2283              		.cfi_endproc
 2284              	.LFE278:
 2285              		.size	comm_can_detect_all_foc_res_clear, .-comm_can_detect_all_foc_res_clear
 2286              		.section	.text.comm_can_get_status_msg_index,"ax",%progbits
 2287              		.align	1
 2288              		.p2align 4,,15
 2289              		.global	comm_can_get_status_msg_index
 2290              		.syntax unified
 2291              		.thumb
 2292              		.thumb_func
 2293              		.fpu fpv4-sp-d16
 2294              		.type	comm_can_get_status_msg_index, %function
 2295              	comm_can_get_status_msg_index:
 2296              	.LFB279:
 2297              		.loc 1 537 0
 2298              		.cfi_startproc
 2299              		@ args = 0, pretend = 0, frame = 0
 2300              		@ frame_needed = 0, uses_anonymous_args = 0
 2301              		@ link register save eliminated.
 2302              	.LVL205:
 2303              		.loc 1 538 0
 2304 0000 0928     		cmp	r0, #9
 2305              		.loc 1 539 0
 2306 0002 DDBF     		ittte	le
 2307 0004 034B     		ldrle	r3, .L153
 2308 0006 00EB8000 		addle	r0, r0, r0, lsl #2
 2309              	.LVL206:
 2310 000a 03EB8000 		addle	r0, r3, r0, lsl #2
 2311              		.loc 1 541 0
 2312 000e 0020     		movgt	r0, #0
 2313              		.loc 1 543 0
 2314 0010 7047     		bx	lr
 2315              	.L154:
 2316 0012 00BF     		.align	2
 2317              	.L153:
 2318 0014 00000000 		.word	.LANCHOR4
 2319              		.cfi_endproc
 2320              	.LFE279:
 2321              		.size	comm_can_get_status_msg_index, .-comm_can_get_status_msg_index
 2322              		.section	.text.comm_can_get_status_msg_id,"ax",%progbits
 2323              		.align	1
 2324              		.p2align 4,,15
 2325              		.global	comm_can_get_status_msg_id
 2326              		.syntax unified
 2327              		.thumb
 2328              		.thumb_func
 2329              		.fpu fpv4-sp-d16
 2330              		.type	comm_can_get_status_msg_id, %function
 2331              	comm_can_get_status_msg_id:
 2332              	.LFB280:
 2333              		.loc 1 554 0
 2334              		.cfi_startproc
 2335              		@ args = 0, pretend = 0, frame = 0
 2336              		@ frame_needed = 0, uses_anonymous_args = 0
 2337              		@ link register save eliminated.
ARM GAS  /tmp/ccjQGkoy.s 			page 42


 2338              	.LVL207:
 2339 0000 10B4     		push	{r4}
 2340              		.cfi_def_cfa_offset 4
 2341              		.cfi_offset 4, -4
 2342 0002 0B4C     		ldr	r4, .L162
 2343              	.LBB203:
 2344              		.loc 1 555 0
 2345 0004 0023     		movs	r3, #0
 2346 0006 2246     		mov	r2, r4
 2347              	.LVL208:
 2348              	.L158:
 2349              		.loc 1 556 0
 2350 0008 1168     		ldr	r1, [r2]
 2351 000a 8142     		cmp	r1, r0
 2352 000c 02F11402 		add	r2, r2, #20
 2353 0010 06D0     		beq	.L161
 2354              		.loc 1 555 0 discriminator 2
 2355 0012 0133     		adds	r3, r3, #1
 2356              	.LVL209:
 2357 0014 0A2B     		cmp	r3, #10
 2358 0016 F7D1     		bne	.L158
 2359              	.LBE203:
 2360              		.loc 1 561 0
 2361 0018 0020     		movs	r0, #0
 2362              	.LVL210:
 2363              		.loc 1 562 0
 2364 001a 5DF8044B 		ldr	r4, [sp], #4
 2365              		.cfi_remember_state
 2366              		.cfi_restore 4
 2367              		.cfi_def_cfa_offset 0
 2368 001e 7047     		bx	lr
 2369              	.LVL211:
 2370              	.L161:
 2371              		.cfi_restore_state
 2372              	.LBB204:
 2373              		.loc 1 557 0
 2374 0020 03EB8303 		add	r3, r3, r3, lsl #2
 2375              	.LVL212:
 2376 0024 04EB8300 		add	r0, r4, r3, lsl #2
 2377              	.LVL213:
 2378              	.LBE204:
 2379              		.loc 1 562 0
 2380 0028 5DF8044B 		ldr	r4, [sp], #4
 2381              		.cfi_restore 4
 2382              		.cfi_def_cfa_offset 0
 2383 002c 7047     		bx	lr
 2384              	.L163:
 2385 002e 00BF     		.align	2
 2386              	.L162:
 2387 0030 00000000 		.word	.LANCHOR4
 2388              		.cfi_endproc
 2389              	.LFE280:
 2390              		.size	comm_can_get_status_msg_id, .-comm_can_get_status_msg_id
 2391              		.section	.text.comm_can_get_status_msg_2_index,"ax",%progbits
 2392              		.align	1
 2393              		.p2align 4,,15
 2394              		.global	comm_can_get_status_msg_2_index
ARM GAS  /tmp/ccjQGkoy.s 			page 43


 2395              		.syntax unified
 2396              		.thumb
 2397              		.thumb_func
 2398              		.fpu fpv4-sp-d16
 2399              		.type	comm_can_get_status_msg_2_index, %function
 2400              	comm_can_get_status_msg_2_index:
 2401              	.LFB281:
 2402              		.loc 1 573 0
 2403              		.cfi_startproc
 2404              		@ args = 0, pretend = 0, frame = 0
 2405              		@ frame_needed = 0, uses_anonymous_args = 0
 2406              		@ link register save eliminated.
 2407              	.LVL214:
 2408              		.loc 1 574 0
 2409 0000 0928     		cmp	r0, #9
 2410              		.loc 1 575 0
 2411 0002 DABF     		itte	le
 2412 0004 024B     		ldrle	r3, .L167
 2413 0006 03EB0010 		addle	r0, r3, r0, lsl #4
 2414              	.LVL215:
 2415              		.loc 1 577 0
 2416 000a 0020     		movgt	r0, #0
 2417              		.loc 1 579 0
 2418 000c 7047     		bx	lr
 2419              	.L168:
 2420 000e 00BF     		.align	2
 2421              	.L167:
 2422 0010 00000000 		.word	.LANCHOR6
 2423              		.cfi_endproc
 2424              	.LFE281:
 2425              		.size	comm_can_get_status_msg_2_index, .-comm_can_get_status_msg_2_index
 2426              		.section	.text.comm_can_get_status_msg_2_id,"ax",%progbits
 2427              		.align	1
 2428              		.p2align 4,,15
 2429              		.global	comm_can_get_status_msg_2_id
 2430              		.syntax unified
 2431              		.thumb
 2432              		.thumb_func
 2433              		.fpu fpv4-sp-d16
 2434              		.type	comm_can_get_status_msg_2_id, %function
 2435              	comm_can_get_status_msg_2_id:
 2436              	.LFB282:
 2437              		.loc 1 590 0
 2438              		.cfi_startproc
 2439              		@ args = 0, pretend = 0, frame = 0
 2440              		@ frame_needed = 0, uses_anonymous_args = 0
 2441              		@ link register save eliminated.
 2442              	.LVL216:
 2443 0000 10B4     		push	{r4}
 2444              		.cfi_def_cfa_offset 4
 2445              		.cfi_offset 4, -4
 2446 0002 084C     		ldr	r4, .L176
 2447              	.LBB205:
 2448              		.loc 1 591 0
 2449 0004 0023     		movs	r3, #0
 2450              	.LVL217:
 2451              	.L172:
ARM GAS  /tmp/ccjQGkoy.s 			page 44


 2452 0006 1A01     		lsls	r2, r3, #4
 2453 0008 0133     		adds	r3, r3, #1
 2454              	.LVL218:
 2455              		.loc 1 592 0
 2456 000a A158     		ldr	r1, [r4, r2]
 2457 000c 8142     		cmp	r1, r0
 2458 000e 05D0     		beq	.L175
 2459              		.loc 1 591 0 discriminator 2
 2460 0010 0A2B     		cmp	r3, #10
 2461 0012 F8D1     		bne	.L172
 2462              	.LBE205:
 2463              		.loc 1 597 0
 2464 0014 0020     		movs	r0, #0
 2465              	.LVL219:
 2466              		.loc 1 598 0
 2467 0016 5DF8044B 		ldr	r4, [sp], #4
 2468              		.cfi_remember_state
 2469              		.cfi_restore 4
 2470              		.cfi_def_cfa_offset 0
 2471 001a 7047     		bx	lr
 2472              	.LVL220:
 2473              	.L175:
 2474              		.cfi_restore_state
 2475              	.LBB206:
 2476              		.loc 1 593 0
 2477 001c A018     		adds	r0, r4, r2
 2478              	.LVL221:
 2479              	.LBE206:
 2480              		.loc 1 598 0
 2481 001e 5DF8044B 		ldr	r4, [sp], #4
 2482              		.cfi_restore 4
 2483              		.cfi_def_cfa_offset 0
 2484 0022 7047     		bx	lr
 2485              	.L177:
 2486              		.align	2
 2487              	.L176:
 2488 0024 00000000 		.word	.LANCHOR6
 2489              		.cfi_endproc
 2490              	.LFE282:
 2491              		.size	comm_can_get_status_msg_2_id, .-comm_can_get_status_msg_2_id
 2492              		.section	.text.comm_can_get_status_msg_3_index,"ax",%progbits
 2493              		.align	1
 2494              		.p2align 4,,15
 2495              		.global	comm_can_get_status_msg_3_index
 2496              		.syntax unified
 2497              		.thumb
 2498              		.thumb_func
 2499              		.fpu fpv4-sp-d16
 2500              		.type	comm_can_get_status_msg_3_index, %function
 2501              	comm_can_get_status_msg_3_index:
 2502              	.LFB283:
 2503              		.loc 1 609 0
 2504              		.cfi_startproc
 2505              		@ args = 0, pretend = 0, frame = 0
 2506              		@ frame_needed = 0, uses_anonymous_args = 0
 2507              		@ link register save eliminated.
 2508              	.LVL222:
ARM GAS  /tmp/ccjQGkoy.s 			page 45


 2509              		.loc 1 610 0
 2510 0000 0928     		cmp	r0, #9
 2511              		.loc 1 611 0
 2512 0002 DABF     		itte	le
 2513 0004 024B     		ldrle	r3, .L181
 2514 0006 03EB0010 		addle	r0, r3, r0, lsl #4
 2515              	.LVL223:
 2516              		.loc 1 613 0
 2517 000a 0020     		movgt	r0, #0
 2518              		.loc 1 615 0
 2519 000c 7047     		bx	lr
 2520              	.L182:
 2521 000e 00BF     		.align	2
 2522              	.L181:
 2523 0010 00000000 		.word	.LANCHOR7
 2524              		.cfi_endproc
 2525              	.LFE283:
 2526              		.size	comm_can_get_status_msg_3_index, .-comm_can_get_status_msg_3_index
 2527              		.section	.text.comm_can_get_status_msg_3_id,"ax",%progbits
 2528              		.align	1
 2529              		.p2align 4,,15
 2530              		.global	comm_can_get_status_msg_3_id
 2531              		.syntax unified
 2532              		.thumb
 2533              		.thumb_func
 2534              		.fpu fpv4-sp-d16
 2535              		.type	comm_can_get_status_msg_3_id, %function
 2536              	comm_can_get_status_msg_3_id:
 2537              	.LFB284:
 2538              		.loc 1 626 0
 2539              		.cfi_startproc
 2540              		@ args = 0, pretend = 0, frame = 0
 2541              		@ frame_needed = 0, uses_anonymous_args = 0
 2542              		@ link register save eliminated.
 2543              	.LVL224:
 2544 0000 10B4     		push	{r4}
 2545              		.cfi_def_cfa_offset 4
 2546              		.cfi_offset 4, -4
 2547 0002 084C     		ldr	r4, .L190
 2548              	.LBB207:
 2549              		.loc 1 627 0
 2550 0004 0023     		movs	r3, #0
 2551              	.LVL225:
 2552              	.L186:
 2553 0006 1A01     		lsls	r2, r3, #4
 2554 0008 0133     		adds	r3, r3, #1
 2555              	.LVL226:
 2556              		.loc 1 628 0
 2557 000a A158     		ldr	r1, [r4, r2]
 2558 000c 8142     		cmp	r1, r0
 2559 000e 05D0     		beq	.L189
 2560              		.loc 1 627 0 discriminator 2
 2561 0010 0A2B     		cmp	r3, #10
 2562 0012 F8D1     		bne	.L186
 2563              	.LBE207:
 2564              		.loc 1 633 0
 2565 0014 0020     		movs	r0, #0
ARM GAS  /tmp/ccjQGkoy.s 			page 46


 2566              	.LVL227:
 2567              		.loc 1 634 0
 2568 0016 5DF8044B 		ldr	r4, [sp], #4
 2569              		.cfi_remember_state
 2570              		.cfi_restore 4
 2571              		.cfi_def_cfa_offset 0
 2572 001a 7047     		bx	lr
 2573              	.LVL228:
 2574              	.L189:
 2575              		.cfi_restore_state
 2576              	.LBB208:
 2577              		.loc 1 629 0
 2578 001c A018     		adds	r0, r4, r2
 2579              	.LVL229:
 2580              	.LBE208:
 2581              		.loc 1 634 0
 2582 001e 5DF8044B 		ldr	r4, [sp], #4
 2583              		.cfi_restore 4
 2584              		.cfi_def_cfa_offset 0
 2585 0022 7047     		bx	lr
 2586              	.L191:
 2587              		.align	2
 2588              	.L190:
 2589 0024 00000000 		.word	.LANCHOR7
 2590              		.cfi_endproc
 2591              	.LFE284:
 2592              		.size	comm_can_get_status_msg_3_id, .-comm_can_get_status_msg_3_id
 2593              		.section	.text.comm_can_get_status_msg_4_index,"ax",%progbits
 2594              		.align	1
 2595              		.p2align 4,,15
 2596              		.global	comm_can_get_status_msg_4_index
 2597              		.syntax unified
 2598              		.thumb
 2599              		.thumb_func
 2600              		.fpu fpv4-sp-d16
 2601              		.type	comm_can_get_status_msg_4_index, %function
 2602              	comm_can_get_status_msg_4_index:
 2603              	.LFB285:
 2604              		.loc 1 645 0
 2605              		.cfi_startproc
 2606              		@ args = 0, pretend = 0, frame = 0
 2607              		@ frame_needed = 0, uses_anonymous_args = 0
 2608              		@ link register save eliminated.
 2609              	.LVL230:
 2610              		.loc 1 646 0
 2611 0000 0928     		cmp	r0, #9
 2612              		.loc 1 647 0
 2613 0002 DDBF     		ittte	le
 2614 0004 034B     		ldrle	r3, .L195
 2615 0006 00EB4000 		addle	r0, r0, r0, lsl #1
 2616              	.LVL231:
 2617 000a 03EBC000 		addle	r0, r3, r0, lsl #3
 2618              		.loc 1 649 0
 2619 000e 0020     		movgt	r0, #0
 2620              		.loc 1 651 0
 2621 0010 7047     		bx	lr
 2622              	.L196:
ARM GAS  /tmp/ccjQGkoy.s 			page 47


 2623 0012 00BF     		.align	2
 2624              	.L195:
 2625 0014 00000000 		.word	.LANCHOR5
 2626              		.cfi_endproc
 2627              	.LFE285:
 2628              		.size	comm_can_get_status_msg_4_index, .-comm_can_get_status_msg_4_index
 2629              		.section	.text.comm_can_get_status_msg_4_id,"ax",%progbits
 2630              		.align	1
 2631              		.p2align 4,,15
 2632              		.global	comm_can_get_status_msg_4_id
 2633              		.syntax unified
 2634              		.thumb
 2635              		.thumb_func
 2636              		.fpu fpv4-sp-d16
 2637              		.type	comm_can_get_status_msg_4_id, %function
 2638              	comm_can_get_status_msg_4_id:
 2639              	.LFB286:
 2640              		.loc 1 662 0
 2641              		.cfi_startproc
 2642              		@ args = 0, pretend = 0, frame = 0
 2643              		@ frame_needed = 0, uses_anonymous_args = 0
 2644              		@ link register save eliminated.
 2645              	.LVL232:
 2646 0000 10B4     		push	{r4}
 2647              		.cfi_def_cfa_offset 4
 2648              		.cfi_offset 4, -4
 2649 0002 0B4C     		ldr	r4, .L204
 2650              	.LBB209:
 2651              		.loc 1 663 0
 2652 0004 0023     		movs	r3, #0
 2653 0006 2246     		mov	r2, r4
 2654              	.LVL233:
 2655              	.L200:
 2656              		.loc 1 664 0
 2657 0008 1168     		ldr	r1, [r2]
 2658 000a 8142     		cmp	r1, r0
 2659 000c 02F11802 		add	r2, r2, #24
 2660 0010 06D0     		beq	.L203
 2661              		.loc 1 663 0 discriminator 2
 2662 0012 0133     		adds	r3, r3, #1
 2663              	.LVL234:
 2664 0014 0A2B     		cmp	r3, #10
 2665 0016 F7D1     		bne	.L200
 2666              	.LBE209:
 2667              		.loc 1 669 0
 2668 0018 0020     		movs	r0, #0
 2669              	.LVL235:
 2670              		.loc 1 670 0
 2671 001a 5DF8044B 		ldr	r4, [sp], #4
 2672              		.cfi_remember_state
 2673              		.cfi_restore 4
 2674              		.cfi_def_cfa_offset 0
 2675 001e 7047     		bx	lr
 2676              	.LVL236:
 2677              	.L203:
 2678              		.cfi_restore_state
 2679              	.LBB210:
ARM GAS  /tmp/ccjQGkoy.s 			page 48


 2680              		.loc 1 665 0
 2681 0020 03EB4303 		add	r3, r3, r3, lsl #1
 2682              	.LVL237:
 2683 0024 04EBC300 		add	r0, r4, r3, lsl #3
 2684              	.LVL238:
 2685              	.LBE210:
 2686              		.loc 1 670 0
 2687 0028 5DF8044B 		ldr	r4, [sp], #4
 2688              		.cfi_restore 4
 2689              		.cfi_def_cfa_offset 0
 2690 002c 7047     		bx	lr
 2691              	.L205:
 2692 002e 00BF     		.align	2
 2693              	.L204:
 2694 0030 00000000 		.word	.LANCHOR5
 2695              		.cfi_endproc
 2696              	.LFE286:
 2697              		.size	comm_can_get_status_msg_4_id, .-comm_can_get_status_msg_4_id
 2698              		.section	.text.comm_can_get_rx_frame,"ax",%progbits
 2699              		.align	1
 2700              		.p2align 4,,15
 2701              		.global	comm_can_get_rx_frame
 2702              		.syntax unified
 2703              		.thumb
 2704              		.thumb_func
 2705              		.fpu fpv4-sp-d16
 2706              		.type	comm_can_get_rx_frame, %function
 2707              	comm_can_get_rx_frame:
 2708              	.LFB287:
 2709              		.loc 1 672 0
 2710              		.cfi_startproc
 2711              		@ args = 0, pretend = 0, frame = 0
 2712              		@ frame_needed = 0, uses_anonymous_args = 0
 2713 0000 10B5     		push	{r4, lr}
 2714              		.cfi_def_cfa_offset 8
 2715              		.cfi_offset 4, -8
 2716              		.cfi_offset 14, -4
 2717              		.loc 1 674 0
 2718 0002 0E48     		ldr	r0, .L213
 2719 0004 FFF7FEFF 		bl	chMtxLock
 2720              	.LVL239:
 2721              		.loc 1 675 0
 2722 0008 0D4A     		ldr	r2, .L213+4
 2723 000a 0E49     		ldr	r1, .L213+8
 2724 000c 1368     		ldr	r3, [r2]
 2725 000e 0968     		ldr	r1, [r1]
 2726 0010 8B42     		cmp	r3, r1
 2727 0012 0ED0     		beq	.L207
 2728              	.LBB211:
 2729              		.loc 1 676 0
 2730 0014 03EB8301 		add	r1, r3, r3, lsl #2
 2731 0018 0133     		adds	r3, r3, #1
 2732 001a 0B4C     		ldr	r4, .L213+12
 2733              		.loc 1 682 0
 2734 001c 0748     		ldr	r0, .L213
 2735              		.loc 1 678 0
 2736 001e 642B     		cmp	r3, #100
ARM GAS  /tmp/ccjQGkoy.s 			page 49


 2737              		.loc 1 679 0
 2738 0020 08BF     		it	eq
 2739 0022 0023     		moveq	r3, #0
 2740              		.loc 1 676 0
 2741 0024 04EB8104 		add	r4, r4, r1, lsl #2
 2742              	.LVL240:
 2743              		.loc 1 679 0
 2744 0028 1360     		str	r3, [r2]
 2745              		.loc 1 682 0
 2746 002a FFF7FEFF 		bl	chMtxUnlock
 2747              	.LVL241:
 2748              	.L206:
 2749              	.LBE211:
 2750              		.loc 1 691 0
 2751 002e 2046     		mov	r0, r4
 2752 0030 10BD     		pop	{r4, pc}
 2753              	.L207:
 2754              		.loc 1 685 0
 2755 0032 0248     		ldr	r0, .L213
 2756 0034 FFF7FEFF 		bl	chMtxUnlock
 2757              	.LVL242:
 2758              		.loc 1 686 0
 2759 0038 0024     		movs	r4, #0
 2760 003a F8E7     		b	.L206
 2761              	.L214:
 2762              		.align	2
 2763              	.L213:
 2764 003c 00000000 		.word	.LANCHOR0
 2765 0040 00000000 		.word	.LANCHOR8
 2766 0044 00000000 		.word	.LANCHOR1
 2767 0048 00000000 		.word	.LANCHOR2
 2768              		.cfi_endproc
 2769              	.LFE287:
 2770              		.size	comm_can_get_rx_frame, .-comm_can_get_rx_frame
 2771              		.section	.text.cancom_process_thread,"ax",%progbits
 2772              		.align	1
 2773              		.p2align 4,,15
 2774              		.syntax unified
 2775              		.thumb
 2776              		.thumb_func
 2777              		.fpu fpv4-sp-d16
 2778              		.type	cancom_process_thread, %function
 2779              	cancom_process_thread:
 2780              	.LFB289:
 2781              		.loc 1 731 0
 2782              		.cfi_startproc
 2783              		@ args = 0, pretend = 0, frame = 496
 2784              		@ frame_needed = 0, uses_anonymous_args = 0
 2785              	.LVL243:
 2786 0000 2DE9F04F 		push	{r4, r5, r6, r7, r8, r9, r10, fp, lr}
 2787              		.cfi_def_cfa_offset 36
 2788              		.cfi_offset 4, -36
 2789              		.cfi_offset 5, -32
 2790              		.cfi_offset 6, -28
 2791              		.cfi_offset 7, -24
 2792              		.cfi_offset 8, -20
 2793              		.cfi_offset 9, -16
ARM GAS  /tmp/ccjQGkoy.s 			page 50


 2794              		.cfi_offset 10, -12
 2795              		.cfi_offset 11, -8
 2796              		.cfi_offset 14, -4
 2797              	.LBB212:
 2798              	.LBB213:
 2799              		.loc 2 135 0
 2800 0004 DFF81C93 		ldr	r9, .L308+44
 2801 0008 BB4A     		ldr	r2, .L308
 2802 000a D9F81830 		ldr	r3, [r9, #24]
 2803              	.LBE213:
 2804              	.LBE212:
 2805              		.loc 1 735 0
 2806 000e BB49     		ldr	r1, .L308+4
 2807 0010 DFF80CA3 		ldr	r10, .L308+40
 2808 0014 BA4F     		ldr	r7, .L308+8
 2809 0016 BB4E     		ldr	r6, .L308+12
 2810 0018 DFF800B3 		ldr	fp, .L308+36
 2811 001c DFF80883 		ldr	r8, .L308+48
 2812              		.loc 1 731 0
 2813 0020 2DED088B 		vpush.64	{d8, d9, d10, d11}
 2814              		.cfi_def_cfa_offset 68
 2815              		.cfi_offset 80, -68
 2816              		.cfi_offset 81, -64
 2817              		.cfi_offset 82, -60
 2818              		.cfi_offset 83, -56
 2819              		.cfi_offset 84, -52
 2820              		.cfi_offset 85, -48
 2821              		.cfi_offset 86, -44
 2822              		.cfi_offset 87, -40
 2823 0024 FDB0     		sub	sp, sp, #500
 2824              		.cfi_def_cfa_offset 568
 2825              	.LBB215:
 2826              	.LBB214:
 2827              		.loc 2 135 0
 2828 0026 9A61     		str	r2, [r3, #24]
 2829              	.LVL244:
 2830              	.LBE214:
 2831              	.LBE215:
 2832              	.LBB216:
 2833              	.LBB217:
 2834              	.LBB218:
 2835              	.LBB219:
 2836              	.LBB220:
 2837              		.loc 1 1037 0
 2838 0028 DFEDB7AA 		vldr.32	s21, .L308+16
 2839              	.LBE220:
 2840              	.LBE219:
 2841              	.LBB236:
 2842              	.LBB237:
 2843              		.loc 1 1020 0
 2844 002c 9FEDB79A 		vldr.32	s18, .L308+20
 2845              	.LBE237:
 2846              	.LBE236:
 2847              	.LBB254:
 2848              	.LBB255:
 2849              		.loc 1 993 0
 2850 0030 DFEDB78A 		vldr.32	s17, .L308+24
ARM GAS  /tmp/ccjQGkoy.s 			page 51


 2851              	.LBE255:
 2852              	.LBE254:
 2853              	.LBE218:
 2854              	.LBE217:
 2855              	.LBE216:
 2856              		.loc 1 735 0
 2857 0034 0B60     		str	r3, [r1]
 2858              		.loc 1 737 0
 2859 0036 0022     		movs	r2, #0
 2860 0038 0492     		str	r2, [sp, #16]
 2861              	.LVL245:
 2862              	.L216:
 2863              	.LBB292:
 2864              		.loc 1 745 0
 2865 003a 0120     		movs	r0, #1
 2866 003c FFF7FEFF 		bl	chEvtWaitAny
 2867              	.LVL246:
 2868              		.loc 1 747 0
 2869 0040 FFF7FEFF 		bl	app_get_configuration
 2870              	.LVL247:
 2871 0044 C37D     		ldrb	r3, [r0, #23]	@ zero_extendqisi2
 2872 0046 002B     		cmp	r3, #0
 2873 0048 F7D1     		bne	.L216
 2874              	.LBB290:
 2875              	.LBB287:
 2876              		.loc 1 876 0
 2877 004a 9FEDB28A 		vldr.32	s16, .L308+28
 2878              		.loc 1 787 0
 2879 004e 9FEDB2AA 		vldr.32	s20, .L308+32
 2880              	.L217:
 2881              	.LBE287:
 2882              	.LBE290:
 2883              		.loc 1 752 0
 2884 0052 FFF7FEFF 		bl	comm_can_get_rx_frame
 2885              	.LVL248:
 2886 0056 0028     		cmp	r0, #0
 2887 0058 EFD0     		beq	.L216
 2888              	.LBB291:
 2889              		.loc 1 753 0
 2890 005a 0446     		mov	r4, r0
 2891 005c 0FCC     		ldmia	r4!, {r0, r1, r2, r3}
 2892              	.LVL249:
 2893 005e 05AD     		add	r5, sp, #20
 2894 0060 0FC5     		stmia	r5!, {r0, r1, r2, r3}
 2895              		.loc 1 755 0
 2896 0062 9DF81820 		ldrb	r2, [sp, #24]	@ zero_extendqisi2
 2897              		.loc 1 753 0
 2898 0066 2368     		ldr	r3, [r4]
 2899 0068 2B60     		str	r3, [r5]
 2900              		.loc 1 755 0
 2901 006a 9306     		lsls	r3, r2, #26
 2902 006c 40F1FA80 		bpl	.L218
 2903              	.LBB288:
 2904              		.loc 1 756 0
 2905 0070 079C     		ldr	r4, [sp, #28]
 2906              	.LVL250:
 2907 0072 C4F31C04 		ubfx	r4, r4, #0, #29
ARM GAS  /tmp/ccjQGkoy.s 			page 52


 2908 0076 E5B2     		uxtb	r5, r4
 2909              	.LVL251:
 2910              		.loc 1 759 0
 2911 0078 FF2D     		cmp	r5, #255
 2912 007a C4F30724 		ubfx	r4, r4, #8, #8
 2913              	.LVL252:
 2914 007e 00F0FF80 		beq	.L242
 2915              		.loc 1 759 0 is_stmt 0 discriminator 1
 2916 0082 FFF7FEFF 		bl	app_get_configuration
 2917              	.LVL253:
 2918 0086 0378     		ldrb	r3, [r0]	@ zero_extendqisi2
 2919 0088 AB42     		cmp	r3, r5
 2920 008a 00F0F980 		beq	.L242
 2921              	.L243:
 2922              		.loc 1 983 0 is_stmt 1
 2923 008e 093C     		subs	r4, r4, #9
 2924 0090 072C     		cmp	r4, #7
 2925 0092 DED8     		bhi	.L217
 2926 0094 01A3     		adr	r3, .L265
 2927 0096 53F824F0 		ldr	pc, [r3, r4, lsl #2]
 2928 009a 00BF     		.p2align 2
 2929              	.L265:
 2930 009c DF010000 		.word	.L264+1
 2931 00a0 53000000 		.word	.L217+1
 2932 00a4 53000000 		.word	.L217+1
 2933 00a8 53000000 		.word	.L217+1
 2934 00ac 53000000 		.word	.L217+1
 2935 00b0 BF010000 		.word	.L266+1
 2936 00b4 5D010000 		.word	.L267+1
 2937 00b8 BD000000 		.word	.L268+1
 2938              		.p2align 1
 2939              	.L268:
 2940 00bc 974A     		ldr	r2, .L308+36
 2941              	.LBB271:
 2942              		.loc 1 1028 0
 2943 00be 0023     		movs	r3, #0
 2944 00c0 04E0     		b	.L280
 2945              	.LVL254:
 2946              	.L303:
 2947              	.LBB234:
 2948              		.loc 1 1030 0 discriminator 1
 2949 00c2 0131     		adds	r1, r1, #1
 2950 00c4 07D0     		beq	.L278
 2951              	.LBE234:
 2952              		.loc 1 1028 0 discriminator 2
 2953 00c6 0133     		adds	r3, r3, #1
 2954              	.LVL255:
 2955 00c8 0A2B     		cmp	r3, #10
 2956 00ca C2D0     		beq	.L217
 2957              	.LVL256:
 2958              	.L280:
 2959              	.LBB235:
 2960              		.loc 1 1030 0
 2961 00cc 1168     		ldr	r1, [r2]
 2962 00ce 8D42     		cmp	r5, r1
 2963 00d0 02F11802 		add	r2, r2, #24
 2964 00d4 F5D1     		bne	.L303
ARM GAS  /tmp/ccjQGkoy.s 			page 53


 2965              	.L278:
 2966              		.loc 1 1032 0
 2967 00d6 03EB4303 		add	r3, r3, r3, lsl #1
 2968              	.LVL257:
 2969              		.loc 1 1031 0
 2970 00da 0022     		movs	r2, #0
 2971              		.loc 1 1032 0
 2972 00dc 4BF83350 		str	r5, [fp, r3, lsl #3]
 2973              	.LVL258:
 2974 00e0 0BEBC304 		add	r4, fp, r3, lsl #3
 2975              		.loc 1 1031 0
 2976 00e4 0492     		str	r2, [sp, #16]
 2977              	.LBB221:
 2978              	.LBB222:
 2979              	.LBB223:
 2980              	.LBB224:
 2981              	.LBB225:
 2982              	.LBB226:
 2983              		.file 5 "ChibiOS_3.0.2/os/ext/CMSIS/include/core_cmFunc.h"
 2984              		.loc 5 546 0
 2985 00e6 2023     		movs	r3, #32
 2986              		.syntax unified
 2987              	@ 546 "ChibiOS_3.0.2/os/ext/CMSIS/include/core_cmFunc.h" 1
 2988 00e8 83F31188 		MSR basepri, r3
 2989              	@ 0 "" 2
 2990              	.LVL259:
 2991              		.thumb
 2992              		.syntax unified
 2993              	.LBE226:
 2994              	.LBE225:
 2995              	.LBE224:
 2996              	.LBE223:
 2997              	.LBB227:
 2998              	.LBB228:
 2999              		.file 6 "ChibiOS_3.0.2/os/rt/include/chvt.h"
 3000              		.loc 6 231 0
 3001 00ec D9F82830 		ldr	r3, [r9, #40]
 3002              	.LVL260:
 3003              	.LBE228:
 3004              	.LBE227:
 3005              	.LBB229:
 3006              	.LBB230:
 3007              	.LBB231:
 3008              	.LBB232:
 3009              	.LBB233:
 3010              		.loc 5 546 0
 3011              		.syntax unified
 3012              	@ 546 "ChibiOS_3.0.2/os/ext/CMSIS/include/core_cmFunc.h" 1
 3013 00f0 82F31188 		MSR basepri, r2
 3014              	@ 0 "" 2
 3015              	.LVL261:
 3016              		.thumb
 3017              		.syntax unified
 3018              	.LBE233:
 3019              	.LBE232:
 3020              	.LBE231:
 3021              	.LBE230:
ARM GAS  /tmp/ccjQGkoy.s 			page 54


 3022              	.LBE229:
 3023              	.LBE222:
 3024              	.LBE221:
 3025              		.loc 1 1033 0
 3026 00f4 6360     		str	r3, [r4, #4]
 3027              		.loc 1 1034 0
 3028 00f6 04A9     		add	r1, sp, #16
 3029 00f8 08A8     		add	r0, sp, #32
 3030 00fa FFF7FEFF 		bl	buffer_get_int16
 3031              	.LVL262:
 3032 00fe 07EE900A 		vmov	s15, r0	@ int
 3033 0102 B8EEE77A 		vcvt.f32.s32	s14, s15
 3034 0106 F2EE049A 		vmov.f32	s19, #1.0e+1
 3035 010a C7EE297A 		vdiv.f32	s15, s14, s19
 3036              		.loc 1 1035 0
 3037 010e 04A9     		add	r1, sp, #16
 3038 0110 08A8     		add	r0, sp, #32
 3039              		.loc 1 1034 0
 3040 0112 C4ED027A 		vstr.32	s15, [r4, #8]
 3041              		.loc 1 1035 0
 3042 0116 FFF7FEFF 		bl	buffer_get_int16
 3043              	.LVL263:
 3044 011a 07EE900A 		vmov	s15, r0	@ int
 3045 011e B8EEE77A 		vcvt.f32.s32	s14, s15
 3046              		.loc 1 1036 0
 3047 0122 04A9     		add	r1, sp, #16
 3048              		.loc 1 1035 0
 3049 0124 C7EE297A 		vdiv.f32	s15, s14, s19
 3050              		.loc 1 1036 0
 3051 0128 08A8     		add	r0, sp, #32
 3052              		.loc 1 1035 0
 3053 012a C4ED037A 		vstr.32	s15, [r4, #12]
 3054              		.loc 1 1036 0
 3055 012e FFF7FEFF 		bl	buffer_get_int16
 3056              	.LVL264:
 3057 0132 07EE900A 		vmov	s15, r0	@ int
 3058 0136 B8EEE77A 		vcvt.f32.s32	s14, s15
 3059              		.loc 1 1037 0
 3060 013a 04A9     		add	r1, sp, #16
 3061              		.loc 1 1036 0
 3062 013c C7EE297A 		vdiv.f32	s15, s14, s19
 3063              		.loc 1 1037 0
 3064 0140 08A8     		add	r0, sp, #32
 3065              		.loc 1 1036 0
 3066 0142 C4ED047A 		vstr.32	s15, [r4, #16]
 3067              		.loc 1 1037 0
 3068 0146 FFF7FEFF 		bl	buffer_get_int16
 3069              	.LVL265:
 3070 014a 07EE900A 		vmov	s15, r0	@ int
 3071 014e B8EEE77A 		vcvt.f32.s32	s14, s15
 3072 0152 C7EE2A7A 		vdiv.f32	s15, s14, s21
 3073 0156 C4ED057A 		vstr.32	s15, [r4, #20]
 3074              		.loc 1 1038 0
 3075 015a 7AE7     		b	.L217
 3076              	.L267:
 3077              	.LBE235:
 3078              	.LBE271:
ARM GAS  /tmp/ccjQGkoy.s 			page 55


 3079              	.LBB272:
 3080              		.loc 1 1014 0
 3081 015c 0023     		movs	r3, #0
 3082 015e 04E0     		b	.L277
 3083              	.LVL266:
 3084              	.L304:
 3085              	.LBB251:
 3086              		.loc 1 1016 0 discriminator 1
 3087 0160 0132     		adds	r2, r2, #1
 3088 0162 07D0     		beq	.L275
 3089              	.LBE251:
 3090              		.loc 1 1014 0 discriminator 2
 3091 0164 0A2B     		cmp	r3, #10
 3092 0166 3FF474AF 		beq	.L217
 3093              	.LVL267:
 3094              	.L277:
 3095              	.LBB252:
 3096              		.loc 1 1016 0
 3097 016a 1901     		lsls	r1, r3, #4
 3098              	.LBE252:
 3099              		.loc 1 1014 0
 3100 016c 0133     		adds	r3, r3, #1
 3101              	.LVL268:
 3102              	.LBB253:
 3103              		.loc 1 1016 0
 3104 016e 7258     		ldr	r2, [r6, r1]
 3105 0170 9542     		cmp	r5, r2
 3106 0172 F5D1     		bne	.L304
 3107              	.L275:
 3108              		.loc 1 1018 0
 3109 0174 7550     		str	r5, [r6, r1]
 3110              	.LVL269:
 3111              		.loc 1 1017 0
 3112 0176 0023     		movs	r3, #0
 3113              	.LVL270:
 3114              		.loc 1 1018 0
 3115 0178 7418     		adds	r4, r6, r1
 3116              	.LVL271:
 3117              	.L301:
 3118              		.loc 1 1017 0
 3119 017a 0493     		str	r3, [sp, #16]
 3120              	.LBB238:
 3121              	.LBB239:
 3122              	.LBB240:
 3123              	.LBB241:
 3124              	.LBB242:
 3125              	.LBB243:
 3126              		.loc 5 546 0
 3127 017c 2022     		movs	r2, #32
 3128              		.syntax unified
 3129              	@ 546 "ChibiOS_3.0.2/os/ext/CMSIS/include/core_cmFunc.h" 1
 3130 017e 82F31188 		MSR basepri, r2
 3131              	@ 0 "" 2
 3132              		.thumb
 3133              		.syntax unified
 3134              	.LBE243:
 3135              	.LBE242:
ARM GAS  /tmp/ccjQGkoy.s 			page 56


 3136              	.LBE241:
 3137              	.LBE240:
 3138              	.LBB244:
 3139              	.LBB245:
 3140              		.loc 6 231 0
 3141 0182 D9F82820 		ldr	r2, [r9, #40]
 3142              	.LVL272:
 3143              	.LBE245:
 3144              	.LBE244:
 3145              	.LBB246:
 3146              	.LBB247:
 3147              	.LBB248:
 3148              	.LBB249:
 3149              	.LBB250:
 3150              		.loc 5 546 0
 3151              		.syntax unified
 3152              	@ 546 "ChibiOS_3.0.2/os/ext/CMSIS/include/core_cmFunc.h" 1
 3153 0186 83F31188 		MSR basepri, r3
 3154              	@ 0 "" 2
 3155              	.LVL273:
 3156              		.thumb
 3157              		.syntax unified
 3158              	.LBE250:
 3159              	.LBE249:
 3160              	.LBE248:
 3161              	.LBE247:
 3162              	.LBE246:
 3163              	.LBE239:
 3164              	.LBE238:
 3165              		.loc 1 1020 0
 3166 018a 04A9     		add	r1, sp, #16
 3167              		.loc 1 1019 0
 3168 018c 6260     		str	r2, [r4, #4]
 3169              		.loc 1 1020 0
 3170 018e 08A8     		add	r0, sp, #32
 3171 0190 FFF7FEFF 		bl	buffer_get_int32
 3172              	.LVL274:
 3173 0194 07EE900A 		vmov	s15, r0	@ int
 3174 0198 B8EEE77A 		vcvt.f32.s32	s14, s15
 3175              		.loc 1 1021 0
 3176 019c 04A9     		add	r1, sp, #16
 3177              		.loc 1 1020 0
 3178 019e C7EE097A 		vdiv.f32	s15, s14, s18
 3179              		.loc 1 1021 0
 3180 01a2 08A8     		add	r0, sp, #32
 3181              		.loc 1 1020 0
 3182 01a4 C4ED027A 		vstr.32	s15, [r4, #8]
 3183              		.loc 1 1021 0
 3184 01a8 FFF7FEFF 		bl	buffer_get_int32
 3185              	.LVL275:
 3186 01ac 07EE900A 		vmov	s15, r0	@ int
 3187 01b0 B8EEE77A 		vcvt.f32.s32	s14, s15
 3188 01b4 C7EE097A 		vdiv.f32	s15, s14, s18
 3189 01b8 C4ED037A 		vstr.32	s15, [r4, #12]
 3190              		.loc 1 1022 0
 3191 01bc 49E7     		b	.L217
 3192              	.L266:
ARM GAS  /tmp/ccjQGkoy.s 			page 57


 3193              	.LBE253:
 3194              	.LBE272:
 3195              	.LBB273:
 3196              		.loc 1 1000 0
 3197 01be 0023     		movs	r3, #0
 3198 01c0 04E0     		b	.L274
 3199              	.LVL276:
 3200              	.L305:
 3201              	.LBB274:
 3202              		.loc 1 1002 0 discriminator 1
 3203 01c2 0132     		adds	r2, r2, #1
 3204 01c4 07D0     		beq	.L272
 3205              	.LBE274:
 3206              		.loc 1 1000 0 discriminator 2
 3207 01c6 0A2B     		cmp	r3, #10
 3208 01c8 3FF443AF 		beq	.L217
 3209              	.LVL277:
 3210              	.L274:
 3211              	.LBB275:
 3212              		.loc 1 1002 0
 3213 01cc 1901     		lsls	r1, r3, #4
 3214              	.LBE275:
 3215              		.loc 1 1000 0
 3216 01ce 0133     		adds	r3, r3, #1
 3217              	.LVL278:
 3218              	.LBB276:
 3219              		.loc 1 1002 0
 3220 01d0 7A58     		ldr	r2, [r7, r1]
 3221 01d2 AA42     		cmp	r2, r5
 3222 01d4 F5D1     		bne	.L305
 3223              	.L272:
 3224              		.loc 1 1003 0
 3225 01d6 0023     		movs	r3, #0
 3226              	.LVL279:
 3227              		.loc 1 1004 0
 3228 01d8 7D50     		str	r5, [r7, r1]
 3229              	.LVL280:
 3230 01da 7C18     		adds	r4, r7, r1
 3231 01dc CDE7     		b	.L301
 3232              	.LVL281:
 3233              	.L264:
 3234 01de 504A     		ldr	r2, .L308+40
 3235              	.LBE276:
 3236              	.LBE273:
 3237              	.LBB277:
 3238              		.loc 1 985 0
 3239 01e0 0023     		movs	r3, #0
 3240 01e2 05E0     		b	.L271
 3241              	.LVL282:
 3242              	.L306:
 3243              	.LBB269:
 3244              		.loc 1 987 0 discriminator 1
 3245 01e4 0131     		adds	r1, r1, #1
 3246 01e6 08D0     		beq	.L269
 3247              	.LBE269:
 3248              		.loc 1 985 0 discriminator 2
 3249 01e8 0133     		adds	r3, r3, #1
ARM GAS  /tmp/ccjQGkoy.s 			page 58


 3250              	.LVL283:
 3251 01ea 0A2B     		cmp	r3, #10
 3252 01ec 3FF431AF 		beq	.L217
 3253              	.LVL284:
 3254              	.L271:
 3255              	.LBB270:
 3256              		.loc 1 987 0
 3257 01f0 1168     		ldr	r1, [r2]
 3258 01f2 A942     		cmp	r1, r5
 3259 01f4 02F11402 		add	r2, r2, #20
 3260 01f8 F4D1     		bne	.L306
 3261              	.L269:
 3262              		.loc 1 989 0
 3263 01fa 03EB8303 		add	r3, r3, r3, lsl #2
 3264              	.LVL285:
 3265              		.loc 1 988 0
 3266 01fe 0022     		movs	r2, #0
 3267              		.loc 1 989 0
 3268 0200 4AF82350 		str	r5, [r10, r3, lsl #2]
 3269              	.LVL286:
 3270 0204 0AEB8304 		add	r4, r10, r3, lsl #2
 3271              		.loc 1 988 0
 3272 0208 0492     		str	r2, [sp, #16]
 3273              	.LBB256:
 3274              	.LBB257:
 3275              	.LBB258:
 3276              	.LBB259:
 3277              	.LBB260:
 3278              	.LBB261:
 3279              		.loc 5 546 0
 3280 020a 2023     		movs	r3, #32
 3281              		.syntax unified
 3282              	@ 546 "ChibiOS_3.0.2/os/ext/CMSIS/include/core_cmFunc.h" 1
 3283 020c 83F31188 		MSR basepri, r3
 3284              	@ 0 "" 2
 3285              	.LVL287:
 3286              		.thumb
 3287              		.syntax unified
 3288              	.LBE261:
 3289              	.LBE260:
 3290              	.LBE259:
 3291              	.LBE258:
 3292              	.LBB262:
 3293              	.LBB263:
 3294              		.loc 6 231 0
 3295 0210 D9F82830 		ldr	r3, [r9, #40]
 3296              	.LVL288:
 3297              	.LBE263:
 3298              	.LBE262:
 3299              	.LBB264:
 3300              	.LBB265:
 3301              	.LBB266:
 3302              	.LBB267:
 3303              	.LBB268:
 3304              		.loc 5 546 0
 3305              		.syntax unified
 3306              	@ 546 "ChibiOS_3.0.2/os/ext/CMSIS/include/core_cmFunc.h" 1
ARM GAS  /tmp/ccjQGkoy.s 			page 59


 3307 0214 82F31188 		MSR basepri, r2
 3308              	@ 0 "" 2
 3309              	.LVL289:
 3310              		.thumb
 3311              		.syntax unified
 3312              	.LBE268:
 3313              	.LBE267:
 3314              	.LBE266:
 3315              	.LBE265:
 3316              	.LBE264:
 3317              	.LBE257:
 3318              	.LBE256:
 3319              		.loc 1 990 0
 3320 0218 6360     		str	r3, [r4, #4]
 3321              		.loc 1 991 0
 3322 021a 04A9     		add	r1, sp, #16
 3323 021c 08A8     		add	r0, sp, #32
 3324 021e FFF7FEFF 		bl	buffer_get_int32
 3325              	.LVL290:
 3326 0222 07EE900A 		vmov	s15, r0	@ int
 3327 0226 F8EEE77A 		vcvt.f32.s32	s15, s15
 3328              		.loc 1 992 0
 3329 022a 04A9     		add	r1, sp, #16
 3330              		.loc 1 991 0
 3331 022c C4ED027A 		vstr.32	s15, [r4, #8]
 3332              		.loc 1 992 0
 3333 0230 08A8     		add	r0, sp, #32
 3334 0232 FFF7FEFF 		bl	buffer_get_int16
 3335              	.LVL291:
 3336 0236 07EE900A 		vmov	s15, r0	@ int
 3337 023a F8EEE76A 		vcvt.f32.s32	s13, s15
 3338 023e B2EE047A 		vmov.f32	s14, #1.0e+1
 3339 0242 C6EE877A 		vdiv.f32	s15, s13, s14
 3340              		.loc 1 993 0
 3341 0246 04A9     		add	r1, sp, #16
 3342 0248 08A8     		add	r0, sp, #32
 3343              		.loc 1 992 0
 3344 024a C4ED037A 		vstr.32	s15, [r4, #12]
 3345              		.loc 1 993 0
 3346 024e FFF7FEFF 		bl	buffer_get_int16
 3347              	.LVL292:
 3348 0252 07EE900A 		vmov	s15, r0	@ int
 3349 0256 B8EEE77A 		vcvt.f32.s32	s14, s15
 3350 025a C7EE287A 		vdiv.f32	s15, s14, s17
 3351 025e C4ED047A 		vstr.32	s15, [r4, #16]
 3352              		.loc 1 994 0
 3353 0262 F6E6     		b	.L217
 3354              	.LVL293:
 3355              	.L218:
 3356              	.LBE270:
 3357              	.LBE277:
 3358              	.LBE288:
 3359              		.loc 1 1047 0
 3360 0264 D8F80030 		ldr	r3, [r8]
 3361 0268 002B     		cmp	r3, #0
 3362 026a 3FF4F2AE 		beq	.L217
 3363              		.loc 1 1048 0
ARM GAS  /tmp/ccjQGkoy.s 			page 60


 3364 026e BDF81C00 		ldrh	r0, [sp, #28]
 3365 0272 02F00F02 		and	r2, r2, #15
 3366 0276 C0F30A00 		ubfx	r0, r0, #0, #11
 3367 027a 08A9     		add	r1, sp, #32
 3368 027c 9847     		blx	r3
 3369              	.LVL294:
 3370 027e E8E6     		b	.L217
 3371              	.LVL295:
 3372              	.L242:
 3373              	.LBB289:
 3374              		.loc 1 760 0
 3375 0280 1A2C     		cmp	r4, #26
 3376 0282 3FF604AF 		bhi	.L243
 3377 0286 01A3     		adr	r3, .L222
 3378 0288 53F824F0 		ldr	pc, [r3, r4, lsl #2]
 3379              		.p2align 2
 3380              	.L222:
 3381 028c 8D060000 		.word	.L221+1
 3382 0290 73060000 		.word	.L223+1
 3383 0294 A7060000 		.word	.L224+1
 3384 0298 23060000 		.word	.L225+1
 3385 029c 59060000 		.word	.L226+1
 3386 02a0 3D060000 		.word	.L227+1
 3387 02a4 FB050000 		.word	.L228+1
 3388 02a8 8B050000 		.word	.L229+1
 3389 02ac 53050000 		.word	.L230+1
 3390 02b0 8F000000 		.word	.L243+1
 3391 02b4 39050000 		.word	.L231+1
 3392 02b8 1F050000 		.word	.L232+1
 3393 02bc 05050000 		.word	.L233+1
 3394 02c0 EB040000 		.word	.L234+1
 3395 02c4 8F000000 		.word	.L243+1
 3396 02c8 8F000000 		.word	.L243+1
 3397 02cc 8F000000 		.word	.L243+1
 3398 02d0 CF040000 		.word	.L235+1
 3399 02d4 BB040000 		.word	.L236+1
 3400 02d8 7F040000 		.word	.L237+1
 3401 02dc 5F040000 		.word	.L238+1
 3402 02e0 F9030000 		.word	.L239+1
 3403 02e4 F9030000 		.word	.L239+1
 3404 02e8 93030000 		.word	.L240+1
 3405 02ec 93030000 		.word	.L240+1
 3406 02f0 2D030000 		.word	.L241+1
 3407 02f4 2D030000 		.word	.L241+1
 3408              		.p2align 1
 3409              	.L309:
 3410              		.align	2
 3411              	.L308:
 3412 02f8 00000000 		.word	.LC2
 3413 02fc 00000000 		.word	.LANCHOR3
 3414 0300 00000000 		.word	.LANCHOR6
 3415 0304 00000000 		.word	.LANCHOR7
 3416 0308 00004842 		.word	1112014848
 3417 030c 00401C46 		.word	1176256512
 3418 0310 00007A44 		.word	1148846080
 3419 0314 0050C347 		.word	1203982336
 3420 0318 00247449 		.word	1232348160
ARM GAS  /tmp/ccjQGkoy.s 			page 61


 3421 031c 00000000 		.word	.LANCHOR5
 3422 0320 00000000 		.word	.LANCHOR4
 3423 0324 00000000 		.word	ch
 3424 0328 00000000 		.word	.LANCHOR13
 3425              	.L241:
 3426              	.LBB278:
 3427              		.loc 1 960 0
 3428 032c 0023     		movs	r3, #0
 3429              		.loc 1 961 0
 3430 032e 04A9     		add	r1, sp, #16
 3431 0330 08A8     		add	r0, sp, #32
 3432 0332 B0EE680A 		vmov.f32	s0, s17
 3433              		.loc 1 960 0
 3434 0336 0493     		str	r3, [sp, #16]
 3435              		.loc 1 961 0
 3436 0338 FFF7FEFF 		bl	buffer_get_float32
 3437              	.LVL296:
 3438              		.loc 1 962 0
 3439 033c 04A9     		add	r1, sp, #16
 3440              		.loc 1 961 0
 3441 033e F0EE409A 		vmov.f32	s19, s0
 3442              	.LVL297:
 3443              		.loc 1 962 0
 3444 0342 08A8     		add	r0, sp, #32
 3445 0344 B0EE680A 		vmov.f32	s0, s17
 3446              	.LVL298:
 3447 0348 FFF7FEFF 		bl	buffer_get_float32
 3448              	.LVL299:
 3449 034c B0EE40BA 		vmov.f32	s22, s0
 3450              	.LVL300:
 3451              		.loc 1 963 0
 3452 0350 FFF7FEFF 		bl	mc_interface_get_configuration
 3453              	.LVL301:
 3454 0354 4FF4E472 		mov	r2, #456
 3455 0358 0146     		mov	r1, r0
 3456 035a 0AA8     		add	r0, sp, #40
 3457 035c FFF7FEFF 		bl	memcpy
 3458              	.LVL302:
 3459              		.loc 1 965 0
 3460 0360 DDED4A7A 		vldr.32	s15, [sp, #296]
 3461 0364 F4EE697A 		vcmp.f32	s15, s19
 3462 0368 F1EE10FA 		vmrs	APSR_nzcv, FPSCR
 3463 036c 07D1     		bne	.L260
 3464              		.loc 1 965 0 is_stmt 0 discriminator 1
 3465 036e DDED527A 		vldr.32	s15, [sp, #328]
 3466 0372 F4EE4B7A 		vcmp.f32	s15, s22
 3467 0376 F1EE10FA 		vmrs	APSR_nzcv, FPSCR
 3468 037a 3FF488AE 		beq	.L243
 3469              	.L260:
 3470              		.loc 1 970 0 is_stmt 1
 3471 037e 1A2C     		cmp	r4, #26
 3472              		.loc 1 967 0
 3473 0380 CDED4A9A 		vstr.32	s19, [sp, #296]
 3474              		.loc 1 968 0
 3475 0384 8DED52BA 		vstr.32	s22, [sp, #328]
 3476              		.loc 1 970 0
 3477 0388 32D0     		beq	.L302
ARM GAS  /tmp/ccjQGkoy.s 			page 62


 3478              	.LVL303:
 3479              	.L262:
 3480              		.loc 1 974 0
 3481 038a 0AA8     		add	r0, sp, #40
 3482 038c FFF7FEFF 		bl	mc_interface_set_configuration
 3483              	.LVL304:
 3484              	.LBE278:
 3485              		.loc 1 976 0
 3486 0390 7DE6     		b	.L243
 3487              	.L240:
 3488              	.LBB279:
 3489              		.loc 1 941 0
 3490 0392 0023     		movs	r3, #0
 3491              		.loc 1 942 0
 3492 0394 04A9     		add	r1, sp, #16
 3493 0396 08A8     		add	r0, sp, #32
 3494 0398 B0EE680A 		vmov.f32	s0, s17
 3495              		.loc 1 941 0
 3496 039c 0493     		str	r3, [sp, #16]
 3497              		.loc 1 942 0
 3498 039e FFF7FEFF 		bl	buffer_get_float32
 3499              	.LVL305:
 3500              		.loc 1 943 0
 3501 03a2 04A9     		add	r1, sp, #16
 3502              		.loc 1 942 0
 3503 03a4 F0EE409A 		vmov.f32	s19, s0
 3504              	.LVL306:
 3505              		.loc 1 943 0
 3506 03a8 08A8     		add	r0, sp, #32
 3507 03aa B0EE680A 		vmov.f32	s0, s17
 3508              	.LVL307:
 3509 03ae FFF7FEFF 		bl	buffer_get_float32
 3510              	.LVL308:
 3511 03b2 B0EE40BA 		vmov.f32	s22, s0
 3512              	.LVL309:
 3513              		.loc 1 944 0
 3514 03b6 FFF7FEFF 		bl	mc_interface_get_configuration
 3515              	.LVL310:
 3516 03ba 4FF4E472 		mov	r2, #456
 3517 03be 0146     		mov	r1, r0
 3518 03c0 0AA8     		add	r0, sp, #40
 3519 03c2 FFF7FEFF 		bl	memcpy
 3520              	.LVL311:
 3521              		.loc 1 946 0
 3522 03c6 DDED0E7A 		vldr.32	s15, [sp, #56]
 3523 03ca F4EE697A 		vcmp.f32	s15, s19
 3524 03ce F1EE10FA 		vmrs	APSR_nzcv, FPSCR
 3525 03d2 07D1     		bne	.L257
 3526              		.loc 1 946 0 is_stmt 0 discriminator 1
 3527 03d4 DDED0D7A 		vldr.32	s15, [sp, #52]
 3528 03d8 F4EE4B7A 		vcmp.f32	s15, s22
 3529 03dc F1EE10FA 		vmrs	APSR_nzcv, FPSCR
 3530 03e0 3FF455AE 		beq	.L243
 3531              	.L257:
 3532              		.loc 1 950 0 is_stmt 1
 3533 03e4 182C     		cmp	r4, #24
 3534              		.loc 1 947 0
ARM GAS  /tmp/ccjQGkoy.s 			page 63


 3535 03e6 CDED0E9A 		vstr.32	s19, [sp, #56]
 3536              		.loc 1 948 0
 3537 03ea 8DED0DBA 		vstr.32	s22, [sp, #52]
 3538              		.loc 1 950 0
 3539 03ee CCD1     		bne	.L262
 3540              	.LVL312:
 3541              	.L302:
 3542              	.LBE279:
 3543              	.LBB280:
 3544              		.loc 1 971 0
 3545 03f0 0AA8     		add	r0, sp, #40
 3546 03f2 FFF7FEFF 		bl	conf_general_store_mc_configuration
 3547              	.LVL313:
 3548 03f6 C8E7     		b	.L262
 3549              	.L239:
 3550              	.LBE280:
 3551              	.LBB281:
 3552              		.loc 1 922 0
 3553 03f8 0023     		movs	r3, #0
 3554              		.loc 1 923 0
 3555 03fa 04A9     		add	r1, sp, #16
 3556 03fc 08A8     		add	r0, sp, #32
 3557 03fe B0EE680A 		vmov.f32	s0, s17
 3558              		.loc 1 922 0
 3559 0402 0493     		str	r3, [sp, #16]
 3560              		.loc 1 923 0
 3561 0404 FFF7FEFF 		bl	buffer_get_float32
 3562              	.LVL314:
 3563              		.loc 1 924 0
 3564 0408 04A9     		add	r1, sp, #16
 3565              		.loc 1 923 0
 3566 040a F0EE409A 		vmov.f32	s19, s0
 3567              	.LVL315:
 3568              		.loc 1 924 0
 3569 040e 08A8     		add	r0, sp, #32
 3570 0410 B0EE680A 		vmov.f32	s0, s17
 3571              	.LVL316:
 3572 0414 FFF7FEFF 		bl	buffer_get_float32
 3573              	.LVL317:
 3574 0418 B0EE40BA 		vmov.f32	s22, s0
 3575              	.LVL318:
 3576              		.loc 1 925 0
 3577 041c FFF7FEFF 		bl	mc_interface_get_configuration
 3578              	.LVL319:
 3579 0420 4FF4E472 		mov	r2, #456
 3580 0424 0146     		mov	r1, r0
 3581 0426 0AA8     		add	r0, sp, #40
 3582 0428 FFF7FEFF 		bl	memcpy
 3583              	.LVL320:
 3584              		.loc 1 927 0
 3585 042c DDED0C7A 		vldr.32	s15, [sp, #48]
 3586 0430 F4EE697A 		vcmp.f32	s15, s19
 3587 0434 F1EE10FA 		vmrs	APSR_nzcv, FPSCR
 3588 0438 07D1     		bne	.L254
 3589              		.loc 1 927 0 is_stmt 0 discriminator 1
 3590 043a DDED0B7A 		vldr.32	s15, [sp, #44]
 3591 043e F4EE4B7A 		vcmp.f32	s15, s22
ARM GAS  /tmp/ccjQGkoy.s 			page 64


 3592 0442 F1EE10FA 		vmrs	APSR_nzcv, FPSCR
 3593 0446 3FF422AE 		beq	.L243
 3594              	.L254:
 3595              		.loc 1 931 0 is_stmt 1
 3596 044a 162C     		cmp	r4, #22
 3597              		.loc 1 928 0
 3598 044c CDED0C9A 		vstr.32	s19, [sp, #48]
 3599              		.loc 1 929 0
 3600 0450 8DED0BBA 		vstr.32	s22, [sp, #44]
 3601              		.loc 1 931 0
 3602 0454 99D1     		bne	.L262
 3603              	.LBE281:
 3604              	.LBB282:
 3605              		.loc 1 971 0
 3606 0456 0AA8     		add	r0, sp, #40
 3607 0458 FFF7FEFF 		bl	conf_general_store_mc_configuration
 3608              	.LVL321:
 3609 045c 95E7     		b	.L262
 3610              	.LVL322:
 3611              	.L238:
 3612              	.LBE282:
 3613              		.loc 1 916 0
 3614 045e B348     		ldr	r0, .L310
 3615 0460 B349     		ldr	r1, .L310+4
 3616 0462 0368     		ldr	r3, [r0]
 3617 0464 9DF82020 		ldrb	r2, [sp, #32]	@ zero_extendqisi2
 3618 0468 CA54     		strb	r2, [r1, r3]
 3619 046a 5A1C     		adds	r2, r3, #1
 3620              		.loc 1 917 0
 3621 046c B14B     		ldr	r3, .L310+8
 3622 046e A3FB0213 		umull	r1, r3, r3, r2
 3623 0472 1B09     		lsrs	r3, r3, #4
 3624 0474 3221     		movs	r1, #50
 3625 0476 01FB1323 		mls	r3, r1, r3, r2
 3626 047a 0360     		str	r3, [r0]
 3627              		.loc 1 918 0
 3628 047c E9E5     		b	.L217
 3629              	.L237:
 3630              	.LBB283:
 3631              		.loc 1 896 0
 3632 047e 0223     		movs	r3, #2
 3633              		.loc 1 897 0
 3634 0480 04A9     		add	r1, sp, #16
 3635 0482 08A8     		add	r0, sp, #32
 3636 0484 B0EE680A 		vmov.f32	s0, s17
 3637              		.loc 1 896 0
 3638 0488 0493     		str	r3, [sp, #16]
 3639 048a 9DF82150 		ldrb	r5, [sp, #33]	@ zero_extendqisi2
 3640              	.LVL323:
 3641              		.loc 1 897 0
 3642 048e FFF7FEFF 		bl	buffer_get_float32
 3643              	.LVL324:
 3644              		.loc 1 898 0
 3645 0492 0021     		movs	r1, #0
 3646 0494 0120     		movs	r0, #1
 3647 0496 FFF7FEFF 		bl	conf_general_detect_apply_all_foc
 3648              	.LVL325:
ARM GAS  /tmp/ccjQGkoy.s 			page 65


 3649              		.loc 1 899 0
 3650 049a 041E     		subs	r4, r0, #0
 3651 049c 02DB     		blt	.L252
 3652              		.loc 1 899 0 is_stmt 0 discriminator 1
 3653 049e 002D     		cmp	r5, #0
 3654 04a0 40F02381 		bne	.L307
 3655              	.LVL326:
 3656              	.L252:
 3657              		.loc 1 911 0 is_stmt 1
 3658 04a4 9DF82000 		ldrb	r0, [sp, #32]	@ zero_extendqisi2
 3659              		.loc 1 910 0
 3660 04a8 8DF82840 		strb	r4, [sp, #40]
 3661              		.loc 1 911 0
 3662 04ac 40F4A050 		orr	r0, r0, #5120
 3663 04b0 0122     		movs	r2, #1
 3664 04b2 0AA9     		add	r1, sp, #40
 3665 04b4 FFF7FEFF 		bl	comm_can_transmit_eid
 3666              	.LVL327:
 3667              	.LBE283:
 3668              		.loc 1 913 0
 3669 04b8 CBE5     		b	.L217
 3670              	.LVL328:
 3671              	.L236:
 3672              		.loc 1 889 0
 3673 04ba 9F4B     		ldr	r3, .L310+12
 3674 04bc 1868     		ldr	r0, [r3]
 3675 04be 0028     		cmp	r0, #0
 3676 04c0 3FF4C7AD 		beq	.L217
 3677              		.loc 1 890 0
 3678 04c4 4FF00051 		mov	r1, #536870912
 3679 04c8 FFF7FEFF 		bl	chEvtSignal
 3680              	.LVL329:
 3681 04cc C1E5     		b	.L217
 3682              	.L235:
 3683              	.LBB285:
 3684              		.loc 1 882 0
 3685 04ce FFF7FEFF 		bl	app_get_configuration
 3686              	.LVL330:
 3687              		.loc 1 883 0
 3688 04d2 9DF82030 		ldrb	r3, [sp, #32]	@ zero_extendqisi2
 3689              		.loc 1 882 0
 3690 04d6 0278     		ldrb	r2, [r0]	@ zero_extendqisi2
 3691 04d8 8DF82820 		strb	r2, [sp, #40]
 3692              		.loc 1 883 0
 3693 04dc 43F49050 		orr	r0, r3, #4608
 3694 04e0 0122     		movs	r2, #1
 3695 04e2 0AA9     		add	r1, sp, #40
 3696 04e4 FFF7FEFF 		bl	comm_can_transmit_eid
 3697              	.LVL331:
 3698              	.LBE285:
 3699              		.loc 1 885 0
 3700 04e8 B3E5     		b	.L217
 3701              	.L234:
 3702              		.loc 1 875 0
 3703 04ea 0023     		movs	r3, #0
 3704              		.loc 1 876 0
 3705 04ec 04A9     		add	r1, sp, #16
ARM GAS  /tmp/ccjQGkoy.s 			page 66


 3706 04ee 08A8     		add	r0, sp, #32
 3707 04f0 B0EE480A 		vmov.f32	s0, s16
 3708              		.loc 1 875 0
 3709 04f4 0493     		str	r3, [sp, #16]
 3710              		.loc 1 876 0
 3711 04f6 FFF7FEFF 		bl	buffer_get_float32
 3712              	.LVL332:
 3713 04fa FFF7FEFF 		bl	mc_interface_set_handbrake_rel
 3714              	.LVL333:
 3715              		.loc 1 877 0
 3716 04fe FFF7FEFF 		bl	timeout_reset
 3717              	.LVL334:
 3718              		.loc 1 878 0
 3719 0502 A6E5     		b	.L217
 3720              	.L233:
 3721              		.loc 1 869 0
 3722 0504 0023     		movs	r3, #0
 3723              		.loc 1 870 0
 3724 0506 04A9     		add	r1, sp, #16
 3725 0508 08A8     		add	r0, sp, #32
 3726 050a B0EE680A 		vmov.f32	s0, s17
 3727              		.loc 1 869 0
 3728 050e 0493     		str	r3, [sp, #16]
 3729              		.loc 1 870 0
 3730 0510 FFF7FEFF 		bl	buffer_get_float32
 3731              	.LVL335:
 3732 0514 FFF7FEFF 		bl	mc_interface_set_handbrake
 3733              	.LVL336:
 3734              		.loc 1 871 0
 3735 0518 FFF7FEFF 		bl	timeout_reset
 3736              	.LVL337:
 3737              		.loc 1 872 0
 3738 051c 99E5     		b	.L217
 3739              	.L232:
 3740              		.loc 1 863 0
 3741 051e 0023     		movs	r3, #0
 3742              		.loc 1 864 0
 3743 0520 04A9     		add	r1, sp, #16
 3744 0522 08A8     		add	r0, sp, #32
 3745 0524 B0EE480A 		vmov.f32	s0, s16
 3746              		.loc 1 863 0
 3747 0528 0493     		str	r3, [sp, #16]
 3748              		.loc 1 864 0
 3749 052a FFF7FEFF 		bl	buffer_get_float32
 3750              	.LVL338:
 3751 052e FFF7FEFF 		bl	mc_interface_set_brake_current_rel
 3752              	.LVL339:
 3753              		.loc 1 865 0
 3754 0532 FFF7FEFF 		bl	timeout_reset
 3755              	.LVL340:
 3756              		.loc 1 866 0
 3757 0536 8CE5     		b	.L217
 3758              	.L231:
 3759              		.loc 1 857 0
 3760 0538 0023     		movs	r3, #0
 3761              		.loc 1 858 0
 3762 053a 04A9     		add	r1, sp, #16
ARM GAS  /tmp/ccjQGkoy.s 			page 67


 3763 053c 08A8     		add	r0, sp, #32
 3764 053e B0EE480A 		vmov.f32	s0, s16
 3765              		.loc 1 857 0
 3766 0542 0493     		str	r3, [sp, #16]
 3767              		.loc 1 858 0
 3768 0544 FFF7FEFF 		bl	buffer_get_float32
 3769              	.LVL341:
 3770 0548 FFF7FEFF 		bl	mc_interface_set_current_rel
 3771              	.LVL342:
 3772              		.loc 1 859 0
 3773 054c FFF7FEFF 		bl	timeout_reset
 3774              	.LVL343:
 3775              		.loc 1 860 0
 3776 0550 7FE5     		b	.L217
 3777              	.L230:
 3778              		.loc 1 841 0
 3779 0552 9DF82130 		ldrb	r3, [sp, #33]	@ zero_extendqisi2
 3780              		.loc 1 838 0
 3781 0556 7949     		ldr	r1, .L310+16
 3782 0558 9DF82020 		ldrb	r2, [sp, #32]	@ zero_extendqisi2
 3783 055c 0A60     		str	r2, [r1]
 3784              		.loc 1 841 0
 3785 055e 012B     		cmp	r3, #1
 3786              		.loc 1 839 0
 3787 0560 4FF00202 		mov	r2, #2
 3788 0564 0492     		str	r2, [sp, #16]
 3789              	.LVL344:
 3790              		.loc 1 841 0
 3791 0566 00F0B680 		beq	.L249
 3792 056a C0F0A980 		bcc	.L250
 3793 056e 9342     		cmp	r3, r2
 3794 0570 7FF48DAD 		bne	.L243
 3795              		.loc 1 849 0
 3796 0574 9DF81810 		ldrb	r1, [sp, #24]	@ zero_extendqisi2
 3797 0578 01F00F01 		and	r1, r1, #15
 3798 057c 0239     		subs	r1, r1, #2
 3799 057e 0022     		movs	r2, #0
 3800 0580 0DF12200 		add	r0, sp, #34
 3801 0584 FFF7FEFF 		bl	commands_process_packet
 3802              	.LVL345:
 3803              		.loc 1 850 0
 3804 0588 63E5     		b	.L217
 3805              	.L229:
 3806              		.loc 1 808 0
 3807 058a 9DF82330 		ldrb	r3, [sp, #35]	@ zero_extendqisi2
 3808              		.loc 1 807 0
 3809 058e 9DF82220 		ldrb	r2, [sp, #34]	@ zero_extendqisi2
 3810              		.loc 1 805 0
 3811 0592 6A48     		ldr	r0, .L310+16
 3812 0594 9DF82010 		ldrb	r1, [sp, #32]	@ zero_extendqisi2
 3813 0598 0160     		str	r1, [r0]
 3814              		.loc 1 808 0
 3815 059a 43EA0222 		orr	r2, r3, r2, lsl #8
 3816 059e 0423     		movs	r3, #4
 3817 05a0 0493     		str	r3, [sp, #16]
 3818              		.loc 1 810 0
 3819 05a2 B2F5007F 		cmp	r2, #512
ARM GAS  /tmp/ccjQGkoy.s 			page 68


 3820              		.loc 1 806 0
 3821 05a6 9DF82130 		ldrb	r3, [sp, #33]	@ zero_extendqisi2
 3822 05aa 0093     		str	r3, [sp]
 3823              	.LVL346:
 3824              		.loc 1 810 0
 3825 05ac 3FF651AD 		bhi	.L217
 3826              	.LVL347:
 3827              		.loc 1 815 0
 3828 05b0 0623     		movs	r3, #6
 3829 05b2 0493     		str	r3, [sp, #16]
 3830              		.loc 1 814 0
 3831 05b4 9DF82430 		ldrb	r3, [sp, #36]	@ zero_extendqisi2
 3832 05b8 0193     		str	r3, [sp, #4]
 3833              	.LVL348:
 3834              		.loc 1 817 0
 3835 05ba 1146     		mov	r1, r2
 3836              		.loc 1 815 0
 3837 05bc 9DF82530 		ldrb	r3, [sp, #37]	@ zero_extendqisi2
 3838              		.loc 1 817 0
 3839 05c0 5F48     		ldr	r0, .L310+20
 3840 05c2 0392     		str	r2, [sp, #12]
 3841              		.loc 1 815 0
 3842 05c4 0293     		str	r3, [sp, #8]
 3843              	.LVL349:
 3844              		.loc 1 817 0
 3845 05c6 FFF7FEFF 		bl	crc16
 3846              	.LVL350:
 3847              		.loc 1 819 0
 3848 05ca 019B     		ldr	r3, [sp, #4]
 3849 05cc 1A46     		mov	r2, r3
 3850 05ce 029B     		ldr	r3, [sp, #8]
 3851 05d0 43EA0223 		orr	r3, r3, r2, lsl #8
 3852              		.loc 1 817 0
 3853 05d4 9842     		cmp	r0, r3
 3854 05d6 039A     		ldr	r2, [sp, #12]
 3855 05d8 7FF43BAD 		bne	.L217
 3856              		.loc 1 820 0
 3857 05dc 009B     		ldr	r3, [sp]
 3858 05de 012B     		cmp	r3, #1
 3859 05e0 00F09F80 		beq	.L246
 3860 05e4 C0F09780 		bcc	.L247
 3861 05e8 022B     		cmp	r3, #2
 3862 05ea 7FF450AD 		bne	.L243
 3863              		.loc 1 828 0
 3864 05ee 1146     		mov	r1, r2
 3865 05f0 5348     		ldr	r0, .L310+20
 3866 05f2 0022     		movs	r2, #0
 3867 05f4 FFF7FEFF 		bl	commands_process_packet
 3868              	.LVL351:
 3869              		.loc 1 829 0
 3870 05f8 2BE5     		b	.L217
 3871              	.LVL352:
 3872              	.L228:
 3873 05fa BDF82000 		ldrh	r0, [sp, #32]
 3874 05fe 40BA     		rev16	r0, r0
 3875 0600 80B2     		uxth	r0, r0
 3876              	.LVL353:
ARM GAS  /tmp/ccjQGkoy.s 			page 69


 3877              		.loc 1 798 0
 3878 0602 B0F5007F 		cmp	r0, #512
 3879 0606 BFF424AD 		bcs	.L217
 3880              		.loc 1 799 0
 3881 060a 9DF81820 		ldrb	r2, [sp, #24]	@ zero_extendqisi2
 3882 060e 4C4B     		ldr	r3, .L310+20
 3883 0610 02F00F02 		and	r2, r2, #15
 3884 0614 1844     		add	r0, r0, r3
 3885 0616 023A     		subs	r2, r2, #2
 3886 0618 0DF12201 		add	r1, sp, #34
 3887 061c FFF7FEFF 		bl	memcpy
 3888              	.LVL354:
 3889 0620 17E5     		b	.L217
 3890              	.L225:
 3891              		.loc 1 780 0
 3892 0622 0023     		movs	r3, #0
 3893              		.loc 1 781 0
 3894 0624 04A9     		add	r1, sp, #16
 3895 0626 08A8     		add	r0, sp, #32
 3896 0628 B7EE000A 		vmov.f32	s0, #1.0e+0
 3897              		.loc 1 780 0
 3898 062c 0493     		str	r3, [sp, #16]
 3899              		.loc 1 781 0
 3900 062e FFF7FEFF 		bl	buffer_get_float32
 3901              	.LVL355:
 3902 0632 FFF7FEFF 		bl	mc_interface_set_pid_speed
 3903              	.LVL356:
 3904              		.loc 1 782 0
 3905 0636 FFF7FEFF 		bl	timeout_reset
 3906              	.LVL357:
 3907              		.loc 1 783 0
 3908 063a 0AE5     		b	.L217
 3909              	.L227:
 3910              		.loc 1 792 0
 3911 063c 9DF81820 		ldrb	r2, [sp, #24]	@ zero_extendqisi2
 3912 0640 9DF82000 		ldrb	r0, [sp, #32]	@ zero_extendqisi2
 3913 0644 3E4B     		ldr	r3, .L310+20
 3914 0646 02F00F02 		and	r2, r2, #15
 3915 064a 013A     		subs	r2, r2, #1
 3916 064c 1844     		add	r0, r0, r3
 3917 064e 0DF12101 		add	r1, sp, #33
 3918 0652 FFF7FEFF 		bl	memcpy
 3919              	.LVL358:
 3920              		.loc 1 793 0
 3921 0656 FCE4     		b	.L217
 3922              	.L226:
 3923              		.loc 1 786 0
 3924 0658 0023     		movs	r3, #0
 3925              		.loc 1 787 0
 3926 065a 04A9     		add	r1, sp, #16
 3927 065c 08A8     		add	r0, sp, #32
 3928 065e B0EE4A0A 		vmov.f32	s0, s20
 3929              		.loc 1 786 0
 3930 0662 0493     		str	r3, [sp, #16]
 3931              		.loc 1 787 0
 3932 0664 FFF7FEFF 		bl	buffer_get_float32
 3933              	.LVL359:
ARM GAS  /tmp/ccjQGkoy.s 			page 70


 3934 0668 FFF7FEFF 		bl	mc_interface_set_pid_pos
 3935              	.LVL360:
 3936              		.loc 1 788 0
 3937 066c FFF7FEFF 		bl	timeout_reset
 3938              	.LVL361:
 3939              		.loc 1 789 0
 3940 0670 EFE4     		b	.L217
 3941              	.L223:
 3942              		.loc 1 768 0
 3943 0672 0023     		movs	r3, #0
 3944              		.loc 1 769 0
 3945 0674 04A9     		add	r1, sp, #16
 3946 0676 08A8     		add	r0, sp, #32
 3947 0678 B0EE680A 		vmov.f32	s0, s17
 3948              		.loc 1 768 0
 3949 067c 0493     		str	r3, [sp, #16]
 3950              		.loc 1 769 0
 3951 067e FFF7FEFF 		bl	buffer_get_float32
 3952              	.LVL362:
 3953 0682 FFF7FEFF 		bl	mc_interface_set_current
 3954              	.LVL363:
 3955              		.loc 1 770 0
 3956 0686 FFF7FEFF 		bl	timeout_reset
 3957              	.LVL364:
 3958              		.loc 1 771 0
 3959 068a E2E4     		b	.L217
 3960              	.L221:
 3961              		.loc 1 762 0
 3962 068c 0023     		movs	r3, #0
 3963              		.loc 1 763 0
 3964 068e 04A9     		add	r1, sp, #16
 3965 0690 08A8     		add	r0, sp, #32
 3966 0692 B0EE480A 		vmov.f32	s0, s16
 3967              		.loc 1 762 0
 3968 0696 0493     		str	r3, [sp, #16]
 3969              		.loc 1 763 0
 3970 0698 FFF7FEFF 		bl	buffer_get_float32
 3971              	.LVL365:
 3972 069c FFF7FEFF 		bl	mc_interface_set_duty
 3973              	.LVL366:
 3974              		.loc 1 764 0
 3975 06a0 FFF7FEFF 		bl	timeout_reset
 3976              	.LVL367:
 3977              		.loc 1 765 0
 3978 06a4 D5E4     		b	.L217
 3979              	.L224:
 3980              		.loc 1 774 0
 3981 06a6 0023     		movs	r3, #0
 3982              		.loc 1 775 0
 3983 06a8 04A9     		add	r1, sp, #16
 3984 06aa 08A8     		add	r0, sp, #32
 3985 06ac B0EE680A 		vmov.f32	s0, s17
 3986              		.loc 1 774 0
 3987 06b0 0493     		str	r3, [sp, #16]
 3988              		.loc 1 775 0
 3989 06b2 FFF7FEFF 		bl	buffer_get_float32
 3990              	.LVL368:
ARM GAS  /tmp/ccjQGkoy.s 			page 71


 3991 06b6 FFF7FEFF 		bl	mc_interface_set_brake_current
 3992              	.LVL369:
 3993              		.loc 1 776 0
 3994 06ba FFF7FEFF 		bl	timeout_reset
 3995              	.LVL370:
 3996              		.loc 1 777 0
 3997 06be C8E4     		b	.L217
 3998              	.LVL371:
 3999              	.L250:
 4000              		.loc 1 843 0
 4001 06c0 9DF81810 		ldrb	r1, [sp, #24]	@ zero_extendqisi2
 4002 06c4 1F4A     		ldr	r2, .L310+24
 4003 06c6 01F00F01 		and	r1, r1, #15
 4004 06ca 0239     		subs	r1, r1, #2
 4005 06cc 0DF12200 		add	r0, sp, #34
 4006 06d0 FFF7FEFF 		bl	commands_process_packet
 4007              	.LVL372:
 4008              		.loc 1 844 0
 4009 06d4 BDE4     		b	.L217
 4010              	.LVL373:
 4011              	.L249:
 4012              		.loc 1 846 0
 4013 06d6 9DF81810 		ldrb	r1, [sp, #24]	@ zero_extendqisi2
 4014 06da 01F00F01 		and	r1, r1, #15
 4015 06de 0239     		subs	r1, r1, #2
 4016 06e0 0DF12200 		add	r0, sp, #34
 4017 06e4 FFF7FEFF 		bl	commands_send_packet
 4018              	.LVL374:
 4019              		.loc 1 847 0
 4020 06e8 B3E4     		b	.L217
 4021              	.LVL375:
 4022              	.L307:
 4023              	.LBB286:
 4024              	.LBB284:
 4025              		.loc 1 900 0
 4026 06ea FFF7FEFF 		bl	app_get_configuration
 4027              	.LVL376:
 4028 06ee CC22     		movs	r2, #204
 4029 06f0 0146     		mov	r1, r0
 4030 06f2 0AA8     		add	r0, sp, #40
 4031 06f4 FFF7FEFF 		bl	memcpy
 4032              	.LVL377:
 4033              		.loc 1 902 0
 4034 06f8 9DF83430 		ldrb	r3, [sp, #52]	@ zero_extendqisi2
 4035 06fc 042B     		cmp	r3, #4
 4036 06fe 3FF4D1AE 		beq	.L252
 4037              		.loc 1 903 0
 4038 0702 0423     		movs	r3, #4
 4039              		.loc 1 904 0
 4040 0704 0AA8     		add	r0, sp, #40
 4041              		.loc 1 903 0
 4042 0706 8DF83430 		strb	r3, [sp, #52]
 4043              		.loc 1 904 0
 4044 070a FFF7FEFF 		bl	conf_general_store_app_configuration
 4045              	.LVL378:
 4046              		.loc 1 905 0
 4047 070e 0AA8     		add	r0, sp, #40
ARM GAS  /tmp/ccjQGkoy.s 			page 72


 4048 0710 FFF7FEFF 		bl	app_set_configuration
 4049              	.LVL379:
 4050 0714 C6E6     		b	.L252
 4051              	.LVL380:
 4052              	.L247:
 4053              	.LBE284:
 4054              	.LBE286:
 4055              		.loc 1 822 0
 4056 0716 1146     		mov	r1, r2
 4057 0718 0948     		ldr	r0, .L310+20
 4058 071a 0A4A     		ldr	r2, .L310+24
 4059 071c FFF7FEFF 		bl	commands_process_packet
 4060              	.LVL381:
 4061              		.loc 1 823 0
 4062 0720 97E4     		b	.L217
 4063              	.L246:
 4064              		.loc 1 825 0
 4065 0722 1146     		mov	r1, r2
 4066 0724 0648     		ldr	r0, .L310+20
 4067 0726 FFF7FEFF 		bl	commands_send_packet
 4068              	.LVL382:
 4069              		.loc 1 826 0
 4070 072a 92E4     		b	.L217
 4071              	.L311:
 4072              		.align	2
 4073              	.L310:
 4074 072c 00000000 		.word	.LANCHOR16
 4075 0730 00000000 		.word	.LANCHOR17
 4076 0734 1F85EB51 		.word	1374389535
 4077 0738 00000000 		.word	.LANCHOR15
 4078 073c 00000000 		.word	.LANCHOR14
 4079 0740 00000000 		.word	.LANCHOR18
 4080 0744 00000000 		.word	send_packet_wrapper
 4081              	.LBE289:
 4082              	.LBE291:
 4083              	.LBE292:
 4084              		.cfi_endproc
 4085              	.LFE289:
 4086              		.size	cancom_process_thread, .-cancom_process_thread
 4087              		.section	.bss.can_mtx,"aw",%nobits
 4088              		.align	2
 4089              		.set	.LANCHOR9,. + 0
 4090              		.type	can_mtx, %object
 4091              		.size	can_mtx, 16
 4092              	can_mtx:
 4093 0000 00000000 		.space	16
 4093      00000000 
 4093      00000000 
 4093      00000000 
 4094              		.section	.bss.can_rx_mtx,"aw",%nobits
 4095              		.align	2
 4096              		.set	.LANCHOR0,. + 0
 4097              		.type	can_rx_mtx, %object
 4098              		.size	can_rx_mtx, 16
 4099              	can_rx_mtx:
 4100 0000 00000000 		.space	16
 4100      00000000 
ARM GAS  /tmp/ccjQGkoy.s 			page 73


 4100      00000000 
 4100      00000000 
 4101              		.section	.bss.cancom_process_thread_wa,"aw",%nobits
 4102              		.align	3
 4103              		.type	cancom_process_thread_wa, %object
 4104              		.size	cancom_process_thread_wa, 4504
 4105              	cancom_process_thread_wa:
 4106 0000 00000000 		.space	4504
 4106      00000000 
 4106      00000000 
 4106      00000000 
 4106      00000000 
 4107              		.section	.bss.cancom_read_thread_wa,"aw",%nobits
 4108              		.align	3
 4109              		.set	.LANCHOR11,. + 0
 4110              		.type	cancom_read_thread_wa, %object
 4111              		.size	cancom_read_thread_wa, 920
 4112              	cancom_read_thread_wa:
 4113 0000 00000000 		.space	920
 4113      00000000 
 4113      00000000 
 4113      00000000 
 4113      00000000 
 4114              		.section	.bss.cancom_status_thread_wa,"aw",%nobits
 4115              		.align	3
 4116              		.set	.LANCHOR12,. + 0
 4117              		.type	cancom_status_thread_wa, %object
 4118              		.size	cancom_status_thread_wa, 1432
 4119              	cancom_status_thread_wa:
 4120 0000 00000000 		.space	1432
 4120      00000000 
 4120      00000000 
 4120      00000000 
 4120      00000000 
 4121              		.section	.bss.detect_all_foc_res,"aw",%nobits
 4122              		.align	2
 4123              		.set	.LANCHOR17,. + 0
 4124              		.type	detect_all_foc_res, %object
 4125              		.size	detect_all_foc_res, 50
 4126              	detect_all_foc_res:
 4127 0000 00000000 		.space	50
 4127      00000000 
 4127      00000000 
 4127      00000000 
 4127      00000000 
 4128              		.section	.bss.detect_all_foc_res_index,"aw",%nobits
 4129              		.align	2
 4130              		.set	.LANCHOR16,. + 0
 4131              		.type	detect_all_foc_res_index, %object
 4132              		.size	detect_all_foc_res_index, 4
 4133              	detect_all_foc_res_index:
 4134 0000 00000000 		.space	4
 4135              		.section	.bss.ping_tp,"aw",%nobits
 4136              		.align	2
 4137              		.set	.LANCHOR15,. + 0
 4138              		.type	ping_tp, %object
 4139              		.size	ping_tp, 4
ARM GAS  /tmp/ccjQGkoy.s 			page 74


 4140              	ping_tp:
 4141 0000 00000000 		.space	4
 4142              		.section	.bss.process_tp,"aw",%nobits
 4143              		.align	2
 4144              		.set	.LANCHOR3,. + 0
 4145              		.type	process_tp, %object
 4146              		.size	process_tp, 4
 4147              	process_tp:
 4148 0000 00000000 		.space	4
 4149              		.section	.bss.rx_buffer,"aw",%nobits
 4150              		.align	2
 4151              		.set	.LANCHOR18,. + 0
 4152              		.type	rx_buffer, %object
 4153              		.size	rx_buffer, 512
 4154              	rx_buffer:
 4155 0000 00000000 		.space	512
 4155      00000000 
 4155      00000000 
 4155      00000000 
 4155      00000000 
 4156              		.section	.bss.rx_buffer_last_id,"aw",%nobits
 4157              		.align	2
 4158              		.set	.LANCHOR14,. + 0
 4159              		.type	rx_buffer_last_id, %object
 4160              		.size	rx_buffer_last_id, 4
 4161              	rx_buffer_last_id:
 4162 0000 00000000 		.space	4
 4163              		.section	.bss.rx_frame_read,"aw",%nobits
 4164              		.align	2
 4165              		.set	.LANCHOR8,. + 0
 4166              		.type	rx_frame_read, %object
 4167              		.size	rx_frame_read, 4
 4168              	rx_frame_read:
 4169 0000 00000000 		.space	4
 4170              		.section	.bss.rx_frame_write,"aw",%nobits
 4171              		.align	2
 4172              		.set	.LANCHOR1,. + 0
 4173              		.type	rx_frame_write, %object
 4174              		.size	rx_frame_write, 4
 4175              	rx_frame_write:
 4176 0000 00000000 		.space	4
 4177              		.section	.bss.rx_frames,"aw",%nobits
 4178              		.align	2
 4179              		.set	.LANCHOR2,. + 0
 4180              		.type	rx_frames, %object
 4181              		.size	rx_frames, 2000
 4182              	rx_frames:
 4183 0000 00000000 		.space	2000
 4183      00000000 
 4183      00000000 
 4183      00000000 
 4183      00000000 
 4184              		.section	.bss.sid_callback,"aw",%nobits
 4185              		.align	2
 4186              		.set	.LANCHOR13,. + 0
 4187              		.type	sid_callback, %object
 4188              		.size	sid_callback, 4
ARM GAS  /tmp/ccjQGkoy.s 			page 75


 4189              	sid_callback:
 4190 0000 00000000 		.space	4
 4191              		.section	.bss.stat_msgs,"aw",%nobits
 4192              		.align	2
 4193              		.set	.LANCHOR4,. + 0
 4194              		.type	stat_msgs, %object
 4195              		.size	stat_msgs, 200
 4196              	stat_msgs:
 4197 0000 00000000 		.space	200
 4197      00000000 
 4197      00000000 
 4197      00000000 
 4197      00000000 
 4198              		.section	.bss.stat_msgs_2,"aw",%nobits
 4199              		.align	2
 4200              		.set	.LANCHOR6,. + 0
 4201              		.type	stat_msgs_2, %object
 4202              		.size	stat_msgs_2, 160
 4203              	stat_msgs_2:
 4204 0000 00000000 		.space	160
 4204      00000000 
 4204      00000000 
 4204      00000000 
 4204      00000000 
 4205              		.section	.bss.stat_msgs_3,"aw",%nobits
 4206              		.align	2
 4207              		.set	.LANCHOR7,. + 0
 4208              		.type	stat_msgs_3, %object
 4209              		.size	stat_msgs_3, 160
 4210              	stat_msgs_3:
 4211 0000 00000000 		.space	160
 4211      00000000 
 4211      00000000 
 4211      00000000 
 4211      00000000 
 4212              		.section	.bss.stat_msgs_4,"aw",%nobits
 4213              		.align	2
 4214              		.set	.LANCHOR5,. + 0
 4215              		.type	stat_msgs_4, %object
 4216              		.size	stat_msgs_4, 240
 4217              	stat_msgs_4:
 4218 0000 00000000 		.space	240
 4218      00000000 
 4218      00000000 
 4218      00000000 
 4218      00000000 
 4219              		.section	.data.cancfg,"aw",%progbits
 4220              		.align	2
 4221              		.set	.LANCHOR10,. + 0
 4222              		.type	cancfg, %object
 4223              		.size	cancfg, 8
 4224              	cancfg:
 4225 0000 64000000 		.word	100
 4226 0004 05002903 		.word	53018629
 4227              		.section	.rodata.cancom_process_thread.str1.4,"aMS",%progbits,1
 4228              		.align	2
 4229              	.LC2:
ARM GAS  /tmp/ccjQGkoy.s 			page 76


 4230 0000 43414E20 		.ascii	"CAN process\000"
 4230      70726F63 
 4230      65737300 
 4231              		.section	.rodata.cancom_read_thread.str1.4,"aMS",%progbits,1
 4232              		.align	2
 4233              	.LC0:
 4234 0000 43414E20 		.ascii	"CAN read\000"
 4234      72656164 
 4234      00
 4235              		.section	.rodata.cancom_status_thread.str1.4,"aMS",%progbits,1
 4236              		.align	2
 4237              	.LC1:
 4238 0000 43414E20 		.ascii	"CAN status\000"
 4238      73746174 
 4238      757300
 4239              		.text
 4240              	.Letext0:
 4241              		.file 7 "/usr/lib/gcc/arm-none-eabi/7.3.1/include/stddef.h"
 4242              		.file 8 "/usr/arm-none-eabi/include/machine/_default_types.h"
 4243              		.file 9 "/usr/arm-none-eabi/include/sys/lock.h"
 4244              		.file 10 "/usr/arm-none-eabi/include/sys/_types.h"
 4245              		.file 11 "/usr/arm-none-eabi/include/sys/reent.h"
 4246              		.file 12 "/usr/arm-none-eabi/include/math.h"
 4247              		.file 13 "/usr/arm-none-eabi/include/sys/_stdint.h"
 4248              		.file 14 "ChibiOS_3.0.2/os/rt/ports/ARMCMx/compilers/GCC/chtypes.h"
 4249              		.file 15 "ChibiOS_3.0.2/os/rt/include/chsystypes.h"
 4250              		.file 16 "ChibiOS_3.0.2/os/rt/include/chschd.h"
 4251              		.file 17 "ChibiOS_3.0.2/os/ext/CMSIS/include/core_cm4.h"
 4252              		.file 18 "ChibiOS_3.0.2/os/ext/CMSIS/ST/system_stm32f4xx.h"
 4253              		.file 19 "ChibiOS_3.0.2/os/ext/CMSIS/ST/stm32f407xx.h"
 4254              		.file 20 "ChibiOS_3.0.2/os/rt/ports/ARMCMx/chcore.h"
 4255              		.file 21 "ChibiOS_3.0.2/os/rt/ports/ARMCMx/chcore_v7m.h"
 4256              		.file 22 "ChibiOS_3.0.2/os/rt/include/chtm.h"
 4257              		.file 23 "ChibiOS_3.0.2/os/rt/include/chsem.h"
 4258              		.file 24 "ChibiOS_3.0.2/os/rt/include/chmtx.h"
 4259              		.file 25 "ChibiOS_3.0.2/os/rt/include/chqueues.h"
 4260              		.file 26 "datatypes.h"
 4261              		.file 27 "conf_general.h"
 4262              		.file 28 "ChibiOS_3.0.2/os/hal/ports/STM32/STM32F4xx/stm32_dma.h"
 4263              		.file 29 "ChibiOS_3.0.2/os/hal/ports/STM32/LLD/GPIOv2/pal_lld.h"
 4264              		.file 30 "ChibiOS_3.0.2/os/hal/include/can.h"
 4265              		.file 31 "ChibiOS_3.0.2/os/hal/ports/STM32/LLD/can_lld.h"
 4266              		.file 32 "ChibiOS_3.0.2/os/hal/include/i2c.h"
 4267              		.file 33 "ChibiOS_3.0.2/os/hal/ports/STM32/LLD/I2Cv1/i2c_lld.h"
 4268              		.file 34 "ChibiOS_3.0.2/os/hal/include/icu.h"
 4269              		.file 35 "ChibiOS_3.0.2/os/hal/ports/STM32/LLD/TIMv1/icu_lld.h"
 4270              		.file 36 "ChibiOS_3.0.2/os/hal/ports/STM32/LLD/TIMv1/stm32_tim.h"
 4271              		.file 37 "ChibiOS_3.0.2/os/hal/include/serial.h"
 4272              		.file 38 "ChibiOS_3.0.2/os/hal/ports/STM32/LLD/USARTv1/serial_lld.h"
 4273              		.file 39 "ChibiOS_3.0.2/os/hal/include/spi.h"
 4274              		.file 40 "ChibiOS_3.0.2/os/hal/ports/STM32/LLD/SPIv1/spi_lld.h"
 4275              		.file 41 "ChibiOS_3.0.2/os/hal/include/usb.h"
 4276              		.file 42 "ChibiOS_3.0.2/os/hal/ports/STM32/LLD/OTGv1/usb_lld.h"
 4277              		.file 43 "ChibiOS_3.0.2/os/hal/ports/STM32/LLD/OTGv1/stm32_otg.h"
 4278              		.file 44 "mc_interface.h"
 4279              		.file 45 "timeout.h"
 4280              		.file 46 "ChibiOS_3.0.2/os/rt/include/chsys.h"
ARM GAS  /tmp/ccjQGkoy.s 			page 77


 4281              		.file 47 "buffer.h"
 4282              		.file 48 "applications/app.h"
 4283              		.file 49 "commands.h"
 4284              		.file 50 "crc.h"
 4285              		.file 51 "libcanard/canard_driver.h"
 4286              		.file 52 "<built-in>"