ARM GAS  /tmp/ccjQGkoy.s 			page 1


   1              		.cpu cortex-m4
   2              		.eabi_attribute 27, 1
   3              		.eabi_attribute 28, 1
   4              		.eabi_attribute 20, 1
   5              		.eabi_attribute 21, 1
   6              		.eabi_attribute 23, 3
   7              		.eabi_attribute 24, 1
   8              		.eabi_attribute 25, 1
   9              		.eabi_attribute 26, 1
  10              		.eabi_attribute 30, 2
  11              		.eabi_attribute 34, 1
  12              		.eabi_attribute 18, 4
  13              		.file	"comm_can.c"
  14              		.text
  15              	.Ltext0:
  16              		.cfi_sections	.debug_frame
  17              		.section	.text.cancom_read_thread,"ax",%progbits
  18              		.align	1
  19              		.p2align 4,,15
  20              		.syntax unified
  21              		.thumb
  22              		.thumb_func
  23              		.fpu fpv4-sp-d16
  24              		.type	cancom_read_thread, %function
  25              	cancom_read_thread:
  26              	.LFB288:
  27              		.file 1 "comm_can.c"
  28              		.loc 1 694 0
  29              		.cfi_startproc
  30              		@ args = 0, pretend = 0, frame = 40
  31              		@ frame_needed = 0, uses_anonymous_args = 0
  32              	.LVL0:
  33 0000 2DE9F04F 		push	{r4, r5, r6, r7, r8, r9, r10, fp, lr}
  34              		.cfi_def_cfa_offset 36
  35              		.cfi_offset 4, -36
  36              		.cfi_offset 5, -32
  37              		.cfi_offset 6, -28
  38              		.cfi_offset 7, -24
  39              		.cfi_offset 8, -20
  40              		.cfi_offset 9, -16
  41              		.cfi_offset 10, -12
  42              		.cfi_offset 11, -8
  43              		.cfi_offset 14, -4
  44              	.LBB137:
  45              	.LBB138:
  46              		.file 2 "ChibiOS_3.0.2/os/rt/include/chregistry.h"
  47              		.loc 2 135 0
  48 0004 DFF8D4B0 		ldr	fp, .L15+20
  49 0008 2F4A     		ldr	r2, .L15
  50 000a DBF81830 		ldr	r3, [fp, #24]
  51              	.LBE138:
  52              	.LBE137:
  53              	.LBB140:
  54              	.LBB141:
  55              	.LBB142:
  56              		.file 3 "ChibiOS_3.0.2/os/rt/include/chevents.h"
  57              		.loc 3 193 0
ARM GAS  /tmp/ccjQGkoy.s 			page 2


  58 000e 2F48     		ldr	r0, .L15+4
  59              	.LVL1:
  60              	.LBE142:
  61              	.LBE141:
  62              	.LBE140:
  63              	.LBB145:
  64              	.LBB139:
  65              		.loc 2 135 0
  66 0010 9A61     		str	r2, [r3, #24]
  67              	.LVL2:
  68              	.LBE139:
  69              	.LBE145:
  70              		.loc 1 694 0
  71 0012 8BB0     		sub	sp, sp, #44
  72              		.cfi_def_cfa_offset 80
  73              	.LVL3:
  74              	.LBB146:
  75              	.LBB144:
  76              	.LBB143:
  77              		.loc 3 193 0
  78 0014 6946     		mov	r1, sp
  79 0016 4FF0FF33 		mov	r3, #-1
  80 001a 0122     		movs	r2, #1
  81 001c FFF7FEFF 		bl	chEvtRegisterMaskWithFlags
  82              	.LVL4:
  83              	.LBE143:
  84              	.LBE144:
  85              	.LBE146:
  86              	.LBB147:
  87              		.loc 1 711 0
  88 0020 2B4F     		ldr	r7, .L15+8
  89 0022 2C4D     		ldr	r5, .L15+12
  90 0024 DFF8B890 		ldr	r9, .L15+24
  91              	.L3:
  92              	.LBE147:
  93              	.LBB148:
  94              	.LBB149:
  95              		.file 4 "ChibiOS_3.0.2/os/rt/include/chthreads.h"
  96              		.loc 4 233 0
  97 0028 DBF81830 		ldr	r3, [fp, #24]
  98              	.LBE149:
  99              	.LBE148:
 100              		.loc 1 703 0
 101 002c 5B7F     		ldrb	r3, [r3, #29]	@ zero_extendqisi2
 102 002e 13F00404 		ands	r4, r3, #4
 103 0032 42D1     		bne	.L14
 104              	.L7:
 105              	.LBB151:
 106              		.loc 1 705 0
 107 0034 0120     		movs	r0, #1
 108 0036 FFF7FEFF 		bl	timeout_feed_WDT
 109              	.LVL5:
 110              		.loc 1 707 0
 111 003a 6421     		movs	r1, #100
 112 003c 4FF0FF30 		mov	r0, #-1
 113 0040 FFF7FEFF 		bl	chEvtWaitAnyTimeout
 114              	.LVL6:
ARM GAS  /tmp/ccjQGkoy.s 			page 3


 115 0044 0028     		cmp	r0, #0
 116 0046 EFD0     		beq	.L3
 117              		.loc 1 711 0
 118 0048 05AA     		add	r2, sp, #20
 119 004a 2346     		mov	r3, r4
 120 004c 2146     		mov	r1, r4
 121 004e 3846     		mov	r0, r7
 122 0050 FFF7FEFF 		bl	canReceive
 123              	.LVL7:
 124              		.loc 1 713 0
 125 0054 0028     		cmp	r0, #0
 126 0056 E7D1     		bne	.L3
 127 0058 DFF88880 		ldr	r8, .L15+28
 128              		.loc 1 715 0
 129 005c 1E4E     		ldr	r6, .L15+16
 130              		.loc 1 718 0
 131 005e 8246     		mov	r10, r0
 132              	.L6:
 133              	.LVL8:
 134              		.loc 1 715 0
 135 0060 3046     		mov	r0, r6
 136              		.loc 1 716 0
 137 0062 05AC     		add	r4, sp, #20
 138              		.loc 1 715 0
 139 0064 FFF7FEFF 		bl	chMtxLock
 140              	.LVL9:
 141              		.loc 1 716 0
 142 0068 0FCC     		ldmia	r4!, {r0, r1, r2, r3}
 143 006a D5F800C0 		ldr	ip, [r5]
 144 006e D4F800E0 		ldr	lr, [r4]
 145 0072 0CEB8C04 		add	r4, ip, ip, lsl #2
 146 0076 09EB8404 		add	r4, r9, r4, lsl #2
 147 007a 0FC4     		stmia	r4!, {r0, r1, r2, r3}
 148 007c 0CF10103 		add	r3, ip, #1
 149              		.loc 1 717 0
 150 0080 642B     		cmp	r3, #100
 151              		.loc 1 720 0
 152 0082 3046     		mov	r0, r6
 153              		.loc 1 716 0
 154 0084 2B60     		str	r3, [r5]
 155 0086 C4F800E0 		str	lr, [r4]
 156              		.loc 1 718 0
 157 008a 08BF     		it	eq
 158 008c C5F800A0 		streq	r10, [r5]
 159              		.loc 1 720 0
 160 0090 FFF7FEFF 		bl	chMtxUnlock
 161              	.LVL10:
 162              		.loc 1 722 0
 163 0094 0121     		movs	r1, #1
 164 0096 D8F80000 		ldr	r0, [r8]
 165 009a FFF7FEFF 		bl	chEvtSignal
 166              	.LVL11:
 167              		.loc 1 724 0
 168 009e 0023     		movs	r3, #0
 169 00a0 1946     		mov	r1, r3
 170 00a2 05AA     		add	r2, sp, #20
 171 00a4 3846     		mov	r0, r7
ARM GAS  /tmp/ccjQGkoy.s 			page 4


 172 00a6 FFF7FEFF 		bl	canReceive
 173              	.LVL12:
 174              		.loc 1 713 0
 175 00aa 0028     		cmp	r0, #0
 176 00ac D8D0     		beq	.L6
 177              	.LBE151:
 178              	.LBB152:
 179              	.LBB150:
 180              		.loc 4 233 0
 181 00ae DBF81830 		ldr	r3, [fp, #24]
 182              	.LBE150:
 183              	.LBE152:
 184              		.loc 1 703 0
 185 00b2 5B7F     		ldrb	r3, [r3, #29]	@ zero_extendqisi2
 186 00b4 13F00404 		ands	r4, r3, #4
 187 00b8 BCD0     		beq	.L7
 188              	.LVL13:
 189              	.L14:
 190              		.loc 1 728 0
 191 00ba 6946     		mov	r1, sp
 192 00bc 0348     		ldr	r0, .L15+4
 193              	.LVL14:
 194 00be FFF7FEFF 		bl	chEvtUnregister
 195              	.LVL15:
 196              		.loc 1 729 0
 197 00c2 0BB0     		add	sp, sp, #44
 198              		.cfi_def_cfa_offset 36
 199              	.LVL16:
 200              		@ sp needed
 201 00c4 BDE8F08F 		pop	{r4, r5, r6, r7, r8, r9, r10, fp, pc}
 202              	.LVL17:
 203              	.L16:
 204              		.align	2
 205              	.L15:
 206 00c8 00000000 		.word	.LC0
 207 00cc 18000000 		.word	CAND1+24
 208 00d0 00000000 		.word	CAND1
 209 00d4 00000000 		.word	.LANCHOR1
 210 00d8 00000000 		.word	.LANCHOR0
 211 00dc 00000000 		.word	ch
 212 00e0 00000000 		.word	.LANCHOR2
 213 00e4 00000000 		.word	.LANCHOR3
 214              		.cfi_endproc
 215              	.LFE288:
 216              		.size	cancom_read_thread, .-cancom_read_thread
 217              		.section	.text.comm_can_init,"ax",%progbits
 218              		.align	1
 219              		.p2align 4,,15
 220              		.global	comm_can_init
 221              		.syntax unified
 222              		.thumb
 223              		.thumb_func
 224              		.fpu fpv4-sp-d16
 225              		.type	comm_can_init, %function
 226              	comm_can_init:
 227              	.LFB256:
 228              		.loc 1 89 0
ARM GAS  /tmp/ccjQGkoy.s 			page 5


 229              		.cfi_startproc
 230              		@ args = 0, pretend = 0, frame = 0
 231              		@ frame_needed = 0, uses_anonymous_args = 0
 232              	.LVL18:
 233 0000 30B5     		push	{r4, r5, lr}
 234              		.cfi_def_cfa_offset 12
 235              		.cfi_offset 4, -12
 236              		.cfi_offset 5, -8
 237              		.cfi_offset 14, -4
 238 0002 2548     		ldr	r0, .L21
 239 0004 2549     		ldr	r1, .L21+4
 240 0006 264D     		ldr	r5, .L21+8
 241 0008 264C     		ldr	r4, .L21+12
 242 000a 83B0     		sub	sp, sp, #12
 243              		.cfi_def_cfa_offset 24
 244              		.loc 1 89 0
 245 000c 0023     		movs	r3, #0
 246              	.LBB153:
 247              		.loc 1 91 0
 248 000e 4FF0FF32 		mov	r2, #-1
 249              	.LVL19:
 250              	.L18:
 251              		.loc 1 92 0 discriminator 3
 252 0012 EA50     		str	r2, [r5, r3]
 253              		.loc 1 93 0 discriminator 3
 254 0014 E250     		str	r2, [r4, r3]
 255 0016 1033     		adds	r3, r3, #16
 256              		.loc 1 90 0 discriminator 3
 257 0018 A02B     		cmp	r3, #160
 258              		.loc 1 91 0 discriminator 3
 259 001a 40F8142B 		str	r2, [r0], #20
 260              		.loc 1 94 0 discriminator 3
 261 001e 41F8182B 		str	r2, [r1], #24
 262              		.loc 1 90 0 discriminator 3
 263 0022 F6D1     		bne	.L18
 264              	.LBE153:
 265              		.loc 1 99 0
 266 0024 204B     		ldr	r3, .L21+16
 267              		.loc 1 98 0
 268 0026 214A     		ldr	r2, .L21+20
 269              		.loc 1 101 0
 270 0028 2148     		ldr	r0, .L21+24
 271              		.loc 1 98 0
 272 002a 0024     		movs	r4, #0
 273              		.loc 1 99 0
 274 002c 1C60     		str	r4, [r3]
 275              		.loc 1 98 0
 276 002e 1460     		str	r4, [r2]
 277              		.loc 1 101 0
 278 0030 FFF7FEFF 		bl	chMtxObjectInit
 279              	.LVL20:
 280              		.loc 1 102 0
 281 0034 1F48     		ldr	r0, .L21+28
 282 0036 FFF7FEFF 		bl	chMtxObjectInit
 283              	.LVL21:
 284              		.loc 1 104 0
 285 003a 40F28A42 		movw	r2, #1162
ARM GAS  /tmp/ccjQGkoy.s 			page 6


 286 003e 4FF48071 		mov	r1, #256
 287 0042 1D48     		ldr	r0, .L21+32
 288 0044 FFF7FEFF 		bl	_pal_lld_setgroupmode
 289              	.LVL22:
 290              		.loc 1 108 0
 291 0048 40F28A42 		movw	r2, #1162
 292 004c 4FF40071 		mov	r1, #512
 293 0050 1948     		ldr	r0, .L21+32
 294 0052 FFF7FEFF 		bl	_pal_lld_setgroupmode
 295              	.LVL23:
 296              		.loc 1 113 0
 297 0056 1949     		ldr	r1, .L21+36
 298 0058 1948     		ldr	r0, .L21+40
 299 005a FFF7FEFF 		bl	canStart
 300              	.LVL24:
 301              		.loc 1 115 0
 302 005e FFF7FEFF 		bl	canard_driver_init
 303              	.LVL25:
 304              		.loc 1 117 0
 305 0062 0094     		str	r4, [sp]
 306 0064 174B     		ldr	r3, .L21+44
 307 0066 1848     		ldr	r0, .L21+48
 308 0068 4122     		movs	r2, #65
 309 006a 4FF46671 		mov	r1, #920
 310 006e FFF7FEFF 		bl	chThdCreateStatic
 311              	.LVL26:
 312              		.loc 1 119 0
 313 0072 0094     		str	r4, [sp]
 314 0074 154B     		ldr	r3, .L21+52
 315 0076 1648     		ldr	r0, .L21+56
 316 0078 4022     		movs	r2, #64
 317 007a 4FF4B361 		mov	r1, #1432
 318 007e FFF7FEFF 		bl	chThdCreateStatic
 319              	.LVL27:
 320              		.loc 1 121 0
 321 0082 0094     		str	r4, [sp]
 322 0084 134B     		ldr	r3, .L21+60
 323 0086 1448     		ldr	r0, .L21+64
 324 0088 4022     		movs	r2, #64
 325 008a 41F29811 		movw	r1, #4504
 326 008e FFF7FEFF 		bl	chThdCreateStatic
 327              	.LVL28:
 328              		.loc 1 124 0
 329 0092 03B0     		add	sp, sp, #12
 330              		.cfi_def_cfa_offset 12
 331              		@ sp needed
 332 0094 30BD     		pop	{r4, r5, pc}
 333              	.L22:
 334 0096 00BF     		.align	2
 335              	.L21:
 336 0098 00000000 		.word	.LANCHOR4
 337 009c 00000000 		.word	.LANCHOR5
 338 00a0 00000000 		.word	.LANCHOR6
 339 00a4 00000000 		.word	.LANCHOR7
 340 00a8 00000000 		.word	.LANCHOR1
 341 00ac 00000000 		.word	.LANCHOR8
 342 00b0 00000000 		.word	.LANCHOR9
ARM GAS  /tmp/ccjQGkoy.s 			page 7


 343 00b4 00000000 		.word	.LANCHOR0
 344 00b8 00040240 		.word	1073873920
 345 00bc 00000000 		.word	.LANCHOR10
 346 00c0 00000000 		.word	CAND1
 347 00c4 00000000 		.word	cancom_read_thread
 348 00c8 00000000 		.word	.LANCHOR11
 349 00cc 00000000 		.word	cancom_status_thread
 350 00d0 00000000 		.word	.LANCHOR12
 351 00d4 00000000 		.word	cancom_process_thread
 352 00d8 00000000 		.word	cancom_process_thread_wa
 353              		.cfi_endproc
 354              	.LFE256:
 355              		.size	comm_can_init, .-comm_can_init
 356              		.section	.text.comm_can_set_baud,"ax",%progbits
 357              		.align	1
 358              		.p2align 4,,15
 359              		.global	comm_can_set_baud
 360              		.syntax unified
 361              		.thumb
 362              		.thumb_func
 363              		.fpu fpv4-sp-d16
 364              		.type	comm_can_set_baud, %function
 365              	comm_can_set_baud:
 366              	.LFB257:
 367              		.loc 1 126 0
 368              		.cfi_startproc
 369              		@ args = 0, pretend = 0, frame = 0
 370              		@ frame_needed = 0, uses_anonymous_args = 0
 371              	.LVL29:
 372 0000 10B5     		push	{r4, lr}
 373              		.cfi_def_cfa_offset 8
 374              		.cfi_offset 4, -8
 375              		.cfi_offset 14, -4
 376              		.loc 1 127 0
 377 0002 0328     		cmp	r0, #3
 378 0004 18D8     		bhi	.L23
 379 0006 DFE800F0 		tbb	[pc, r0]
 380              	.L26:
 381 000a 14       		.byte	(.L25-.L26)/2
 382 000b 11       		.byte	(.L27-.L26)/2
 383 000c 0E       		.byte	(.L28-.L26)/2
 384 000d 02       		.byte	(.L29-.L26)/2
 385              		.p2align 1
 386              	.L29:
 387              	.LVL30:
 388              	.LBB154:
 389              	.LBB155:
 390              		.loc 1 1128 0
 391 000e 0B4C     		ldr	r4, .L32
 392 0010 0B4B     		ldr	r3, .L32+4
 393              	.LVL31:
 394              	.L31:
 395              		.loc 1 1131 0
 396 0012 0C48     		ldr	r0, .L32+8
 397              	.LVL32:
 398              		.loc 1 1128 0
 399 0014 6360     		str	r3, [r4, #4]
ARM GAS  /tmp/ccjQGkoy.s 			page 8


 400              		.loc 1 1131 0
 401 0016 FFF7FEFF 		bl	canStop
 402              	.LVL33:
 403              		.loc 1 1132 0
 404 001a 2146     		mov	r1, r4
 405 001c 0948     		ldr	r0, .L32+8
 406              	.LBE155:
 407              	.LBE154:
 408              		.loc 1 134 0
 409 001e BDE81040 		pop	{r4, lr}
 410              		.cfi_remember_state
 411              		.cfi_restore 14
 412              		.cfi_restore 4
 413              		.cfi_def_cfa_offset 0
 414              	.LBB157:
 415              	.LBB156:
 416              		.loc 1 1132 0
 417 0022 FFF7FEBF 		b	canStart
 418              	.LVL34:
 419              	.L28:
 420              		.cfi_restore_state
 421              	.LBE156:
 422              	.LBE157:
 423              	.LBB158:
 424              	.LBB159:
 425              		.loc 1 1128 0
 426 0026 054C     		ldr	r4, .L32
 427 0028 074B     		ldr	r3, .L32+12
 428 002a F2E7     		b	.L31
 429              	.LVL35:
 430              	.L27:
 431              	.LBE159:
 432              	.LBE158:
 433              	.LBB160:
 434              	.LBB161:
 435 002c 034C     		ldr	r4, .L32
 436 002e 074B     		ldr	r3, .L32+16
 437 0030 EFE7     		b	.L31
 438              	.LVL36:
 439              	.L25:
 440              	.LBE161:
 441              	.LBE160:
 442              	.LBB162:
 443              	.LBB163:
 444 0032 024C     		ldr	r4, .L32
 445 0034 064B     		ldr	r3, .L32+20
 446 0036 ECE7     		b	.L31
 447              	.LVL37:
 448              	.L23:
 449              	.LBE163:
 450              	.LBE162:
 451              		.loc 1 134 0
 452 0038 10BD     		pop	{r4, pc}
 453              	.L33:
 454 003a 00BF     		.align	2
 455              	.L32:
 456 003c 00000000 		.word	.LANCHOR10
ARM GAS  /tmp/ccjQGkoy.s 			page 9


 457 0040 02002903 		.word	53018626
 458 0044 00000000 		.word	CAND1
 459 0048 05002903 		.word	53018629
 460 004c 07004E03 		.word	55443463
 461 0050 0F004E03 		.word	55443471
 462              		.cfi_endproc
 463              	.LFE257:
 464              		.size	comm_can_set_baud, .-comm_can_set_baud
 465              		.section	.text.comm_can_transmit_eid,"ax",%progbits
 466              		.align	1
 467              		.p2align 4,,15
 468              		.global	comm_can_transmit_eid
 469              		.syntax unified
 470              		.thumb
 471              		.thumb_func
 472              		.fpu fpv4-sp-d16
 473              		.type	comm_can_transmit_eid, %function
 474              	comm_can_transmit_eid:
 475              	.LFB258:
 476              		.loc 1 136 0
 477              		.cfi_startproc
 478              		@ args = 0, pretend = 0, frame = 16
 479              		@ frame_needed = 0, uses_anonymous_args = 0
 480              	.LVL38:
 481 0000 70B5     		push	{r4, r5, r6, lr}
 482              		.cfi_def_cfa_offset 16
 483              		.cfi_offset 4, -16
 484              		.cfi_offset 5, -12
 485              		.cfi_offset 6, -8
 486              		.cfi_offset 14, -4
 487 0002 84B0     		sub	sp, sp, #16
 488              		.cfi_def_cfa_offset 32
 489 0004 082A     		cmp	r2, #8
 490              		.loc 1 143 0
 491 0006 9DF80030 		ldrb	r3, [sp]	@ zero_extendqisi2
 492              		.loc 1 144 0
 493 000a 019E     		ldr	r6, [sp, #4]
 494              		.loc 1 149 0
 495 000c 0F4D     		ldr	r5, .L36
 496              		.loc 1 145 0
 497 000e 43F02003 		orr	r3, r3, #32
 498 0012 28BF     		it	cs
 499 0014 0822     		movcs	r2, #8
 500              	.LVL39:
 501              		.loc 1 146 0
 502 0016 04AC     		add	r4, sp, #16
 503 0018 03F0EF03 		and	r3, r3, #239
 504 001c 62F30303 		bfi	r3, r2, #0, #4
 505 0020 04F8103D 		strb	r3, [r4, #-16]!
 506              		.loc 1 144 0
 507 0024 60F31C06 		bfi	r6, r0, #0, #29
 508              		.loc 1 147 0
 509 0028 02A8     		add	r0, sp, #8
 510              	.LVL40:
 511              		.loc 1 144 0
 512 002a 0196     		str	r6, [sp, #4]
 513              		.loc 1 147 0
ARM GAS  /tmp/ccjQGkoy.s 			page 10


 514 002c FFF7FEFF 		bl	memcpy
 515              	.LVL41:
 516              		.loc 1 149 0
 517 0030 2846     		mov	r0, r5
 518 0032 FFF7FEFF 		bl	chMtxLock
 519              	.LVL42:
 520              		.loc 1 150 0
 521 0036 2246     		mov	r2, r4
 522 0038 3223     		movs	r3, #50
 523 003a 0021     		movs	r1, #0
 524 003c 0448     		ldr	r0, .L36+4
 525 003e FFF7FEFF 		bl	canTransmit
 526              	.LVL43:
 527              		.loc 1 151 0
 528 0042 2846     		mov	r0, r5
 529 0044 FFF7FEFF 		bl	chMtxUnlock
 530              	.LVL44:
 531              		.loc 1 157 0
 532 0048 04B0     		add	sp, sp, #16
 533              		.cfi_def_cfa_offset 16
 534              		@ sp needed
 535 004a 70BD     		pop	{r4, r5, r6, pc}
 536              	.L37:
 537              		.align	2
 538              	.L36:
 539 004c 00000000 		.word	.LANCHOR9
 540 0050 00000000 		.word	CAND1
 541              		.cfi_endproc
 542              	.LFE258:
 543              		.size	comm_can_transmit_eid, .-comm_can_transmit_eid
 544              		.section	.text.cancom_status_thread,"ax",%progbits
 545              		.align	1
 546              		.p2align 4,,15
 547              		.syntax unified
 548              		.thumb
 549              		.thumb_func
 550              		.fpu fpv4-sp-d16
 551              		.type	cancom_status_thread, %function
 552              	cancom_status_thread:
 553              	.LFB290:
 554              		.loc 1 1055 0
 555              		.cfi_startproc
 556              		@ args = 0, pretend = 0, frame = 16
 557              		@ frame_needed = 0, uses_anonymous_args = 0
 558              	.LVL45:
 559 0000 30B5     		push	{r4, r5, lr}
 560              		.cfi_def_cfa_offset 12
 561              		.cfi_offset 4, -12
 562              		.cfi_offset 5, -8
 563              		.cfi_offset 14, -4
 564              	.LBB164:
 565              	.LBB165:
 566              		.loc 2 135 0
 567 0002 754B     		ldr	r3, .L50
 568 0004 754A     		ldr	r2, .L50+4
 569 0006 9B69     		ldr	r3, [r3, #24]
 570              	.LBE165:
ARM GAS  /tmp/ccjQGkoy.s 			page 11


 571              	.LBE164:
 572              		.loc 1 1055 0
 573 0008 2DED048B 		vpush.64	{d8, d9}
 574              		.cfi_def_cfa_offset 28
 575              		.cfi_offset 80, -28
 576              		.cfi_offset 81, -24
 577              		.cfi_offset 82, -20
 578              		.cfi_offset 83, -16
 579              	.LBB167:
 580              	.LBB168:
 581              		.loc 1 1091 0
 582 000c DFED748A 		vldr.32	s17, .L50+8
 583              	.LBE168:
 584              	.LBB169:
 585              		.loc 1 1103 0
 586 0010 DFED749A 		vldr.32	s19, .L50+12
 587              	.LBE169:
 588              	.LBB170:
 589              		.loc 1 1071 0
 590 0014 9FED749A 		vldr.32	s18, .L50+16
 591              	.LBE170:
 592              	.LBE167:
 593              	.LBB175:
 594              	.LBB166:
 595              		.loc 2 135 0
 596 0018 9A61     		str	r2, [r3, #24]
 597              	.LBE166:
 598              	.LBE175:
 599              		.loc 1 1055 0
 600 001a 85B0     		sub	sp, sp, #20
 601              		.cfi_def_cfa_offset 48
 602 001c 0FE0     		b	.L45
 603              	.LVL46:
 604              	.L41:
 605              	.LBB176:
 606              		.loc 1 1076 0
 607 001e 9A1E     		subs	r2, r3, #2
 608 0020 022A     		cmp	r2, #2
 609 0022 49D9     		bls	.L48
 610              	.LVL47:
 611              	.L42:
 612              		.loc 1 1087 0
 613 0024 033B     		subs	r3, r3, #3
 614 0026 012B     		cmp	r3, #1
 615 0028 6ED9     		bls	.L49
 616              	.L40:
 617              		.loc 1 1109 0
 618 002a 2369     		ldr	r3, [r4, #16]
 619 002c 42F21070 		movw	r0, #10000
 620 0030 B0FBF3F0 		udiv	r0, r0, r3
 621              	.LVL48:
 622              		.loc 1 1111 0
 623 0034 0028     		cmp	r0, #0
 624              	.LVL49:
 625              		.loc 1 1114 0
 626 0036 08BF     		it	eq
 627 0038 0120     		moveq	r0, #1
ARM GAS  /tmp/ccjQGkoy.s 			page 12


 628              	.LVL50:
 629 003a FFF7FEFF 		bl	chThdSleep
 630              	.LVL51:
 631              	.L45:
 632              		.loc 1 1060 0
 633 003e FFF7FEFF 		bl	app_get_configuration
 634              	.LVL52:
 635              		.loc 1 1062 0
 636 0042 C27D     		ldrb	r2, [r0, #23]	@ zero_extendqisi2
 637              		.loc 1 1060 0
 638 0044 0446     		mov	r4, r0
 639              	.LVL53:
 640              		.loc 1 1062 0
 641 0046 002A     		cmp	r2, #0
 642 0048 EFD1     		bne	.L40
 643              		.loc 1 1063 0
 644 004a 037B     		ldrb	r3, [r0, #12]	@ zero_extendqisi2
 645 004c 591E     		subs	r1, r3, #1
 646 004e 0329     		cmp	r1, #3
 647 0050 E5D8     		bhi	.L41
 648              	.LBB171:
 649              		.loc 1 1067 0
 650 0052 0192     		str	r2, [sp, #4]
 651              		.loc 1 1069 0
 652 0054 FFF7FEFF 		bl	mc_interface_get_rpm
 653              	.LVL54:
 654 0058 FDEEC07A 		vcvt.s32.f32	s15, s0
 655 005c 01AA     		add	r2, sp, #4
 656 005e 17EE901A 		vmov	r1, s15	@ int
 657 0062 02A8     		add	r0, sp, #8
 658 0064 FFF7FEFF 		bl	buffer_append_int32
 659              	.LVL55:
 660              		.loc 1 1070 0
 661 0068 FFF7FEFF 		bl	mc_interface_get_tot_current_filtered
 662              	.LVL56:
 663 006c F2EE047A 		vmov.f32	s15, #1.0e+1
 664 0070 20EE270A 		vmul.f32	s0, s0, s15
 665 0074 01AA     		add	r2, sp, #4
 666 0076 BDEEC00A 		vcvt.s32.f32	s0, s0
 667 007a 02A8     		add	r0, sp, #8
 668 007c 10EE103A 		vmov	r3, s0	@ int
 669 0080 19B2     		sxth	r1, r3
 670 0082 FFF7FEFF 		bl	buffer_append_int16
 671              	.LVL57:
 672              		.loc 1 1071 0
 673 0086 FFF7FEFF 		bl	mc_interface_get_duty_cycle_now
 674              	.LVL58:
 675 008a 20EE090A 		vmul.f32	s0, s0, s18
 676 008e 01AA     		add	r2, sp, #4
 677 0090 BDEEC00A 		vcvt.s32.f32	s0, s0
 678 0094 02A8     		add	r0, sp, #8
 679 0096 10EE103A 		vmov	r3, s0	@ int
 680 009a 19B2     		sxth	r1, r3
 681 009c FFF7FEFF 		bl	buffer_append_int16
 682              	.LVL59:
 683              		.loc 1 1072 0
 684 00a0 2078     		ldrb	r0, [r4]	@ zero_extendqisi2
ARM GAS  /tmp/ccjQGkoy.s 			page 13


 685 00a2 9DF80420 		ldrb	r2, [sp, #4]	@ zero_extendqisi2
 686 00a6 40F41060 		orr	r0, r0, #2304
 687 00aa 02A9     		add	r1, sp, #8
 688 00ac FFF7FEFF 		bl	comm_can_transmit_eid
 689              	.LVL60:
 690 00b0 237B     		ldrb	r3, [r4, #12]	@ zero_extendqisi2
 691              	.LBE171:
 692              		.loc 1 1076 0
 693 00b2 9A1E     		subs	r2, r3, #2
 694 00b4 022A     		cmp	r2, #2
 695 00b6 B5D8     		bhi	.L42
 696              	.L48:
 697              	.LBB172:
 698              		.loc 1 1079 0
 699 00b8 0025     		movs	r5, #0
 700              		.loc 1 1081 0
 701 00ba 2846     		mov	r0, r5
 702              		.loc 1 1079 0
 703 00bc 0195     		str	r5, [sp, #4]
 704              		.loc 1 1081 0
 705 00be FFF7FEFF 		bl	mc_interface_get_amp_hours
 706              	.LVL61:
 707 00c2 20EE280A 		vmul.f32	s0, s0, s17
 708 00c6 01AA     		add	r2, sp, #4
 709 00c8 FDEEC07A 		vcvt.s32.f32	s15, s0
 710 00cc 02A8     		add	r0, sp, #8
 711 00ce 17EE901A 		vmov	r1, s15	@ int
 712 00d2 FFF7FEFF 		bl	buffer_append_int32
 713              	.LVL62:
 714              		.loc 1 1082 0
 715 00d6 2846     		mov	r0, r5
 716 00d8 FFF7FEFF 		bl	mc_interface_get_amp_hours_charged
 717              	.LVL63:
 718 00dc 20EE280A 		vmul.f32	s0, s0, s17
 719 00e0 01AA     		add	r2, sp, #4
 720 00e2 FDEEC07A 		vcvt.s32.f32	s15, s0
 721 00e6 02A8     		add	r0, sp, #8
 722 00e8 17EE901A 		vmov	r1, s15	@ int
 723 00ec FFF7FEFF 		bl	buffer_append_int32
 724              	.LVL64:
 725              		.loc 1 1083 0
 726 00f0 2078     		ldrb	r0, [r4]	@ zero_extendqisi2
 727 00f2 9DF80420 		ldrb	r2, [sp, #4]	@ zero_extendqisi2
 728 00f6 40F46060 		orr	r0, r0, #3584
 729 00fa 02A9     		add	r1, sp, #8
 730 00fc FFF7FEFF 		bl	comm_can_transmit_eid
 731              	.LVL65:
 732 0100 237B     		ldrb	r3, [r4, #12]	@ zero_extendqisi2
 733              	.LBE172:
 734              		.loc 1 1087 0
 735 0102 033B     		subs	r3, r3, #3
 736 0104 012B     		cmp	r3, #1
 737 0106 90D8     		bhi	.L40
 738              	.L49:
 739              	.LBB173:
 740              		.loc 1 1089 0
 741 0108 0025     		movs	r5, #0
ARM GAS  /tmp/ccjQGkoy.s 			page 14


 742              		.loc 1 1091 0
 743 010a 2846     		mov	r0, r5
 744              		.loc 1 1089 0
 745 010c 0195     		str	r5, [sp, #4]
 746              		.loc 1 1091 0
 747 010e FFF7FEFF 		bl	mc_interface_get_watt_hours
 748              	.LVL66:
 749 0112 20EE280A 		vmul.f32	s0, s0, s17
 750 0116 01AA     		add	r2, sp, #4
 751 0118 FDEEC07A 		vcvt.s32.f32	s15, s0
 752 011c 02A8     		add	r0, sp, #8
 753 011e 17EE901A 		vmov	r1, s15	@ int
 754 0122 FFF7FEFF 		bl	buffer_append_int32
 755              	.LVL67:
 756              		.loc 1 1092 0
 757 0126 2846     		mov	r0, r5
 758 0128 FFF7FEFF 		bl	mc_interface_get_watt_hours_charged
 759              	.LVL68:
 760 012c 20EE280A 		vmul.f32	s0, s0, s17
 761 0130 01AA     		add	r2, sp, #4
 762 0132 FDEEC07A 		vcvt.s32.f32	s15, s0
 763 0136 02A8     		add	r0, sp, #8
 764 0138 17EE901A 		vmov	r1, s15	@ int
 765 013c FFF7FEFF 		bl	buffer_append_int32
 766              	.LVL69:
 767              		.loc 1 1093 0
 768 0140 2078     		ldrb	r0, [r4]	@ zero_extendqisi2
 769 0142 9DF80420 		ldrb	r2, [sp, #4]	@ zero_extendqisi2
 770 0146 40F47060 		orr	r0, r0, #3840
 771 014a 02A9     		add	r1, sp, #8
 772 014c FFF7FEFF 		bl	comm_can_transmit_eid
 773              	.LVL70:
 774              	.LBE173:
 775              		.loc 1 1097 0
 776 0150 237B     		ldrb	r3, [r4, #12]	@ zero_extendqisi2
 777 0152 042B     		cmp	r3, #4
 778 0154 7FF469AF 		bne	.L40
 779              	.LBB174:
 780              		.loc 1 1098 0
 781 0158 0195     		str	r5, [sp, #4]
 782              		.loc 1 1100 0
 783 015a FFF7FEFF 		bl	mc_interface_temp_fet_filtered
 784              	.LVL71:
 785 015e B2EE048A 		vmov.f32	s16, #1.0e+1
 786 0162 20EE080A 		vmul.f32	s0, s0, s16
 787 0166 01AA     		add	r2, sp, #4
 788 0168 BDEEC00A 		vcvt.s32.f32	s0, s0
 789 016c 02A8     		add	r0, sp, #8
 790 016e 10EE103A 		vmov	r3, s0	@ int
 791 0172 19B2     		sxth	r1, r3
 792 0174 FFF7FEFF 		bl	buffer_append_int16
 793              	.LVL72:
 794              		.loc 1 1101 0
 795 0178 FFF7FEFF 		bl	mc_interface_temp_motor_filtered
 796              	.LVL73:
 797 017c 20EE080A 		vmul.f32	s0, s0, s16
 798 0180 01AA     		add	r2, sp, #4
ARM GAS  /tmp/ccjQGkoy.s 			page 15


 799 0182 BDEEC00A 		vcvt.s32.f32	s0, s0
 800 0186 02A8     		add	r0, sp, #8
 801 0188 10EE103A 		vmov	r3, s0	@ int
 802 018c 19B2     		sxth	r1, r3
 803 018e FFF7FEFF 		bl	buffer_append_int16
 804              	.LVL74:
 805              		.loc 1 1102 0
 806 0192 FFF7FEFF 		bl	mc_interface_get_tot_current_in_filtered
 807              	.LVL75:
 808 0196 20EE080A 		vmul.f32	s0, s0, s16
 809 019a 01AA     		add	r2, sp, #4
 810 019c BDEEC00A 		vcvt.s32.f32	s0, s0
 811 01a0 02A8     		add	r0, sp, #8
 812 01a2 10EE103A 		vmov	r3, s0	@ int
 813 01a6 19B2     		sxth	r1, r3
 814 01a8 FFF7FEFF 		bl	buffer_append_int16
 815              	.LVL76:
 816              		.loc 1 1103 0
 817 01ac FFF7FEFF 		bl	mc_interface_get_pid_pos_now
 818              	.LVL77:
 819 01b0 20EE290A 		vmul.f32	s0, s0, s19
 820 01b4 01AA     		add	r2, sp, #4
 821 01b6 BDEEC00A 		vcvt.s32.f32	s0, s0
 822 01ba 02A8     		add	r0, sp, #8
 823 01bc 10EE103A 		vmov	r3, s0	@ int
 824 01c0 19B2     		sxth	r1, r3
 825 01c2 FFF7FEFF 		bl	buffer_append_int16
 826              	.LVL78:
 827              		.loc 1 1104 0
 828 01c6 2078     		ldrb	r0, [r4]	@ zero_extendqisi2
 829 01c8 9DF80420 		ldrb	r2, [sp, #4]	@ zero_extendqisi2
 830 01cc 40F48050 		orr	r0, r0, #4096
 831 01d0 02A9     		add	r1, sp, #8
 832 01d2 FFF7FEFF 		bl	comm_can_transmit_eid
 833              	.LVL79:
 834 01d6 28E7     		b	.L40
 835              	.L51:
 836              		.align	2
 837              	.L50:
 838 01d8 00000000 		.word	ch
 839 01dc 00000000 		.word	.LC1
 840 01e0 00401C46 		.word	1176256512
 841 01e4 00004842 		.word	1112014848
 842 01e8 00007A44 		.word	1148846080
 843              	.LBE174:
 844              	.LBE176:
 845              		.cfi_endproc
 846              	.LFE290:
 847              		.size	cancom_status_thread, .-cancom_status_thread
 848              		.section	.text.comm_can_transmit_sid,"ax",%progbits
 849              		.align	1
 850              		.p2align 4,,15
 851              		.global	comm_can_transmit_sid
 852              		.syntax unified
 853              		.thumb
 854              		.thumb_func
 855              		.fpu fpv4-sp-d16
ARM GAS  /tmp/ccjQGkoy.s 			page 16


 856              		.type	comm_can_transmit_sid, %function
 857              	comm_can_transmit_sid:
 858              	.LFB259:
 859              		.loc 1 159 0
 860              		.cfi_startproc
 861              		@ args = 0, pretend = 0, frame = 16
 862              		@ frame_needed = 0, uses_anonymous_args = 0
 863              	.LVL80:
 864 0000 70B5     		push	{r4, r5, r6, lr}
 865              		.cfi_def_cfa_offset 16
 866              		.cfi_offset 4, -16
 867              		.cfi_offset 5, -12
 868              		.cfi_offset 6, -8
 869              		.cfi_offset 14, -4
 870 0002 84B0     		sub	sp, sp, #16
 871              		.cfi_def_cfa_offset 32
 872 0004 082A     		cmp	r2, #8
 873              		.loc 1 166 0
 874 0006 9DF80030 		ldrb	r3, [sp]	@ zero_extendqisi2
 875              		.loc 1 167 0
 876 000a BDF80460 		ldrh	r6, [sp, #4]
 877              		.loc 1 172 0
 878 000e 0F4D     		ldr	r5, .L54
 879 0010 28BF     		it	cs
 880 0012 0822     		movcs	r2, #8
 881              	.LVL81:
 882              		.loc 1 169 0
 883 0014 04AC     		add	r4, sp, #16
 884 0016 03F0CF03 		and	r3, r3, #207
 885 001a 62F30303 		bfi	r3, r2, #0, #4
 886 001e 04F8103D 		strb	r3, [r4, #-16]!
 887              		.loc 1 167 0
 888 0022 60F30A06 		bfi	r6, r0, #0, #11
 889              		.loc 1 170 0
 890 0026 02A8     		add	r0, sp, #8
 891              	.LVL82:
 892              		.loc 1 167 0
 893 0028 ADF80460 		strh	r6, [sp, #4]	@ movhi
 894              		.loc 1 170 0
 895 002c FFF7FEFF 		bl	memcpy
 896              	.LVL83:
 897              		.loc 1 172 0
 898 0030 2846     		mov	r0, r5
 899 0032 FFF7FEFF 		bl	chMtxLock
 900              	.LVL84:
 901              		.loc 1 173 0
 902 0036 2246     		mov	r2, r4
 903 0038 3223     		movs	r3, #50
 904 003a 0021     		movs	r1, #0
 905 003c 0448     		ldr	r0, .L54+4
 906 003e FFF7FEFF 		bl	canTransmit
 907              	.LVL85:
 908              		.loc 1 174 0
 909 0042 2846     		mov	r0, r5
 910 0044 FFF7FEFF 		bl	chMtxUnlock
 911              	.LVL86:
 912              		.loc 1 180 0
ARM GAS  /tmp/ccjQGkoy.s 			page 17


 913 0048 04B0     		add	sp, sp, #16
 914              		.cfi_def_cfa_offset 16
 915              		@ sp needed
 916 004a 70BD     		pop	{r4, r5, r6, pc}
 917              	.L55:
 918              		.align	2
 919              	.L54:
 920 004c 00000000 		.word	.LANCHOR9
 921 0050 00000000 		.word	CAND1
 922              		.cfi_endproc
 923              	.LFE259:
 924              		.size	comm_can_transmit_sid, .-comm_can_transmit_sid
 925              		.section	.text.comm_can_set_sid_rx_callback,"ax",%progbits
 926              		.align	1
 927              		.p2align 4,,15
 928              		.global	comm_can_set_sid_rx_callback
 929              		.syntax unified
 930              		.thumb
 931              		.thumb_func
 932              		.fpu fpv4-sp-d16
 933              		.type	comm_can_set_sid_rx_callback, %function
 934              	comm_can_set_sid_rx_callback:
 935              	.LFB260:
 936              		.loc 1 188 0
 937              		.cfi_startproc
 938              		@ args = 0, pretend = 0, frame = 0
 939              		@ frame_needed = 0, uses_anonymous_args = 0
 940              		@ link register save eliminated.
 941              	.LVL87:
 942              		.loc 1 189 0
 943 0000 014B     		ldr	r3, .L57
 944 0002 1860     		str	r0, [r3]
 945              		.loc 1 190 0
 946 0004 7047     		bx	lr
 947              	.L58:
 948 0006 00BF     		.align	2
 949              	.L57:
 950 0008 00000000 		.word	.LANCHOR13
 951              		.cfi_endproc
 952              	.LFE260:
 953              		.size	comm_can_set_sid_rx_callback, .-comm_can_set_sid_rx_callback
 954              		.section	.text.comm_can_send_buffer,"ax",%progbits
 955              		.align	1
 956              		.p2align 4,,15
 957              		.global	comm_can_send_buffer
 958              		.syntax unified
 959              		.thumb
 960              		.thumb_func
 961              		.fpu fpv4-sp-d16
 962              		.type	comm_can_send_buffer, %function
 963              	comm_can_send_buffer:
 964              	.LFB261:
 965              		.loc 1 212 0
 966              		.cfi_startproc
 967              		@ args = 0, pretend = 0, frame = 24
 968              		@ frame_needed = 0, uses_anonymous_args = 0
 969              	.LVL88:
ARM GAS  /tmp/ccjQGkoy.s 			page 18


 970 0000 2DE9F04F 		push	{r4, r5, r6, r7, r8, r9, r10, fp, lr}
 971              		.cfi_def_cfa_offset 36
 972              		.cfi_offset 4, -36
 973              		.cfi_offset 5, -32
 974              		.cfi_offset 6, -28
 975              		.cfi_offset 7, -24
 976              		.cfi_offset 8, -20
 977              		.cfi_offset 9, -16
 978              		.cfi_offset 10, -12
 979              		.cfi_offset 11, -8
 980              		.cfi_offset 14, -4
 981 0004 87B0     		sub	sp, sp, #28
 982              		.cfi_def_cfa_offset 64
 983              		.loc 1 215 0
 984 0006 062A     		cmp	r2, #6
 985              		.loc 1 212 0
 986 0008 1546     		mov	r5, r2
 987 000a 8246     		mov	r10, r0
 988 000c 0E46     		mov	r6, r1
 989 000e 0193     		str	r3, [sp, #4]
 990              		.loc 1 215 0
 991 0010 45D9     		bls	.L60
 992 0012 D3B2     		uxtb	r3, r2
 993              	.LVL89:
 994 0014 40F4A067 		orr	r7, r0, #1280
 995 0018 0293     		str	r3, [sp, #8]
 996              	.LBB187:
 997              	.LBB188:
 998              	.LBB189:
 999              		.loc 1 224 0
 1000 001a 0021     		movs	r1, #0
 1001              	.LVL90:
 1002              	.LBB190:
 1003              	.LBB191:
 1004              		.loc 1 226 0
 1005 001c 40F20318 		movw	r8, #259
 1006 0020 01E0     		b	.L61
 1007              	.LVL91:
 1008              	.L66:
 1009 0022 4445     		cmp	r4, r8
 1010 0024 53D0     		beq	.L63
 1011              	.LVL92:
 1012              	.L61:
 1013              		.loc 1 230 0
 1014 0026 CC1D     		adds	r4, r1, #7
 1015              	.LVL93:
 1016 0028 5FFA84F9 		uxtb	r9, r4
 1017              		.loc 1 233 0
 1018 002c A9F10703 		sub	r3, r9, #7
 1019              		.loc 1 235 0
 1020 0030 A542     		cmp	r5, r4
 1021 0032 3144     		add	r1, r1, r6
 1022              		.loc 1 233 0
 1023 0034 8DF81030 		strb	r3, [sp, #16]
 1024              		.loc 1 235 0
 1025 0038 7DD3     		bcc	.L64
 1026              		.loc 1 236 0
ARM GAS  /tmp/ccjQGkoy.s 			page 19


 1027 003a 8A88     		ldrh	r2, [r1, #4]	@ unaligned
 1028 003c 0868     		ldr	r0, [r1]	@ unaligned
 1029 003e 8B79     		ldrb	r3, [r1, #6]	@ zero_extendqisi2
 1030 0040 ADF81520 		strh	r2, [sp, #21]	@ unaligned
 1031 0044 CDF81100 		str	r0, [sp, #17]	@ unaligned
 1032 0048 8DF81730 		strb	r3, [sp, #23]
 1033 004c 0822     		movs	r2, #8
 1034              	.LVL94:
 1035              	.L65:
 1036              		.loc 1 242 0
 1037 004e 04A9     		add	r1, sp, #16
 1038 0050 3846     		mov	r0, r7
 1039 0052 FFF7FEFF 		bl	comm_can_transmit_eid
 1040              	.LVL95:
 1041              	.LBE191:
 1042              		.loc 1 225 0
 1043 0056 A542     		cmp	r5, r4
 1044 0058 2146     		mov	r1, r4
 1045 005a E2D8     		bhi	.L66
 1046              	.LVL96:
 1047              	.L67:
 1048              	.LBE190:
 1049              		.loc 1 263 0
 1050 005c FFF7FEFF 		bl	app_get_configuration
 1051              	.LVL97:
 1052              		.loc 1 264 0
 1053 0060 019A     		ldr	r2, [sp, #4]
 1054              		.loc 1 263 0
 1055 0062 0378     		ldrb	r3, [r0]	@ zero_extendqisi2
 1056 0064 8DF81030 		strb	r3, [sp, #16]
 1057              	.LVL98:
 1058              		.loc 1 267 0
 1059 0068 2946     		mov	r1, r5
 1060              		.loc 1 265 0
 1061 006a 2B0A     		lsrs	r3, r5, #8
 1062              		.loc 1 264 0
 1063 006c 8DF81120 		strb	r2, [sp, #17]
 1064              	.LVL99:
 1065              		.loc 1 267 0
 1066 0070 3046     		mov	r0, r6
 1067              		.loc 1 266 0
 1068 0072 029A     		ldr	r2, [sp, #8]
 1069 0074 8DF81320 		strb	r2, [sp, #19]
 1070              		.loc 1 265 0
 1071 0078 8DF81230 		strb	r3, [sp, #18]
 1072              	.LVL100:
 1073              		.loc 1 267 0
 1074 007c FFF7FEFF 		bl	crc16
 1075              	.LVL101:
 1076              		.loc 1 271 0
 1077 0080 04A9     		add	r1, sp, #16
 1078              		.loc 1 267 0
 1079 0082 0346     		mov	r3, r0
 1080              	.LVL102:
 1081              		.loc 1 268 0
 1082 0084 040A     		lsrs	r4, r0, #8
 1083              		.loc 1 271 0
ARM GAS  /tmp/ccjQGkoy.s 			page 20


 1084 0086 0622     		movs	r2, #6
 1085 0088 4AF4E060 		orr	r0, r10, #1792
 1086              	.LVL103:
 1087              		.loc 1 269 0
 1088 008c 8DF81530 		strb	r3, [sp, #21]
 1089              		.loc 1 268 0
 1090 0090 8DF81440 		strb	r4, [sp, #20]
 1091              	.LVL104:
 1092              		.loc 1 271 0
 1093 0094 FFF7FEFF 		bl	comm_can_transmit_eid
 1094              	.LVL105:
 1095              	.LBE189:
 1096              	.LBE188:
 1097              	.LBE187:
 1098              		.loc 1 274 0
 1099 0098 07B0     		add	sp, sp, #28
 1100              		.cfi_remember_state
 1101              		.cfi_def_cfa_offset 36
 1102              		@ sp needed
 1103 009a BDE8F08F 		pop	{r4, r5, r6, r7, r8, r9, r10, fp, pc}
 1104              	.LVL106:
 1105              	.L60:
 1106              		.cfi_restore_state
 1107              	.LBB199:
 1108              		.loc 1 217 0
 1109 009e FFF7FEFF 		bl	app_get_configuration
 1110              	.LVL107:
 1111 00a2 0378     		ldrb	r3, [r0]	@ zero_extendqisi2
 1112 00a4 8DF81030 		strb	r3, [sp, #16]
 1113              	.LVL108:
 1114              		.loc 1 219 0
 1115 00a8 3146     		mov	r1, r6
 1116              		.loc 1 218 0
 1117 00aa 019B     		ldr	r3, [sp, #4]
 1118 00ac 8DF81130 		strb	r3, [sp, #17]
 1119              		.loc 1 219 0
 1120 00b0 2A46     		mov	r2, r5
 1121 00b2 0DF11200 		add	r0, sp, #18
 1122 00b6 FFF7FEFF 		bl	memcpy
 1123              	.LVL109:
 1124              		.loc 1 220 0
 1125 00ba AA1C     		adds	r2, r5, #2
 1126              	.LVL110:
 1127              		.loc 1 221 0
 1128 00bc D2B2     		uxtb	r2, r2
 1129              	.LVL111:
 1130 00be 4AF40060 		orr	r0, r10, #2048
 1131 00c2 04A9     		add	r1, sp, #16
 1132 00c4 FFF7FEFF 		bl	comm_can_transmit_eid
 1133              	.LVL112:
 1134              	.LBE199:
 1135              		.loc 1 274 0
 1136 00c8 07B0     		add	sp, sp, #28
 1137              		.cfi_remember_state
 1138              		.cfi_def_cfa_offset 36
 1139              		@ sp needed
 1140 00ca BDE8F08F 		pop	{r4, r5, r6, r7, r8, r9, r10, fp, pc}
ARM GAS  /tmp/ccjQGkoy.s 			page 21


 1141              	.LVL113:
 1142              	.L63:
 1143              		.cfi_restore_state
 1144              	.LBB200:
 1145              	.LBB198:
 1146              	.LBB197:
 1147              	.LBB193:
 1148              	.LBB194:
 1149              		.loc 1 255 0
 1150 00ce 029B     		ldr	r3, [sp, #8]
 1151 00d0 0396     		str	r6, [sp, #12]
 1152 00d2 9F1D     		adds	r7, r3, #6
 1153 00d4 0833     		adds	r3, r3, #8
 1154 00d6 4AF4C069 		orr	r9, r10, #1536
 1155 00da A6F10608 		sub	r8, r6, #6
 1156 00de 9B46     		mov	fp, r3
 1157 00e0 0CE0     		b	.L70
 1158              	.LVL114:
 1159              	.L74:
 1160              		.loc 1 252 0
 1161 00e2 0A68     		ldr	r2, [r1]	@ unaligned
 1162 00e4 8B88     		ldrh	r3, [r1, #4]	@ unaligned
 1163 00e6 CDF81220 		str	r2, [sp, #18]	@ unaligned
 1164              		.loc 1 258 0
 1165 00ea 04A9     		add	r1, sp, #16
 1166              		.loc 1 252 0
 1167 00ec 0822     		movs	r2, #8
 1168              		.loc 1 258 0
 1169 00ee 4846     		mov	r0, r9
 1170              		.loc 1 252 0
 1171 00f0 ADF81630 		strh	r3, [sp, #22]	@ unaligned
 1172              		.loc 1 258 0
 1173 00f4 FFF7FEFF 		bl	comm_can_transmit_eid
 1174              	.LVL115:
 1175              	.LBE194:
 1176              		.loc 1 246 0
 1177 00f8 A542     		cmp	r5, r4
 1178 00fa 1AD9     		bls	.L73
 1179              	.LVL116:
 1180              	.L70:
 1181              	.LBB195:
 1182              		.loc 1 248 0
 1183 00fc 220A     		lsrs	r2, r4, #8
 1184              		.loc 1 249 0
 1185 00fe 8DF81140 		strb	r4, [sp, #17]
 1186              		.loc 1 251 0
 1187 0102 0634     		adds	r4, r4, #6
 1188              	.LVL117:
 1189 0104 E6B2     		uxtb	r6, r4
 1190              	.LVL118:
 1191 0106 A542     		cmp	r5, r4
 1192              		.loc 1 248 0
 1193 0108 8DF81020 		strb	r2, [sp, #16]
 1194 010c 08EB0401 		add	r1, r8, r4
 1195              		.loc 1 255 0
 1196 0110 A7EB0602 		sub	r2, r7, r6
 1197              		.loc 1 251 0
ARM GAS  /tmp/ccjQGkoy.s 			page 22


 1198 0114 E5D2     		bcs	.L74
 1199              		.loc 1 255 0
 1200 0116 D2B2     		uxtb	r2, r2
 1201 0118 0DF11200 		add	r0, sp, #18
 1202 011c FFF7FEFF 		bl	memcpy
 1203              	.LVL119:
 1204 0120 ABEB0602 		sub	r2, fp, r6
 1205 0124 D2B2     		uxtb	r2, r2
 1206              		.loc 1 258 0
 1207 0126 04A9     		add	r1, sp, #16
 1208 0128 4846     		mov	r0, r9
 1209 012a FFF7FEFF 		bl	comm_can_transmit_eid
 1210              	.LVL120:
 1211              	.LBE195:
 1212              		.loc 1 246 0
 1213 012e A542     		cmp	r5, r4
 1214 0130 E4D8     		bhi	.L70
 1215              	.L73:
 1216 0132 039E     		ldr	r6, [sp, #12]
 1217 0134 92E7     		b	.L67
 1218              	.LVL121:
 1219              	.L64:
 1220              	.LBE193:
 1221              	.LBB196:
 1222              	.LBB192:
 1223              		.loc 1 239 0
 1224 0136 029B     		ldr	r3, [sp, #8]
 1225 0138 C9F10702 		rsb	r2, r9, #7
 1226 013c 1A44     		add	r2, r2, r3
 1227 013e D2B2     		uxtb	r2, r2
 1228 0140 0DF11100 		add	r0, sp, #17
 1229 0144 FFF7FEFF 		bl	memcpy
 1230              	.LVL122:
 1231 0148 029B     		ldr	r3, [sp, #8]
 1232 014a C9F10802 		rsb	r2, r9, #8
 1233 014e 1A44     		add	r2, r2, r3
 1234 0150 D2B2     		uxtb	r2, r2
 1235 0152 7CE7     		b	.L65
 1236              	.LBE192:
 1237              	.LBE196:
 1238              	.LBE197:
 1239              	.LBE198:
 1240              	.LBE200:
 1241              		.cfi_endproc
 1242              	.LFE261:
 1243              		.size	comm_can_send_buffer, .-comm_can_send_buffer
 1244              		.section	.text.send_packet_wrapper,"ax",%progbits
 1245              		.align	1
 1246              		.p2align 4,,15
 1247              		.syntax unified
 1248              		.thumb
 1249              		.thumb_func
 1250              		.fpu fpv4-sp-d16
 1251              		.type	send_packet_wrapper, %function
 1252              	send_packet_wrapper:
 1253              	.LFB291:
 1254              		.loc 1 1118 0
ARM GAS  /tmp/ccjQGkoy.s 			page 23


 1255              		.cfi_startproc
 1256              		@ args = 0, pretend = 0, frame = 0
 1257              		@ frame_needed = 0, uses_anonymous_args = 0
 1258              		@ link register save eliminated.
 1259              	.LVL123:
 1260 0000 10B4     		push	{r4}
 1261              		.cfi_def_cfa_offset 4
 1262              		.cfi_offset 4, -4
 1263              		.loc 1 1119 0
 1264 0002 044C     		ldr	r4, .L77
 1265 0004 0A46     		mov	r2, r1
 1266 0006 0123     		movs	r3, #1
 1267 0008 0146     		mov	r1, r0
 1268              	.LVL124:
 1269 000a 2078     		ldrb	r0, [r4]	@ zero_extendqisi2
 1270              	.LVL125:
 1271              		.loc 1 1120 0
 1272 000c 5DF8044B 		ldr	r4, [sp], #4
 1273              		.cfi_restore 4
 1274              		.cfi_def_cfa_offset 0
 1275              		.loc 1 1119 0
 1276 0010 FFF7FEBF 		b	comm_can_send_buffer
 1277              	.LVL126:
 1278              	.L78:
 1279              		.align	2
 1280              	.L77:
 1281 0014 00000000 		.word	.LANCHOR14
 1282              		.cfi_endproc
 1283              	.LFE291:
 1284              		.size	send_packet_wrapper, .-send_packet_wrapper
 1285              		.section	.text.comm_can_set_duty,"ax",%progbits
 1286              		.align	1
 1287              		.p2align 4,,15
 1288              		.global	comm_can_set_duty
 1289              		.syntax unified
 1290              		.thumb
 1291              		.thumb_func
 1292              		.fpu fpv4-sp-d16
 1293              		.type	comm_can_set_duty, %function
 1294              	comm_can_set_duty:
 1295              	.LFB262:
 1296              		.loc 1 276 0
 1297              		.cfi_startproc
 1298              		@ args = 0, pretend = 0, frame = 8
 1299              		@ frame_needed = 0, uses_anonymous_args = 0
 1300              	.LVL127:
 1301 0000 10B5     		push	{r4, lr}
 1302              		.cfi_def_cfa_offset 8
 1303              		.cfi_offset 4, -8
 1304              		.cfi_offset 14, -4
 1305              		.loc 1 279 0
 1306 0002 DFED0C7A 		vldr.32	s15, .L81
 1307 0006 20EE270A 		vmul.f32	s0, s0, s15
 1308              	.LVL128:
 1309              		.loc 1 276 0
 1310 000a 82B0     		sub	sp, sp, #8
 1311              		.cfi_def_cfa_offset 16
ARM GAS  /tmp/ccjQGkoy.s 			page 24


 1312              		.loc 1 277 0
 1313 000c 02AA     		add	r2, sp, #8
 1314              		.loc 1 279 0
 1315 000e FDEEC07A 		vcvt.s32.f32	s15, s0
 1316              		.loc 1 277 0
 1317 0012 0023     		movs	r3, #0
 1318 0014 42F8083D 		str	r3, [r2, #-8]!
 1319              		.loc 1 279 0
 1320 0018 17EE901A 		vmov	r1, s15	@ int
 1321              		.loc 1 276 0
 1322 001c 0446     		mov	r4, r0
 1323              		.loc 1 279 0
 1324 001e 01A8     		add	r0, sp, #4
 1325              	.LVL129:
 1326 0020 FFF7FEFF 		bl	buffer_append_int32
 1327              	.LVL130:
 1328              		.loc 1 280 0
 1329 0024 01A9     		add	r1, sp, #4
 1330 0026 2046     		mov	r0, r4
 1331 0028 9DF80020 		ldrb	r2, [sp]	@ zero_extendqisi2
 1332 002c FFF7FEFF 		bl	comm_can_transmit_eid
 1333              	.LVL131:
 1334              		.loc 1 282 0
 1335 0030 02B0     		add	sp, sp, #8
 1336              		.cfi_def_cfa_offset 8
 1337              		@ sp needed
 1338 0032 10BD     		pop	{r4, pc}
 1339              	.L82:
 1340              		.align	2
 1341              	.L81:
 1342 0034 0050C347 		.word	1203982336
 1343              		.cfi_endproc
 1344              	.LFE262:
 1345              		.size	comm_can_set_duty, .-comm_can_set_duty
 1346              		.section	.text.comm_can_set_current,"ax",%progbits
 1347              		.align	1
 1348              		.p2align 4,,15
 1349              		.global	comm_can_set_current
 1350              		.syntax unified
 1351              		.thumb
 1352              		.thumb_func
 1353              		.fpu fpv4-sp-d16
 1354              		.type	comm_can_set_current, %function
 1355              	comm_can_set_current:
 1356              	.LFB263:
 1357              		.loc 1 284 0
 1358              		.cfi_startproc
 1359              		@ args = 0, pretend = 0, frame = 8
 1360              		@ frame_needed = 0, uses_anonymous_args = 0
 1361              	.LVL132:
 1362 0000 10B5     		push	{r4, lr}
 1363              		.cfi_def_cfa_offset 8
 1364              		.cfi_offset 4, -8
 1365              		.cfi_offset 14, -4
 1366              		.loc 1 287 0
 1367 0002 DFED0D7A 		vldr.32	s15, .L85
 1368 0006 20EE270A 		vmul.f32	s0, s0, s15
ARM GAS  /tmp/ccjQGkoy.s 			page 25


 1369              	.LVL133:
 1370              		.loc 1 284 0
 1371 000a 82B0     		sub	sp, sp, #8
 1372              		.cfi_def_cfa_offset 16
 1373              		.loc 1 285 0
 1374 000c 02AA     		add	r2, sp, #8
 1375              		.loc 1 287 0
 1376 000e FDEEC07A 		vcvt.s32.f32	s15, s0
 1377              		.loc 1 285 0
 1378 0012 0023     		movs	r3, #0
 1379 0014 42F8083D 		str	r3, [r2, #-8]!
 1380              		.loc 1 287 0
 1381 0018 17EE901A 		vmov	r1, s15	@ int
 1382              		.loc 1 284 0
 1383 001c 0446     		mov	r4, r0
 1384              		.loc 1 287 0
 1385 001e 01A8     		add	r0, sp, #4
 1386              	.LVL134:
 1387 0020 FFF7FEFF 		bl	buffer_append_int32
 1388              	.LVL135:
 1389              		.loc 1 288 0
 1390 0024 01A9     		add	r1, sp, #4
 1391 0026 44F48070 		orr	r0, r4, #256
 1392 002a 9DF80020 		ldrb	r2, [sp]	@ zero_extendqisi2
 1393 002e FFF7FEFF 		bl	comm_can_transmit_eid
 1394              	.LVL136:
 1395              		.loc 1 290 0
 1396 0032 02B0     		add	sp, sp, #8
 1397              		.cfi_def_cfa_offset 8
 1398              		@ sp needed
 1399 0034 10BD     		pop	{r4, pc}
 1400              	.L86:
 1401 0036 00BF     		.align	2
 1402              	.L85:
 1403 0038 00007A44 		.word	1148846080
 1404              		.cfi_endproc
 1405              	.LFE263:
 1406              		.size	comm_can_set_current, .-comm_can_set_current
 1407              		.section	.text.comm_can_set_current_brake,"ax",%progbits
 1408              		.align	1
 1409              		.p2align 4,,15
 1410              		.global	comm_can_set_current_brake
 1411              		.syntax unified
 1412              		.thumb
 1413              		.thumb_func
 1414              		.fpu fpv4-sp-d16
 1415              		.type	comm_can_set_current_brake, %function
 1416              	comm_can_set_current_brake:
 1417              	.LFB264:
 1418              		.loc 1 292 0
 1419              		.cfi_startproc
 1420              		@ args = 0, pretend = 0, frame = 8
 1421              		@ frame_needed = 0, uses_anonymous_args = 0
 1422              	.LVL137:
 1423 0000 10B5     		push	{r4, lr}
 1424              		.cfi_def_cfa_offset 8
 1425              		.cfi_offset 4, -8
ARM GAS  /tmp/ccjQGkoy.s 			page 26


 1426              		.cfi_offset 14, -4
 1427              		.loc 1 295 0
 1428 0002 DFED0D7A 		vldr.32	s15, .L89
 1429 0006 20EE270A 		vmul.f32	s0, s0, s15
 1430              	.LVL138:
 1431              		.loc 1 292 0
 1432 000a 82B0     		sub	sp, sp, #8
 1433              		.cfi_def_cfa_offset 16
 1434              		.loc 1 293 0
 1435 000c 02AA     		add	r2, sp, #8
 1436              		.loc 1 295 0
 1437 000e FDEEC07A 		vcvt.s32.f32	s15, s0
 1438              		.loc 1 293 0
 1439 0012 0023     		movs	r3, #0
 1440 0014 42F8083D 		str	r3, [r2, #-8]!
 1441              		.loc 1 295 0
 1442 0018 17EE901A 		vmov	r1, s15	@ int
 1443              		.loc 1 292 0
 1444 001c 0446     		mov	r4, r0
 1445              		.loc 1 295 0
 1446 001e 01A8     		add	r0, sp, #4
 1447              	.LVL139:
 1448 0020 FFF7FEFF 		bl	buffer_append_int32
 1449              	.LVL140:
 1450              		.loc 1 296 0
 1451 0024 01A9     		add	r1, sp, #4
 1452 0026 44F40070 		orr	r0, r4, #512
 1453 002a 9DF80020 		ldrb	r2, [sp]	@ zero_extendqisi2
 1454 002e FFF7FEFF 		bl	comm_can_transmit_eid
 1455              	.LVL141:
 1456              		.loc 1 298 0
 1457 0032 02B0     		add	sp, sp, #8
 1458              		.cfi_def_cfa_offset 8
 1459              		@ sp needed
 1460 0034 10BD     		pop	{r4, pc}
 1461              	.L90:
 1462 0036 00BF     		.align	2
 1463              	.L89:
 1464 0038 00007A44 		.word	1148846080
 1465              		.cfi_endproc
 1466              	.LFE264:
 1467              		.size	comm_can_set_current_brake, .-comm_can_set_current_brake
 1468              		.section	.text.comm_can_set_rpm,"ax",%progbits
 1469              		.align	1
 1470              		.p2align 4,,15
 1471              		.global	comm_can_set_rpm
 1472              		.syntax unified
 1473              		.thumb
 1474              		.thumb_func
 1475              		.fpu fpv4-sp-d16
 1476              		.type	comm_can_set_rpm, %function
 1477              	comm_can_set_rpm:
 1478              	.LFB265:
 1479              		.loc 1 300 0
 1480              		.cfi_startproc
 1481              		@ args = 0, pretend = 0, frame = 8
 1482              		@ frame_needed = 0, uses_anonymous_args = 0
ARM GAS  /tmp/ccjQGkoy.s 			page 27


 1483              	.LVL142:
 1484 0000 10B5     		push	{r4, lr}
 1485              		.cfi_def_cfa_offset 8
 1486              		.cfi_offset 4, -8
 1487              		.cfi_offset 14, -4
 1488 0002 82B0     		sub	sp, sp, #8
 1489              		.cfi_def_cfa_offset 16
 1490              		.loc 1 301 0
 1491 0004 02AA     		add	r2, sp, #8
 1492              		.loc 1 303 0
 1493 0006 FDEEC07A 		vcvt.s32.f32	s15, s0
 1494              		.loc 1 301 0
 1495 000a 0023     		movs	r3, #0
 1496 000c 42F8083D 		str	r3, [r2, #-8]!
 1497              		.loc 1 303 0
 1498 0010 17EE901A 		vmov	r1, s15	@ int
 1499              		.loc 1 300 0
 1500 0014 0446     		mov	r4, r0
 1501              		.loc 1 303 0
 1502 0016 01A8     		add	r0, sp, #4
 1503              	.LVL143:
 1504 0018 FFF7FEFF 		bl	buffer_append_int32
 1505              	.LVL144:
 1506              		.loc 1 304 0
 1507 001c 01A9     		add	r1, sp, #4
 1508 001e 44F44070 		orr	r0, r4, #768
 1509 0022 9DF80020 		ldrb	r2, [sp]	@ zero_extendqisi2
 1510 0026 FFF7FEFF 		bl	comm_can_transmit_eid
 1511              	.LVL145:
 1512              		.loc 1 306 0
 1513 002a 02B0     		add	sp, sp, #8
 1514              		.cfi_def_cfa_offset 8
 1515              		@ sp needed
 1516 002c 10BD     		pop	{r4, pc}
 1517              		.cfi_endproc
 1518              	.LFE265:
 1519              		.size	comm_can_set_rpm, .-comm_can_set_rpm
 1520 002e 00BF     		.section	.text.comm_can_set_pos,"ax",%progbits
 1521              		.align	1
 1522              		.p2align 4,,15
 1523              		.global	comm_can_set_pos
 1524              		.syntax unified
 1525              		.thumb
 1526              		.thumb_func
 1527              		.fpu fpv4-sp-d16
 1528              		.type	comm_can_set_pos, %function
 1529              	comm_can_set_pos:
 1530              	.LFB266:
 1531              		.loc 1 308 0
 1532              		.cfi_startproc
 1533              		@ args = 0, pretend = 0, frame = 8
 1534              		@ frame_needed = 0, uses_anonymous_args = 0
 1535              	.LVL146:
 1536 0000 10B5     		push	{r4, lr}
 1537              		.cfi_def_cfa_offset 8
 1538              		.cfi_offset 4, -8
 1539              		.cfi_offset 14, -4
ARM GAS  /tmp/ccjQGkoy.s 			page 28


 1540              		.loc 1 311 0
 1541 0002 DFED0D7A 		vldr.32	s15, .L95
 1542 0006 20EE270A 		vmul.f32	s0, s0, s15
 1543              	.LVL147:
 1544              		.loc 1 308 0
 1545 000a 82B0     		sub	sp, sp, #8
 1546              		.cfi_def_cfa_offset 16
 1547              		.loc 1 309 0
 1548 000c 02AA     		add	r2, sp, #8
 1549              		.loc 1 311 0
 1550 000e FDEEC07A 		vcvt.s32.f32	s15, s0
 1551              		.loc 1 309 0
 1552 0012 0023     		movs	r3, #0
 1553 0014 42F8083D 		str	r3, [r2, #-8]!
 1554              		.loc 1 311 0
 1555 0018 17EE901A 		vmov	r1, s15	@ int
 1556              		.loc 1 308 0
 1557 001c 0446     		mov	r4, r0
 1558              		.loc 1 311 0
 1559 001e 01A8     		add	r0, sp, #4
 1560              	.LVL148:
 1561 0020 FFF7FEFF 		bl	buffer_append_int32
 1562              	.LVL149:
 1563              		.loc 1 312 0
 1564 0024 01A9     		add	r1, sp, #4
 1565 0026 44F48060 		orr	r0, r4, #1024
 1566 002a 9DF80020 		ldrb	r2, [sp]	@ zero_extendqisi2
 1567 002e FFF7FEFF 		bl	comm_can_transmit_eid
 1568              	.LVL150:
 1569              		.loc 1 314 0
 1570 0032 02B0     		add	sp, sp, #8
 1571              		.cfi_def_cfa_offset 8
 1572              		@ sp needed
 1573 0034 10BD     		pop	{r4, pc}
 1574              	.L96:
 1575 0036 00BF     		.align	2
 1576              	.L95:
 1577 0038 00247449 		.word	1232348160
 1578              		.cfi_endproc
 1579              	.LFE266:
 1580              		.size	comm_can_set_pos, .-comm_can_set_pos
 1581              		.section	.text.comm_can_set_current_rel,"ax",%progbits
 1582              		.align	1
 1583              		.p2align 4,,15
 1584              		.global	comm_can_set_current_rel
 1585              		.syntax unified
 1586              		.thumb
 1587              		.thumb_func
 1588              		.fpu fpv4-sp-d16
 1589              		.type	comm_can_set_current_rel, %function
 1590              	comm_can_set_current_rel:
 1591              	.LFB267:
 1592              		.loc 1 325 0
 1593              		.cfi_startproc
 1594              		@ args = 0, pretend = 0, frame = 8
 1595              		@ frame_needed = 0, uses_anonymous_args = 0
 1596              	.LVL151:
ARM GAS  /tmp/ccjQGkoy.s 			page 29


 1597 0000 10B5     		push	{r4, lr}
 1598              		.cfi_def_cfa_offset 8
 1599              		.cfi_offset 4, -8
 1600              		.cfi_offset 14, -4
 1601 0002 82B0     		sub	sp, sp, #8
 1602              		.cfi_def_cfa_offset 16
 1603              		.loc 1 326 0
 1604 0004 02A9     		add	r1, sp, #8
 1605 0006 0023     		movs	r3, #0
 1606 0008 41F8083D 		str	r3, [r1, #-8]!
 1607              		.loc 1 325 0
 1608 000c 0446     		mov	r4, r0
 1609              		.loc 1 328 0
 1610 000e DFED070A 		vldr.32	s1, .L99
 1611 0012 01A8     		add	r0, sp, #4
 1612              	.LVL152:
 1613 0014 FFF7FEFF 		bl	buffer_append_float32
 1614              	.LVL153:
 1615              		.loc 1 329 0
 1616 0018 01A9     		add	r1, sp, #4
 1617 001a 44F42060 		orr	r0, r4, #2560
 1618 001e 9DF80020 		ldrb	r2, [sp]	@ zero_extendqisi2
 1619 0022 FFF7FEFF 		bl	comm_can_transmit_eid
 1620              	.LVL154:
 1621              		.loc 1 331 0
 1622 0026 02B0     		add	sp, sp, #8
 1623              		.cfi_def_cfa_offset 8
 1624              		@ sp needed
 1625 0028 10BD     		pop	{r4, pc}
 1626              	.L100:
 1627 002a 00BF     		.align	2
 1628              	.L99:
 1629 002c 0050C347 		.word	1203982336
 1630              		.cfi_endproc
 1631              	.LFE267:
 1632              		.size	comm_can_set_current_rel, .-comm_can_set_current_rel
 1633              		.section	.text.comm_can_set_current_brake_rel,"ax",%progbits
 1634              		.align	1
 1635              		.p2align 4,,15
 1636              		.global	comm_can_set_current_brake_rel
 1637              		.syntax unified
 1638              		.thumb
 1639              		.thumb_func
 1640              		.fpu fpv4-sp-d16
 1641              		.type	comm_can_set_current_brake_rel, %function
 1642              	comm_can_set_current_brake_rel:
 1643              	.LFB268:
 1644              		.loc 1 342 0
 1645              		.cfi_startproc
 1646              		@ args = 0, pretend = 0, frame = 8
 1647              		@ frame_needed = 0, uses_anonymous_args = 0
 1648              	.LVL155:
 1649 0000 10B5     		push	{r4, lr}
 1650              		.cfi_def_cfa_offset 8
 1651              		.cfi_offset 4, -8
 1652              		.cfi_offset 14, -4
 1653 0002 82B0     		sub	sp, sp, #8
ARM GAS  /tmp/ccjQGkoy.s 			page 30


 1654              		.cfi_def_cfa_offset 16
 1655              		.loc 1 343 0
 1656 0004 02A9     		add	r1, sp, #8
 1657 0006 0023     		movs	r3, #0
 1658 0008 41F8083D 		str	r3, [r1, #-8]!
 1659              		.loc 1 342 0
 1660 000c 0446     		mov	r4, r0
 1661              		.loc 1 345 0
 1662 000e DFED070A 		vldr.32	s1, .L103
 1663 0012 01A8     		add	r0, sp, #4
 1664              	.LVL156:
 1665 0014 FFF7FEFF 		bl	buffer_append_float32
 1666              	.LVL157:
 1667              		.loc 1 346 0
 1668 0018 01A9     		add	r1, sp, #4
 1669 001a 44F43060 		orr	r0, r4, #2816
 1670 001e 9DF80020 		ldrb	r2, [sp]	@ zero_extendqisi2
 1671 0022 FFF7FEFF 		bl	comm_can_transmit_eid
 1672              	.LVL158:
 1673              		.loc 1 348 0
 1674 0026 02B0     		add	sp, sp, #8
 1675              		.cfi_def_cfa_offset 8
 1676              		@ sp needed
 1677 0028 10BD     		pop	{r4, pc}
 1678              	.L104:
 1679 002a 00BF     		.align	2
 1680              	.L103:
 1681 002c 0050C347 		.word	1203982336
 1682              		.cfi_endproc
 1683              	.LFE268:
 1684              		.size	comm_can_set_current_brake_rel, .-comm_can_set_current_brake_rel
 1685              		.section	.text.comm_can_set_handbrake,"ax",%progbits
 1686              		.align	1
 1687              		.p2align 4,,15
 1688              		.global	comm_can_set_handbrake
 1689              		.syntax unified
 1690              		.thumb
 1691              		.thumb_func
 1692              		.fpu fpv4-sp-d16
 1693              		.type	comm_can_set_handbrake, %function
 1694              	comm_can_set_handbrake:
 1695              	.LFB269:
 1696              		.loc 1 359 0
 1697              		.cfi_startproc
 1698              		@ args = 0, pretend = 0, frame = 8
 1699              		@ frame_needed = 0, uses_anonymous_args = 0
 1700              	.LVL159:
 1701 0000 10B5     		push	{r4, lr}
 1702              		.cfi_def_cfa_offset 8
 1703              		.cfi_offset 4, -8
 1704              		.cfi_offset 14, -4
 1705 0002 82B0     		sub	sp, sp, #8
 1706              		.cfi_def_cfa_offset 16
 1707              		.loc 1 360 0
 1708 0004 02A9     		add	r1, sp, #8
 1709 0006 0023     		movs	r3, #0
 1710 0008 41F8083D 		str	r3, [r1, #-8]!
ARM GAS  /tmp/ccjQGkoy.s 			page 31


 1711              		.loc 1 359 0
 1712 000c 0446     		mov	r4, r0
 1713              		.loc 1 362 0
 1714 000e DFED070A 		vldr.32	s1, .L107
 1715 0012 01A8     		add	r0, sp, #4
 1716              	.LVL160:
 1717 0014 FFF7FEFF 		bl	buffer_append_float32
 1718              	.LVL161:
 1719              		.loc 1 363 0
 1720 0018 01A9     		add	r1, sp, #4
 1721 001a 44F44060 		orr	r0, r4, #3072
 1722 001e 9DF80020 		ldrb	r2, [sp]	@ zero_extendqisi2
 1723 0022 FFF7FEFF 		bl	comm_can_transmit_eid
 1724              	.LVL162:
 1725              		.loc 1 365 0
 1726 0026 02B0     		add	sp, sp, #8
 1727              		.cfi_def_cfa_offset 8
 1728              		@ sp needed
 1729 0028 10BD     		pop	{r4, pc}
 1730              	.L108:
 1731 002a 00BF     		.align	2
 1732              	.L107:
 1733 002c 00007A44 		.word	1148846080
 1734              		.cfi_endproc
 1735              	.LFE269:
 1736              		.size	comm_can_set_handbrake, .-comm_can_set_handbrake
 1737              		.section	.text.comm_can_set_handbrake_rel,"ax",%progbits
 1738              		.align	1
 1739              		.p2align 4,,15
 1740              		.global	comm_can_set_handbrake_rel
 1741              		.syntax unified
 1742              		.thumb
 1743              		.thumb_func
 1744              		.fpu fpv4-sp-d16
 1745              		.type	comm_can_set_handbrake_rel, %function
 1746              	comm_can_set_handbrake_rel:
 1747              	.LFB270:
 1748              		.loc 1 376 0
 1749              		.cfi_startproc
 1750              		@ args = 0, pretend = 0, frame = 8
 1751              		@ frame_needed = 0, uses_anonymous_args = 0
 1752              	.LVL163:
 1753 0000 10B5     		push	{r4, lr}
 1754              		.cfi_def_cfa_offset 8
 1755              		.cfi_offset 4, -8
 1756              		.cfi_offset 14, -4
 1757 0002 82B0     		sub	sp, sp, #8
 1758              		.cfi_def_cfa_offset 16
 1759              		.loc 1 377 0
 1760 0004 02A9     		add	r1, sp, #8
 1761 0006 0023     		movs	r3, #0
 1762 0008 41F8083D 		str	r3, [r1, #-8]!
 1763              		.loc 1 376 0
 1764 000c 0446     		mov	r4, r0
 1765              		.loc 1 379 0
 1766 000e DFED070A 		vldr.32	s1, .L111
 1767 0012 01A8     		add	r0, sp, #4
ARM GAS  /tmp/ccjQGkoy.s 			page 32


 1768              	.LVL164:
 1769 0014 FFF7FEFF 		bl	buffer_append_float32
 1770              	.LVL165:
 1771              		.loc 1 380 0
 1772 0018 01A9     		add	r1, sp, #4
 1773 001a 44F45060 		orr	r0, r4, #3328
 1774 001e 9DF80020 		ldrb	r2, [sp]	@ zero_extendqisi2
 1775 0022 FFF7FEFF 		bl	comm_can_transmit_eid
 1776              	.LVL166:
 1777              		.loc 1 382 0
 1778 0026 02B0     		add	sp, sp, #8
 1779              		.cfi_def_cfa_offset 8
 1780              		@ sp needed
 1781 0028 10BD     		pop	{r4, pc}
 1782              	.L112:
 1783 002a 00BF     		.align	2
 1784              	.L111:
 1785 002c 0050C347 		.word	1203982336
 1786              		.cfi_endproc
 1787              	.LFE270:
 1788              		.size	comm_can_set_handbrake_rel, .-comm_can_set_handbrake_rel
 1789              		.section	.text.comm_can_ping,"ax",%progbits
 1790              		.align	1
 1791              		.p2align 4,,15
 1792              		.global	comm_can_ping
 1793              		.syntax unified
 1794              		.thumb
 1795              		.thumb_func
 1796              		.fpu fpv4-sp-d16
 1797              		.type	comm_can_ping, %function
 1798              	comm_can_ping:
 1799              	.LFB271:
 1800              		.loc 1 393 0
 1801              		.cfi_startproc
 1802              		@ args = 0, pretend = 0, frame = 8
 1803              		@ frame_needed = 0, uses_anonymous_args = 0
 1804              	.LVL167:
 1805 0000 30B5     		push	{r4, r5, lr}
 1806              		.cfi_def_cfa_offset 12
 1807              		.cfi_offset 4, -12
 1808              		.cfi_offset 5, -8
 1809              		.cfi_offset 14, -4
 1810              	.LBB201:
 1811              	.LBB202:
 1812              		.loc 4 176 0
 1813 0002 104B     		ldr	r3, .L115
 1814              	.LBE202:
 1815              	.LBE201:
 1816              		.loc 1 395 0
 1817 0004 104C     		ldr	r4, .L115+4
 1818 0006 9B69     		ldr	r3, [r3, #24]
 1819 0008 2360     		str	r3, [r4]
 1820              		.loc 1 393 0
 1821 000a 83B0     		sub	sp, sp, #12
 1822              		.cfi_def_cfa_offset 24
 1823              		.loc 1 393 0
 1824 000c 0546     		mov	r5, r0
ARM GAS  /tmp/ccjQGkoy.s 			page 33


 1825              		.loc 1 396 0
 1826 000e 4FF0FF30 		mov	r0, #-1
 1827              	.LVL168:
 1828 0012 FFF7FEFF 		bl	chEvtGetAndClearEvents
 1829              	.LVL169:
 1830              		.loc 1 399 0
 1831 0016 FFF7FEFF 		bl	app_get_configuration
 1832              	.LVL170:
 1833 001a 02A9     		add	r1, sp, #8
 1834 001c 0378     		ldrb	r3, [r0]	@ zero_extendqisi2
 1835 001e 01F8043D 		strb	r3, [r1, #-4]!
 1836              		.loc 1 400 0
 1837 0022 45F48850 		orr	r0, r5, #4352
 1838 0026 0122     		movs	r2, #1
 1839 0028 FFF7FEFF 		bl	comm_can_transmit_eid
 1840              	.LVL171:
 1841              		.loc 1 403 0
 1842 002c 6421     		movs	r1, #100
 1843 002e 4FF00050 		mov	r0, #536870912
 1844 0032 FFF7FEFF 		bl	chEvtWaitAnyTimeout
 1845              	.LVL172:
 1846              		.loc 1 404 0
 1847 0036 0023     		movs	r3, #0
 1848              		.loc 1 410 0
 1849 0038 C01A     		subs	r0, r0, r3
 1850 003a 18BF     		it	ne
 1851 003c 0120     		movne	r0, #1
 1852              	.LVL173:
 1853              		.loc 1 404 0
 1854 003e 2360     		str	r3, [r4]
 1855              		.loc 1 410 0
 1856 0040 03B0     		add	sp, sp, #12
 1857              		.cfi_def_cfa_offset 12
 1858              		@ sp needed
 1859 0042 30BD     		pop	{r4, r5, pc}
 1860              	.L116:
 1861              		.align	2
 1862              	.L115:
 1863 0044 00000000 		.word	ch
 1864 0048 00000000 		.word	.LANCHOR15
 1865              		.cfi_endproc
 1866              	.LFE271:
 1867              		.size	comm_can_ping, .-comm_can_ping
 1868              		.section	.text.comm_can_detect_apply_all_foc,"ax",%progbits
 1869              		.align	1
 1870              		.p2align 4,,15
 1871              		.global	comm_can_detect_apply_all_foc
 1872              		.syntax unified
 1873              		.thumb
 1874              		.thumb_func
 1875              		.fpu fpv4-sp-d16
 1876              		.type	comm_can_detect_apply_all_foc, %function
 1877              	comm_can_detect_apply_all_foc:
 1878              	.LFB272:
 1879              		.loc 1 424 0
 1880              		.cfi_startproc
 1881              		@ args = 0, pretend = 0, frame = 16
ARM GAS  /tmp/ccjQGkoy.s 			page 34


 1882              		@ frame_needed = 0, uses_anonymous_args = 0
 1883              	.LVL174:
 1884 0000 30B5     		push	{r4, r5, lr}
 1885              		.cfi_def_cfa_offset 12
 1886              		.cfi_offset 4, -12
 1887              		.cfi_offset 5, -8
 1888              		.cfi_offset 14, -4
 1889 0002 2DED028B 		vpush.64	{d8}
 1890              		.cfi_def_cfa_offset 20
 1891              		.cfi_offset 80, -20
 1892              		.cfi_offset 81, -16
 1893 0006 85B0     		sub	sp, sp, #20
 1894              		.cfi_def_cfa_offset 40
 1895              		.loc 1 425 0
 1896 0008 0023     		movs	r3, #0
 1897              		.loc 1 424 0
 1898 000a 0D46     		mov	r5, r1
 1899 000c 0446     		mov	r4, r0
 1900 000e B0EE408A 		vmov.f32	s16, s0
 1901              		.loc 1 425 0
 1902 0012 0193     		str	r3, [sp, #4]
 1903              		.loc 1 427 0
 1904 0014 FFF7FEFF 		bl	app_get_configuration
 1905              	.LVL175:
 1906 0018 019B     		ldr	r3, [sp, #4]
 1907 001a 0278     		ldrb	r2, [r0]	@ zero_extendqisi2
 1908              		.loc 1 429 0
 1909 001c DFED0D0A 		vldr.32	s1, .L119
 1910              		.loc 1 428 0
 1911 0020 04A9     		add	r1, sp, #16
 1912 0022 981C     		adds	r0, r3, #2
 1913 0024 41F80C0D 		str	r0, [r1, #-12]!
 1914              		.loc 1 427 0
 1915 0028 04A8     		add	r0, sp, #16
 1916 002a 0344     		add	r3, r3, r0
 1917              		.loc 1 429 0
 1918 002c B0EE480A 		vmov.f32	s0, s16
 1919 0030 02A8     		add	r0, sp, #8
 1920              		.loc 1 427 0
 1921 0032 03F8082C 		strb	r2, [r3, #-8]
 1922              		.loc 1 428 0
 1923 0036 03F8075C 		strb	r5, [r3, #-7]
 1924              		.loc 1 429 0
 1925 003a FFF7FEFF 		bl	buffer_append_float32
 1926              	.LVL176:
 1927              		.loc 1 430 0
 1928 003e 02A9     		add	r1, sp, #8
 1929 0040 44F49850 		orr	r0, r4, #4864
 1930 0044 9DF80420 		ldrb	r2, [sp, #4]	@ zero_extendqisi2
 1931 0048 FFF7FEFF 		bl	comm_can_transmit_eid
 1932              	.LVL177:
 1933              		.loc 1 432 0
 1934 004c 05B0     		add	sp, sp, #20
 1935              		.cfi_def_cfa_offset 20
 1936              		@ sp needed
 1937 004e BDEC028B 		vldm	sp!, {d8}
 1938              		.cfi_restore 80
ARM GAS  /tmp/ccjQGkoy.s 			page 35


 1939              		.cfi_restore 81
 1940              		.cfi_def_cfa_offset 12
 1941              	.LVL178:
 1942 0052 30BD     		pop	{r4, r5, pc}
 1943              	.L120:
 1944              		.align	2
 1945              	.L119:
 1946 0054 00007A44 		.word	1148846080
 1947              		.cfi_endproc
 1948              	.LFE272:
 1949              		.size	comm_can_detect_apply_all_foc, .-comm_can_detect_apply_all_foc
 1950              		.section	.text.comm_can_conf_current_limits,"ax",%progbits
 1951              		.align	1
 1952              		.p2align 4,,15
 1953              		.global	comm_can_conf_current_limits
 1954              		.syntax unified
 1955              		.thumb
 1956              		.thumb_func
 1957              		.fpu fpv4-sp-d16
 1958              		.type	comm_can_conf_current_limits, %function
 1959              	comm_can_conf_current_limits:
 1960              	.LFB273:
 1961              		.loc 1 450 0
 1962              		.cfi_startproc
 1963              		@ args = 0, pretend = 0, frame = 16
 1964              		@ frame_needed = 0, uses_anonymous_args = 0
 1965              	.LVL179:
 1966 0000 70B5     		push	{r4, r5, r6, lr}
 1967              		.cfi_def_cfa_offset 16
 1968              		.cfi_offset 4, -16
 1969              		.cfi_offset 5, -12
 1970              		.cfi_offset 6, -8
 1971              		.cfi_offset 14, -4
 1972 0002 2DED028B 		vpush.64	{d8}
 1973              		.cfi_def_cfa_offset 24
 1974              		.cfi_offset 80, -24
 1975              		.cfi_offset 81, -20
 1976 0006 84B0     		sub	sp, sp, #16
 1977              		.cfi_def_cfa_offset 40
 1978              		.loc 1 451 0
 1979 0008 04AC     		add	r4, sp, #16
 1980 000a 0023     		movs	r3, #0
 1981 000c 44F80C3D 		str	r3, [r4, #-12]!
 1982              		.loc 1 450 0
 1983 0010 B0EE608A 		vmov.f32	s16, s1
 1984 0014 0546     		mov	r5, r0
 1985 0016 0E46     		mov	r6, r1
 1986              		.loc 1 453 0
 1987 0018 02A8     		add	r0, sp, #8
 1988              	.LVL180:
 1989 001a 2146     		mov	r1, r4
 1990              	.LVL181:
 1991 001c DFED0D0A 		vldr.32	s1, .L125
 1992              	.LVL182:
 1993 0020 FFF7FEFF 		bl	buffer_append_float32
 1994              	.LVL183:
 1995              		.loc 1 454 0
ARM GAS  /tmp/ccjQGkoy.s 			page 36


 1996 0024 02A8     		add	r0, sp, #8
 1997 0026 2146     		mov	r1, r4
 1998 0028 B0EE480A 		vmov.f32	s0, s16
 1999 002c DFED090A 		vldr.32	s1, .L125
 2000 0030 FFF7FEFF 		bl	buffer_append_float32
 2001              	.LVL184:
 2002              		.loc 1 457 0
 2003 0034 002E     		cmp	r6, #0
 2004 0036 14BF     		ite	ne
 2005 0038 4FF4B050 		movne	r0, #5632
 2006 003c 4FF4A850 		moveq	r0, #5376
 2007              		.loc 1 455 0
 2008 0040 02A9     		add	r1, sp, #8
 2009 0042 2843     		orrs	r0, r0, r5
 2010 0044 9DF80420 		ldrb	r2, [sp, #4]	@ zero_extendqisi2
 2011 0048 FFF7FEFF 		bl	comm_can_transmit_eid
 2012              	.LVL185:
 2013              		.loc 1 458 0
 2014 004c 04B0     		add	sp, sp, #16
 2015              		.cfi_def_cfa_offset 24
 2016              		@ sp needed
 2017 004e BDEC028B 		vldm	sp!, {d8}
 2018              		.cfi_restore 80
 2019              		.cfi_restore 81
 2020              		.cfi_def_cfa_offset 16
 2021              	.LVL186:
 2022 0052 70BD     		pop	{r4, r5, r6, pc}
 2023              	.L126:
 2024              		.align	2
 2025              	.L125:
 2026 0054 00007A44 		.word	1148846080
 2027              		.cfi_endproc
 2028              	.LFE273:
 2029              		.size	comm_can_conf_current_limits, .-comm_can_conf_current_limits
 2030              		.section	.text.comm_can_conf_current_limits_in,"ax",%progbits
 2031              		.align	1
 2032              		.p2align 4,,15
 2033              		.global	comm_can_conf_current_limits_in
 2034              		.syntax unified
 2035              		.thumb
 2036              		.thumb_func
 2037              		.fpu fpv4-sp-d16
 2038              		.type	comm_can_conf_current_limits_in, %function
 2039              	comm_can_conf_current_limits_in:
 2040              	.LFB274:
 2041              		.loc 1 476 0
 2042              		.cfi_startproc
 2043              		@ args = 0, pretend = 0, frame = 16
 2044              		@ frame_needed = 0, uses_anonymous_args = 0
 2045              	.LVL187:
 2046 0000 70B5     		push	{r4, r5, r6, lr}
 2047              		.cfi_def_cfa_offset 16
 2048              		.cfi_offset 4, -16
 2049              		.cfi_offset 5, -12
 2050              		.cfi_offset 6, -8
 2051              		.cfi_offset 14, -4
 2052 0002 2DED028B 		vpush.64	{d8}
ARM GAS  /tmp/ccjQGkoy.s 			page 37


 2053              		.cfi_def_cfa_offset 24
 2054              		.cfi_offset 80, -24
 2055              		.cfi_offset 81, -20
 2056 0006 84B0     		sub	sp, sp, #16
 2057              		.cfi_def_cfa_offset 40
 2058              		.loc 1 477 0
 2059 0008 04AC     		add	r4, sp, #16
 2060 000a 0023     		movs	r3, #0
 2061 000c 44F80C3D 		str	r3, [r4, #-12]!
 2062              		.loc 1 476 0
 2063 0010 B0EE608A 		vmov.f32	s16, s1
 2064 0014 0546     		mov	r5, r0
 2065 0016 0E46     		mov	r6, r1
 2066              		.loc 1 479 0
 2067 0018 02A8     		add	r0, sp, #8
 2068              	.LVL188:
 2069 001a 2146     		mov	r1, r4
 2070              	.LVL189:
 2071 001c DFED0D0A 		vldr.32	s1, .L131
 2072              	.LVL190:
 2073 0020 FFF7FEFF 		bl	buffer_append_float32
 2074              	.LVL191:
 2075              		.loc 1 480 0
 2076 0024 02A8     		add	r0, sp, #8
 2077 0026 2146     		mov	r1, r4
 2078 0028 B0EE480A 		vmov.f32	s0, s16
 2079 002c DFED090A 		vldr.32	s1, .L131
 2080 0030 FFF7FEFF 		bl	buffer_append_float32
 2081              	.LVL192:
 2082              		.loc 1 483 0
 2083 0034 002E     		cmp	r6, #0
 2084 0036 14BF     		ite	ne
 2085 0038 4FF4C050 		movne	r0, #6144
 2086 003c 4FF4B850 		moveq	r0, #5888
 2087              		.loc 1 481 0
 2088 0040 02A9     		add	r1, sp, #8
 2089 0042 2843     		orrs	r0, r0, r5
 2090 0044 9DF80420 		ldrb	r2, [sp, #4]	@ zero_extendqisi2
 2091 0048 FFF7FEFF 		bl	comm_can_transmit_eid
 2092              	.LVL193:
 2093              		.loc 1 484 0
 2094 004c 04B0     		add	sp, sp, #16
 2095              		.cfi_def_cfa_offset 24
 2096              		@ sp needed
 2097 004e BDEC028B 		vldm	sp!, {d8}
 2098              		.cfi_restore 80
 2099              		.cfi_restore 81
 2100              		.cfi_def_cfa_offset 16
 2101              	.LVL194:
 2102 0052 70BD     		pop	{r4, r5, r6, pc}
 2103              	.L132:
 2104              		.align	2
 2105              	.L131:
 2106 0054 00007A44 		.word	1148846080
 2107              		.cfi_endproc
 2108              	.LFE274:
 2109              		.size	comm_can_conf_current_limits_in, .-comm_can_conf_current_limits_in
ARM GAS  /tmp/ccjQGkoy.s 			page 38


 2110              		.section	.text.comm_can_conf_foc_erpms,"ax",%progbits
 2111              		.align	1
 2112              		.p2align 4,,15
 2113              		.global	comm_can_conf_foc_erpms
 2114              		.syntax unified
 2115              		.thumb
 2116              		.thumb_func
 2117              		.fpu fpv4-sp-d16
 2118              		.type	comm_can_conf_foc_erpms, %function
 2119              	comm_can_conf_foc_erpms:
 2120              	.LFB275:
 2121              		.loc 1 502 0
 2122              		.cfi_startproc
 2123              		@ args = 0, pretend = 0, frame = 16
 2124              		@ frame_needed = 0, uses_anonymous_args = 0
 2125              	.LVL195:
 2126 0000 70B5     		push	{r4, r5, r6, lr}
 2127              		.cfi_def_cfa_offset 16
 2128              		.cfi_offset 4, -16
 2129              		.cfi_offset 5, -12
 2130              		.cfi_offset 6, -8
 2131              		.cfi_offset 14, -4
 2132 0002 2DED028B 		vpush.64	{d8}
 2133              		.cfi_def_cfa_offset 24
 2134              		.cfi_offset 80, -24
 2135              		.cfi_offset 81, -20
 2136 0006 84B0     		sub	sp, sp, #16
 2137              		.cfi_def_cfa_offset 40
 2138              		.loc 1 503 0
 2139 0008 04AC     		add	r4, sp, #16
 2140 000a 0023     		movs	r3, #0
 2141 000c 44F80C3D 		str	r3, [r4, #-12]!
 2142              		.loc 1 502 0
 2143 0010 B0EE608A 		vmov.f32	s16, s1
 2144 0014 0546     		mov	r5, r0
 2145 0016 0E46     		mov	r6, r1
 2146              		.loc 1 505 0
 2147 0018 02A8     		add	r0, sp, #8
 2148              	.LVL196:
 2149 001a 2146     		mov	r1, r4
 2150              	.LVL197:
 2151 001c DFED0D0A 		vldr.32	s1, .L137
 2152              	.LVL198:
 2153 0020 FFF7FEFF 		bl	buffer_append_float32
 2154              	.LVL199:
 2155              		.loc 1 506 0
 2156 0024 02A8     		add	r0, sp, #8
 2157 0026 2146     		mov	r1, r4
 2158 0028 B0EE480A 		vmov.f32	s0, s16
 2159 002c DFED090A 		vldr.32	s1, .L137
 2160 0030 FFF7FEFF 		bl	buffer_append_float32
 2161              	.LVL200:
 2162              		.loc 1 509 0
 2163 0034 002E     		cmp	r6, #0
 2164 0036 14BF     		ite	ne
 2165 0038 4FF4D050 		movne	r0, #6656
 2166 003c 4FF4C850 		moveq	r0, #6400
ARM GAS  /tmp/ccjQGkoy.s 			page 39


 2167              		.loc 1 507 0
 2168 0040 02A9     		add	r1, sp, #8
 2169 0042 2843     		orrs	r0, r0, r5
 2170 0044 9DF80420 		ldrb	r2, [sp, #4]	@ zero_extendqisi2
 2171 0048 FFF7FEFF 		bl	comm_can_transmit_eid
 2172              	.LVL201:
 2173              		.loc 1 510 0
 2174 004c 04B0     		add	sp, sp, #16
 2175              		.cfi_def_cfa_offset 24
 2176              		@ sp needed
 2177 004e BDEC028B 		vldm	sp!, {d8}
 2178              		.cfi_restore 80
 2179              		.cfi_restore 81
 2180              		.cfi_def_cfa_offset 16
 2181              	.LVL202:
 2182 0052 70BD     		pop	{r4, r5, r6, pc}
 2183              	.L138:
 2184              		.align	2
 2185              	.L137:
 2186 0054 00007A44 		.word	1148846080
 2187              		.cfi_endproc
 2188              	.LFE275:
 2189              		.size	comm_can_conf_foc_erpms, .-comm_can_conf_foc_erpms
 2190              		.section	.text.comm_can_detect_all_foc_res,"ax",%progbits
 2191              		.align	1
 2192              		.p2align 4,,15
 2193              		.global	comm_can_detect_all_foc_res
 2194              		.syntax unified
 2195              		.thumb
 2196              		.thumb_func
 2197              		.fpu fpv4-sp-d16
 2198              		.type	comm_can_detect_all_foc_res, %function
 2199              	comm_can_detect_all_foc_res:
 2200              	.LFB276:
 2201              		.loc 1 512 0
 2202              		.cfi_startproc
 2203              		@ args = 0, pretend = 0, frame = 0
 2204              		@ frame_needed = 0, uses_anonymous_args = 0
 2205              		@ link register save eliminated.
 2206              	.LVL203:
 2207              		.loc 1 513 0
 2208 0000 034B     		ldr	r3, .L142
 2209 0002 1B68     		ldr	r3, [r3]
 2210 0004 8342     		cmp	r3, r0
 2211              		.loc 1 514 0
 2212 0006 86BF     		itte	hi
 2213 0008 024A     		ldrhi	r2, .L142+4
 2214 000a D056     		ldrsbhi	r0, [r2, r3]
 2215              	.LVL204:
 2216              		.loc 1 516 0
 2217 000c 0248     		ldrls	r0, .L142+8
 2218              		.loc 1 518 0
 2219 000e 7047     		bx	lr
 2220              	.L143:
 2221              		.align	2
 2222              	.L142:
 2223 0010 00000000 		.word	.LANCHOR16
ARM GAS  /tmp/ccjQGkoy.s 			page 40


 2224 0014 00000000 		.word	.LANCHOR17
 2225 0018 19FCFFFF 		.word	-999
 2226              		.cfi_endproc
 2227              	.LFE276:
 2228              		.size	comm_can_detect_all_foc_res, .-comm_can_detect_all_foc_res
 2229              		.section	.text.comm_can_detect_all_foc_res_size,"ax",%progbits
 2230              		.align	1
 2231              		.p2align 4,,15
 2232              		.global	comm_can_detect_all_foc_res_size
 2233              		.syntax unified
 2234              		.thumb
 2235              		.thumb_func
 2236              		.fpu fpv4-sp-d16
 2237              		.type	comm_can_detect_all_foc_res_size, %function
 2238              	comm_can_detect_all_foc_res_size:
 2239              	.LFB277:
 2240              		.loc 1 520 0
 2241              		.cfi_startproc
 2242              		@ args = 0, pretend = 0, frame = 0
 2243              		@ frame_needed = 0, uses_anonymous_args = 0
 2244              		@ link register save eliminated.
 2245              		.loc 1 521 0
 2246 0000 014B     		ldr	r3, .L145
 2247              		.loc 1 522 0
 2248 0002 1868     		ldr	r0, [r3]
 2249 0004 7047     		bx	lr
 2250              	.L146:
 2251 0006 00BF     		.align	2
 2252              	.L145:
 2253 0008 00000000 		.word	.LANCHOR16
 2254              		.cfi_endproc
 2255              	.LFE277:
 2256              		.size	comm_can_detect_all_foc_res_size, .-comm_can_detect_all_foc_res_size
 2257              		.section	.text.comm_can_detect_all_foc_res_clear,"ax",%progbits
 2258              		.align	1
 2259              		.p2align 4,,15
 2260              		.global	comm_can_detect_all_foc_res_clear
 2261              		.syntax unified
 2262              		.thumb
 2263              		.thumb_func
 2264              		.fpu fpv4-sp-d16
 2265              		.type	comm_can_detect_all_foc_res_clear, %function
 2266              	comm_can_detect_all_foc_res_clear:
 2267              	.LFB278:
 2268              		.loc 1 524 0
 2269              		.cfi_startproc
 2270              		@ args = 0, pretend = 0, frame = 0
 2271              		@ frame_needed = 0, uses_anonymous_args = 0
 2272              		@ link register save eliminated.
 2273              		.loc 1 525 0
 2274 0000 014B     		ldr	r3, .L148
 2275 0002 0022     		movs	r2, #0
 2276 0004 1A60     		str	r2, [r3]
 2277              		.loc 1 526 0
 2278 0006 7047     		bx	lr
 2279              	.L149:
 2280              		.align	2
ARM GAS  /tmp/ccjQGkoy.s 			page 41


 2281              	.L148:
 2282 0008 00000000 		.word	.LANCHOR16
 2283              		.cfi_endproc
 2284              	.LFE278:
 2285              		.size	comm_can_detect_all_foc_res_clear, .-comm_can_detect_all_foc_res_clear
 2286              		.section	.text.comm_can_get_status_msg_index,"ax",%progbits
 2287              		.align	1
 2288              		.p2align 4,,15
 2289              		.global	comm_can_get_status_msg_index
 2290              		.syntax unified
 2291              		.thumb
 2292              		.thumb_func
 2293              		.fpu fpv4-sp-d16
 2294              		.type	comm_can_get_status_msg_index, %function
 2295              	comm_can_get_status_msg_index:
 2296              	.LFB279:
 2297              		.loc 1 537 0
 2298              		.cfi_startproc
 2299              		@ args = 0, pretend = 0, frame = 0
 2300              		@ frame_needed = 0, uses_anonymous_args = 0
 2301              		@ link register save eliminated.
 2302              	.LVL205:
 2303              		.loc 1 538 0
 2304 0000 0928     		cmp	r0, #9
 2305              		.loc 1 539 0
 2306 0002 DDBF     		ittte	le
 2307 0004 034B     		ldrle	r3, .L153
 2308 0006 00EB8000 		addle	r0, r0, r0, lsl #2
 2309              	.LVL206:
 2310 000a 03EB8000 		addle	r0, r3, r0, lsl #2
 2311              		.loc 1 541 0
 2312 000e 0020     		movgt	r0, #0
 2313              		.loc 1 543 0
 2314 0010 7047     		bx	lr
 2315              	.L154:
 2316 0012 00BF     		.align	2
 2317              	.L153:
 2318 0014 00000000 		.word	.LANCHOR4
 2319              		.cfi_endproc
 2320              	.LFE279:
 2321              		.size	comm_can_get_status_msg_index, .-comm_can_get_status_msg_index
 2322              		.section	.text.comm_can_get_status_msg_id,"ax",%progbits
 2323              		.align	1
 2324              		.p2align 4,,15
 2325              		.global	comm_can_get_status_msg_id
 2326              		.syntax unified
 2327              		.thumb
 2328              		.thumb_func
 2329              		.fpu fpv4-sp-d16
 2330              		.type	comm_can_get_status_msg_id, %function
 2331              	comm_can_get_status_msg_id:
 2332              	.LFB280:
 2333              		.loc 1 554 0
 2334              		.cfi_startproc
 2335              		@ args = 0, pretend = 0, frame = 0
 2336              		@ frame_needed = 0, uses_anonymous_args = 0
 2337              		@ link register save eliminated.
ARM GAS  /tmp/ccjQGkoy.s 			page 42


 2338              	.LVL207:
 2339 0000 10B4     		push	{r4}
 2340              		.cfi_def_cfa_offset 4
 2341              		.cfi_offset 4, -4
 2342 0002 0B4C     		ldr	r4, .L162
 2343              	.LBB203:
 2344              		.loc 1 555 0
 2345 0004 0023     		movs	r3, #0
 2346 0006 2246     		mov	r2, r4
 2347              	.LVL208:
 2348              	.L158:
 2349              		.loc 1 556 0
 2350 0008 1168     		ldr	r1, [r2]
 2351 000a 8142     		cmp	r1, r0
 2352 000c 02F11402 		add	r2, r2, #20
 2353 0010 06D0     		beq	.L161
 2354              		.loc 1 555 0 discriminator 2
 2355 0012 0133     		adds	r3, r3, #1
 2356              	.LVL209:
 2357 0014 0A2B     		cmp	r3, #10
 2358 0016 F7D1     		bne	.L158
 2359              	.LBE203:
 2360              		.loc 1 561 0
 2361 0018 0020     		movs	r0, #0
 2362              	.LVL210:
 2363              		.loc 1 562 0
 2364 001a 5DF8044B 		ldr	r4, [sp], #4
 2365              		.cfi_remember_state
 2366              		.cfi_restore 4
 2367              		.cfi_def_cfa_offset 0
 2368 001e 7047     		bx	lr
 2369              	.LVL211:
 2370              	.L161:
 2371              		.cfi_restore_state
 2372              	.LBB204:
 2373              		.loc 1 557 0
 2374 0020 03EB8303 		add	r3, r3, r3, lsl #2
 2375              	.LVL212:
 2376 0024 04EB8300 		add	r0, r4, r3, lsl #2
 2377              	.LVL213:
 2378              	.LBE204:
 2379              		.loc 1 562 0
 2380 0028 5DF8044B 		ldr	r4, [sp], #4
 2381              		.cfi_restore 4
 2382              		.cfi_def_cfa_offset 0
 2383 002c 7047     		bx	lr
 2384              	.L163:
 2385 002e 00BF     		.align	2
 2386              	.L162:
 2387 0030 00000000 		.word	.LANCHOR4
 2388              		.cfi_endproc
 2389              	.LFE280:
 2390              		.size	comm_can_get_status_msg_id, .-comm_can_get_status_msg_id
 2391              		.section	.text.comm_can_get_status_msg_2_index,"ax",%progbits
 2392              		.align	1
 2393              		.p2align 4,,15
 2394              		.global	comm_can_get_status_msg_2_index
ARM GAS  /tmp/ccjQGkoy.s 			page 43


 2395              		.syntax unified
 2396              		.thumb
 2397              		.thumb_func
 2398              		.fpu fpv4-sp-d16
 2399              		.type	comm_can_get_status_msg_2_index, %function
 2400              	comm_can_get_status_msg_2_index:
 2401              	.LFB281:
 2402              		.loc 1 573 0
 2403              		.cfi_startproc
 2404              		@ args = 0, pretend = 0, frame = 0
 2405              		@ frame_needed = 0, uses_anonymous_args = 0
 2406              		@ link register save eliminated.
 2407              	.LVL214:
 2408              		.loc 1 574 0
 2409 0000 0928     		cmp	r0, #9
 2410              		.loc 1 575 0
 2411 0002 DABF     		itte	le
 2412 0004 024B     		ldrle	r3, .L167
 2413 0006 03EB0010 		addle	r0, r3, r0, lsl #4
 2414              	.LVL215:
 2415              		.loc 1 577 0
 2416 000a 0020     		movgt	r0, #0
 2417              		.loc 1 579 0
 2418 000c 7047     		bx	lr
 2419              	.L168:
 2420 000e 00BF     		.align	2
 2421              	.L167:
 2422 0010 00000000 		.word	.LANCHOR6
 2423              		.cfi_endproc
 2424              	.LFE281:
 2425              		.size	comm_can_get_status_msg_2_index, .-comm_can_get_status_msg_2_index
 2426              		.section	.text.comm_can_get_status_msg_2_id,"ax",%progbits
 2427              		.align	1
 2428              		.p2align 4,,15
 2429              		.global	comm_can_get_status_msg_2_id
 2430              		.syntax unified
 2431              		.thumb
 2432              		.thumb_func
 2433              		.fpu fpv4-sp-d16
 2434              		.type	comm_can_get_status_msg_2_id, %function
 2435              	comm_can_get_status_msg_2_id:
 2436              	.LFB282:
 2437              		.loc 1 590 0
 2438              		.cfi_startproc
 2439              		@ args = 0, pretend = 0, frame = 0
 2440              		@ frame_needed = 0, uses_anonymous_args = 0
 2441              		@ link register save eliminated.
 2442              	.LVL216:
 2443 0000 10B4     		push	{r4}
 2444              		.cfi_def_cfa_offset 4
 2445              		.cfi_offset 4, -4
 2446 0002 084C     		ldr	r4, .L176
 2447              	.LBB205:
 2448              		.loc 1 591 0
 2449 0004 0023     		movs	r3, #0
 2450              	.LVL217:
 2451              	.L172:
ARM GAS  /tmp/ccjQGkoy.s 			page 44


 2452 0006 1A01     		lsls	r2, r3, #4
 2453 0008 0133     		adds	r3, r3, #1
 2454              	.LVL218:
 2455              		.loc 1 592 0
 2456 000a A158     		ldr	r1, [r4, r2]
 2457 000c 8142     		cmp	r1, r0
 2458 000e 05D0     		beq	.L175
 2459              		.loc 1 591 0 discriminator 2
 2460 0010 0A2B     		cmp	r3, #10
 2461 0012 F8D1     		bne	.L172
 2462              	.LBE205:
 2463              		.loc 1 597 0
 2464 0014 0020     		movs	r0, #0
 2465              	.LVL219:
 2466              		.loc 1 598 0
 2467 0016 5DF8044B 		ldr	r4, [sp], #4
 2468              		.cfi_remember_state
 2469              		.cfi_restore 4
 2470              		.cfi_def_cfa_offset 0
 2471 001a 7047     		bx	lr
 2472              	.LVL220:
 2473              	.L175:
 2474              		.cfi_restore_state
 2475              	.LBB206:
 2476              		.loc 1 593 0
 2477 001c A018     		adds	r0, r4, r2
 2478              	.LVL221:
 2479              	.LBE206:
 2480              		.loc 1 598 0
 2481 001e 5DF8044B 		ldr	r4, [sp], #4
 2482              		.cfi_restore 4
 2483              		.cfi_def_cfa_offset 0
 2484 0022 7047     		bx	lr
 2485              	.L177:
 2486              		.align	2
 2487              	.L176:
 2488 0024 00000000 		.word	.LANCHOR6
 2489              		.cfi_endproc
 2490              	.LFE282:
 2491              		.size	comm_can_get_status_msg_2_id, .-comm_can_get_status_msg_2_id
 2492              		.section	.text.comm_can_get_status_msg_3_index,"ax",%progbits
 2493              		.align	1
 2494              		.p2align 4,,15
 2495              		.global	comm_can_get_status_msg_3_index
 2496              		.syntax unified
 2497              		.thumb
 2498              		.thumb_func
 2499              		.fpu fpv4-sp-d16
 2500              		.type	comm_can_get_status_msg_3_index, %function
 2501              	comm_can_get_status_msg_3_index:
 2502              	.LFB283:
 2503              		.loc 1 609 0
 2504              		.cfi_startproc
 2505              		@ args = 0, pretend = 0, frame = 0
 2506              		@ frame_needed = 0, uses_anonymous_args = 0
 2507              		@ link register save eliminated.
 2508              	.LVL222:
ARM GAS  /tmp/ccjQGkoy.s 			page 45


 2509              		.loc 1 610 0
 2510 0000 0928     		cmp	r0, #9
 2511              		.loc 1 611 0
 2512 0002 DABF     		itte	le
 2513 0004 024B     		ldrle	r3, .L181
 2514 0006 03EB0010 		addle	r0, r3, r0, lsl #4
 2515              	.LVL223:
 2516              		.loc 1 613 0
 2517 000a 0020     		movgt	r0, #0
 2518              		.loc 1 615 0
 2519 000c 7047     		bx	lr
 2520              	.L182:
 2521 000e 00BF     		.align	2
 2522              	.L181:
 2523 0010 00000000 		.word	.LANCHOR7
 2524              		.cfi_endproc
 2525              	.LFE283:
 2526              		.size	comm_can_get_status_msg_3_index, .-comm_can_get_status_msg_3_index
 2527              		.section	.text.comm_can_get_status_msg_3_id,"ax",%progbits
 2528              		.align	1
 2529              		.p2align 4,,15
 2530              		.global	comm_can_get_status_msg_3_id
 2531              		.syntax unified
 2532              		.thumb
 2533              		.thumb_func
 2534              		.fpu fpv4-sp-d16
 2535              		.type	comm_can_get_status_msg_3_id, %function
 2536              	comm_can_get_status_msg_3_id:
 2537              	.LFB284:
 2538              		.loc 1 626 0
 2539              		.cfi_startproc
 2540              		@ args = 0, pretend = 0, frame = 0
 2541              		@ frame_needed = 0, uses_anonymous_args = 0
 2542              		@ link register save eliminated.
 2543              	.LVL224:
 2544 0000 10B4     		push	{r4}
 2545              		.cfi_def_cfa_offset 4
 2546              		.cfi_offset 4, -4
 2547 0002 084C     		ldr	r4, .L190
 2548              	.LBB207:
 2549              		.loc 1 627 0
 2550 0004 0023     		movs	r3, #0
 2551              	.LVL225:
 2552              	.L186:
 2553 0006 1A01     		lsls	r2, r3, #4
 2554 0008 0133     		adds	r3, r3, #1
 2555              	.LVL226:
 2556              		.loc 1 628 0
 2557 000a A158     		ldr	r1, [r4, r2]
 2558 000c 8142     		cmp	r1, r0
 2559 000e 05D0     		beq	.L189
 2560              		.loc 1 627 0 discriminator 2
 2561 0010 0A2B     		cmp	r3, #10
 2562 0012 F8D1     		bne	.L186
 2563              	.LBE207:
 2564              		.loc 1 633 0
 2565 0014 0020     		movs	r0, #0
ARM GAS  /tmp/ccjQGkoy.s 			page 46


 2566              	.LVL227:
 2567              		.loc 1 634 0
 2568 0016 5DF8044B 		ldr	r4, [sp], #4
 2569              		.cfi_remember_state
 2570              		.cfi_restore 4
 2571              		.cfi_def_cfa_offset 0
 2572 001a 7047     		bx	lr
 2573              	.LVL228:
 2574              	.L189:
 2575              		.cfi_restore_state
 2576              	.LBB208:
 2577              		.loc 1 629 0
 2578 001c A018     		adds	r0, r4, r2
 2579              	.LVL229:
 2580              	.LBE208:
 2581              		.loc 1 634 0
 2582 001e 5DF8044B 		ldr	r4, [sp], #4
 2583              		.cfi_restore 4
 2584              		.cfi_def_cfa_offset 0
 2585 0022 7047     		bx	lr
 2586              	.L191:
 2587              		.align	2
 2588              	.L190:
 2589 0024 00000000 		.word	.LANCHOR7
 2590              		.cfi_endproc
 2591              	.LFE284:
 2592              		.size	comm_can_get_status_msg_3_id, .-comm_can_get_status_msg_3_id
 2593              		.section	.text.comm_can_get_status_msg_4_index,"ax",%progbits
 2594              		.align	1
 2595              		.p2align 4,,15
 2596              		.global	comm_can_get_status_msg_4_index
 2597              		.syntax unified
 2598              		.thumb
 2599              		.thumb_func
 2600              		.fpu fpv4-sp-d16
 2601              		.type	comm_can_get_status_msg_4_index, %function
 2602              	comm_can_get_status_msg_4_index:
 2603              	.LFB285:
 2604              		.loc 1 645 0
 2605              		.cfi_startproc
 2606              		@ args = 0, pretend = 0, frame = 0
 2607              		@ frame_needed = 0, uses_anonymous_args = 0
 2608              		@ link register save eliminated.
 2609              	.LVL230:
 2610              		.loc 1 646 0
 2611 0000 0928     		cmp	r0, #9
 2612              		.loc 1 647 0
 2613 0002 DDBF     		ittte	le
 2614 0004 034B     		ldrle	r3, .L195
 2615 0006 00EB4000 		addle	r0, r0, r0, lsl #1
 2616              	.LVL231:
 2617 000a 03EBC000 		addle	r0, r3, r0, lsl #3
 2618              		.loc 1 649 0
 2619 000e 0020     		movgt	r0, #0
 2620              		.loc 1 651 0
 2621 0010 7047     		bx	lr
 2622              	.L196:
ARM GAS  /tmp/ccjQGkoy.s 			page 47


 2623 0012 00BF     		.align	2
 2624              	.L195:
 2625 0014 00000000 		.word	.LANCHOR5
 2626              		.cfi_endproc
 2627              	.LFE285:
 2628              		.size	comm_can_get_status_msg_4_index, .-comm_can_get_status_msg_4_index
 2629              		.section	.text.comm_can_get_status_msg_4_id,"ax",%progbits
 2630              		.align	1
 2631              		.p2align 4,,15
 2632              		.global	comm_can_get_status_msg_4_id
 2633              		.syntax unified
 2634              		.thumb
 2635              		.thumb_func
 2636              		.fpu fpv4-sp-d16
 2637              		.type	comm_can_get_status_msg_4_id, %function
 2638              	comm_can_get_status_msg_4_id:
 2639              	.LFB286:
 2640              		.loc 1 662 0
 2641              		.cfi_startproc
 2642              		@ args = 0, pretend = 0, frame = 0
 2643              		@ frame_needed = 0, uses_anonymous_args = 0
 2644              		@ link register save eliminated.
 2645              	.LVL232:
 2646 0000 10B4     		push	{r4}
 2647              		.cfi_def_cfa_offset 4
 2648              		.cfi_offset 4, -4
 2649 0002 0B4C     		ldr	r4, .L204
 2650              	.LBB209:
 2651              		.loc 1 663 0
 2652 0004 0023     		movs	r3, #0
 2653 0006 2246     		mov	r2, r4
 2654              	.LVL233:
 2655              	.L200:
 2656              		.loc 1 664 0
 2657 0008 1168     		ldr	r1, [r2]
 2658 000a 8142     		cmp	r1, r0
 2659 000c 02F11802 		add	r2, r2, #24
 2660 0010 06D0     		beq	.L203
 2661              		.loc 1 663 0 discriminator 2
 2662 0012 0133     		adds	r3, r3, #1
 2663              	.LVL234:
 2664 0014 0A2B     		cmp	r3, #10
 2665 0016 F7D1     		bne	.L200
 2666              	.LBE209:
 2667              		.loc 1 669 0
 2668 0018 0020     		movs	r0, #0
 2669              	.LVL235:
 2670              		.loc 1 670 0
 2671 001a 5DF8044B 		ldr	r4, [sp], #4
 2672              		.cfi_remember_state
 2673              		.cfi_restore 4
 2674              		.cfi_def_cfa_offset 0
 2675 001e 7047     		bx	lr
 2676              	.LVL236:
 2677              	.L203:
 2678              		.cfi_restore_state
 2679              	.LBB210:
ARM GAS  /tmp/ccjQGkoy.s 			page 48


 2680              		.loc 1 665 0
 2681 0020 03EB4303 		add	r3, r3, r3, lsl #1
 2682              	.LVL237:
 2683 0024 04EBC300 		add	r0, r4, r3, lsl #3
 2684              	.LVL238:
 2685              	.LBE210:
 2686              		.loc 1 670 0
 2687 0028 5DF8044B 		ldr	r4, [sp], #4
 2688              		.cfi_restore 4
 2689              		.cfi_def_cfa_offset 0
 2690 002c 7047     		bx	lr
 2691              	.L205:
 2692 002e 00BF     		.align	2
 2693              	.L204:
 2694 0030 00000000 		.word	.LANCHOR5
 2695              		.cfi_endproc
 2696              	.LFE286:
 2697              		.size	comm_can_get_status_msg_4_id, .-comm_can_get_status_msg_4_id
 2698              		.section	.text.comm_can_get_rx_frame,"ax",%progbits
 2699              		.align	1
 2700              		.p2align 4,,15
 2701              		.global	comm_can_get_rx_frame
 2702              		.syntax unified
 2703              		.thumb
 2704              		.thumb_func
 2705              		.fpu fpv4-sp-d16
 2706              		.type	comm_can_get_rx_frame, %function
 2707              	comm_can_get_rx_frame:
 2708              	.LFB287:
 2709              		.loc 1 672 0
 2710              		.cfi_startproc
 2711              		@ args = 0, pretend = 0, frame = 0
 2712              		@ frame_needed = 0, uses_anonymous_args = 0
 2713 0000 10B5     		push	{r4, lr}
 2714              		.cfi_def_cfa_offset 8
 2715              		.cfi_offset 4, -8
 2716              		.cfi_offset 14, -4
 2717              		.loc 1 674 0
 2718 0002 0E48     		ldr	r0, .L213
 2719 0004 FFF7FEFF 		bl	chMtxLock
 2720              	.LVL239:
 2721              		.loc 1 675 0
 2722 0008 0D4A     		ldr	r2, .L213+4
 2723 000a 0E49     		ldr	r1, .L213+8
 2724 000c 1368     		ldr	r3, [r2]
 2725 000e 0968     		ldr	r1, [r1]
 2726 0010 8B42     		cmp	r3, r1
 2727 0012 0ED0     		beq	.L207
 2728              	.LBB211:
 2729              		.loc 1 676 0
 2730 0014 03EB8301 		add	r1, r3, r3, lsl #2
 2731 0018 0133     		adds	r3, r3, #1
 2732 001a 0B4C     		ldr	r4, .L213+12
 2733              		.loc 1 682 0
 2734 001c 0748     		ldr	r0, .L213
 2735              		.loc 1 678 0
 2736 001e 642B     		cmp	r3, #100
ARM GAS  /tmp/ccjQGkoy.s 			page 49


 2737              		.loc 1 679 0
 2738 0020 08BF     		it	eq
 2739 0022 0023     		moveq	r3, #0
 2740              		.loc 1 676 0
 2741 0024 04EB8104 		add	r4, r4, r1, lsl #2
 2742              	.LVL240:
 2743              		.loc 1 679 0
 2744 0028 1360     		str	r3, [r2]
 2745              		.loc 1 682 0
 2746 002a FFF7FEFF 		bl	chMtxUnlock
 2747              	.LVL241:
 2748              	.L206:
 2749              	.LBE211:
 2750              		.loc 1 691 0
 2751 002e 2046     		mov	r0, r4
 2752 0030 10BD     		pop	{r4, pc}
 2753              	.L207:
 2754              		.loc 1 685 0
 2755 0032 0248     		ldr	r0, .L213
 2756 0034 FFF7FEFF 		bl	chMtxUnlock
 2757              	.LVL242:
 2758              		.loc 1 686 0
 2759 0038 0024     		movs	r4, #0
 2760 003a F8E7     		b	.L206
 2761              	.L214:
 2762              		.align	2
 2763              	.L213:
 2764 003c 00000000 		.word	.LANCHOR0
 2765 0040 00000000 		.word	.LANCHOR8
 2766 0044 00000000 		.word	.LANCHOR1
 2767 0048 00000000 		.word	.LANCHOR2
 2768              		.cfi_endproc
 2769              	.LFE287:
 2770              		.size	comm_can_get_rx_frame, .-comm_can_get_rx_frame
 2771              		.section	.text.cancom_process_thread,"ax",%progbits
 2772              		.align	1
 2773              		.p2align 4,,15
 2774              		.syntax unified
 2775              		.thumb
 2776              		.thumb_func
 2777              		.fpu fpv4-sp-d16
 2778              		.type	cancom_process_thread, %function
 2779              	cancom_process_thread:
 2780              	.LFB289:
 2781              		.loc 1 731 0
 2782              		.cfi_startproc
 2783              		@ args = 0, pretend = 0, frame = 496
 2784              		@ frame_needed = 0, uses_anonymous_args = 0
 2785              	.LVL243:
 2786 0000 2DE9F04F 		push	{r4, r5, r6, r7, r8, r9, r10, fp, lr}
 2787              		.cfi_def_cfa_offset 36
 2788              		.cfi_offset 4, -36
 2789              		.cfi_offset 5, -32
 2790              		.cfi_offset 6, -28
 2791              		.cfi_offset 7, -24
 2792              		.cfi_offset 8, -20
 2793              		.cfi_offset 9, -16
ARM GAS  /tmp/ccjQGkoy.s 			page 50


 2794              		.cfi_offset 10, -12
 2795              		.cfi_offset 11, -8
 2796              		.cfi_offset 14, -4
 2797              	.LBB212:
 2798              	.LBB213:
 2799              		.loc 2 135 0
 2800 0004 DFF81C93 		ldr	r9, .L308+44
 2801 0008 BB4A     		ldr	r2, .L308
 2802 000a D9F81830 		ldr	r3, [r9, #24]
 2803              	.LBE213:
 2804              	.LBE212:
 2805              		.loc 1 735 0
 2806 000e BB49     		ldr	r1, .L308+4
 2807 0010 DFF80CA3 		ldr	r10, .L308+40
 2808 0014 BA4F     		ldr	r7, .L308+8
 2809 0016 BB4E     		ldr	r6, .L308+12
 2810 0018 DFF800B3 		ldr	fp, .L308+36
 2811 001c DFF80883 		ldr	r8, .L308+48
 2812              		.loc 1 731 0
 2813 0020 2DED088B 		vpush.64	{d8, d9, d10, d11}
 2814              		.cfi_def_cfa_offset 68
 2815              		.cfi_offset 80, -68
 2816              		.cfi_offset 81, -64
 2817              		.cfi_offset 82, -60
 2818              		.cfi_offset 83, -56
 2819              		.cfi_offset 84, -52
 2820              		.cfi_offset 85, -48
 2821              		.cfi_offset 86, -44
 2822              		.cfi_offset 87, -40
 2823 0024 FDB0     		sub	sp, sp, #500
 2824              		.cfi_def_cfa_offset 568
 2825              	.LBB215:
 2826              	.LBB214:
 2827              		.loc 2 135 0
 2828 0026 9A61     		str	r2, [r3, #24]
 2829              	.LVL244:
 2830              	.LBE214:
 2831              	.LBE215:
 2832              	.LBB216:
 2833              	.LBB217:
 2834              	.LBB218:
 2835              	.LBB219:
 2836              	.LBB220:
 2837              		.loc 1 1037 0
 2838 0028 DFEDB7AA 		vldr.32	s21, .L308+16
 2839              	.LBE220:
 2840              	.LBE219:
 2841              	.LBB236:
 2842              	.LBB237:
 2843              		.loc 1 1020 0
 2844 002c 9FEDB79A 		vldr.32	s18, .L308+20
 2845              	.LBE237:
 2846              	.LBE236:
 2847              	.LBB254:
 2848              	.LBB255:
 2849              		.loc 1 993 0
 2850 0030 DFEDB78A 		vldr.32	s17, .L308+24
ARM GAS  /tmp/ccjQGkoy.s 			page 51


 2851              	.LBE255:
 2852              	.LBE254:
 2853              	.LBE218:
 2854              	.LBE217:
 2855              	.LBE216:
 2856              		.loc 1 735 0
 2857 0034 0B60     		str	r3, [r1]
 2858              		.loc 1 737 0
 2859 0036 0022     		movs	r2, #0
 2860 0038 0492     		str	r2, [sp, #16]
 2861              	.LVL245:
 2862              	.L216:
 2863              	.LBB292:
 2864              		.loc 1 745 0
 2865 003a 0120     		movs	r0, #1
 2866 003c FFF7FEFF 		bl	chEvtWaitAny
 2867              	.LVL246:
 2868              		.loc 1 747 0
 2869 0040 FFF7FEFF 		bl	app_get_configuration
 2870              	.LVL247:
 2871 0044 C37D     		ldrb	r3, [r0, #23]	@ zero_extendqisi2
 2872 0046 002B     		cmp	r3, #0
 2873 0048 F7D1     		bne	.L216
 2874              	.LBB290:
 2875              	.LBB287:
 2876              		.loc 1 876 0
 2877 004a 9FEDB28A 		vldr.32	s16, .L308+28
 2878              		.loc 1 787 0
 2879 004e 9FEDB2AA 		vldr.32	s20, .L308+32
 2880              	.L217:
 2881              	.LBE287:
 2882              	.LBE290:
 2883              		.loc 1 752 0
 2884 0052 FFF7FEFF 		bl	comm_can_get_rx_frame
 2885              	.LVL248:
 2886 0056 0028     		cmp	r0, #0
 2887 0058 EFD0     		beq	.L216
 2888              	.LBB291:
 2889              		.loc 1 753 0
 2890 005a 0446     		mov	r4, r0
 2891 005c 0FCC     		ldmia	r4!, {r0, r1, r2, r3}
 2892              	.LVL249:
 2893 005e 05AD     		add	r5, sp, #20
 2894 0060 0FC5     		stmia	r5!, {r0, r1, r2, r3}
 2895              		.loc 1 755 0
 2896 0062 9DF81820 		ldrb	r2, [sp, #24]	@ zero_extendqisi2
 2897              		.loc 1 753 0
 2898 0066 2368     		ldr	r3, [r4]
 2899 0068 2B60     		str	r3, [r5]
 2900              		.loc 1 755 0
 2901 006a 9306     		lsls	r3, r2, #26
 2902 006c 40F1FA80 		bpl	.L218
 2903              	.LBB288:
 2904              		.loc 1 756 0
 2905 0070 079C     		ldr	r4, [sp, #28]
 2906              	.LVL250:
 2907 0072 C4F31C04 		ubfx	r4, r4, #0, #29
ARM GAS  /tmp/ccjQGkoy.s 			page 52


 2908 0076 E5B2     		uxtb	r5, r4
 2909              	.LVL251:
 2910              		.loc 1 759 0
 2911 0078 FF2D     		cmp	r5, #255
 2912 007a C4F30724 		ubfx	r4, r4, #8, #8
 2913              	.LVL252:
 2914 007e 00F0FF80 		beq	.L242
 2915              		.loc 1 759 0 is_stmt 0 discriminator 1
 2916 0082 FFF7FEFF 		bl	app_get_configuration
 2917              	.LVL253:
 2918 0086 0378     		ldrb	r3, [r0]	@ zero_extendqisi2
 2919 0088 AB42     		cmp	r3, r5
 2920 008a 00F0F980 		beq	.L242
 2921              	.L243:
 2922              		.loc 1 983 0 is_stmt 1
 2923 008e 093C     		subs	r4, r4, #9
 2924 0090 072C     		cmp	r4, #7
 2925 0092 DED8     		bhi	.L217
 2926 0094 01A3     		adr	r3, .L265
 2927 0096 53F824F0 		ldr	pc, [r3, r4, lsl #2]
 2928 009a 00BF     		.p2align 2
 2929              	.L265:
 2930 009c DF010000 		.word	.L264+1
 2931 00a0 53000000 		.word	.L217+1
 2932 00a4 53000000 		.word	.L217+1
 2933 00a8 53000000 		.word	.L217+1
 2934 00ac 53000000 		.word	.L217+1
 2935 00b0 BF010000 		.word	.L266+1
 2936 00b4 5D010000 		.word	.L267+1
 2937 00b8 BD000000 		.word	.L268+1
 2938              		.p2align 1
 2939              	.L268:
 2940 00bc 974A     		ldr	r2, .L308+36
 2941              	.LBB271:
 2942              		.loc 1 1028 0
 2943 00be 0023     		movs	r3, #0
 2944 00c0 04E0     		b	.L280
 2945              	.LVL254:
 2946              	.L303:
 2947              	.LBB234:
 2948              		.loc 1 1030 0 discriminator 1
 2949 00c2 0131     		adds	r1, r1, #1
 2950 00c4 07D0     		beq	.L278
 2951              	.LBE234:
 2952              		.loc 1 1028 0 discriminator 2
 2953 00c6 0133     		adds	r3, r3, #1
 2954              	.LVL255:
 2955 00c8 0A2B     		cmp	r3, #10
 2956 00ca C2D0     		beq	.L217
 2957              	.LVL256:
 2958              	.L280:
 2959              	.LBB235:
 2960              		.loc 1 1030 0
 2961 00cc 1168     		ldr	r1, [r2]
 2962 00ce 8D42     		cmp	r5, r1
 2963 00d0 02F11802 		add	r2, r2, #24
 2964 00d4 F5D1     		bne	.L303
ARM GAS  /tmp/ccjQGkoy.s 			page 53


 2965              	.L278:
 2966              		.loc 1 1032 0
 2967 00d6 03EB4303 		add	r3, r3, r3, lsl #1
 2968              	.LVL257:
 2969              		.loc 1 1031 0
 2970 00da 0022     		movs	r2, #0
 2971              		.loc 1 1032 0
 2972 00dc 4BF83350 		str	r5, [fp, r3, lsl #3]
 2973              	.LVL258:
 2974 00e0 0BEBC304 		add	r4, fp, r3, lsl #3
 2975              		.loc 1 1031 0
 2976 00e4 0492     		str	r2, [sp, #16]
 2977              	.LBB221:
 2978              	.LBB222:
 2979              	.LBB223:
 2980              	.LBB224:
 2981              	.LBB225:
 2982              	.LBB226:
 2983              		.file 5 "ChibiOS_3.0.2/os/ext/CMSIS/include/core_cmFunc.h"
 2984              		.loc 5 546 0
 2985 00e6 2023     		movs	r3, #32
 2986              		.syntax unified
 2987              	@ 546 "ChibiOS_3.0.2/os/ext/CMSIS/include/core_cmFunc.h" 1
 2988 00e8 83F31188 		MSR basepri, r3
 2989              	@ 0 "" 2
 2990              	.LVL259:
 2991              		.thumb
 2992              		.syntax unified
 2993              	.LBE226:
 2994              	.LBE225:
 2995              	.LBE224:
 2996              	.LBE223:
 2997              	.LBB227:
 2998              	.LBB228:
 2999              		.file 6 "ChibiOS_3.0.2/os/rt/include/chvt.h"
 3000              		.loc 6 231 0
 3001 00ec D9F82830 		ldr	r3, [r9, #40]
 3002              	.LVL260:
 3003              	.LBE228:
 3004              	.LBE227:
 3005              	.LBB229:
 3006              	.LBB230:
 3007              	.LBB231:
 3008              	.LBB232:
 3009              	.LBB233:
 3010              		.loc 5 546 0
 3011              		.syntax unified
 3012              	@ 546 "ChibiOS_3.0.2/os/ext/CMSIS/include/core_cmFunc.h" 1
 3013 00f0 82F31188 		MSR basepri, r2
 3014              	@ 0 "" 2
 3015              	.LVL261:
 3016              		.thumb
 3017              		.syntax unified
 3018              	.LBE233:
 3019              	.LBE232:
 3020              	.LBE231:
 3021              	.LBE230:
ARM GAS  /tmp/ccjQGkoy.s 			page 54


 3022              	.LBE229:
 3023              	.LBE222:
 3024              	.LBE221:
 3025              		.loc 1 1033 0
 3026 00f4 6360     		str	r3, [r4, #4]
 3027              		.loc 1 1034 0
 3028 00f6 04A9     		add	r1, sp, #16
 3029 00f8 08A8     		add	r0, sp, #32
 3030 00fa FFF7FEFF 		bl	buffer_get_int16
 3031              	.LVL262:
 3032 00fe 07EE900A 		vmov	s15, r0	@ int
 3033 0102 B8EEE77A 		vcvt.f32.s32	s14, s15
 3034 0106 F2EE049A 		vmov.f32	s19, #1.0e+1
 3035 010a C7EE297A 		vdiv.f32	s15, s14, s19
 3036              		.loc 1 1035 0
 3037 010e 04A9     		add	r1, sp, #16
 3038 0110 08A8     		add	r0, sp, #32
 3039              		.loc 1 1034 0
 3040 0112 C4ED027A 		vstr.32	s15, [r4, #8]
 3041              		.loc 1 1035 0
 3042 0116 FFF7FEFF 		bl	buffer_get_int16
 3043              	.LVL263:
 3044 011a 07EE900A 		vmov	s15, r0	@ int
 3045 011e B8EEE77A 		vcvt.f32.s32	s14, s15
 3046              		.loc 1 1036 0
 3047 0122 04A9     		add	r1, sp, #16
 3048              		.loc 1 1035 0
 3049 0124 C7EE297A 		vdiv.f32	s15, s14, s19
 3050              		.loc 1 1036 0
 3051 0128 08A8     		add	r0, sp, #32
 3052              		.loc 1 1035 0
 3053 012a C4ED037A 		vstr.32	s15, [r4, #12]
 3054              		.loc 1 1036 0
 3055 012e FFF7FEFF 		bl	buffer_get_int16
 3056              	.LVL264:
 3057 0132 07EE900A 		vmov	s15, r0	@ int
 3058 0136 B8EEE77A 		vcvt.f32.s32	s14, s15
 3059              		.loc 1 1037 0
 3060 013a 04A9     		add	r1, sp, #16
 3061              		.loc 1 1036 0
 3062 013c C7EE297A 		vdiv.f32	s15, s14, s19
 3063              		.loc 1 1037 0
 3064 0140 08A8     		add	r0, sp, #32
 3065              		.loc 1 1036 0
 3066 0142 C4ED047A 		vstr.32	s15, [r4, #16]
 3067              		.loc 1 1037 0
 3068 0146 FFF7FEFF 		bl	buffer_get_int16
 3069              	.LVL265:
 3070 014a 07EE900A 		vmov	s15, r0	@ int
 3071 014e B8EEE77A 		vcvt.f32.s32	s14, s15
 3072 0152 C7EE2A7A 		vdiv.f32	s15, s14, s21
 3073 0156 C4ED057A 		vstr.32	s15, [r4, #20]
 3074              		.loc 1 1038 0
 3075 015a 7AE7     		b	.L217
 3076              	.L267:
 3077              	.LBE235:
 3078              	.LBE271:
ARM GAS  /tmp/ccjQGkoy.s 			page 55


 3079              	.LBB272:
 3080              		.loc 1 1014 0
 3081 015c 0023     		movs	r3, #0
 3082 015e 04E0     		b	.L277
 3083              	.LVL266:
 3084              	.L304:
 3085              	.LBB251:
 3086              		.loc 1 1016 0 discriminator 1
 3087 0160 0132     		adds	r2, r2, #1
 3088 0162 07D0     		beq	.L275
 3089              	.LBE251:
 3090              		.loc 1 1014 0 discriminator 2
 3091 0164 0A2B     		cmp	r3, #10
 3092 0166 3FF474AF 		beq	.L217
 3093              	.LVL267:
 3094              	.L277:
 3095              	.LBB252:
 3096              		.loc 1 1016 0
 3097 016a 1901     		lsls	r1, r3, #4
 3098              	.LBE252:
 3099              		.loc 1 1014 0
 3100 016c 0133     		adds	r3, r3, #1
 3101              	.LVL268:
 3102              	.LBB253:
 3103              		.loc 1 1016 0
 3104 016e 7258     		ldr	r2, [r6, r1]
 3105 0170 9542     		cmp	r5, r2
 3106 0172 F5D1     		bne	.L304
 3107              	.L275:
 3108              		.loc 1 1018 0
 3109 0174 7550     		str	r5, [r6, r1]
 3110              	.LVL269:
 3111              		.loc 1 1017 0
 3112 0176 0023     		movs	r3, #0
 3113              	.LVL270:
 3114              		.loc 1 1018 0
 3115 0178 7418     		adds	r4, r6, r1
 3116              	.LVL271:
 3117              	.L301:
 3118              		.loc 1 1017 0
 3119 017a 0493     		str	r3, [sp, #16]
 3120              	.LBB238:
 3121              	.LBB239:
 3122              	.LBB240:
 3123              	.LBB241:
 3124              	.LBB242:
 3125              	.LBB243:
 3126              		.loc 5 546 0
 3127 017c 2022     		movs	r2, #32
 3128              		.syntax unified
 3129              	@ 546 "ChibiOS_3.0.2/os/ext/CMSIS/include/core_cmFunc.h" 1
 3130 017e 82F31188 		MSR basepri, r2
 3131              	@ 0 "" 2
 3132              		.thumb
 3133              		.syntax unified
 3134              	.LBE243:
 3135              	.LBE242:
ARM GAS  /tmp/ccjQGkoy.s 			page 56


 3136              	.LBE241:
 3137              	.LBE240:
 3138              	.LBB244:
 3139              	.LBB245:
 3140              		.loc 6 231 0
 3141 0182 D9F82820 		ldr	r2, [r9, #40]
 3142              	.LVL272:
 3143              	.LBE245:
 3144              	.LBE244:
 3145              	.LBB246:
 3146              	.LBB247:
 3147              	.LBB248:
 3148              	.LBB249:
 3149              	.LBB250:
 3150              		.loc 5 546 0
 3151              		.syntax unified
 3152              	@ 546 "ChibiOS_3.0.2/os/ext/CMSIS/include/core_cmFunc.h" 1
 3153 0186 83F31188 		MSR basepri, r3
 3154              	@ 0 "" 2
 3155              	.LVL273:
 3156              		.thumb
 3157              		.syntax unified
 3158              	.LBE250:
 3159              	.LBE249:
 3160              	.LBE248:
 3161              	.LBE247:
 3162              	.LBE246:
 3163              	.LBE239:
 3164              	.LBE238:
 3165              		.loc 1 1020 0
 3166 018a 04A9     		add	r1, sp, #16
 3167              		.loc 1 1019 0
 3168 018c 6260     		str	r2, [r4, #4]
 3169              		.loc 1 1020 0
 3170 018e 08A8     		add	r0, sp, #32
 3171 0190 FFF7FEFF 		bl	buffer_get_int32
 3172              	.LVL274:
 3173 0194 07EE900A 		vmov	s15, r0	@ int
 3174 0198 B8EEE77A 		vcvt.f32.s32	s14, s15
 3175              		.loc 1 1021 0
 3176 019c 04A9     		add	r1, sp, #16
 3177              		.loc 1 1020 0
 3178 019e C7EE097A 		vdiv.f32	s15, s14, s18
 3179              		.loc 1 1021 0
 3180 01a2 08A8     		add	r0, sp, #32
 3181              		.loc 1 1020 0
 3182 01a4 C4ED027A 		vstr.32	s15, [r4, #8]
 3183              		.loc 1 1021 0
 3184 01a8 FFF7FEFF 		bl	buffer_get_int32
 3185              	.LVL275:
 3186 01ac 07EE900A 		vmov	s15, r0	@ int
 3187 01b0 B8EEE77A 		vcvt.f32.s32	s14, s15
 3188 01b4 C7EE097A 		vdiv.f32	s15, s14, s18
 3189 01b8 C4ED037A 		vstr.32	s15, [r4, #12]
 3190              		.loc 1 1022 0
 3191 01bc 49E7     		b	.L217
 3192              	.L266:
ARM GAS  /tmp/ccjQGkoy.s 			page 57


 3193              	.LBE253:
 3194              	.LBE272:
 3195              	.LBB273:
 3196              		.loc 1 1000 0
 3197 01be 0023     		movs	r3, #0
 3198 01c0 04E0     		b	.L274
 3199              	.LVL276:
 3200              	.L305:
 3201              	.LBB274:
 3202              		.loc 1 1002 0 discriminator 1
 3203 01c2 0132     		adds	r2, r2, #1
 3204 01c4 07D0     		beq	.L272
 3205              	.LBE274:
 3206              		.loc 1 1000 0 discriminator 2
 3207 01c6 0A2B     		cmp	r3, #10
 3208 01c8 3FF443AF 		beq	.L217
 3209              	.LVL277:
 3210              	.L274:
 3211              	.LBB275:
 3212              		.loc 1 1002 0
 3213 01cc 1901     		lsls	r1, r3, #4
 3214              	.LBE275:
 3215              		.loc 1 1000 0
 3216 01ce 0133     		adds	r3, r3, #1
 3217              	.LVL278:
 3218              	.LBB276:
 3219              		.loc 1 1002 0
 3220 01d0 7A58     		ldr	r2, [r7, r1]
 3221 01d2 AA42     		cmp	r2, r5
 3222 01d4 F5D1     		bne	.L305
 3223              	.L272:
 3224              		.loc 1 1003 0
 3225 01d6 0023     		movs	r3, #0
 3226              	.LVL279:
 3227              		.loc 1 1004 0
 3228 01d8 7D50     		str	r5, [r7, r1]
 3229              	.LVL280:
 3230 01da 7C18     		adds	r4, r7, r1
 3231 01dc CDE7     		b	.L301
 3232              	.LVL281:
 3233              	.L264:
 3234 01de 504A     		ldr	r2, .L308+40
 3235              	.LBE276:
 3236              	.LBE273:
 3237              	.LBB277:
 3238              		.loc 1 985 0
 3239 01e0 0023     		movs	r3, #0
 3240 01e2 05E0     		b	.L271
 3241              	.LVL282:
 3242              	.L306:
 3243              	.LBB269:
 3244              		.loc 1 987 0 discriminator 1
 3245 01e4 0131     		adds	r1, r1, #1
 3246 01e6 08D0     		beq	.L269
 3247              	.LBE269:
 3248              		.loc 1 985 0 discriminator 2
 3249 01e8 0133     		adds	r3, r3, #1
ARM GAS  /tmp/ccjQGkoy.s 			page 58


 3250              	.LVL283:
 3251 01ea 0A2B     		cmp	r3, #10
 3252 01ec 3FF431AF 		beq	.L217
 3253              	.LVL284:
 3254              	.L271:
 3255              	.LBB270:
 3256              		.loc 1 987 0
 3257 01f0 1168     		ldr	r1, [r2]
 3258 01f2 A942     		cmp	r1, r5
 3259 01f4 02F11402 		add	r2, r2, #20
 3260 01f8 F4D1     		bne	.L306
 3261              	.L269:
 3262              		.loc 1 989 0
 3263 01fa 03EB8303 		add	r3, r3, r3, lsl #2
 3264              	.LVL285:
 3265              		.loc 1 988 0
 3266 01fe 0022     		movs	r2, #0
 3267              		.loc 1 989 0
 3268 0200 4AF82350 		str	r5, [r10, r3, lsl #2]
 3269              	.LVL286:
 3270 0204 0AEB8304 		add	r4, r10, r3, lsl #2
 3271              		.loc 1 988 0
 3272 0208 0492     		str	r2, [sp, #16]
 3273              	.LBB256:
 3274              	.LBB257:
 3275              	.LBB258:
 3276              	.LBB259:
 3277              	.LBB260:
 3278              	.LBB261:
 3279              		.loc 5 546 0
 3280 020a 2023     		movs	r3, #32
 3281              		.syntax unified
 3282              	@ 546 "ChibiOS_3.0.2/os/ext/CMSIS/include/core_cmFunc.h" 1
 3283 020c 83F31188 		MSR basepri, r3
 3284              	@ 0 "" 2
 3285              	.LVL287:
 3286              		.thumb
 3287              		.syntax unified
 3288              	.LBE261:
 3289              	.LBE260:
 3290              	.LBE259:
 3291              	.LBE258:
 3292              	.LBB262:
 3293              	.LBB263:
 3294              		.loc 6 231 0
 3295 0210 D9F82830 		ldr	r3, [r9, #40]
 3296              	.LVL288:
 3297              	.LBE263:
 3298              	.LBE262:
 3299              	.LBB264:
 3300              	.LBB265:
 3301              	.LBB266:
 3302              	.LBB267:
 3303              	.LBB268:
 3304              		.loc 5 546 0
 3305              		.syntax unified
 3306              	@ 546 "ChibiOS_3.0.2/os/ext/CMSIS/include/core_cmFunc.h" 1
ARM GAS  /tmp/ccjQGkoy.s 			page 59


 3307 0214 82F31188 		MSR basepri, r2
 3308              	@ 0 "" 2
 3309              	.LVL289:
 3310              		.thumb
 3311              		.syntax unified
 3312              	.LBE268:
 3313              	.LBE267:
 3314              	.LBE266:
 3315              	.LBE265:
 3316              	.LBE264:
 3317              	.LBE257:
 3318              	.LBE256:
 3319              		.loc 1 990 0
 3320 0218 6360     		str	r3, [r4, #4]
 3321              		.loc 1 991 0
 3322 021a 04A9     		add	r1, sp, #16
 3323 021c 08A8     		add	r0, sp, #32
 3324 021e FFF7FEFF 		bl	buffer_get_int32
 3325              	.LVL290:
 3326 0222 07EE900A 		vmov	s15, r0	@ int
 3327 0226 F8EEE77A 		vcvt.f32.s32	s15, s15
 3328              		.loc 1 992 0
 3329 022a 04A9     		add	r1, sp, #16
 3330              		.loc 1 991 0
 3331 022c C4ED027A 		vstr.32	s15, [r4, #8]
 3332              		.loc 1 992 0
 3333 0230 08A8     		add	r0, sp, #32
 3334 0232 FFF7FEFF 		bl	buffer_get_int16
 3335              	.LVL291:
 3336 0236 07EE900A 		vmov	s15, r0	@ int
 3337 023a F8EEE76A 		vcvt.f32.s32	s13, s15
 3338 023e B2EE047A 		vmov.f32	s14, #1.0e+1
 3339 0242 C6EE877A 		vdiv.f32	s15, s13, s14
 3340              		.loc 1 993 0
 3341 0246 04A9     		add	r1, sp, #16
 3342 0248 08A8     		add	r0, sp, #32
 3343              		.loc 1 992 0
 3344 024a C4ED037A 		vstr.32	s15, [r4, #12]
 3345              		.loc 1 993 0
 3346 024e FFF7FEFF 		bl	buffer_get_int16
 3347              	.LVL292:
 3348 0252 07EE900A 		vmov	s15, r0	@ int
 3349 0256 B8EEE77A 		vcvt.f32.s32	s14, s15
 3350 025a C7EE287A 		vdiv.f32	s15, s14, s17
 3351 025e C4ED047A 		vstr.32	s15, [r4, #16]
 3352              		.loc 1 994 0
 3353 0262 F6E6     		b	.L217
 3354              	.LVL293:
 3355              	.L218:
 3356              	.LBE270:
 3357              	.LBE277:
 3358              	.LBE288:
 3359              		.loc 1 1047 0
 3360 0264 D8F80030 		ldr	r3, [r8]
 3361 0268 002B     		cmp	r3, #0
 3362 026a 3FF4F2AE 		beq	.L217
 3363              		.loc 1 1048 0
ARM GAS  /tmp/ccjQGkoy.s 			page 60


 3364 026e BDF81C00 		ldrh	r0, [sp, #28]
 3365 0272 02F00F02 		and	r2, r2, #15
 3366 0276 C0F30A00 		ubfx	r0, r0, #0, #11
 3367 027a 08A9     		add	r1, sp, #32
 3368 027c 9847     		blx	r3
 3369              	.LVL294:
 3370 027e E8E6     		b	.L217
 3371              	.LVL295:
 3372              	.L242:
 3373              	.LBB289:
 3374              		.loc 1 760 0
 3375 0280 1A2C     		cmp	r4, #26
 3376 0282 3FF604AF 		bhi	.L243
 3377 0286 01A3     		adr	r3, .L222
 3378 0288 53F824F0 		ldr	pc, [r3, r4, lsl #2]
 3379              		.p2align 2
 3380              	.L222:
 3381 028c 8D060000 		.word	.L221+1
 3382 0290 73060000 		.word	.L223+1
 3383 0294 A7060000 		.word	.L224+1
 3384 0298 23060000 		.word	.L225+1
 3385 029c 59060000 		.word	.L226+1
 3386 02a0 3D060000 		.word	.L227+1
 3387 02a4 FB050000 		.word	.L228+1
 3388 02a8 8B050000 		.word	.L229+1
 3389 02ac 53050000 		.word	.L230+1
 3390 02b0 8F000000 		.word	.L243+1
 3391 02b4 39050000 		.word	.L231+1
 3392 02b8 1F050000 		.word	.L232+1
 3393 02bc 05050000 		.word	.L233+1
 3394 02c0 EB040000 		.word	.L234+1
 3395 02c4 8F000000 		.word	.L243+1
 3396 02c8 8F000000 		.word	.L243+1
 3397 02cc 8F000000 		.word	.L243+1
 3398 02d0 CF040000 		.word	.L235+1
 3399 02d4 BB040000 		.word	.L236+1
 3400 02d8 7F040000 		.word	.L237+1
 3401 02dc 5F040000 		.word	.L238+1
 3402 02e0 F9030000 		.word	.L239+1
 3403 02e4 F9030000 		.word	.L239+1
 3404 02e8 93030000 		.word	.L240+1
 3405 02ec 93030000 		.word	.L240+1
 3406 02f0 2D030000 		.word	.L241+1
 3407 02f4 2D030000 		.word	.L241+1
 3408              		.p2align 1
 3409              	.L309:
 3410              		.align	2
 3411              	.L308:
 3412 02f8 00000000 		.word	.LC2
 3413 02fc 00000000 		.word	.LANCHOR3
 3414 0300 00000000 		.word	.LANCHOR6
 3415 0304 00000000 		.word	.LANCHOR7
 3416 0308 00004842 		.word	1112014848
 3417 030c 00401C46 		.word	1176256512
 3418 0310 00007A44 		.word	1148846080
 3419 0314 0050C347 		.word	1203982336
 3420 0318 00247449 		.word	1232348160
ARM GAS  /tmp/ccjQGkoy.s 			page 61


 3421 031c 00000000 		.word	.LANCHOR5
 3422 0320 00000000 		.word	.LANCHOR4
 3423 0324 00000000 		.word	ch
 3424 0328 00000000 		.word	.LANCHOR13
 3425              	.L241:
 3426              	.LBB278:
 3427              		.loc 1 960 0
 3428 032c 0023     		movs	r3, #0
 3429              		.loc 1 961 0
 3430 032e 04A9     		add	r1, sp, #16
 3431 0330 08A8     		add	r0, sp, #32
 3432 0332 B0EE680A 		vmov.f32	s0, s17
 3433              		.loc 1 960 0
 3434 0336 0493     		str	r3, [sp, #16]
 3435              		.loc 1 961 0
 3436 0338 FFF7FEFF 		bl	buffer_get_float32
 3437              	.LVL296:
 3438              		.loc 1 962 0
 3439 033c 04A9     		add	r1, sp, #16
 3440              		.loc 1 961 0
 3441 033e F0EE409A 		vmov.f32	s19, s0
 3442              	.LVL297:
 3443              		.loc 1 962 0
 3444 0342 08A8     		add	r0, sp, #32
 3445 0344 B0EE680A 		vmov.f32	s0, s17
 3446              	.LVL298:
 3447 0348 FFF7FEFF 		bl	buffer_get_float32
 3448              	.LVL299:
 3449 034c B0EE40BA 		vmov.f32	s22, s0
 3450              	.LVL300:
 3451              		.loc 1 963 0
 3452 0350 FFF7FEFF 		bl	mc_interface_get_configuration
 3453              	.LVL301:
 3454 0354 4FF4E472 		mov	r2, #456
 3455 0358 0146     		mov	r1, r0
 3456 035a 0AA8     		add	r0, sp, #40
 3457 035c FFF7FEFF 		bl	memcpy
 3458              	.LVL302:
 3459              		.loc 1 965 0
 3460 0360 DDED4A7A 		vldr.32	s15, [sp, #296]
 3461 0364 F4EE697A 		vcmp.f32	s15, s19
 3462 0368 F1EE10FA 		vmrs	APSR_nzcv, FPSCR
 3463 036c 07D1     		bne	.L260
 3464              		.loc 1 965 0 is_stmt 0 discriminator 1
 3465 036e DDED527A 		vldr.32	s15, [sp, #328]
 3466 0372 F4EE4B7A 		vcmp.f32	s15, s22
 3467 0376 F1EE10FA 		vmrs	APSR_nzcv, FPSCR
 3468 037a 3FF488AE 		beq	.L243
 3469              	.L260:
 3470              		.loc 1 970 0 is_stmt 1
 3471 037e 1A2C     		cmp	r4, #26
 3472              		.loc 1 967 0
 3473 0380 CDED4A9A 		vstr.32	s19, [sp, #296]
 3474              		.loc 1 968 0
 3475 0384 8DED52BA 		vstr.32	s22, [sp, #328]
 3476              		.loc 1 970 0
 3477 0388 32D0     		beq	.L302
ARM GAS  /tmp/ccjQGkoy.s 			page 62


 3478              	.LVL303:
 3479              	.L262:
 3480              		.loc 1 974 0
 3481 038a 0AA8     		add	r0, sp, #40
 3482 038c FFF7FEFF 		bl	mc_interface_set_configuration
 3483              	.LVL304:
 3484              	.LBE278:
 3485              		.loc 1 976 0
 3486 0390 7DE6     		b	.L243
 3487              	.L240:
 3488              	.LBB279:
 3489              		.loc 1 941 0
 3490 0392 0023     		movs	r3, #0
 3491              		.loc 1 942 0
 3492 0394 04A9     		add	r1, sp, #16
 3493 0396 08A8     		add	r0, sp, #32
 3494 0398 B0EE680A 		vmov.f32	s0, s17
 3495              		.loc 1 941 0
 3496 039c 0493     		str	r3, [sp, #16]
 3497              		.loc 1 942 0
 3498 039e FFF7FEFF 		bl	buffer_get_float32
 3499              	.LVL305:
 3500              		.loc 1 943 0
 3501 03a2 04A9     		add	r1, sp, #16
 3502              		.loc 1 942 0
 3503 03a4 F0EE409A 		vmov.f32	s19, s0
 3504              	.LVL306:
 3505              		.loc 1 943 0
 3506 03a8 08A8     		add	r0, sp, #32
 3507 03aa B0EE680A 		vmov.f32	s0, s17
 3508              	.LVL307:
 3509 03ae FFF7FEFF 		bl	buffer_get_float32
 3510              	.LVL308:
 3511 03b2 B0EE40BA 		vmov.f32	s22, s0
 3512              	.LVL309:
 3513              		.loc 1 944 0
 3514 03b6 FFF7FEFF 		bl	mc_interface_get_configuration
 3515              	.LVL310:
 3516 03ba 4FF4E472 		mov	r2, #456
 3517 03be 0146     		mov	r1, r0
 3518 03c0 0AA8     		add	r0, sp, #40
 3519 03c2 FFF7FEFF 		bl	memcpy
 3520              	.LVL311:
 3521              		.loc 1 946 0
 3522 03c6 DDED0E7A 		vldr.32	s15, [sp, #56]
 3523 03ca F4EE697A 		vcmp.f32	s15, s19
 3524 03ce F1EE10FA 		vmrs	APSR_nzcv, FPSCR
 3525 03d2 07D1     		bne	.L257
 3526              		.loc 1 946 0 is_stmt 0 discriminator 1
 3527 03d4 DDED0D7A 		vldr.32	s15, [sp, #52]
 3528 03d8 F4EE4B7A 		vcmp.f32	s15, s22
 3529 03dc F1EE10FA 		vmrs	APSR_nzcv, FPSCR
 3530 03e0 3FF455AE 		beq	.L243
 3531              	.L257:
 3532              		.loc 1 950 0 is_stmt 1
 3533 03e4 182C     		cmp	r4, #24
 3534              		.loc 1 947 0
ARM GAS  /tmp/ccjQGkoy.s 			page 63


 3535 03e6 CDED0E9A 		vstr.32	s19, [sp, #56]
 3536              		.loc 1 948 0
 3537 03ea 8DED0DBA 		vstr.32	s22, [sp, #52]
 3538              		.loc 1 950 0
 3539 03ee CCD1     		bne	.L262
 3540              	.LVL312:
 3541              	.L302:
 3542              	.LBE279:
 3543              	.LBB280:
 3544              		.loc 1 971 0
 3545 03f0 0AA8     		add	r0, sp, #40
 3546 03f2 FFF7FEFF 		bl	conf_general_store_mc_configuration
 3547              	.LVL313:
 3548 03f6 C8E7     		b	.L262
 3549              	.L239:
 3550              	.LBE280:
 3551              	.LBB281:
 3552              		.loc 1 922 0
 3553 03f8 0023     		movs	r3, #0
 3554              		.loc 1 923 0
 3555 03fa 04A9     		add	r1, sp, #16
 3556 03fc 08A8     		add	r0, sp, #32
 3557 03fe B0EE680A 		vmov.f32	s0, s17
 3558              		.loc 1 922 0
 3559 0402 0493     		str	r3, [sp, #16]
 3560              		.loc 1 923 0
 3561 0404 FFF7FEFF 		bl	buffer_get_float32
 3562              	.LVL314:
 3563              		.loc 1 924 0
 3564 0408 04A9     		add	r1, sp, #16
 3565              		.loc 1 923 0
 3566 040a F0EE409A 		vmov.f32	s19, s0
 3567              	.LVL315:
 3568              		.loc 1 924 0
 3569 040e 08A8     		add	r0, sp, #32
 3570 0410 B0EE680A 		vmov.f32	s0, s17
 3571              	.LVL316:
 3572 0414 FFF7FEFF 		bl	buffer_get_float32
 3573              	.LVL317:
 3574 0418 B0EE40BA 		vmov.f32	s22, s0
 3575              	.LVL318:
 3576              		.loc 1 925 0
 3577 041c FFF7FEFF 		bl	mc_interface_get_configuration
 3578              	.LVL319:
 3579 0420 4FF4E472 		mov	r2, #456
 3580 0424 0146     		mov	r1, r0
 3581 0426 0AA8     		add	r0, sp, #40
 3582 0428 FFF7FEFF 		bl	memcpy
 3583              	.LVL320:
 3584              		.loc 1 927 0
 3585 042c DDED0C7A 		vldr.32	s15, [sp, #48]
 3586 0430 F4EE697A 		vcmp.f32	s15, s19
 3587 0434 F1EE10FA 		vmrs	APSR_nzcv, FPSCR
 3588 0438 07D1     		bne	.L254
 3589              		.loc 1 927 0 is_stmt 0 discriminator 1
 3590 043a DDED0B7A 		vldr.32	s15, [sp, #44]
 3591 043e F4EE4B7A 		vcmp.f32	s15, s22
ARM GAS  /tmp/ccjQGkoy.s 			page 64


 3592 0442 F1EE10FA 		vmrs	APSR_nzcv, FPSCR
 3593 0446 3FF422AE 		beq	.L243
 3594              	.L254:
 3595              		.loc 1 931 0 is_stmt 1
 3596 044a 162C     		cmp	r4, #22
 3597              		.loc 1 928 0
 3598 044c CDED0C9A 		vstr.32	s19, [sp, #48]
 3599              		.loc 1 929 0
 3600 0450 8DED0BBA 		vstr.32	s22, [sp, #44]
 3601              		.loc 1 931 0
 3602 0454 99D1     		bne	.L262
 3603              	.LBE281:
 3604              	.LBB282:
 3605              		.loc 1 971 0
 3606 0456 0AA8     		add	r0, sp, #40
 3607 0458 FFF7FEFF 		bl	conf_general_store_mc_configuration
 3608              	.LVL321:
 3609 045c 95E7     		b	.L262
 3610              	.LVL322:
 3611              	.L238:
 3612              	.LBE282:
 3613              		.loc 1 916 0
 3614 045e B348     		ldr	r0, .L310
 3615 0460 B349     		ldr	r1, .L310+4
 3616 0462 0368     		ldr	r3, [r0]
 3617 0464 9DF82020 		ldrb	r2, [sp, #32]	@ zero_extendqisi2
 3618 0468 CA54     		strb	r2, [r1, r3]
 3619 046a 5A1C     		adds	r2, r3, #1
 3620              		.loc 1 917 0
 3621 046c B14B     		ldr	r3, .L310+8
 3622 046e A3FB0213 		umull	r1, r3, r3, r2
 3623 0472 1B09     		lsrs	r3, r3, #4
 3624 0474 3221     		movs	r1, #50
 3625 0476 01FB1323 		mls	r3, r1, r3, r2
 3626 047a 0360     		str	r3, [r0]
 3627              		.loc 1 918 0
 3628 047c E9E5     		b	.L217
 3629              	.L237:
 3630              	.LBB283:
 3631              		.loc 1 896 0
 3632 047e 0223     		movs	r3, #2
 3633              		.loc 1 897 0
 3634 0480 04A9     		add	r1, sp, #16
 3635 0482 08A8     		add	r0, sp, #32
 3636 0484 B0EE680A 		vmov.f32	s0, s17
 3637              		.loc 1 896 0
 3638 0488 0493     		str	r3, [sp, #16]
 3639 048a 9DF82150 		ldrb	r5, [sp, #33]	@ zero_extendqisi2
 3640              	.LVL323:
 3641              		.loc 1 897 0
 3642 048e FFF7FEFF 		bl	buffer_get_float32
 3643              	.LVL324:
 3644              		.loc 1 898 0
 3645 0492 0021     		movs	r1, #0
 3646 0494 0120     		movs	r0, #1
 3647 0496 FFF7FEFF 		bl	conf_general_detect_apply_all_foc
 3648              	.LVL325:
ARM GAS  /tmp/ccjQGkoy.s 			page 65


 3649              		.loc 1 899 0
 3650 049a 041E     		subs	r4, r0, #0
 3651 049c 02DB     		blt	.L252
 3652              		.loc 1 899 0 is_stmt 0 discriminator 1
 3653 049e 002D     		cmp	r5, #0
 3654 04a0 40F02381 		bne	.L307
 3655              	.LVL326:
 3656              	.L252:
 3657              		.loc 1 911 0 is_stmt 1
 3658 04a4 9DF82000 		ldrb	r0, [sp, #32]	@ zero_extendqisi2
 3659              		.loc 1 910 0
 3660 04a8 8DF82840 		strb	r4, [sp, #40]
 3661              		.loc 1 911 0
 3662 04ac 40F4A050 		orr	r0, r0, #5120
 3663 04b0 0122     		movs	r2, #1
 3664 04b2 0AA9     		add	r1, sp, #40
 3665 04b4 FFF7FEFF 		bl	comm_can_transmit_eid
 3666              	.LVL327:
 3667              	.LBE283:
 3668              		.loc 1 913 0
 3669 04b8 CBE5     		b	.L217
 3670              	.LVL328:
 3671              	.L236:
 3672              		.loc 1 889 0
 3673 04ba 9F4B     		ldr	r3, .L310+12
 3674 04bc 1868     		ldr	r0, [r3]
 3675 04be 0028     		cmp	r0, #0
 3676 04c0 3FF4C7AD 		beq	.L217
 3677              		.loc 1 890 0
 3678 04c4 4FF00051 		mov	r1, #536870912
 3679 04c8 FFF7FEFF 		bl	chEvtSignal
 3680              	.LVL329:
 3681 04cc C1E5     		b	.L217
 3682              	.L235:
 3683              	.LBB285:
 3684              		.loc 1 882 0
 3685 04ce FFF7FEFF 		bl	app_get_configuration
 3686              	.LVL330:
 3687              		.loc 1 883 0
 3688 04d2 9DF82030 		ldrb	r3, [sp, #32]	@ zero_extendqisi2
 3689              		.loc 1 882 0
 3690 04d6 0278     		ldrb	r2, [r0]	@ zero_extendqisi2
 3691 04d8 8DF82820 		strb	r2, [sp, #40]
 3692              		.loc 1 883 0
 3693 04dc 43F49050 		orr	r0, r3, #4608
 3694 04e0 0122     		movs	r2, #1
 3695 04e2 0AA9     		add	r1, sp, #40
 3696 04e4 FFF7FEFF 		bl	comm_can_transmit_eid
 3697              	.LVL331:
 3698              	.LBE285:
 3699              		.loc 1 885 0
 3700 04e8 B3E5     		b	.L217
 3701              	.L234:
 3702              		.loc 1 875 0
 3703 04ea 0023     		movs	r3, #0
 3704              		.loc 1 876 0
 3705 04ec 04A9     		add	r1, sp, #16
ARM GAS  /tmp/ccjQGkoy.s 			page 66


 3706 04ee 08A8     		add	r0, sp, #32
 3707 04f0 B0EE480A 		vmov.f32	s0, s16
 3708              		.loc 1 875 0
 3709 04f4 0493     		str	r3, [sp, #16]
 3710              		.loc 1 876 0
 3711 04f6 FFF7FEFF 		bl	buffer_get_float32
 3712              	.LVL332:
 3713 04fa FFF7FEFF 		bl	mc_interface_set_handbrake_rel
 3714              	.LVL333:
 3715              		.loc 1 877 0
 3716 04fe FFF7FEFF 		bl	timeout_reset
 3717              	.LVL334:
 3718              		.loc 1 878 0
 3719 0502 A6E5     		b	.L217
 3720              	.L233:
 3721              		.loc 1 869 0
 3722 0504 0023     		movs	r3, #0
 3723              		.loc 1 870 0
 3724 0506 04A9     		add	r1, sp, #16
 3725 0508 08A8     		add	r0, sp, #32
 3726 050a B0EE680A 		vmov.f32	s0, s17
 3727              		.loc 1 869 0
 3728 050e 0493     		str	r3, [sp, #16]
 3729              		.loc 1 870 0
 3730 0510 FFF7FEFF 		bl	buffer_get_float32
 3731              	.LVL335:
 3732 0514 FFF7FEFF 		bl	mc_interface_set_handbrake
 3733              	.LVL336:
 3734              		.loc 1 871 0
 3735 0518 FFF7FEFF 		bl	timeout_reset
 3736              	.LVL337:
 3737              		.loc 1 872 0
 3738 051c 99E5     		b	.L217
 3739              	.L232:
 3740              		.loc 1 863 0
 3741 051e 0023     		movs	r3, #0
 3742              		.loc 1 864 0
 3743 0520 04A9     		add	r1, sp, #16
 3744 0522 08A8     		add	r0, sp, #32
 3745 0524 B0EE480A 		vmov.f32	s0, s16
 3746              		.loc 1 863 0
 3747 0528 0493     		str	r3, [sp, #16]
 3748              		.loc 1 864 0
 3749 052a FFF7FEFF 		bl	buffer_get_float32
 3750              	.LVL338:
 3751 052e FFF7FEFF 		bl	mc_interface_set_brake_current_rel
 3752              	.LVL339:
 3753              		.loc 1 865 0
 3754 0532 FFF7FEFF 		bl	timeout_reset
 3755              	.LVL340:
 3756              		.loc 1 866 0
 3757 0536 8CE5     		b	.L217
 3758              	.L231:
 3759              		.loc 1 857 0
 3760 0538 0023     		movs	r3, #0
 3761              		.loc 1 858 0
 3762 053a 04A9     		add	r1, sp, #16
ARM GAS  /tmp/ccjQGkoy.s 			page 67


 3763 053c 08A8     		add	r0, sp, #32
 3764 053e B0EE480A 		vmov.f32	s0, s16
 3765              		.loc 1 857 0
 3766 0542 0493     		str	r3, [sp, #16]
 3767              		.loc 1 858 0
 3768 0544 FFF7FEFF 		bl	buffer_get_float32
 3769              	.LVL341:
 3770 0548 FFF7FEFF 		bl	mc_interface_set_current_rel
 3771              	.LVL342:
 3772              		.loc 1 859 0
 3773 054c FFF7FEFF 		bl	timeout_reset
 3774              	.LVL343:
 3775              		.loc 1 860 0
 3776 0550 7FE5     		b	.L217
 3777              	.L230:
 3778              		.loc 1 841 0
 3779 0552 9DF82130 		ldrb	r3, [sp, #33]	@ zero_extendqisi2
 3780              		.loc 1 838 0
 3781 0556 7949     		ldr	r1, .L310+16
 3782 0558 9DF82020 		ldrb	r2, [sp, #32]	@ zero_extendqisi2
 3783 055c 0A60     		str	r2, [r1]
 3784              		.loc 1 841 0
 3785 055e 012B     		cmp	r3, #1
 3786              		.loc 1 839 0
 3787 0560 4FF00202 		mov	r2, #2
 3788 0564 0492     		str	r2, [sp, #16]
 3789              	.LVL344:
 3790              		.loc 1 841 0
 3791 0566 00F0B680 		beq	.L249
 3792 056a C0F0A980 		bcc	.L250
 3793 056e 9342     		cmp	r3, r2
 3794 0570 7FF48DAD 		bne	.L243
 3795              		.loc 1 849 0
 3796 0574 9DF81810 		ldrb	r1, [sp, #24]	@ zero_extendqisi2
 3797 0578 01F00F01 		and	r1, r1, #15
 3798 057c 0239     		subs	r1, r1, #2
 3799 057e 0022     		movs	r2, #0
 3800 0580 0DF12200 		add	r0, sp, #34
 3801 0584 FFF7FEFF 		bl	commands_process_packet
 3802              	.LVL345:
 3803              		.loc 1 850 0
 3804 0588 63E5     		b	.L217
 3805              	.L229:
 3806              		.loc 1 808 0
 3807 058a 9DF82330 		ldrb	r3, [sp, #35]	@ zero_extendqisi2
 3808              		.loc 1 807 0
 3809 058e 9DF82220 		ldrb	r2, [sp, #34]	@ zero_extendqisi2
 3810              		.loc 1 805 0
 3811 0592 6A48     		ldr	r0, .L310+16
 3812 0594 9DF82010 		ldrb	r1, [sp, #32]	@ zero_extendqisi2
 3813 0598 0160     		str	r1, [r0]
 3814              		.loc 1 808 0
 3815 059a 43EA0222 		orr	r2, r3, r2, lsl #8
 3816 059e 0423     		movs	r3, #4
 3817 05a0 0493     		str	r3, [sp, #16]
 3818              		.loc 1 810 0
 3819 05a2 B2F5007F 		cmp	r2, #512
ARM GAS  /tmp/ccjQGkoy.s 			page 68


 3820              		.loc 1 806 0
 3821 05a6 9DF82130 		ldrb	r3, [sp, #33]	@ zero_extendqisi2
 3822 05aa 0093     		str	r3, [sp]
 3823              	.LVL346:
 3824              		.loc 1 810 0
 3825 05ac 3FF651AD 		bhi	.L217
 3826              	.LVL347:
 3827              		.loc 1 815 0
 3828 05b0 0623     		movs	r3, #6
 3829 05b2 0493     		str	r3, [sp, #16]
 3830              		.loc 1 814 0
 3831 05b4 9DF82430 		ldrb	r3, [sp, #36]	@ zero_extendqisi2
 3832 05b8 0193     		str	r3, [sp, #4]
 3833              	.LVL348:
 3834              		.loc 1 817 0
 3835 05ba 1146     		mov	r1, r2
 3836              		.loc 1 815 0
 3837 05bc 9DF82530 		ldrb	r3, [sp, #37]	@ zero_extendqisi2
 3838              		.loc 1 817 0
 3839 05c0 5F48     		ldr	r0, .L310+20
 3840 05c2 0392     		str	r2, [sp, #12]
 3841              		.loc 1 815 0
 3842 05c4 0293     		str	r3, [sp, #8]
 3843              	.LVL349:
 3844              		.loc 1 817 0
 3845 05c6 FFF7FEFF 		bl	crc16
 3846              	.LVL350:
 3847              		.loc 1 819 0
 3848 05ca 019B     		ldr	r3, [sp, #4]
 3849 05cc 1A46     		mov	r2, r3
 3850 05ce 029B     		ldr	r3, [sp, #8]
 3851 05d0 43EA0223 		orr	r3, r3, r2, lsl #8
 3852              		.loc 1 817 0
 3853 05d4 9842     		cmp	r0, r3
 3854 05d6 039A     		ldr	r2, [sp, #12]
 3855 05d8 7FF43BAD 		bne	.L217
 3856              		.loc 1 820 0
 3857 05dc 009B     		ldr	r3, [sp]
 3858 05de 012B     		cmp	r3, #1
 3859 05e0 00F09F80 		beq	.L246
 3860 05e4 C0F09780 		bcc	.L247
 3861 05e8 022B     		cmp	r3, #2
 3862 05ea 7FF450AD 		bne	.L243
 3863              		.loc 1 828 0
 3864 05ee 1146     		mov	r1, r2
 3865 05f0 5348     		ldr	r0, .L310+20
 3866 05f2 0022     		movs	r2, #0
 3867 05f4 FFF7FEFF 		bl	commands_process_packet
 3868              	.LVL351:
 3869              		.loc 1 829 0
 3870 05f8 2BE5     		b	.L217
 3871              	.LVL352:
 3872              	.L228:
 3873 05fa BDF82000 		ldrh	r0, [sp, #32]
 3874 05fe 40BA     		rev16	r0, r0
 3875 0600 80B2     		uxth	r0, r0
 3876              	.LVL353:
ARM GAS  /tmp/ccjQGkoy.s 			page 69


 3877              		.loc 1 798 0
 3878 0602 B0F5007F 		cmp	r0, #512
 3879 0606 BFF424AD 		bcs	.L217
 3880              		.loc 1 799 0
 3881 060a 9DF81820 		ldrb	r2, [sp, #24]	@ zero_extendqisi2
 3882 060e 4C4B     		ldr	r3, .L310+20
 3883 0610 02F00F02 		and	r2, r2, #15
 3884 0614 1844     		add	r0, r0, r3
 3885 0616 023A     		subs	r2, r2, #2
 3886 0618 0DF12201 		add	r1, sp, #34
 3887 061c FFF7FEFF 		bl	memcpy
 3888              	.LVL354:
 3889 0620 17E5     		b	.L217
 3890              	.L225:
 3891              		.loc 1 780 0
 3892 0622 0023     		movs	r3, #0
 3893              		.loc 1 781 0
 3894 0624 04A9     		add	r1, sp, #16
 3895 0626 08A8     		add	r0, sp, #32
 3896 0628 B7EE000A 		vmov.f32	s0, #1.0e+0
 3897              		.loc 1 780 0
 3898 062c 0493     		str	r3, [sp, #16]
 3899              		.loc 1 781 0
 3900 062e FFF7FEFF 		bl	buffer_get_float32
 3901              	.LVL355:
 3902 0632 FFF7FEFF 		bl	mc_interface_set_pid_speed
 3903              	.LVL356:
 3904              		.loc 1 782 0
 3905 0636 FFF7FEFF 		bl	timeout_reset
 3906              	.LVL357:
 3907              		.loc 1 783 0
 3908 063a 0AE5     		b	.L217
 3909              	.L227:
 3910              		.loc 1 792 0
 3911 063c 9DF81820 		ldrb	r2, [sp, #24]	@ zero_extendqisi2
 3912 0640 9DF82000 		ldrb	r0, [sp, #32]	@ zero_extendqisi2
 3913 0644 3E4B     		ldr	r3, .L310+20
 3914 0646 02F00F02 		and	r2, r2, #15
 3915 064a 013A     		subs	r2, r2, #1
 3916 064c 1844     		add	r0, r0, r3
 3917 064e 0DF12101 		add	r1, sp, #33
 3918 0652 FFF7FEFF 		bl	memcpy
 3919              	.LVL358:
 3920              		.loc 1 793 0
 3921 0656 FCE4     		b	.L217
 3922              	.L226:
 3923              		.loc 1 786 0
 3924 0658 0023     		movs	r3, #0
 3925              		.loc 1 787 0
 3926 065a 04A9     		add	r1, sp, #16
 3927 065c 08A8     		add	r0, sp, #32
 3928 065e B0EE4A0A 		vmov.f32	s0, s20
 3929              		.loc 1 786 0
 3930 0662 0493     		str	r3, [sp, #16]
 3931              		.loc 1 787 0
 3932 0664 FFF7FEFF 		bl	buffer_get_float32
 3933              	.LVL359:
ARM GAS  /tmp/ccjQGkoy.s 			page 70


 3934 0668 FFF7FEFF 		bl	mc_interface_set_pid_pos
 3935              	.LVL360:
 3936              		.loc 1 788 0
 3937 066c FFF7FEFF 		bl	timeout_reset
 3938              	.LVL361:
 3939              		.loc 1 789 0
 3940 0670 EFE4     		b	.L217
 3941              	.L223:
 3942              		.loc 1 768 0
 3943 0672 0023     		movs	r3, #0
 3944              		.loc 1 769 0
 3945 0674 04A9     		add	r1, sp, #16
 3946 0676 08A8     		add	r0, sp, #32
 3947 0678 B0EE680A 		vmov.f32	s0, s17
 3948              		.loc 1 768 0
 3949 067c 0493     		str	r3, [sp, #16]
 3950              		.loc 1 769 0
 3951 067e FFF7FEFF 		bl	buffer_get_float32
 3952              	.LVL362:
 3953 0682 FFF7FEFF 		bl	mc_interface_set_current
 3954              	.LVL363:
 3955              		.loc 1 770 0
 3956 0686 FFF7FEFF 		bl	timeout_reset
 3957              	.LVL364:
 3958              		.loc 1 771 0
 3959 068a E2E4     		b	.L217
 3960              	.L221:
 3961              		.loc 1 762 0
 3962 068c 0023     		movs	r3, #0
 3963              		.loc 1 763 0
 3964 068e 04A9     		add	r1, sp, #16
 3965 0690 08A8     		add	r0, sp, #32
 3966 0692 B0EE480A 		vmov.f32	s0, s16
 3967              		.loc 1 762 0
 3968 0696 0493     		str	r3, [sp, #16]
 3969              		.loc 1 763 0
 3970 0698 FFF7FEFF 		bl	buffer_get_float32
 3971              	.LVL365:
 3972 069c FFF7FEFF 		bl	mc_interface_set_duty
 3973              	.LVL366:
 3974              		.loc 1 764 0
 3975 06a0 FFF7FEFF 		bl	timeout_reset
 3976              	.LVL367:
 3977              		.loc 1 765 0
 3978 06a4 D5E4     		b	.L217
 3979              	.L224:
 3980              		.loc 1 774 0
 3981 06a6 0023     		movs	r3, #0
 3982              		.loc 1 775 0
 3983 06a8 04A9     		add	r1, sp, #16
 3984 06aa 08A8     		add	r0, sp, #32
 3985 06ac B0EE680A 		vmov.f32	s0, s17
 3986              		.loc 1 774 0
 3987 06b0 0493     		str	r3, [sp, #16]
 3988              		.loc 1 775 0
 3989 06b2 FFF7FEFF 		bl	buffer_get_float32
 3990              	.LVL368:
ARM GAS  /tmp/ccjQGkoy.s 			page 71


 3991 06b6 FFF7FEFF 		bl	mc_interface_set_brake_current
 3992              	.LVL369:
 3993              		.loc 1 776 0
 3994 06ba FFF7FEFF 		bl	timeout_reset
 3995              	.LVL370:
 3996              		.loc 1 777 0
 3997 06be C8E4     		b	.L217
 3998              	.LVL371:
 3999              	.L250:
 4000              		.loc 1 843 0
 4001 06c0 9DF81810 		ldrb	r1, [sp, #24]	@ zero_extendqisi2
 4002 06c4 1F4A     		ldr	r2, .L310+24
 4003 06c6 01F00F01 		and	r1, r1, #15
 4004 06ca 0239     		subs	r1, r1, #2
 4005 06cc 0DF12200 		add	r0, sp, #34
 4006 06d0 FFF7FEFF 		bl	commands_process_packet
 4007              	.LVL372:
 4008              		.loc 1 844 0
 4009 06d4 BDE4     		b	.L217
 4010              	.LVL373:
 4011              	.L249:
 4012              		.loc 1 846 0
 4013 06d6 9DF81810 		ldrb	r1, [sp, #24]	@ zero_extendqisi2
 4014 06da 01F00F01 		and	r1, r1, #15
 4015 06de 0239     		subs	r1, r1, #2
 4016 06e0 0DF12200 		add	r0, sp, #34
 4017 06e4 FFF7FEFF 		bl	commands_send_packet
 4018              	.LVL374:
 4019              		.loc 1 847 0
 4020 06e8 B3E4     		b	.L217
 4021              	.LVL375:
 4022              	.L307:
 4023              	.LBB286:
 4024              	.LBB284:
 4025              		.loc 1 900 0
 4026 06ea FFF7FEFF 		bl	app_get_configuration
 4027              	.LVL376:
 4028 06ee CC22     		movs	r2, #204
 4029 06f0 0146     		mov	r1, r0
 4030 06f2 0AA8     		add	r0, sp, #40
 4031 06f4 FFF7FEFF 		bl	memcpy
 4032              	.LVL377:
 4033              		.loc 1 902 0
 4034 06f8 9DF83430 		ldrb	r3, [sp, #52]	@ zero_extendqisi2
 4035 06fc 042B     		cmp	r3, #4
 4036 06fe 3FF4D1AE 		beq	.L252
 4037              		.loc 1 903 0
 4038 0702 0423     		movs	r3, #4
 4039              		.loc 1 904 0
 4040 0704 0AA8     		add	r0, sp, #40
 4041              		.loc 1 903 0
 4042 0706 8DF83430 		strb	r3, [sp, #52]
 4043              		.loc 1 904 0
 4044 070a FFF7FEFF 		bl	conf_general_store_app_configuration
 4045              	.LVL378:
 4046              		.loc 1 905 0
 4047 070e 0AA8     		add	r0, sp, #40
ARM GAS  /tmp/ccjQGkoy.s 			page 72


 4048 0710 FFF7FEFF 		bl	app_set_configuration
 4049              	.LVL379:
 4050 0714 C6E6     		b	.L252
 4051              	.LVL380:
 4052              	.L247:
 4053              	.LBE284:
 4054              	.LBE286:
 4055              		.loc 1 822 0
 4056 0716 1146     		mov	r1, r2
 4057 0718 0948     		ldr	r0, .L310+20
 4058 071a 0A4A     		ldr	r2, .L310+24
 4059 071c FFF7FEFF 		bl	commands_process_packet
 4060              	.LVL381:
 4061              		.loc 1 823 0
 4062 0720 97E4     		b	.L217
 4063              	.L246:
 4064              		.loc 1 825 0
 4065 0722 1146     		mov	r1, r2
 4066 0724 0648     		ldr	r0, .L310+20
 4067 0726 FFF7FEFF 		bl	commands_send_packet
 4068              	.LVL382:
 4069              		.loc 1 826 0
 4070 072a 92E4     		b	.L217
 4071              	.L311:
 4072              		.align	2
 4073              	.L310:
 4074 072c 00000000 		.word	.LANCHOR16
 4075 0730 00000000 		.word	.LANCHOR17
 4076 0734 1F85EB51 		.word	1374389535
 4077 0738 00000000 		.word	.LANCHOR15
 4078 073c 00000000 		.word	.LANCHOR14
 4079 0740 00000000 		.word	.LANCHOR18
 4080 0744 00000000 		.word	send_packet_wrapper
 4081              	.LBE289:
 4082              	.LBE291:
 4083              	.LBE292:
 4084              		.cfi_endproc
 4085              	.LFE289:
 4086              		.size	cancom_process_thread, .-cancom_process_thread
 4087              		.section	.bss.can_mtx,"aw",%nobits
 4088              		.align	2
 4089              		.set	.LANCHOR9,. + 0
 4090              		.type	can_mtx, %object
 4091              		.size	can_mtx, 16
 4092              	can_mtx:
 4093 0000 00000000 		.space	16
 4093      00000000 
 4093      00000000 
 4093      00000000 
 4094              		.section	.bss.can_rx_mtx,"aw",%nobits
 4095              		.align	2
 4096              		.set	.LANCHOR0,. + 0
 4097              		.type	can_rx_mtx, %object
 4098              		.size	can_rx_mtx, 16
 4099              	can_rx_mtx:
 4100 0000 00000000 		.space	16
 4100      00000000 
ARM GAS  /tmp/ccjQGkoy.s 			page 73


 4100      00000000 
 4100      00000000 
 4101              		.section	.bss.cancom_process_thread_wa,"aw",%nobits
 4102              		.align	3
 4103              		.type	cancom_process_thread_wa, %object
 4104              		.size	cancom_process_thread_wa, 4504
 4105              	cancom_process_thread_wa:
 4106 0000 00000000 		.space	4504
 4106      00000000 
 4106      00000000 
 4106      00000000 
 4106      00000000 
 4107              		.section	.bss.cancom_read_thread_wa,"aw",%nobits
 4108              		.align	3
 4109              		.set	.LANCHOR11,. + 0
 4110              		.type	cancom_read_thread_wa, %object
 4111              		.size	cancom_read_thread_wa, 920
 4112              	cancom_read_thread_wa:
 4113 0000 00000000 		.space	920
 4113      00000000 
 4113      00000000 
 4113      00000000 
 4113      00000000 
 4114              		.section	.bss.cancom_status_thread_wa,"aw",%nobits
 4115              		.align	3
 4116              		.set	.LANCHOR12,. + 0
 4117              		.type	cancom_status_thread_wa, %object
 4118              		.size	cancom_status_thread_wa, 1432
 4119              	cancom_status_thread_wa:
 4120 0000 00000000 		.space	1432
 4120      00000000 
 4120      00000000 
 4120      00000000 
 4120      00000000 
 4121              		.section	.bss.detect_all_foc_res,"aw",%nobits
 4122              		.align	2
 4123              		.set	.LANCHOR17,. + 0
 4124              		.type	detect_all_foc_res, %object
 4125              		.size	detect_all_foc_res, 50
 4126              	detect_all_foc_res:
 4127 0000 00000000 		.space	50
 4127      00000000 
 4127      00000000 
 4127      00000000 
 4127      00000000 
 4128              		.section	.bss.detect_all_foc_res_index,"aw",%nobits
 4129              		.align	2
 4130              		.set	.LANCHOR16,. + 0
 4131              		.type	detect_all_foc_res_index, %object
 4132              		.size	detect_all_foc_res_index, 4
 4133              	detect_all_foc_res_index:
 4134 0000 00000000 		.space	4
 4135              		.section	.bss.ping_tp,"aw",%nobits
 4136              		.align	2
 4137              		.set	.LANCHOR15,. + 0
 4138              		.type	ping_tp, %object
 4139              		.size	ping_tp, 4
ARM GAS  /tmp/ccjQGkoy.s 			page 74


 4140              	ping_tp:
 4141 0000 00000000 		.space	4
 4142              		.section	.bss.process_tp,"aw",%nobits
 4143              		.align	2
 4144              		.set	.LANCHOR3,. + 0
 4145              		.type	process_tp, %object
 4146              		.size	process_tp, 4
 4147              	process_tp:
 4148 0000 00000000 		.space	4
 4149              		.section	.bss.rx_buffer,"aw",%nobits
 4150              		.align	2
 4151              		.set	.LANCHOR18,. + 0
 4152              		.type	rx_buffer, %object
 4153              		.size	rx_buffer, 512
 4154              	rx_buffer:
 4155 0000 00000000 		.space	512
 4155      00000000 
 4155      00000000 
 4155      00000000 
 4155      00000000 
 4156              		.section	.bss.rx_buffer_last_id,"aw",%nobits
 4157              		.align	2
 4158              		.set	.LANCHOR14,. + 0
 4159              		.type	rx_buffer_last_id, %object
 4160              		.size	rx_buffer_last_id, 4
 4161              	rx_buffer_last_id:
 4162 0000 00000000 		.space	4
 4163              		.section	.bss.rx_frame_read,"aw",%nobits
 4164              		.align	2
 4165              		.set	.LANCHOR8,. + 0
 4166              		.type	rx_frame_read, %object
 4167              		.size	rx_frame_read, 4
 4168              	rx_frame_read:
 4169 0000 00000000 		.space	4
 4170              		.section	.bss.rx_frame_write,"aw",%nobits
 4171              		.align	2
 4172              		.set	.LANCHOR1,. + 0
 4173              		.type	rx_frame_write, %object
 4174              		.size	rx_frame_write, 4
 4175              	rx_frame_write:
 4176 0000 00000000 		.space	4
 4177              		.section	.bss.rx_frames,"aw",%nobits
 4178              		.align	2
 4179              		.set	.LANCHOR2,. + 0
 4180              		.type	rx_frames, %object
 4181              		.size	rx_frames, 2000
 4182              	rx_frames:
 4183 0000 00000000 		.space	2000
 4183      00000000 
 4183      00000000 
 4183      00000000 
 4183      00000000 
 4184              		.section	.bss.sid_callback,"aw",%nobits
 4185              		.align	2
 4186              		.set	.LANCHOR13,. + 0
 4187              		.type	sid_callback, %object
 4188              		.size	sid_callback, 4
ARM GAS  /tmp/ccjQGkoy.s 			page 75


 4189              	sid_callback:
 4190 0000 00000000 		.space	4
 4191              		.section	.bss.stat_msgs,"aw",%nobits
 4192              		.align	2
 4193              		.set	.LANCHOR4,. + 0
 4194              		.type	stat_msgs, %object
 4195              		.size	stat_msgs, 200
 4196              	stat_msgs:
 4197 0000 00000000 		.space	200
 4197      00000000 
 4197      00000000 
 4197      00000000 
 4197      00000000 
 4198              		.section	.bss.stat_msgs_2,"aw",%nobits
 4199              		.align	2
 4200              		.set	.LANCHOR6,. + 0
 4201              		.type	stat_msgs_2, %object
 4202              		.size	stat_msgs_2, 160
 4203              	stat_msgs_2:
 4204 0000 00000000 		.space	160
 4204      00000000 
 4204      00000000 
 4204      00000000 
 4204      00000000 
 4205              		.section	.bss.stat_msgs_3,"aw",%nobits
 4206              		.align	2
 4207              		.set	.LANCHOR7,. + 0
 4208              		.type	stat_msgs_3, %object
 4209              		.size	stat_msgs_3, 160
 4210              	stat_msgs_3:
 4211 0000 00000000 		.space	160
 4211      00000000 
 4211      00000000 
 4211      00000000 
 4211      00000000 
 4212              		.section	.bss.stat_msgs_4,"aw",%nobits
 4213              		.align	2
 4214              		.set	.LANCHOR5,. + 0
 4215              		.type	stat_msgs_4, %object
 4216              		.size	stat_msgs_4, 240
 4217              	stat_msgs_4:
 4218 0000 00000000 		.space	240
 4218      00000000 
 4218      00000000 
 4218      00000000 
 4218      00000000 
 4219              		.section	.data.cancfg,"aw",%progbits
 4220              		.align	2
 4221              		.set	.LANCHOR10,. + 0
 4222              		.type	cancfg, %object
 4223              		.size	cancfg, 8
 4224              	cancfg:
 4225 0000 64000000 		.word	100
 4226 0004 05002903 		.word	53018629
 4227              		.section	.rodata.cancom_process_thread.str1.4,"aMS",%progbits,1
 4228              		.align	2
 4229              	.LC2:
ARM GAS  /tmp/ccjQGkoy.s 			page 76


 4230 0000 43414E20 		.ascii	"CAN process\000"
 4230      70726F63 
 4230      65737300 
 4231              		.section	.rodata.cancom_read_thread.str1.4,"aMS",%progbits,1
 4232              		.align	2
 4233              	.LC0:
 4234 0000 43414E20 		.ascii	"CAN read\000"
 4234      72656164 
 4234      00
 4235              		.section	.rodata.cancom_status_thread.str1.4,"aMS",%progbits,1
 4236              		.align	2
 4237              	.LC1:
 4238 0000 43414E20 		.ascii	"CAN status\000"
 4238      73746174 
 4238      757300
 4239              		.text
 4240              	.Letext0:
 4241              		.file 7 "/usr/lib/gcc/arm-none-eabi/7.3.1/include/stddef.h"
 4242              		.file 8 "/usr/arm-none-eabi/include/machine/_default_types.h"
 4243              		.file 9 "/usr/arm-none-eabi/include/sys/lock.h"
 4244              		.file 10 "/usr/arm-none-eabi/include/sys/_types.h"
 4245              		.file 11 "/usr/arm-none-eabi/include/sys/reent.h"
 4246              		.file 12 "/usr/arm-none-eabi/include/math.h"
 4247              		.file 13 "/usr/arm-none-eabi/include/sys/_stdint.h"
 4248              		.file 14 "ChibiOS_3.0.2/os/rt/ports/ARMCMx/compilers/GCC/chtypes.h"
 4249              		.file 15 "ChibiOS_3.0.2/os/rt/include/chsystypes.h"
 4250              		.file 16 "ChibiOS_3.0.2/os/rt/include/chschd.h"
 4251              		.file 17 "ChibiOS_3.0.2/os/ext/CMSIS/include/core_cm4.h"
 4252              		.file 18 "ChibiOS_3.0.2/os/ext/CMSIS/ST/system_stm32f4xx.h"
 4253              		.file 19 "ChibiOS_3.0.2/os/ext/CMSIS/ST/stm32f407xx.h"
 4254              		.file 20 "ChibiOS_3.0.2/os/rt/ports/ARMCMx/chcore.h"
 4255              		.file 21 "ChibiOS_3.0.2/os/rt/ports/ARMCMx/chcore_v7m.h"
 4256              		.file 22 "ChibiOS_3.0.2/os/rt/include/chtm.h"
 4257              		.file 23 "ChibiOS_3.0.2/os/rt/include/chsem.h"
 4258              		.file 24 "ChibiOS_3.0.2/os/rt/include/chmtx.h"
 4259              		.file 25 "ChibiOS_3.0.2/os/rt/include/chqueues.h"
 4260              		.file 26 "datatypes.h"
 4261              		.file 27 "conf_general.h"
 4262              		.file 28 "ChibiOS_3.0.2/os/hal/ports/STM32/STM32F4xx/stm32_dma.h"
 4263              		.file 29 "ChibiOS_3.0.2/os/hal/ports/STM32/LLD/GPIOv2/pal_lld.h"
 4264              		.file 30 "ChibiOS_3.0.2/os/hal/include/can.h"
 4265              		.file 31 "ChibiOS_3.0.2/os/hal/ports/STM32/LLD/can_lld.h"
 4266              		.file 32 "ChibiOS_3.0.2/os/hal/include/i2c.h"
 4267              		.file 33 "ChibiOS_3.0.2/os/hal/ports/STM32/LLD/I2Cv1/i2c_lld.h"
 4268              		.file 34 "ChibiOS_3.0.2/os/hal/include/icu.h"
 4269              		.file 35 "ChibiOS_3.0.2/os/hal/ports/STM32/LLD/TIMv1/icu_lld.h"
 4270              		.file 36 "ChibiOS_3.0.2/os/hal/ports/STM32/LLD/TIMv1/stm32_tim.h"
 4271              		.file 37 "ChibiOS_3.0.2/os/hal/include/serial.h"
 4272              		.file 38 "ChibiOS_3.0.2/os/hal/ports/STM32/LLD/USARTv1/serial_lld.h"
 4273              		.file 39 "ChibiOS_3.0.2/os/hal/include/spi.h"
 4274              		.file 40 "ChibiOS_3.0.2/os/hal/ports/STM32/LLD/SPIv1/spi_lld.h"
 4275              		.file 41 "ChibiOS_3.0.2/os/hal/include/usb.h"
 4276              		.file 42 "ChibiOS_3.0.2/os/hal/ports/STM32/LLD/OTGv1/usb_lld.h"
 4277              		.file 43 "ChibiOS_3.0.2/os/hal/ports/STM32/LLD/OTGv1/stm32_otg.h"
 4278              		.file 44 "mc_interface.h"
 4279              		.file 45 "timeout.h"
 4280              		.file 46 "ChibiOS_3.0.2/os/rt/include/chsys.h"
ARM GAS  /tmp/ccjQGkoy.s 			page 77


 4281              		.file 47 "buffer.h"
 4282              		.file 48 "applications/app.h"
 4283              		.file 49 "commands.h"
 4284              		.file 50 "crc.h"
 4285              		.file 51 "libcanard/canard_driver.h"
 4286              		.file 52 "<built-in>"
 4287              		.section	.debug_info,"",%progbits
 4288              	.Ldebug_info0:
 4289 0000 E3690000 		.4byte	0x69e3
 4290 0004 0400     		.2byte	0x4
 4291 0006 00000000 		.4byte	.Ldebug_abbrev0
 4292 000a 04       		.byte	0x4
 4293 000b 01       		.uleb128 0x1
 4294 000c 38110000 		.4byte	.LASF1139
 4295 0010 0C       		.byte	0xc
 4296 0011 99270000 		.4byte	.LASF1140
 4297 0015 46370000 		.4byte	.LASF1141
 4298 0019 30030000 		.4byte	.Ldebug_ranges0+0x330
 4299 001d 00000000 		.4byte	0
 4300 0021 00000000 		.4byte	.Ldebug_line0
 4301 0025 02       		.uleb128 0x2
 4302 0026 04       		.byte	0x4
 4303 0027 04       		.byte	0x4
 4304 0028 3F0E0000 		.4byte	.LASF0
 4305 002c 03       		.uleb128 0x3
 4306 002d 04       		.byte	0x4
 4307 002e 05       		.byte	0x5
 4308 002f 696E7400 		.ascii	"int\000"
 4309 0033 04       		.uleb128 0x4
 4310 0034 2C000000 		.4byte	0x2c
 4311 0038 05       		.uleb128 0x5
 4312 0039 A3140000 		.4byte	.LASF2
 4313 003d 07       		.byte	0x7
 4314 003e D8       		.byte	0xd8
 4315 003f 48000000 		.4byte	0x48
 4316 0043 04       		.uleb128 0x4
 4317 0044 38000000 		.4byte	0x38
 4318 0048 02       		.uleb128 0x2
 4319 0049 04       		.byte	0x4
 4320 004a 07       		.byte	0x7
 4321 004b CB3B0000 		.4byte	.LASF1
 4322 004f 05       		.uleb128 0x5
 4323 0050 573A0000 		.4byte	.LASF3
 4324 0054 08       		.byte	0x8
 4325 0055 29       		.byte	0x29
 4326 0056 5A000000 		.4byte	0x5a
 4327 005a 02       		.uleb128 0x2
 4328 005b 01       		.byte	0x1
 4329 005c 06       		.byte	0x6
 4330 005d C81F0000 		.4byte	.LASF4
 4331 0061 05       		.uleb128 0x5
 4332 0062 8A010000 		.4byte	.LASF5
 4333 0066 08       		.byte	0x8
 4334 0067 2B       		.byte	0x2b
 4335 0068 6C000000 		.4byte	0x6c
 4336 006c 02       		.uleb128 0x2
 4337 006d 01       		.byte	0x1
ARM GAS  /tmp/ccjQGkoy.s 			page 78


 4338 006e 08       		.byte	0x8
 4339 006f 890D0000 		.4byte	.LASF6
 4340 0073 05       		.uleb128 0x5
 4341 0074 7B0B0000 		.4byte	.LASF7
 4342 0078 08       		.byte	0x8
 4343 0079 37       		.byte	0x37
 4344 007a 7E000000 		.4byte	0x7e
 4345 007e 02       		.uleb128 0x2
 4346 007f 02       		.byte	0x2
 4347 0080 05       		.byte	0x5
 4348 0081 613C0000 		.4byte	.LASF8
 4349 0085 05       		.uleb128 0x5
 4350 0086 850B0000 		.4byte	.LASF9
 4351 008a 08       		.byte	0x8
 4352 008b 39       		.byte	0x39
 4353 008c 90000000 		.4byte	0x90
 4354 0090 02       		.uleb128 0x2
 4355 0091 02       		.byte	0x2
 4356 0092 07       		.byte	0x7
 4357 0093 B51F0000 		.4byte	.LASF10
 4358 0097 05       		.uleb128 0x5
 4359 0098 682E0000 		.4byte	.LASF11
 4360 009c 08       		.byte	0x8
 4361 009d 4D       		.byte	0x4d
 4362 009e A2000000 		.4byte	0xa2
 4363 00a2 02       		.uleb128 0x2
 4364 00a3 04       		.byte	0x4
 4365 00a4 05       		.byte	0x5
 4366 00a5 D6230000 		.4byte	.LASF12
 4367 00a9 05       		.uleb128 0x5
 4368 00aa 802E0000 		.4byte	.LASF13
 4369 00ae 08       		.byte	0x8
 4370 00af 4F       		.byte	0x4f
 4371 00b0 B4000000 		.4byte	0xb4
 4372 00b4 02       		.uleb128 0x2
 4373 00b5 04       		.byte	0x4
 4374 00b6 07       		.byte	0x7
 4375 00b7 6F260000 		.4byte	.LASF14
 4376 00bb 02       		.uleb128 0x2
 4377 00bc 08       		.byte	0x8
 4378 00bd 05       		.byte	0x5
 4379 00be BA360000 		.4byte	.LASF15
 4380 00c2 05       		.uleb128 0x5
 4381 00c3 AE190000 		.4byte	.LASF16
 4382 00c7 08       		.byte	0x8
 4383 00c8 69       		.byte	0x69
 4384 00c9 CD000000 		.4byte	0xcd
 4385 00cd 02       		.uleb128 0x2
 4386 00ce 08       		.byte	0x8
 4387 00cf 07       		.byte	0x7
 4388 00d0 86310000 		.4byte	.LASF17
 4389 00d4 05       		.uleb128 0x5
 4390 00d5 1E0B0000 		.4byte	.LASF18
 4391 00d9 09       		.byte	0x9
 4392 00da 22       		.byte	0x22
 4393 00db DF000000 		.4byte	0xdf
 4394 00df 06       		.uleb128 0x6
ARM GAS  /tmp/ccjQGkoy.s 			page 79


 4395 00e0 04       		.byte	0x4
 4396 00e1 E5000000 		.4byte	0xe5
 4397 00e5 07       		.uleb128 0x7
 4398 00e6 31080000 		.4byte	.LASF125
 4399 00ea 05       		.uleb128 0x5
 4400 00eb 4D140000 		.4byte	.LASF19
 4401 00ef 0A       		.byte	0xa
 4402 00f0 2C       		.byte	0x2c
 4403 00f1 A2000000 		.4byte	0xa2
 4404 00f5 05       		.uleb128 0x5
 4405 00f6 C42C0000 		.4byte	.LASF20
 4406 00fa 0A       		.byte	0xa
 4407 00fb 72       		.byte	0x72
 4408 00fc A2000000 		.4byte	0xa2
 4409 0100 08       		.uleb128 0x8
 4410 0101 5E170000 		.4byte	.LASF21
 4411 0105 07       		.byte	0x7
 4412 0106 6501     		.2byte	0x165
 4413 0108 48000000 		.4byte	0x48
 4414 010c 09       		.uleb128 0x9
 4415 010d 04       		.byte	0x4
 4416 010e 0A       		.byte	0xa
 4417 010f A6       		.byte	0xa6
 4418 0110 2B010000 		.4byte	0x12b
 4419 0114 0A       		.uleb128 0xa
 4420 0115 23220000 		.4byte	.LASF22
 4421 0119 0A       		.byte	0xa
 4422 011a A8       		.byte	0xa8
 4423 011b 00010000 		.4byte	0x100
 4424 011f 0A       		.uleb128 0xa
 4425 0120 D9160000 		.4byte	.LASF23
 4426 0124 0A       		.byte	0xa
 4427 0125 A9       		.byte	0xa9
 4428 0126 2B010000 		.4byte	0x12b
 4429 012a 00       		.byte	0
 4430 012b 0B       		.uleb128 0xb
 4431 012c 6C000000 		.4byte	0x6c
 4432 0130 3B010000 		.4byte	0x13b
 4433 0134 0C       		.uleb128 0xc
 4434 0135 48000000 		.4byte	0x48
 4435 0139 03       		.byte	0x3
 4436 013a 00       		.byte	0
 4437 013b 0D       		.uleb128 0xd
 4438 013c 08       		.byte	0x8
 4439 013d 0A       		.byte	0xa
 4440 013e A3       		.byte	0xa3
 4441 013f 5C010000 		.4byte	0x15c
 4442 0143 0E       		.uleb128 0xe
 4443 0144 D5140000 		.4byte	.LASF24
 4444 0148 0A       		.byte	0xa
 4445 0149 A5       		.byte	0xa5
 4446 014a 2C000000 		.4byte	0x2c
 4447 014e 00       		.byte	0
 4448 014f 0E       		.uleb128 0xe
 4449 0150 AF2E0000 		.4byte	.LASF25
 4450 0154 0A       		.byte	0xa
 4451 0155 AA       		.byte	0xaa
ARM GAS  /tmp/ccjQGkoy.s 			page 80


 4452 0156 0C010000 		.4byte	0x10c
 4453 015a 04       		.byte	0x4
 4454 015b 00       		.byte	0
 4455 015c 05       		.uleb128 0x5
 4456 015d B52D0000 		.4byte	.LASF26
 4457 0161 0A       		.byte	0xa
 4458 0162 AB       		.byte	0xab
 4459 0163 3B010000 		.4byte	0x13b
 4460 0167 05       		.uleb128 0x5
 4461 0168 5B350000 		.4byte	.LASF27
 4462 016c 0A       		.byte	0xa
 4463 016d AF       		.byte	0xaf
 4464 016e D4000000 		.4byte	0xd4
 4465 0172 0F       		.uleb128 0xf
 4466 0173 04       		.byte	0x4
 4467 0174 06       		.uleb128 0x6
 4468 0175 04       		.byte	0x4
 4469 0176 7A010000 		.4byte	0x17a
 4470 017a 02       		.uleb128 0x2
 4471 017b 01       		.byte	0x1
 4472 017c 08       		.byte	0x8
 4473 017d CF270000 		.4byte	.LASF28
 4474 0181 10       		.uleb128 0x10
 4475 0182 7A010000 		.4byte	0x17a
 4476 0186 05       		.uleb128 0x5
 4477 0187 1E1E0000 		.4byte	.LASF29
 4478 018b 0B       		.byte	0xb
 4479 018c 16       		.byte	0x16
 4480 018d B4000000 		.4byte	0xb4
 4481 0191 11       		.uleb128 0x11
 4482 0192 BE280000 		.4byte	.LASF34
 4483 0196 18       		.byte	0x18
 4484 0197 0B       		.byte	0xb
 4485 0198 2F       		.byte	0x2f
 4486 0199 E4010000 		.4byte	0x1e4
 4487 019d 0E       		.uleb128 0xe
 4488 019e DB190000 		.4byte	.LASF30
 4489 01a2 0B       		.byte	0xb
 4490 01a3 31       		.byte	0x31
 4491 01a4 E4010000 		.4byte	0x1e4
 4492 01a8 00       		.byte	0
 4493 01a9 12       		.uleb128 0x12
 4494 01aa 5F6B00   		.ascii	"_k\000"
 4495 01ad 0B       		.byte	0xb
 4496 01ae 32       		.byte	0x32
 4497 01af 2C000000 		.4byte	0x2c
 4498 01b3 04       		.byte	0x4
 4499 01b4 0E       		.uleb128 0xe
 4500 01b5 AE250000 		.4byte	.LASF31
 4501 01b9 0B       		.byte	0xb
 4502 01ba 32       		.byte	0x32
 4503 01bb 2C000000 		.4byte	0x2c
 4504 01bf 08       		.byte	0x8
 4505 01c0 0E       		.uleb128 0xe
 4506 01c1 513A0000 		.4byte	.LASF32
 4507 01c5 0B       		.byte	0xb
 4508 01c6 32       		.byte	0x32
ARM GAS  /tmp/ccjQGkoy.s 			page 81


 4509 01c7 2C000000 		.4byte	0x2c
 4510 01cb 0C       		.byte	0xc
 4511 01cc 0E       		.uleb128 0xe
 4512 01cd 330E0000 		.4byte	.LASF33
 4513 01d1 0B       		.byte	0xb
 4514 01d2 32       		.byte	0x32
 4515 01d3 2C000000 		.4byte	0x2c
 4516 01d7 10       		.byte	0x10
 4517 01d8 12       		.uleb128 0x12
 4518 01d9 5F7800   		.ascii	"_x\000"
 4519 01dc 0B       		.byte	0xb
 4520 01dd 33       		.byte	0x33
 4521 01de EA010000 		.4byte	0x1ea
 4522 01e2 14       		.byte	0x14
 4523 01e3 00       		.byte	0
 4524 01e4 06       		.uleb128 0x6
 4525 01e5 04       		.byte	0x4
 4526 01e6 91010000 		.4byte	0x191
 4527 01ea 0B       		.uleb128 0xb
 4528 01eb 86010000 		.4byte	0x186
 4529 01ef FA010000 		.4byte	0x1fa
 4530 01f3 0C       		.uleb128 0xc
 4531 01f4 48000000 		.4byte	0x48
 4532 01f8 00       		.byte	0
 4533 01f9 00       		.byte	0
 4534 01fa 11       		.uleb128 0x11
 4535 01fb BA090000 		.4byte	.LASF35
 4536 01ff 24       		.byte	0x24
 4537 0200 0B       		.byte	0xb
 4538 0201 37       		.byte	0x37
 4539 0202 73020000 		.4byte	0x273
 4540 0206 0E       		.uleb128 0xe
 4541 0207 F61B0000 		.4byte	.LASF36
 4542 020b 0B       		.byte	0xb
 4543 020c 39       		.byte	0x39
 4544 020d 2C000000 		.4byte	0x2c
 4545 0211 00       		.byte	0
 4546 0212 0E       		.uleb128 0xe
 4547 0213 9E3A0000 		.4byte	.LASF37
 4548 0217 0B       		.byte	0xb
 4549 0218 3A       		.byte	0x3a
 4550 0219 2C000000 		.4byte	0x2c
 4551 021d 04       		.byte	0x4
 4552 021e 0E       		.uleb128 0xe
 4553 021f 09170000 		.4byte	.LASF38
 4554 0223 0B       		.byte	0xb
 4555 0224 3B       		.byte	0x3b
 4556 0225 2C000000 		.4byte	0x2c
 4557 0229 08       		.byte	0x8
 4558 022a 0E       		.uleb128 0xe
 4559 022b 9A180000 		.4byte	.LASF39
 4560 022f 0B       		.byte	0xb
 4561 0230 3C       		.byte	0x3c
 4562 0231 2C000000 		.4byte	0x2c
 4563 0235 0C       		.byte	0xc
 4564 0236 0E       		.uleb128 0xe
 4565 0237 5C020000 		.4byte	.LASF40
ARM GAS  /tmp/ccjQGkoy.s 			page 82


 4566 023b 0B       		.byte	0xb
 4567 023c 3D       		.byte	0x3d
 4568 023d 2C000000 		.4byte	0x2c
 4569 0241 10       		.byte	0x10
 4570 0242 0E       		.uleb128 0xe
 4571 0243 5D100000 		.4byte	.LASF41
 4572 0247 0B       		.byte	0xb
 4573 0248 3E       		.byte	0x3e
 4574 0249 2C000000 		.4byte	0x2c
 4575 024d 14       		.byte	0x14
 4576 024e 0E       		.uleb128 0xe
 4577 024f 200D0000 		.4byte	.LASF42
 4578 0253 0B       		.byte	0xb
 4579 0254 3F       		.byte	0x3f
 4580 0255 2C000000 		.4byte	0x2c
 4581 0259 18       		.byte	0x18
 4582 025a 0E       		.uleb128 0xe
 4583 025b AC0A0000 		.4byte	.LASF43
 4584 025f 0B       		.byte	0xb
 4585 0260 40       		.byte	0x40
 4586 0261 2C000000 		.4byte	0x2c
 4587 0265 1C       		.byte	0x1c
 4588 0266 0E       		.uleb128 0xe
 4589 0267 2A0D0000 		.4byte	.LASF44
 4590 026b 0B       		.byte	0xb
 4591 026c 41       		.byte	0x41
 4592 026d 2C000000 		.4byte	0x2c
 4593 0271 20       		.byte	0x20
 4594 0272 00       		.byte	0
 4595 0273 13       		.uleb128 0x13
 4596 0274 4E1C0000 		.4byte	.LASF45
 4597 0278 0801     		.2byte	0x108
 4598 027a 0B       		.byte	0xb
 4599 027b 4A       		.byte	0x4a
 4600 027c B3020000 		.4byte	0x2b3
 4601 0280 0E       		.uleb128 0xe
 4602 0281 FA180000 		.4byte	.LASF46
 4603 0285 0B       		.byte	0xb
 4604 0286 4B       		.byte	0x4b
 4605 0287 B3020000 		.4byte	0x2b3
 4606 028b 00       		.byte	0
 4607 028c 0E       		.uleb128 0xe
 4608 028d E60C0000 		.4byte	.LASF47
 4609 0291 0B       		.byte	0xb
 4610 0292 4C       		.byte	0x4c
 4611 0293 B3020000 		.4byte	0x2b3
 4612 0297 80       		.byte	0x80
 4613 0298 14       		.uleb128 0x14
 4614 0299 76020000 		.4byte	.LASF48
 4615 029d 0B       		.byte	0xb
 4616 029e 4E       		.byte	0x4e
 4617 029f 86010000 		.4byte	0x186
 4618 02a3 0001     		.2byte	0x100
 4619 02a5 14       		.uleb128 0x14
 4620 02a6 CD2E0000 		.4byte	.LASF49
 4621 02aa 0B       		.byte	0xb
 4622 02ab 51       		.byte	0x51
ARM GAS  /tmp/ccjQGkoy.s 			page 83


 4623 02ac 86010000 		.4byte	0x186
 4624 02b0 0401     		.2byte	0x104
 4625 02b2 00       		.byte	0
 4626 02b3 0B       		.uleb128 0xb
 4627 02b4 72010000 		.4byte	0x172
 4628 02b8 C3020000 		.4byte	0x2c3
 4629 02bc 0C       		.uleb128 0xc
 4630 02bd 48000000 		.4byte	0x48
 4631 02c1 1F       		.byte	0x1f
 4632 02c2 00       		.byte	0
 4633 02c3 13       		.uleb128 0x13
 4634 02c4 D6010000 		.4byte	.LASF50
 4635 02c8 9001     		.2byte	0x190
 4636 02ca 0B       		.byte	0xb
 4637 02cb 5D       		.byte	0x5d
 4638 02cc 01030000 		.4byte	0x301
 4639 02d0 0E       		.uleb128 0xe
 4640 02d1 DB190000 		.4byte	.LASF30
 4641 02d5 0B       		.byte	0xb
 4642 02d6 5E       		.byte	0x5e
 4643 02d7 01030000 		.4byte	0x301
 4644 02db 00       		.byte	0
 4645 02dc 0E       		.uleb128 0xe
 4646 02dd C0020000 		.4byte	.LASF51
 4647 02e1 0B       		.byte	0xb
 4648 02e2 5F       		.byte	0x5f
 4649 02e3 2C000000 		.4byte	0x2c
 4650 02e7 04       		.byte	0x4
 4651 02e8 0E       		.uleb128 0xe
 4652 02e9 452D0000 		.4byte	.LASF52
 4653 02ed 0B       		.byte	0xb
 4654 02ee 61       		.byte	0x61
 4655 02ef 07030000 		.4byte	0x307
 4656 02f3 08       		.byte	0x8
 4657 02f4 0E       		.uleb128 0xe
 4658 02f5 4E1C0000 		.4byte	.LASF45
 4659 02f9 0B       		.byte	0xb
 4660 02fa 62       		.byte	0x62
 4661 02fb 73020000 		.4byte	0x273
 4662 02ff 88       		.byte	0x88
 4663 0300 00       		.byte	0
 4664 0301 06       		.uleb128 0x6
 4665 0302 04       		.byte	0x4
 4666 0303 C3020000 		.4byte	0x2c3
 4667 0307 0B       		.uleb128 0xb
 4668 0308 17030000 		.4byte	0x317
 4669 030c 17030000 		.4byte	0x317
 4670 0310 0C       		.uleb128 0xc
 4671 0311 48000000 		.4byte	0x48
 4672 0315 1F       		.byte	0x1f
 4673 0316 00       		.byte	0
 4674 0317 06       		.uleb128 0x6
 4675 0318 04       		.byte	0x4
 4676 0319 1D030000 		.4byte	0x31d
 4677 031d 15       		.uleb128 0x15
 4678 031e 11       		.uleb128 0x11
 4679 031f A6210000 		.4byte	.LASF53
ARM GAS  /tmp/ccjQGkoy.s 			page 84


 4680 0323 08       		.byte	0x8
 4681 0324 0B       		.byte	0xb
 4682 0325 75       		.byte	0x75
 4683 0326 43030000 		.4byte	0x343
 4684 032a 0E       		.uleb128 0xe
 4685 032b EB080000 		.4byte	.LASF54
 4686 032f 0B       		.byte	0xb
 4687 0330 76       		.byte	0x76
 4688 0331 43030000 		.4byte	0x343
 4689 0335 00       		.byte	0
 4690 0336 0E       		.uleb128 0xe
 4691 0337 C50E0000 		.4byte	.LASF55
 4692 033b 0B       		.byte	0xb
 4693 033c 77       		.byte	0x77
 4694 033d 2C000000 		.4byte	0x2c
 4695 0341 04       		.byte	0x4
 4696 0342 00       		.byte	0
 4697 0343 06       		.uleb128 0x6
 4698 0344 04       		.byte	0x4
 4699 0345 6C000000 		.4byte	0x6c
 4700 0349 11       		.uleb128 0x11
 4701 034a 222D0000 		.4byte	.LASF56
 4702 034e 68       		.byte	0x68
 4703 034f 0B       		.byte	0xb
 4704 0350 B5       		.byte	0xb5
 4705 0351 73040000 		.4byte	0x473
 4706 0355 12       		.uleb128 0x12
 4707 0356 5F7000   		.ascii	"_p\000"
 4708 0359 0B       		.byte	0xb
 4709 035a B6       		.byte	0xb6
 4710 035b 43030000 		.4byte	0x343
 4711 035f 00       		.byte	0
 4712 0360 12       		.uleb128 0x12
 4713 0361 5F7200   		.ascii	"_r\000"
 4714 0364 0B       		.byte	0xb
 4715 0365 B7       		.byte	0xb7
 4716 0366 2C000000 		.4byte	0x2c
 4717 036a 04       		.byte	0x4
 4718 036b 12       		.uleb128 0x12
 4719 036c 5F7700   		.ascii	"_w\000"
 4720 036f 0B       		.byte	0xb
 4721 0370 B8       		.byte	0xb8
 4722 0371 2C000000 		.4byte	0x2c
 4723 0375 08       		.byte	0x8
 4724 0376 0E       		.uleb128 0xe
 4725 0377 37030000 		.4byte	.LASF57
 4726 037b 0B       		.byte	0xb
 4727 037c B9       		.byte	0xb9
 4728 037d 7E000000 		.4byte	0x7e
 4729 0381 0C       		.byte	0xc
 4730 0382 0E       		.uleb128 0xe
 4731 0383 CC2C0000 		.4byte	.LASF58
 4732 0387 0B       		.byte	0xb
 4733 0388 BA       		.byte	0xba
 4734 0389 7E000000 		.4byte	0x7e
 4735 038d 0E       		.byte	0xe
 4736 038e 12       		.uleb128 0x12
ARM GAS  /tmp/ccjQGkoy.s 			page 85


 4737 038f 5F626600 		.ascii	"_bf\000"
 4738 0393 0B       		.byte	0xb
 4739 0394 BB       		.byte	0xbb
 4740 0395 1E030000 		.4byte	0x31e
 4741 0399 10       		.byte	0x10
 4742 039a 0E       		.uleb128 0xe
 4743 039b EF060000 		.4byte	.LASF59
 4744 039f 0B       		.byte	0xb
 4745 03a0 BC       		.byte	0xbc
 4746 03a1 2C000000 		.4byte	0x2c
 4747 03a5 18       		.byte	0x18
 4748 03a6 0E       		.uleb128 0xe
 4749 03a7 581A0000 		.4byte	.LASF60
 4750 03ab 0B       		.byte	0xb
 4751 03ac C3       		.byte	0xc3
 4752 03ad 72010000 		.4byte	0x172
 4753 03b1 1C       		.byte	0x1c
 4754 03b2 0E       		.uleb128 0xe
 4755 03b3 9A3C0000 		.4byte	.LASF61
 4756 03b7 0B       		.byte	0xb
 4757 03b8 C5       		.byte	0xc5
 4758 03b9 CE050000 		.4byte	0x5ce
 4759 03bd 20       		.byte	0x20
 4760 03be 0E       		.uleb128 0xe
 4761 03bf 4F0F0000 		.4byte	.LASF62
 4762 03c3 0B       		.byte	0xb
 4763 03c4 C7       		.byte	0xc7
 4764 03c5 FD050000 		.4byte	0x5fd
 4765 03c9 24       		.byte	0x24
 4766 03ca 0E       		.uleb128 0xe
 4767 03cb 591F0000 		.4byte	.LASF63
 4768 03cf 0B       		.byte	0xb
 4769 03d0 CA       		.byte	0xca
 4770 03d1 21060000 		.4byte	0x621
 4771 03d5 28       		.byte	0x28
 4772 03d6 0E       		.uleb128 0xe
 4773 03d7 A4270000 		.4byte	.LASF64
 4774 03db 0B       		.byte	0xb
 4775 03dc CB       		.byte	0xcb
 4776 03dd 3B060000 		.4byte	0x63b
 4777 03e1 2C       		.byte	0x2c
 4778 03e2 12       		.uleb128 0x12
 4779 03e3 5F756200 		.ascii	"_ub\000"
 4780 03e7 0B       		.byte	0xb
 4781 03e8 CE       		.byte	0xce
 4782 03e9 1E030000 		.4byte	0x31e
 4783 03ed 30       		.byte	0x30
 4784 03ee 12       		.uleb128 0x12
 4785 03ef 5F757000 		.ascii	"_up\000"
 4786 03f3 0B       		.byte	0xb
 4787 03f4 CF       		.byte	0xcf
 4788 03f5 43030000 		.4byte	0x343
 4789 03f9 38       		.byte	0x38
 4790 03fa 12       		.uleb128 0x12
 4791 03fb 5F757200 		.ascii	"_ur\000"
 4792 03ff 0B       		.byte	0xb
 4793 0400 D0       		.byte	0xd0
ARM GAS  /tmp/ccjQGkoy.s 			page 86


 4794 0401 2C000000 		.4byte	0x2c
 4795 0405 3C       		.byte	0x3c
 4796 0406 0E       		.uleb128 0xe
 4797 0407 D42B0000 		.4byte	.LASF65
 4798 040b 0B       		.byte	0xb
 4799 040c D3       		.byte	0xd3
 4800 040d 41060000 		.4byte	0x641
 4801 0411 40       		.byte	0x40
 4802 0412 0E       		.uleb128 0xe
 4803 0413 1E040000 		.4byte	.LASF66
 4804 0417 0B       		.byte	0xb
 4805 0418 D4       		.byte	0xd4
 4806 0419 51060000 		.4byte	0x651
 4807 041d 43       		.byte	0x43
 4808 041e 12       		.uleb128 0x12
 4809 041f 5F6C6200 		.ascii	"_lb\000"
 4810 0423 0B       		.byte	0xb
 4811 0424 D7       		.byte	0xd7
 4812 0425 1E030000 		.4byte	0x31e
 4813 0429 44       		.byte	0x44
 4814 042a 0E       		.uleb128 0xe
 4815 042b B42B0000 		.4byte	.LASF67
 4816 042f 0B       		.byte	0xb
 4817 0430 DA       		.byte	0xda
 4818 0431 2C000000 		.4byte	0x2c
 4819 0435 4C       		.byte	0x4c
 4820 0436 0E       		.uleb128 0xe
 4821 0437 50210000 		.4byte	.LASF68
 4822 043b 0B       		.byte	0xb
 4823 043c DB       		.byte	0xdb
 4824 043d EA000000 		.4byte	0xea
 4825 0441 50       		.byte	0x50
 4826 0442 0E       		.uleb128 0xe
 4827 0443 8F070000 		.4byte	.LASF69
 4828 0447 0B       		.byte	0xb
 4829 0448 DE       		.byte	0xde
 4830 0449 91040000 		.4byte	0x491
 4831 044d 54       		.byte	0x54
 4832 044e 0E       		.uleb128 0xe
 4833 044f 18040000 		.4byte	.LASF70
 4834 0453 0B       		.byte	0xb
 4835 0454 E2       		.byte	0xe2
 4836 0455 67010000 		.4byte	0x167
 4837 0459 58       		.byte	0x58
 4838 045a 0E       		.uleb128 0xe
 4839 045b CD010000 		.4byte	.LASF71
 4840 045f 0B       		.byte	0xb
 4841 0460 E4       		.byte	0xe4
 4842 0461 5C010000 		.4byte	0x15c
 4843 0465 5C       		.byte	0x5c
 4844 0466 0E       		.uleb128 0xe
 4845 0467 01370000 		.4byte	.LASF72
 4846 046b 0B       		.byte	0xb
 4847 046c E5       		.byte	0xe5
 4848 046d 2C000000 		.4byte	0x2c
 4849 0471 64       		.byte	0x64
 4850 0472 00       		.byte	0
ARM GAS  /tmp/ccjQGkoy.s 			page 87


 4851 0473 16       		.uleb128 0x16
 4852 0474 2C000000 		.4byte	0x2c
 4853 0478 91040000 		.4byte	0x491
 4854 047c 17       		.uleb128 0x17
 4855 047d 91040000 		.4byte	0x491
 4856 0481 17       		.uleb128 0x17
 4857 0482 72010000 		.4byte	0x172
 4858 0486 17       		.uleb128 0x17
 4859 0487 74010000 		.4byte	0x174
 4860 048b 17       		.uleb128 0x17
 4861 048c 2C000000 		.4byte	0x2c
 4862 0490 00       		.byte	0
 4863 0491 06       		.uleb128 0x6
 4864 0492 04       		.byte	0x4
 4865 0493 9C040000 		.4byte	0x49c
 4866 0497 10       		.uleb128 0x10
 4867 0498 91040000 		.4byte	0x491
 4868 049c 18       		.uleb128 0x18
 4869 049d 54080000 		.4byte	.LASF73
 4870 04a1 2804     		.2byte	0x428
 4871 04a3 0B       		.byte	0xb
 4872 04a4 6002     		.2byte	0x260
 4873 04a6 CE050000 		.4byte	0x5ce
 4874 04aa 19       		.uleb128 0x19
 4875 04ab 4A180000 		.4byte	.LASF74
 4876 04af 0B       		.byte	0xb
 4877 04b0 6202     		.2byte	0x262
 4878 04b2 2C000000 		.4byte	0x2c
 4879 04b6 00       		.byte	0
 4880 04b7 19       		.uleb128 0x19
 4881 04b8 E0120000 		.4byte	.LASF75
 4882 04bc 0B       		.byte	0xb
 4883 04bd 6702     		.2byte	0x267
 4884 04bf A8060000 		.4byte	0x6a8
 4885 04c3 04       		.byte	0x4
 4886 04c4 19       		.uleb128 0x19
 4887 04c5 970D0000 		.4byte	.LASF76
 4888 04c9 0B       		.byte	0xb
 4889 04ca 6702     		.2byte	0x267
 4890 04cc A8060000 		.4byte	0x6a8
 4891 04d0 08       		.byte	0x8
 4892 04d1 19       		.uleb128 0x19
 4893 04d2 AF0C0000 		.4byte	.LASF77
 4894 04d6 0B       		.byte	0xb
 4895 04d7 6702     		.2byte	0x267
 4896 04d9 A8060000 		.4byte	0x6a8
 4897 04dd 0C       		.byte	0xc
 4898 04de 19       		.uleb128 0x19
 4899 04df BB020000 		.4byte	.LASF78
 4900 04e3 0B       		.byte	0xb
 4901 04e4 6902     		.2byte	0x269
 4902 04e6 2C000000 		.4byte	0x2c
 4903 04ea 10       		.byte	0x10
 4904 04eb 19       		.uleb128 0x19
 4905 04ec C4240000 		.4byte	.LASF79
 4906 04f0 0B       		.byte	0xb
 4907 04f1 6A02     		.2byte	0x26a
ARM GAS  /tmp/ccjQGkoy.s 			page 88


 4908 04f3 8A080000 		.4byte	0x88a
 4909 04f7 14       		.byte	0x14
 4910 04f8 19       		.uleb128 0x19
 4911 04f9 01340000 		.4byte	.LASF80
 4912 04fd 0B       		.byte	0xb
 4913 04fe 6D02     		.2byte	0x26d
 4914 0500 2C000000 		.4byte	0x2c
 4915 0504 30       		.byte	0x30
 4916 0505 19       		.uleb128 0x19
 4917 0506 A2370000 		.4byte	.LASF81
 4918 050a 0B       		.byte	0xb
 4919 050b 6E02     		.2byte	0x26e
 4920 050d 9F080000 		.4byte	0x89f
 4921 0511 34       		.byte	0x34
 4922 0512 19       		.uleb128 0x19
 4923 0513 8F340000 		.4byte	.LASF82
 4924 0517 0B       		.byte	0xb
 4925 0518 7002     		.2byte	0x270
 4926 051a 2C000000 		.4byte	0x2c
 4927 051e 38       		.byte	0x38
 4928 051f 19       		.uleb128 0x19
 4929 0520 432C0000 		.4byte	.LASF83
 4930 0524 0B       		.byte	0xb
 4931 0525 7202     		.2byte	0x272
 4932 0527 B0080000 		.4byte	0x8b0
 4933 052b 3C       		.byte	0x3c
 4934 052c 19       		.uleb128 0x19
 4935 052d B70C0000 		.4byte	.LASF84
 4936 0531 0B       		.byte	0xb
 4937 0532 7502     		.2byte	0x275
 4938 0534 E4010000 		.4byte	0x1e4
 4939 0538 40       		.byte	0x40
 4940 0539 19       		.uleb128 0x19
 4941 053a A00C0000 		.4byte	.LASF85
 4942 053e 0B       		.byte	0xb
 4943 053f 7602     		.2byte	0x276
 4944 0541 2C000000 		.4byte	0x2c
 4945 0545 44       		.byte	0x44
 4946 0546 19       		.uleb128 0x19
 4947 0547 672F0000 		.4byte	.LASF86
 4948 054b 0B       		.byte	0xb
 4949 054c 7702     		.2byte	0x277
 4950 054e E4010000 		.4byte	0x1e4
 4951 0552 48       		.byte	0x48
 4952 0553 19       		.uleb128 0x19
 4953 0554 B6200000 		.4byte	.LASF87
 4954 0558 0B       		.byte	0xb
 4955 0559 7802     		.2byte	0x278
 4956 055b B6080000 		.4byte	0x8b6
 4957 055f 4C       		.byte	0x4c
 4958 0560 19       		.uleb128 0x19
 4959 0561 6C030000 		.4byte	.LASF88
 4960 0565 0B       		.byte	0xb
 4961 0566 7B02     		.2byte	0x27b
 4962 0568 2C000000 		.4byte	0x2c
 4963 056c 50       		.byte	0x50
 4964 056d 19       		.uleb128 0x19
ARM GAS  /tmp/ccjQGkoy.s 			page 89


 4965 056e 1C160000 		.4byte	.LASF89
 4966 0572 0B       		.byte	0xb
 4967 0573 7C02     		.2byte	0x27c
 4968 0575 74010000 		.4byte	0x174
 4969 0579 54       		.byte	0x54
 4970 057a 19       		.uleb128 0x19
 4971 057b 88170000 		.4byte	.LASF90
 4972 057f 0B       		.byte	0xb
 4973 0580 9F02     		.2byte	0x29f
 4974 0582 68080000 		.4byte	0x868
 4975 0586 58       		.byte	0x58
 4976 0587 1A       		.uleb128 0x1a
 4977 0588 D6010000 		.4byte	.LASF50
 4978 058c 0B       		.byte	0xb
 4979 058d A302     		.2byte	0x2a3
 4980 058f 01030000 		.4byte	0x301
 4981 0593 4801     		.2byte	0x148
 4982 0595 1A       		.uleb128 0x1a
 4983 0596 78290000 		.4byte	.LASF91
 4984 059a 0B       		.byte	0xb
 4985 059b A402     		.2byte	0x2a4
 4986 059d C3020000 		.4byte	0x2c3
 4987 05a1 4C01     		.2byte	0x14c
 4988 05a3 1A       		.uleb128 0x1a
 4989 05a4 93030000 		.4byte	.LASF92
 4990 05a8 0B       		.byte	0xb
 4991 05a9 A802     		.2byte	0x2a8
 4992 05ab C7080000 		.4byte	0x8c7
 4993 05af DC02     		.2byte	0x2dc
 4994 05b1 1A       		.uleb128 0x1a
 4995 05b2 102C0000 		.4byte	.LASF93
 4996 05b6 0B       		.byte	0xb
 4997 05b7 AD02     		.2byte	0x2ad
 4998 05b9 6D060000 		.4byte	0x66d
 4999 05bd E002     		.2byte	0x2e0
 5000 05bf 1A       		.uleb128 0x1a
 5001 05c0 DD080000 		.4byte	.LASF94
 5002 05c4 0B       		.byte	0xb
 5003 05c5 AF02     		.2byte	0x2af
 5004 05c7 D3080000 		.4byte	0x8d3
 5005 05cb EC02     		.2byte	0x2ec
 5006 05cd 00       		.byte	0
 5007 05ce 06       		.uleb128 0x6
 5008 05cf 04       		.byte	0x4
 5009 05d0 73040000 		.4byte	0x473
 5010 05d4 16       		.uleb128 0x16
 5011 05d5 2C000000 		.4byte	0x2c
 5012 05d9 F2050000 		.4byte	0x5f2
 5013 05dd 17       		.uleb128 0x17
 5014 05de 91040000 		.4byte	0x491
 5015 05e2 17       		.uleb128 0x17
 5016 05e3 72010000 		.4byte	0x172
 5017 05e7 17       		.uleb128 0x17
 5018 05e8 F2050000 		.4byte	0x5f2
 5019 05ec 17       		.uleb128 0x17
 5020 05ed 2C000000 		.4byte	0x2c
 5021 05f1 00       		.byte	0
ARM GAS  /tmp/ccjQGkoy.s 			page 90


 5022 05f2 06       		.uleb128 0x6
 5023 05f3 04       		.byte	0x4
 5024 05f4 81010000 		.4byte	0x181
 5025 05f8 04       		.uleb128 0x4
 5026 05f9 F2050000 		.4byte	0x5f2
 5027 05fd 06       		.uleb128 0x6
 5028 05fe 04       		.byte	0x4
 5029 05ff D4050000 		.4byte	0x5d4
 5030 0603 16       		.uleb128 0x16
 5031 0604 F5000000 		.4byte	0xf5
 5032 0608 21060000 		.4byte	0x621
 5033 060c 17       		.uleb128 0x17
 5034 060d 91040000 		.4byte	0x491
 5035 0611 17       		.uleb128 0x17
 5036 0612 72010000 		.4byte	0x172
 5037 0616 17       		.uleb128 0x17
 5038 0617 F5000000 		.4byte	0xf5
 5039 061b 17       		.uleb128 0x17
 5040 061c 2C000000 		.4byte	0x2c
 5041 0620 00       		.byte	0
 5042 0621 06       		.uleb128 0x6
 5043 0622 04       		.byte	0x4
 5044 0623 03060000 		.4byte	0x603
 5045 0627 16       		.uleb128 0x16
 5046 0628 2C000000 		.4byte	0x2c
 5047 062c 3B060000 		.4byte	0x63b
 5048 0630 17       		.uleb128 0x17
 5049 0631 91040000 		.4byte	0x491
 5050 0635 17       		.uleb128 0x17
 5051 0636 72010000 		.4byte	0x172
 5052 063a 00       		.byte	0
 5053 063b 06       		.uleb128 0x6
 5054 063c 04       		.byte	0x4
 5055 063d 27060000 		.4byte	0x627
 5056 0641 0B       		.uleb128 0xb
 5057 0642 6C000000 		.4byte	0x6c
 5058 0646 51060000 		.4byte	0x651
 5059 064a 0C       		.uleb128 0xc
 5060 064b 48000000 		.4byte	0x48
 5061 064f 02       		.byte	0x2
 5062 0650 00       		.byte	0
 5063 0651 0B       		.uleb128 0xb
 5064 0652 6C000000 		.4byte	0x6c
 5065 0656 61060000 		.4byte	0x661
 5066 065a 0C       		.uleb128 0xc
 5067 065b 48000000 		.4byte	0x48
 5068 065f 00       		.byte	0
 5069 0660 00       		.byte	0
 5070 0661 08       		.uleb128 0x8
 5071 0662 003A0000 		.4byte	.LASF95
 5072 0666 0B       		.byte	0xb
 5073 0667 1F01     		.2byte	0x11f
 5074 0669 49030000 		.4byte	0x349
 5075 066d 1B       		.uleb128 0x1b
 5076 066e ED270000 		.4byte	.LASF96
 5077 0672 0C       		.byte	0xc
 5078 0673 0B       		.byte	0xb
ARM GAS  /tmp/ccjQGkoy.s 			page 91


 5079 0674 2301     		.2byte	0x123
 5080 0676 A2060000 		.4byte	0x6a2
 5081 067a 19       		.uleb128 0x19
 5082 067b DB190000 		.4byte	.LASF30
 5083 067f 0B       		.byte	0xb
 5084 0680 2501     		.2byte	0x125
 5085 0682 A2060000 		.4byte	0x6a2
 5086 0686 00       		.byte	0
 5087 0687 19       		.uleb128 0x19
 5088 0688 FE170000 		.4byte	.LASF97
 5089 068c 0B       		.byte	0xb
 5090 068d 2601     		.2byte	0x126
 5091 068f 2C000000 		.4byte	0x2c
 5092 0693 04       		.byte	0x4
 5093 0694 19       		.uleb128 0x19
 5094 0695 BE240000 		.4byte	.LASF98
 5095 0699 0B       		.byte	0xb
 5096 069a 2701     		.2byte	0x127
 5097 069c A8060000 		.4byte	0x6a8
 5098 06a0 08       		.byte	0x8
 5099 06a1 00       		.byte	0
 5100 06a2 06       		.uleb128 0x6
 5101 06a3 04       		.byte	0x4
 5102 06a4 6D060000 		.4byte	0x66d
 5103 06a8 06       		.uleb128 0x6
 5104 06a9 04       		.byte	0x4
 5105 06aa 61060000 		.4byte	0x661
 5106 06ae 1B       		.uleb128 0x1b
 5107 06af 003D0000 		.4byte	.LASF99
 5108 06b3 0E       		.byte	0xe
 5109 06b4 0B       		.byte	0xb
 5110 06b5 3F01     		.2byte	0x13f
 5111 06b7 E3060000 		.4byte	0x6e3
 5112 06bb 19       		.uleb128 0x19
 5113 06bc 3C1F0000 		.4byte	.LASF100
 5114 06c0 0B       		.byte	0xb
 5115 06c1 4001     		.2byte	0x140
 5116 06c3 E3060000 		.4byte	0x6e3
 5117 06c7 00       		.byte	0
 5118 06c8 19       		.uleb128 0x19
 5119 06c9 D8100000 		.4byte	.LASF101
 5120 06cd 0B       		.byte	0xb
 5121 06ce 4101     		.2byte	0x141
 5122 06d0 E3060000 		.4byte	0x6e3
 5123 06d4 06       		.byte	0x6
 5124 06d5 19       		.uleb128 0x19
 5125 06d6 C2050000 		.4byte	.LASF102
 5126 06da 0B       		.byte	0xb
 5127 06db 4201     		.2byte	0x142
 5128 06dd 90000000 		.4byte	0x90
 5129 06e1 0C       		.byte	0xc
 5130 06e2 00       		.byte	0
 5131 06e3 0B       		.uleb128 0xb
 5132 06e4 90000000 		.4byte	0x90
 5133 06e8 F3060000 		.4byte	0x6f3
 5134 06ec 0C       		.uleb128 0xc
 5135 06ed 48000000 		.4byte	0x48
ARM GAS  /tmp/ccjQGkoy.s 			page 92


 5136 06f1 02       		.byte	0x2
 5137 06f2 00       		.byte	0
 5138 06f3 1C       		.uleb128 0x1c
 5139 06f4 D0       		.byte	0xd0
 5140 06f5 0B       		.byte	0xb
 5141 06f6 8002     		.2byte	0x280
 5142 06f8 F4070000 		.4byte	0x7f4
 5143 06fc 19       		.uleb128 0x19
 5144 06fd AA0B0000 		.4byte	.LASF103
 5145 0701 0B       		.byte	0xb
 5146 0702 8202     		.2byte	0x282
 5147 0704 48000000 		.4byte	0x48
 5148 0708 00       		.byte	0
 5149 0709 19       		.uleb128 0x19
 5150 070a D01E0000 		.4byte	.LASF104
 5151 070e 0B       		.byte	0xb
 5152 070f 8302     		.2byte	0x283
 5153 0711 74010000 		.4byte	0x174
 5154 0715 04       		.byte	0x4
 5155 0716 19       		.uleb128 0x19
 5156 0717 16220000 		.4byte	.LASF105
 5157 071b 0B       		.byte	0xb
 5158 071c 8402     		.2byte	0x284
 5159 071e F4070000 		.4byte	0x7f4
 5160 0722 08       		.byte	0x8
 5161 0723 19       		.uleb128 0x19
 5162 0724 AA140000 		.4byte	.LASF106
 5163 0728 0B       		.byte	0xb
 5164 0729 8502     		.2byte	0x285
 5165 072b FA010000 		.4byte	0x1fa
 5166 072f 24       		.byte	0x24
 5167 0730 19       		.uleb128 0x19
 5168 0731 02320000 		.4byte	.LASF107
 5169 0735 0B       		.byte	0xb
 5170 0736 8602     		.2byte	0x286
 5171 0738 2C000000 		.4byte	0x2c
 5172 073c 48       		.byte	0x48
 5173 073d 19       		.uleb128 0x19
 5174 073e 0E250000 		.4byte	.LASF108
 5175 0742 0B       		.byte	0xb
 5176 0743 8702     		.2byte	0x287
 5177 0745 CD000000 		.4byte	0xcd
 5178 0749 50       		.byte	0x50
 5179 074a 19       		.uleb128 0x19
 5180 074b D83B0000 		.4byte	.LASF109
 5181 074f 0B       		.byte	0xb
 5182 0750 8802     		.2byte	0x288
 5183 0752 AE060000 		.4byte	0x6ae
 5184 0756 58       		.byte	0x58
 5185 0757 19       		.uleb128 0x19
 5186 0758 032C0000 		.4byte	.LASF110
 5187 075c 0B       		.byte	0xb
 5188 075d 8902     		.2byte	0x289
 5189 075f 5C010000 		.4byte	0x15c
 5190 0763 68       		.byte	0x68
 5191 0764 19       		.uleb128 0x19
 5192 0765 0A090000 		.4byte	.LASF111
ARM GAS  /tmp/ccjQGkoy.s 			page 93


 5193 0769 0B       		.byte	0xb
 5194 076a 8A02     		.2byte	0x28a
 5195 076c 5C010000 		.4byte	0x15c
 5196 0770 70       		.byte	0x70
 5197 0771 19       		.uleb128 0x19
 5198 0772 F9230000 		.4byte	.LASF112
 5199 0776 0B       		.byte	0xb
 5200 0777 8B02     		.2byte	0x28b
 5201 0779 5C010000 		.4byte	0x15c
 5202 077d 78       		.byte	0x78
 5203 077e 19       		.uleb128 0x19
 5204 077f C1210000 		.4byte	.LASF113
 5205 0783 0B       		.byte	0xb
 5206 0784 8C02     		.2byte	0x28c
 5207 0786 04080000 		.4byte	0x804
 5208 078a 80       		.byte	0x80
 5209 078b 19       		.uleb128 0x19
 5210 078c 3A1A0000 		.4byte	.LASF114
 5211 0790 0B       		.byte	0xb
 5212 0791 8D02     		.2byte	0x28d
 5213 0793 14080000 		.4byte	0x814
 5214 0797 88       		.byte	0x88
 5215 0798 19       		.uleb128 0x19
 5216 0799 662A0000 		.4byte	.LASF115
 5217 079d 0B       		.byte	0xb
 5218 079e 8E02     		.2byte	0x28e
 5219 07a0 2C000000 		.4byte	0x2c
 5220 07a4 A0       		.byte	0xa0
 5221 07a5 19       		.uleb128 0x19
 5222 07a6 5C120000 		.4byte	.LASF116
 5223 07aa 0B       		.byte	0xb
 5224 07ab 8F02     		.2byte	0x28f
 5225 07ad 5C010000 		.4byte	0x15c
 5226 07b1 A4       		.byte	0xa4
 5227 07b2 19       		.uleb128 0x19
 5228 07b3 E0160000 		.4byte	.LASF117
 5229 07b7 0B       		.byte	0xb
 5230 07b8 9002     		.2byte	0x290
 5231 07ba 5C010000 		.4byte	0x15c
 5232 07be AC       		.byte	0xac
 5233 07bf 19       		.uleb128 0x19
 5234 07c0 220E0000 		.4byte	.LASF118
 5235 07c4 0B       		.byte	0xb
 5236 07c5 9102     		.2byte	0x291
 5237 07c7 5C010000 		.4byte	0x15c
 5238 07cb B4       		.byte	0xb4
 5239 07cc 19       		.uleb128 0x19
 5240 07cd DB1C0000 		.4byte	.LASF119
 5241 07d1 0B       		.byte	0xb
 5242 07d2 9202     		.2byte	0x292
 5243 07d4 5C010000 		.4byte	0x15c
 5244 07d8 BC       		.byte	0xbc
 5245 07d9 19       		.uleb128 0x19
 5246 07da 66220000 		.4byte	.LASF120
 5247 07de 0B       		.byte	0xb
 5248 07df 9302     		.2byte	0x293
 5249 07e1 5C010000 		.4byte	0x15c
ARM GAS  /tmp/ccjQGkoy.s 			page 94


 5250 07e5 C4       		.byte	0xc4
 5251 07e6 19       		.uleb128 0x19
 5252 07e7 C02D0000 		.4byte	.LASF121
 5253 07eb 0B       		.byte	0xb
 5254 07ec 9402     		.2byte	0x294
 5255 07ee 2C000000 		.4byte	0x2c
 5256 07f2 CC       		.byte	0xcc
 5257 07f3 00       		.byte	0
 5258 07f4 0B       		.uleb128 0xb
 5259 07f5 7A010000 		.4byte	0x17a
 5260 07f9 04080000 		.4byte	0x804
 5261 07fd 0C       		.uleb128 0xc
 5262 07fe 48000000 		.4byte	0x48
 5263 0802 19       		.byte	0x19
 5264 0803 00       		.byte	0
 5265 0804 0B       		.uleb128 0xb
 5266 0805 7A010000 		.4byte	0x17a
 5267 0809 14080000 		.4byte	0x814
 5268 080d 0C       		.uleb128 0xc
 5269 080e 48000000 		.4byte	0x48
 5270 0812 07       		.byte	0x7
 5271 0813 00       		.byte	0
 5272 0814 0B       		.uleb128 0xb
 5273 0815 7A010000 		.4byte	0x17a
 5274 0819 24080000 		.4byte	0x824
 5275 081d 0C       		.uleb128 0xc
 5276 081e 48000000 		.4byte	0x48
 5277 0822 17       		.byte	0x17
 5278 0823 00       		.byte	0
 5279 0824 1C       		.uleb128 0x1c
 5280 0825 F0       		.byte	0xf0
 5281 0826 0B       		.byte	0xb
 5282 0827 9902     		.2byte	0x299
 5283 0829 48080000 		.4byte	0x848
 5284 082d 19       		.uleb128 0x19
 5285 082e 01250000 		.4byte	.LASF122
 5286 0832 0B       		.byte	0xb
 5287 0833 9C02     		.2byte	0x29c
 5288 0835 48080000 		.4byte	0x848
 5289 0839 00       		.byte	0
 5290 083a 19       		.uleb128 0x19
 5291 083b E7120000 		.4byte	.LASF123
 5292 083f 0B       		.byte	0xb
 5293 0840 9D02     		.2byte	0x29d
 5294 0842 58080000 		.4byte	0x858
 5295 0846 78       		.byte	0x78
 5296 0847 00       		.byte	0
 5297 0848 0B       		.uleb128 0xb
 5298 0849 43030000 		.4byte	0x343
 5299 084d 58080000 		.4byte	0x858
 5300 0851 0C       		.uleb128 0xc
 5301 0852 48000000 		.4byte	0x48
 5302 0856 1D       		.byte	0x1d
 5303 0857 00       		.byte	0
 5304 0858 0B       		.uleb128 0xb
 5305 0859 48000000 		.4byte	0x48
 5306 085d 68080000 		.4byte	0x868
ARM GAS  /tmp/ccjQGkoy.s 			page 95


 5307 0861 0C       		.uleb128 0xc
 5308 0862 48000000 		.4byte	0x48
 5309 0866 1D       		.byte	0x1d
 5310 0867 00       		.byte	0
 5311 0868 1D       		.uleb128 0x1d
 5312 0869 F0       		.byte	0xf0
 5313 086a 0B       		.byte	0xb
 5314 086b 7E02     		.2byte	0x27e
 5315 086d 8A080000 		.4byte	0x88a
 5316 0871 1E       		.uleb128 0x1e
 5317 0872 54080000 		.4byte	.LASF73
 5318 0876 0B       		.byte	0xb
 5319 0877 9502     		.2byte	0x295
 5320 0879 F3060000 		.4byte	0x6f3
 5321 087d 1E       		.uleb128 0x1e
 5322 087e 43040000 		.4byte	.LASF124
 5323 0882 0B       		.byte	0xb
 5324 0883 9E02     		.2byte	0x29e
 5325 0885 24080000 		.4byte	0x824
 5326 0889 00       		.byte	0
 5327 088a 0B       		.uleb128 0xb
 5328 088b 7A010000 		.4byte	0x17a
 5329 088f 9A080000 		.4byte	0x89a
 5330 0893 0C       		.uleb128 0xc
 5331 0894 48000000 		.4byte	0x48
 5332 0898 18       		.byte	0x18
 5333 0899 00       		.byte	0
 5334 089a 07       		.uleb128 0x7
 5335 089b 182C0000 		.4byte	.LASF126
 5336 089f 06       		.uleb128 0x6
 5337 08a0 04       		.byte	0x4
 5338 08a1 9A080000 		.4byte	0x89a
 5339 08a5 1F       		.uleb128 0x1f
 5340 08a6 B0080000 		.4byte	0x8b0
 5341 08aa 17       		.uleb128 0x17
 5342 08ab 91040000 		.4byte	0x491
 5343 08af 00       		.byte	0
 5344 08b0 06       		.uleb128 0x6
 5345 08b1 04       		.byte	0x4
 5346 08b2 A5080000 		.4byte	0x8a5
 5347 08b6 06       		.uleb128 0x6
 5348 08b7 04       		.byte	0x4
 5349 08b8 E4010000 		.4byte	0x1e4
 5350 08bc 1F       		.uleb128 0x1f
 5351 08bd C7080000 		.4byte	0x8c7
 5352 08c1 17       		.uleb128 0x17
 5353 08c2 2C000000 		.4byte	0x2c
 5354 08c6 00       		.byte	0
 5355 08c7 06       		.uleb128 0x6
 5356 08c8 04       		.byte	0x4
 5357 08c9 CD080000 		.4byte	0x8cd
 5358 08cd 06       		.uleb128 0x6
 5359 08ce 04       		.byte	0x4
 5360 08cf BC080000 		.4byte	0x8bc
 5361 08d3 0B       		.uleb128 0xb
 5362 08d4 61060000 		.4byte	0x661
 5363 08d8 E3080000 		.4byte	0x8e3
ARM GAS  /tmp/ccjQGkoy.s 			page 96


 5364 08dc 0C       		.uleb128 0xc
 5365 08dd 48000000 		.4byte	0x48
 5366 08e1 02       		.byte	0x2
 5367 08e2 00       		.byte	0
 5368 08e3 20       		.uleb128 0x20
 5369 08e4 8C2B0000 		.4byte	.LASF127
 5370 08e8 0B       		.byte	0xb
 5371 08e9 2E03     		.2byte	0x32e
 5372 08eb 91040000 		.4byte	0x491
 5373 08ef 20       		.uleb128 0x20
 5374 08f0 C9330000 		.4byte	.LASF128
 5375 08f4 0B       		.byte	0xb
 5376 08f5 2F03     		.2byte	0x32f
 5377 08f7 97040000 		.4byte	0x497
 5378 08fb 02       		.uleb128 0x2
 5379 08fc 08       		.byte	0x8
 5380 08fd 04       		.byte	0x4
 5381 08fe 3E2D0000 		.4byte	.LASF129
 5382 0902 21       		.uleb128 0x21
 5383 0903 3D230000 		.4byte	.LASF1142
 5384 0907 05       		.byte	0x5
 5385 0908 01       		.byte	0x1
 5386 0909 5A000000 		.4byte	0x5a
 5387 090d 0C       		.byte	0xc
 5388 090e 8202     		.2byte	0x282
 5389 0910 2D090000 		.4byte	0x92d
 5390 0914 22       		.uleb128 0x22
 5391 0915 63200000 		.4byte	.LASF130
 5392 0919 7F       		.sleb128 -1
 5393 091a 23       		.uleb128 0x23
 5394 091b 85030000 		.4byte	.LASF131
 5395 091f 00       		.byte	0
 5396 0920 23       		.uleb128 0x23
 5397 0921 4B010000 		.4byte	.LASF132
 5398 0925 01       		.byte	0x1
 5399 0926 23       		.uleb128 0x23
 5400 0927 A7340000 		.4byte	.LASF133
 5401 092b 02       		.byte	0x2
 5402 092c 00       		.byte	0
 5403 092d 20       		.uleb128 0x20
 5404 092e 350D0000 		.4byte	.LASF134
 5405 0932 0C       		.byte	0xc
 5406 0933 8D02     		.2byte	0x28d
 5407 0935 02090000 		.4byte	0x902
 5408 0939 05       		.uleb128 0x5
 5409 093a 171E0000 		.4byte	.LASF135
 5410 093e 0D       		.byte	0xd
 5411 093f 14       		.byte	0x14
 5412 0940 4F000000 		.4byte	0x4f
 5413 0944 05       		.uleb128 0x5
 5414 0945 EA140000 		.4byte	.LASF136
 5415 0949 0D       		.byte	0xd
 5416 094a 18       		.byte	0x18
 5417 094b 61000000 		.4byte	0x61
 5418 094f 10       		.uleb128 0x10
 5419 0950 44090000 		.4byte	0x944
 5420 0954 05       		.uleb128 0x5
ARM GAS  /tmp/ccjQGkoy.s 			page 97


 5421 0955 9B1F0000 		.4byte	.LASF137
 5422 0959 0D       		.byte	0xd
 5423 095a 20       		.byte	0x20
 5424 095b 73000000 		.4byte	0x73
 5425 095f 05       		.uleb128 0x5
 5426 0960 FB020000 		.4byte	.LASF138
 5427 0964 0D       		.byte	0xd
 5428 0965 24       		.byte	0x24
 5429 0966 85000000 		.4byte	0x85
 5430 096a 04       		.uleb128 0x4
 5431 096b 5F090000 		.4byte	0x95f
 5432 096f 05       		.uleb128 0x5
 5433 0970 8F050000 		.4byte	.LASF139
 5434 0974 0D       		.byte	0xd
 5435 0975 2C       		.byte	0x2c
 5436 0976 97000000 		.4byte	0x97
 5437 097a 04       		.uleb128 0x4
 5438 097b 6F090000 		.4byte	0x96f
 5439 097f 05       		.uleb128 0x5
 5440 0980 84250000 		.4byte	.LASF140
 5441 0984 0D       		.byte	0xd
 5442 0985 30       		.byte	0x30
 5443 0986 A9000000 		.4byte	0xa9
 5444 098a 04       		.uleb128 0x4
 5445 098b 7F090000 		.4byte	0x97f
 5446 098f 05       		.uleb128 0x5
 5447 0990 DD0F0000 		.4byte	.LASF141
 5448 0994 0D       		.byte	0xd
 5449 0995 3C       		.byte	0x3c
 5450 0996 C2000000 		.4byte	0xc2
 5451 099a 05       		.uleb128 0x5
 5452 099b 65130000 		.4byte	.LASF142
 5453 099f 0E       		.byte	0xe
 5454 09a0 45       		.byte	0x45
 5455 09a1 7F090000 		.4byte	0x97f
 5456 09a5 05       		.uleb128 0x5
 5457 09a6 641C0000 		.4byte	.LASF143
 5458 09aa 0E       		.byte	0xe
 5459 09ab 48       		.byte	0x48
 5460 09ac 44090000 		.4byte	0x944
 5461 09b0 05       		.uleb128 0x5
 5462 09b1 C0330000 		.4byte	.LASF144
 5463 09b5 0E       		.byte	0xe
 5464 09b6 49       		.byte	0x49
 5465 09b7 44090000 		.4byte	0x944
 5466 09bb 05       		.uleb128 0x5
 5467 09bc A81B0000 		.4byte	.LASF145
 5468 09c0 0E       		.byte	0xe
 5469 09c1 4A       		.byte	0x4a
 5470 09c2 44090000 		.4byte	0x944
 5471 09c6 05       		.uleb128 0x5
 5472 09c7 C61E0000 		.4byte	.LASF146
 5473 09cb 0E       		.byte	0xe
 5474 09cc 4B       		.byte	0x4b
 5475 09cd 44090000 		.4byte	0x944
 5476 09d1 05       		.uleb128 0x5
 5477 09d2 80090000 		.4byte	.LASF147
ARM GAS  /tmp/ccjQGkoy.s 			page 98


 5478 09d6 0E       		.byte	0xe
 5479 09d7 4C       		.byte	0x4c
 5480 09d8 7F090000 		.4byte	0x97f
 5481 09dc 05       		.uleb128 0x5
 5482 09dd CF000000 		.4byte	.LASF148
 5483 09e1 0E       		.byte	0xe
 5484 09e2 4D       		.byte	0x4d
 5485 09e3 6F090000 		.4byte	0x96f
 5486 09e7 05       		.uleb128 0x5
 5487 09e8 6B0C0000 		.4byte	.LASF149
 5488 09ec 0E       		.byte	0xe
 5489 09ed 4E       		.byte	0x4e
 5490 09ee 6F090000 		.4byte	0x96f
 5491 09f2 05       		.uleb128 0x5
 5492 09f3 1E260000 		.4byte	.LASF150
 5493 09f7 0E       		.byte	0xe
 5494 09f8 4F       		.byte	0x4f
 5495 09f9 7F090000 		.4byte	0x97f
 5496 09fd 05       		.uleb128 0x5
 5497 09fe AA370000 		.4byte	.LASF151
 5498 0a02 0E       		.byte	0xe
 5499 0a03 50       		.byte	0x50
 5500 0a04 7F090000 		.4byte	0x97f
 5501 0a08 05       		.uleb128 0x5
 5502 0a09 A32A0000 		.4byte	.LASF152
 5503 0a0d 0E       		.byte	0xe
 5504 0a0e 51       		.byte	0x51
 5505 0a0f 6F090000 		.4byte	0x96f
 5506 0a13 05       		.uleb128 0x5
 5507 0a14 AE050000 		.4byte	.LASF153
 5508 0a18 0F       		.byte	0xf
 5509 0a19 33       		.byte	0x33
 5510 0a1a 7F090000 		.4byte	0x97f
 5511 0a1e 04       		.uleb128 0x4
 5512 0a1f 130A0000 		.4byte	0xa13
 5513 0a23 05       		.uleb128 0x5
 5514 0a24 25050000 		.4byte	.LASF154
 5515 0a28 0F       		.byte	0xf
 5516 0a29 3F       		.byte	0x3f
 5517 0a2a 2E0A0000 		.4byte	0xa2e
 5518 0a2e 11       		.uleb128 0x11
 5519 0a2f 060E0000 		.4byte	.LASF155
 5520 0a33 48       		.byte	0x48
 5521 0a34 10       		.byte	0x10
 5522 0a35 C2       		.byte	0xc2
 5523 0a36 330B0000 		.4byte	0xb33
 5524 0a3a 0E       		.uleb128 0xe
 5525 0a3b E11A0000 		.4byte	.LASF156
 5526 0a3f 10       		.byte	0x10
 5527 0a40 C3       		.byte	0xc3
 5528 0a41 3E0B0000 		.4byte	0xb3e
 5529 0a45 00       		.byte	0
 5530 0a46 0E       		.uleb128 0xe
 5531 0a47 56150000 		.4byte	.LASF157
 5532 0a4b 10       		.byte	0x10
 5533 0a4c C5       		.byte	0xc5
 5534 0a4d 3E0B0000 		.4byte	0xb3e
ARM GAS  /tmp/ccjQGkoy.s 			page 99


 5535 0a51 04       		.byte	0x4
 5536 0a52 0E       		.uleb128 0xe
 5537 0a53 89190000 		.4byte	.LASF158
 5538 0a57 10       		.byte	0x10
 5539 0a58 C7       		.byte	0xc7
 5540 0a59 D1090000 		.4byte	0x9d1
 5541 0a5d 08       		.byte	0x8
 5542 0a5e 0E       		.uleb128 0xe
 5543 0a5f 1E0F0000 		.4byte	.LASF159
 5544 0a63 10       		.byte	0x10
 5545 0a64 C8       		.byte	0xc8
 5546 0a65 17120000 		.4byte	0x1217
 5547 0a69 0C       		.byte	0xc
 5548 0a6a 0E       		.uleb128 0xe
 5549 0a6b B9030000 		.4byte	.LASF160
 5550 0a6f 10       		.byte	0x10
 5551 0a70 CA       		.byte	0xca
 5552 0a71 3E0B0000 		.4byte	0xb3e
 5553 0a75 10       		.byte	0x10
 5554 0a76 0E       		.uleb128 0xe
 5555 0a77 EC380000 		.4byte	.LASF161
 5556 0a7b 10       		.byte	0x10
 5557 0a7c CB       		.byte	0xcb
 5558 0a7d 3E0B0000 		.4byte	0xb3e
 5559 0a81 14       		.byte	0x14
 5560 0a82 0E       		.uleb128 0xe
 5561 0a83 88340000 		.4byte	.LASF162
 5562 0a87 10       		.byte	0x10
 5563 0a88 D2       		.byte	0xd2
 5564 0a89 F2050000 		.4byte	0x5f2
 5565 0a8d 18       		.byte	0x18
 5566 0a8e 0E       		.uleb128 0xe
 5567 0a8f 5F3D0000 		.4byte	.LASF163
 5568 0a93 10       		.byte	0x10
 5569 0a94 DD       		.byte	0xdd
 5570 0a95 B0090000 		.4byte	0x9b0
 5571 0a99 1C       		.byte	0x1c
 5572 0a9a 0E       		.uleb128 0xe
 5573 0a9b 97320000 		.4byte	.LASF164
 5574 0a9f 10       		.byte	0x10
 5575 0aa0 E1       		.byte	0xe1
 5576 0aa1 A5090000 		.4byte	0x9a5
 5577 0aa5 1D       		.byte	0x1d
 5578 0aa6 0E       		.uleb128 0xe
 5579 0aa7 79230000 		.4byte	.LASF165
 5580 0aab 10       		.byte	0x10
 5581 0aac E6       		.byte	0xe6
 5582 0aad BB090000 		.4byte	0x9bb
 5583 0ab1 1E       		.byte	0x1e
 5584 0ab2 0E       		.uleb128 0xe
 5585 0ab3 2F200000 		.4byte	.LASF166
 5586 0ab7 10       		.byte	0x10
 5587 0ab8 EC       		.byte	0xec
 5588 0ab9 C6090000 		.4byte	0x9c6
 5589 0abd 1F       		.byte	0x1f
 5590 0abe 0E       		.uleb128 0xe
 5591 0abf 44200000 		.4byte	.LASF167
ARM GAS  /tmp/ccjQGkoy.s 			page 100


 5592 0ac3 10       		.byte	0x10
 5593 0ac4 F3       		.byte	0xf3
 5594 0ac5 1E0A0000 		.4byte	0xa1e
 5595 0ac9 20       		.byte	0x20
 5596 0aca 24       		.uleb128 0x24
 5597 0acb 705F7500 		.ascii	"p_u\000"
 5598 0acf 10       		.byte	0x10
 5599 0ad0 3101     		.2byte	0x131
 5600 0ad2 97130000 		.4byte	0x1397
 5601 0ad6 24       		.byte	0x24
 5602 0ad7 19       		.uleb128 0x19
 5603 0ad8 C7070000 		.4byte	.LASF168
 5604 0adc 10       		.byte	0x10
 5605 0add 3601     		.2byte	0x136
 5606 0adf 440B0000 		.4byte	0xb44
 5607 0ae3 28       		.byte	0x28
 5608 0ae4 19       		.uleb128 0x19
 5609 0ae5 E5200000 		.4byte	.LASF169
 5610 0ae9 10       		.byte	0x10
 5611 0aea 3C01     		.2byte	0x13c
 5612 0aec 680B0000 		.4byte	0xb68
 5613 0af0 2C       		.byte	0x2c
 5614 0af1 19       		.uleb128 0x19
 5615 0af2 A40B0000 		.4byte	.LASF170
 5616 0af6 10       		.byte	0x10
 5617 0af7 4001     		.2byte	0x140
 5618 0af9 DC090000 		.4byte	0x9dc
 5619 0afd 34       		.byte	0x34
 5620 0afe 19       		.uleb128 0x19
 5621 0aff 7F2F0000 		.4byte	.LASF171
 5622 0b03 10       		.byte	0x10
 5623 0b04 4601     		.2byte	0x146
 5624 0b06 F2090000 		.4byte	0x9f2
 5625 0b0a 38       		.byte	0x38
 5626 0b0b 19       		.uleb128 0x19
 5627 0b0c 51330000 		.4byte	.LASF172
 5628 0b10 10       		.byte	0x10
 5629 0b11 4D01     		.2byte	0x14d
 5630 0b13 56140000 		.4byte	0x1456
 5631 0b17 3C       		.byte	0x3c
 5632 0b18 19       		.uleb128 0x19
 5633 0b19 EC2C0000 		.4byte	.LASF173
 5634 0b1d 10       		.byte	0x10
 5635 0b1e 5101     		.2byte	0x151
 5636 0b20 D1090000 		.4byte	0x9d1
 5637 0b24 40       		.byte	0x40
 5638 0b25 19       		.uleb128 0x19
 5639 0b26 B01B0000 		.4byte	.LASF174
 5640 0b2a 10       		.byte	0x10
 5641 0b2b 5801     		.2byte	0x158
 5642 0b2d 72010000 		.4byte	0x172
 5643 0b31 44       		.byte	0x44
 5644 0b32 00       		.byte	0
 5645 0b33 05       		.uleb128 0x5
 5646 0b34 8F390000 		.4byte	.LASF175
 5647 0b38 0F       		.byte	0xf
 5648 0b39 44       		.byte	0x44
ARM GAS  /tmp/ccjQGkoy.s 			page 101


 5649 0b3a 3E0B0000 		.4byte	0xb3e
 5650 0b3e 06       		.uleb128 0x6
 5651 0b3f 04       		.byte	0x4
 5652 0b40 230A0000 		.4byte	0xa23
 5653 0b44 05       		.uleb128 0x5
 5654 0b45 03080000 		.4byte	.LASF176
 5655 0b49 0F       		.byte	0xf
 5656 0b4a 49       		.byte	0x49
 5657 0b4b 4F0B0000 		.4byte	0xb4f
 5658 0b4f 11       		.uleb128 0x11
 5659 0b50 673D0000 		.4byte	.LASF177
 5660 0b54 04       		.byte	0x4
 5661 0b55 10       		.byte	0x10
 5662 0b56 B0       		.byte	0xb0
 5663 0b57 680B0000 		.4byte	0xb68
 5664 0b5b 0E       		.uleb128 0xe
 5665 0b5c E11A0000 		.4byte	.LASF156
 5666 0b60 10       		.byte	0x10
 5667 0b61 B1       		.byte	0xb1
 5668 0b62 3E0B0000 		.4byte	0xb3e
 5669 0b66 00       		.byte	0
 5670 0b67 00       		.byte	0
 5671 0b68 05       		.uleb128 0x5
 5672 0b69 0E230000 		.4byte	.LASF178
 5673 0b6d 0F       		.byte	0xf
 5674 0b6e 50       		.byte	0x50
 5675 0b6f 730B0000 		.4byte	0xb73
 5676 0b73 11       		.uleb128 0x11
 5677 0b74 74030000 		.4byte	.LASF179
 5678 0b78 08       		.byte	0x8
 5679 0b79 10       		.byte	0x10
 5680 0b7a B7       		.byte	0xb7
 5681 0b7b 980B0000 		.4byte	0xb98
 5682 0b7f 0E       		.uleb128 0xe
 5683 0b80 E11A0000 		.4byte	.LASF156
 5684 0b84 10       		.byte	0x10
 5685 0b85 B8       		.byte	0xb8
 5686 0b86 3E0B0000 		.4byte	0xb3e
 5687 0b8a 00       		.byte	0
 5688 0b8b 0E       		.uleb128 0xe
 5689 0b8c 56150000 		.4byte	.LASF157
 5690 0b90 10       		.byte	0x10
 5691 0b91 B9       		.byte	0xb9
 5692 0b92 3E0B0000 		.4byte	0xb3e
 5693 0b96 04       		.byte	0x4
 5694 0b97 00       		.byte	0
 5695 0b98 05       		.uleb128 0x5
 5696 0b99 F90D0000 		.4byte	.LASF180
 5697 0b9d 0F       		.byte	0xf
 5698 0b9e 57       		.byte	0x57
 5699 0b9f A30B0000 		.4byte	0xba3
 5700 0ba3 1B       		.uleb128 0x1b
 5701 0ba4 542E0000 		.4byte	.LASF181
 5702 0ba8 1C       		.byte	0x1c
 5703 0ba9 10       		.byte	0x10
 5704 0baa 9001     		.2byte	0x190
 5705 0bac FF0B0000 		.4byte	0xbff
ARM GAS  /tmp/ccjQGkoy.s 			page 102


 5706 0bb0 19       		.uleb128 0x19
 5707 0bb1 E5270000 		.4byte	.LASF182
 5708 0bb5 10       		.byte	0x10
 5709 0bb6 9101     		.2byte	0x191
 5710 0bb8 680B0000 		.4byte	0xb68
 5711 0bbc 00       		.byte	0
 5712 0bbd 19       		.uleb128 0x19
 5713 0bbe F5300000 		.4byte	.LASF183
 5714 0bc2 10       		.byte	0x10
 5715 0bc3 9201     		.2byte	0x192
 5716 0bc5 D1090000 		.4byte	0x9d1
 5717 0bc9 08       		.byte	0x8
 5718 0bca 19       		.uleb128 0x19
 5719 0bcb 3F130000 		.4byte	.LASF184
 5720 0bcf 10       		.byte	0x10
 5721 0bd0 9401     		.2byte	0x194
 5722 0bd2 17120000 		.4byte	0x1217
 5723 0bd6 0C       		.byte	0xc
 5724 0bd7 19       		.uleb128 0x19
 5725 0bd8 531E0000 		.4byte	.LASF185
 5726 0bdc 10       		.byte	0x10
 5727 0bdd 9701     		.2byte	0x197
 5728 0bdf 3E0B0000 		.4byte	0xb3e
 5729 0be3 10       		.byte	0x10
 5730 0be4 19       		.uleb128 0x19
 5731 0be5 3F150000 		.4byte	.LASF186
 5732 0be9 10       		.byte	0x10
 5733 0bea 9801     		.2byte	0x198
 5734 0bec 3E0B0000 		.4byte	0xb3e
 5735 0bf0 14       		.byte	0x14
 5736 0bf1 19       		.uleb128 0x19
 5737 0bf2 40180000 		.4byte	.LASF187
 5738 0bf6 10       		.byte	0x10
 5739 0bf7 9B01     		.2byte	0x19b
 5740 0bf9 3E0B0000 		.4byte	0xb3e
 5741 0bfd 18       		.byte	0x18
 5742 0bfe 00       		.byte	0
 5743 0bff 05       		.uleb128 0x5
 5744 0c00 812C0000 		.4byte	.LASF188
 5745 0c04 0F       		.byte	0xf
 5746 0c05 5C       		.byte	0x5c
 5747 0c06 0A0C0000 		.4byte	0xc0a
 5748 0c0a 06       		.uleb128 0x6
 5749 0c0b 04       		.byte	0x4
 5750 0c0c 100C0000 		.4byte	0xc10
 5751 0c10 1F       		.uleb128 0x1f
 5752 0c11 1B0C0000 		.4byte	0xc1b
 5753 0c15 17       		.uleb128 0x17
 5754 0c16 72010000 		.4byte	0x172
 5755 0c1a 00       		.byte	0
 5756 0c1b 05       		.uleb128 0x5
 5757 0c1c 2F130000 		.4byte	.LASF189
 5758 0c20 0F       		.byte	0xf
 5759 0c21 61       		.byte	0x61
 5760 0c22 260C0000 		.4byte	0xc26
 5761 0c26 1B       		.uleb128 0x1b
 5762 0c27 86320000 		.4byte	.LASF190
ARM GAS  /tmp/ccjQGkoy.s 			page 103


 5763 0c2b 14       		.byte	0x14
 5764 0c2c 10       		.byte	0x10
 5765 0c2d 6B01     		.2byte	0x16b
 5766 0c2f 750C0000 		.4byte	0xc75
 5767 0c33 19       		.uleb128 0x19
 5768 0c34 45130000 		.4byte	.LASF191
 5769 0c38 10       		.byte	0x10
 5770 0c39 6C01     		.2byte	0x16c
 5771 0c3b 5C140000 		.4byte	0x145c
 5772 0c3f 00       		.byte	0
 5773 0c40 19       		.uleb128 0x19
 5774 0c41 5F0D0000 		.4byte	.LASF192
 5775 0c45 10       		.byte	0x10
 5776 0c46 6D01     		.2byte	0x16d
 5777 0c48 5C140000 		.4byte	0x145c
 5778 0c4c 04       		.byte	0x4
 5779 0c4d 19       		.uleb128 0x19
 5780 0c4e 331F0000 		.4byte	.LASF193
 5781 0c52 10       		.byte	0x10
 5782 0c53 6E01     		.2byte	0x16e
 5783 0c55 130A0000 		.4byte	0xa13
 5784 0c59 08       		.byte	0x8
 5785 0c5a 19       		.uleb128 0x19
 5786 0c5b 52320000 		.4byte	.LASF194
 5787 0c5f 10       		.byte	0x10
 5788 0c60 6F01     		.2byte	0x16f
 5789 0c62 FF0B0000 		.4byte	0xbff
 5790 0c66 0C       		.byte	0xc
 5791 0c67 19       		.uleb128 0x19
 5792 0c68 240F0000 		.4byte	.LASF195
 5793 0c6c 10       		.byte	0x10
 5794 0c6d 7101     		.2byte	0x171
 5795 0c6f 72010000 		.4byte	0x172
 5796 0c73 10       		.byte	0x10
 5797 0c74 00       		.byte	0
 5798 0c75 05       		.uleb128 0x5
 5799 0c76 64350000 		.4byte	.LASF196
 5800 0c7a 0F       		.byte	0xf
 5801 0c7b 66       		.byte	0x66
 5802 0c7c 800C0000 		.4byte	0xc80
 5803 0c80 1B       		.uleb128 0x1b
 5804 0c81 69050000 		.4byte	.LASF197
 5805 0c85 10       		.byte	0x10
 5806 0c86 10       		.byte	0x10
 5807 0c87 7B01     		.2byte	0x17b
 5808 0c89 C20C0000 		.4byte	0xcc2
 5809 0c8d 19       		.uleb128 0x19
 5810 0c8e 45130000 		.4byte	.LASF191
 5811 0c92 10       		.byte	0x10
 5812 0c93 7C01     		.2byte	0x17c
 5813 0c95 5C140000 		.4byte	0x145c
 5814 0c99 00       		.byte	0
 5815 0c9a 19       		.uleb128 0x19
 5816 0c9b 5F0D0000 		.4byte	.LASF192
 5817 0c9f 10       		.byte	0x10
 5818 0ca0 7E01     		.2byte	0x17e
 5819 0ca2 5C140000 		.4byte	0x145c
ARM GAS  /tmp/ccjQGkoy.s 			page 104


 5820 0ca6 04       		.byte	0x4
 5821 0ca7 19       		.uleb128 0x19
 5822 0ca8 331F0000 		.4byte	.LASF193
 5823 0cac 10       		.byte	0x10
 5824 0cad 8001     		.2byte	0x180
 5825 0caf 130A0000 		.4byte	0xa13
 5826 0cb3 08       		.byte	0x8
 5827 0cb4 19       		.uleb128 0x19
 5828 0cb5 38020000 		.4byte	.LASF198
 5829 0cb9 10       		.byte	0x10
 5830 0cba 8201     		.2byte	0x182
 5831 0cbc 1E0A0000 		.4byte	0xa1e
 5832 0cc0 0C       		.byte	0xc
 5833 0cc1 00       		.byte	0
 5834 0cc2 05       		.uleb128 0x5
 5835 0cc3 D90E0000 		.4byte	.LASF199
 5836 0cc7 0F       		.byte	0xf
 5837 0cc8 6B       		.byte	0x6b
 5838 0cc9 CD0C0000 		.4byte	0xccd
 5839 0ccd 1B       		.uleb128 0x1b
 5840 0cce 912E0000 		.4byte	.LASF200
 5841 0cd2 04       		.byte	0x4
 5842 0cd3 10       		.byte	0x10
 5843 0cd4 A201     		.2byte	0x1a2
 5844 0cd6 E80C0000 		.4byte	0xce8
 5845 0cda 19       		.uleb128 0x19
 5846 0cdb 261E0000 		.4byte	.LASF201
 5847 0cdf 10       		.byte	0x10
 5848 0ce0 AA01     		.2byte	0x1aa
 5849 0ce2 F8050000 		.4byte	0x5f8
 5850 0ce6 00       		.byte	0
 5851 0ce7 00       		.byte	0
 5852 0ce8 05       		.uleb128 0x5
 5853 0ce9 7E010000 		.4byte	.LASF202
 5854 0ced 0F       		.byte	0xf
 5855 0cee 70       		.byte	0x70
 5856 0cef F30C0000 		.4byte	0xcf3
 5857 0cf3 18       		.uleb128 0x18
 5858 0cf4 EA210000 		.4byte	.LASF203
 5859 0cf8 5802     		.2byte	0x258
 5860 0cfa 10       		.byte	0x10
 5861 0cfb C201     		.2byte	0x1c2
 5862 0cfd 4F0D0000 		.4byte	0xd4f
 5863 0d01 19       		.uleb128 0x19
 5864 0d02 FD070000 		.4byte	.LASF204
 5865 0d06 10       		.byte	0x10
 5866 0d07 C601     		.2byte	0x1c6
 5867 0d09 980B0000 		.4byte	0xb98
 5868 0d0d 00       		.byte	0
 5869 0d0e 19       		.uleb128 0x19
 5870 0d0f 95070000 		.4byte	.LASF205
 5871 0d13 10       		.byte	0x10
 5872 0d14 CA01     		.2byte	0x1ca
 5873 0d16 750C0000 		.4byte	0xc75
 5874 0d1a 1C       		.byte	0x1c
 5875 0d1b 24       		.uleb128 0x24
 5876 0d1c 64626700 		.ascii	"dbg\000"
ARM GAS  /tmp/ccjQGkoy.s 			page 105


 5877 0d20 10       		.byte	0x10
 5878 0d21 CE01     		.2byte	0x1ce
 5879 0d23 C20C0000 		.4byte	0xcc2
 5880 0d27 2C       		.byte	0x2c
 5881 0d28 19       		.uleb128 0x19
 5882 0d29 DF230000 		.4byte	.LASF206
 5883 0d2d 10       		.byte	0x10
 5884 0d2e D201     		.2byte	0x1d2
 5885 0d30 230A0000 		.4byte	0xa23
 5886 0d34 30       		.byte	0x30
 5887 0d35 24       		.uleb128 0x24
 5888 0d36 746D00   		.ascii	"tm\000"
 5889 0d39 10       		.byte	0x10
 5890 0d3a D701     		.2byte	0x1d7
 5891 0d3c 8C130000 		.4byte	0x138c
 5892 0d40 78       		.byte	0x78
 5893 0d41 19       		.uleb128 0x19
 5894 0d42 19320000 		.4byte	.LASF207
 5895 0d46 10       		.byte	0x10
 5896 0d47 E301     		.2byte	0x1e3
 5897 0d49 62140000 		.4byte	0x1462
 5898 0d4d 80       		.byte	0x80
 5899 0d4e 00       		.byte	0
 5900 0d4f 0B       		.uleb128 0xb
 5901 0d50 7F090000 		.4byte	0x97f
 5902 0d54 5F0D0000 		.4byte	0xd5f
 5903 0d58 0C       		.uleb128 0xc
 5904 0d59 48000000 		.4byte	0x48
 5905 0d5d 01       		.byte	0x1
 5906 0d5e 00       		.byte	0
 5907 0d5f 0B       		.uleb128 0xb
 5908 0d60 7F090000 		.4byte	0x97f
 5909 0d64 6F0D0000 		.4byte	0xd6f
 5910 0d68 0C       		.uleb128 0xc
 5911 0d69 48000000 		.4byte	0x48
 5912 0d6d 07       		.byte	0x7
 5913 0d6e 00       		.byte	0
 5914 0d6f 20       		.uleb128 0x20
 5915 0d70 40310000 		.4byte	.LASF208
 5916 0d74 11       		.byte	0x11
 5917 0d75 A706     		.2byte	0x6a7
 5918 0d77 7A090000 		.4byte	0x97a
 5919 0d7b 25       		.uleb128 0x25
 5920 0d7c 58210000 		.4byte	.LASF209
 5921 0d80 12       		.byte	0x12
 5922 0d81 4C       		.byte	0x4c
 5923 0d82 7F090000 		.4byte	0x97f
 5924 0d86 0D       		.uleb128 0xd
 5925 0d87 10       		.byte	0x10
 5926 0d88 13       		.byte	0x13
 5927 0d89 E9       		.byte	0xe9
 5928 0d8a BF0D0000 		.4byte	0xdbf
 5929 0d8e 12       		.uleb128 0x12
 5930 0d8f 54495200 		.ascii	"TIR\000"
 5931 0d93 13       		.byte	0x13
 5932 0d94 EB       		.byte	0xeb
 5933 0d95 8A090000 		.4byte	0x98a
ARM GAS  /tmp/ccjQGkoy.s 			page 106


 5934 0d99 00       		.byte	0
 5935 0d9a 0E       		.uleb128 0xe
 5936 0d9b 19190000 		.4byte	.LASF210
 5937 0d9f 13       		.byte	0x13
 5938 0da0 EC       		.byte	0xec
 5939 0da1 8A090000 		.4byte	0x98a
 5940 0da5 04       		.byte	0x4
 5941 0da6 0E       		.uleb128 0xe
 5942 0da7 B4230000 		.4byte	.LASF211
 5943 0dab 13       		.byte	0x13
 5944 0dac ED       		.byte	0xed
 5945 0dad 8A090000 		.4byte	0x98a
 5946 0db1 08       		.byte	0x8
 5947 0db2 0E       		.uleb128 0xe
 5948 0db3 4B200000 		.4byte	.LASF212
 5949 0db7 13       		.byte	0x13
 5950 0db8 EE       		.byte	0xee
 5951 0db9 8A090000 		.4byte	0x98a
 5952 0dbd 0C       		.byte	0xc
 5953 0dbe 00       		.byte	0
 5954 0dbf 05       		.uleb128 0x5
 5955 0dc0 E7070000 		.4byte	.LASF213
 5956 0dc4 13       		.byte	0x13
 5957 0dc5 EF       		.byte	0xef
 5958 0dc6 860D0000 		.4byte	0xd86
 5959 0dca 0D       		.uleb128 0xd
 5960 0dcb 10       		.byte	0x10
 5961 0dcc 13       		.byte	0x13
 5962 0dcd F5       		.byte	0xf5
 5963 0dce 030E0000 		.4byte	0xe03
 5964 0dd2 12       		.uleb128 0x12
 5965 0dd3 52495200 		.ascii	"RIR\000"
 5966 0dd7 13       		.byte	0x13
 5967 0dd8 F7       		.byte	0xf7
 5968 0dd9 8A090000 		.4byte	0x98a
 5969 0ddd 00       		.byte	0
 5970 0dde 0E       		.uleb128 0xe
 5971 0ddf 102E0000 		.4byte	.LASF214
 5972 0de3 13       		.byte	0x13
 5973 0de4 F8       		.byte	0xf8
 5974 0de5 8A090000 		.4byte	0x98a
 5975 0de9 04       		.byte	0x4
 5976 0dea 0E       		.uleb128 0xe
 5977 0deb C6250000 		.4byte	.LASF215
 5978 0def 13       		.byte	0x13
 5979 0df0 F9       		.byte	0xf9
 5980 0df1 8A090000 		.4byte	0x98a
 5981 0df5 08       		.byte	0x8
 5982 0df6 0E       		.uleb128 0xe
 5983 0df7 D6210000 		.4byte	.LASF216
 5984 0dfb 13       		.byte	0x13
 5985 0dfc FA       		.byte	0xfa
 5986 0dfd 8A090000 		.4byte	0x98a
 5987 0e01 0C       		.byte	0xc
 5988 0e02 00       		.byte	0
 5989 0e03 05       		.uleb128 0x5
 5990 0e04 8A2C0000 		.4byte	.LASF217
ARM GAS  /tmp/ccjQGkoy.s 			page 107


 5991 0e08 13       		.byte	0x13
 5992 0e09 FB       		.byte	0xfb
 5993 0e0a CA0D0000 		.4byte	0xdca
 5994 0e0e 1C       		.uleb128 0x1c
 5995 0e0f 08       		.byte	0x8
 5996 0e10 13       		.byte	0x13
 5997 0e11 0101     		.2byte	0x101
 5998 0e13 320E0000 		.4byte	0xe32
 5999 0e17 24       		.uleb128 0x24
 6000 0e18 46523100 		.ascii	"FR1\000"
 6001 0e1c 13       		.byte	0x13
 6002 0e1d 0301     		.2byte	0x103
 6003 0e1f 8A090000 		.4byte	0x98a
 6004 0e23 00       		.byte	0
 6005 0e24 24       		.uleb128 0x24
 6006 0e25 46523200 		.ascii	"FR2\000"
 6007 0e29 13       		.byte	0x13
 6008 0e2a 0401     		.2byte	0x104
 6009 0e2c 8A090000 		.4byte	0x98a
 6010 0e30 04       		.byte	0x4
 6011 0e31 00       		.byte	0
 6012 0e32 08       		.uleb128 0x8
 6013 0e33 37190000 		.4byte	.LASF218
 6014 0e37 13       		.byte	0x13
 6015 0e38 0501     		.2byte	0x105
 6016 0e3a 0E0E0000 		.4byte	0xe0e
 6017 0e3e 26       		.uleb128 0x26
 6018 0e3f 2003     		.2byte	0x320
 6019 0e41 13       		.byte	0x13
 6020 0e42 0B01     		.2byte	0x10b
 6021 0e44 740F0000 		.4byte	0xf74
 6022 0e48 24       		.uleb128 0x24
 6023 0e49 4D435200 		.ascii	"MCR\000"
 6024 0e4d 13       		.byte	0x13
 6025 0e4e 0D01     		.2byte	0x10d
 6026 0e50 8A090000 		.4byte	0x98a
 6027 0e54 00       		.byte	0
 6028 0e55 24       		.uleb128 0x24
 6029 0e56 4D535200 		.ascii	"MSR\000"
 6030 0e5a 13       		.byte	0x13
 6031 0e5b 0E01     		.2byte	0x10e
 6032 0e5d 8A090000 		.4byte	0x98a
 6033 0e61 04       		.byte	0x4
 6034 0e62 24       		.uleb128 0x24
 6035 0e63 54535200 		.ascii	"TSR\000"
 6036 0e67 13       		.byte	0x13
 6037 0e68 0F01     		.2byte	0x10f
 6038 0e6a 8A090000 		.4byte	0x98a
 6039 0e6e 08       		.byte	0x8
 6040 0e6f 19       		.uleb128 0x19
 6041 0e70 90160000 		.4byte	.LASF219
 6042 0e74 13       		.byte	0x13
 6043 0e75 1001     		.2byte	0x110
 6044 0e77 8A090000 		.4byte	0x98a
 6045 0e7b 0C       		.byte	0xc
 6046 0e7c 19       		.uleb128 0x19
 6047 0e7d 40260000 		.4byte	.LASF220
ARM GAS  /tmp/ccjQGkoy.s 			page 108


 6048 0e81 13       		.byte	0x13
 6049 0e82 1101     		.2byte	0x111
 6050 0e84 8A090000 		.4byte	0x98a
 6051 0e88 10       		.byte	0x10
 6052 0e89 24       		.uleb128 0x24
 6053 0e8a 49455200 		.ascii	"IER\000"
 6054 0e8e 13       		.byte	0x13
 6055 0e8f 1201     		.2byte	0x112
 6056 0e91 8A090000 		.4byte	0x98a
 6057 0e95 14       		.byte	0x14
 6058 0e96 24       		.uleb128 0x24
 6059 0e97 45535200 		.ascii	"ESR\000"
 6060 0e9b 13       		.byte	0x13
 6061 0e9c 1301     		.2byte	0x113
 6062 0e9e 8A090000 		.4byte	0x98a
 6063 0ea2 18       		.byte	0x18
 6064 0ea3 24       		.uleb128 0x24
 6065 0ea4 42545200 		.ascii	"BTR\000"
 6066 0ea8 13       		.byte	0x13
 6067 0ea9 1401     		.2byte	0x114
 6068 0eab 8A090000 		.4byte	0x98a
 6069 0eaf 1C       		.byte	0x1c
 6070 0eb0 19       		.uleb128 0x19
 6071 0eb1 BC2F0000 		.4byte	.LASF221
 6072 0eb5 13       		.byte	0x13
 6073 0eb6 1501     		.2byte	0x115
 6074 0eb8 740F0000 		.4byte	0xf74
 6075 0ebc 20       		.byte	0x20
 6076 0ebd 1A       		.uleb128 0x1a
 6077 0ebe 991A0000 		.4byte	.LASF222
 6078 0ec2 13       		.byte	0x13
 6079 0ec3 1601     		.2byte	0x116
 6080 0ec5 840F0000 		.4byte	0xf84
 6081 0ec9 8001     		.2byte	0x180
 6082 0ecb 1A       		.uleb128 0x1a
 6083 0ecc 0B380000 		.4byte	.LASF223
 6084 0ed0 13       		.byte	0x13
 6085 0ed1 1701     		.2byte	0x117
 6086 0ed3 940F0000 		.4byte	0xf94
 6087 0ed7 B001     		.2byte	0x1b0
 6088 0ed9 1A       		.uleb128 0x1a
 6089 0eda C62F0000 		.4byte	.LASF224
 6090 0ede 13       		.byte	0x13
 6091 0edf 1801     		.2byte	0x118
 6092 0ee1 A40F0000 		.4byte	0xfa4
 6093 0ee5 D001     		.2byte	0x1d0
 6094 0ee7 27       		.uleb128 0x27
 6095 0ee8 464D5200 		.ascii	"FMR\000"
 6096 0eec 13       		.byte	0x13
 6097 0eed 1901     		.2byte	0x119
 6098 0eef 8A090000 		.4byte	0x98a
 6099 0ef3 0002     		.2byte	0x200
 6100 0ef5 1A       		.uleb128 0x1a
 6101 0ef6 05100000 		.4byte	.LASF225
 6102 0efa 13       		.byte	0x13
 6103 0efb 1A01     		.2byte	0x11a
 6104 0efd 8A090000 		.4byte	0x98a
ARM GAS  /tmp/ccjQGkoy.s 			page 109


 6105 0f01 0402     		.2byte	0x204
 6106 0f03 1A       		.uleb128 0x1a
 6107 0f04 D02F0000 		.4byte	.LASF226
 6108 0f08 13       		.byte	0x13
 6109 0f09 1B01     		.2byte	0x11b
 6110 0f0b 7F090000 		.4byte	0x97f
 6111 0f0f 0802     		.2byte	0x208
 6112 0f11 1A       		.uleb128 0x1a
 6113 0f12 A5330000 		.4byte	.LASF227
 6114 0f16 13       		.byte	0x13
 6115 0f17 1C01     		.2byte	0x11c
 6116 0f19 8A090000 		.4byte	0x98a
 6117 0f1d 0C02     		.2byte	0x20c
 6118 0f1f 1A       		.uleb128 0x1a
 6119 0f20 DA2F0000 		.4byte	.LASF228
 6120 0f24 13       		.byte	0x13
 6121 0f25 1D01     		.2byte	0x11d
 6122 0f27 7F090000 		.4byte	0x97f
 6123 0f2b 1002     		.2byte	0x210
 6124 0f2d 1A       		.uleb128 0x1a
 6125 0f2e 3A260000 		.4byte	.LASF229
 6126 0f32 13       		.byte	0x13
 6127 0f33 1E01     		.2byte	0x11e
 6128 0f35 8A090000 		.4byte	0x98a
 6129 0f39 1402     		.2byte	0x214
 6130 0f3b 1A       		.uleb128 0x1a
 6131 0f3c E42F0000 		.4byte	.LASF230
 6132 0f40 13       		.byte	0x13
 6133 0f41 1F01     		.2byte	0x11f
 6134 0f43 7F090000 		.4byte	0x97f
 6135 0f47 1802     		.2byte	0x218
 6136 0f49 1A       		.uleb128 0x1a
 6137 0f4a 51060000 		.4byte	.LASF231
 6138 0f4e 13       		.byte	0x13
 6139 0f4f 2001     		.2byte	0x120
 6140 0f51 8A090000 		.4byte	0x98a
 6141 0f55 1C02     		.2byte	0x21c
 6142 0f57 1A       		.uleb128 0x1a
 6143 0f58 EE2F0000 		.4byte	.LASF232
 6144 0f5c 13       		.byte	0x13
 6145 0f5d 2101     		.2byte	0x121
 6146 0f5f 5F0D0000 		.4byte	0xd5f
 6147 0f63 2002     		.2byte	0x220
 6148 0f65 1A       		.uleb128 0x1a
 6149 0f66 CD080000 		.4byte	.LASF233
 6150 0f6a 13       		.byte	0x13
 6151 0f6b 2201     		.2byte	0x122
 6152 0f6d B40F0000 		.4byte	0xfb4
 6153 0f71 4002     		.2byte	0x240
 6154 0f73 00       		.byte	0
 6155 0f74 0B       		.uleb128 0xb
 6156 0f75 7F090000 		.4byte	0x97f
 6157 0f79 840F0000 		.4byte	0xf84
 6158 0f7d 0C       		.uleb128 0xc
 6159 0f7e 48000000 		.4byte	0x48
 6160 0f82 57       		.byte	0x57
 6161 0f83 00       		.byte	0
ARM GAS  /tmp/ccjQGkoy.s 			page 110


 6162 0f84 0B       		.uleb128 0xb
 6163 0f85 BF0D0000 		.4byte	0xdbf
 6164 0f89 940F0000 		.4byte	0xf94
 6165 0f8d 0C       		.uleb128 0xc
 6166 0f8e 48000000 		.4byte	0x48
 6167 0f92 02       		.byte	0x2
 6168 0f93 00       		.byte	0
 6169 0f94 0B       		.uleb128 0xb
 6170 0f95 030E0000 		.4byte	0xe03
 6171 0f99 A40F0000 		.4byte	0xfa4
 6172 0f9d 0C       		.uleb128 0xc
 6173 0f9e 48000000 		.4byte	0x48
 6174 0fa2 01       		.byte	0x1
 6175 0fa3 00       		.byte	0
 6176 0fa4 0B       		.uleb128 0xb
 6177 0fa5 7F090000 		.4byte	0x97f
 6178 0fa9 B40F0000 		.4byte	0xfb4
 6179 0fad 0C       		.uleb128 0xc
 6180 0fae 48000000 		.4byte	0x48
 6181 0fb2 0B       		.byte	0xb
 6182 0fb3 00       		.byte	0
 6183 0fb4 0B       		.uleb128 0xb
 6184 0fb5 320E0000 		.4byte	0xe32
 6185 0fb9 C40F0000 		.4byte	0xfc4
 6186 0fbd 0C       		.uleb128 0xc
 6187 0fbe 48000000 		.4byte	0x48
 6188 0fc2 1B       		.byte	0x1b
 6189 0fc3 00       		.byte	0
 6190 0fc4 08       		.uleb128 0x8
 6191 0fc5 41140000 		.4byte	.LASF234
 6192 0fc9 13       		.byte	0x13
 6193 0fca 2301     		.2byte	0x123
 6194 0fcc 3E0E0000 		.4byte	0xe3e
 6195 0fd0 1C       		.uleb128 0x1c
 6196 0fd1 18       		.byte	0x18
 6197 0fd2 13       		.byte	0x13
 6198 0fd3 6B01     		.2byte	0x16b
 6199 0fd5 27100000 		.4byte	0x1027
 6200 0fd9 24       		.uleb128 0x24
 6201 0fda 435200   		.ascii	"CR\000"
 6202 0fdd 13       		.byte	0x13
 6203 0fde 6D01     		.2byte	0x16d
 6204 0fe0 8A090000 		.4byte	0x98a
 6205 0fe4 00       		.byte	0
 6206 0fe5 19       		.uleb128 0x19
 6207 0fe6 F5310000 		.4byte	.LASF235
 6208 0fea 13       		.byte	0x13
 6209 0feb 6E01     		.2byte	0x16e
 6210 0fed 8A090000 		.4byte	0x98a
 6211 0ff1 04       		.byte	0x4
 6212 0ff2 24       		.uleb128 0x24
 6213 0ff3 50415200 		.ascii	"PAR\000"
 6214 0ff7 13       		.byte	0x13
 6215 0ff8 6F01     		.2byte	0x16f
 6216 0ffa 8A090000 		.4byte	0x98a
 6217 0ffe 08       		.byte	0x8
 6218 0fff 19       		.uleb128 0x19
ARM GAS  /tmp/ccjQGkoy.s 			page 111


 6219 1000 DD050000 		.4byte	.LASF236
 6220 1004 13       		.byte	0x13
 6221 1005 7001     		.2byte	0x170
 6222 1007 8A090000 		.4byte	0x98a
 6223 100b 0C       		.byte	0xc
 6224 100c 19       		.uleb128 0x19
 6225 100d E50B0000 		.4byte	.LASF237
 6226 1011 13       		.byte	0x13
 6227 1012 7101     		.2byte	0x171
 6228 1014 8A090000 		.4byte	0x98a
 6229 1018 10       		.byte	0x10
 6230 1019 24       		.uleb128 0x24
 6231 101a 46435200 		.ascii	"FCR\000"
 6232 101e 13       		.byte	0x13
 6233 101f 7201     		.2byte	0x172
 6234 1021 8A090000 		.4byte	0x98a
 6235 1025 14       		.byte	0x14
 6236 1026 00       		.byte	0
 6237 1027 08       		.uleb128 0x8
 6238 1028 EF0B0000 		.4byte	.LASF238
 6239 102c 13       		.byte	0x13
 6240 102d 7301     		.2byte	0x173
 6241 102f D00F0000 		.4byte	0xfd0
 6242 1033 0B       		.uleb128 0xb
 6243 1034 8A090000 		.4byte	0x98a
 6244 1038 43100000 		.4byte	0x1043
 6245 103c 0C       		.uleb128 0xc
 6246 103d 48000000 		.4byte	0x48
 6247 1041 01       		.byte	0x1
 6248 1042 00       		.byte	0
 6249 1043 04       		.uleb128 0x4
 6250 1044 33100000 		.4byte	0x1033
 6251 1048 0B       		.uleb128 0xb
 6252 1049 8A090000 		.4byte	0x98a
 6253 104d 58100000 		.4byte	0x1058
 6254 1051 0C       		.uleb128 0xc
 6255 1052 48000000 		.4byte	0x48
 6256 1056 03       		.byte	0x3
 6257 1057 00       		.byte	0
 6258 1058 04       		.uleb128 0x4
 6259 1059 48100000 		.4byte	0x1048
 6260 105d 1C       		.uleb128 0x1c
 6261 105e 28       		.byte	0x28
 6262 105f 13       		.byte	0x13
 6263 1060 3F02     		.2byte	0x23f
 6264 1062 E8100000 		.4byte	0x10e8
 6265 1066 24       		.uleb128 0x24
 6266 1067 43523100 		.ascii	"CR1\000"
 6267 106b 13       		.byte	0x13
 6268 106c 4102     		.2byte	0x241
 6269 106e 8A090000 		.4byte	0x98a
 6270 1072 00       		.byte	0
 6271 1073 24       		.uleb128 0x24
 6272 1074 43523200 		.ascii	"CR2\000"
 6273 1078 13       		.byte	0x13
 6274 1079 4202     		.2byte	0x242
 6275 107b 8A090000 		.4byte	0x98a
ARM GAS  /tmp/ccjQGkoy.s 			page 112


 6276 107f 04       		.byte	0x4
 6277 1080 19       		.uleb128 0x19
 6278 1081 963D0000 		.4byte	.LASF239
 6279 1085 13       		.byte	0x13
 6280 1086 4302     		.2byte	0x243
 6281 1088 8A090000 		.4byte	0x98a
 6282 108c 08       		.byte	0x8
 6283 108d 19       		.uleb128 0x19
 6284 108e 9B3D0000 		.4byte	.LASF240
 6285 1092 13       		.byte	0x13
 6286 1093 4402     		.2byte	0x244
 6287 1095 8A090000 		.4byte	0x98a
 6288 1099 0C       		.byte	0xc
 6289 109a 24       		.uleb128 0x24
 6290 109b 445200   		.ascii	"DR\000"
 6291 109e 13       		.byte	0x13
 6292 109f 4502     		.2byte	0x245
 6293 10a1 8A090000 		.4byte	0x98a
 6294 10a5 10       		.byte	0x10
 6295 10a6 24       		.uleb128 0x24
 6296 10a7 53523100 		.ascii	"SR1\000"
 6297 10ab 13       		.byte	0x13
 6298 10ac 4602     		.2byte	0x246
 6299 10ae 8A090000 		.4byte	0x98a
 6300 10b2 14       		.byte	0x14
 6301 10b3 24       		.uleb128 0x24
 6302 10b4 53523200 		.ascii	"SR2\000"
 6303 10b8 13       		.byte	0x13
 6304 10b9 4702     		.2byte	0x247
 6305 10bb 8A090000 		.4byte	0x98a
 6306 10bf 18       		.byte	0x18
 6307 10c0 24       		.uleb128 0x24
 6308 10c1 43435200 		.ascii	"CCR\000"
 6309 10c5 13       		.byte	0x13
 6310 10c6 4802     		.2byte	0x248
 6311 10c8 8A090000 		.4byte	0x98a
 6312 10cc 1C       		.byte	0x1c
 6313 10cd 19       		.uleb128 0x19
 6314 10ce B8070000 		.4byte	.LASF241
 6315 10d2 13       		.byte	0x13
 6316 10d3 4902     		.2byte	0x249
 6317 10d5 8A090000 		.4byte	0x98a
 6318 10d9 20       		.byte	0x20
 6319 10da 19       		.uleb128 0x19
 6320 10db 663B0000 		.4byte	.LASF242
 6321 10df 13       		.byte	0x13
 6322 10e0 4A02     		.2byte	0x24a
 6323 10e2 8A090000 		.4byte	0x98a
 6324 10e6 24       		.byte	0x24
 6325 10e7 00       		.byte	0
 6326 10e8 08       		.uleb128 0x8
 6327 10e9 B81B0000 		.4byte	.LASF243
 6328 10ed 13       		.byte	0x13
 6329 10ee 4B02     		.2byte	0x24b
 6330 10f0 5D100000 		.4byte	0x105d
 6331 10f4 1C       		.uleb128 0x1c
 6332 10f5 24       		.byte	0x24
ARM GAS  /tmp/ccjQGkoy.s 			page 113


 6333 10f6 13       		.byte	0x13
 6334 10f7 DB02     		.2byte	0x2db
 6335 10f9 71110000 		.4byte	0x1171
 6336 10fd 24       		.uleb128 0x24
 6337 10fe 43523100 		.ascii	"CR1\000"
 6338 1102 13       		.byte	0x13
 6339 1103 DD02     		.2byte	0x2dd
 6340 1105 8A090000 		.4byte	0x98a
 6341 1109 00       		.byte	0
 6342 110a 24       		.uleb128 0x24
 6343 110b 43523200 		.ascii	"CR2\000"
 6344 110f 13       		.byte	0x13
 6345 1110 DE02     		.2byte	0x2de
 6346 1112 8A090000 		.4byte	0x98a
 6347 1116 04       		.byte	0x4
 6348 1117 24       		.uleb128 0x24
 6349 1118 535200   		.ascii	"SR\000"
 6350 111b 13       		.byte	0x13
 6351 111c DF02     		.2byte	0x2df
 6352 111e 8A090000 		.4byte	0x98a
 6353 1122 08       		.byte	0x8
 6354 1123 24       		.uleb128 0x24
 6355 1124 445200   		.ascii	"DR\000"
 6356 1127 13       		.byte	0x13
 6357 1128 E002     		.2byte	0x2e0
 6358 112a 8A090000 		.4byte	0x98a
 6359 112e 0C       		.byte	0xc
 6360 112f 19       		.uleb128 0x19
 6361 1130 3D0B0000 		.4byte	.LASF244
 6362 1134 13       		.byte	0x13
 6363 1135 E102     		.2byte	0x2e1
 6364 1137 8A090000 		.4byte	0x98a
 6365 113b 10       		.byte	0x10
 6366 113c 19       		.uleb128 0x19
 6367 113d B7100000 		.4byte	.LASF245
 6368 1141 13       		.byte	0x13
 6369 1142 E202     		.2byte	0x2e2
 6370 1144 8A090000 		.4byte	0x98a
 6371 1148 14       		.byte	0x14
 6372 1149 19       		.uleb128 0x19
 6373 114a 560F0000 		.4byte	.LASF246
 6374 114e 13       		.byte	0x13
 6375 114f E302     		.2byte	0x2e3
 6376 1151 8A090000 		.4byte	0x98a
 6377 1155 18       		.byte	0x18
 6378 1156 19       		.uleb128 0x19
 6379 1157 3A360000 		.4byte	.LASF247
 6380 115b 13       		.byte	0x13
 6381 115c E402     		.2byte	0x2e4
 6382 115e 8A090000 		.4byte	0x98a
 6383 1162 1C       		.byte	0x1c
 6384 1163 19       		.uleb128 0x19
 6385 1164 D50A0000 		.4byte	.LASF248
 6386 1168 13       		.byte	0x13
 6387 1169 E502     		.2byte	0x2e5
 6388 116b 8A090000 		.4byte	0x98a
 6389 116f 20       		.byte	0x20
ARM GAS  /tmp/ccjQGkoy.s 			page 114


 6390 1170 00       		.byte	0
 6391 1171 08       		.uleb128 0x8
 6392 1172 46320000 		.4byte	.LASF249
 6393 1176 13       		.byte	0x13
 6394 1177 E602     		.2byte	0x2e6
 6395 1179 F4100000 		.4byte	0x10f4
 6396 117d 1C       		.uleb128 0x1c
 6397 117e 1C       		.byte	0x1c
 6398 117f 13       		.byte	0x13
 6399 1180 0903     		.2byte	0x309
 6400 1182 E0110000 		.4byte	0x11e0
 6401 1186 24       		.uleb128 0x24
 6402 1187 535200   		.ascii	"SR\000"
 6403 118a 13       		.byte	0x13
 6404 118b 0B03     		.2byte	0x30b
 6405 118d 8A090000 		.4byte	0x98a
 6406 1191 00       		.byte	0
 6407 1192 24       		.uleb128 0x24
 6408 1193 445200   		.ascii	"DR\000"
 6409 1196 13       		.byte	0x13
 6410 1197 0C03     		.2byte	0x30c
 6411 1199 8A090000 		.4byte	0x98a
 6412 119d 04       		.byte	0x4
 6413 119e 24       		.uleb128 0x24
 6414 119f 42525200 		.ascii	"BRR\000"
 6415 11a3 13       		.byte	0x13
 6416 11a4 0D03     		.2byte	0x30d
 6417 11a6 8A090000 		.4byte	0x98a
 6418 11aa 08       		.byte	0x8
 6419 11ab 24       		.uleb128 0x24
 6420 11ac 43523100 		.ascii	"CR1\000"
 6421 11b0 13       		.byte	0x13
 6422 11b1 0E03     		.2byte	0x30e
 6423 11b3 8A090000 		.4byte	0x98a
 6424 11b7 0C       		.byte	0xc
 6425 11b8 24       		.uleb128 0x24
 6426 11b9 43523200 		.ascii	"CR2\000"
 6427 11bd 13       		.byte	0x13
 6428 11be 0F03     		.2byte	0x30f
 6429 11c0 8A090000 		.4byte	0x98a
 6430 11c4 10       		.byte	0x10
 6431 11c5 24       		.uleb128 0x24
 6432 11c6 43523300 		.ascii	"CR3\000"
 6433 11ca 13       		.byte	0x13
 6434 11cb 1003     		.2byte	0x310
 6435 11cd 8A090000 		.4byte	0x98a
 6436 11d1 14       		.byte	0x14
 6437 11d2 19       		.uleb128 0x19
 6438 11d3 C4160000 		.4byte	.LASF250
 6439 11d7 13       		.byte	0x13
 6440 11d8 1103     		.2byte	0x311
 6441 11da 8A090000 		.4byte	0x98a
 6442 11de 18       		.byte	0x18
 6443 11df 00       		.byte	0
 6444 11e0 08       		.uleb128 0x8
 6445 11e1 B63C0000 		.4byte	.LASF251
 6446 11e5 13       		.byte	0x13
ARM GAS  /tmp/ccjQGkoy.s 			page 115


 6447 11e6 1203     		.2byte	0x312
 6448 11e8 7D110000 		.4byte	0x117d
 6449 11ec 0B       		.uleb128 0xb
 6450 11ed 8A090000 		.4byte	0x98a
 6451 11f1 FC110000 		.4byte	0x11fc
 6452 11f5 0C       		.uleb128 0xc
 6453 11f6 48000000 		.4byte	0x48
 6454 11fa 0E       		.byte	0xe
 6455 11fb 00       		.byte	0
 6456 11fc 04       		.uleb128 0x4
 6457 11fd EC110000 		.4byte	0x11ec
 6458 1201 05       		.uleb128 0x5
 6459 1202 15260000 		.4byte	.LASF252
 6460 1206 14       		.byte	0x14
 6461 1207 65       		.byte	0x65
 6462 1208 72010000 		.4byte	0x172
 6463 120c 05       		.uleb128 0x5
 6464 120d 89140000 		.4byte	.LASF253
 6465 1211 14       		.byte	0x14
 6466 1212 6D       		.byte	0x6d
 6467 1213 8F090000 		.4byte	0x98f
 6468 1217 11       		.uleb128 0x11
 6469 1218 5C1C0000 		.4byte	.LASF254
 6470 121c 04       		.byte	0x4
 6471 121d 14       		.byte	0x14
 6472 121e 89       		.byte	0x89
 6473 121f 30120000 		.4byte	0x1230
 6474 1223 12       		.uleb128 0x12
 6475 1224 72313300 		.ascii	"r13\000"
 6476 1228 14       		.byte	0x14
 6477 1229 8A       		.byte	0x8a
 6478 122a 71130000 		.4byte	0x1371
 6479 122e 00       		.byte	0
 6480 122f 00       		.byte	0
 6481 1230 11       		.uleb128 0x11
 6482 1231 4C000000 		.4byte	.LASF255
 6483 1235 64       		.byte	0x64
 6484 1236 15       		.byte	0x15
 6485 1237 F4       		.byte	0xf4
 6486 1238 71130000 		.4byte	0x1371
 6487 123c 12       		.uleb128 0x12
 6488 123d 73313600 		.ascii	"s16\000"
 6489 1241 15       		.byte	0x15
 6490 1242 F6       		.byte	0xf6
 6491 1243 01120000 		.4byte	0x1201
 6492 1247 00       		.byte	0
 6493 1248 12       		.uleb128 0x12
 6494 1249 73313700 		.ascii	"s17\000"
 6495 124d 15       		.byte	0x15
 6496 124e F7       		.byte	0xf7
 6497 124f 01120000 		.4byte	0x1201
 6498 1253 04       		.byte	0x4
 6499 1254 12       		.uleb128 0x12
 6500 1255 73313800 		.ascii	"s18\000"
 6501 1259 15       		.byte	0x15
 6502 125a F8       		.byte	0xf8
 6503 125b 01120000 		.4byte	0x1201
ARM GAS  /tmp/ccjQGkoy.s 			page 116


 6504 125f 08       		.byte	0x8
 6505 1260 12       		.uleb128 0x12
 6506 1261 73313900 		.ascii	"s19\000"
 6507 1265 15       		.byte	0x15
 6508 1266 F9       		.byte	0xf9
 6509 1267 01120000 		.4byte	0x1201
 6510 126b 0C       		.byte	0xc
 6511 126c 12       		.uleb128 0x12
 6512 126d 73323000 		.ascii	"s20\000"
 6513 1271 15       		.byte	0x15
 6514 1272 FA       		.byte	0xfa
 6515 1273 01120000 		.4byte	0x1201
 6516 1277 10       		.byte	0x10
 6517 1278 12       		.uleb128 0x12
 6518 1279 73323100 		.ascii	"s21\000"
 6519 127d 15       		.byte	0x15
 6520 127e FB       		.byte	0xfb
 6521 127f 01120000 		.4byte	0x1201
 6522 1283 14       		.byte	0x14
 6523 1284 12       		.uleb128 0x12
 6524 1285 73323200 		.ascii	"s22\000"
 6525 1289 15       		.byte	0x15
 6526 128a FC       		.byte	0xfc
 6527 128b 01120000 		.4byte	0x1201
 6528 128f 18       		.byte	0x18
 6529 1290 12       		.uleb128 0x12
 6530 1291 73323300 		.ascii	"s23\000"
 6531 1295 15       		.byte	0x15
 6532 1296 FD       		.byte	0xfd
 6533 1297 01120000 		.4byte	0x1201
 6534 129b 1C       		.byte	0x1c
 6535 129c 12       		.uleb128 0x12
 6536 129d 73323400 		.ascii	"s24\000"
 6537 12a1 15       		.byte	0x15
 6538 12a2 FE       		.byte	0xfe
 6539 12a3 01120000 		.4byte	0x1201
 6540 12a7 20       		.byte	0x20
 6541 12a8 12       		.uleb128 0x12
 6542 12a9 73323500 		.ascii	"s25\000"
 6543 12ad 15       		.byte	0x15
 6544 12ae FF       		.byte	0xff
 6545 12af 01120000 		.4byte	0x1201
 6546 12b3 24       		.byte	0x24
 6547 12b4 24       		.uleb128 0x24
 6548 12b5 73323600 		.ascii	"s26\000"
 6549 12b9 15       		.byte	0x15
 6550 12ba 0001     		.2byte	0x100
 6551 12bc 01120000 		.4byte	0x1201
 6552 12c0 28       		.byte	0x28
 6553 12c1 24       		.uleb128 0x24
 6554 12c2 73323700 		.ascii	"s27\000"
 6555 12c6 15       		.byte	0x15
 6556 12c7 0101     		.2byte	0x101
 6557 12c9 01120000 		.4byte	0x1201
 6558 12cd 2C       		.byte	0x2c
 6559 12ce 24       		.uleb128 0x24
 6560 12cf 73323800 		.ascii	"s28\000"
ARM GAS  /tmp/ccjQGkoy.s 			page 117


 6561 12d3 15       		.byte	0x15
 6562 12d4 0201     		.2byte	0x102
 6563 12d6 01120000 		.4byte	0x1201
 6564 12da 30       		.byte	0x30
 6565 12db 24       		.uleb128 0x24
 6566 12dc 73323900 		.ascii	"s29\000"
 6567 12e0 15       		.byte	0x15
 6568 12e1 0301     		.2byte	0x103
 6569 12e3 01120000 		.4byte	0x1201
 6570 12e7 34       		.byte	0x34
 6571 12e8 24       		.uleb128 0x24
 6572 12e9 73333000 		.ascii	"s30\000"
 6573 12ed 15       		.byte	0x15
 6574 12ee 0401     		.2byte	0x104
 6575 12f0 01120000 		.4byte	0x1201
 6576 12f4 38       		.byte	0x38
 6577 12f5 24       		.uleb128 0x24
 6578 12f6 73333100 		.ascii	"s31\000"
 6579 12fa 15       		.byte	0x15
 6580 12fb 0501     		.2byte	0x105
 6581 12fd 01120000 		.4byte	0x1201
 6582 1301 3C       		.byte	0x3c
 6583 1302 24       		.uleb128 0x24
 6584 1303 723400   		.ascii	"r4\000"
 6585 1306 15       		.byte	0x15
 6586 1307 0701     		.2byte	0x107
 6587 1309 01120000 		.4byte	0x1201
 6588 130d 40       		.byte	0x40
 6589 130e 24       		.uleb128 0x24
 6590 130f 723500   		.ascii	"r5\000"
 6591 1312 15       		.byte	0x15
 6592 1313 0801     		.2byte	0x108
 6593 1315 01120000 		.4byte	0x1201
 6594 1319 44       		.byte	0x44
 6595 131a 24       		.uleb128 0x24
 6596 131b 723600   		.ascii	"r6\000"
 6597 131e 15       		.byte	0x15
 6598 131f 0901     		.2byte	0x109
 6599 1321 01120000 		.4byte	0x1201
 6600 1325 48       		.byte	0x48
 6601 1326 24       		.uleb128 0x24
 6602 1327 723700   		.ascii	"r7\000"
 6603 132a 15       		.byte	0x15
 6604 132b 0A01     		.2byte	0x10a
 6605 132d 01120000 		.4byte	0x1201
 6606 1331 4C       		.byte	0x4c
 6607 1332 24       		.uleb128 0x24
 6608 1333 723800   		.ascii	"r8\000"
 6609 1336 15       		.byte	0x15
 6610 1337 0B01     		.2byte	0x10b
 6611 1339 01120000 		.4byte	0x1201
 6612 133d 50       		.byte	0x50
 6613 133e 24       		.uleb128 0x24
 6614 133f 723900   		.ascii	"r9\000"
 6615 1342 15       		.byte	0x15
 6616 1343 0C01     		.2byte	0x10c
 6617 1345 01120000 		.4byte	0x1201
ARM GAS  /tmp/ccjQGkoy.s 			page 118


 6618 1349 54       		.byte	0x54
 6619 134a 24       		.uleb128 0x24
 6620 134b 72313000 		.ascii	"r10\000"
 6621 134f 15       		.byte	0x15
 6622 1350 0D01     		.2byte	0x10d
 6623 1352 01120000 		.4byte	0x1201
 6624 1356 58       		.byte	0x58
 6625 1357 24       		.uleb128 0x24
 6626 1358 72313100 		.ascii	"r11\000"
 6627 135c 15       		.byte	0x15
 6628 135d 0E01     		.2byte	0x10e
 6629 135f 01120000 		.4byte	0x1201
 6630 1363 5C       		.byte	0x5c
 6631 1364 24       		.uleb128 0x24
 6632 1365 6C7200   		.ascii	"lr\000"
 6633 1368 15       		.byte	0x15
 6634 1369 0F01     		.2byte	0x10f
 6635 136b 01120000 		.4byte	0x1201
 6636 136f 60       		.byte	0x60
 6637 1370 00       		.byte	0
 6638 1371 06       		.uleb128 0x6
 6639 1372 04       		.byte	0x4
 6640 1373 30120000 		.4byte	0x1230
 6641 1377 0D       		.uleb128 0xd
 6642 1378 04       		.byte	0x4
 6643 1379 16       		.byte	0x16
 6644 137a 38       		.byte	0x38
 6645 137b 8C130000 		.4byte	0x138c
 6646 137f 0E       		.uleb128 0xe
 6647 1380 9D310000 		.4byte	.LASF256
 6648 1384 16       		.byte	0x16
 6649 1385 3C       		.byte	0x3c
 6650 1386 9A090000 		.4byte	0x99a
 6651 138a 00       		.byte	0
 6652 138b 00       		.byte	0
 6653 138c 05       		.uleb128 0x5
 6654 138d 12080000 		.4byte	.LASF257
 6655 1391 16       		.byte	0x16
 6656 1392 3D       		.byte	0x3d
 6657 1393 77130000 		.4byte	0x1377
 6658 1397 09       		.uleb128 0x9
 6659 1398 04       		.byte	0x4
 6660 1399 10       		.byte	0x10
 6661 139a FA       		.byte	0xfa
 6662 139b F4130000 		.4byte	0x13f4
 6663 139f 1E       		.uleb128 0x1e
 6664 13a0 F3180000 		.4byte	.LASF258
 6665 13a4 10       		.byte	0x10
 6666 13a5 0101     		.2byte	0x101
 6667 13a7 DC090000 		.4byte	0x9dc
 6668 13ab 1E       		.uleb128 0x1e
 6669 13ac F1150000 		.4byte	.LASF259
 6670 13b0 10       		.byte	0x10
 6671 13b1 0801     		.2byte	0x108
 6672 13b3 DC090000 		.4byte	0x9dc
 6673 13b7 1E       		.uleb128 0x1e
 6674 13b8 BD2C0000 		.4byte	.LASF260
ARM GAS  /tmp/ccjQGkoy.s 			page 119


 6675 13bc 10       		.byte	0x10
 6676 13bd 0F01     		.2byte	0x10f
 6677 13bf 72010000 		.4byte	0x172
 6678 13c3 1E       		.uleb128 0x1e
 6679 13c4 F3240000 		.4byte	.LASF261
 6680 13c8 10       		.byte	0x10
 6681 13c9 1601     		.2byte	0x116
 6682 13cb F4130000 		.4byte	0x13f4
 6683 13cf 1E       		.uleb128 0x1e
 6684 13d0 94010000 		.4byte	.LASF262
 6685 13d4 10       		.byte	0x10
 6686 13d5 1E01     		.2byte	0x11e
 6687 13d7 1F140000 		.4byte	0x141f
 6688 13db 1E       		.uleb128 0x1e
 6689 13dc 0D2D0000 		.4byte	.LASF263
 6690 13e0 10       		.byte	0x10
 6691 13e1 2701     		.2byte	0x127
 6692 13e3 56140000 		.4byte	0x1456
 6693 13e7 1E       		.uleb128 0x1e
 6694 13e8 C1320000 		.4byte	.LASF264
 6695 13ec 10       		.byte	0x10
 6696 13ed 2F01     		.2byte	0x12f
 6697 13ef F2090000 		.4byte	0x9f2
 6698 13f3 00       		.byte	0
 6699 13f4 06       		.uleb128 0x6
 6700 13f5 04       		.byte	0x4
 6701 13f6 330B0000 		.4byte	0xb33
 6702 13fa 11       		.uleb128 0x11
 6703 13fb 38220000 		.4byte	.LASF265
 6704 13ff 0C       		.byte	0xc
 6705 1400 17       		.byte	0x17
 6706 1401 34       		.byte	0x34
 6707 1402 1F140000 		.4byte	0x141f
 6708 1406 0E       		.uleb128 0xe
 6709 1407 06360000 		.4byte	.LASF266
 6710 140b 17       		.byte	0x17
 6711 140c 35       		.byte	0x35
 6712 140d 680B0000 		.4byte	0xb68
 6713 1411 00       		.byte	0
 6714 1412 0E       		.uleb128 0xe
 6715 1413 F30D0000 		.4byte	.LASF267
 6716 1417 17       		.byte	0x17
 6717 1418 37       		.byte	0x37
 6718 1419 080A0000 		.4byte	0xa08
 6719 141d 08       		.byte	0x8
 6720 141e 00       		.byte	0
 6721 141f 06       		.uleb128 0x6
 6722 1420 04       		.byte	0x4
 6723 1421 FA130000 		.4byte	0x13fa
 6724 1425 11       		.uleb128 0x11
 6725 1426 DE100000 		.4byte	.LASF268
 6726 142a 10       		.byte	0x10
 6727 142b 18       		.byte	0x18
 6728 142c 39       		.byte	0x39
 6729 142d 56140000 		.4byte	0x1456
 6730 1431 0E       		.uleb128 0xe
 6731 1432 5C1D0000 		.4byte	.LASF269
ARM GAS  /tmp/ccjQGkoy.s 			page 120


 6732 1436 18       		.byte	0x18
 6733 1437 3A       		.byte	0x3a
 6734 1438 680B0000 		.4byte	0xb68
 6735 143c 00       		.byte	0
 6736 143d 0E       		.uleb128 0xe
 6737 143e 33210000 		.4byte	.LASF270
 6738 1442 18       		.byte	0x18
 6739 1443 3C       		.byte	0x3c
 6740 1444 3E0B0000 		.4byte	0xb3e
 6741 1448 08       		.byte	0x8
 6742 1449 0E       		.uleb128 0xe
 6743 144a 7F020000 		.4byte	.LASF271
 6744 144e 18       		.byte	0x18
 6745 144f 3E       		.byte	0x3e
 6746 1450 94150000 		.4byte	0x1594
 6747 1454 0C       		.byte	0xc
 6748 1455 00       		.byte	0
 6749 1456 06       		.uleb128 0x6
 6750 1457 04       		.byte	0x4
 6751 1458 25140000 		.4byte	0x1425
 6752 145c 06       		.uleb128 0x6
 6753 145d 04       		.byte	0x4
 6754 145e 1B0C0000 		.4byte	0xc1b
 6755 1462 0B       		.uleb128 0xb
 6756 1463 0C120000 		.4byte	0x120c
 6757 1467 72140000 		.4byte	0x1472
 6758 146b 0C       		.uleb128 0xc
 6759 146c 48000000 		.4byte	0x48
 6760 1470 3A       		.byte	0x3a
 6761 1471 00       		.byte	0
 6762 1472 28       		.uleb128 0x28
 6763 1473 636800   		.ascii	"ch\000"
 6764 1476 10       		.byte	0x10
 6765 1477 0902     		.2byte	0x209
 6766 1479 E80C0000 		.4byte	0xce8
 6767 147d 0D       		.uleb128 0xd
 6768 147e 16       		.byte	0x16
 6769 147f 02       		.byte	0x2
 6770 1480 34       		.byte	0x34
 6771 1481 5E150000 		.4byte	0x155e
 6772 1485 0E       		.uleb128 0xe
 6773 1486 76360000 		.4byte	.LASF272
 6774 148a 02       		.byte	0x2
 6775 148b 35       		.byte	0x35
 6776 148c 5E150000 		.4byte	0x155e
 6777 1490 00       		.byte	0
 6778 1491 0E       		.uleb128 0xe
 6779 1492 CB3A0000 		.4byte	.LASF273
 6780 1496 02       		.byte	0x2
 6781 1497 36       		.byte	0x36
 6782 1498 44090000 		.4byte	0x944
 6783 149c 04       		.byte	0x4
 6784 149d 0E       		.uleb128 0xe
 6785 149e A6040000 		.4byte	.LASF274
 6786 14a2 02       		.byte	0x2
 6787 14a3 37       		.byte	0x37
 6788 14a4 44090000 		.4byte	0x944
ARM GAS  /tmp/ccjQGkoy.s 			page 121


 6789 14a8 05       		.byte	0x5
 6790 14a9 0E       		.uleb128 0xe
 6791 14aa 7B210000 		.4byte	.LASF275
 6792 14ae 02       		.byte	0x2
 6793 14af 38       		.byte	0x38
 6794 14b0 5F090000 		.4byte	0x95f
 6795 14b4 06       		.byte	0x6
 6796 14b5 0E       		.uleb128 0xe
 6797 14b6 74000000 		.4byte	.LASF276
 6798 14ba 02       		.byte	0x2
 6799 14bb 39       		.byte	0x39
 6800 14bc 44090000 		.4byte	0x944
 6801 14c0 08       		.byte	0x8
 6802 14c1 0E       		.uleb128 0xe
 6803 14c2 DD1E0000 		.4byte	.LASF277
 6804 14c6 02       		.byte	0x2
 6805 14c7 3A       		.byte	0x3a
 6806 14c8 44090000 		.4byte	0x944
 6807 14cc 09       		.byte	0x9
 6808 14cd 0E       		.uleb128 0xe
 6809 14ce 583B0000 		.4byte	.LASF278
 6810 14d2 02       		.byte	0x2
 6811 14d3 3B       		.byte	0x3b
 6812 14d4 44090000 		.4byte	0x944
 6813 14d8 0A       		.byte	0xa
 6814 14d9 0E       		.uleb128 0xe
 6815 14da F5360000 		.4byte	.LASF279
 6816 14de 02       		.byte	0x2
 6817 14df 3C       		.byte	0x3c
 6818 14e0 44090000 		.4byte	0x944
 6819 14e4 0B       		.byte	0xb
 6820 14e5 0E       		.uleb128 0xe
 6821 14e6 40350000 		.4byte	.LASF280
 6822 14ea 02       		.byte	0x2
 6823 14eb 3D       		.byte	0x3d
 6824 14ec 44090000 		.4byte	0x944
 6825 14f0 0C       		.byte	0xc
 6826 14f1 0E       		.uleb128 0xe
 6827 14f2 98120000 		.4byte	.LASF281
 6828 14f6 02       		.byte	0x2
 6829 14f7 3E       		.byte	0x3e
 6830 14f8 44090000 		.4byte	0x944
 6831 14fc 0D       		.byte	0xd
 6832 14fd 0E       		.uleb128 0xe
 6833 14fe 5B080000 		.4byte	.LASF282
 6834 1502 02       		.byte	0x2
 6835 1503 3F       		.byte	0x3f
 6836 1504 44090000 		.4byte	0x944
 6837 1508 0E       		.byte	0xe
 6838 1509 0E       		.uleb128 0xe
 6839 150a 5D150000 		.4byte	.LASF283
 6840 150e 02       		.byte	0x2
 6841 150f 40       		.byte	0x40
 6842 1510 44090000 		.4byte	0x944
 6843 1514 0F       		.byte	0xf
 6844 1515 0E       		.uleb128 0xe
 6845 1516 1D180000 		.4byte	.LASF284
ARM GAS  /tmp/ccjQGkoy.s 			page 122


 6846 151a 02       		.byte	0x2
 6847 151b 41       		.byte	0x41
 6848 151c 44090000 		.4byte	0x944
 6849 1520 10       		.byte	0x10
 6850 1521 0E       		.uleb128 0xe
 6851 1522 11210000 		.4byte	.LASF285
 6852 1526 02       		.byte	0x2
 6853 1527 43       		.byte	0x43
 6854 1528 44090000 		.4byte	0x944
 6855 152c 11       		.byte	0x11
 6856 152d 0E       		.uleb128 0xe
 6857 152e 0B040000 		.4byte	.LASF286
 6858 1532 02       		.byte	0x2
 6859 1533 44       		.byte	0x44
 6860 1534 44090000 		.4byte	0x944
 6861 1538 12       		.byte	0x12
 6862 1539 0E       		.uleb128 0xe
 6863 153a F0200000 		.4byte	.LASF287
 6864 153e 02       		.byte	0x2
 6865 153f 45       		.byte	0x45
 6866 1540 44090000 		.4byte	0x944
 6867 1544 13       		.byte	0x13
 6868 1545 0E       		.uleb128 0xe
 6869 1546 982B0000 		.4byte	.LASF288
 6870 154a 02       		.byte	0x2
 6871 154b 46       		.byte	0x46
 6872 154c 44090000 		.4byte	0x944
 6873 1550 14       		.byte	0x14
 6874 1551 0E       		.uleb128 0xe
 6875 1552 72010000 		.4byte	.LASF289
 6876 1556 02       		.byte	0x2
 6877 1557 48       		.byte	0x48
 6878 1558 44090000 		.4byte	0x944
 6879 155c 15       		.byte	0x15
 6880 155d 00       		.byte	0
 6881 155e 0B       		.uleb128 0xb
 6882 155f 7A010000 		.4byte	0x17a
 6883 1563 6E150000 		.4byte	0x156e
 6884 1567 0C       		.uleb128 0xc
 6885 1568 48000000 		.4byte	0x48
 6886 156c 03       		.byte	0x3
 6887 156d 00       		.byte	0
 6888 156e 05       		.uleb128 0x5
 6889 156f 6E1E0000 		.4byte	.LASF290
 6890 1573 02       		.byte	0x2
 6891 1574 49       		.byte	0x49
 6892 1575 7D140000 		.4byte	0x147d
 6893 1579 10       		.uleb128 0x10
 6894 157a 6E150000 		.4byte	0x156e
 6895 157e 25       		.uleb128 0x25
 6896 157f E60F0000 		.4byte	.LASF291
 6897 1583 02       		.byte	0x2
 6898 1584 6E       		.byte	0x6e
 6899 1585 79150000 		.4byte	0x1579
 6900 1589 05       		.uleb128 0x5
 6901 158a 5F2F0000 		.4byte	.LASF292
 6902 158e 18       		.byte	0x18
ARM GAS  /tmp/ccjQGkoy.s 			page 123


 6903 158f 34       		.byte	0x34
 6904 1590 25140000 		.4byte	0x1425
 6905 1594 06       		.uleb128 0x6
 6906 1595 04       		.byte	0x4
 6907 1596 89150000 		.4byte	0x1589
 6908 159a 05       		.uleb128 0x5
 6909 159b 67100000 		.4byte	.LASF293
 6910 159f 03       		.byte	0x3
 6911 15a0 34       		.byte	0x34
 6912 15a1 A5150000 		.4byte	0x15a5
 6913 15a5 11       		.uleb128 0x11
 6914 15a6 9F0D0000 		.4byte	.LASF294
 6915 15aa 14       		.byte	0x14
 6916 15ab 03       		.byte	0x3
 6917 15ac 39       		.byte	0x39
 6918 15ad EE150000 		.4byte	0x15ee
 6919 15b1 0E       		.uleb128 0xe
 6920 15b2 4E030000 		.4byte	.LASF295
 6921 15b6 03       		.byte	0x3
 6922 15b7 3A       		.byte	0x3a
 6923 15b8 EE150000 		.4byte	0x15ee
 6924 15bc 00       		.byte	0
 6925 15bd 0E       		.uleb128 0xe
 6926 15be 7F300000 		.4byte	.LASF296
 6927 15c2 03       		.byte	0x3
 6928 15c3 3D       		.byte	0x3d
 6929 15c4 3E0B0000 		.4byte	0xb3e
 6930 15c8 04       		.byte	0x4
 6931 15c9 0E       		.uleb128 0xe
 6932 15ca 2E050000 		.4byte	.LASF297
 6933 15ce 03       		.byte	0x3
 6934 15cf 3F       		.byte	0x3f
 6935 15d0 F2090000 		.4byte	0x9f2
 6936 15d4 08       		.byte	0x8
 6937 15d5 0E       		.uleb128 0xe
 6938 15d6 0A330000 		.4byte	.LASF298
 6939 15da 03       		.byte	0x3
 6940 15db 41       		.byte	0x41
 6941 15dc FD090000 		.4byte	0x9fd
 6942 15e0 0C       		.byte	0xc
 6943 15e1 0E       		.uleb128 0xe
 6944 15e2 DD150000 		.4byte	.LASF299
 6945 15e6 03       		.byte	0x3
 6946 15e7 43       		.byte	0x43
 6947 15e8 FD090000 		.4byte	0x9fd
 6948 15ec 10       		.byte	0x10
 6949 15ed 00       		.byte	0
 6950 15ee 06       		.uleb128 0x6
 6951 15ef 04       		.byte	0x4
 6952 15f0 9A150000 		.4byte	0x159a
 6953 15f4 11       		.uleb128 0x11
 6954 15f5 13330000 		.4byte	.LASF300
 6955 15f9 04       		.byte	0x4
 6956 15fa 03       		.byte	0x3
 6957 15fb 4A       		.byte	0x4a
 6958 15fc 0D160000 		.4byte	0x160d
 6959 1600 0E       		.uleb128 0xe
ARM GAS  /tmp/ccjQGkoy.s 			page 124


 6960 1601 FA310000 		.4byte	.LASF301
 6961 1605 03       		.byte	0x3
 6962 1606 4B       		.byte	0x4b
 6963 1607 EE150000 		.4byte	0x15ee
 6964 160b 00       		.byte	0
 6965 160c 00       		.byte	0
 6966 160d 05       		.uleb128 0x5
 6967 160e 1B1F0000 		.4byte	.LASF302
 6968 1612 03       		.byte	0x3
 6969 1613 4E       		.byte	0x4e
 6970 1614 F4150000 		.4byte	0x15f4
 6971 1618 05       		.uleb128 0x5
 6972 1619 2E160000 		.4byte	.LASF303
 6973 161d 19       		.byte	0x19
 6974 161e 3F       		.byte	0x3f
 6975 161f 23160000 		.4byte	0x1623
 6976 1623 11       		.uleb128 0x11
 6977 1624 9E190000 		.4byte	.LASF304
 6978 1628 24       		.byte	0x24
 6979 1629 19       		.byte	0x19
 6980 162a 4D       		.byte	0x4d
 6981 162b 90160000 		.4byte	0x1690
 6982 162f 0E       		.uleb128 0xe
 6983 1630 DD070000 		.4byte	.LASF305
 6984 1634 19       		.byte	0x19
 6985 1635 4E       		.byte	0x4e
 6986 1636 680B0000 		.4byte	0xb68
 6987 163a 00       		.byte	0
 6988 163b 0E       		.uleb128 0xe
 6989 163c 07240000 		.4byte	.LASF306
 6990 1640 19       		.byte	0x19
 6991 1641 4F       		.byte	0x4f
 6992 1642 43000000 		.4byte	0x43
 6993 1646 08       		.byte	0x8
 6994 1647 0E       		.uleb128 0xe
 6995 1648 AF1A0000 		.4byte	.LASF307
 6996 164c 19       		.byte	0x19
 6997 164d 50       		.byte	0x50
 6998 164e B2160000 		.4byte	0x16b2
 6999 1652 0C       		.byte	0xc
 7000 1653 0E       		.uleb128 0xe
 7001 1654 E9060000 		.4byte	.LASF308
 7002 1658 19       		.byte	0x19
 7003 1659 51       		.byte	0x51
 7004 165a B2160000 		.4byte	0x16b2
 7005 165e 10       		.byte	0x10
 7006 165f 0E       		.uleb128 0xe
 7007 1660 D1260000 		.4byte	.LASF309
 7008 1664 19       		.byte	0x19
 7009 1665 53       		.byte	0x53
 7010 1666 B2160000 		.4byte	0x16b2
 7011 166a 14       		.byte	0x14
 7012 166b 0E       		.uleb128 0xe
 7013 166c F9240000 		.4byte	.LASF310
 7014 1670 19       		.byte	0x19
 7015 1671 54       		.byte	0x54
 7016 1672 B2160000 		.4byte	0x16b2
ARM GAS  /tmp/ccjQGkoy.s 			page 125


 7017 1676 18       		.byte	0x18
 7018 1677 0E       		.uleb128 0xe
 7019 1678 042D0000 		.4byte	.LASF311
 7020 167c 19       		.byte	0x19
 7021 167d 55       		.byte	0x55
 7022 167e 90160000 		.4byte	0x1690
 7023 1682 1C       		.byte	0x1c
 7024 1683 0E       		.uleb128 0xe
 7025 1684 6A280000 		.4byte	.LASF312
 7026 1688 19       		.byte	0x19
 7027 1689 56       		.byte	0x56
 7028 168a 72010000 		.4byte	0x172
 7029 168e 20       		.byte	0x20
 7030 168f 00       		.byte	0
 7031 1690 05       		.uleb128 0x5
 7032 1691 83060000 		.4byte	.LASF313
 7033 1695 19       		.byte	0x19
 7034 1696 42       		.byte	0x42
 7035 1697 9B160000 		.4byte	0x169b
 7036 169b 06       		.uleb128 0x6
 7037 169c 04       		.byte	0x4
 7038 169d A1160000 		.4byte	0x16a1
 7039 16a1 1F       		.uleb128 0x1f
 7040 16a2 AC160000 		.4byte	0x16ac
 7041 16a6 17       		.uleb128 0x17
 7042 16a7 AC160000 		.4byte	0x16ac
 7043 16ab 00       		.byte	0
 7044 16ac 06       		.uleb128 0x6
 7045 16ad 04       		.byte	0x4
 7046 16ae 18160000 		.4byte	0x1618
 7047 16b2 06       		.uleb128 0x6
 7048 16b3 04       		.byte	0x4
 7049 16b4 44090000 		.4byte	0x944
 7050 16b8 05       		.uleb128 0x5
 7051 16b9 23080000 		.4byte	.LASF314
 7052 16bd 19       		.byte	0x19
 7053 16be 64       		.byte	0x64
 7054 16bf 18160000 		.4byte	0x1618
 7055 16c3 05       		.uleb128 0x5
 7056 16c4 C43C0000 		.4byte	.LASF315
 7057 16c8 19       		.byte	0x19
 7058 16c9 71       		.byte	0x71
 7059 16ca 18160000 		.4byte	0x1618
 7060 16ce 16       		.uleb128 0x16
 7061 16cf 38000000 		.4byte	0x38
 7062 16d3 E7160000 		.4byte	0x16e7
 7063 16d7 17       		.uleb128 0x17
 7064 16d8 72010000 		.4byte	0x172
 7065 16dc 17       		.uleb128 0x17
 7066 16dd E7160000 		.4byte	0x16e7
 7067 16e1 17       		.uleb128 0x17
 7068 16e2 38000000 		.4byte	0x38
 7069 16e6 00       		.byte	0
 7070 16e7 06       		.uleb128 0x6
 7071 16e8 04       		.byte	0x4
 7072 16e9 4F090000 		.4byte	0x94f
 7073 16ed 06       		.uleb128 0x6
ARM GAS  /tmp/ccjQGkoy.s 			page 126


 7074 16ee 04       		.byte	0x4
 7075 16ef CE160000 		.4byte	0x16ce
 7076 16f3 16       		.uleb128 0x16
 7077 16f4 38000000 		.4byte	0x38
 7078 16f8 0C170000 		.4byte	0x170c
 7079 16fc 17       		.uleb128 0x17
 7080 16fd 72010000 		.4byte	0x172
 7081 1701 17       		.uleb128 0x17
 7082 1702 B2160000 		.4byte	0x16b2
 7083 1706 17       		.uleb128 0x17
 7084 1707 38000000 		.4byte	0x38
 7085 170b 00       		.byte	0
 7086 170c 06       		.uleb128 0x6
 7087 170d 04       		.byte	0x4
 7088 170e F3160000 		.4byte	0x16f3
 7089 1712 16       		.uleb128 0x16
 7090 1713 DC090000 		.4byte	0x9dc
 7091 1717 26170000 		.4byte	0x1726
 7092 171b 17       		.uleb128 0x17
 7093 171c 72010000 		.4byte	0x172
 7094 1720 17       		.uleb128 0x17
 7095 1721 44090000 		.4byte	0x944
 7096 1725 00       		.byte	0
 7097 1726 06       		.uleb128 0x6
 7098 1727 04       		.byte	0x4
 7099 1728 12170000 		.4byte	0x1712
 7100 172c 16       		.uleb128 0x16
 7101 172d DC090000 		.4byte	0x9dc
 7102 1731 3B170000 		.4byte	0x173b
 7103 1735 17       		.uleb128 0x17
 7104 1736 72010000 		.4byte	0x172
 7105 173a 00       		.byte	0
 7106 173b 06       		.uleb128 0x6
 7107 173c 04       		.byte	0x4
 7108 173d 2C170000 		.4byte	0x172c
 7109 1741 29       		.uleb128 0x29
 7110 1742 07       		.byte	0x7
 7111 1743 01       		.byte	0x1
 7112 1744 6C000000 		.4byte	0x6c
 7113 1748 1A       		.byte	0x1a
 7114 1749 23       		.byte	0x23
 7115 174a 61170000 		.4byte	0x1761
 7116 174e 23       		.uleb128 0x23
 7117 174f 7F350000 		.4byte	.LASF316
 7118 1753 00       		.byte	0
 7119 1754 23       		.uleb128 0x23
 7120 1755 13270000 		.4byte	.LASF317
 7121 1759 01       		.byte	0x1
 7122 175a 23       		.uleb128 0x23
 7123 175b 56060000 		.4byte	.LASF318
 7124 175f 02       		.byte	0x2
 7125 1760 00       		.byte	0
 7126 1761 05       		.uleb128 0x5
 7127 1762 67060000 		.4byte	.LASF319
 7128 1766 1A       		.byte	0x1a
 7129 1767 27       		.byte	0x27
 7130 1768 41170000 		.4byte	0x1741
ARM GAS  /tmp/ccjQGkoy.s 			page 127


 7131 176c 29       		.uleb128 0x29
 7132 176d 07       		.byte	0x7
 7133 176e 01       		.byte	0x1
 7134 176f 6C000000 		.4byte	0x6c
 7135 1773 1A       		.byte	0x1a
 7136 1774 29       		.byte	0x29
 7137 1775 86170000 		.4byte	0x1786
 7138 1779 23       		.uleb128 0x23
 7139 177a 53240000 		.4byte	.LASF320
 7140 177e 00       		.byte	0
 7141 177f 23       		.uleb128 0x23
 7142 1780 773D0000 		.4byte	.LASF321
 7143 1784 01       		.byte	0x1
 7144 1785 00       		.byte	0
 7145 1786 05       		.uleb128 0x5
 7146 1787 7B340000 		.4byte	.LASF322
 7147 178b 1A       		.byte	0x1a
 7148 178c 2C       		.byte	0x2c
 7149 178d 6C170000 		.4byte	0x176c
 7150 1791 29       		.uleb128 0x29
 7151 1792 07       		.byte	0x7
 7152 1793 01       		.byte	0x1
 7153 1794 6C000000 		.4byte	0x6c
 7154 1798 1A       		.byte	0x1a
 7155 1799 2E       		.byte	0x2e
 7156 179a B1170000 		.4byte	0x17b1
 7157 179e 23       		.uleb128 0x23
 7158 179f 372E0000 		.4byte	.LASF323
 7159 17a3 00       		.byte	0
 7160 17a4 23       		.uleb128 0x23
 7161 17a5 83120000 		.4byte	.LASF324
 7162 17a9 01       		.byte	0x1
 7163 17aa 23       		.uleb128 0x23
 7164 17ab 73130000 		.4byte	.LASF325
 7165 17af 02       		.byte	0x2
 7166 17b0 00       		.byte	0
 7167 17b1 05       		.uleb128 0x5
 7168 17b2 A5230000 		.4byte	.LASF326
 7169 17b6 1A       		.byte	0x1a
 7170 17b7 32       		.byte	0x32
 7171 17b8 91170000 		.4byte	0x1791
 7172 17bc 29       		.uleb128 0x29
 7173 17bd 07       		.byte	0x7
 7174 17be 01       		.byte	0x1
 7175 17bf 6C000000 		.4byte	0x6c
 7176 17c3 1A       		.byte	0x1a
 7177 17c4 34       		.byte	0x34
 7178 17c5 DC170000 		.4byte	0x17dc
 7179 17c9 23       		.uleb128 0x23
 7180 17ca 5E230000 		.4byte	.LASF327
 7181 17ce 00       		.byte	0
 7182 17cf 23       		.uleb128 0x23
 7183 17d0 DB0A0000 		.4byte	.LASF328
 7184 17d4 01       		.byte	0x1
 7185 17d5 23       		.uleb128 0x23
 7186 17d6 71310000 		.4byte	.LASF329
 7187 17da 02       		.byte	0x2
ARM GAS  /tmp/ccjQGkoy.s 			page 128


 7188 17db 00       		.byte	0
 7189 17dc 05       		.uleb128 0x5
 7190 17dd B83B0000 		.4byte	.LASF330
 7191 17e1 1A       		.byte	0x1a
 7192 17e2 38       		.byte	0x38
 7193 17e3 BC170000 		.4byte	0x17bc
 7194 17e7 29       		.uleb128 0x29
 7195 17e8 07       		.byte	0x7
 7196 17e9 01       		.byte	0x1
 7197 17ea 6C000000 		.4byte	0x6c
 7198 17ee 1A       		.byte	0x1a
 7199 17ef 3B       		.byte	0x3b
 7200 17f0 0D180000 		.4byte	0x180d
 7201 17f4 23       		.uleb128 0x23
 7202 17f5 40070000 		.4byte	.LASF331
 7203 17f9 00       		.byte	0
 7204 17fa 23       		.uleb128 0x23
 7205 17fb ED350000 		.4byte	.LASF332
 7206 17ff 01       		.byte	0x1
 7207 1800 23       		.uleb128 0x23
 7208 1801 B0390000 		.4byte	.LASF333
 7209 1805 02       		.byte	0x2
 7210 1806 23       		.uleb128 0x23
 7211 1807 97090000 		.4byte	.LASF334
 7212 180b 03       		.byte	0x3
 7213 180c 00       		.byte	0
 7214 180d 05       		.uleb128 0x5
 7215 180e D8200000 		.4byte	.LASF335
 7216 1812 1A       		.byte	0x1a
 7217 1813 40       		.byte	0x40
 7218 1814 E7170000 		.4byte	0x17e7
 7219 1818 29       		.uleb128 0x29
 7220 1819 07       		.byte	0x7
 7221 181a 01       		.byte	0x1
 7222 181b 6C000000 		.4byte	0x6c
 7223 181f 1A       		.byte	0x1a
 7224 1820 4A       		.byte	0x4a
 7225 1821 3E180000 		.4byte	0x183e
 7226 1825 23       		.uleb128 0x23
 7227 1826 F03C0000 		.4byte	.LASF336
 7228 182a 00       		.byte	0
 7229 182b 23       		.uleb128 0x23
 7230 182c 781D0000 		.4byte	.LASF337
 7231 1830 01       		.byte	0x1
 7232 1831 23       		.uleb128 0x23
 7233 1832 EF170000 		.4byte	.LASF338
 7234 1836 02       		.byte	0x2
 7235 1837 23       		.uleb128 0x23
 7236 1838 E2390000 		.4byte	.LASF339
 7237 183c 03       		.byte	0x3
 7238 183d 00       		.byte	0
 7239 183e 05       		.uleb128 0x5
 7240 183f 142D0000 		.4byte	.LASF340
 7241 1843 1A       		.byte	0x1a
 7242 1844 4F       		.byte	0x4f
 7243 1845 18180000 		.4byte	0x1818
 7244 1849 29       		.uleb128 0x29
ARM GAS  /tmp/ccjQGkoy.s 			page 129


 7245 184a 07       		.byte	0x7
 7246 184b 01       		.byte	0x1
 7247 184c 6C000000 		.4byte	0x6c
 7248 1850 1A       		.byte	0x1a
 7249 1851 7B       		.byte	0x7b
 7250 1852 75180000 		.4byte	0x1875
 7251 1856 23       		.uleb128 0x23
 7252 1857 1E230000 		.4byte	.LASF341
 7253 185b 00       		.byte	0
 7254 185c 23       		.uleb128 0x23
 7255 185d F6130000 		.4byte	.LASF342
 7256 1861 01       		.byte	0x1
 7257 1862 23       		.uleb128 0x23
 7258 1863 B9140000 		.4byte	.LASF343
 7259 1867 02       		.byte	0x2
 7260 1868 23       		.uleb128 0x23
 7261 1869 6B3B0000 		.4byte	.LASF344
 7262 186d 03       		.byte	0x3
 7263 186e 23       		.uleb128 0x23
 7264 186f 092A0000 		.4byte	.LASF345
 7265 1873 04       		.byte	0x4
 7266 1874 00       		.byte	0
 7267 1875 05       		.uleb128 0x5
 7268 1876 8C3B0000 		.4byte	.LASF346
 7269 187a 1A       		.byte	0x1a
 7270 187b 81       		.byte	0x81
 7271 187c 49180000 		.4byte	0x1849
 7272 1880 29       		.uleb128 0x29
 7273 1881 07       		.byte	0x7
 7274 1882 01       		.byte	0x1
 7275 1883 6C000000 		.4byte	0x6c
 7276 1887 1A       		.byte	0x1a
 7277 1888 8D       		.byte	0x8d
 7278 1889 A6180000 		.4byte	0x18a6
 7279 188d 23       		.uleb128 0x23
 7280 188e E2050000 		.4byte	.LASF347
 7281 1892 00       		.byte	0
 7282 1893 23       		.uleb128 0x23
 7283 1894 D22C0000 		.4byte	.LASF348
 7284 1898 01       		.byte	0x1
 7285 1899 23       		.uleb128 0x23
 7286 189a 640B0000 		.4byte	.LASF349
 7287 189e 02       		.byte	0x2
 7288 189f 23       		.uleb128 0x23
 7289 18a0 9C350000 		.4byte	.LASF350
 7290 18a4 03       		.byte	0x3
 7291 18a5 00       		.byte	0
 7292 18a6 05       		.uleb128 0x5
 7293 18a7 3F270000 		.4byte	.LASF351
 7294 18ab 1A       		.byte	0x1a
 7295 18ac 92       		.byte	0x92
 7296 18ad 80180000 		.4byte	0x1880
 7297 18b1 29       		.uleb128 0x29
 7298 18b2 07       		.byte	0x7
 7299 18b3 01       		.byte	0x1
 7300 18b4 6C000000 		.4byte	0x6c
 7301 18b8 1A       		.byte	0x1a
ARM GAS  /tmp/ccjQGkoy.s 			page 130


 7302 18b9 9F       		.byte	0x9f
 7303 18ba D7180000 		.4byte	0x18d7
 7304 18be 23       		.uleb128 0x23
 7305 18bf 8D060000 		.4byte	.LASF352
 7306 18c3 00       		.byte	0
 7307 18c4 23       		.uleb128 0x23
 7308 18c5 92300000 		.4byte	.LASF353
 7309 18c9 01       		.byte	0x1
 7310 18ca 23       		.uleb128 0x23
 7311 18cb 722E0000 		.4byte	.LASF354
 7312 18cf 02       		.byte	0x2
 7313 18d0 23       		.uleb128 0x23
 7314 18d1 8D170000 		.4byte	.LASF355
 7315 18d5 03       		.byte	0x3
 7316 18d6 00       		.byte	0
 7317 18d7 05       		.uleb128 0x5
 7318 18d8 D8030000 		.4byte	.LASF356
 7319 18dc 1A       		.byte	0x1a
 7320 18dd A4       		.byte	0xa4
 7321 18de B1180000 		.4byte	0x18b1
 7322 18e2 29       		.uleb128 0x29
 7323 18e3 07       		.byte	0x7
 7324 18e4 01       		.byte	0x1
 7325 18e5 6C000000 		.4byte	0x6c
 7326 18e9 1A       		.byte	0x1a
 7327 18ea A6       		.byte	0xa6
 7328 18eb 02190000 		.4byte	0x1902
 7329 18ef 23       		.uleb128 0x23
 7330 18f0 E7320000 		.4byte	.LASF357
 7331 18f4 00       		.byte	0
 7332 18f5 23       		.uleb128 0x23
 7333 18f6 7E1F0000 		.4byte	.LASF358
 7334 18fa 01       		.byte	0x1
 7335 18fb 23       		.uleb128 0x23
 7336 18fc 421F0000 		.4byte	.LASF359
 7337 1900 02       		.byte	0x2
 7338 1901 00       		.byte	0
 7339 1902 05       		.uleb128 0x5
 7340 1903 6C1C0000 		.4byte	.LASF360
 7341 1907 1A       		.byte	0x1a
 7342 1908 AA       		.byte	0xaa
 7343 1909 E2180000 		.4byte	0x18e2
 7344 190d 2A       		.uleb128 0x2a
 7345 190e C801     		.2byte	0x1c8
 7346 1910 1A       		.byte	0x1a
 7347 1911 AC       		.byte	0xac
 7348 1912 0A1F0000 		.4byte	0x1f0a
 7349 1916 0E       		.uleb128 0xe
 7350 1917 C41B0000 		.4byte	.LASF361
 7351 191b 1A       		.byte	0x1a
 7352 191c AE       		.byte	0xae
 7353 191d 61170000 		.4byte	0x1761
 7354 1921 00       		.byte	0
 7355 1922 0E       		.uleb128 0xe
 7356 1923 5D0F0000 		.4byte	.LASF362
 7357 1927 1A       		.byte	0x1a
 7358 1928 AF       		.byte	0xaf
ARM GAS  /tmp/ccjQGkoy.s 			page 131


 7359 1929 86170000 		.4byte	0x1786
 7360 192d 01       		.byte	0x1
 7361 192e 0E       		.uleb128 0xe
 7362 192f EB1B0000 		.4byte	.LASF363
 7363 1933 1A       		.byte	0x1a
 7364 1934 B0       		.byte	0xb0
 7365 1935 3E180000 		.4byte	0x183e
 7366 1939 02       		.byte	0x2
 7367 193a 0E       		.uleb128 0xe
 7368 193b 152E0000 		.4byte	.LASF364
 7369 193f 1A       		.byte	0x1a
 7370 1940 B1       		.byte	0xb1
 7371 1941 B1170000 		.4byte	0x17b1
 7372 1945 03       		.byte	0x3
 7373 1946 0E       		.uleb128 0xe
 7374 1947 F4210000 		.4byte	.LASF365
 7375 194b 1A       		.byte	0x1a
 7376 194c B3       		.byte	0xb3
 7377 194d 25000000 		.4byte	0x25
 7378 1951 04       		.byte	0x4
 7379 1952 0E       		.uleb128 0xe
 7380 1953 212A0000 		.4byte	.LASF366
 7381 1957 1A       		.byte	0x1a
 7382 1958 B4       		.byte	0xb4
 7383 1959 25000000 		.4byte	0x25
 7384 195d 08       		.byte	0x8
 7385 195e 0E       		.uleb128 0xe
 7386 195f DB380000 		.4byte	.LASF367
 7387 1963 1A       		.byte	0x1a
 7388 1964 B5       		.byte	0xb5
 7389 1965 25000000 		.4byte	0x25
 7390 1969 0C       		.byte	0xc
 7391 196a 0E       		.uleb128 0xe
 7392 196b DB020000 		.4byte	.LASF368
 7393 196f 1A       		.byte	0x1a
 7394 1970 B6       		.byte	0xb6
 7395 1971 25000000 		.4byte	0x25
 7396 1975 10       		.byte	0x10
 7397 1976 0E       		.uleb128 0xe
 7398 1977 7F000000 		.4byte	.LASF369
 7399 197b 1A       		.byte	0x1a
 7400 197c B7       		.byte	0xb7
 7401 197d 25000000 		.4byte	0x25
 7402 1981 14       		.byte	0x14
 7403 1982 0E       		.uleb128 0xe
 7404 1983 9D030000 		.4byte	.LASF370
 7405 1987 1A       		.byte	0x1a
 7406 1988 B8       		.byte	0xb8
 7407 1989 25000000 		.4byte	0x25
 7408 198d 18       		.byte	0x18
 7409 198e 0E       		.uleb128 0xe
 7410 198f 39200000 		.4byte	.LASF371
 7411 1993 1A       		.byte	0x1a
 7412 1994 B9       		.byte	0xb9
 7413 1995 25000000 		.4byte	0x25
 7414 1999 1C       		.byte	0x1c
 7415 199a 0E       		.uleb128 0xe
ARM GAS  /tmp/ccjQGkoy.s 			page 132


 7416 199b 9D0E0000 		.4byte	.LASF372
 7417 199f 1A       		.byte	0x1a
 7418 19a0 BA       		.byte	0xba
 7419 19a1 25000000 		.4byte	0x25
 7420 19a5 20       		.byte	0x20
 7421 19a6 0E       		.uleb128 0xe
 7422 19a7 62000000 		.4byte	.LASF373
 7423 19ab 1A       		.byte	0x1a
 7424 19ac BB       		.byte	0xbb
 7425 19ad 25000000 		.4byte	0x25
 7426 19b1 24       		.byte	0x24
 7427 19b2 0E       		.uleb128 0xe
 7428 19b3 8D370000 		.4byte	.LASF374
 7429 19b7 1A       		.byte	0x1a
 7430 19b8 BC       		.byte	0xbc
 7431 19b9 25000000 		.4byte	0x25
 7432 19bd 28       		.byte	0x28
 7433 19be 0E       		.uleb128 0xe
 7434 19bf 25170000 		.4byte	.LASF375
 7435 19c3 1A       		.byte	0x1a
 7436 19c4 BD       		.byte	0xbd
 7437 19c5 25000000 		.4byte	0x25
 7438 19c9 2C       		.byte	0x2c
 7439 19ca 0E       		.uleb128 0xe
 7440 19cb B6150000 		.4byte	.LASF376
 7441 19cf 1A       		.byte	0x1a
 7442 19d0 BE       		.byte	0xbe
 7443 19d1 25000000 		.4byte	0x25
 7444 19d5 30       		.byte	0x30
 7445 19d6 0E       		.uleb128 0xe
 7446 19d7 EF160000 		.4byte	.LASF377
 7447 19db 1A       		.byte	0x1a
 7448 19dc BF       		.byte	0xbf
 7449 19dd 25000000 		.4byte	0x25
 7450 19e1 34       		.byte	0x34
 7451 19e2 0E       		.uleb128 0xe
 7452 19e3 13170000 		.4byte	.LASF378
 7453 19e7 1A       		.byte	0x1a
 7454 19e8 C0       		.byte	0xc0
 7455 19e9 25000000 		.4byte	0x25
 7456 19ed 38       		.byte	0x38
 7457 19ee 0E       		.uleb128 0xe
 7458 19ef A8020000 		.4byte	.LASF379
 7459 19f3 1A       		.byte	0x1a
 7460 19f4 C1       		.byte	0xc1
 7461 19f5 0A1F0000 		.4byte	0x1f0a
 7462 19f9 3C       		.byte	0x3c
 7463 19fa 0E       		.uleb128 0xe
 7464 19fb E80E0000 		.4byte	.LASF380
 7465 19ff 1A       		.byte	0x1a
 7466 1a00 C2       		.byte	0xc2
 7467 1a01 25000000 		.4byte	0x25
 7468 1a05 40       		.byte	0x40
 7469 1a06 0E       		.uleb128 0xe
 7470 1a07 DC040000 		.4byte	.LASF381
 7471 1a0b 1A       		.byte	0x1a
 7472 1a0c C3       		.byte	0xc3
ARM GAS  /tmp/ccjQGkoy.s 			page 133


 7473 1a0d 25000000 		.4byte	0x25
 7474 1a11 44       		.byte	0x44
 7475 1a12 0E       		.uleb128 0xe
 7476 1a13 C6280000 		.4byte	.LASF382
 7477 1a17 1A       		.byte	0x1a
 7478 1a18 C4       		.byte	0xc4
 7479 1a19 25000000 		.4byte	0x25
 7480 1a1d 48       		.byte	0x48
 7481 1a1e 0E       		.uleb128 0xe
 7482 1a1f A42D0000 		.4byte	.LASF383
 7483 1a23 1A       		.byte	0x1a
 7484 1a24 C5       		.byte	0xc5
 7485 1a25 25000000 		.4byte	0x25
 7486 1a29 4C       		.byte	0x4c
 7487 1a2a 0E       		.uleb128 0xe
 7488 1a2b 25280000 		.4byte	.LASF384
 7489 1a2f 1A       		.byte	0x1a
 7490 1a30 C6       		.byte	0xc6
 7491 1a31 25000000 		.4byte	0x25
 7492 1a35 50       		.byte	0x50
 7493 1a36 0E       		.uleb128 0xe
 7494 1a37 D33A0000 		.4byte	.LASF385
 7495 1a3b 1A       		.byte	0x1a
 7496 1a3c C7       		.byte	0xc7
 7497 1a3d 25000000 		.4byte	0x25
 7498 1a41 54       		.byte	0x54
 7499 1a42 0E       		.uleb128 0xe
 7500 1a43 2C190000 		.4byte	.LASF386
 7501 1a47 1A       		.byte	0x1a
 7502 1a48 C8       		.byte	0xc8
 7503 1a49 25000000 		.4byte	0x25
 7504 1a4d 58       		.byte	0x58
 7505 1a4e 0E       		.uleb128 0xe
 7506 1a4f 7F0E0000 		.4byte	.LASF387
 7507 1a53 1A       		.byte	0x1a
 7508 1a54 C9       		.byte	0xc9
 7509 1a55 25000000 		.4byte	0x25
 7510 1a59 5C       		.byte	0x5c
 7511 1a5a 0E       		.uleb128 0xe
 7512 1a5b 31370000 		.4byte	.LASF388
 7513 1a5f 1A       		.byte	0x1a
 7514 1a60 CA       		.byte	0xca
 7515 1a61 25000000 		.4byte	0x25
 7516 1a65 60       		.byte	0x60
 7517 1a66 0E       		.uleb128 0xe
 7518 1a67 FA1F0000 		.4byte	.LASF389
 7519 1a6b 1A       		.byte	0x1a
 7520 1a6c CB       		.byte	0xcb
 7521 1a6d 25000000 		.4byte	0x25
 7522 1a71 64       		.byte	0x64
 7523 1a72 0E       		.uleb128 0xe
 7524 1a73 02220000 		.4byte	.LASF390
 7525 1a77 1A       		.byte	0x1a
 7526 1a78 CC       		.byte	0xcc
 7527 1a79 25000000 		.4byte	0x25
 7528 1a7d 68       		.byte	0x68
 7529 1a7e 0E       		.uleb128 0xe
ARM GAS  /tmp/ccjQGkoy.s 			page 134


 7530 1a7f A5130000 		.4byte	.LASF391
 7531 1a83 1A       		.byte	0x1a
 7532 1a84 CE       		.byte	0xce
 7533 1a85 25000000 		.4byte	0x25
 7534 1a89 6C       		.byte	0x6c
 7535 1a8a 0E       		.uleb128 0xe
 7536 1a8b A92A0000 		.4byte	.LASF392
 7537 1a8f 1A       		.byte	0x1a
 7538 1a90 CF       		.byte	0xcf
 7539 1a91 25000000 		.4byte	0x25
 7540 1a95 70       		.byte	0x70
 7541 1a96 0E       		.uleb128 0xe
 7542 1a97 A0300000 		.4byte	.LASF393
 7543 1a9b 1A       		.byte	0x1a
 7544 1a9c D0       		.byte	0xd0
 7545 1a9d 25000000 		.4byte	0x25
 7546 1aa1 74       		.byte	0x74
 7547 1aa2 0E       		.uleb128 0xe
 7548 1aa3 603A0000 		.4byte	.LASF394
 7549 1aa7 1A       		.byte	0x1a
 7550 1aa8 D1       		.byte	0xd1
 7551 1aa9 25000000 		.4byte	0x25
 7552 1aad 78       		.byte	0x78
 7553 1aae 0E       		.uleb128 0xe
 7554 1aaf 4B2B0000 		.4byte	.LASF395
 7555 1ab3 1A       		.byte	0x1a
 7556 1ab4 D2       		.byte	0xd2
 7557 1ab5 25000000 		.4byte	0x25
 7558 1ab9 7C       		.byte	0x7c
 7559 1aba 0E       		.uleb128 0xe
 7560 1abb 95150000 		.4byte	.LASF396
 7561 1abf 1A       		.byte	0x1a
 7562 1ac0 D3       		.byte	0xd3
 7563 1ac1 25000000 		.4byte	0x25
 7564 1ac5 80       		.byte	0x80
 7565 1ac6 0E       		.uleb128 0xe
 7566 1ac7 05180000 		.4byte	.LASF397
 7567 1acb 1A       		.byte	0x1a
 7568 1acc D5       		.byte	0xd5
 7569 1acd 25000000 		.4byte	0x25
 7570 1ad1 84       		.byte	0x84
 7571 1ad2 0E       		.uleb128 0xe
 7572 1ad3 38080000 		.4byte	.LASF398
 7573 1ad7 1A       		.byte	0x1a
 7574 1ad8 D6       		.byte	0xd6
 7575 1ad9 25000000 		.4byte	0x25
 7576 1add 88       		.byte	0x88
 7577 1ade 0E       		.uleb128 0xe
 7578 1adf 0D1C0000 		.4byte	.LASF399
 7579 1ae3 1A       		.byte	0x1a
 7580 1ae4 D7       		.byte	0xd7
 7581 1ae5 25000000 		.4byte	0x25
 7582 1ae9 8C       		.byte	0x8c
 7583 1aea 0E       		.uleb128 0xe
 7584 1aeb 041E0000 		.4byte	.LASF400
 7585 1aef 1A       		.byte	0x1a
 7586 1af0 D8       		.byte	0xd8
ARM GAS  /tmp/ccjQGkoy.s 			page 135


 7587 1af1 25000000 		.4byte	0x25
 7588 1af5 90       		.byte	0x90
 7589 1af6 0E       		.uleb128 0xe
 7590 1af7 691A0000 		.4byte	.LASF401
 7591 1afb 1A       		.byte	0x1a
 7592 1afc D9       		.byte	0xd9
 7593 1afd 25000000 		.4byte	0x25
 7594 1b01 94       		.byte	0x94
 7595 1b02 0E       		.uleb128 0xe
 7596 1b03 5B330000 		.4byte	.LASF402
 7597 1b07 1A       		.byte	0x1a
 7598 1b08 DA       		.byte	0xda
 7599 1b09 25000000 		.4byte	0x25
 7600 1b0d 98       		.byte	0x98
 7601 1b0e 0E       		.uleb128 0xe
 7602 1b0f F3270000 		.4byte	.LASF403
 7603 1b13 1A       		.byte	0x1a
 7604 1b14 DB       		.byte	0xdb
 7605 1b15 25000000 		.4byte	0x25
 7606 1b19 9C       		.byte	0x9c
 7607 1b1a 0E       		.uleb128 0xe
 7608 1b1b 001D0000 		.4byte	.LASF404
 7609 1b1f 1A       		.byte	0x1a
 7610 1b20 DD       		.byte	0xdd
 7611 1b21 111F0000 		.4byte	0x1f11
 7612 1b25 A0       		.byte	0xa0
 7613 1b26 0E       		.uleb128 0xe
 7614 1b27 192B0000 		.4byte	.LASF405
 7615 1b2b 1A       		.byte	0x1a
 7616 1b2c DE       		.byte	0xde
 7617 1b2d 25000000 		.4byte	0x25
 7618 1b31 A8       		.byte	0xa8
 7619 1b32 0E       		.uleb128 0xe
 7620 1b33 99080000 		.4byte	.LASF406
 7621 1b37 1A       		.byte	0x1a
 7622 1b38 E0       		.byte	0xe0
 7623 1b39 25000000 		.4byte	0x25
 7624 1b3d AC       		.byte	0xac
 7625 1b3e 0E       		.uleb128 0xe
 7626 1b3f 68080000 		.4byte	.LASF407
 7627 1b43 1A       		.byte	0x1a
 7628 1b44 E1       		.byte	0xe1
 7629 1b45 25000000 		.4byte	0x25
 7630 1b49 B0       		.byte	0xb0
 7631 1b4a 0E       		.uleb128 0xe
 7632 1b4b 940E0000 		.4byte	.LASF408
 7633 1b4f 1A       		.byte	0x1a
 7634 1b50 E2       		.byte	0xe2
 7635 1b51 25000000 		.4byte	0x25
 7636 1b55 B4       		.byte	0xb4
 7637 1b56 0E       		.uleb128 0xe
 7638 1b57 B4310000 		.4byte	.LASF409
 7639 1b5b 1A       		.byte	0x1a
 7640 1b5c E3       		.byte	0xe3
 7641 1b5d 25000000 		.4byte	0x25
 7642 1b61 B8       		.byte	0xb8
 7643 1b62 0E       		.uleb128 0xe
ARM GAS  /tmp/ccjQGkoy.s 			page 136


 7644 1b63 6C2F0000 		.4byte	.LASF410
 7645 1b67 1A       		.byte	0x1a
 7646 1b68 E4       		.byte	0xe4
 7647 1b69 25000000 		.4byte	0x25
 7648 1b6d BC       		.byte	0xbc
 7649 1b6e 0E       		.uleb128 0xe
 7650 1b6f B4130000 		.4byte	.LASF411
 7651 1b73 1A       		.byte	0x1a
 7652 1b74 E5       		.byte	0xe5
 7653 1b75 0A1F0000 		.4byte	0x1f0a
 7654 1b79 C0       		.byte	0xc0
 7655 1b7a 0E       		.uleb128 0xe
 7656 1b7b 68250000 		.4byte	.LASF412
 7657 1b7f 1A       		.byte	0x1a
 7658 1b80 E6       		.byte	0xe6
 7659 1b81 25000000 		.4byte	0x25
 7660 1b85 C4       		.byte	0xc4
 7661 1b86 0E       		.uleb128 0xe
 7662 1b87 950F0000 		.4byte	.LASF413
 7663 1b8b 1A       		.byte	0x1a
 7664 1b8c E7       		.byte	0xe7
 7665 1b8d 25000000 		.4byte	0x25
 7666 1b91 C8       		.byte	0xc8
 7667 1b92 0E       		.uleb128 0xe
 7668 1b93 3C0C0000 		.4byte	.LASF414
 7669 1b97 1A       		.byte	0x1a
 7670 1b98 E8       		.byte	0xe8
 7671 1b99 25000000 		.4byte	0x25
 7672 1b9d CC       		.byte	0xcc
 7673 1b9e 0E       		.uleb128 0xe
 7674 1b9f D8170000 		.4byte	.LASF415
 7675 1ba3 1A       		.byte	0x1a
 7676 1ba4 E9       		.byte	0xe9
 7677 1ba5 25000000 		.4byte	0x25
 7678 1ba9 D0       		.byte	0xd0
 7679 1baa 0E       		.uleb128 0xe
 7680 1bab 22030000 		.4byte	.LASF416
 7681 1baf 1A       		.byte	0x1a
 7682 1bb0 EA       		.byte	0xea
 7683 1bb1 25000000 		.4byte	0x25
 7684 1bb5 D4       		.byte	0xd4
 7685 1bb6 0E       		.uleb128 0xe
 7686 1bb7 65170000 		.4byte	.LASF417
 7687 1bbb 1A       		.byte	0x1a
 7688 1bbc EB       		.byte	0xeb
 7689 1bbd 25000000 		.4byte	0x25
 7690 1bc1 D8       		.byte	0xd8
 7691 1bc2 0E       		.uleb128 0xe
 7692 1bc3 080D0000 		.4byte	.LASF418
 7693 1bc7 1A       		.byte	0x1a
 7694 1bc8 EC       		.byte	0xec
 7695 1bc9 25000000 		.4byte	0x25
 7696 1bcd DC       		.byte	0xdc
 7697 1bce 0E       		.uleb128 0xe
 7698 1bcf 140D0000 		.4byte	.LASF419
 7699 1bd3 1A       		.byte	0x1a
 7700 1bd4 ED       		.byte	0xed
ARM GAS  /tmp/ccjQGkoy.s 			page 137


 7701 1bd5 25000000 		.4byte	0x25
 7702 1bd9 E0       		.byte	0xe0
 7703 1bda 0E       		.uleb128 0xe
 7704 1bdb D11D0000 		.4byte	.LASF420
 7705 1bdf 1A       		.byte	0x1a
 7706 1be0 EE       		.byte	0xee
 7707 1be1 25000000 		.4byte	0x25
 7708 1be5 E4       		.byte	0xe4
 7709 1be6 0E       		.uleb128 0xe
 7710 1be7 6C0F0000 		.4byte	.LASF421
 7711 1beb 1A       		.byte	0x1a
 7712 1bec EF       		.byte	0xef
 7713 1bed 25000000 		.4byte	0x25
 7714 1bf1 E8       		.byte	0xe8
 7715 1bf2 0E       		.uleb128 0xe
 7716 1bf3 0F010000 		.4byte	.LASF422
 7717 1bf7 1A       		.byte	0x1a
 7718 1bf8 F0       		.byte	0xf0
 7719 1bf9 25000000 		.4byte	0x25
 7720 1bfd EC       		.byte	0xec
 7721 1bfe 0E       		.uleb128 0xe
 7722 1bff 382C0000 		.4byte	.LASF423
 7723 1c03 1A       		.byte	0x1a
 7724 1c04 F1       		.byte	0xf1
 7725 1c05 25000000 		.4byte	0x25
 7726 1c09 F0       		.byte	0xf0
 7727 1c0a 0E       		.uleb128 0xe
 7728 1c0b 232C0000 		.4byte	.LASF424
 7729 1c0f 1A       		.byte	0x1a
 7730 1c10 F2       		.byte	0xf2
 7731 1c11 25000000 		.4byte	0x25
 7732 1c15 F4       		.byte	0xf4
 7733 1c16 0E       		.uleb128 0xe
 7734 1c17 3B210000 		.4byte	.LASF425
 7735 1c1b 1A       		.byte	0x1a
 7736 1c1c F3       		.byte	0xf3
 7737 1c1d 25000000 		.4byte	0x25
 7738 1c21 F8       		.byte	0xf8
 7739 1c22 0E       		.uleb128 0xe
 7740 1c23 FC200000 		.4byte	.LASF426
 7741 1c27 1A       		.byte	0x1a
 7742 1c28 F4       		.byte	0xf4
 7743 1c29 25000000 		.4byte	0x25
 7744 1c2d FC       		.byte	0xfc
 7745 1c2e 14       		.uleb128 0x14
 7746 1c2f DA2B0000 		.4byte	.LASF427
 7747 1c33 1A       		.byte	0x1a
 7748 1c34 F5       		.byte	0xf5
 7749 1c35 25000000 		.4byte	0x25
 7750 1c39 0001     		.2byte	0x100
 7751 1c3b 14       		.uleb128 0x14
 7752 1c3c A72F0000 		.4byte	.LASF428
 7753 1c40 1A       		.byte	0x1a
 7754 1c41 F6       		.byte	0xf6
 7755 1c42 25000000 		.4byte	0x25
 7756 1c46 0401     		.2byte	0x104
 7757 1c48 14       		.uleb128 0x14
ARM GAS  /tmp/ccjQGkoy.s 			page 138


 7758 1c49 3C3A0000 		.4byte	.LASF429
 7759 1c4d 1A       		.byte	0x1a
 7760 1c4e F7       		.byte	0xf7
 7761 1c4f 25000000 		.4byte	0x25
 7762 1c53 0801     		.2byte	0x108
 7763 1c55 14       		.uleb128 0x14
 7764 1c56 901C0000 		.4byte	.LASF430
 7765 1c5a 1A       		.byte	0x1a
 7766 1c5b F8       		.byte	0xf8
 7767 1c5c 25000000 		.4byte	0x25
 7768 1c60 0C01     		.2byte	0x10c
 7769 1c62 14       		.uleb128 0x14
 7770 1c63 EB2B0000 		.4byte	.LASF431
 7771 1c67 1A       		.byte	0x1a
 7772 1c68 F9       		.byte	0xf9
 7773 1c69 25000000 		.4byte	0x25
 7774 1c6d 1001     		.2byte	0x110
 7775 1c6f 14       		.uleb128 0x14
 7776 1c70 0B310000 		.4byte	.LASF432
 7777 1c74 1A       		.byte	0x1a
 7778 1c75 FA       		.byte	0xfa
 7779 1c76 DC170000 		.4byte	0x17dc
 7780 1c7a 1401     		.2byte	0x114
 7781 1c7c 14       		.uleb128 0x14
 7782 1c7d C9390000 		.4byte	.LASF433
 7783 1c81 1A       		.byte	0x1a
 7784 1c82 FB       		.byte	0xfb
 7785 1c83 211F0000 		.4byte	0x1f21
 7786 1c87 1501     		.2byte	0x115
 7787 1c89 14       		.uleb128 0x14
 7788 1c8a CF190000 		.4byte	.LASF434
 7789 1c8e 1A       		.byte	0x1a
 7790 1c8f FC       		.byte	0xfc
 7791 1c90 25000000 		.4byte	0x25
 7792 1c94 2001     		.2byte	0x120
 7793 1c96 14       		.uleb128 0x14
 7794 1c97 6B3C0000 		.4byte	.LASF435
 7795 1c9b 1A       		.byte	0x1a
 7796 1c9c FD       		.byte	0xfd
 7797 1c9d 0A1F0000 		.4byte	0x1f0a
 7798 1ca1 2401     		.2byte	0x124
 7799 1ca3 14       		.uleb128 0x14
 7800 1ca4 2A340000 		.4byte	.LASF436
 7801 1ca8 1A       		.byte	0x1a
 7802 1ca9 FE       		.byte	0xfe
 7803 1caa 0A1F0000 		.4byte	0x1f0a
 7804 1cae 2501     		.2byte	0x125
 7805 1cb0 14       		.uleb128 0x14
 7806 1cb1 D6310000 		.4byte	.LASF437
 7807 1cb5 1A       		.byte	0x1a
 7808 1cb6 FF       		.byte	0xff
 7809 1cb7 25000000 		.4byte	0x25
 7810 1cbb 2801     		.2byte	0x128
 7811 1cbd 1A       		.uleb128 0x1a
 7812 1cbe 4F270000 		.4byte	.LASF438
 7813 1cc2 1A       		.byte	0x1a
 7814 1cc3 0001     		.2byte	0x100
ARM GAS  /tmp/ccjQGkoy.s 			page 139


 7815 1cc5 0A1F0000 		.4byte	0x1f0a
 7816 1cc9 2C01     		.2byte	0x12c
 7817 1ccb 1A       		.uleb128 0x1a
 7818 1ccc F82D0000 		.4byte	.LASF439
 7819 1cd0 1A       		.byte	0x1a
 7820 1cd1 0101     		.2byte	0x101
 7821 1cd3 25000000 		.4byte	0x25
 7822 1cd7 3001     		.2byte	0x130
 7823 1cd9 1A       		.uleb128 0x1a
 7824 1cda 58390000 		.4byte	.LASF440
 7825 1cde 1A       		.byte	0x1a
 7826 1cdf 0201     		.2byte	0x102
 7827 1ce1 25000000 		.4byte	0x25
 7828 1ce5 3401     		.2byte	0x134
 7829 1ce7 1A       		.uleb128 0x1a
 7830 1ce8 18090000 		.4byte	.LASF441
 7831 1cec 1A       		.byte	0x1a
 7832 1ced 0401     		.2byte	0x104
 7833 1cef 2C000000 		.4byte	0x2c
 7834 1cf3 3801     		.2byte	0x138
 7835 1cf5 1A       		.uleb128 0x1a
 7836 1cf6 E81D0000 		.4byte	.LASF442
 7837 1cfa 1A       		.byte	0x1a
 7838 1cfb 0501     		.2byte	0x105
 7839 1cfd 2C000000 		.4byte	0x2c
 7840 1d01 3C01     		.2byte	0x13c
 7841 1d03 1A       		.uleb128 0x1a
 7842 1d04 FE120000 		.4byte	.LASF443
 7843 1d08 1A       		.byte	0x1a
 7844 1d09 0601     		.2byte	0x106
 7845 1d0b 25000000 		.4byte	0x25
 7846 1d0f 4001     		.2byte	0x140
 7847 1d11 1A       		.uleb128 0x1a
 7848 1d12 510C0000 		.4byte	.LASF444
 7849 1d16 1A       		.byte	0x1a
 7850 1d17 0701     		.2byte	0x107
 7851 1d19 25000000 		.4byte	0x25
 7852 1d1d 4401     		.2byte	0x144
 7853 1d1f 1A       		.uleb128 0x1a
 7854 1d20 63010000 		.4byte	.LASF445
 7855 1d24 1A       		.byte	0x1a
 7856 1d25 0801     		.2byte	0x108
 7857 1d27 25000000 		.4byte	0x25
 7858 1d2b 4801     		.2byte	0x148
 7859 1d2d 1A       		.uleb128 0x1a
 7860 1d2e 262B0000 		.4byte	.LASF446
 7861 1d32 1A       		.byte	0x1a
 7862 1d33 0A01     		.2byte	0x10a
 7863 1d35 25000000 		.4byte	0x25
 7864 1d39 4C01     		.2byte	0x14c
 7865 1d3b 1A       		.uleb128 0x1a
 7866 1d3c FB2A0000 		.4byte	.LASF447
 7867 1d40 1A       		.byte	0x1a
 7868 1d41 0B01     		.2byte	0x10b
 7869 1d43 25000000 		.4byte	0x25
 7870 1d47 5001     		.2byte	0x150
 7871 1d49 1A       		.uleb128 0x1a
ARM GAS  /tmp/ccjQGkoy.s 			page 140


 7872 1d4a F22A0000 		.4byte	.LASF448
 7873 1d4e 1A       		.byte	0x1a
 7874 1d4f 0C01     		.2byte	0x10c
 7875 1d51 25000000 		.4byte	0x25
 7876 1d55 5401     		.2byte	0x154
 7877 1d57 1A       		.uleb128 0x1a
 7878 1d58 B5120000 		.4byte	.LASF449
 7879 1d5c 1A       		.byte	0x1a
 7880 1d5d 0D01     		.2byte	0x10d
 7881 1d5f 25000000 		.4byte	0x25
 7882 1d63 5801     		.2byte	0x158
 7883 1d65 1A       		.uleb128 0x1a
 7884 1d66 AE0D0000 		.4byte	.LASF450
 7885 1d6a 1A       		.byte	0x1a
 7886 1d6b 0E01     		.2byte	0x10e
 7887 1d6d 25000000 		.4byte	0x25
 7888 1d71 5C01     		.2byte	0x15c
 7889 1d73 1A       		.uleb128 0x1a
 7890 1d74 FB100000 		.4byte	.LASF451
 7891 1d78 1A       		.byte	0x1a
 7892 1d79 0F01     		.2byte	0x10f
 7893 1d7b 0A1F0000 		.4byte	0x1f0a
 7894 1d7f 6001     		.2byte	0x160
 7895 1d81 1A       		.uleb128 0x1a
 7896 1d82 D9260000 		.4byte	.LASF452
 7897 1d86 1A       		.byte	0x1a
 7898 1d87 1101     		.2byte	0x111
 7899 1d89 25000000 		.4byte	0x25
 7900 1d8d 6401     		.2byte	0x164
 7901 1d8f 1A       		.uleb128 0x1a
 7902 1d90 B7260000 		.4byte	.LASF453
 7903 1d94 1A       		.byte	0x1a
 7904 1d95 1201     		.2byte	0x112
 7905 1d97 25000000 		.4byte	0x25
 7906 1d9b 6801     		.2byte	0x168
 7907 1d9d 1A       		.uleb128 0x1a
 7908 1d9e AE260000 		.4byte	.LASF454
 7909 1da2 1A       		.byte	0x1a
 7910 1da3 1301     		.2byte	0x113
 7911 1da5 25000000 		.4byte	0x25
 7912 1da9 6C01     		.2byte	0x16c
 7913 1dab 1A       		.uleb128 0x1a
 7914 1dac A4310000 		.4byte	.LASF455
 7915 1db0 1A       		.byte	0x1a
 7916 1db1 1401     		.2byte	0x114
 7917 1db3 25000000 		.4byte	0x25
 7918 1db7 7001     		.2byte	0x170
 7919 1db9 1A       		.uleb128 0x1a
 7920 1dba A2390000 		.4byte	.LASF456
 7921 1dbe 1A       		.byte	0x1a
 7922 1dbf 1501     		.2byte	0x115
 7923 1dc1 25000000 		.4byte	0x25
 7924 1dc5 7401     		.2byte	0x174
 7925 1dc7 1A       		.uleb128 0x1a
 7926 1dc8 56030000 		.4byte	.LASF457
 7927 1dcc 1A       		.byte	0x1a
 7928 1dcd 1701     		.2byte	0x117
ARM GAS  /tmp/ccjQGkoy.s 			page 141


 7929 1dcf 25000000 		.4byte	0x25
 7930 1dd3 7801     		.2byte	0x178
 7931 1dd5 1A       		.uleb128 0x1a
 7932 1dd6 C9130000 		.4byte	.LASF458
 7933 1dda 1A       		.byte	0x1a
 7934 1ddb 1801     		.2byte	0x118
 7935 1ddd 25000000 		.4byte	0x25
 7936 1de1 7C01     		.2byte	0x17c
 7937 1de3 1A       		.uleb128 0x1a
 7938 1de4 691B0000 		.4byte	.LASF459
 7939 1de8 1A       		.byte	0x1a
 7940 1de9 1901     		.2byte	0x119
 7941 1deb 25000000 		.4byte	0x25
 7942 1def 8001     		.2byte	0x180
 7943 1df1 1A       		.uleb128 0x1a
 7944 1df2 81260000 		.4byte	.LASF460
 7945 1df6 1A       		.byte	0x1a
 7946 1df7 1A01     		.2byte	0x11a
 7947 1df9 25000000 		.4byte	0x25
 7948 1dfd 8401     		.2byte	0x184
 7949 1dff 1A       		.uleb128 0x1a
 7950 1e00 C00B0000 		.4byte	.LASF461
 7951 1e04 1A       		.byte	0x1a
 7952 1e05 1C01     		.2byte	0x11c
 7953 1e07 6F090000 		.4byte	0x96f
 7954 1e0b 8801     		.2byte	0x188
 7955 1e0d 1A       		.uleb128 0x1a
 7956 1e0e 4D360000 		.4byte	.LASF462
 7957 1e12 1A       		.byte	0x1a
 7958 1e13 1D01     		.2byte	0x11d
 7959 1e15 25000000 		.4byte	0x25
 7960 1e19 8C01     		.2byte	0x18c
 7961 1e1b 1A       		.uleb128 0x1a
 7962 1e1c 83180000 		.4byte	.LASF463
 7963 1e20 1A       		.byte	0x1a
 7964 1e21 1E01     		.2byte	0x11e
 7965 1e23 25000000 		.4byte	0x25
 7966 1e27 9001     		.2byte	0x190
 7967 1e29 1A       		.uleb128 0x1a
 7968 1e2a B43D0000 		.4byte	.LASF464
 7969 1e2e 1A       		.byte	0x1a
 7970 1e2f 1F01     		.2byte	0x11f
 7971 1e31 7F090000 		.4byte	0x97f
 7972 1e35 9401     		.2byte	0x194
 7973 1e37 1A       		.uleb128 0x1a
 7974 1e38 F90E0000 		.4byte	.LASF465
 7975 1e3c 1A       		.byte	0x1a
 7976 1e3d 2001     		.2byte	0x120
 7977 1e3f 75180000 		.4byte	0x1875
 7978 1e43 9801     		.2byte	0x198
 7979 1e45 1A       		.uleb128 0x1a
 7980 1e46 B0180000 		.4byte	.LASF466
 7981 1e4a 1A       		.byte	0x1a
 7982 1e4b 2101     		.2byte	0x121
 7983 1e4d 0A1F0000 		.4byte	0x1f0a
 7984 1e51 9901     		.2byte	0x199
 7985 1e53 1A       		.uleb128 0x1a
ARM GAS  /tmp/ccjQGkoy.s 			page 142


 7986 1e54 93130000 		.4byte	.LASF467
 7987 1e58 1A       		.byte	0x1a
 7988 1e59 2201     		.2byte	0x122
 7989 1e5b A6180000 		.4byte	0x18a6
 7990 1e5f 9A01     		.2byte	0x19a
 7991 1e61 1A       		.uleb128 0x1a
 7992 1e62 43020000 		.4byte	.LASF468
 7993 1e66 1A       		.byte	0x1a
 7994 1e67 2301     		.2byte	0x123
 7995 1e69 2C000000 		.4byte	0x2c
 7996 1e6d 9C01     		.2byte	0x19c
 7997 1e6f 1A       		.uleb128 0x1a
 7998 1e70 2D2F0000 		.4byte	.LASF469
 7999 1e74 1A       		.byte	0x1a
 8000 1e75 2401     		.2byte	0x124
 8001 1e77 25000000 		.4byte	0x25
 8002 1e7b A001     		.2byte	0x1a0
 8003 1e7d 1A       		.uleb128 0x1a
 8004 1e7e 28270000 		.4byte	.LASF470
 8005 1e82 1A       		.byte	0x1a
 8006 1e83 2501     		.2byte	0x125
 8007 1e85 25000000 		.4byte	0x25
 8008 1e89 A401     		.2byte	0x1a4
 8009 1e8b 1A       		.uleb128 0x1a
 8010 1e8c 20340000 		.4byte	.LASF471
 8011 1e90 1A       		.byte	0x1a
 8012 1e91 2601     		.2byte	0x126
 8013 1e93 25000000 		.4byte	0x25
 8014 1e97 A801     		.2byte	0x1a8
 8015 1e99 1A       		.uleb128 0x1a
 8016 1e9a 2F090000 		.4byte	.LASF472
 8017 1e9e 1A       		.byte	0x1a
 8018 1e9f 2701     		.2byte	0x127
 8019 1ea1 25000000 		.4byte	0x25
 8020 1ea5 AC01     		.2byte	0x1ac
 8021 1ea7 1A       		.uleb128 0x1a
 8022 1ea8 873D0000 		.4byte	.LASF473
 8023 1eac 1A       		.byte	0x1a
 8024 1ead 2801     		.2byte	0x128
 8025 1eaf 0D180000 		.4byte	0x180d
 8026 1eb3 B001     		.2byte	0x1b0
 8027 1eb5 1A       		.uleb128 0x1a
 8028 1eb6 26250000 		.4byte	.LASF474
 8029 1eba 1A       		.byte	0x1a
 8030 1ebb 2A01     		.2byte	0x12a
 8031 1ebd 44090000 		.4byte	0x944
 8032 1ec1 B101     		.2byte	0x1b1
 8033 1ec3 1A       		.uleb128 0x1a
 8034 1ec4 74040000 		.4byte	.LASF475
 8035 1ec8 1A       		.byte	0x1a
 8036 1ec9 2B01     		.2byte	0x12b
 8037 1ecb 25000000 		.4byte	0x25
 8038 1ecf B401     		.2byte	0x1b4
 8039 1ed1 1A       		.uleb128 0x1a
 8040 1ed2 4D130000 		.4byte	.LASF476
 8041 1ed6 1A       		.byte	0x1a
 8042 1ed7 2C01     		.2byte	0x12c
ARM GAS  /tmp/ccjQGkoy.s 			page 143


 8043 1ed9 25000000 		.4byte	0x25
 8044 1edd B801     		.2byte	0x1b8
 8045 1edf 1A       		.uleb128 0x1a
 8046 1ee0 B82A0000 		.4byte	.LASF477
 8047 1ee4 1A       		.byte	0x1a
 8048 1ee5 2D01     		.2byte	0x12d
 8049 1ee7 02190000 		.4byte	0x1902
 8050 1eeb BC01     		.2byte	0x1bc
 8051 1eed 1A       		.uleb128 0x1a
 8052 1eee EF280000 		.4byte	.LASF478
 8053 1ef2 1A       		.byte	0x1a
 8054 1ef3 2E01     		.2byte	0x12e
 8055 1ef5 2C000000 		.4byte	0x2c
 8056 1ef9 C001     		.2byte	0x1c0
 8057 1efb 1A       		.uleb128 0x1a
 8058 1efc 04050000 		.4byte	.LASF479
 8059 1f00 1A       		.byte	0x1a
 8060 1f01 2F01     		.2byte	0x12f
 8061 1f03 25000000 		.4byte	0x25
 8062 1f07 C401     		.2byte	0x1c4
 8063 1f09 00       		.byte	0
 8064 1f0a 02       		.uleb128 0x2
 8065 1f0b 01       		.byte	0x1
 8066 1f0c 02       		.byte	0x2
 8067 1f0d A0010000 		.4byte	.LASF480
 8068 1f11 0B       		.uleb128 0xb
 8069 1f12 39090000 		.4byte	0x939
 8070 1f16 211F0000 		.4byte	0x1f21
 8071 1f1a 0C       		.uleb128 0xc
 8072 1f1b 48000000 		.4byte	0x48
 8073 1f1f 07       		.byte	0x7
 8074 1f20 00       		.byte	0
 8075 1f21 0B       		.uleb128 0xb
 8076 1f22 44090000 		.4byte	0x944
 8077 1f26 311F0000 		.4byte	0x1f31
 8078 1f2a 0C       		.uleb128 0xc
 8079 1f2b 48000000 		.4byte	0x48
 8080 1f2f 07       		.byte	0x7
 8081 1f30 00       		.byte	0
 8082 1f31 08       		.uleb128 0x8
 8083 1f32 5E360000 		.4byte	.LASF481
 8084 1f36 1A       		.byte	0x1a
 8085 1f37 3001     		.2byte	0x130
 8086 1f39 0D190000 		.4byte	0x190d
 8087 1f3d 2B       		.uleb128 0x2b
 8088 1f3e 07       		.byte	0x7
 8089 1f3f 01       		.byte	0x1
 8090 1f40 6C000000 		.4byte	0x6c
 8091 1f44 1A       		.byte	0x1a
 8092 1f45 3301     		.2byte	0x133
 8093 1f47 821F0000 		.4byte	0x1f82
 8094 1f4b 23       		.uleb128 0x23
 8095 1f4c 0A270000 		.4byte	.LASF482
 8096 1f50 00       		.byte	0
 8097 1f51 23       		.uleb128 0x23
 8098 1f52 39160000 		.4byte	.LASF483
 8099 1f56 01       		.byte	0x1
ARM GAS  /tmp/ccjQGkoy.s 			page 144


 8100 1f57 23       		.uleb128 0x23
 8101 1f58 7B2A0000 		.4byte	.LASF484
 8102 1f5c 02       		.byte	0x2
 8103 1f5d 23       		.uleb128 0x23
 8104 1f5e 9D3B0000 		.4byte	.LASF485
 8105 1f62 03       		.byte	0x3
 8106 1f63 23       		.uleb128 0x23
 8107 1f64 B1280000 		.4byte	.LASF486
 8108 1f68 04       		.byte	0x4
 8109 1f69 23       		.uleb128 0x23
 8110 1f6a F72C0000 		.4byte	.LASF487
 8111 1f6e 05       		.byte	0x5
 8112 1f6f 23       		.uleb128 0x23
 8113 1f70 89150000 		.4byte	.LASF488
 8114 1f74 06       		.byte	0x6
 8115 1f75 23       		.uleb128 0x23
 8116 1f76 732A0000 		.4byte	.LASF489
 8117 1f7a 07       		.byte	0x7
 8118 1f7b 23       		.uleb128 0x23
 8119 1f7c 522C0000 		.4byte	.LASF490
 8120 1f80 08       		.byte	0x8
 8121 1f81 00       		.byte	0
 8122 1f82 08       		.uleb128 0x8
 8123 1f83 B0070000 		.4byte	.LASF491
 8124 1f87 1A       		.byte	0x1a
 8125 1f88 3D01     		.2byte	0x13d
 8126 1f8a 3D1F0000 		.4byte	0x1f3d
 8127 1f8e 2B       		.uleb128 0x2b
 8128 1f8f 07       		.byte	0x7
 8129 1f90 01       		.byte	0x1
 8130 1f91 6C000000 		.4byte	0x6c
 8131 1f95 1A       		.byte	0x1a
 8132 1f96 4001     		.2byte	0x140
 8133 1f98 AF1F0000 		.4byte	0x1faf
 8134 1f9c 23       		.uleb128 0x23
 8135 1f9d 611E0000 		.4byte	.LASF492
 8136 1fa1 00       		.byte	0
 8137 1fa2 23       		.uleb128 0x23
 8138 1fa3 B50E0000 		.4byte	.LASF493
 8139 1fa7 01       		.byte	0x1
 8140 1fa8 23       		.uleb128 0x23
 8141 1fa9 08350000 		.4byte	.LASF494
 8142 1fad 02       		.byte	0x2
 8143 1fae 00       		.byte	0
 8144 1faf 08       		.uleb128 0x8
 8145 1fb0 98200000 		.4byte	.LASF495
 8146 1fb4 1A       		.byte	0x1a
 8147 1fb5 4401     		.2byte	0x144
 8148 1fb7 8E1F0000 		.4byte	0x1f8e
 8149 1fbb 2B       		.uleb128 0x2b
 8150 1fbc 07       		.byte	0x7
 8151 1fbd 01       		.byte	0x1
 8152 1fbe 6C000000 		.4byte	0x6c
 8153 1fc2 1A       		.byte	0x1a
 8154 1fc3 4701     		.2byte	0x147
 8155 1fc5 FA1F0000 		.4byte	0x1ffa
 8156 1fc9 23       		.uleb128 0x23
ARM GAS  /tmp/ccjQGkoy.s 			page 145


 8157 1fca 91000000 		.4byte	.LASF496
 8158 1fce 00       		.byte	0
 8159 1fcf 23       		.uleb128 0x23
 8160 1fd0 AD1D0000 		.4byte	.LASF497
 8161 1fd4 01       		.byte	0x1
 8162 1fd5 23       		.uleb128 0x23
 8163 1fd6 DE3A0000 		.4byte	.LASF498
 8164 1fda 02       		.byte	0x2
 8165 1fdb 23       		.uleb128 0x23
 8166 1fdc 77220000 		.4byte	.LASF499
 8167 1fe0 03       		.byte	0x3
 8168 1fe1 23       		.uleb128 0x23
 8169 1fe2 EE330000 		.4byte	.LASF500
 8170 1fe6 04       		.byte	0x4
 8171 1fe7 23       		.uleb128 0x23
 8172 1fe8 4D300000 		.4byte	.LASF501
 8173 1fec 05       		.byte	0x5
 8174 1fed 23       		.uleb128 0x23
 8175 1fee E1240000 		.4byte	.LASF502
 8176 1ff2 06       		.byte	0x6
 8177 1ff3 23       		.uleb128 0x23
 8178 1ff4 060B0000 		.4byte	.LASF503
 8179 1ff8 07       		.byte	0x7
 8180 1ff9 00       		.byte	0
 8181 1ffa 08       		.uleb128 0x8
 8182 1ffb B3160000 		.4byte	.LASF504
 8183 1fff 1A       		.byte	0x1a
 8184 2000 5001     		.2byte	0x150
 8185 2002 BB1F0000 		.4byte	0x1fbb
 8186 2006 1C       		.uleb128 0x1c
 8187 2007 38       		.byte	0x38
 8188 2008 1A       		.byte	0x1a
 8189 2009 5201     		.2byte	0x152
 8190 200b DF200000 		.4byte	0x20df
 8191 200f 19       		.uleb128 0x19
 8192 2010 58000000 		.4byte	.LASF505
 8193 2014 1A       		.byte	0x1a
 8194 2015 5301     		.2byte	0x153
 8195 2017 FA1F0000 		.4byte	0x1ffa
 8196 201b 00       		.byte	0
 8197 201c 19       		.uleb128 0x19
 8198 201d DB370000 		.4byte	.LASF506
 8199 2021 1A       		.byte	0x1a
 8200 2022 5401     		.2byte	0x154
 8201 2024 25000000 		.4byte	0x25
 8202 2028 04       		.byte	0x4
 8203 2029 19       		.uleb128 0x19
 8204 202a 9B010000 		.4byte	.LASF507
 8205 202e 1A       		.byte	0x1a
 8206 202f 5501     		.2byte	0x155
 8207 2031 25000000 		.4byte	0x25
 8208 2035 08       		.byte	0x8
 8209 2036 19       		.uleb128 0x19
 8210 2037 A4180000 		.4byte	.LASF508
 8211 203b 1A       		.byte	0x1a
 8212 203c 5601     		.2byte	0x156
 8213 203e 25000000 		.4byte	0x25
ARM GAS  /tmp/ccjQGkoy.s 			page 146


 8214 2042 0C       		.byte	0xc
 8215 2043 19       		.uleb128 0x19
 8216 2044 D8130000 		.4byte	.LASF509
 8217 2048 1A       		.byte	0x1a
 8218 2049 5701     		.2byte	0x157
 8219 204b 25000000 		.4byte	0x25
 8220 204f 10       		.byte	0x10
 8221 2050 19       		.uleb128 0x19
 8222 2051 E91E0000 		.4byte	.LASF510
 8223 2055 1A       		.byte	0x1a
 8224 2056 5801     		.2byte	0x158
 8225 2058 25000000 		.4byte	0x25
 8226 205c 14       		.byte	0x14
 8227 205d 19       		.uleb128 0x19
 8228 205e CB0E0000 		.4byte	.LASF511
 8229 2062 1A       		.byte	0x1a
 8230 2063 5901     		.2byte	0x159
 8231 2065 0A1F0000 		.4byte	0x1f0a
 8232 2069 18       		.byte	0x18
 8233 206a 19       		.uleb128 0x19
 8234 206b 1B300000 		.4byte	.LASF512
 8235 206f 1A       		.byte	0x1a
 8236 2070 5A01     		.2byte	0x15a
 8237 2072 0A1F0000 		.4byte	0x1f0a
 8238 2076 19       		.byte	0x19
 8239 2077 19       		.uleb128 0x19
 8240 2078 D4240000 		.4byte	.LASF513
 8241 207c 1A       		.byte	0x1a
 8242 207d 5B01     		.2byte	0x15b
 8243 207f 25000000 		.4byte	0x25
 8244 2083 1C       		.byte	0x1c
 8245 2084 19       		.uleb128 0x19
 8246 2085 642B0000 		.4byte	.LASF514
 8247 2089 1A       		.byte	0x1a
 8248 208a 5C01     		.2byte	0x15c
 8249 208c 25000000 		.4byte	0x25
 8250 2090 20       		.byte	0x20
 8251 2091 19       		.uleb128 0x19
 8252 2092 6E090000 		.4byte	.LASF515
 8253 2096 1A       		.byte	0x1a
 8254 2097 5D01     		.2byte	0x15d
 8255 2099 AF1F0000 		.4byte	0x1faf
 8256 209d 24       		.byte	0x24
 8257 209e 19       		.uleb128 0x19
 8258 209f 36280000 		.4byte	.LASF516
 8259 20a3 1A       		.byte	0x1a
 8260 20a4 5E01     		.2byte	0x15e
 8261 20a6 25000000 		.4byte	0x25
 8262 20aa 28       		.byte	0x28
 8263 20ab 19       		.uleb128 0x19
 8264 20ac 21130000 		.4byte	.LASF517
 8265 20b0 1A       		.byte	0x1a
 8266 20b1 5F01     		.2byte	0x15f
 8267 20b3 25000000 		.4byte	0x25
 8268 20b7 2C       		.byte	0x2c
 8269 20b8 19       		.uleb128 0x19
 8270 20b9 B0380000 		.4byte	.LASF518
ARM GAS  /tmp/ccjQGkoy.s 			page 147


 8271 20bd 1A       		.byte	0x1a
 8272 20be 6001     		.2byte	0x160
 8273 20c0 0A1F0000 		.4byte	0x1f0a
 8274 20c4 30       		.byte	0x30
 8275 20c5 24       		.uleb128 0x24
 8276 20c6 746300   		.ascii	"tc\000"
 8277 20c9 1A       		.byte	0x1a
 8278 20ca 6101     		.2byte	0x161
 8279 20cc 0A1F0000 		.4byte	0x1f0a
 8280 20d0 31       		.byte	0x31
 8281 20d1 19       		.uleb128 0x19
 8282 20d2 84080000 		.4byte	.LASF519
 8283 20d6 1A       		.byte	0x1a
 8284 20d7 6201     		.2byte	0x162
 8285 20d9 25000000 		.4byte	0x25
 8286 20dd 34       		.byte	0x34
 8287 20de 00       		.byte	0
 8288 20df 08       		.uleb128 0x8
 8289 20e0 F30A0000 		.4byte	.LASF520
 8290 20e4 1A       		.byte	0x1a
 8291 20e5 6301     		.2byte	0x163
 8292 20e7 06200000 		.4byte	0x2006
 8293 20eb 2B       		.uleb128 0x2b
 8294 20ec 07       		.byte	0x7
 8295 20ed 01       		.byte	0x1
 8296 20ee 6C000000 		.4byte	0x6c
 8297 20f2 1A       		.byte	0x1a
 8298 20f3 6601     		.2byte	0x166
 8299 20f5 54210000 		.4byte	0x2154
 8300 20f9 23       		.uleb128 0x23
 8301 20fa EF2E0000 		.4byte	.LASF521
 8302 20fe 00       		.byte	0
 8303 20ff 23       		.uleb128 0x23
 8304 2100 1B370000 		.4byte	.LASF522
 8305 2104 01       		.byte	0x1
 8306 2105 23       		.uleb128 0x23
 8307 2106 54140000 		.4byte	.LASF523
 8308 210a 02       		.byte	0x2
 8309 210b 23       		.uleb128 0x23
 8310 210c 430B0000 		.4byte	.LASF524
 8311 2110 03       		.byte	0x3
 8312 2111 23       		.uleb128 0x23
 8313 2112 16140000 		.4byte	.LASF525
 8314 2116 04       		.byte	0x4
 8315 2117 23       		.uleb128 0x23
 8316 2118 41160000 		.4byte	.LASF526
 8317 211c 05       		.byte	0x5
 8318 211d 23       		.uleb128 0x23
 8319 211e B81A0000 		.4byte	.LASF527
 8320 2122 06       		.byte	0x6
 8321 2123 23       		.uleb128 0x23
 8322 2124 4B040000 		.4byte	.LASF528
 8323 2128 07       		.byte	0x7
 8324 2129 23       		.uleb128 0x23
 8325 212a 053C0000 		.4byte	.LASF529
 8326 212e 08       		.byte	0x8
 8327 212f 23       		.uleb128 0x23
ARM GAS  /tmp/ccjQGkoy.s 			page 148


 8328 2130 52260000 		.4byte	.LASF530
 8329 2134 09       		.byte	0x9
 8330 2135 23       		.uleb128 0x23
 8331 2136 95160000 		.4byte	.LASF531
 8332 213a 0A       		.byte	0xa
 8333 213b 23       		.uleb128 0x23
 8334 213c CD1B0000 		.4byte	.LASF532
 8335 2140 0B       		.byte	0xb
 8336 2141 23       		.uleb128 0x23
 8337 2142 36380000 		.4byte	.LASF533
 8338 2146 0C       		.byte	0xc
 8339 2147 23       		.uleb128 0x23
 8340 2148 D5340000 		.4byte	.LASF534
 8341 214c 0D       		.byte	0xd
 8342 214d 23       		.uleb128 0x23
 8343 214e FE1E0000 		.4byte	.LASF535
 8344 2152 0E       		.byte	0xe
 8345 2153 00       		.byte	0
 8346 2154 08       		.uleb128 0x8
 8347 2155 E12A0000 		.4byte	.LASF536
 8348 2159 1A       		.byte	0x1a
 8349 215a 7601     		.2byte	0x176
 8350 215c EB200000 		.4byte	0x20eb
 8351 2160 1C       		.uleb128 0x1c
 8352 2161 44       		.byte	0x44
 8353 2162 1A       		.byte	0x1a
 8354 2163 7801     		.2byte	0x178
 8355 2165 87220000 		.4byte	0x2287
 8356 2169 19       		.uleb128 0x19
 8357 216a 58000000 		.4byte	.LASF505
 8358 216e 1A       		.byte	0x1a
 8359 216f 7901     		.2byte	0x179
 8360 2171 54210000 		.4byte	0x2154
 8361 2175 00       		.byte	0
 8362 2176 19       		.uleb128 0x19
 8363 2177 9B010000 		.4byte	.LASF507
 8364 217b 1A       		.byte	0x1a
 8365 217c 7A01     		.2byte	0x17a
 8366 217e 25000000 		.4byte	0x25
 8367 2182 04       		.byte	0x4
 8368 2183 19       		.uleb128 0x19
 8369 2184 260B0000 		.4byte	.LASF537
 8370 2188 1A       		.byte	0x1a
 8371 2189 7B01     		.2byte	0x17b
 8372 218b 25000000 		.4byte	0x25
 8373 218f 08       		.byte	0x8
 8374 2190 19       		.uleb128 0x19
 8375 2191 5D270000 		.4byte	.LASF538
 8376 2195 1A       		.byte	0x1a
 8377 2196 7C01     		.2byte	0x17c
 8378 2198 25000000 		.4byte	0x25
 8379 219c 0C       		.byte	0xc
 8380 219d 19       		.uleb128 0x19
 8381 219e 26300000 		.4byte	.LASF539
 8382 21a2 1A       		.byte	0x1a
 8383 21a3 7D01     		.2byte	0x17d
 8384 21a5 25000000 		.4byte	0x25
ARM GAS  /tmp/ccjQGkoy.s 			page 149


 8385 21a9 10       		.byte	0x10
 8386 21aa 19       		.uleb128 0x19
 8387 21ab 930A0000 		.4byte	.LASF540
 8388 21af 1A       		.byte	0x1a
 8389 21b0 7E01     		.2byte	0x17e
 8390 21b2 25000000 		.4byte	0x25
 8391 21b6 14       		.byte	0x14
 8392 21b7 19       		.uleb128 0x19
 8393 21b8 01230000 		.4byte	.LASF541
 8394 21bc 1A       		.byte	0x1a
 8395 21bd 7F01     		.2byte	0x17f
 8396 21bf 25000000 		.4byte	0x25
 8397 21c3 18       		.byte	0x18
 8398 21c4 19       		.uleb128 0x19
 8399 21c5 42360000 		.4byte	.LASF542
 8400 21c9 1A       		.byte	0x1a
 8401 21ca 8001     		.2byte	0x180
 8402 21cc 0A1F0000 		.4byte	0x1f0a
 8403 21d0 1C       		.byte	0x1c
 8404 21d1 19       		.uleb128 0x19
 8405 21d2 1B300000 		.4byte	.LASF512
 8406 21d6 1A       		.byte	0x1a
 8407 21d7 8101     		.2byte	0x181
 8408 21d9 0A1F0000 		.4byte	0x1f0a
 8409 21dd 1D       		.byte	0x1d
 8410 21de 19       		.uleb128 0x19
 8411 21df DE010000 		.4byte	.LASF543
 8412 21e3 1A       		.byte	0x1a
 8413 21e4 8201     		.2byte	0x182
 8414 21e6 0A1F0000 		.4byte	0x1f0a
 8415 21ea 1E       		.byte	0x1e
 8416 21eb 19       		.uleb128 0x19
 8417 21ec 2A2D0000 		.4byte	.LASF544
 8418 21f0 1A       		.byte	0x1a
 8419 21f1 8301     		.2byte	0x183
 8420 21f3 0A1F0000 		.4byte	0x1f0a
 8421 21f7 1F       		.byte	0x1f
 8422 21f8 19       		.uleb128 0x19
 8423 21f9 65020000 		.4byte	.LASF545
 8424 21fd 1A       		.byte	0x1a
 8425 21fe 8401     		.2byte	0x184
 8426 2200 0A1F0000 		.4byte	0x1f0a
 8427 2204 20       		.byte	0x20
 8428 2205 19       		.uleb128 0x19
 8429 2206 0C0F0000 		.4byte	.LASF546
 8430 220a 1A       		.byte	0x1a
 8431 220b 8501     		.2byte	0x185
 8432 220d 0A1F0000 		.4byte	0x1f0a
 8433 2211 21       		.byte	0x21
 8434 2212 19       		.uleb128 0x19
 8435 2213 D4240000 		.4byte	.LASF513
 8436 2217 1A       		.byte	0x1a
 8437 2218 8601     		.2byte	0x186
 8438 221a 25000000 		.4byte	0x25
 8439 221e 24       		.byte	0x24
 8440 221f 19       		.uleb128 0x19
 8441 2220 642B0000 		.4byte	.LASF514
ARM GAS  /tmp/ccjQGkoy.s 			page 150


 8442 2224 1A       		.byte	0x1a
 8443 2225 8701     		.2byte	0x187
 8444 2227 25000000 		.4byte	0x25
 8445 222b 28       		.byte	0x28
 8446 222c 19       		.uleb128 0x19
 8447 222d 6E090000 		.4byte	.LASF515
 8448 2231 1A       		.byte	0x1a
 8449 2232 8801     		.2byte	0x188
 8450 2234 AF1F0000 		.4byte	0x1faf
 8451 2238 2C       		.byte	0x2c
 8452 2239 19       		.uleb128 0x19
 8453 223a 36280000 		.4byte	.LASF516
 8454 223e 1A       		.byte	0x1a
 8455 223f 8901     		.2byte	0x189
 8456 2241 25000000 		.4byte	0x25
 8457 2245 30       		.byte	0x30
 8458 2246 19       		.uleb128 0x19
 8459 2247 21130000 		.4byte	.LASF517
 8460 224b 1A       		.byte	0x1a
 8461 224c 8A01     		.2byte	0x18a
 8462 224e 25000000 		.4byte	0x25
 8463 2252 34       		.byte	0x34
 8464 2253 19       		.uleb128 0x19
 8465 2254 B0380000 		.4byte	.LASF518
 8466 2258 1A       		.byte	0x1a
 8467 2259 8B01     		.2byte	0x18b
 8468 225b 0A1F0000 		.4byte	0x1f0a
 8469 225f 38       		.byte	0x38
 8470 2260 24       		.uleb128 0x24
 8471 2261 746300   		.ascii	"tc\000"
 8472 2264 1A       		.byte	0x1a
 8473 2265 8C01     		.2byte	0x18c
 8474 2267 0A1F0000 		.4byte	0x1f0a
 8475 226b 39       		.byte	0x39
 8476 226c 19       		.uleb128 0x19
 8477 226d 84080000 		.4byte	.LASF519
 8478 2271 1A       		.byte	0x1a
 8479 2272 8D01     		.2byte	0x18d
 8480 2274 25000000 		.4byte	0x25
 8481 2278 3C       		.byte	0x3c
 8482 2279 19       		.uleb128 0x19
 8483 227a 0A190000 		.4byte	.LASF547
 8484 227e 1A       		.byte	0x1a
 8485 227f 8E01     		.2byte	0x18e
 8486 2281 7F090000 		.4byte	0x97f
 8487 2285 40       		.byte	0x40
 8488 2286 00       		.byte	0
 8489 2287 08       		.uleb128 0x8
 8490 2288 900B0000 		.4byte	.LASF548
 8491 228c 1A       		.byte	0x1a
 8492 228d 8F01     		.2byte	0x18f
 8493 228f 60210000 		.4byte	0x2160
 8494 2293 2B       		.uleb128 0x2b
 8495 2294 07       		.byte	0x7
 8496 2295 01       		.byte	0x1
 8497 2296 6C000000 		.4byte	0x6c
 8498 229a 1A       		.byte	0x1a
ARM GAS  /tmp/ccjQGkoy.s 			page 151


 8499 229b 9201     		.2byte	0x192
 8500 229d B4220000 		.4byte	0x22b4
 8501 22a1 23       		.uleb128 0x23
 8502 22a2 D7220000 		.4byte	.LASF549
 8503 22a6 00       		.byte	0
 8504 22a7 23       		.uleb128 0x23
 8505 22a8 35000000 		.4byte	.LASF550
 8506 22ac 01       		.byte	0x1
 8507 22ad 23       		.uleb128 0x23
 8508 22ae BA220000 		.4byte	.LASF551
 8509 22b2 02       		.byte	0x2
 8510 22b3 00       		.byte	0
 8511 22b4 08       		.uleb128 0x8
 8512 22b5 80230000 		.4byte	.LASF552
 8513 22b9 1A       		.byte	0x1a
 8514 22ba 9601     		.2byte	0x196
 8515 22bc 93220000 		.4byte	0x2293
 8516 22c0 1C       		.uleb128 0x1c
 8517 22c1 24       		.byte	0x24
 8518 22c2 1A       		.byte	0x1a
 8519 22c3 9801     		.2byte	0x198
 8520 22c5 58230000 		.4byte	0x2358
 8521 22c9 19       		.uleb128 0x19
 8522 22ca 58000000 		.4byte	.LASF505
 8523 22ce 1A       		.byte	0x1a
 8524 22cf 9901     		.2byte	0x199
 8525 22d1 B4220000 		.4byte	0x22b4
 8526 22d5 00       		.byte	0
 8527 22d6 19       		.uleb128 0x19
 8528 22d7 9B010000 		.4byte	.LASF507
 8529 22db 1A       		.byte	0x1a
 8530 22dc 9A01     		.2byte	0x19a
 8531 22de 25000000 		.4byte	0x25
 8532 22e2 04       		.byte	0x4
 8533 22e3 19       		.uleb128 0x19
 8534 22e4 36280000 		.4byte	.LASF516
 8535 22e8 1A       		.byte	0x1a
 8536 22e9 9B01     		.2byte	0x19b
 8537 22eb 25000000 		.4byte	0x25
 8538 22ef 08       		.byte	0x8
 8539 22f0 19       		.uleb128 0x19
 8540 22f1 21130000 		.4byte	.LASF517
 8541 22f5 1A       		.byte	0x1a
 8542 22f6 9C01     		.2byte	0x19c
 8543 22f8 25000000 		.4byte	0x25
 8544 22fc 0C       		.byte	0xc
 8545 22fd 19       		.uleb128 0x19
 8546 22fe 7E0F0000 		.4byte	.LASF553
 8547 2302 1A       		.byte	0x1a
 8548 2303 9D01     		.2byte	0x19d
 8549 2305 25000000 		.4byte	0x25
 8550 2309 10       		.byte	0x10
 8551 230a 19       		.uleb128 0x19
 8552 230b D4240000 		.4byte	.LASF513
 8553 230f 1A       		.byte	0x1a
 8554 2310 9E01     		.2byte	0x19e
 8555 2312 25000000 		.4byte	0x25
ARM GAS  /tmp/ccjQGkoy.s 			page 152


 8556 2316 14       		.byte	0x14
 8557 2317 19       		.uleb128 0x19
 8558 2318 642B0000 		.4byte	.LASF514
 8559 231c 1A       		.byte	0x1a
 8560 231d 9F01     		.2byte	0x19f
 8561 231f 25000000 		.4byte	0x25
 8562 2323 18       		.byte	0x18
 8563 2324 19       		.uleb128 0x19
 8564 2325 6E090000 		.4byte	.LASF515
 8565 2329 1A       		.byte	0x1a
 8566 232a A001     		.2byte	0x1a0
 8567 232c AF1F0000 		.4byte	0x1faf
 8568 2330 1C       		.byte	0x1c
 8569 2331 19       		.uleb128 0x19
 8570 2332 B0380000 		.4byte	.LASF518
 8571 2336 1A       		.byte	0x1a
 8572 2337 A101     		.2byte	0x1a1
 8573 2339 0A1F0000 		.4byte	0x1f0a
 8574 233d 1D       		.byte	0x1d
 8575 233e 24       		.uleb128 0x24
 8576 233f 746300   		.ascii	"tc\000"
 8577 2342 1A       		.byte	0x1a
 8578 2343 A201     		.2byte	0x1a2
 8579 2345 0A1F0000 		.4byte	0x1f0a
 8580 2349 1E       		.byte	0x1e
 8581 234a 19       		.uleb128 0x19
 8582 234b 84080000 		.4byte	.LASF519
 8583 234f 1A       		.byte	0x1a
 8584 2350 A301     		.2byte	0x1a3
 8585 2352 25000000 		.4byte	0x25
 8586 2356 20       		.byte	0x20
 8587 2357 00       		.byte	0
 8588 2358 08       		.uleb128 0x8
 8589 2359 D52E0000 		.4byte	.LASF554
 8590 235d 1A       		.byte	0x1a
 8591 235e A401     		.2byte	0x1a4
 8592 2360 C0220000 		.4byte	0x22c0
 8593 2364 2B       		.uleb128 0x2b
 8594 2365 07       		.byte	0x7
 8595 2366 01       		.byte	0x1
 8596 2367 6C000000 		.4byte	0x6c
 8597 236b 1A       		.byte	0x1a
 8598 236c A701     		.2byte	0x1a7
 8599 236e 85230000 		.4byte	0x2385
 8600 2372 23       		.uleb128 0x23
 8601 2373 29220000 		.4byte	.LASF555
 8602 2377 00       		.byte	0
 8603 2378 23       		.uleb128 0x23
 8604 2379 A72B0000 		.4byte	.LASF556
 8605 237d 01       		.byte	0x1
 8606 237e 23       		.uleb128 0x23
 8607 237f A22C0000 		.4byte	.LASF557
 8608 2383 02       		.byte	0x2
 8609 2384 00       		.byte	0
 8610 2385 08       		.uleb128 0x8
 8611 2386 17130000 		.4byte	.LASF558
 8612 238a 1A       		.byte	0x1a
ARM GAS  /tmp/ccjQGkoy.s 			page 153


 8613 238b AB01     		.2byte	0x1ab
 8614 238d 64230000 		.4byte	0x2364
 8615 2391 2B       		.uleb128 0x2b
 8616 2392 07       		.byte	0x7
 8617 2393 01       		.byte	0x1
 8618 2394 6C000000 		.4byte	0x6c
 8619 2398 1A       		.byte	0x1a
 8620 2399 AD01     		.2byte	0x1ad
 8621 239b BE230000 		.4byte	0x23be
 8622 239f 23       		.uleb128 0x23
 8623 23a0 04030000 		.4byte	.LASF559
 8624 23a4 00       		.byte	0
 8625 23a5 23       		.uleb128 0x23
 8626 23a6 D50C0000 		.4byte	.LASF560
 8627 23aa 01       		.byte	0x1
 8628 23ab 23       		.uleb128 0x23
 8629 23ac 6F0E0000 		.4byte	.LASF561
 8630 23b0 02       		.byte	0x2
 8631 23b1 23       		.uleb128 0x23
 8632 23b2 97040000 		.4byte	.LASF562
 8633 23b6 03       		.byte	0x3
 8634 23b7 23       		.uleb128 0x23
 8635 23b8 0E290000 		.4byte	.LASF563
 8636 23bc 04       		.byte	0x4
 8637 23bd 00       		.byte	0
 8638 23be 08       		.uleb128 0x8
 8639 23bf 01260000 		.4byte	.LASF564
 8640 23c3 1A       		.byte	0x1a
 8641 23c4 B301     		.2byte	0x1b3
 8642 23c6 91230000 		.4byte	0x2391
 8643 23ca 2B       		.uleb128 0x2b
 8644 23cb 07       		.byte	0x7
 8645 23cc 01       		.byte	0x1
 8646 23cd 6C000000 		.4byte	0x6c
 8647 23d1 1A       		.byte	0x1a
 8648 23d2 BB01     		.2byte	0x1bb
 8649 23d4 EB230000 		.4byte	0x23eb
 8650 23d8 23       		.uleb128 0x23
 8651 23d9 C0260000 		.4byte	.LASF565
 8652 23dd 00       		.byte	0
 8653 23de 23       		.uleb128 0x23
 8654 23df 5E370000 		.4byte	.LASF566
 8655 23e3 01       		.byte	0x1
 8656 23e4 23       		.uleb128 0x23
 8657 23e5 BA380000 		.4byte	.LASF567
 8658 23e9 02       		.byte	0x2
 8659 23ea 00       		.byte	0
 8660 23eb 08       		.uleb128 0x8
 8661 23ec E5090000 		.4byte	.LASF568
 8662 23f0 1A       		.byte	0x1a
 8663 23f1 BF01     		.2byte	0x1bf
 8664 23f3 CA230000 		.4byte	0x23ca
 8665 23f7 2B       		.uleb128 0x2b
 8666 23f8 07       		.byte	0x7
 8667 23f9 01       		.byte	0x1
 8668 23fa 6C000000 		.4byte	0x6c
 8669 23fe 1A       		.byte	0x1a
ARM GAS  /tmp/ccjQGkoy.s 			page 154


 8670 23ff C101     		.2byte	0x1c1
 8671 2401 66240000 		.4byte	0x2466
 8672 2405 23       		.uleb128 0x23
 8673 2406 1E210000 		.4byte	.LASF569
 8674 240a 00       		.byte	0
 8675 240b 23       		.uleb128 0x23
 8676 240c 82040000 		.4byte	.LASF570
 8677 2410 01       		.byte	0x1
 8678 2411 23       		.uleb128 0x23
 8679 2412 2D010000 		.4byte	.LASF571
 8680 2416 02       		.byte	0x2
 8681 2417 23       		.uleb128 0x23
 8682 2418 D1350000 		.4byte	.LASF572
 8683 241c 03       		.byte	0x3
 8684 241d 23       		.uleb128 0x23
 8685 241e C5380000 		.4byte	.LASF573
 8686 2422 04       		.byte	0x4
 8687 2423 23       		.uleb128 0x23
 8688 2424 711B0000 		.4byte	.LASF574
 8689 2428 05       		.byte	0x5
 8690 2429 23       		.uleb128 0x23
 8691 242a 861D0000 		.4byte	.LASF575
 8692 242e 06       		.byte	0x6
 8693 242f 23       		.uleb128 0x23
 8694 2430 B6340000 		.4byte	.LASF576
 8695 2434 07       		.byte	0x7
 8696 2435 23       		.uleb128 0x23
 8697 2436 78100000 		.4byte	.LASF577
 8698 243a 08       		.byte	0x8
 8699 243b 23       		.uleb128 0x23
 8700 243c 2F170000 		.4byte	.LASF578
 8701 2440 09       		.byte	0x9
 8702 2441 23       		.uleb128 0x23
 8703 2442 EA1C0000 		.4byte	.LASF579
 8704 2446 0A       		.byte	0xa
 8705 2447 23       		.uleb128 0x23
 8706 2448 3B330000 		.4byte	.LASF580
 8707 244c 0B       		.byte	0xb
 8708 244d 23       		.uleb128 0x23
 8709 244e 8B360000 		.4byte	.LASF581
 8710 2452 0C       		.byte	0xc
 8711 2453 23       		.uleb128 0x23
 8712 2454 B9190000 		.4byte	.LASF582
 8713 2458 0D       		.byte	0xd
 8714 2459 23       		.uleb128 0x23
 8715 245a 76280000 		.4byte	.LASF583
 8716 245e 0E       		.byte	0xe
 8717 245f 23       		.uleb128 0x23
 8718 2460 EF0F0000 		.4byte	.LASF584
 8719 2464 0F       		.byte	0xf
 8720 2465 00       		.byte	0
 8721 2466 08       		.uleb128 0x8
 8722 2467 0D060000 		.4byte	.LASF585
 8723 246b 1A       		.byte	0x1a
 8724 246c D201     		.2byte	0x1d2
 8725 246e F7230000 		.4byte	0x23f7
 8726 2472 1C       		.uleb128 0x1c
ARM GAS  /tmp/ccjQGkoy.s 			page 155


 8727 2473 0A       		.byte	0xa
 8728 2474 1A       		.byte	0x1a
 8729 2475 D401     		.2byte	0x1d4
 8730 2477 E4240000 		.4byte	0x24e4
 8731 247b 19       		.uleb128 0x19
 8732 247c 4E2E0000 		.4byte	.LASF586
 8733 2480 1A       		.byte	0x1a
 8734 2481 D501     		.2byte	0x1d5
 8735 2483 85230000 		.4byte	0x2385
 8736 2487 00       		.byte	0
 8737 2488 19       		.uleb128 0x19
 8738 2489 04270000 		.4byte	.LASF587
 8739 248d 1A       		.byte	0x1a
 8740 248e D601     		.2byte	0x1d6
 8741 2490 BE230000 		.4byte	0x23be
 8742 2494 01       		.byte	0x1
 8743 2495 19       		.uleb128 0x19
 8744 2496 34230000 		.4byte	.LASF588
 8745 249a 1A       		.byte	0x1a
 8746 249b D701     		.2byte	0x1d7
 8747 249d EB230000 		.4byte	0x23eb
 8748 24a1 02       		.byte	0x2
 8749 24a2 19       		.uleb128 0x19
 8750 24a3 6D380000 		.4byte	.LASF589
 8751 24a7 1A       		.byte	0x1a
 8752 24a8 D801     		.2byte	0x1d8
 8753 24aa 66240000 		.4byte	0x2466
 8754 24ae 03       		.byte	0x3
 8755 24af 19       		.uleb128 0x19
 8756 24b0 FC300000 		.4byte	.LASF590
 8757 24b4 1A       		.byte	0x1a
 8758 24b5 D901     		.2byte	0x1d9
 8759 24b7 6C000000 		.4byte	0x6c
 8760 24bb 04       		.byte	0x4
 8761 24bc 19       		.uleb128 0x19
 8762 24bd 421B0000 		.4byte	.LASF591
 8763 24c1 1A       		.byte	0x1a
 8764 24c2 DA01     		.2byte	0x1da
 8765 24c4 6C000000 		.4byte	0x6c
 8766 24c8 05       		.byte	0x5
 8767 24c9 19       		.uleb128 0x19
 8768 24ca 501A0000 		.4byte	.LASF592
 8769 24ce 1A       		.byte	0x1a
 8770 24cf DB01     		.2byte	0x1db
 8771 24d1 41060000 		.4byte	0x641
 8772 24d5 06       		.byte	0x6
 8773 24d6 19       		.uleb128 0x19
 8774 24d7 01160000 		.4byte	.LASF593
 8775 24db 1A       		.byte	0x1a
 8776 24dc DC01     		.2byte	0x1dc
 8777 24de 0A1F0000 		.4byte	0x1f0a
 8778 24e2 09       		.byte	0x9
 8779 24e3 00       		.byte	0
 8780 24e4 08       		.uleb128 0x8
 8781 24e5 450E0000 		.4byte	.LASF594
 8782 24e9 1A       		.byte	0x1a
 8783 24ea DD01     		.2byte	0x1dd
ARM GAS  /tmp/ccjQGkoy.s 			page 156


 8784 24ec 72240000 		.4byte	0x2472
 8785 24f0 2B       		.uleb128 0x2b
 8786 24f1 07       		.byte	0x7
 8787 24f2 01       		.byte	0x1
 8788 24f3 6C000000 		.4byte	0x6c
 8789 24f7 1A       		.byte	0x1a
 8790 24f8 E001     		.2byte	0x1e0
 8791 24fa 1D250000 		.4byte	0x251d
 8792 24fe 23       		.uleb128 0x23
 8793 24ff FD010000 		.4byte	.LASF595
 8794 2503 00       		.byte	0
 8795 2504 23       		.uleb128 0x23
 8796 2505 32150000 		.4byte	.LASF596
 8797 2509 01       		.byte	0x1
 8798 250a 23       		.uleb128 0x23
 8799 250b 29110000 		.4byte	.LASF597
 8800 250f 02       		.byte	0x2
 8801 2510 23       		.uleb128 0x23
 8802 2511 100A0000 		.4byte	.LASF598
 8803 2515 03       		.byte	0x3
 8804 2516 23       		.uleb128 0x23
 8805 2517 7D160000 		.4byte	.LASF599
 8806 251b 04       		.byte	0x4
 8807 251c 00       		.byte	0
 8808 251d 08       		.uleb128 0x8
 8809 251e 2B1B0000 		.4byte	.LASF600
 8810 2522 1A       		.byte	0x1a
 8811 2523 E601     		.2byte	0x1e6
 8812 2525 F0240000 		.4byte	0x24f0
 8813 2529 1C       		.uleb128 0x1c
 8814 252a CC       		.byte	0xcc
 8815 252b 1A       		.byte	0x1a
 8816 252c E801     		.2byte	0x1e8
 8817 252e 03260000 		.4byte	0x2603
 8818 2532 19       		.uleb128 0x19
 8819 2533 243A0000 		.4byte	.LASF601
 8820 2537 1A       		.byte	0x1a
 8821 2538 EA01     		.2byte	0x1ea
 8822 253a 44090000 		.4byte	0x944
 8823 253e 00       		.byte	0
 8824 253f 19       		.uleb128 0x19
 8825 2540 DD140000 		.4byte	.LASF602
 8826 2544 1A       		.byte	0x1a
 8827 2545 EB01     		.2byte	0x1eb
 8828 2547 7F090000 		.4byte	0x97f
 8829 254b 04       		.byte	0x4
 8830 254c 19       		.uleb128 0x19
 8831 254d 301E0000 		.4byte	.LASF603
 8832 2551 1A       		.byte	0x1a
 8833 2552 EC01     		.2byte	0x1ec
 8834 2554 25000000 		.4byte	0x25
 8835 2558 08       		.byte	0x8
 8836 2559 19       		.uleb128 0x19
 8837 255a 05150000 		.4byte	.LASF604
 8838 255e 1A       		.byte	0x1a
 8839 255f ED01     		.2byte	0x1ed
 8840 2561 1D250000 		.4byte	0x251d
ARM GAS  /tmp/ccjQGkoy.s 			page 157


 8841 2565 0C       		.byte	0xc
 8842 2566 19       		.uleb128 0x19
 8843 2567 40390000 		.4byte	.LASF605
 8844 256b 1A       		.byte	0x1a
 8845 256c EE01     		.2byte	0x1ee
 8846 256e 7F090000 		.4byte	0x97f
 8847 2572 10       		.byte	0x10
 8848 2573 19       		.uleb128 0x19
 8849 2574 94380000 		.4byte	.LASF606
 8850 2578 1A       		.byte	0x1a
 8851 2579 EF01     		.2byte	0x1ef
 8852 257b D7180000 		.4byte	0x18d7
 8853 257f 14       		.byte	0x14
 8854 2580 19       		.uleb128 0x19
 8855 2581 FA3A0000 		.4byte	.LASF607
 8856 2585 1A       		.byte	0x1a
 8857 2586 F001     		.2byte	0x1f0
 8858 2588 0A1F0000 		.4byte	0x1f0a
 8859 258c 15       		.byte	0x15
 8860 258d 19       		.uleb128 0x19
 8861 258e BF090000 		.4byte	.LASF608
 8862 2592 1A       		.byte	0x1a
 8863 2593 F101     		.2byte	0x1f1
 8864 2595 0A1F0000 		.4byte	0x1f0a
 8865 2599 16       		.byte	0x16
 8866 259a 19       		.uleb128 0x19
 8867 259b 273D0000 		.4byte	.LASF609
 8868 259f 1A       		.byte	0x1a
 8869 25a0 F401     		.2byte	0x1f4
 8870 25a2 0A1F0000 		.4byte	0x1f0a
 8871 25a6 17       		.byte	0x17
 8872 25a7 19       		.uleb128 0x19
 8873 25a8 E4360000 		.4byte	.LASF610
 8874 25ac 1A       		.byte	0x1a
 8875 25ad F501     		.2byte	0x1f5
 8876 25af 44090000 		.4byte	0x944
 8877 25b3 18       		.byte	0x18
 8878 25b4 19       		.uleb128 0x19
 8879 25b5 D41F0000 		.4byte	.LASF611
 8880 25b9 1A       		.byte	0x1a
 8881 25ba F801     		.2byte	0x1f8
 8882 25bc 821F0000 		.4byte	0x1f82
 8883 25c0 19       		.byte	0x19
 8884 25c1 19       		.uleb128 0x19
 8885 25c2 C0200000 		.4byte	.LASF612
 8886 25c6 1A       		.byte	0x1a
 8887 25c7 FB01     		.2byte	0x1fb
 8888 25c9 DF200000 		.4byte	0x20df
 8889 25cd 1C       		.byte	0x1c
 8890 25ce 19       		.uleb128 0x19
 8891 25cf 68210000 		.4byte	.LASF613
 8892 25d3 1A       		.byte	0x1a
 8893 25d4 FE01     		.2byte	0x1fe
 8894 25d6 87220000 		.4byte	0x2287
 8895 25da 54       		.byte	0x54
 8896 25db 19       		.uleb128 0x19
 8897 25dc C5060000 		.4byte	.LASF614
ARM GAS  /tmp/ccjQGkoy.s 			page 158


 8898 25e0 1A       		.byte	0x1a
 8899 25e1 0102     		.2byte	0x201
 8900 25e3 7F090000 		.4byte	0x97f
 8901 25e7 98       		.byte	0x98
 8902 25e8 19       		.uleb128 0x19
 8903 25e9 C31D0000 		.4byte	.LASF615
 8904 25ed 1A       		.byte	0x1a
 8905 25ee 0402     		.2byte	0x204
 8906 25f0 58230000 		.4byte	0x2358
 8907 25f4 9C       		.byte	0x9c
 8908 25f5 19       		.uleb128 0x19
 8909 25f6 77080000 		.4byte	.LASF616
 8910 25fa 1A       		.byte	0x1a
 8911 25fb 0702     		.2byte	0x207
 8912 25fd E4240000 		.4byte	0x24e4
 8913 2601 C0       		.byte	0xc0
 8914 2602 00       		.byte	0
 8915 2603 08       		.uleb128 0x8
 8916 2604 392B0000 		.4byte	.LASF617
 8917 2608 1A       		.byte	0x1a
 8918 2609 0802     		.2byte	0x208
 8919 260b 29250000 		.4byte	0x2529
 8920 260f 10       		.uleb128 0x10
 8921 2610 03260000 		.4byte	0x2603
 8922 2614 2B       		.uleb128 0x2b
 8923 2615 07       		.byte	0x7
 8924 2616 01       		.byte	0x1
 8925 2617 6C000000 		.4byte	0x6c
 8926 261b 1A       		.byte	0x1a
 8927 261c 5602     		.2byte	0x256
 8928 261e C5260000 		.4byte	0x26c5
 8929 2622 23       		.uleb128 0x23
 8930 2623 52190000 		.4byte	.LASF618
 8931 2627 00       		.byte	0
 8932 2628 23       		.uleb128 0x23
 8933 2629 EA250000 		.4byte	.LASF619
 8934 262d 01       		.byte	0x1
 8935 262e 23       		.uleb128 0x23
 8936 262f 073A0000 		.4byte	.LASF620
 8937 2633 02       		.byte	0x2
 8938 2634 23       		.uleb128 0x23
 8939 2635 56050000 		.4byte	.LASF621
 8940 2639 03       		.byte	0x3
 8941 263a 23       		.uleb128 0x23
 8942 263b C8360000 		.4byte	.LASF622
 8943 263f 04       		.byte	0x4
 8944 2640 23       		.uleb128 0x23
 8945 2641 8E1B0000 		.4byte	.LASF623
 8946 2645 05       		.byte	0x5
 8947 2646 23       		.uleb128 0x23
 8948 2647 500E0000 		.4byte	.LASF624
 8949 264b 06       		.byte	0x6
 8950 264c 23       		.uleb128 0x23
 8951 264d C92D0000 		.4byte	.LASF625
 8952 2651 07       		.byte	0x7
 8953 2652 23       		.uleb128 0x23
 8954 2653 20390000 		.4byte	.LASF626
ARM GAS  /tmp/ccjQGkoy.s 			page 159


 8955 2657 08       		.byte	0x8
 8956 2658 23       		.uleb128 0x23
 8957 2659 231D0000 		.4byte	.LASF627
 8958 265d 09       		.byte	0x9
 8959 265e 23       		.uleb128 0x23
 8960 265f 7B3A0000 		.4byte	.LASF628
 8961 2663 0A       		.byte	0xa
 8962 2664 23       		.uleb128 0x23
 8963 2665 45220000 		.4byte	.LASF629
 8964 2669 0B       		.byte	0xb
 8965 266a 23       		.uleb128 0x23
 8966 266b A6010000 		.4byte	.LASF630
 8967 266f 0C       		.byte	0xc
 8968 2670 23       		.uleb128 0x23
 8969 2671 48380000 		.4byte	.LASF631
 8970 2675 0D       		.byte	0xd
 8971 2676 23       		.uleb128 0x23
 8972 2677 EA190000 		.4byte	.LASF632
 8973 267b 0E       		.byte	0xe
 8974 267c 23       		.uleb128 0x23
 8975 267d FE190000 		.4byte	.LASF633
 8976 2681 0F       		.byte	0xf
 8977 2682 23       		.uleb128 0x23
 8978 2683 121A0000 		.4byte	.LASF634
 8979 2687 10       		.byte	0x10
 8980 2688 23       		.uleb128 0x23
 8981 2689 AB270000 		.4byte	.LASF635
 8982 268d 11       		.byte	0x11
 8983 268e 23       		.uleb128 0x23
 8984 268f 4F3D0000 		.4byte	.LASF636
 8985 2693 12       		.byte	0x12
 8986 2694 23       		.uleb128 0x23
 8987 2695 31060000 		.4byte	.LASF637
 8988 2699 13       		.byte	0x13
 8989 269a 23       		.uleb128 0x23
 8990 269b 2B0F0000 		.4byte	.LASF638
 8991 269f 14       		.byte	0x14
 8992 26a0 23       		.uleb128 0x23
 8993 26a1 9F240000 		.4byte	.LASF639
 8994 26a5 15       		.byte	0x15
 8995 26a6 23       		.uleb128 0x23
 8996 26a7 1B310000 		.4byte	.LASF640
 8997 26ab 16       		.byte	0x16
 8998 26ac 23       		.uleb128 0x23
 8999 26ad 9F320000 		.4byte	.LASF641
 9000 26b1 17       		.byte	0x17
 9001 26b2 23       		.uleb128 0x23
 9002 26b3 C50D0000 		.4byte	.LASF642
 9003 26b7 18       		.byte	0x18
 9004 26b8 23       		.uleb128 0x23
 9005 26b9 781E0000 		.4byte	.LASF643
 9006 26bd 19       		.byte	0x19
 9007 26be 23       		.uleb128 0x23
 9008 26bf 832A0000 		.4byte	.LASF644
 9009 26c3 1A       		.byte	0x1a
 9010 26c4 00       		.byte	0
 9011 26c5 08       		.uleb128 0x8
ARM GAS  /tmp/ccjQGkoy.s 			page 160


 9012 26c6 F1030000 		.4byte	.LASF645
 9013 26ca 1A       		.byte	0x1a
 9014 26cb 7202     		.2byte	0x272
 9015 26cd 14260000 		.4byte	0x2614
 9016 26d1 1C       		.uleb128 0x1c
 9017 26d2 14       		.byte	0x14
 9018 26d3 1A       		.byte	0x1a
 9019 26d4 9F02     		.2byte	0x29f
 9020 26d6 1B270000 		.4byte	0x271b
 9021 26da 24       		.uleb128 0x24
 9022 26db 696400   		.ascii	"id\000"
 9023 26de 1A       		.byte	0x1a
 9024 26df A002     		.2byte	0x2a0
 9025 26e1 2C000000 		.4byte	0x2c
 9026 26e5 00       		.byte	0
 9027 26e6 19       		.uleb128 0x19
 9028 26e7 963A0000 		.4byte	.LASF646
 9029 26eb 1A       		.byte	0x1a
 9030 26ec A102     		.2byte	0x2a1
 9031 26ee 130A0000 		.4byte	0xa13
 9032 26f2 04       		.byte	0x4
 9033 26f3 24       		.uleb128 0x24
 9034 26f4 72706D00 		.ascii	"rpm\000"
 9035 26f8 1A       		.byte	0x1a
 9036 26f9 A202     		.2byte	0x2a2
 9037 26fb 25000000 		.4byte	0x25
 9038 26ff 08       		.byte	0x8
 9039 2700 19       		.uleb128 0x19
 9040 2701 5B200000 		.4byte	.LASF647
 9041 2705 1A       		.byte	0x1a
 9042 2706 A302     		.2byte	0x2a3
 9043 2708 25000000 		.4byte	0x25
 9044 270c 0C       		.byte	0xc
 9045 270d 19       		.uleb128 0x19
 9046 270e DC2A0000 		.4byte	.LASF648
 9047 2712 1A       		.byte	0x1a
 9048 2713 A402     		.2byte	0x2a4
 9049 2715 25000000 		.4byte	0x25
 9050 2719 10       		.byte	0x10
 9051 271a 00       		.byte	0
 9052 271b 08       		.uleb128 0x8
 9053 271c D6090000 		.4byte	.LASF649
 9054 2720 1A       		.byte	0x1a
 9055 2721 A502     		.2byte	0x2a5
 9056 2723 D1260000 		.4byte	0x26d1
 9057 2727 1C       		.uleb128 0x1c
 9058 2728 10       		.byte	0x10
 9059 2729 1A       		.byte	0x1a
 9060 272a A702     		.2byte	0x2a7
 9061 272c 64270000 		.4byte	0x2764
 9062 2730 24       		.uleb128 0x24
 9063 2731 696400   		.ascii	"id\000"
 9064 2734 1A       		.byte	0x1a
 9065 2735 A802     		.2byte	0x2a8
 9066 2737 2C000000 		.4byte	0x2c
 9067 273b 00       		.byte	0
 9068 273c 19       		.uleb128 0x19
ARM GAS  /tmp/ccjQGkoy.s 			page 161


 9069 273d 963A0000 		.4byte	.LASF646
 9070 2741 1A       		.byte	0x1a
 9071 2742 A902     		.2byte	0x2a9
 9072 2744 130A0000 		.4byte	0xa13
 9073 2748 04       		.byte	0x4
 9074 2749 19       		.uleb128 0x19
 9075 274a 791C0000 		.4byte	.LASF650
 9076 274e 1A       		.byte	0x1a
 9077 274f AA02     		.2byte	0x2aa
 9078 2751 25000000 		.4byte	0x25
 9079 2755 08       		.byte	0x8
 9080 2756 19       		.uleb128 0x19
 9081 2757 5C090000 		.4byte	.LASF651
 9082 275b 1A       		.byte	0x1a
 9083 275c AB02     		.2byte	0x2ab
 9084 275e 25000000 		.4byte	0x25
 9085 2762 0C       		.byte	0xc
 9086 2763 00       		.byte	0
 9087 2764 08       		.uleb128 0x8
 9088 2765 6C240000 		.4byte	.LASF652
 9089 2769 1A       		.byte	0x1a
 9090 276a AC02     		.2byte	0x2ac
 9091 276c 27270000 		.4byte	0x2727
 9092 2770 1C       		.uleb128 0x1c
 9093 2771 10       		.byte	0x10
 9094 2772 1A       		.byte	0x1a
 9095 2773 AE02     		.2byte	0x2ae
 9096 2775 AD270000 		.4byte	0x27ad
 9097 2779 24       		.uleb128 0x24
 9098 277a 696400   		.ascii	"id\000"
 9099 277d 1A       		.byte	0x1a
 9100 277e AF02     		.2byte	0x2af
 9101 2780 2C000000 		.4byte	0x2c
 9102 2784 00       		.byte	0
 9103 2785 19       		.uleb128 0x19
 9104 2786 963A0000 		.4byte	.LASF646
 9105 278a 1A       		.byte	0x1a
 9106 278b B002     		.2byte	0x2b0
 9107 278d 130A0000 		.4byte	0xa13
 9108 2791 04       		.byte	0x4
 9109 2792 19       		.uleb128 0x19
 9110 2793 2A000000 		.4byte	.LASF653
 9111 2797 1A       		.byte	0x1a
 9112 2798 B102     		.2byte	0x2b1
 9113 279a 25000000 		.4byte	0x25
 9114 279e 08       		.byte	0x8
 9115 279f 19       		.uleb128 0x19
 9116 27a0 0E1B0000 		.4byte	.LASF654
 9117 27a4 1A       		.byte	0x1a
 9118 27a5 B202     		.2byte	0x2b2
 9119 27a7 25000000 		.4byte	0x25
 9120 27ab 0C       		.byte	0xc
 9121 27ac 00       		.byte	0
 9122 27ad 08       		.uleb128 0x8
 9123 27ae 7D240000 		.4byte	.LASF655
 9124 27b2 1A       		.byte	0x1a
 9125 27b3 B302     		.2byte	0x2b3
ARM GAS  /tmp/ccjQGkoy.s 			page 162


 9126 27b5 70270000 		.4byte	0x2770
 9127 27b9 1C       		.uleb128 0x1c
 9128 27ba 18       		.byte	0x18
 9129 27bb 1A       		.byte	0x1a
 9130 27bc B502     		.2byte	0x2b5
 9131 27be 10280000 		.4byte	0x2810
 9132 27c2 24       		.uleb128 0x24
 9133 27c3 696400   		.ascii	"id\000"
 9134 27c6 1A       		.byte	0x1a
 9135 27c7 B602     		.2byte	0x2b6
 9136 27c9 2C000000 		.4byte	0x2c
 9137 27cd 00       		.byte	0
 9138 27ce 19       		.uleb128 0x19
 9139 27cf 963A0000 		.4byte	.LASF646
 9140 27d3 1A       		.byte	0x1a
 9141 27d4 B702     		.2byte	0x2b7
 9142 27d6 130A0000 		.4byte	0xa13
 9143 27da 04       		.byte	0x4
 9144 27db 19       		.uleb128 0x19
 9145 27dc 601A0000 		.4byte	.LASF656
 9146 27e0 1A       		.byte	0x1a
 9147 27e1 B802     		.2byte	0x2b8
 9148 27e3 25000000 		.4byte	0x25
 9149 27e7 08       		.byte	0x8
 9150 27e8 19       		.uleb128 0x19
 9151 27e9 8E1A0000 		.4byte	.LASF657
 9152 27ed 1A       		.byte	0x1a
 9153 27ee B902     		.2byte	0x2b9
 9154 27f0 25000000 		.4byte	0x25
 9155 27f4 0C       		.byte	0xc
 9156 27f5 19       		.uleb128 0x19
 9157 27f6 600C0000 		.4byte	.LASF658
 9158 27fa 1A       		.byte	0x1a
 9159 27fb BA02     		.2byte	0x2ba
 9160 27fd 25000000 		.4byte	0x25
 9161 2801 10       		.byte	0x10
 9162 2802 19       		.uleb128 0x19
 9163 2803 8F2F0000 		.4byte	.LASF659
 9164 2807 1A       		.byte	0x1a
 9165 2808 BB02     		.2byte	0x2bb
 9166 280a 25000000 		.4byte	0x25
 9167 280e 14       		.byte	0x14
 9168 280f 00       		.byte	0
 9169 2810 08       		.uleb128 0x8
 9170 2811 8E240000 		.4byte	.LASF660
 9171 2815 1A       		.byte	0x1a
 9172 2816 BC02     		.2byte	0x2bc
 9173 2818 B9270000 		.4byte	0x27b9
 9174 281c 25       		.uleb128 0x25
 9175 281d 8D250000 		.4byte	.LASF661
 9176 2821 1B       		.byte	0x1b
 9177 2822 E7       		.byte	0xe7
 9178 2823 0A1F0000 		.4byte	0x1f0a
 9179 2827 0D       		.uleb128 0xd
 9180 2828 0C       		.byte	0xc
 9181 2829 1C       		.byte	0x1c
 9182 282a DA       		.byte	0xda
ARM GAS  /tmp/ccjQGkoy.s 			page 163


 9183 282b 6C280000 		.4byte	0x286c
 9184 282f 0E       		.uleb128 0xe
 9185 2830 2B3C0000 		.4byte	.LASF662
 9186 2834 1C       		.byte	0x1c
 9187 2835 DB       		.byte	0xdb
 9188 2836 6C280000 		.4byte	0x286c
 9189 283a 00       		.byte	0
 9190 283b 0E       		.uleb128 0xe
 9191 283c C3180000 		.4byte	.LASF663
 9192 2840 1C       		.byte	0x1c
 9193 2841 DC       		.byte	0xdc
 9194 2842 72280000 		.4byte	0x2872
 9195 2846 04       		.byte	0x4
 9196 2847 0E       		.uleb128 0xe
 9197 2848 D7060000 		.4byte	.LASF664
 9198 284c 1C       		.byte	0x1c
 9199 284d DD       		.byte	0xdd
 9200 284e 44090000 		.4byte	0x944
 9201 2852 08       		.byte	0x8
 9202 2853 0E       		.uleb128 0xe
 9203 2854 4D2F0000 		.4byte	.LASF665
 9204 2858 1C       		.byte	0x1c
 9205 2859 DF       		.byte	0xdf
 9206 285a 44090000 		.4byte	0x944
 9207 285e 09       		.byte	0x9
 9208 285f 0E       		.uleb128 0xe
 9209 2860 80050000 		.4byte	.LASF666
 9210 2864 1C       		.byte	0x1c
 9211 2865 E0       		.byte	0xe0
 9212 2866 44090000 		.4byte	0x944
 9213 286a 0A       		.byte	0xa
 9214 286b 00       		.byte	0
 9215 286c 06       		.uleb128 0x6
 9216 286d 04       		.byte	0x4
 9217 286e 27100000 		.4byte	0x1027
 9218 2872 06       		.uleb128 0x6
 9219 2873 04       		.byte	0x4
 9220 2874 8A090000 		.4byte	0x98a
 9221 2878 05       		.uleb128 0x5
 9222 2879 B71C0000 		.4byte	.LASF667
 9223 287d 1C       		.byte	0x1c
 9224 287e E1       		.byte	0xe1
 9225 287f 27280000 		.4byte	0x2827
 9226 2883 10       		.uleb128 0x10
 9227 2884 78280000 		.4byte	0x2878
 9228 2888 0B       		.uleb128 0xb
 9229 2889 83280000 		.4byte	0x2883
 9230 288d 98280000 		.4byte	0x2898
 9231 2891 0C       		.uleb128 0xc
 9232 2892 48000000 		.4byte	0x48
 9233 2896 0F       		.byte	0xf
 9234 2897 00       		.byte	0
 9235 2898 10       		.uleb128 0x10
 9236 2899 88280000 		.4byte	0x2888
 9237 289d 20       		.uleb128 0x20
 9238 289e 4C2A0000 		.4byte	.LASF668
 9239 28a2 1C       		.byte	0x1c
ARM GAS  /tmp/ccjQGkoy.s 			page 164


 9240 28a3 BB01     		.2byte	0x1bb
 9241 28a5 98280000 		.4byte	0x2898
 9242 28a9 16       		.uleb128 0x16
 9243 28aa DC090000 		.4byte	0x9dc
 9244 28ae C2280000 		.4byte	0x28c2
 9245 28b2 17       		.uleb128 0x17
 9246 28b3 72010000 		.4byte	0x172
 9247 28b7 17       		.uleb128 0x17
 9248 28b8 44090000 		.4byte	0x944
 9249 28bc 17       		.uleb128 0x17
 9250 28bd 130A0000 		.4byte	0xa13
 9251 28c1 00       		.byte	0
 9252 28c2 06       		.uleb128 0x6
 9253 28c3 04       		.byte	0x4
 9254 28c4 A9280000 		.4byte	0x28a9
 9255 28c8 16       		.uleb128 0x16
 9256 28c9 DC090000 		.4byte	0x9dc
 9257 28cd DC280000 		.4byte	0x28dc
 9258 28d1 17       		.uleb128 0x17
 9259 28d2 72010000 		.4byte	0x172
 9260 28d6 17       		.uleb128 0x17
 9261 28d7 130A0000 		.4byte	0xa13
 9262 28db 00       		.byte	0
 9263 28dc 06       		.uleb128 0x6
 9264 28dd 04       		.byte	0x4
 9265 28de C8280000 		.4byte	0x28c8
 9266 28e2 16       		.uleb128 0x16
 9267 28e3 38000000 		.4byte	0x38
 9268 28e7 00290000 		.4byte	0x2900
 9269 28eb 17       		.uleb128 0x17
 9270 28ec 72010000 		.4byte	0x172
 9271 28f0 17       		.uleb128 0x17
 9272 28f1 E7160000 		.4byte	0x16e7
 9273 28f5 17       		.uleb128 0x17
 9274 28f6 38000000 		.4byte	0x38
 9275 28fa 17       		.uleb128 0x17
 9276 28fb 130A0000 		.4byte	0xa13
 9277 28ff 00       		.byte	0
 9278 2900 06       		.uleb128 0x6
 9279 2901 04       		.byte	0x4
 9280 2902 E2280000 		.4byte	0x28e2
 9281 2906 16       		.uleb128 0x16
 9282 2907 38000000 		.4byte	0x38
 9283 290b 24290000 		.4byte	0x2924
 9284 290f 17       		.uleb128 0x17
 9285 2910 72010000 		.4byte	0x172
 9286 2914 17       		.uleb128 0x17
 9287 2915 B2160000 		.4byte	0x16b2
 9288 2919 17       		.uleb128 0x17
 9289 291a 38000000 		.4byte	0x38
 9290 291e 17       		.uleb128 0x17
 9291 291f 130A0000 		.4byte	0xa13
 9292 2923 00       		.byte	0
 9293 2924 06       		.uleb128 0x6
 9294 2925 04       		.byte	0x4
 9295 2926 06290000 		.4byte	0x2906
 9296 292a 0D       		.uleb128 0xd
ARM GAS  /tmp/ccjQGkoy.s 			page 165


 9297 292b 04       		.byte	0x4
 9298 292c 1D       		.byte	0x1d
 9299 292d B3       		.byte	0xb3
 9300 292e 4B290000 		.4byte	0x294b
 9301 2932 12       		.uleb128 0x12
 9302 2933 73657400 		.ascii	"set\000"
 9303 2937 1D       		.byte	0x1d
 9304 2938 B4       		.byte	0xb4
 9305 2939 5F090000 		.4byte	0x95f
 9306 293d 00       		.byte	0
 9307 293e 0E       		.uleb128 0xe
 9308 293f 0B140000 		.4byte	.LASF669
 9309 2943 1D       		.byte	0x1d
 9310 2944 B5       		.byte	0xb5
 9311 2945 5F090000 		.4byte	0x95f
 9312 2949 02       		.byte	0x2
 9313 294a 00       		.byte	0
 9314 294b 09       		.uleb128 0x9
 9315 294c 04       		.byte	0x4
 9316 294d 1D       		.byte	0x1d
 9317 294e B1       		.byte	0xb1
 9318 294f 66290000 		.4byte	0x2966
 9319 2953 2C       		.uleb128 0x2c
 9320 2954 5700     		.ascii	"W\000"
 9321 2956 1D       		.byte	0x1d
 9322 2957 B2       		.byte	0xb2
 9323 2958 7F090000 		.4byte	0x97f
 9324 295c 2C       		.uleb128 0x2c
 9325 295d 4800     		.ascii	"H\000"
 9326 295f 1D       		.byte	0x1d
 9327 2960 B6       		.byte	0xb6
 9328 2961 2A290000 		.4byte	0x292a
 9329 2965 00       		.byte	0
 9330 2966 04       		.uleb128 0x4
 9331 2967 4B290000 		.4byte	0x294b
 9332 296b 0D       		.uleb128 0xd
 9333 296c 2C       		.byte	0x2c
 9334 296d 1D       		.byte	0x1d
 9335 296e A9       		.byte	0xa9
 9336 296f F8290000 		.4byte	0x29f8
 9337 2973 0E       		.uleb128 0xe
 9338 2974 9B2F0000 		.4byte	.LASF670
 9339 2978 1D       		.byte	0x1d
 9340 2979 AB       		.byte	0xab
 9341 297a 8A090000 		.4byte	0x98a
 9342 297e 00       		.byte	0
 9343 297f 0E       		.uleb128 0xe
 9344 2980 EB040000 		.4byte	.LASF671
 9345 2984 1D       		.byte	0x1d
 9346 2985 AC       		.byte	0xac
 9347 2986 8A090000 		.4byte	0x98a
 9348 298a 04       		.byte	0x4
 9349 298b 0E       		.uleb128 0xe
 9350 298c C9160000 		.4byte	.LASF672
 9351 2990 1D       		.byte	0x1d
 9352 2991 AD       		.byte	0xad
 9353 2992 8A090000 		.4byte	0x98a
ARM GAS  /tmp/ccjQGkoy.s 			page 166


 9354 2996 08       		.byte	0x8
 9355 2997 0E       		.uleb128 0xe
 9356 2998 622E0000 		.4byte	.LASF673
 9357 299c 1D       		.byte	0x1d
 9358 299d AE       		.byte	0xae
 9359 299e 8A090000 		.4byte	0x98a
 9360 29a2 0C       		.byte	0xc
 9361 29a3 12       		.uleb128 0x12
 9362 29a4 49445200 		.ascii	"IDR\000"
 9363 29a8 1D       		.byte	0x1d
 9364 29a9 AF       		.byte	0xaf
 9365 29aa 8A090000 		.4byte	0x98a
 9366 29ae 10       		.byte	0x10
 9367 29af 12       		.uleb128 0x12
 9368 29b0 4F445200 		.ascii	"ODR\000"
 9369 29b4 1D       		.byte	0x1d
 9370 29b5 B0       		.byte	0xb0
 9371 29b6 8A090000 		.4byte	0x98a
 9372 29ba 14       		.byte	0x14
 9373 29bb 0E       		.uleb128 0xe
 9374 29bc B21C0000 		.4byte	.LASF674
 9375 29c0 1D       		.byte	0x1d
 9376 29c1 B7       		.byte	0xb7
 9377 29c2 66290000 		.4byte	0x2966
 9378 29c6 18       		.byte	0x18
 9379 29c7 0E       		.uleb128 0xe
 9380 29c8 63250000 		.4byte	.LASF675
 9381 29cc 1D       		.byte	0x1d
 9382 29cd B8       		.byte	0xb8
 9383 29ce 8A090000 		.4byte	0x98a
 9384 29d2 1C       		.byte	0x1c
 9385 29d3 0E       		.uleb128 0xe
 9386 29d4 342B0000 		.4byte	.LASF676
 9387 29d8 1D       		.byte	0x1d
 9388 29d9 B9       		.byte	0xb9
 9389 29da 8A090000 		.4byte	0x98a
 9390 29de 20       		.byte	0x20
 9391 29df 0E       		.uleb128 0xe
 9392 29e0 2F2B0000 		.4byte	.LASF677
 9393 29e4 1D       		.byte	0x1d
 9394 29e5 BA       		.byte	0xba
 9395 29e6 8A090000 		.4byte	0x98a
 9396 29ea 24       		.byte	0x24
 9397 29eb 12       		.uleb128 0x12
 9398 29ec 42525200 		.ascii	"BRR\000"
 9399 29f0 1D       		.byte	0x1d
 9400 29f1 BB       		.byte	0xbb
 9401 29f2 8A090000 		.4byte	0x98a
 9402 29f6 28       		.byte	0x28
 9403 29f7 00       		.byte	0
 9404 29f8 05       		.uleb128 0x5
 9405 29f9 E6180000 		.4byte	.LASF678
 9406 29fd 1D       		.byte	0x1d
 9407 29fe BC       		.byte	0xbc
 9408 29ff 6B290000 		.4byte	0x296b
 9409 2a03 0D       		.uleb128 0xd
 9410 2a04 1C       		.byte	0x1c
ARM GAS  /tmp/ccjQGkoy.s 			page 167


 9411 2a05 1D       		.byte	0x1d
 9412 2a06 C1       		.byte	0xc1
 9413 2a07 602A0000 		.4byte	0x2a60
 9414 2a0b 0E       		.uleb128 0xe
 9415 2a0c CB350000 		.4byte	.LASF679
 9416 2a10 1D       		.byte	0x1d
 9417 2a11 C3       		.byte	0xc3
 9418 2a12 7F090000 		.4byte	0x97f
 9419 2a16 00       		.byte	0
 9420 2a17 0E       		.uleb128 0xe
 9421 2a18 B6040000 		.4byte	.LASF680
 9422 2a1c 1D       		.byte	0x1d
 9423 2a1d C5       		.byte	0xc5
 9424 2a1e 7F090000 		.4byte	0x97f
 9425 2a22 04       		.byte	0x4
 9426 2a23 0E       		.uleb128 0xe
 9427 2a24 3E030000 		.4byte	.LASF681
 9428 2a28 1D       		.byte	0x1d
 9429 2a29 C7       		.byte	0xc7
 9430 2a2a 7F090000 		.4byte	0x97f
 9431 2a2e 08       		.byte	0x8
 9432 2a2f 0E       		.uleb128 0xe
 9433 2a30 1A340000 		.4byte	.LASF682
 9434 2a34 1D       		.byte	0x1d
 9435 2a35 C9       		.byte	0xc9
 9436 2a36 7F090000 		.4byte	0x97f
 9437 2a3a 0C       		.byte	0xc
 9438 2a3b 12       		.uleb128 0x12
 9439 2a3c 6F647200 		.ascii	"odr\000"
 9440 2a40 1D       		.byte	0x1d
 9441 2a41 CB       		.byte	0xcb
 9442 2a42 7F090000 		.4byte	0x97f
 9443 2a46 10       		.byte	0x10
 9444 2a47 0E       		.uleb128 0xe
 9445 2a48 EA2E0000 		.4byte	.LASF683
 9446 2a4c 1D       		.byte	0x1d
 9447 2a4d CD       		.byte	0xcd
 9448 2a4e 7F090000 		.4byte	0x97f
 9449 2a52 14       		.byte	0x14
 9450 2a53 0E       		.uleb128 0xe
 9451 2a54 D5000000 		.4byte	.LASF684
 9452 2a58 1D       		.byte	0x1d
 9453 2a59 CF       		.byte	0xcf
 9454 2a5a 7F090000 		.4byte	0x97f
 9455 2a5e 18       		.byte	0x18
 9456 2a5f 00       		.byte	0
 9457 2a60 05       		.uleb128 0x5
 9458 2a61 D8290000 		.4byte	.LASF685
 9459 2a65 1D       		.byte	0x1d
 9460 2a66 D0       		.byte	0xd0
 9461 2a67 032A0000 		.4byte	0x2a03
 9462 2a6b 0D       		.uleb128 0xd
 9463 2a6c FC       		.byte	0xfc
 9464 2a6d 1D       		.byte	0x1d
 9465 2a6e D9       		.byte	0xd9
 9466 2a6f E02A0000 		.4byte	0x2ae0
 9467 2a73 0E       		.uleb128 0xe
ARM GAS  /tmp/ccjQGkoy.s 			page 168


 9468 2a74 A7190000 		.4byte	.LASF686
 9469 2a78 1D       		.byte	0x1d
 9470 2a79 DC       		.byte	0xdc
 9471 2a7a 602A0000 		.4byte	0x2a60
 9472 2a7e 00       		.byte	0
 9473 2a7f 0E       		.uleb128 0xe
 9474 2a80 262F0000 		.4byte	.LASF687
 9475 2a84 1D       		.byte	0x1d
 9476 2a85 E0       		.byte	0xe0
 9477 2a86 602A0000 		.4byte	0x2a60
 9478 2a8a 1C       		.byte	0x1c
 9479 2a8b 0E       		.uleb128 0xe
 9480 2a8c 86020000 		.4byte	.LASF688
 9481 2a90 1D       		.byte	0x1d
 9482 2a91 E4       		.byte	0xe4
 9483 2a92 602A0000 		.4byte	0x2a60
 9484 2a96 38       		.byte	0x38
 9485 2a97 0E       		.uleb128 0xe
 9486 2a98 FA150000 		.4byte	.LASF689
 9487 2a9c 1D       		.byte	0x1d
 9488 2a9d E8       		.byte	0xe8
 9489 2a9e 602A0000 		.4byte	0x2a60
 9490 2aa2 54       		.byte	0x54
 9491 2aa3 0E       		.uleb128 0xe
 9492 2aa4 DE270000 		.4byte	.LASF690
 9493 2aa8 1D       		.byte	0x1d
 9494 2aa9 EC       		.byte	0xec
 9495 2aaa 602A0000 		.4byte	0x2a60
 9496 2aae 70       		.byte	0x70
 9497 2aaf 0E       		.uleb128 0xe
 9498 2ab0 403D0000 		.4byte	.LASF691
 9499 2ab4 1D       		.byte	0x1d
 9500 2ab5 F0       		.byte	0xf0
 9501 2ab6 602A0000 		.4byte	0x2a60
 9502 2aba 8C       		.byte	0x8c
 9503 2abb 0E       		.uleb128 0xe
 9504 2abc 22110000 		.4byte	.LASF692
 9505 2ac0 1D       		.byte	0x1d
 9506 2ac1 F4       		.byte	0xf4
 9507 2ac2 602A0000 		.4byte	0x2a60
 9508 2ac6 A8       		.byte	0xa8
 9509 2ac7 0E       		.uleb128 0xe
 9510 2ac8 30240000 		.4byte	.LASF693
 9511 2acc 1D       		.byte	0x1d
 9512 2acd F8       		.byte	0xf8
 9513 2ace 602A0000 		.4byte	0x2a60
 9514 2ad2 C4       		.byte	0xc4
 9515 2ad3 0E       		.uleb128 0xe
 9516 2ad4 F4380000 		.4byte	.LASF694
 9517 2ad8 1D       		.byte	0x1d
 9518 2ad9 FC       		.byte	0xfc
 9519 2ada 602A0000 		.4byte	0x2a60
 9520 2ade E0       		.byte	0xe0
 9521 2adf 00       		.byte	0
 9522 2ae0 05       		.uleb128 0x5
 9523 2ae1 0A100000 		.4byte	.LASF695
 9524 2ae5 1D       		.byte	0x1d
ARM GAS  /tmp/ccjQGkoy.s 			page 169


 9525 2ae6 FE       		.byte	0xfe
 9526 2ae7 6B2A0000 		.4byte	0x2a6b
 9527 2aeb 10       		.uleb128 0x10
 9528 2aec E02A0000 		.4byte	0x2ae0
 9529 2af0 08       		.uleb128 0x8
 9530 2af1 5F1F0000 		.4byte	.LASF696
 9531 2af5 1D       		.byte	0x1d
 9532 2af6 0E01     		.2byte	0x10e
 9533 2af8 7F090000 		.4byte	0x97f
 9534 2afc 08       		.uleb128 0x8
 9535 2afd 37240000 		.4byte	.LASF697
 9536 2b01 1D       		.byte	0x1d
 9537 2b02 1B01     		.2byte	0x11b
 9538 2b04 082B0000 		.4byte	0x2b08
 9539 2b08 06       		.uleb128 0x6
 9540 2b09 04       		.byte	0x4
 9541 2b0a F8290000 		.4byte	0x29f8
 9542 2b0e 20       		.uleb128 0x20
 9543 2b0f 6A120000 		.4byte	.LASF698
 9544 2b13 1D       		.byte	0x1d
 9545 2b14 DA01     		.2byte	0x1da
 9546 2b16 EB2A0000 		.4byte	0x2aeb
 9547 2b1a 29       		.uleb128 0x29
 9548 2b1b 07       		.byte	0x7
 9549 2b1c 01       		.byte	0x1
 9550 2b1d 6C000000 		.4byte	0x6c
 9551 2b21 1E       		.byte	0x1e
 9552 2b22 5F       		.byte	0x5f
 9553 2b23 462B0000 		.4byte	0x2b46
 9554 2b27 23       		.uleb128 0x23
 9555 2b28 FA140000 		.4byte	.LASF699
 9556 2b2c 00       		.byte	0
 9557 2b2d 23       		.uleb128 0x23
 9558 2b2e 5A010000 		.4byte	.LASF700
 9559 2b32 01       		.byte	0x1
 9560 2b33 23       		.uleb128 0x23
 9561 2b34 022F0000 		.4byte	.LASF701
 9562 2b38 02       		.byte	0x2
 9563 2b39 23       		.uleb128 0x23
 9564 2b3a 9C070000 		.4byte	.LASF702
 9565 2b3e 03       		.byte	0x3
 9566 2b3f 23       		.uleb128 0x23
 9567 2b40 8A0E0000 		.4byte	.LASF703
 9568 2b44 04       		.byte	0x4
 9569 2b45 00       		.byte	0
 9570 2b46 05       		.uleb128 0x5
 9571 2b47 C2080000 		.4byte	.LASF704
 9572 2b4b 1E       		.byte	0x1e
 9573 2b4c 65       		.byte	0x65
 9574 2b4d 1A2B0000 		.4byte	0x2b1a
 9575 2b51 0D       		.uleb128 0xd
 9576 2b52 01       		.byte	0x1
 9577 2b53 1F       		.byte	0x1f
 9578 2b54 9A       		.byte	0x9a
 9579 2b55 872B0000 		.4byte	0x2b87
 9580 2b59 2D       		.uleb128 0x2d
 9581 2b5a 444C4300 		.ascii	"DLC\000"
ARM GAS  /tmp/ccjQGkoy.s 			page 170


 9582 2b5e 1F       		.byte	0x1f
 9583 2b5f 9B       		.byte	0x9b
 9584 2b60 44090000 		.4byte	0x944
 9585 2b64 01       		.byte	0x1
 9586 2b65 04       		.byte	0x4
 9587 2b66 04       		.byte	0x4
 9588 2b67 00       		.byte	0
 9589 2b68 2D       		.uleb128 0x2d
 9590 2b69 52545200 		.ascii	"RTR\000"
 9591 2b6d 1F       		.byte	0x1f
 9592 2b6e 9C       		.byte	0x9c
 9593 2b6f 44090000 		.4byte	0x944
 9594 2b73 01       		.byte	0x1
 9595 2b74 01       		.byte	0x1
 9596 2b75 03       		.byte	0x3
 9597 2b76 00       		.byte	0
 9598 2b77 2D       		.uleb128 0x2d
 9599 2b78 49444500 		.ascii	"IDE\000"
 9600 2b7c 1F       		.byte	0x1f
 9601 2b7d 9D       		.byte	0x9d
 9602 2b7e 44090000 		.4byte	0x944
 9603 2b82 01       		.byte	0x1
 9604 2b83 01       		.byte	0x1
 9605 2b84 02       		.byte	0x2
 9606 2b85 00       		.byte	0
 9607 2b86 00       		.byte	0
 9608 2b87 0D       		.uleb128 0xd
 9609 2b88 04       		.byte	0x4
 9610 2b89 1F       		.byte	0x1f
 9611 2b8a A0       		.byte	0xa0
 9612 2b8b 9F2B0000 		.4byte	0x2b9f
 9613 2b8f 2D       		.uleb128 0x2d
 9614 2b90 53494400 		.ascii	"SID\000"
 9615 2b94 1F       		.byte	0x1f
 9616 2b95 A1       		.byte	0xa1
 9617 2b96 7F090000 		.4byte	0x97f
 9618 2b9a 04       		.byte	0x4
 9619 2b9b 0B       		.byte	0xb
 9620 2b9c 15       		.byte	0x15
 9621 2b9d 00       		.byte	0
 9622 2b9e 00       		.byte	0
 9623 2b9f 0D       		.uleb128 0xd
 9624 2ba0 04       		.byte	0x4
 9625 2ba1 1F       		.byte	0x1f
 9626 2ba2 A3       		.byte	0xa3
 9627 2ba3 B72B0000 		.4byte	0x2bb7
 9628 2ba7 2D       		.uleb128 0x2d
 9629 2ba8 45494400 		.ascii	"EID\000"
 9630 2bac 1F       		.byte	0x1f
 9631 2bad A4       		.byte	0xa4
 9632 2bae 7F090000 		.4byte	0x97f
 9633 2bb2 04       		.byte	0x4
 9634 2bb3 1D       		.byte	0x1d
 9635 2bb4 03       		.byte	0x3
 9636 2bb5 00       		.byte	0
 9637 2bb6 00       		.byte	0
 9638 2bb7 09       		.uleb128 0x9
ARM GAS  /tmp/ccjQGkoy.s 			page 171


 9639 2bb8 04       		.byte	0x4
 9640 2bb9 1F       		.byte	0x1f
 9641 2bba 9F       		.byte	0x9f
 9642 2bbb CA2B0000 		.4byte	0x2bca
 9643 2bbf 2E       		.uleb128 0x2e
 9644 2bc0 872B0000 		.4byte	0x2b87
 9645 2bc4 2E       		.uleb128 0x2e
 9646 2bc5 9F2B0000 		.4byte	0x2b9f
 9647 2bc9 00       		.byte	0
 9648 2bca 09       		.uleb128 0x9
 9649 2bcb 08       		.byte	0x8
 9650 2bcc 1F       		.byte	0x1f
 9651 2bcd A7       		.byte	0xa7
 9652 2bce F42B0000 		.4byte	0x2bf4
 9653 2bd2 0A       		.uleb128 0xa
 9654 2bd3 8B2E0000 		.4byte	.LASF705
 9655 2bd7 1F       		.byte	0x1f
 9656 2bd8 A8       		.byte	0xa8
 9657 2bd9 211F0000 		.4byte	0x1f21
 9658 2bdd 0A       		.uleb128 0xa
 9659 2bde EE300000 		.4byte	.LASF706
 9660 2be2 1F       		.byte	0x1f
 9661 2be3 A9       		.byte	0xa9
 9662 2be4 F42B0000 		.4byte	0x2bf4
 9663 2be8 0A       		.uleb128 0xa
 9664 2be9 03330000 		.4byte	.LASF707
 9665 2bed 1F       		.byte	0x1f
 9666 2bee AA       		.byte	0xaa
 9667 2bef 4F0D0000 		.4byte	0xd4f
 9668 2bf3 00       		.byte	0
 9669 2bf4 0B       		.uleb128 0xb
 9670 2bf5 5F090000 		.4byte	0x95f
 9671 2bf9 042C0000 		.4byte	0x2c04
 9672 2bfd 0C       		.uleb128 0xc
 9673 2bfe 48000000 		.4byte	0x48
 9674 2c02 03       		.byte	0x3
 9675 2c03 00       		.byte	0
 9676 2c04 0D       		.uleb128 0xd
 9677 2c05 10       		.byte	0x10
 9678 2c06 1F       		.byte	0x1f
 9679 2c07 99       		.byte	0x99
 9680 2c08 1F2C0000 		.4byte	0x2c1f
 9681 2c0c 2F       		.uleb128 0x2f
 9682 2c0d 512B0000 		.4byte	0x2b51
 9683 2c11 00       		.byte	0
 9684 2c12 2F       		.uleb128 0x2f
 9685 2c13 B72B0000 		.4byte	0x2bb7
 9686 2c17 04       		.byte	0x4
 9687 2c18 2F       		.uleb128 0x2f
 9688 2c19 CA2B0000 		.4byte	0x2bca
 9689 2c1d 08       		.byte	0x8
 9690 2c1e 00       		.byte	0
 9691 2c1f 05       		.uleb128 0x5
 9692 2c20 97050000 		.4byte	.LASF708
 9693 2c24 1F       		.byte	0x1f
 9694 2c25 AC       		.byte	0xac
 9695 2c26 042C0000 		.4byte	0x2c04
ARM GAS  /tmp/ccjQGkoy.s 			page 172


 9696 2c2a 0D       		.uleb128 0xd
 9697 2c2b 04       		.byte	0x4
 9698 2c2c 1F       		.byte	0x1f
 9699 2c2d B4       		.byte	0xb4
 9700 2c2e 4B2C0000 		.4byte	0x2c4b
 9701 2c32 12       		.uleb128 0x12
 9702 2c33 464D4900 		.ascii	"FMI\000"
 9703 2c37 1F       		.byte	0x1f
 9704 2c38 B5       		.byte	0xb5
 9705 2c39 44090000 		.4byte	0x944
 9706 2c3d 00       		.byte	0
 9707 2c3e 0E       		.uleb128 0xe
 9708 2c3f 12050000 		.4byte	.LASF709
 9709 2c43 1F       		.byte	0x1f
 9710 2c44 B6       		.byte	0xb6
 9711 2c45 5F090000 		.4byte	0x95f
 9712 2c49 02       		.byte	0x2
 9713 2c4a 00       		.byte	0
 9714 2c4b 0D       		.uleb128 0xd
 9715 2c4c 01       		.byte	0x1
 9716 2c4d 1F       		.byte	0x1f
 9717 2c4e B8       		.byte	0xb8
 9718 2c4f 812C0000 		.4byte	0x2c81
 9719 2c53 2D       		.uleb128 0x2d
 9720 2c54 444C4300 		.ascii	"DLC\000"
 9721 2c58 1F       		.byte	0x1f
 9722 2c59 B9       		.byte	0xb9
 9723 2c5a 44090000 		.4byte	0x944
 9724 2c5e 01       		.byte	0x1
 9725 2c5f 04       		.byte	0x4
 9726 2c60 04       		.byte	0x4
 9727 2c61 00       		.byte	0
 9728 2c62 2D       		.uleb128 0x2d
 9729 2c63 52545200 		.ascii	"RTR\000"
 9730 2c67 1F       		.byte	0x1f
 9731 2c68 BA       		.byte	0xba
 9732 2c69 44090000 		.4byte	0x944
 9733 2c6d 01       		.byte	0x1
 9734 2c6e 01       		.byte	0x1
 9735 2c6f 03       		.byte	0x3
 9736 2c70 00       		.byte	0
 9737 2c71 2D       		.uleb128 0x2d
 9738 2c72 49444500 		.ascii	"IDE\000"
 9739 2c76 1F       		.byte	0x1f
 9740 2c77 BB       		.byte	0xbb
 9741 2c78 44090000 		.4byte	0x944
 9742 2c7c 01       		.byte	0x1
 9743 2c7d 01       		.byte	0x1
 9744 2c7e 02       		.byte	0x2
 9745 2c7f 00       		.byte	0
 9746 2c80 00       		.byte	0
 9747 2c81 0D       		.uleb128 0xd
 9748 2c82 04       		.byte	0x4
 9749 2c83 1F       		.byte	0x1f
 9750 2c84 BE       		.byte	0xbe
 9751 2c85 992C0000 		.4byte	0x2c99
 9752 2c89 2D       		.uleb128 0x2d
ARM GAS  /tmp/ccjQGkoy.s 			page 173


 9753 2c8a 53494400 		.ascii	"SID\000"
 9754 2c8e 1F       		.byte	0x1f
 9755 2c8f BF       		.byte	0xbf
 9756 2c90 7F090000 		.4byte	0x97f
 9757 2c94 04       		.byte	0x4
 9758 2c95 0B       		.byte	0xb
 9759 2c96 15       		.byte	0x15
 9760 2c97 00       		.byte	0
 9761 2c98 00       		.byte	0
 9762 2c99 0D       		.uleb128 0xd
 9763 2c9a 04       		.byte	0x4
 9764 2c9b 1F       		.byte	0x1f
 9765 2c9c C1       		.byte	0xc1
 9766 2c9d B12C0000 		.4byte	0x2cb1
 9767 2ca1 2D       		.uleb128 0x2d
 9768 2ca2 45494400 		.ascii	"EID\000"
 9769 2ca6 1F       		.byte	0x1f
 9770 2ca7 C2       		.byte	0xc2
 9771 2ca8 7F090000 		.4byte	0x97f
 9772 2cac 04       		.byte	0x4
 9773 2cad 1D       		.byte	0x1d
 9774 2cae 03       		.byte	0x3
 9775 2caf 00       		.byte	0
 9776 2cb0 00       		.byte	0
 9777 2cb1 09       		.uleb128 0x9
 9778 2cb2 04       		.byte	0x4
 9779 2cb3 1F       		.byte	0x1f
 9780 2cb4 BD       		.byte	0xbd
 9781 2cb5 C42C0000 		.4byte	0x2cc4
 9782 2cb9 2E       		.uleb128 0x2e
 9783 2cba 812C0000 		.4byte	0x2c81
 9784 2cbe 2E       		.uleb128 0x2e
 9785 2cbf 992C0000 		.4byte	0x2c99
 9786 2cc3 00       		.byte	0
 9787 2cc4 09       		.uleb128 0x9
 9788 2cc5 08       		.byte	0x8
 9789 2cc6 1F       		.byte	0x1f
 9790 2cc7 C5       		.byte	0xc5
 9791 2cc8 EE2C0000 		.4byte	0x2cee
 9792 2ccc 0A       		.uleb128 0xa
 9793 2ccd 8B2E0000 		.4byte	.LASF705
 9794 2cd1 1F       		.byte	0x1f
 9795 2cd2 C6       		.byte	0xc6
 9796 2cd3 211F0000 		.4byte	0x1f21
 9797 2cd7 0A       		.uleb128 0xa
 9798 2cd8 EE300000 		.4byte	.LASF706
 9799 2cdc 1F       		.byte	0x1f
 9800 2cdd C7       		.byte	0xc7
 9801 2cde F42B0000 		.4byte	0x2bf4
 9802 2ce2 0A       		.uleb128 0xa
 9803 2ce3 03330000 		.4byte	.LASF707
 9804 2ce7 1F       		.byte	0x1f
 9805 2ce8 C8       		.byte	0xc8
 9806 2ce9 4F0D0000 		.4byte	0xd4f
 9807 2ced 00       		.byte	0
 9808 2cee 0D       		.uleb128 0xd
 9809 2cef 14       		.byte	0x14
ARM GAS  /tmp/ccjQGkoy.s 			page 174


 9810 2cf0 1F       		.byte	0x1f
 9811 2cf1 B3       		.byte	0xb3
 9812 2cf2 0F2D0000 		.4byte	0x2d0f
 9813 2cf6 2F       		.uleb128 0x2f
 9814 2cf7 2A2C0000 		.4byte	0x2c2a
 9815 2cfb 00       		.byte	0
 9816 2cfc 2F       		.uleb128 0x2f
 9817 2cfd 4B2C0000 		.4byte	0x2c4b
 9818 2d01 04       		.byte	0x4
 9819 2d02 2F       		.uleb128 0x2f
 9820 2d03 B12C0000 		.4byte	0x2cb1
 9821 2d07 08       		.byte	0x8
 9822 2d08 2F       		.uleb128 0x2f
 9823 2d09 C42C0000 		.4byte	0x2cc4
 9824 2d0d 0C       		.byte	0xc
 9825 2d0e 00       		.byte	0
 9826 2d0f 05       		.uleb128 0x5
 9827 2d10 CA020000 		.4byte	.LASF710
 9828 2d14 1F       		.byte	0x1f
 9829 2d15 CA       		.byte	0xca
 9830 2d16 EE2C0000 		.4byte	0x2cee
 9831 2d1a 0D       		.uleb128 0xd
 9832 2d1b 08       		.byte	0x8
 9833 2d1c 1F       		.byte	0x1f
 9834 2d1d F4       		.byte	0xf4
 9835 2d1e 3C2D0000 		.4byte	0x2d3c
 9836 2d22 12       		.uleb128 0x12
 9837 2d23 6D637200 		.ascii	"mcr\000"
 9838 2d27 1F       		.byte	0x1f
 9839 2d28 FA       		.byte	0xfa
 9840 2d29 7F090000 		.4byte	0x97f
 9841 2d2d 00       		.byte	0
 9842 2d2e 24       		.uleb128 0x24
 9843 2d2f 62747200 		.ascii	"btr\000"
 9844 2d33 1F       		.byte	0x1f
 9845 2d34 0001     		.2byte	0x100
 9846 2d36 7F090000 		.4byte	0x97f
 9847 2d3a 04       		.byte	0x4
 9848 2d3b 00       		.byte	0
 9849 2d3c 08       		.uleb128 0x8
 9850 2d3d D4270000 		.4byte	.LASF711
 9851 2d41 1F       		.byte	0x1f
 9852 2d42 0101     		.2byte	0x101
 9853 2d44 1A2D0000 		.4byte	0x2d1a
 9854 2d48 10       		.uleb128 0x10
 9855 2d49 3C2D0000 		.4byte	0x2d3c
 9856 2d4d 1C       		.uleb128 0x1c
 9857 2d4e 30       		.byte	0x30
 9858 2d4f 1F       		.byte	0x1f
 9859 2d50 0601     		.2byte	0x106
 9860 2d52 D92D0000 		.4byte	0x2dd9
 9861 2d56 19       		.uleb128 0x19
 9862 2d57 75210000 		.4byte	.LASF712
 9863 2d5b 1F       		.byte	0x1f
 9864 2d5c 0A01     		.2byte	0x10a
 9865 2d5e 462B0000 		.4byte	0x2b46
 9866 2d62 00       		.byte	0
ARM GAS  /tmp/ccjQGkoy.s 			page 175


 9867 2d63 19       		.uleb128 0x19
 9868 2d64 6F360000 		.4byte	.LASF713
 9869 2d68 1F       		.byte	0x1f
 9870 2d69 0E01     		.2byte	0x10e
 9871 2d6b D92D0000 		.4byte	0x2dd9
 9872 2d6f 04       		.byte	0x4
 9873 2d70 19       		.uleb128 0x19
 9874 2d71 BD0D0000 		.4byte	.LASF714
 9875 2d75 1F       		.byte	0x1f
 9876 2d76 1201     		.2byte	0x112
 9877 2d78 680B0000 		.4byte	0xb68
 9878 2d7c 08       		.byte	0x8
 9879 2d7d 19       		.uleb128 0x19
 9880 2d7e 0A300000 		.4byte	.LASF715
 9881 2d82 1F       		.byte	0x1f
 9882 2d83 1601     		.2byte	0x116
 9883 2d85 680B0000 		.4byte	0xb68
 9884 2d89 10       		.byte	0x10
 9885 2d8a 19       		.uleb128 0x19
 9886 2d8b 69270000 		.4byte	.LASF716
 9887 2d8f 1F       		.byte	0x1f
 9888 2d90 2301     		.2byte	0x123
 9889 2d92 0D160000 		.4byte	0x160d
 9890 2d96 18       		.byte	0x18
 9891 2d97 19       		.uleb128 0x19
 9892 2d98 ED100000 		.4byte	.LASF717
 9893 2d9c 1F       		.byte	0x1f
 9894 2d9d 2A01     		.2byte	0x12a
 9895 2d9f 0D160000 		.4byte	0x160d
 9896 2da3 1C       		.byte	0x1c
 9897 2da4 19       		.uleb128 0x19
 9898 2da5 11180000 		.4byte	.LASF718
 9899 2da9 1F       		.byte	0x1f
 9900 2daa 3001     		.2byte	0x130
 9901 2dac 0D160000 		.4byte	0x160d
 9902 2db0 20       		.byte	0x20
 9903 2db1 19       		.uleb128 0x19
 9904 2db2 4A050000 		.4byte	.LASF719
 9905 2db6 1F       		.byte	0x1f
 9906 2db7 3501     		.2byte	0x135
 9907 2db9 0D160000 		.4byte	0x160d
 9908 2dbd 24       		.byte	0x24
 9909 2dbe 19       		.uleb128 0x19
 9910 2dbf 520D0000 		.4byte	.LASF720
 9911 2dc3 1F       		.byte	0x1f
 9912 2dc4 3901     		.2byte	0x139
 9913 2dc6 0D160000 		.4byte	0x160d
 9914 2dca 28       		.byte	0x28
 9915 2dcb 24       		.uleb128 0x24
 9916 2dcc 63616E00 		.ascii	"can\000"
 9917 2dd0 1F       		.byte	0x1f
 9918 2dd1 3F01     		.2byte	0x13f
 9919 2dd3 DF2D0000 		.4byte	0x2ddf
 9920 2dd7 2C       		.byte	0x2c
 9921 2dd8 00       		.byte	0
 9922 2dd9 06       		.uleb128 0x6
 9923 2dda 04       		.byte	0x4
ARM GAS  /tmp/ccjQGkoy.s 			page 176


 9924 2ddb 482D0000 		.4byte	0x2d48
 9925 2ddf 06       		.uleb128 0x6
 9926 2de0 04       		.byte	0x4
 9927 2de1 C40F0000 		.4byte	0xfc4
 9928 2de5 08       		.uleb128 0x8
 9929 2de6 B8050000 		.4byte	.LASF721
 9930 2dea 1F       		.byte	0x1f
 9931 2deb 4001     		.2byte	0x140
 9932 2ded 4D2D0000 		.4byte	0x2d4d
 9933 2df1 20       		.uleb128 0x20
 9934 2df2 9F330000 		.4byte	.LASF722
 9935 2df6 1F       		.byte	0x1f
 9936 2df7 4B01     		.2byte	0x14b
 9937 2df9 E52D0000 		.4byte	0x2de5
 9938 2dfd 29       		.uleb128 0x29
 9939 2dfe 07       		.byte	0x7
 9940 2dff 01       		.byte	0x1
 9941 2e00 6C000000 		.4byte	0x6c
 9942 2e04 20       		.byte	0x20
 9943 2e05 4C       		.byte	0x4c
 9944 2e06 2F2E0000 		.4byte	0x2e2f
 9945 2e0a 23       		.uleb128 0x23
 9946 2e0b 40090000 		.4byte	.LASF723
 9947 2e0f 00       		.byte	0
 9948 2e10 23       		.uleb128 0x23
 9949 2e11 6F160000 		.4byte	.LASF724
 9950 2e15 01       		.byte	0x1
 9951 2e16 23       		.uleb128 0x23
 9952 2e17 A20A0000 		.4byte	.LASF725
 9953 2e1b 02       		.byte	0x2
 9954 2e1c 23       		.uleb128 0x23
 9955 2e1d 0C070000 		.4byte	.LASF726
 9956 2e21 03       		.byte	0x3
 9957 2e22 23       		.uleb128 0x23
 9958 2e23 17050000 		.4byte	.LASF727
 9959 2e27 04       		.byte	0x4
 9960 2e28 23       		.uleb128 0x23
 9961 2e29 641D0000 		.4byte	.LASF728
 9962 2e2d 05       		.byte	0x5
 9963 2e2e 00       		.byte	0
 9964 2e2f 05       		.uleb128 0x5
 9965 2e30 45170000 		.4byte	.LASF729
 9966 2e34 20       		.byte	0x20
 9967 2e35 53       		.byte	0x53
 9968 2e36 FD2D0000 		.4byte	0x2dfd
 9969 2e3a 08       		.uleb128 0x8
 9970 2e3b EF230000 		.4byte	.LASF730
 9971 2e3f 21       		.byte	0x21
 9972 2e40 6A01     		.2byte	0x16a
 9973 2e42 5F090000 		.4byte	0x95f
 9974 2e46 08       		.uleb128 0x8
 9975 2e47 F3050000 		.4byte	.LASF731
 9976 2e4b 21       		.byte	0x21
 9977 2e4c 6F01     		.2byte	0x16f
 9978 2e4e 7F090000 		.4byte	0x97f
 9979 2e52 2B       		.uleb128 0x2b
 9980 2e53 07       		.byte	0x7
ARM GAS  /tmp/ccjQGkoy.s 			page 177


 9981 2e54 01       		.byte	0x1
 9982 2e55 6C000000 		.4byte	0x6c
 9983 2e59 21       		.byte	0x21
 9984 2e5a 7401     		.2byte	0x174
 9985 2e5c 732E0000 		.4byte	0x2e73
 9986 2e60 23       		.uleb128 0x23
 9987 2e61 35070000 		.4byte	.LASF732
 9988 2e65 01       		.byte	0x1
 9989 2e66 23       		.uleb128 0x23
 9990 2e67 DA000000 		.4byte	.LASF733
 9991 2e6b 02       		.byte	0x2
 9992 2e6c 23       		.uleb128 0x23
 9993 2e6d 100E0000 		.4byte	.LASF734
 9994 2e71 03       		.byte	0x3
 9995 2e72 00       		.byte	0
 9996 2e73 08       		.uleb128 0x8
 9997 2e74 323C0000 		.4byte	.LASF735
 9998 2e78 21       		.byte	0x21
 9999 2e79 7801     		.2byte	0x178
 10000 2e7b 522E0000 		.4byte	0x2e52
 10001 2e7f 2B       		.uleb128 0x2b
 10002 2e80 07       		.byte	0x7
 10003 2e81 01       		.byte	0x1
 10004 2e82 6C000000 		.4byte	0x6c
 10005 2e86 21       		.byte	0x21
 10006 2e87 7D01     		.2byte	0x17d
 10007 2e89 A02E0000 		.4byte	0x2ea0
 10008 2e8d 23       		.uleb128 0x23
 10009 2e8e 47150000 		.4byte	.LASF736
 10010 2e92 01       		.byte	0x1
 10011 2e93 23       		.uleb128 0x23
 10012 2e94 2A3B0000 		.4byte	.LASF737
 10013 2e98 02       		.byte	0x2
 10014 2e99 23       		.uleb128 0x23
 10015 2e9a AC0F0000 		.4byte	.LASF738
 10016 2e9e 03       		.byte	0x3
 10017 2e9f 00       		.byte	0
 10018 2ea0 08       		.uleb128 0x8
 10019 2ea1 010A0000 		.4byte	.LASF739
 10020 2ea5 21       		.byte	0x21
 10021 2ea6 8101     		.2byte	0x181
 10022 2ea8 7F2E0000 		.4byte	0x2e7f
 10023 2eac 1C       		.uleb128 0x1c
 10024 2ead 0C       		.byte	0xc
 10025 2eae 21       		.byte	0x21
 10026 2eaf 8601     		.2byte	0x186
 10027 2eb1 DD2E0000 		.4byte	0x2edd
 10028 2eb5 19       		.uleb128 0x19
 10029 2eb6 02090000 		.4byte	.LASF740
 10030 2eba 21       		.byte	0x21
 10031 2ebb 8801     		.2byte	0x188
 10032 2ebd 732E0000 		.4byte	0x2e73
 10033 2ec1 00       		.byte	0
 10034 2ec2 19       		.uleb128 0x19
 10035 2ec3 A2050000 		.4byte	.LASF741
 10036 2ec7 21       		.byte	0x21
 10037 2ec8 8901     		.2byte	0x189
ARM GAS  /tmp/ccjQGkoy.s 			page 178


 10038 2eca 7F090000 		.4byte	0x97f
 10039 2ece 04       		.byte	0x4
 10040 2ecf 19       		.uleb128 0x19
 10041 2ed0 143D0000 		.4byte	.LASF742
 10042 2ed4 21       		.byte	0x21
 10043 2ed5 8C01     		.2byte	0x18c
 10044 2ed7 A02E0000 		.4byte	0x2ea0
 10045 2edb 08       		.byte	0x8
 10046 2edc 00       		.byte	0
 10047 2edd 08       		.uleb128 0x8
 10048 2ede F1020000 		.4byte	.LASF743
 10049 2ee2 21       		.byte	0x21
 10050 2ee3 8E01     		.2byte	0x18e
 10051 2ee5 AC2E0000 		.4byte	0x2eac
 10052 2ee9 10       		.uleb128 0x10
 10053 2eea DD2E0000 		.4byte	0x2edd
 10054 2eee 08       		.uleb128 0x8
 10055 2eef 02070000 		.4byte	.LASF744
 10056 2ef3 21       		.byte	0x21
 10057 2ef4 9301     		.2byte	0x193
 10058 2ef6 FA2E0000 		.4byte	0x2efa
 10059 2efa 1B       		.uleb128 0x1b
 10060 2efb 02070000 		.4byte	.LASF744
 10061 2eff 38       		.byte	0x38
 10062 2f00 21       		.byte	0x21
 10063 2f01 9801     		.2byte	0x198
 10064 2f03 972F0000 		.4byte	0x2f97
 10065 2f07 19       		.uleb128 0x19
 10066 2f08 75210000 		.4byte	.LASF712
 10067 2f0c 21       		.byte	0x21
 10068 2f0d 9C01     		.2byte	0x19c
 10069 2f0f 2F2E0000 		.4byte	0x2e2f
 10070 2f13 00       		.byte	0
 10071 2f14 19       		.uleb128 0x19
 10072 2f15 6F360000 		.4byte	.LASF713
 10073 2f19 21       		.byte	0x21
 10074 2f1a A001     		.2byte	0x1a0
 10075 2f1c 972F0000 		.4byte	0x2f97
 10076 2f20 04       		.byte	0x4
 10077 2f21 19       		.uleb128 0x19
 10078 2f22 23020000 		.4byte	.LASF745
 10079 2f26 21       		.byte	0x21
 10080 2f27 A401     		.2byte	0x1a4
 10081 2f29 462E0000 		.4byte	0x2e46
 10082 2f2d 08       		.byte	0x8
 10083 2f2e 19       		.uleb128 0x19
 10084 2f2f 6D130000 		.4byte	.LASF746
 10085 2f33 21       		.byte	0x21
 10086 2f34 A901     		.2byte	0x1a9
 10087 2f36 89150000 		.4byte	0x1589
 10088 2f3a 0C       		.byte	0xc
 10089 2f3b 19       		.uleb128 0x19
 10090 2f3c 3F0A0000 		.4byte	.LASF747
 10091 2f40 21       		.byte	0x21
 10092 2f41 B201     		.2byte	0x1b2
 10093 2f43 330B0000 		.4byte	0xb33
 10094 2f47 1C       		.byte	0x1c
ARM GAS  /tmp/ccjQGkoy.s 			page 179


 10095 2f48 19       		.uleb128 0x19
 10096 2f49 78160000 		.4byte	.LASF748
 10097 2f4d 21       		.byte	0x21
 10098 2f4e B601     		.2byte	0x1b6
 10099 2f50 3A2E0000 		.4byte	0x2e3a
 10100 2f54 20       		.byte	0x20
 10101 2f55 19       		.uleb128 0x19
 10102 2f56 960C0000 		.4byte	.LASF749
 10103 2f5a 21       		.byte	0x21
 10104 2f5b BA01     		.2byte	0x1ba
 10105 2f5d 7F090000 		.4byte	0x97f
 10106 2f61 24       		.byte	0x24
 10107 2f62 19       		.uleb128 0x19
 10108 2f63 F80C0000 		.4byte	.LASF750
 10109 2f67 21       		.byte	0x21
 10110 2f68 BE01     		.2byte	0x1be
 10111 2f6a 7F090000 		.4byte	0x97f
 10112 2f6e 28       		.byte	0x28
 10113 2f6f 19       		.uleb128 0x19
 10114 2f70 C7010000 		.4byte	.LASF751
 10115 2f74 21       		.byte	0x21
 10116 2f75 C201     		.2byte	0x1c2
 10117 2f77 9D2F0000 		.4byte	0x2f9d
 10118 2f7b 2C       		.byte	0x2c
 10119 2f7c 19       		.uleb128 0x19
 10120 2f7d 15030000 		.4byte	.LASF752
 10121 2f81 21       		.byte	0x21
 10122 2f82 C601     		.2byte	0x1c6
 10123 2f84 9D2F0000 		.4byte	0x2f9d
 10124 2f88 30       		.byte	0x30
 10125 2f89 24       		.uleb128 0x24
 10126 2f8a 69326300 		.ascii	"i2c\000"
 10127 2f8e 21       		.byte	0x21
 10128 2f8f CA01     		.2byte	0x1ca
 10129 2f91 A32F0000 		.4byte	0x2fa3
 10130 2f95 34       		.byte	0x34
 10131 2f96 00       		.byte	0
 10132 2f97 06       		.uleb128 0x6
 10133 2f98 04       		.byte	0x4
 10134 2f99 E92E0000 		.4byte	0x2ee9
 10135 2f9d 06       		.uleb128 0x6
 10136 2f9e 04       		.byte	0x4
 10137 2f9f 83280000 		.4byte	0x2883
 10138 2fa3 06       		.uleb128 0x6
 10139 2fa4 04       		.byte	0x4
 10140 2fa5 E8100000 		.4byte	0x10e8
 10141 2fa9 20       		.uleb128 0x20
 10142 2faa E81A0000 		.4byte	.LASF753
 10143 2fae 21       		.byte	0x21
 10144 2faf E401     		.2byte	0x1e4
 10145 2fb1 EE2E0000 		.4byte	0x2eee
 10146 2fb5 29       		.uleb128 0x29
 10147 2fb6 07       		.byte	0x7
 10148 2fb7 01       		.byte	0x1
 10149 2fb8 6C000000 		.4byte	0x6c
 10150 2fbc 22       		.byte	0x22
 10151 2fbd 31       		.byte	0x31
ARM GAS  /tmp/ccjQGkoy.s 			page 180


 10152 2fbe E12F0000 		.4byte	0x2fe1
 10153 2fc2 23       		.uleb128 0x23
 10154 2fc3 84390000 		.4byte	.LASF754
 10155 2fc7 00       		.byte	0
 10156 2fc8 23       		.uleb128 0x23
 10157 2fc9 E12E0000 		.4byte	.LASF755
 10158 2fcd 01       		.byte	0x1
 10159 2fce 23       		.uleb128 0x23
 10160 2fcf A6070000 		.4byte	.LASF756
 10161 2fd3 02       		.byte	0x2
 10162 2fd4 23       		.uleb128 0x23
 10163 2fd5 991E0000 		.4byte	.LASF757
 10164 2fd9 03       		.byte	0x3
 10165 2fda 23       		.uleb128 0x23
 10166 2fdb 5D2C0000 		.4byte	.LASF758
 10167 2fdf 04       		.byte	0x4
 10168 2fe0 00       		.byte	0
 10169 2fe1 05       		.uleb128 0x5
 10170 2fe2 3B320000 		.4byte	.LASF759
 10171 2fe6 22       		.byte	0x22
 10172 2fe7 37       		.byte	0x37
 10173 2fe8 B52F0000 		.4byte	0x2fb5
 10174 2fec 05       		.uleb128 0x5
 10175 2fed E2260000 		.4byte	.LASF760
 10176 2ff1 22       		.byte	0x22
 10177 2ff2 3C       		.byte	0x3c
 10178 2ff3 F72F0000 		.4byte	0x2ff7
 10179 2ff7 1B       		.uleb128 0x1b
 10180 2ff8 E2260000 		.4byte	.LASF760
 10181 2ffc 18       		.byte	0x18
 10182 2ffd 23       		.byte	0x23
 10183 2ffe 3101     		.2byte	0x131
 10184 3000 53300000 		.4byte	0x3053
 10185 3004 19       		.uleb128 0x19
 10186 3005 75210000 		.4byte	.LASF712
 10187 3009 23       		.byte	0x23
 10188 300a 3501     		.2byte	0x135
 10189 300c E12F0000 		.4byte	0x2fe1
 10190 3010 00       		.byte	0
 10191 3011 19       		.uleb128 0x19
 10192 3012 6F360000 		.4byte	.LASF713
 10193 3016 23       		.byte	0x23
 10194 3017 3901     		.2byte	0x139
 10195 3019 58320000 		.4byte	0x3258
 10196 301d 04       		.byte	0x4
 10197 301e 19       		.uleb128 0x19
 10198 301f A12F0000 		.4byte	.LASF761
 10199 3023 23       		.byte	0x23
 10200 3024 4101     		.2byte	0x141
 10201 3026 7F090000 		.4byte	0x97f
 10202 302a 08       		.byte	0x8
 10203 302b 24       		.uleb128 0x24
 10204 302c 74696D00 		.ascii	"tim\000"
 10205 3030 23       		.byte	0x23
 10206 3031 4501     		.2byte	0x145
 10207 3033 5E320000 		.4byte	0x325e
 10208 3037 0C       		.byte	0xc
ARM GAS  /tmp/ccjQGkoy.s 			page 181


 10209 3038 19       		.uleb128 0x19
 10210 3039 5B1E0000 		.4byte	.LASF762
 10211 303d 23       		.byte	0x23
 10212 303e 4901     		.2byte	0x149
 10213 3040 72280000 		.4byte	0x2872
 10214 3044 10       		.byte	0x10
 10215 3045 19       		.uleb128 0x19
 10216 3046 D7070000 		.4byte	.LASF763
 10217 304a 23       		.byte	0x23
 10218 304b 4D01     		.2byte	0x14d
 10219 304d 72280000 		.4byte	0x2872
 10220 3051 14       		.byte	0x14
 10221 3052 00       		.byte	0
 10222 3053 05       		.uleb128 0x5
 10223 3054 00290000 		.4byte	.LASF764
 10224 3058 22       		.byte	0x22
 10225 3059 43       		.byte	0x43
 10226 305a 5E300000 		.4byte	0x305e
 10227 305e 06       		.uleb128 0x6
 10228 305f 04       		.byte	0x4
 10229 3060 64300000 		.4byte	0x3064
 10230 3064 1F       		.uleb128 0x1f
 10231 3065 6F300000 		.4byte	0x306f
 10232 3069 17       		.uleb128 0x17
 10233 306a 6F300000 		.4byte	0x306f
 10234 306e 00       		.byte	0
 10235 306f 06       		.uleb128 0x6
 10236 3070 04       		.byte	0x4
 10237 3071 EC2F0000 		.4byte	0x2fec
 10238 3075 1C       		.uleb128 0x1c
 10239 3076 60       		.byte	0x60
 10240 3077 24       		.byte	0x24
 10241 3078 9E01     		.2byte	0x19e
 10242 307a 81310000 		.4byte	0x3181
 10243 307e 24       		.uleb128 0x24
 10244 307f 43523100 		.ascii	"CR1\000"
 10245 3083 24       		.byte	0x24
 10246 3084 9F01     		.2byte	0x19f
 10247 3086 8A090000 		.4byte	0x98a
 10248 308a 00       		.byte	0
 10249 308b 24       		.uleb128 0x24
 10250 308c 43523200 		.ascii	"CR2\000"
 10251 3090 24       		.byte	0x24
 10252 3091 A001     		.2byte	0x1a0
 10253 3093 8A090000 		.4byte	0x98a
 10254 3097 04       		.byte	0x4
 10255 3098 19       		.uleb128 0x19
 10256 3099 5A320000 		.4byte	.LASF765
 10257 309d 24       		.byte	0x24
 10258 309e A101     		.2byte	0x1a1
 10259 30a0 8A090000 		.4byte	0x98a
 10260 30a4 08       		.byte	0x8
 10261 30a5 19       		.uleb128 0x19
 10262 30a6 7A350000 		.4byte	.LASF766
 10263 30aa 24       		.byte	0x24
 10264 30ab A201     		.2byte	0x1a2
 10265 30ad 8A090000 		.4byte	0x98a
ARM GAS  /tmp/ccjQGkoy.s 			page 182


 10266 30b1 0C       		.byte	0xc
 10267 30b2 24       		.uleb128 0x24
 10268 30b3 535200   		.ascii	"SR\000"
 10269 30b6 24       		.byte	0x24
 10270 30b7 A301     		.2byte	0x1a3
 10271 30b9 8A090000 		.4byte	0x98a
 10272 30bd 10       		.byte	0x10
 10273 30be 24       		.uleb128 0x24
 10274 30bf 45475200 		.ascii	"EGR\000"
 10275 30c3 24       		.byte	0x24
 10276 30c4 A401     		.2byte	0x1a4
 10277 30c6 8A090000 		.4byte	0x98a
 10278 30ca 14       		.byte	0x14
 10279 30cb 19       		.uleb128 0x19
 10280 30cc A63B0000 		.4byte	.LASF767
 10281 30d0 24       		.byte	0x24
 10282 30d1 A501     		.2byte	0x1a5
 10283 30d3 8A090000 		.4byte	0x98a
 10284 30d7 18       		.byte	0x18
 10285 30d8 19       		.uleb128 0x19
 10286 30d9 AC3B0000 		.4byte	.LASF768
 10287 30dd 24       		.byte	0x24
 10288 30de A601     		.2byte	0x1a6
 10289 30e0 8A090000 		.4byte	0x98a
 10290 30e4 1C       		.byte	0x1c
 10291 30e5 19       		.uleb128 0x19
 10292 30e6 C00A0000 		.4byte	.LASF769
 10293 30ea 24       		.byte	0x24
 10294 30eb A701     		.2byte	0x1a7
 10295 30ed 8A090000 		.4byte	0x98a
 10296 30f1 20       		.byte	0x20
 10297 30f2 24       		.uleb128 0x24
 10298 30f3 434E5400 		.ascii	"CNT\000"
 10299 30f7 24       		.byte	0x24
 10300 30f8 A801     		.2byte	0x1a8
 10301 30fa 8A090000 		.4byte	0x98a
 10302 30fe 24       		.byte	0x24
 10303 30ff 24       		.uleb128 0x24
 10304 3100 50534300 		.ascii	"PSC\000"
 10305 3104 24       		.byte	0x24
 10306 3105 A901     		.2byte	0x1a9
 10307 3107 8A090000 		.4byte	0x98a
 10308 310b 28       		.byte	0x28
 10309 310c 24       		.uleb128 0x24
 10310 310d 41525200 		.ascii	"ARR\000"
 10311 3111 24       		.byte	0x24
 10312 3112 AA01     		.2byte	0x1aa
 10313 3114 8A090000 		.4byte	0x98a
 10314 3118 2C       		.byte	0x2c
 10315 3119 24       		.uleb128 0x24
 10316 311a 52435200 		.ascii	"RCR\000"
 10317 311e 24       		.byte	0x24
 10318 311f AB01     		.2byte	0x1ab
 10319 3121 8A090000 		.4byte	0x98a
 10320 3125 30       		.byte	0x30
 10321 3126 24       		.uleb128 0x24
 10322 3127 43435200 		.ascii	"CCR\000"
ARM GAS  /tmp/ccjQGkoy.s 			page 183


 10323 312b 24       		.byte	0x24
 10324 312c AC01     		.2byte	0x1ac
 10325 312e 58100000 		.4byte	0x1058
 10326 3132 34       		.byte	0x34
 10327 3133 19       		.uleb128 0x19
 10328 3134 EC020000 		.4byte	.LASF770
 10329 3138 24       		.byte	0x24
 10330 3139 AD01     		.2byte	0x1ad
 10331 313b 8A090000 		.4byte	0x98a
 10332 313f 44       		.byte	0x44
 10333 3140 24       		.uleb128 0x24
 10334 3141 44435200 		.ascii	"DCR\000"
 10335 3145 24       		.byte	0x24
 10336 3146 AE01     		.2byte	0x1ae
 10337 3148 8A090000 		.4byte	0x98a
 10338 314c 48       		.byte	0x48
 10339 314d 19       		.uleb128 0x19
 10340 314e E5210000 		.4byte	.LASF771
 10341 3152 24       		.byte	0x24
 10342 3153 AF01     		.2byte	0x1af
 10343 3155 8A090000 		.4byte	0x98a
 10344 3159 4C       		.byte	0x4c
 10345 315a 24       		.uleb128 0x24
 10346 315b 4F5200   		.ascii	"OR\000"
 10347 315e 24       		.byte	0x24
 10348 315f B001     		.2byte	0x1b0
 10349 3161 8A090000 		.4byte	0x98a
 10350 3165 50       		.byte	0x50
 10351 3166 19       		.uleb128 0x19
 10352 3167 B23B0000 		.4byte	.LASF772
 10353 316b 24       		.byte	0x24
 10354 316c B101     		.2byte	0x1b1
 10355 316e 8A090000 		.4byte	0x98a
 10356 3172 54       		.byte	0x54
 10357 3173 19       		.uleb128 0x19
 10358 3174 11140000 		.4byte	.LASF773
 10359 3178 24       		.byte	0x24
 10360 3179 B201     		.2byte	0x1b2
 10361 317b 43100000 		.4byte	0x1043
 10362 317f 58       		.byte	0x58
 10363 3180 00       		.byte	0
 10364 3181 08       		.uleb128 0x8
 10365 3182 E2300000 		.4byte	.LASF774
 10366 3186 24       		.byte	0x24
 10367 3187 B301     		.2byte	0x1b3
 10368 3189 75300000 		.4byte	0x3075
 10369 318d 29       		.uleb128 0x29
 10370 318e 07       		.byte	0x7
 10371 318f 01       		.byte	0x1
 10372 3190 6C000000 		.4byte	0x6c
 10373 3194 23       		.byte	0x23
 10374 3195 EE       		.byte	0xee
 10375 3196 A7310000 		.4byte	0x31a7
 10376 319a 23       		.uleb128 0x23
 10377 319b BF0C0000 		.4byte	.LASF775
 10378 319f 00       		.byte	0
 10379 31a0 23       		.uleb128 0x23
ARM GAS  /tmp/ccjQGkoy.s 			page 184


 10380 31a1 F4290000 		.4byte	.LASF776
 10381 31a5 01       		.byte	0x1
 10382 31a6 00       		.byte	0
 10383 31a7 05       		.uleb128 0x5
 10384 31a8 3C370000 		.4byte	.LASF777
 10385 31ac 23       		.byte	0x23
 10386 31ad F1       		.byte	0xf1
 10387 31ae 8D310000 		.4byte	0x318d
 10388 31b2 05       		.uleb128 0x5
 10389 31b3 521D0000 		.4byte	.LASF778
 10390 31b7 23       		.byte	0x23
 10391 31b8 F6       		.byte	0xf6
 10392 31b9 7F090000 		.4byte	0x97f
 10393 31bd 29       		.uleb128 0x29
 10394 31be 07       		.byte	0x7
 10395 31bf 01       		.byte	0x1
 10396 31c0 6C000000 		.4byte	0x6c
 10397 31c4 23       		.byte	0x23
 10398 31c5 FB       		.byte	0xfb
 10399 31c6 D7310000 		.4byte	0x31d7
 10400 31ca 23       		.uleb128 0x23
 10401 31cb 97280000 		.4byte	.LASF779
 10402 31cf 00       		.byte	0
 10403 31d0 23       		.uleb128 0x23
 10404 31d1 4D310000 		.4byte	.LASF780
 10405 31d5 01       		.byte	0x1
 10406 31d6 00       		.byte	0
 10407 31d7 05       		.uleb128 0x5
 10408 31d8 A8080000 		.4byte	.LASF781
 10409 31dc 23       		.byte	0x23
 10410 31dd FE       		.byte	0xfe
 10411 31de BD310000 		.4byte	0x31bd
 10412 31e2 1C       		.uleb128 0x1c
 10413 31e3 1C       		.byte	0x1c
 10414 31e4 23       		.byte	0x23
 10415 31e5 0901     		.2byte	0x109
 10416 31e7 47320000 		.4byte	0x3247
 10417 31eb 19       		.uleb128 0x19
 10418 31ec AA0C0000 		.4byte	.LASF782
 10419 31f0 23       		.byte	0x23
 10420 31f1 0D01     		.2byte	0x10d
 10421 31f3 A7310000 		.4byte	0x31a7
 10422 31f7 00       		.byte	0
 10423 31f8 19       		.uleb128 0x19
 10424 31f9 323A0000 		.4byte	.LASF783
 10425 31fd 23       		.byte	0x23
 10426 31fe 1301     		.2byte	0x113
 10427 3200 B2310000 		.4byte	0x31b2
 10428 3204 04       		.byte	0x4
 10429 3205 19       		.uleb128 0x19
 10430 3206 6F1D0000 		.4byte	.LASF784
 10431 320a 23       		.byte	0x23
 10432 320b 1701     		.2byte	0x117
 10433 320d 53300000 		.4byte	0x3053
 10434 3211 08       		.byte	0x8
 10435 3212 19       		.uleb128 0x19
 10436 3213 461A0000 		.4byte	.LASF785
ARM GAS  /tmp/ccjQGkoy.s 			page 185


 10437 3217 23       		.byte	0x23
 10438 3218 1B01     		.2byte	0x11b
 10439 321a 53300000 		.4byte	0x3053
 10440 321e 0C       		.byte	0xc
 10441 321f 19       		.uleb128 0x19
 10442 3220 D10F0000 		.4byte	.LASF786
 10443 3224 23       		.byte	0x23
 10444 3225 1F01     		.2byte	0x11f
 10445 3227 53300000 		.4byte	0x3053
 10446 322b 10       		.byte	0x10
 10447 322c 19       		.uleb128 0x19
 10448 322d 421B0000 		.4byte	.LASF591
 10449 3231 23       		.byte	0x23
 10450 3232 2501     		.2byte	0x125
 10451 3234 D7310000 		.4byte	0x31d7
 10452 3238 14       		.byte	0x14
 10453 3239 19       		.uleb128 0x19
 10454 323a F0120000 		.4byte	.LASF787
 10455 323e 23       		.byte	0x23
 10456 323f 2B01     		.2byte	0x12b
 10457 3241 7F090000 		.4byte	0x97f
 10458 3245 18       		.byte	0x18
 10459 3246 00       		.byte	0
 10460 3247 08       		.uleb128 0x8
 10461 3248 E2130000 		.4byte	.LASF788
 10462 324c 23       		.byte	0x23
 10463 324d 2C01     		.2byte	0x12c
 10464 324f E2310000 		.4byte	0x31e2
 10465 3253 10       		.uleb128 0x10
 10466 3254 47320000 		.4byte	0x3247
 10467 3258 06       		.uleb128 0x6
 10468 3259 04       		.byte	0x4
 10469 325a 53320000 		.4byte	0x3253
 10470 325e 06       		.uleb128 0x6
 10471 325f 04       		.byte	0x4
 10472 3260 81310000 		.4byte	0x3181
 10473 3264 20       		.uleb128 0x20
 10474 3265 03170000 		.4byte	.LASF789
 10475 3269 23       		.byte	0x23
 10476 326a 8A01     		.2byte	0x18a
 10477 326c EC2F0000 		.4byte	0x2fec
 10478 3270 29       		.uleb128 0x29
 10479 3271 07       		.byte	0x7
 10480 3272 01       		.byte	0x1
 10481 3273 6C000000 		.4byte	0x6c
 10482 3277 25       		.byte	0x25
 10483 3278 55       		.byte	0x55
 10484 3279 90320000 		.4byte	0x3290
 10485 327d 23       		.uleb128 0x23
 10486 327e 52090000 		.4byte	.LASF790
 10487 3282 00       		.byte	0
 10488 3283 23       		.uleb128 0x23
 10489 3284 94140000 		.4byte	.LASF791
 10490 3288 01       		.byte	0x1
 10491 3289 23       		.uleb128 0x23
 10492 328a A03D0000 		.4byte	.LASF792
 10493 328e 02       		.byte	0x2
ARM GAS  /tmp/ccjQGkoy.s 			page 186


 10494 328f 00       		.byte	0
 10495 3290 05       		.uleb128 0x5
 10496 3291 7A250000 		.4byte	.LASF793
 10497 3295 25       		.byte	0x25
 10498 3296 59       		.byte	0x59
 10499 3297 70320000 		.4byte	0x3270
 10500 329b 05       		.uleb128 0x5
 10501 329c 9A340000 		.4byte	.LASF794
 10502 32a0 25       		.byte	0x25
 10503 32a1 5E       		.byte	0x5e
 10504 32a2 A6320000 		.4byte	0x32a6
 10505 32a6 13       		.uleb128 0x13
 10506 32a7 9A340000 		.4byte	.LASF794
 10507 32ab 5801     		.2byte	0x158
 10508 32ad 25       		.byte	0x25
 10509 32ae 78       		.byte	0x78
 10510 32af 13330000 		.4byte	0x3313
 10511 32b3 12       		.uleb128 0x12
 10512 32b4 766D7400 		.ascii	"vmt\000"
 10513 32b8 25       		.byte	0x25
 10514 32b9 7A       		.byte	0x7a
 10515 32ba A9330000 		.4byte	0x33a9
 10516 32be 00       		.byte	0
 10517 32bf 0E       		.uleb128 0xe
 10518 32c0 E7100000 		.4byte	.LASF795
 10519 32c4 25       		.byte	0x25
 10520 32c5 7B       		.byte	0x7b
 10521 32c6 0D160000 		.4byte	0x160d
 10522 32ca 04       		.byte	0x4
 10523 32cb 0E       		.uleb128 0xe
 10524 32cc 75210000 		.4byte	.LASF712
 10525 32d0 25       		.byte	0x25
 10526 32d1 7B       		.byte	0x7b
 10527 32d2 90320000 		.4byte	0x3290
 10528 32d6 08       		.byte	0x8
 10529 32d7 0E       		.uleb128 0xe
 10530 32d8 19250000 		.4byte	.LASF796
 10531 32dc 25       		.byte	0x25
 10532 32dd 7B       		.byte	0x7b
 10533 32de B8160000 		.4byte	0x16b8
 10534 32e2 0C       		.byte	0xc
 10535 32e3 0E       		.uleb128 0xe
 10536 32e4 871B0000 		.4byte	.LASF797
 10537 32e8 25       		.byte	0x25
 10538 32e9 7B       		.byte	0x7b
 10539 32ea C3160000 		.4byte	0x16c3
 10540 32ee 30       		.byte	0x30
 10541 32ef 12       		.uleb128 0x12
 10542 32f0 696200   		.ascii	"ib\000"
 10543 32f3 25       		.byte	0x25
 10544 32f4 7B       		.byte	0x7b
 10545 32f5 AF330000 		.4byte	0x33af
 10546 32f9 54       		.byte	0x54
 10547 32fa 12       		.uleb128 0x12
 10548 32fb 6F6200   		.ascii	"ob\000"
 10549 32fe 25       		.byte	0x25
 10550 32ff 7B       		.byte	0x7b
ARM GAS  /tmp/ccjQGkoy.s 			page 187


 10551 3300 AF330000 		.4byte	0x33af
 10552 3304 D4       		.byte	0xd4
 10553 3305 14       		.uleb128 0x14
 10554 3306 44280000 		.4byte	.LASF798
 10555 330a 25       		.byte	0x25
 10556 330b 7B       		.byte	0x7b
 10557 330c BF330000 		.4byte	0x33bf
 10558 3310 5401     		.2byte	0x154
 10559 3312 00       		.byte	0
 10560 3313 28       		.uleb128 0x28
 10561 3314 53443300 		.ascii	"SD3\000"
 10562 3318 26       		.byte	0x26
 10563 3319 1501     		.2byte	0x115
 10564 331b 9B320000 		.4byte	0x329b
 10565 331f 28       		.uleb128 0x28
 10566 3320 53443400 		.ascii	"SD4\000"
 10567 3324 26       		.byte	0x26
 10568 3325 1801     		.2byte	0x118
 10569 3327 9B320000 		.4byte	0x329b
 10570 332b 28       		.uleb128 0x28
 10571 332c 53443600 		.ascii	"SD6\000"
 10572 3330 26       		.byte	0x26
 10573 3331 1E01     		.2byte	0x11e
 10574 3333 9B320000 		.4byte	0x329b
 10575 3337 11       		.uleb128 0x11
 10576 3338 C10F0000 		.4byte	.LASF799
 10577 333c 20       		.byte	0x20
 10578 333d 25       		.byte	0x25
 10579 333e 6D       		.byte	0x6d
 10580 333f A4330000 		.4byte	0x33a4
 10581 3343 0E       		.uleb128 0xe
 10582 3344 08250000 		.4byte	.LASF800
 10583 3348 25       		.byte	0x25
 10584 3349 6E       		.byte	0x6e
 10585 334a ED160000 		.4byte	0x16ed
 10586 334e 00       		.byte	0
 10587 334f 0E       		.uleb128 0xe
 10588 3350 C5020000 		.4byte	.LASF801
 10589 3354 25       		.byte	0x25
 10590 3355 6E       		.byte	0x6e
 10591 3356 0C170000 		.4byte	0x170c
 10592 335a 04       		.byte	0x4
 10593 335b 12       		.uleb128 0x12
 10594 335c 70757400 		.ascii	"put\000"
 10595 3360 25       		.byte	0x25
 10596 3361 6E       		.byte	0x6e
 10597 3362 26170000 		.4byte	0x1726
 10598 3366 08       		.byte	0x8
 10599 3367 12       		.uleb128 0x12
 10600 3368 67657400 		.ascii	"get\000"
 10601 336c 25       		.byte	0x25
 10602 336d 6E       		.byte	0x6e
 10603 336e 3B170000 		.4byte	0x173b
 10604 3372 0C       		.byte	0xc
 10605 3373 0E       		.uleb128 0xe
 10606 3374 C11E0000 		.4byte	.LASF802
 10607 3378 25       		.byte	0x25
ARM GAS  /tmp/ccjQGkoy.s 			page 188


 10608 3379 6E       		.byte	0x6e
 10609 337a C2280000 		.4byte	0x28c2
 10610 337e 10       		.byte	0x10
 10611 337f 0E       		.uleb128 0xe
 10612 3380 CF240000 		.4byte	.LASF803
 10613 3384 25       		.byte	0x25
 10614 3385 6E       		.byte	0x6e
 10615 3386 DC280000 		.4byte	0x28dc
 10616 338a 14       		.byte	0x14
 10617 338b 0E       		.uleb128 0xe
 10618 338c 84360000 		.4byte	.LASF804
 10619 3390 25       		.byte	0x25
 10620 3391 6E       		.byte	0x6e
 10621 3392 00290000 		.4byte	0x2900
 10622 3396 18       		.byte	0x18
 10623 3397 0E       		.uleb128 0xe
 10624 3398 020D0000 		.4byte	.LASF805
 10625 339c 25       		.byte	0x25
 10626 339d 6E       		.byte	0x6e
 10627 339e 24290000 		.4byte	0x2924
 10628 33a2 1C       		.byte	0x1c
 10629 33a3 00       		.byte	0
 10630 33a4 10       		.uleb128 0x10
 10631 33a5 37330000 		.4byte	0x3337
 10632 33a9 06       		.uleb128 0x6
 10633 33aa 04       		.byte	0x4
 10634 33ab A4330000 		.4byte	0x33a4
 10635 33af 0B       		.uleb128 0xb
 10636 33b0 44090000 		.4byte	0x944
 10637 33b4 BF330000 		.4byte	0x33bf
 10638 33b8 0C       		.uleb128 0xc
 10639 33b9 48000000 		.4byte	0x48
 10640 33bd 7F       		.byte	0x7f
 10641 33be 00       		.byte	0
 10642 33bf 06       		.uleb128 0x6
 10643 33c0 04       		.byte	0x4
 10644 33c1 E0110000 		.4byte	0x11e0
 10645 33c5 29       		.uleb128 0x29
 10646 33c6 07       		.byte	0x7
 10647 33c7 01       		.byte	0x1
 10648 33c8 6C000000 		.4byte	0x6c
 10649 33cc 27       		.byte	0x27
 10650 33cd 46       		.byte	0x46
 10651 33ce F1330000 		.4byte	0x33f1
 10652 33d2 23       		.uleb128 0x23
 10653 33d3 570A0000 		.4byte	.LASF806
 10654 33d7 00       		.byte	0
 10655 33d8 23       		.uleb128 0x23
 10656 33d9 3A040000 		.4byte	.LASF807
 10657 33dd 01       		.byte	0x1
 10658 33de 23       		.uleb128 0x23
 10659 33df B7370000 		.4byte	.LASF808
 10660 33e3 02       		.byte	0x2
 10661 33e4 23       		.uleb128 0x23
 10662 33e5 A41A0000 		.4byte	.LASF809
 10663 33e9 03       		.byte	0x3
 10664 33ea 23       		.uleb128 0x23
ARM GAS  /tmp/ccjQGkoy.s 			page 189


 10665 33eb 461E0000 		.4byte	.LASF810
 10666 33ef 04       		.byte	0x4
 10667 33f0 00       		.byte	0
 10668 33f1 05       		.uleb128 0x5
 10669 33f2 F2040000 		.4byte	.LASF811
 10670 33f6 27       		.byte	0x27
 10671 33f7 4C       		.byte	0x4c
 10672 33f8 C5330000 		.4byte	0x33c5
 10673 33fc 08       		.uleb128 0x8
 10674 33fd C1370000 		.4byte	.LASF812
 10675 3401 28       		.byte	0x28
 10676 3402 9601     		.2byte	0x196
 10677 3404 08340000 		.4byte	0x3408
 10678 3408 1B       		.uleb128 0x1b
 10679 3409 C1370000 		.4byte	.LASF812
 10680 340d 30       		.byte	0x30
 10681 340e 28       		.byte	0x28
 10682 340f BA01     		.2byte	0x1ba
 10683 3411 8B340000 		.4byte	0x348b
 10684 3415 19       		.uleb128 0x19
 10685 3416 75210000 		.4byte	.LASF712
 10686 341a 28       		.byte	0x28
 10687 341b BE01     		.2byte	0x1be
 10688 341d F1330000 		.4byte	0x33f1
 10689 3421 00       		.byte	0
 10690 3422 19       		.uleb128 0x19
 10691 3423 6F360000 		.4byte	.LASF713
 10692 3427 28       		.byte	0x28
 10693 3428 C201     		.2byte	0x1c2
 10694 342a FD340000 		.4byte	0x34fd
 10695 342e 04       		.byte	0x4
 10696 342f 19       		.uleb128 0x19
 10697 3430 3F0A0000 		.4byte	.LASF747
 10698 3434 28       		.byte	0x28
 10699 3435 C701     		.2byte	0x1c7
 10700 3437 330B0000 		.4byte	0xb33
 10701 343b 08       		.byte	0x8
 10702 343c 19       		.uleb128 0x19
 10703 343d 6D130000 		.4byte	.LASF746
 10704 3441 28       		.byte	0x28
 10705 3442 CD01     		.2byte	0x1cd
 10706 3444 89150000 		.4byte	0x1589
 10707 3448 0C       		.byte	0xc
 10708 3449 24       		.uleb128 0x24
 10709 344a 73706900 		.ascii	"spi\000"
 10710 344e 28       		.byte	0x28
 10711 344f D601     		.2byte	0x1d6
 10712 3451 03350000 		.4byte	0x3503
 10713 3455 1C       		.byte	0x1c
 10714 3456 19       		.uleb128 0x19
 10715 3457 C7010000 		.4byte	.LASF751
 10716 345b 28       		.byte	0x28
 10717 345c DA01     		.2byte	0x1da
 10718 345e 9D2F0000 		.4byte	0x2f9d
 10719 3462 20       		.byte	0x20
 10720 3463 19       		.uleb128 0x19
 10721 3464 15030000 		.4byte	.LASF752
ARM GAS  /tmp/ccjQGkoy.s 			page 190


 10722 3468 28       		.byte	0x28
 10723 3469 DE01     		.2byte	0x1de
 10724 346b 9D2F0000 		.4byte	0x2f9d
 10725 346f 24       		.byte	0x24
 10726 3470 19       		.uleb128 0x19
 10727 3471 960C0000 		.4byte	.LASF749
 10728 3475 28       		.byte	0x28
 10729 3476 E201     		.2byte	0x1e2
 10730 3478 7F090000 		.4byte	0x97f
 10731 347c 28       		.byte	0x28
 10732 347d 19       		.uleb128 0x19
 10733 347e F80C0000 		.4byte	.LASF750
 10734 3482 28       		.byte	0x28
 10735 3483 E601     		.2byte	0x1e6
 10736 3485 7F090000 		.4byte	0x97f
 10737 3489 2C       		.byte	0x2c
 10738 348a 00       		.byte	0
 10739 348b 08       		.uleb128 0x8
 10740 348c 2A020000 		.4byte	.LASF813
 10741 3490 28       		.byte	0x28
 10742 3491 9E01     		.2byte	0x19e
 10743 3493 97340000 		.4byte	0x3497
 10744 3497 06       		.uleb128 0x6
 10745 3498 04       		.byte	0x4
 10746 3499 9D340000 		.4byte	0x349d
 10747 349d 1F       		.uleb128 0x1f
 10748 349e A8340000 		.4byte	0x34a8
 10749 34a2 17       		.uleb128 0x17
 10750 34a3 A8340000 		.4byte	0x34a8
 10751 34a7 00       		.byte	0
 10752 34a8 06       		.uleb128 0x6
 10753 34a9 04       		.byte	0x4
 10754 34aa FC330000 		.4byte	0x33fc
 10755 34ae 1C       		.uleb128 0x1c
 10756 34af 0C       		.byte	0xc
 10757 34b0 28       		.byte	0x28
 10758 34b1 A301     		.2byte	0x1a3
 10759 34b3 EC340000 		.4byte	0x34ec
 10760 34b7 19       		.uleb128 0x19
 10761 34b8 670D0000 		.4byte	.LASF814
 10762 34bc 28       		.byte	0x28
 10763 34bd A701     		.2byte	0x1a7
 10764 34bf 8B340000 		.4byte	0x348b
 10765 34c3 00       		.byte	0
 10766 34c4 19       		.uleb128 0x19
 10767 34c5 4B090000 		.4byte	.LASF815
 10768 34c9 28       		.byte	0x28
 10769 34ca AC01     		.2byte	0x1ac
 10770 34cc FC2A0000 		.4byte	0x2afc
 10771 34d0 04       		.byte	0x4
 10772 34d1 19       		.uleb128 0x19
 10773 34d2 F20C0000 		.4byte	.LASF816
 10774 34d6 28       		.byte	0x28
 10775 34d7 B001     		.2byte	0x1b0
 10776 34d9 5F090000 		.4byte	0x95f
 10777 34dd 08       		.byte	0x8
 10778 34de 24       		.uleb128 0x24
ARM GAS  /tmp/ccjQGkoy.s 			page 191


 10779 34df 63723100 		.ascii	"cr1\000"
 10780 34e3 28       		.byte	0x28
 10781 34e4 B401     		.2byte	0x1b4
 10782 34e6 5F090000 		.4byte	0x95f
 10783 34ea 0A       		.byte	0xa
 10784 34eb 00       		.byte	0
 10785 34ec 08       		.uleb128 0x8
 10786 34ed DB210000 		.4byte	.LASF817
 10787 34f1 28       		.byte	0x28
 10788 34f2 B501     		.2byte	0x1b5
 10789 34f4 AE340000 		.4byte	0x34ae
 10790 34f8 10       		.uleb128 0x10
 10791 34f9 EC340000 		.4byte	0x34ec
 10792 34fd 06       		.uleb128 0x6
 10793 34fe 04       		.byte	0x4
 10794 34ff F8340000 		.4byte	0x34f8
 10795 3503 06       		.uleb128 0x6
 10796 3504 04       		.byte	0x4
 10797 3505 71110000 		.4byte	0x1171
 10798 3509 20       		.uleb128 0x20
 10799 350a E3310000 		.4byte	.LASF818
 10800 350e 28       		.byte	0x28
 10801 350f F201     		.2byte	0x1f2
 10802 3511 FC330000 		.4byte	0x33fc
 10803 3515 05       		.uleb128 0x5
 10804 3516 041B0000 		.4byte	.LASF819
 10805 351a 29       		.byte	0x29
 10806 351b FA       		.byte	0xfa
 10807 351c 20350000 		.4byte	0x3520
 10808 3520 18       		.uleb128 0x18
 10809 3521 041B0000 		.4byte	.LASF819
 10810 3525 8002     		.2byte	0x280
 10811 3527 2A       		.byte	0x2a
 10812 3528 7701     		.2byte	0x177
 10813 352a 4C360000 		.4byte	0x364c
 10814 352e 19       		.uleb128 0x19
 10815 352f 75210000 		.4byte	.LASF712
 10816 3533 2A       		.byte	0x2a
 10817 3534 7B01     		.2byte	0x17b
 10818 3536 84360000 		.4byte	0x3684
 10819 353a 00       		.byte	0
 10820 353b 19       		.uleb128 0x19
 10821 353c 6F360000 		.4byte	.LASF713
 10822 3540 2A       		.byte	0x2a
 10823 3541 7F01     		.2byte	0x17f
 10824 3543 A73F0000 		.4byte	0x3fa7
 10825 3547 04       		.byte	0x4
 10826 3548 19       		.uleb128 0x19
 10827 3549 4A340000 		.4byte	.LASF820
 10828 354d 2A       		.byte	0x2a
 10829 354e 8301     		.2byte	0x183
 10830 3550 5F090000 		.4byte	0x95f
 10831 3554 08       		.byte	0x8
 10832 3555 19       		.uleb128 0x19
 10833 3556 D8390000 		.4byte	.LASF821
 10834 355a 2A       		.byte	0x2a
 10835 355b 8701     		.2byte	0x187
ARM GAS  /tmp/ccjQGkoy.s 			page 192


 10836 355d 5F090000 		.4byte	0x95f
 10837 3561 0A       		.byte	0xa
 10838 3562 24       		.uleb128 0x24
 10839 3563 65706300 		.ascii	"epc\000"
 10840 3567 2A       		.byte	0x2a
 10841 3568 8B01     		.2byte	0x18b
 10842 356a AD3F0000 		.4byte	0x3fad
 10843 356e 0C       		.byte	0xc
 10844 356f 19       		.uleb128 0x19
 10845 3570 B60A0000 		.4byte	.LASF822
 10846 3574 2A       		.byte	0x2a
 10847 3575 9201     		.2byte	0x192
 10848 3577 C33F0000 		.4byte	0x3fc3
 10849 357b 1C       		.byte	0x1c
 10850 357c 19       		.uleb128 0x19
 10851 357d D5120000 		.4byte	.LASF823
 10852 3581 2A       		.byte	0x2a
 10853 3582 9901     		.2byte	0x199
 10854 3584 C33F0000 		.4byte	0x3fc3
 10855 3588 28       		.byte	0x28
 10856 3589 19       		.uleb128 0x19
 10857 358a 7A180000 		.4byte	.LASF824
 10858 358e 2A       		.byte	0x2a
 10859 358f 9D01     		.2byte	0x19d
 10860 3591 C9360000 		.4byte	0x36c9
 10861 3595 34       		.byte	0x34
 10862 3596 19       		.uleb128 0x19
 10863 3597 77070000 		.4byte	.LASF825
 10864 359b 2A       		.byte	0x2a
 10865 359c A101     		.2byte	0x1a1
 10866 359e B2160000 		.4byte	0x16b2
 10867 35a2 38       		.byte	0x38
 10868 35a3 19       		.uleb128 0x19
 10869 35a4 EA230000 		.4byte	.LASF826
 10870 35a8 2A       		.byte	0x2a
 10871 35a9 A501     		.2byte	0x1a5
 10872 35ab 38000000 		.4byte	0x38
 10873 35af 3C       		.byte	0x3c
 10874 35b0 19       		.uleb128 0x19
 10875 35b1 3D2F0000 		.4byte	.LASF827
 10876 35b5 2A       		.byte	0x2a
 10877 35b6 A901     		.2byte	0x1a9
 10878 35b8 49370000 		.4byte	0x3749
 10879 35bc 40       		.byte	0x40
 10880 35bd 19       		.uleb128 0x19
 10881 35be 510A0000 		.4byte	.LASF828
 10882 35c2 2A       		.byte	0x2a
 10883 35c3 AD01     		.2byte	0x1ad
 10884 35c5 211F0000 		.4byte	0x1f21
 10885 35c9 44       		.byte	0x44
 10886 35ca 19       		.uleb128 0x19
 10887 35cb 7D200000 		.4byte	.LASF829
 10888 35cf 2A       		.byte	0x2a
 10889 35d0 B101     		.2byte	0x1b1
 10890 35d2 5F090000 		.4byte	0x95f
 10891 35d6 4C       		.byte	0x4c
 10892 35d7 19       		.uleb128 0x19
ARM GAS  /tmp/ccjQGkoy.s 			page 193


 10893 35d8 501A0000 		.4byte	.LASF592
 10894 35dc 2A       		.byte	0x2a
 10895 35dd B501     		.2byte	0x1b5
 10896 35df 44090000 		.4byte	0x944
 10897 35e3 4E       		.byte	0x4e
 10898 35e4 19       		.uleb128 0x19
 10899 35e5 37290000 		.4byte	.LASF830
 10900 35e9 2A       		.byte	0x2a
 10901 35ea B901     		.2byte	0x1b9
 10902 35ec 44090000 		.4byte	0x944
 10903 35f0 4F       		.byte	0x4f
 10904 35f1 24       		.uleb128 0x24
 10905 35f2 6F746700 		.ascii	"otg\000"
 10906 35f6 2A       		.byte	0x2a
 10907 35f7 C101     		.2byte	0x1c1
 10908 35f9 D33F0000 		.4byte	0x3fd3
 10909 35fd 50       		.byte	0x50
 10910 35fe 19       		.uleb128 0x19
 10911 35ff E7150000 		.4byte	.LASF831
 10912 3603 2A       		.byte	0x2a
 10913 3604 C501     		.2byte	0x1c5
 10914 3606 D93F0000 		.4byte	0x3fd9
 10915 360a 54       		.byte	0x54
 10916 360b 19       		.uleb128 0x19
 10917 360c 04310000 		.4byte	.LASF832
 10918 3610 2A       		.byte	0x2a
 10919 3611 C901     		.2byte	0x1c9
 10920 3613 7F090000 		.4byte	0x97f
 10921 3617 58       		.byte	0x58
 10922 3618 19       		.uleb128 0x19
 10923 3619 EC130000 		.4byte	.LASF833
 10924 361d 2A       		.byte	0x2a
 10925 361e CD01     		.2byte	0x1cd
 10926 3620 7F090000 		.4byte	0x97f
 10927 3624 5C       		.byte	0x5c
 10928 3625 19       		.uleb128 0x19
 10929 3626 EA0B0000 		.4byte	.LASF834
 10930 362a 2A       		.byte	0x2a
 10931 362b D101     		.2byte	0x1d1
 10932 362d 330B0000 		.4byte	0xb33
 10933 3631 60       		.byte	0x60
 10934 3632 24       		.uleb128 0x24
 10935 3633 747200   		.ascii	"tr\000"
 10936 3636 2A       		.byte	0x2a
 10937 3637 D601     		.2byte	0x1d6
 10938 3639 330B0000 		.4byte	0xb33
 10939 363d 64       		.byte	0x64
 10940 363e 19       		.uleb128 0x19
 10941 363f F61E0000 		.4byte	.LASF835
 10942 3643 2A       		.byte	0x2a
 10943 3644 DA01     		.2byte	0x1da
 10944 3646 DF3F0000 		.4byte	0x3fdf
 10945 364a 68       		.byte	0x68
 10946 364b 00       		.byte	0
 10947 364c 05       		.uleb128 0x5
 10948 364d 54020000 		.4byte	.LASF836
 10949 3651 29       		.byte	0x29
ARM GAS  /tmp/ccjQGkoy.s 			page 194


 10950 3652 FF       		.byte	0xff
 10951 3653 44090000 		.4byte	0x944
 10952 3657 2B       		.uleb128 0x2b
 10953 3658 07       		.byte	0x7
 10954 3659 01       		.byte	0x1
 10955 365a 6C000000 		.4byte	0x6c
 10956 365e 29       		.byte	0x29
 10957 365f 0401     		.2byte	0x104
 10958 3661 84360000 		.4byte	0x3684
 10959 3665 23       		.uleb128 0x23
 10960 3666 FA3B0000 		.4byte	.LASF837
 10961 366a 00       		.byte	0
 10962 366b 23       		.uleb128 0x23
 10963 366c 21000000 		.4byte	.LASF838
 10964 3670 01       		.byte	0x1
 10965 3671 23       		.uleb128 0x23
 10966 3672 A31D0000 		.4byte	.LASF839
 10967 3676 02       		.byte	0x2
 10968 3677 23       		.uleb128 0x23
 10969 3678 45260000 		.4byte	.LASF840
 10970 367c 03       		.byte	0x3
 10971 367d 23       		.uleb128 0x23
 10972 367e 310C0000 		.4byte	.LASF841
 10973 3682 04       		.byte	0x4
 10974 3683 00       		.byte	0
 10975 3684 08       		.uleb128 0x8
 10976 3685 A93D0000 		.4byte	.LASF842
 10977 3689 29       		.byte	0x29
 10978 368a 0A01     		.2byte	0x10a
 10979 368c 57360000 		.4byte	0x3657
 10980 3690 2B       		.uleb128 0x2b
 10981 3691 07       		.byte	0x7
 10982 3692 01       		.byte	0x1
 10983 3693 6C000000 		.4byte	0x6c
 10984 3697 29       		.byte	0x29
 10985 3698 1801     		.2byte	0x118
 10986 369a C9360000 		.4byte	0x36c9
 10987 369e 23       		.uleb128 0x23
 10988 369f B72E0000 		.4byte	.LASF843
 10989 36a3 00       		.byte	0
 10990 36a4 23       		.uleb128 0x23
 10991 36a5 51180000 		.4byte	.LASF844
 10992 36a9 01       		.byte	0x1
 10993 36aa 23       		.uleb128 0x23
 10994 36ab C82A0000 		.4byte	.LASF845
 10995 36af 02       		.byte	0x2
 10996 36b0 23       		.uleb128 0x23
 10997 36b1 AD210000 		.4byte	.LASF846
 10998 36b5 03       		.byte	0x3
 10999 36b6 23       		.uleb128 0x23
 11000 36b7 50200000 		.4byte	.LASF847
 11001 36bb 04       		.byte	0x4
 11002 36bc 23       		.uleb128 0x23
 11003 36bd 261A0000 		.4byte	.LASF848
 11004 36c1 05       		.byte	0x5
 11005 36c2 23       		.uleb128 0x23
 11006 36c3 50170000 		.4byte	.LASF849
ARM GAS  /tmp/ccjQGkoy.s 			page 195


 11007 36c7 06       		.byte	0x6
 11008 36c8 00       		.byte	0
 11009 36c9 08       		.uleb128 0x8
 11010 36ca 801A0000 		.4byte	.LASF850
 11011 36ce 29       		.byte	0x29
 11012 36cf 2001     		.2byte	0x120
 11013 36d1 90360000 		.4byte	0x3690
 11014 36d5 2B       		.uleb128 0x2b
 11015 36d6 07       		.byte	0x7
 11016 36d7 01       		.byte	0x1
 11017 36d8 6C000000 		.4byte	0x6c
 11018 36dc 29       		.byte	0x29
 11019 36dd 2501     		.2byte	0x125
 11020 36df 08370000 		.4byte	0x3708
 11021 36e3 23       		.uleb128 0x23
 11022 36e4 2A260000 		.4byte	.LASF851
 11023 36e8 00       		.byte	0
 11024 36e9 23       		.uleb128 0x23
 11025 36ea 69370000 		.4byte	.LASF852
 11026 36ee 01       		.byte	0x1
 11027 36ef 23       		.uleb128 0x23
 11028 36f0 AC1E0000 		.4byte	.LASF853
 11029 36f4 02       		.byte	0x2
 11030 36f5 23       		.uleb128 0x23
 11031 36f6 6C1F0000 		.4byte	.LASF854
 11032 36fa 03       		.byte	0x3
 11033 36fb 23       		.uleb128 0x23
 11034 36fc 503C0000 		.4byte	.LASF855
 11035 3700 04       		.byte	0x4
 11036 3701 23       		.uleb128 0x23
 11037 3702 C6030000 		.4byte	.LASF856
 11038 3706 05       		.byte	0x5
 11039 3707 00       		.byte	0
 11040 3708 08       		.uleb128 0x8
 11041 3709 EF3B0000 		.4byte	.LASF857
 11042 370d 29       		.byte	0x29
 11043 370e 2C01     		.2byte	0x12c
 11044 3710 D5360000 		.4byte	0x36d5
 11045 3714 1C       		.uleb128 0x1c
 11046 3715 08       		.byte	0x8
 11047 3716 29       		.byte	0x29
 11048 3717 3101     		.2byte	0x131
 11049 3719 38370000 		.4byte	0x3738
 11050 371d 19       		.uleb128 0x19
 11051 371e 1F3D0000 		.4byte	.LASF858
 11052 3722 29       		.byte	0x29
 11053 3723 3501     		.2byte	0x135
 11054 3725 38000000 		.4byte	0x38
 11055 3729 00       		.byte	0
 11056 372a 19       		.uleb128 0x19
 11057 372b F8060000 		.4byte	.LASF859
 11058 372f 29       		.byte	0x29
 11059 3730 3901     		.2byte	0x139
 11060 3732 E7160000 		.4byte	0x16e7
 11061 3736 04       		.byte	0x4
 11062 3737 00       		.byte	0
 11063 3738 08       		.uleb128 0x8
ARM GAS  /tmp/ccjQGkoy.s 			page 196


 11064 3739 84200000 		.4byte	.LASF860
 11065 373d 29       		.byte	0x29
 11066 373e 3A01     		.2byte	0x13a
 11067 3740 14370000 		.4byte	0x3714
 11068 3744 10       		.uleb128 0x10
 11069 3745 38370000 		.4byte	0x3738
 11070 3749 08       		.uleb128 0x8
 11071 374a 7C3C0000 		.4byte	.LASF861
 11072 374e 29       		.byte	0x29
 11073 374f 4201     		.2byte	0x142
 11074 3751 55370000 		.4byte	0x3755
 11075 3755 06       		.uleb128 0x6
 11076 3756 04       		.byte	0x4
 11077 3757 5B370000 		.4byte	0x375b
 11078 375b 1F       		.uleb128 0x1f
 11079 375c 66370000 		.4byte	0x3766
 11080 3760 17       		.uleb128 0x17
 11081 3761 66370000 		.4byte	0x3766
 11082 3765 00       		.byte	0
 11083 3766 06       		.uleb128 0x6
 11084 3767 04       		.byte	0x4
 11085 3768 15350000 		.4byte	0x3515
 11086 376c 08       		.uleb128 0x8
 11087 376d 7F070000 		.4byte	.LASF862
 11088 3771 29       		.byte	0x29
 11089 3772 4B01     		.2byte	0x14b
 11090 3774 78370000 		.4byte	0x3778
 11091 3778 06       		.uleb128 0x6
 11092 3779 04       		.byte	0x4
 11093 377a 7E370000 		.4byte	0x377e
 11094 377e 1F       		.uleb128 0x1f
 11095 377f 8E370000 		.4byte	0x378e
 11096 3783 17       		.uleb128 0x17
 11097 3784 66370000 		.4byte	0x3766
 11098 3788 17       		.uleb128 0x17
 11099 3789 4C360000 		.4byte	0x364c
 11100 378d 00       		.byte	0
 11101 378e 08       		.uleb128 0x8
 11102 378f 2B100000 		.4byte	.LASF863
 11103 3793 29       		.byte	0x29
 11104 3794 5401     		.2byte	0x154
 11105 3796 9A370000 		.4byte	0x379a
 11106 379a 06       		.uleb128 0x6
 11107 379b 04       		.byte	0x4
 11108 379c A0370000 		.4byte	0x37a0
 11109 37a0 1F       		.uleb128 0x1f
 11110 37a1 B0370000 		.4byte	0x37b0
 11111 37a5 17       		.uleb128 0x17
 11112 37a6 66370000 		.4byte	0x3766
 11113 37aa 17       		.uleb128 0x17
 11114 37ab 08370000 		.4byte	0x3708
 11115 37af 00       		.byte	0
 11116 37b0 08       		.uleb128 0x8
 11117 37b1 B6250000 		.4byte	.LASF864
 11118 37b5 29       		.byte	0x29
 11119 37b6 6001     		.2byte	0x160
 11120 37b8 BC370000 		.4byte	0x37bc
ARM GAS  /tmp/ccjQGkoy.s 			page 197


 11121 37bc 06       		.uleb128 0x6
 11122 37bd 04       		.byte	0x4
 11123 37be C2370000 		.4byte	0x37c2
 11124 37c2 16       		.uleb128 0x16
 11125 37c3 0A1F0000 		.4byte	0x1f0a
 11126 37c7 D1370000 		.4byte	0x37d1
 11127 37cb 17       		.uleb128 0x17
 11128 37cc 66370000 		.4byte	0x3766
 11129 37d0 00       		.byte	0
 11130 37d1 08       		.uleb128 0x8
 11131 37d2 2D180000 		.4byte	.LASF865
 11132 37d6 29       		.byte	0x29
 11133 37d7 6501     		.2byte	0x165
 11134 37d9 DD370000 		.4byte	0x37dd
 11135 37dd 06       		.uleb128 0x6
 11136 37de 04       		.byte	0x4
 11137 37df E3370000 		.4byte	0x37e3
 11138 37e3 16       		.uleb128 0x16
 11139 37e4 01380000 		.4byte	0x3801
 11140 37e8 01380000 		.4byte	0x3801
 11141 37ec 17       		.uleb128 0x17
 11142 37ed 66370000 		.4byte	0x3766
 11143 37f1 17       		.uleb128 0x17
 11144 37f2 44090000 		.4byte	0x944
 11145 37f6 17       		.uleb128 0x17
 11146 37f7 44090000 		.4byte	0x944
 11147 37fb 17       		.uleb128 0x17
 11148 37fc 5F090000 		.4byte	0x95f
 11149 3800 00       		.byte	0
 11150 3801 06       		.uleb128 0x6
 11151 3802 04       		.byte	0x4
 11152 3803 44370000 		.4byte	0x3744
 11153 3807 0D       		.uleb128 0xd
 11154 3808 20       		.byte	0x20
 11155 3809 2B       		.byte	0x2b
 11156 380a 35       		.byte	0x35
 11157 380b 70380000 		.4byte	0x3870
 11158 380f 0E       		.uleb128 0xe
 11159 3810 FD040000 		.4byte	.LASF866
 11160 3814 2B       		.byte	0x2b
 11161 3815 36       		.byte	0x36
 11162 3816 8A090000 		.4byte	0x98a
 11163 381a 00       		.byte	0
 11164 381b 0E       		.uleb128 0xe
 11165 381c 9C140000 		.4byte	.LASF867
 11166 3820 2B       		.byte	0x2b
 11167 3821 38       		.byte	0x38
 11168 3822 8A090000 		.4byte	0x98a
 11169 3826 04       		.byte	0x4
 11170 3827 0E       		.uleb128 0xe
 11171 3828 EB030000 		.4byte	.LASF868
 11172 382c 2B       		.byte	0x2b
 11173 382d 39       		.byte	0x39
 11174 382e 8A090000 		.4byte	0x98a
 11175 3832 08       		.byte	0x8
 11176 3833 0E       		.uleb128 0xe
 11177 3834 CB2B0000 		.4byte	.LASF869
ARM GAS  /tmp/ccjQGkoy.s 			page 198


 11178 3838 2B       		.byte	0x2b
 11179 3839 3A       		.byte	0x3a
 11180 383a 8A090000 		.4byte	0x98a
 11181 383e 0C       		.byte	0xc
 11182 383f 0E       		.uleb128 0xe
 11183 3840 A51E0000 		.4byte	.LASF870
 11184 3844 2B       		.byte	0x2b
 11185 3845 3C       		.byte	0x3c
 11186 3846 8A090000 		.4byte	0x98a
 11187 384a 10       		.byte	0x10
 11188 384b 0E       		.uleb128 0xe
 11189 384c F2140000 		.4byte	.LASF871
 11190 3850 2B       		.byte	0x2b
 11191 3851 3E       		.byte	0x3e
 11192 3852 8A090000 		.4byte	0x98a
 11193 3856 14       		.byte	0x14
 11194 3857 0E       		.uleb128 0xe
 11195 3858 BD040000 		.4byte	.LASF872
 11196 385c 2B       		.byte	0x2b
 11197 385d 3F       		.byte	0x3f
 11198 385e 8A090000 		.4byte	0x98a
 11199 3862 18       		.byte	0x18
 11200 3863 0E       		.uleb128 0xe
 11201 3864 42340000 		.4byte	.LASF873
 11202 3868 2B       		.byte	0x2b
 11203 3869 40       		.byte	0x40
 11204 386a 8A090000 		.4byte	0x98a
 11205 386e 1C       		.byte	0x1c
 11206 386f 00       		.byte	0
 11207 3870 05       		.uleb128 0x5
 11208 3871 042B0000 		.4byte	.LASF874
 11209 3875 2B       		.byte	0x2b
 11210 3876 41       		.byte	0x41
 11211 3877 07380000 		.4byte	0x3807
 11212 387b 0D       		.uleb128 0xd
 11213 387c 20       		.byte	0x20
 11214 387d 2B       		.byte	0x2b
 11215 387e 46       		.byte	0x46
 11216 387f E4380000 		.4byte	0x38e4
 11217 3883 0E       		.uleb128 0xe
 11218 3884 AE150000 		.4byte	.LASF875
 11219 3888 2B       		.byte	0x2b
 11220 3889 47       		.byte	0x47
 11221 388a 8A090000 		.4byte	0x98a
 11222 388e 00       		.byte	0
 11223 388f 0E       		.uleb128 0xe
 11224 3890 380E0000 		.4byte	.LASF876
 11225 3894 2B       		.byte	0x2b
 11226 3895 49       		.byte	0x49
 11227 3896 8A090000 		.4byte	0x98a
 11228 389a 04       		.byte	0x4
 11229 389b 0E       		.uleb128 0xe
 11230 389c 33320000 		.4byte	.LASF877
 11231 38a0 2B       		.byte	0x2b
 11232 38a1 4A       		.byte	0x4a
 11233 38a2 8A090000 		.4byte	0x98a
 11234 38a6 08       		.byte	0x8
ARM GAS  /tmp/ccjQGkoy.s 			page 199


 11235 38a7 0E       		.uleb128 0xe
 11236 38a8 3B1B0000 		.4byte	.LASF878
 11237 38ac 2B       		.byte	0x2b
 11238 38ad 4C       		.byte	0x4c
 11239 38ae 8A090000 		.4byte	0x98a
 11240 38b2 0C       		.byte	0xc
 11241 38b3 0E       		.uleb128 0xe
 11242 38b4 B1220000 		.4byte	.LASF879
 11243 38b8 2B       		.byte	0x2b
 11244 38b9 4D       		.byte	0x4d
 11245 38ba 8A090000 		.4byte	0x98a
 11246 38be 10       		.byte	0x10
 11247 38bf 0E       		.uleb128 0xe
 11248 38c0 F2140000 		.4byte	.LASF871
 11249 38c4 2B       		.byte	0x2b
 11250 38c5 4F       		.byte	0x4f
 11251 38c6 8A090000 		.4byte	0x98a
 11252 38ca 14       		.byte	0x14
 11253 38cb 0E       		.uleb128 0xe
 11254 38cc 8B0A0000 		.4byte	.LASF880
 11255 38d0 2B       		.byte	0x2b
 11256 38d1 50       		.byte	0x50
 11257 38d2 8A090000 		.4byte	0x98a
 11258 38d6 18       		.byte	0x18
 11259 38d7 0E       		.uleb128 0xe
 11260 38d8 11320000 		.4byte	.LASF881
 11261 38dc 2B       		.byte	0x2b
 11262 38dd 52       		.byte	0x52
 11263 38de 8A090000 		.4byte	0x98a
 11264 38e2 1C       		.byte	0x1c
 11265 38e3 00       		.byte	0
 11266 38e4 05       		.uleb128 0x5
 11267 38e5 750C0000 		.4byte	.LASF882
 11268 38e9 2B       		.byte	0x2b
 11269 38ea 53       		.byte	0x53
 11270 38eb 7B380000 		.4byte	0x387b
 11271 38ef 0D       		.uleb128 0xd
 11272 38f0 20       		.byte	0x20
 11273 38f1 2B       		.byte	0x2b
 11274 38f2 58       		.byte	0x58
 11275 38f3 58390000 		.4byte	0x3958
 11276 38f7 0E       		.uleb128 0xe
 11277 38f8 AD1F0000 		.4byte	.LASF883
 11278 38fc 2B       		.byte	0x2b
 11279 38fd 59       		.byte	0x59
 11280 38fe 8A090000 		.4byte	0x98a
 11281 3902 00       		.byte	0
 11282 3903 0E       		.uleb128 0xe
 11283 3904 380E0000 		.4byte	.LASF876
 11284 3908 2B       		.byte	0x2b
 11285 3909 5B       		.byte	0x5b
 11286 390a 8A090000 		.4byte	0x98a
 11287 390e 04       		.byte	0x4
 11288 390f 0E       		.uleb128 0xe
 11289 3910 35250000 		.4byte	.LASF884
 11290 3914 2B       		.byte	0x2b
 11291 3915 5C       		.byte	0x5c
ARM GAS  /tmp/ccjQGkoy.s 			page 200


 11292 3916 8A090000 		.4byte	0x98a
 11293 391a 08       		.byte	0x8
 11294 391b 0E       		.uleb128 0xe
 11295 391c 3B1B0000 		.4byte	.LASF878
 11296 3920 2B       		.byte	0x2b
 11297 3921 5E       		.byte	0x5e
 11298 3922 8A090000 		.4byte	0x98a
 11299 3926 0C       		.byte	0xc
 11300 3927 0E       		.uleb128 0xe
 11301 3928 CC340000 		.4byte	.LASF885
 11302 392c 2B       		.byte	0x2b
 11303 392d 5F       		.byte	0x5f
 11304 392e 8A090000 		.4byte	0x98a
 11305 3932 10       		.byte	0x10
 11306 3933 0E       		.uleb128 0xe
 11307 3934 F2140000 		.4byte	.LASF871
 11308 3938 2B       		.byte	0x2b
 11309 3939 61       		.byte	0x61
 11310 393a 8A090000 		.4byte	0x98a
 11311 393e 14       		.byte	0x14
 11312 393f 0E       		.uleb128 0xe
 11313 3940 BD040000 		.4byte	.LASF872
 11314 3944 2B       		.byte	0x2b
 11315 3945 62       		.byte	0x62
 11316 3946 8A090000 		.4byte	0x98a
 11317 394a 18       		.byte	0x18
 11318 394b 0E       		.uleb128 0xe
 11319 394c 11320000 		.4byte	.LASF881
 11320 3950 2B       		.byte	0x2b
 11321 3951 63       		.byte	0x63
 11322 3952 8A090000 		.4byte	0x98a
 11323 3956 1C       		.byte	0x1c
 11324 3957 00       		.byte	0
 11325 3958 05       		.uleb128 0x5
 11326 3959 92230000 		.4byte	.LASF886
 11327 395d 2B       		.byte	0x2b
 11328 395e 64       		.byte	0x64
 11329 395f EF380000 		.4byte	0x38ef
 11330 3963 30       		.uleb128 0x30
 11331 3964 00100100 		.4byte	0x11000
 11332 3968 2B       		.byte	0x2b
 11333 3969 69       		.byte	0x69
 11334 396a 403C0000 		.4byte	0x3c40
 11335 396e 0E       		.uleb128 0xe
 11336 396f 6F070000 		.4byte	.LASF887
 11337 3973 2B       		.byte	0x2b
 11338 3974 6A       		.byte	0x6a
 11339 3975 8A090000 		.4byte	0x98a
 11340 3979 00       		.byte	0
 11341 397a 0E       		.uleb128 0xe
 11342 397b AD120000 		.4byte	.LASF888
 11343 397f 2B       		.byte	0x2b
 11344 3980 6B       		.byte	0x6b
 11345 3981 8A090000 		.4byte	0x98a
 11346 3985 04       		.byte	0x4
 11347 3986 0E       		.uleb128 0xe
 11348 3987 FE0A0000 		.4byte	.LASF889
ARM GAS  /tmp/ccjQGkoy.s 			page 201


 11349 398b 2B       		.byte	0x2b
 11350 398c 6C       		.byte	0x6c
 11351 398d 8A090000 		.4byte	0x98a
 11352 3991 08       		.byte	0x8
 11353 3992 0E       		.uleb128 0xe
 11354 3993 AE3C0000 		.4byte	.LASF890
 11355 3997 2B       		.byte	0x2b
 11356 3998 6D       		.byte	0x6d
 11357 3999 8A090000 		.4byte	0x98a
 11358 399d 0C       		.byte	0xc
 11359 399e 0E       		.uleb128 0xe
 11360 399f FC1D0000 		.4byte	.LASF891
 11361 39a3 2B       		.byte	0x2b
 11362 39a4 6E       		.byte	0x6e
 11363 39a5 8A090000 		.4byte	0x98a
 11364 39a9 10       		.byte	0x10
 11365 39aa 0E       		.uleb128 0xe
 11366 39ab 87050000 		.4byte	.LASF892
 11367 39af 2B       		.byte	0x2b
 11368 39b0 6F       		.byte	0x6f
 11369 39b1 8A090000 		.4byte	0x98a
 11370 39b5 14       		.byte	0x14
 11371 39b6 0E       		.uleb128 0xe
 11372 39b7 E7280000 		.4byte	.LASF893
 11373 39bb 2B       		.byte	0x2b
 11374 39bc 70       		.byte	0x70
 11375 39bd 8A090000 		.4byte	0x98a
 11376 39c1 18       		.byte	0x18
 11377 39c2 0E       		.uleb128 0xe
 11378 39c3 DD0B0000 		.4byte	.LASF894
 11379 39c7 2B       		.byte	0x2b
 11380 39c8 71       		.byte	0x71
 11381 39c9 8A090000 		.4byte	0x98a
 11382 39cd 1C       		.byte	0x1c
 11383 39ce 0E       		.uleb128 0xe
 11384 39cf D50B0000 		.4byte	.LASF895
 11385 39d3 2B       		.byte	0x2b
 11386 39d4 73       		.byte	0x73
 11387 39d5 8A090000 		.4byte	0x98a
 11388 39d9 20       		.byte	0x20
 11389 39da 0E       		.uleb128 0xe
 11390 39db 572F0000 		.4byte	.LASF896
 11391 39df 2B       		.byte	0x2b
 11392 39e0 75       		.byte	0x75
 11393 39e1 8A090000 		.4byte	0x98a
 11394 39e5 24       		.byte	0x24
 11395 39e6 0E       		.uleb128 0xe
 11396 39e7 42010000 		.4byte	.LASF897
 11397 39eb 2B       		.byte	0x2b
 11398 39ec 76       		.byte	0x76
 11399 39ed 8A090000 		.4byte	0x98a
 11400 39f1 28       		.byte	0x28
 11401 39f2 0E       		.uleb128 0xe
 11402 39f3 1C290000 		.4byte	.LASF898
 11403 39f7 2B       		.byte	0x2b
 11404 39f8 78       		.byte	0x78
 11405 39f9 8A090000 		.4byte	0x98a
ARM GAS  /tmp/ccjQGkoy.s 			page 202


 11406 39fd 2C       		.byte	0x2c
 11407 39fe 0E       		.uleb128 0xe
 11408 39ff D1160000 		.4byte	.LASF899
 11409 3a03 2B       		.byte	0x2b
 11410 3a04 7A       		.byte	0x7a
 11411 3a05 8A090000 		.4byte	0x98a
 11412 3a09 30       		.byte	0x30
 11413 3a0a 0E       		.uleb128 0xe
 11414 3a0b 05390000 		.4byte	.LASF900
 11415 3a0f 2B       		.byte	0x2b
 11416 3a10 7B       		.byte	0x7b
 11417 3a11 8A090000 		.4byte	0x98a
 11418 3a15 34       		.byte	0x34
 11419 3a16 0E       		.uleb128 0xe
 11420 3a17 D5020000 		.4byte	.LASF901
 11421 3a1b 2B       		.byte	0x2b
 11422 3a1c 7C       		.byte	0x7c
 11423 3a1d 8A090000 		.4byte	0x98a
 11424 3a21 38       		.byte	0x38
 11425 3a22 12       		.uleb128 0x12
 11426 3a23 43494400 		.ascii	"CID\000"
 11427 3a27 2B       		.byte	0x2b
 11428 3a28 7D       		.byte	0x7d
 11429 3a29 8A090000 		.4byte	0x98a
 11430 3a2d 3C       		.byte	0x3c
 11431 3a2e 0E       		.uleb128 0xe
 11432 3a2f 6E190000 		.4byte	.LASF902
 11433 3a33 2B       		.byte	0x2b
 11434 3a34 7E       		.byte	0x7e
 11435 3a35 503C0000 		.4byte	0x3c50
 11436 3a39 40       		.byte	0x40
 11437 3a3a 14       		.uleb128 0x14
 11438 3a3b DB360000 		.4byte	.LASF903
 11439 3a3f 2B       		.byte	0x2b
 11440 3a40 7F       		.byte	0x7f
 11441 3a41 8A090000 		.4byte	0x98a
 11442 3a45 0001     		.2byte	0x100
 11443 3a47 14       		.uleb128 0x14
 11444 3a48 46030000 		.4byte	.LASF904
 11445 3a4c 2B       		.byte	0x2b
 11446 3a4d 81       		.byte	0x81
 11447 3a4e FC110000 		.4byte	0x11fc
 11448 3a52 0401     		.2byte	0x104
 11449 3a54 14       		.uleb128 0x14
 11450 3a55 2A1F0000 		.4byte	.LASF905
 11451 3a59 2B       		.byte	0x2b
 11452 3a5a 83       		.byte	0x83
 11453 3a5b 653C0000 		.4byte	0x3c65
 11454 3a5f 4001     		.2byte	0x140
 11455 3a61 14       		.uleb128 0x14
 11456 3a62 67240000 		.4byte	.LASF906
 11457 3a66 2B       		.byte	0x2b
 11458 3a67 84       		.byte	0x84
 11459 3a68 8A090000 		.4byte	0x98a
 11460 3a6c 0004     		.2byte	0x400
 11461 3a6e 14       		.uleb128 0x14
 11462 3a6f EA3B0000 		.4byte	.LASF907
ARM GAS  /tmp/ccjQGkoy.s 			page 203


 11463 3a73 2B       		.byte	0x2b
 11464 3a74 85       		.byte	0x85
 11465 3a75 8A090000 		.4byte	0x98a
 11466 3a79 0404     		.2byte	0x404
 11467 3a7b 14       		.uleb128 0x14
 11468 3a7c 7D060000 		.4byte	.LASF908
 11469 3a80 2B       		.byte	0x2b
 11470 3a81 86       		.byte	0x86
 11471 3a82 8A090000 		.4byte	0x98a
 11472 3a86 0804     		.2byte	0x408
 11473 3a88 14       		.uleb128 0x14
 11474 3a89 F5120000 		.4byte	.LASF909
 11475 3a8d 2B       		.byte	0x2b
 11476 3a8e 88       		.byte	0x88
 11477 3a8f 8A090000 		.4byte	0x98a
 11478 3a93 0C04     		.2byte	0x40c
 11479 3a95 14       		.uleb128 0x14
 11480 3a96 AE040000 		.4byte	.LASF910
 11481 3a9a 2B       		.byte	0x2b
 11482 3a9b 89       		.byte	0x89
 11483 3a9c 8A090000 		.4byte	0x98a
 11484 3aa0 1004     		.2byte	0x410
 11485 3aa2 14       		.uleb128 0x14
 11486 3aa3 FE050000 		.4byte	.LASF911
 11487 3aa7 2B       		.byte	0x2b
 11488 3aa8 8B       		.byte	0x8b
 11489 3aa9 8A090000 		.4byte	0x98a
 11490 3aad 1404     		.2byte	0x414
 11491 3aaf 14       		.uleb128 0x14
 11492 3ab0 CC120000 		.4byte	.LASF912
 11493 3ab4 2B       		.byte	0x2b
 11494 3ab5 8D       		.byte	0x8d
 11495 3ab6 8A090000 		.4byte	0x98a
 11496 3aba 1804     		.2byte	0x418
 11497 3abc 14       		.uleb128 0x14
 11498 3abd 9B2D0000 		.4byte	.LASF913
 11499 3ac1 2B       		.byte	0x2b
 11500 3ac2 8F       		.byte	0x8f
 11501 3ac3 7A3C0000 		.4byte	0x3c7a
 11502 3ac7 1C04     		.2byte	0x41c
 11503 3ac9 14       		.uleb128 0x14
 11504 3aca C1030000 		.4byte	.LASF914
 11505 3ace 2B       		.byte	0x2b
 11506 3acf 90       		.byte	0x90
 11507 3ad0 8A090000 		.4byte	0x98a
 11508 3ad4 4004     		.2byte	0x440
 11509 3ad6 14       		.uleb128 0x14
 11510 3ad7 12300000 		.4byte	.LASF915
 11511 3adb 2B       		.byte	0x2b
 11512 3adc 92       		.byte	0x92
 11513 3add 8F3C0000 		.4byte	0x3c8f
 11514 3ae1 4404     		.2byte	0x444
 11515 3ae3 31       		.uleb128 0x31
 11516 3ae4 686300   		.ascii	"hc\000"
 11517 3ae7 2B       		.byte	0x2b
 11518 3ae8 93       		.byte	0x93
 11519 3ae9 943C0000 		.4byte	0x3c94
ARM GAS  /tmp/ccjQGkoy.s 			page 204


 11520 3aed 0005     		.2byte	0x500
 11521 3aef 14       		.uleb128 0x14
 11522 3af0 11020000 		.4byte	.LASF916
 11523 3af4 2B       		.byte	0x2b
 11524 3af5 94       		.byte	0x94
 11525 3af6 B43C0000 		.4byte	0x3cb4
 11526 3afa 0007     		.2byte	0x700
 11527 3afc 14       		.uleb128 0x14
 11528 3afd 8A2F0000 		.4byte	.LASF917
 11529 3b01 2B       		.byte	0x2b
 11530 3b02 95       		.byte	0x95
 11531 3b03 8A090000 		.4byte	0x98a
 11532 3b07 0008     		.2byte	0x800
 11533 3b09 14       		.uleb128 0x14
 11534 3b0a 8F380000 		.4byte	.LASF918
 11535 3b0e 2B       		.byte	0x2b
 11536 3b0f 96       		.byte	0x96
 11537 3b10 8A090000 		.4byte	0x98a
 11538 3b14 0408     		.2byte	0x804
 11539 3b16 14       		.uleb128 0x14
 11540 3b17 8B1C0000 		.4byte	.LASF919
 11541 3b1b 2B       		.byte	0x2b
 11542 3b1c 97       		.byte	0x97
 11543 3b1d 8A090000 		.4byte	0x98a
 11544 3b21 0808     		.2byte	0x808
 11545 3b23 14       		.uleb128 0x14
 11546 3b24 51070000 		.4byte	.LASF920
 11547 3b28 2B       		.byte	0x2b
 11548 3b29 98       		.byte	0x98
 11549 3b2a 8A090000 		.4byte	0x98a
 11550 3b2e 0C08     		.2byte	0x80c
 11551 3b30 14       		.uleb128 0x14
 11552 3b31 A5120000 		.4byte	.LASF921
 11553 3b35 2B       		.byte	0x2b
 11554 3b36 99       		.byte	0x99
 11555 3b37 8A090000 		.4byte	0x98a
 11556 3b3b 1008     		.2byte	0x810
 11557 3b3d 14       		.uleb128 0x14
 11558 3b3e 7E320000 		.4byte	.LASF922
 11559 3b42 2B       		.byte	0x2b
 11560 3b43 9B       		.byte	0x9b
 11561 3b44 8A090000 		.4byte	0x98a
 11562 3b48 1408     		.2byte	0x814
 11563 3b4a 14       		.uleb128 0x14
 11564 3b4b DC330000 		.4byte	.LASF923
 11565 3b4f 2B       		.byte	0x2b
 11566 3b50 9D       		.byte	0x9d
 11567 3b51 8A090000 		.4byte	0x98a
 11568 3b55 1808     		.2byte	0x818
 11569 3b57 14       		.uleb128 0x14
 11570 3b58 A62E0000 		.4byte	.LASF924
 11571 3b5c 2B       		.byte	0x2b
 11572 3b5d 9F       		.byte	0x9f
 11573 3b5e 8A090000 		.4byte	0x98a
 11574 3b62 1C08     		.2byte	0x81c
 11575 3b64 14       		.uleb128 0x14
 11576 3b65 E2080000 		.4byte	.LASF925
ARM GAS  /tmp/ccjQGkoy.s 			page 205


 11577 3b69 2B       		.byte	0x2b
 11578 3b6a A1       		.byte	0xa1
 11579 3b6b 8A090000 		.4byte	0x98a
 11580 3b6f 2008     		.2byte	0x820
 11581 3b71 14       		.uleb128 0x14
 11582 3b72 BE070000 		.4byte	.LASF926
 11583 3b76 2B       		.byte	0x2b
 11584 3b77 A2       		.byte	0xa2
 11585 3b78 8A090000 		.4byte	0x98a
 11586 3b7c 2408     		.2byte	0x824
 11587 3b7e 14       		.uleb128 0x14
 11588 3b7f 1A020000 		.4byte	.LASF927
 11589 3b83 2B       		.byte	0x2b
 11590 3b84 A3       		.byte	0xa3
 11591 3b85 8A090000 		.4byte	0x98a
 11592 3b89 2808     		.2byte	0x828
 11593 3b8b 14       		.uleb128 0x14
 11594 3b8c 460A0000 		.4byte	.LASF928
 11595 3b90 2B       		.byte	0x2b
 11596 3b91 A5       		.byte	0xa5
 11597 3b92 8A090000 		.4byte	0x98a
 11598 3b96 2C08     		.2byte	0x82c
 11599 3b98 14       		.uleb128 0x14
 11600 3b99 B1090000 		.4byte	.LASF929
 11601 3b9d 2B       		.byte	0x2b
 11602 3b9e A7       		.byte	0xa7
 11603 3b9f 8A090000 		.4byte	0x98a
 11604 3ba3 3008     		.2byte	0x830
 11605 3ba5 14       		.uleb128 0x14
 11606 3ba6 DE060000 		.4byte	.LASF930
 11607 3baa 2B       		.byte	0x2b
 11608 3bab A8       		.byte	0xa8
 11609 3bac 8A090000 		.4byte	0x98a
 11610 3bb0 3408     		.2byte	0x834
 11611 3bb2 14       		.uleb128 0x14
 11612 3bb3 ED090000 		.4byte	.LASF931
 11613 3bb7 2B       		.byte	0x2b
 11614 3bb8 AA       		.byte	0xaa
 11615 3bb9 8A090000 		.4byte	0x98a
 11616 3bbd 3808     		.2byte	0x838
 11617 3bbf 14       		.uleb128 0x14
 11618 3bc0 360A0000 		.4byte	.LASF932
 11619 3bc4 2B       		.byte	0x2b
 11620 3bc5 AB       		.byte	0xab
 11621 3bc6 8A090000 		.4byte	0x98a
 11622 3bca 3C08     		.2byte	0x83c
 11623 3bcc 14       		.uleb128 0x14
 11624 3bcd 340B0000 		.4byte	.LASF933
 11625 3bd1 2B       		.byte	0x2b
 11626 3bd2 AC       		.byte	0xac
 11627 3bd3 C93C0000 		.4byte	0x3cc9
 11628 3bd7 4008     		.2byte	0x840
 11629 3bd9 14       		.uleb128 0x14
 11630 3bda E1190000 		.4byte	.LASF934
 11631 3bde 2B       		.byte	0x2b
 11632 3bdf AD       		.byte	0xad
 11633 3be0 C93C0000 		.4byte	0x3cc9
ARM GAS  /tmp/ccjQGkoy.s 			page 206


 11634 3be4 8008     		.2byte	0x880
 11635 3be6 14       		.uleb128 0x14
 11636 3be7 EB290000 		.4byte	.LASF935
 11637 3beb 2B       		.byte	0x2b
 11638 3bec AE       		.byte	0xae
 11639 3bed C93C0000 		.4byte	0x3cc9
 11640 3bf1 C008     		.2byte	0x8c0
 11641 3bf3 31       		.uleb128 0x31
 11642 3bf4 696500   		.ascii	"ie\000"
 11643 3bf7 2B       		.byte	0x2b
 11644 3bf8 AF       		.byte	0xaf
 11645 3bf9 CE3C0000 		.4byte	0x3cce
 11646 3bfd 0009     		.2byte	0x900
 11647 3bff 31       		.uleb128 0x31
 11648 3c00 6F6500   		.ascii	"oe\000"
 11649 3c03 2B       		.byte	0x2b
 11650 3c04 B0       		.byte	0xb0
 11651 3c05 DE3C0000 		.4byte	0x3cde
 11652 3c09 000B     		.2byte	0xb00
 11653 3c0b 14       		.uleb128 0x14
 11654 3c0c AE100000 		.4byte	.LASF936
 11655 3c10 2B       		.byte	0x2b
 11656 3c11 B1       		.byte	0xb1
 11657 3c12 B43C0000 		.4byte	0x3cb4
 11658 3c16 000D     		.2byte	0xd00
 11659 3c18 14       		.uleb128 0x14
 11660 3c19 A8380000 		.4byte	.LASF937
 11661 3c1d 2B       		.byte	0x2b
 11662 3c1e B2       		.byte	0xb2
 11663 3c1f 8A090000 		.4byte	0x98a
 11664 3c23 000E     		.2byte	0xe00
 11665 3c25 14       		.uleb128 0x14
 11666 3c26 99170000 		.4byte	.LASF938
 11667 3c2a 2B       		.byte	0x2b
 11668 3c2b B4       		.byte	0xb4
 11669 3c2c FE3C0000 		.4byte	0x3cfe
 11670 3c30 040E     		.2byte	0xe04
 11671 3c32 14       		.uleb128 0x14
 11672 3c33 670F0000 		.4byte	.LASF939
 11673 3c37 2B       		.byte	0x2b
 11674 3c38 B5       		.byte	0xb5
 11675 3c39 1A3D0000 		.4byte	0x3d1a
 11676 3c3d 0010     		.2byte	0x1000
 11677 3c3f 00       		.byte	0
 11678 3c40 0B       		.uleb128 0xb
 11679 3c41 8A090000 		.4byte	0x98a
 11680 3c45 503C0000 		.4byte	0x3c50
 11681 3c49 0C       		.uleb128 0xc
 11682 3c4a 48000000 		.4byte	0x48
 11683 3c4e 2F       		.byte	0x2f
 11684 3c4f 00       		.byte	0
 11685 3c50 04       		.uleb128 0x4
 11686 3c51 403C0000 		.4byte	0x3c40
 11687 3c55 0B       		.uleb128 0xb
 11688 3c56 8A090000 		.4byte	0x98a
 11689 3c5a 653C0000 		.4byte	0x3c65
 11690 3c5e 0C       		.uleb128 0xc
ARM GAS  /tmp/ccjQGkoy.s 			page 207


 11691 3c5f 48000000 		.4byte	0x48
 11692 3c63 AF       		.byte	0xaf
 11693 3c64 00       		.byte	0
 11694 3c65 04       		.uleb128 0x4
 11695 3c66 553C0000 		.4byte	0x3c55
 11696 3c6a 0B       		.uleb128 0xb
 11697 3c6b 8A090000 		.4byte	0x98a
 11698 3c6f 7A3C0000 		.4byte	0x3c7a
 11699 3c73 0C       		.uleb128 0xc
 11700 3c74 48000000 		.4byte	0x48
 11701 3c78 08       		.byte	0x8
 11702 3c79 00       		.byte	0
 11703 3c7a 04       		.uleb128 0x4
 11704 3c7b 6A3C0000 		.4byte	0x3c6a
 11705 3c7f 0B       		.uleb128 0xb
 11706 3c80 8A090000 		.4byte	0x98a
 11707 3c84 8F3C0000 		.4byte	0x3c8f
 11708 3c88 0C       		.uleb128 0xc
 11709 3c89 48000000 		.4byte	0x48
 11710 3c8d 2E       		.byte	0x2e
 11711 3c8e 00       		.byte	0
 11712 3c8f 04       		.uleb128 0x4
 11713 3c90 7F3C0000 		.4byte	0x3c7f
 11714 3c94 0B       		.uleb128 0xb
 11715 3c95 70380000 		.4byte	0x3870
 11716 3c99 A43C0000 		.4byte	0x3ca4
 11717 3c9d 0C       		.uleb128 0xc
 11718 3c9e 48000000 		.4byte	0x48
 11719 3ca2 0F       		.byte	0xf
 11720 3ca3 00       		.byte	0
 11721 3ca4 0B       		.uleb128 0xb
 11722 3ca5 8A090000 		.4byte	0x98a
 11723 3ca9 B43C0000 		.4byte	0x3cb4
 11724 3cad 0C       		.uleb128 0xc
 11725 3cae 48000000 		.4byte	0x48
 11726 3cb2 3F       		.byte	0x3f
 11727 3cb3 00       		.byte	0
 11728 3cb4 04       		.uleb128 0x4
 11729 3cb5 A43C0000 		.4byte	0x3ca4
 11730 3cb9 0B       		.uleb128 0xb
 11731 3cba 8A090000 		.4byte	0x98a
 11732 3cbe C93C0000 		.4byte	0x3cc9
 11733 3cc2 0C       		.uleb128 0xc
 11734 3cc3 48000000 		.4byte	0x48
 11735 3cc7 0F       		.byte	0xf
 11736 3cc8 00       		.byte	0
 11737 3cc9 04       		.uleb128 0x4
 11738 3cca B93C0000 		.4byte	0x3cb9
 11739 3cce 0B       		.uleb128 0xb
 11740 3ccf E4380000 		.4byte	0x38e4
 11741 3cd3 DE3C0000 		.4byte	0x3cde
 11742 3cd7 0C       		.uleb128 0xc
 11743 3cd8 48000000 		.4byte	0x48
 11744 3cdc 0F       		.byte	0xf
 11745 3cdd 00       		.byte	0
 11746 3cde 0B       		.uleb128 0xb
 11747 3cdf 58390000 		.4byte	0x3958
ARM GAS  /tmp/ccjQGkoy.s 			page 208


 11748 3ce3 EE3C0000 		.4byte	0x3cee
 11749 3ce7 0C       		.uleb128 0xc
 11750 3ce8 48000000 		.4byte	0x48
 11751 3cec 0F       		.byte	0xf
 11752 3ced 00       		.byte	0
 11753 3cee 0B       		.uleb128 0xb
 11754 3cef 8A090000 		.4byte	0x98a
 11755 3cf3 FE3C0000 		.4byte	0x3cfe
 11756 3cf7 0C       		.uleb128 0xc
 11757 3cf8 48000000 		.4byte	0x48
 11758 3cfc 7E       		.byte	0x7e
 11759 3cfd 00       		.byte	0
 11760 3cfe 04       		.uleb128 0x4
 11761 3cff EE3C0000 		.4byte	0x3cee
 11762 3d03 0B       		.uleb128 0xb
 11763 3d04 8A090000 		.4byte	0x98a
 11764 3d08 1A3D0000 		.4byte	0x3d1a
 11765 3d0c 0C       		.uleb128 0xc
 11766 3d0d 48000000 		.4byte	0x48
 11767 3d11 0F       		.byte	0xf
 11768 3d12 32       		.uleb128 0x32
 11769 3d13 48000000 		.4byte	0x48
 11770 3d17 FF03     		.2byte	0x3ff
 11771 3d19 00       		.byte	0
 11772 3d1a 04       		.uleb128 0x4
 11773 3d1b 033D0000 		.4byte	0x3d03
 11774 3d1f 05       		.uleb128 0x5
 11775 3d20 083D0000 		.4byte	.LASF940
 11776 3d24 2B       		.byte	0x2b
 11777 3d25 B6       		.byte	0xb6
 11778 3d26 63390000 		.4byte	0x3963
 11779 3d2a 0D       		.uleb128 0xd
 11780 3d2b 0C       		.byte	0xc
 11781 3d2c 2A       		.byte	0x2a
 11782 3d2d C6       		.byte	0xc6
 11783 3d2e 573D0000 		.4byte	0x3d57
 11784 3d32 0E       		.uleb128 0xe
 11785 3d33 450D0000 		.4byte	.LASF941
 11786 3d37 2A       		.byte	0x2a
 11787 3d38 C7       		.byte	0xc7
 11788 3d39 7F090000 		.4byte	0x97f
 11789 3d3d 00       		.byte	0
 11790 3d3e 0E       		.uleb128 0xe
 11791 3d3f 8E100000 		.4byte	.LASF942
 11792 3d43 2A       		.byte	0x2a
 11793 3d44 C8       		.byte	0xc8
 11794 3d45 7F090000 		.4byte	0x97f
 11795 3d49 04       		.byte	0x4
 11796 3d4a 0E       		.uleb128 0xe
 11797 3d4b A2170000 		.4byte	.LASF943
 11798 3d4f 2A       		.byte	0x2a
 11799 3d50 C9       		.byte	0xc9
 11800 3d51 7F090000 		.4byte	0x97f
 11801 3d55 08       		.byte	0x8
 11802 3d56 00       		.byte	0
 11803 3d57 05       		.uleb128 0x5
 11804 3d58 9B100000 		.4byte	.LASF944
ARM GAS  /tmp/ccjQGkoy.s 			page 209


 11805 3d5c 2A       		.byte	0x2a
 11806 3d5d CA       		.byte	0xca
 11807 3d5e 2A3D0000 		.4byte	0x3d2a
 11808 3d62 10       		.uleb128 0x10
 11809 3d63 573D0000 		.4byte	0x3d57
 11810 3d67 0D       		.uleb128 0xd
 11811 3d68 04       		.byte	0x4
 11812 3d69 2A       		.byte	0x2a
 11813 3d6a DD       		.byte	0xdd
 11814 3d6b 7C3D0000 		.4byte	0x3d7c
 11815 3d6f 0E       		.uleb128 0xe
 11816 3d70 A2380000 		.4byte	.LASF945
 11817 3d74 2A       		.byte	0x2a
 11818 3d75 E1       		.byte	0xe1
 11819 3d76 E7160000 		.4byte	0x16e7
 11820 3d7a 00       		.byte	0
 11821 3d7b 00       		.byte	0
 11822 3d7c 0D       		.uleb128 0xd
 11823 3d7d 04       		.byte	0x4
 11824 3d7e 2A       		.byte	0x2a
 11825 3d7f E3       		.byte	0xe3
 11826 3d80 913D0000 		.4byte	0x3d91
 11827 3d84 0E       		.uleb128 0xe
 11828 3d85 BD0D0000 		.4byte	.LASF714
 11829 3d89 2A       		.byte	0x2a
 11830 3d8a E7       		.byte	0xe7
 11831 3d8b 913D0000 		.4byte	0x3d91
 11832 3d8f 00       		.byte	0
 11833 3d90 00       		.byte	0
 11834 3d91 06       		.uleb128 0x6
 11835 3d92 04       		.byte	0x4
 11836 3d93 C3160000 		.4byte	0x16c3
 11837 3d97 09       		.uleb128 0x9
 11838 3d98 04       		.byte	0x4
 11839 3d99 2A       		.byte	0x2a
 11840 3d9a DC       		.byte	0xdc
 11841 3d9b B63D0000 		.4byte	0x3db6
 11842 3d9f 0A       		.uleb128 0xa
 11843 3da0 8B300000 		.4byte	.LASF946
 11844 3da4 2A       		.byte	0x2a
 11845 3da5 E2       		.byte	0xe2
 11846 3da6 673D0000 		.4byte	0x3d67
 11847 3daa 0A       		.uleb128 0xa
 11848 3dab 0F2F0000 		.4byte	.LASF947
 11849 3daf 2A       		.byte	0x2a
 11850 3db0 E8       		.byte	0xe8
 11851 3db1 7C3D0000 		.4byte	0x3d7c
 11852 3db5 00       		.byte	0
 11853 3db6 0D       		.uleb128 0xd
 11854 3db7 14       		.byte	0x14
 11855 3db8 2A       		.byte	0x2a
 11856 3db9 CF       		.byte	0xcf
 11857 3dba FB3D0000 		.4byte	0x3dfb
 11858 3dbe 0E       		.uleb128 0xe
 11859 3dbf 9B0B0000 		.4byte	.LASF948
 11860 3dc3 2A       		.byte	0x2a
 11861 3dc4 D3       		.byte	0xd3
ARM GAS  /tmp/ccjQGkoy.s 			page 210


 11862 3dc5 0A1F0000 		.4byte	0x1f0a
 11863 3dc9 00       		.byte	0
 11864 3dca 0E       		.uleb128 0xe
 11865 3dcb 38270000 		.4byte	.LASF949
 11866 3dcf 2A       		.byte	0x2a
 11867 3dd0 D7       		.byte	0xd7
 11868 3dd1 38000000 		.4byte	0x38
 11869 3dd5 04       		.byte	0x4
 11870 3dd6 0E       		.uleb128 0xe
 11871 3dd7 25100000 		.4byte	.LASF950
 11872 3ddb 2A       		.byte	0x2a
 11873 3ddc DB       		.byte	0xdb
 11874 3ddd 38000000 		.4byte	0x38
 11875 3de1 08       		.byte	0x8
 11876 3de2 0E       		.uleb128 0xe
 11877 3de3 AA0C0000 		.4byte	.LASF782
 11878 3de7 2A       		.byte	0x2a
 11879 3de8 E9       		.byte	0xe9
 11880 3de9 973D0000 		.4byte	0x3d97
 11881 3ded 0C       		.byte	0xc
 11882 3dee 0E       		.uleb128 0xe
 11883 3def D0170000 		.4byte	.LASF951
 11884 3df3 2A       		.byte	0x2a
 11885 3df4 ED       		.byte	0xed
 11886 3df5 38000000 		.4byte	0x38
 11887 3df9 10       		.byte	0x10
 11888 3dfa 00       		.byte	0
 11889 3dfb 05       		.uleb128 0x5
 11890 3dfc 76190000 		.4byte	.LASF952
 11891 3e00 2A       		.byte	0x2a
 11892 3e01 EE       		.byte	0xee
 11893 3e02 B63D0000 		.4byte	0x3db6
 11894 3e06 1C       		.uleb128 0x1c
 11895 3e07 04       		.byte	0x4
 11896 3e08 2A       		.byte	0x2a
 11897 3e09 0101     		.2byte	0x101
 11898 3e0b 1D3E0000 		.4byte	0x3e1d
 11899 3e0f 19       		.uleb128 0x19
 11900 3e10 BE100000 		.4byte	.LASF953
 11901 3e14 2A       		.byte	0x2a
 11902 3e15 0501     		.2byte	0x105
 11903 3e17 B2160000 		.4byte	0x16b2
 11904 3e1b 00       		.byte	0
 11905 3e1c 00       		.byte	0
 11906 3e1d 1C       		.uleb128 0x1c
 11907 3e1e 04       		.byte	0x4
 11908 3e1f 2A       		.byte	0x2a
 11909 3e20 0701     		.2byte	0x107
 11910 3e22 343E0000 		.4byte	0x3e34
 11911 3e26 19       		.uleb128 0x19
 11912 3e27 0A300000 		.4byte	.LASF715
 11913 3e2b 2A       		.byte	0x2a
 11914 3e2c 0B01     		.2byte	0x10b
 11915 3e2e 343E0000 		.4byte	0x3e34
 11916 3e32 00       		.byte	0
 11917 3e33 00       		.byte	0
 11918 3e34 06       		.uleb128 0x6
ARM GAS  /tmp/ccjQGkoy.s 			page 211


 11919 3e35 04       		.byte	0x4
 11920 3e36 B8160000 		.4byte	0x16b8
 11921 3e3a 1D       		.uleb128 0x1d
 11922 3e3b 04       		.byte	0x4
 11923 3e3c 2A       		.byte	0x2a
 11924 3e3d 0001     		.2byte	0x100
 11925 3e3f 5C3E0000 		.4byte	0x3e5c
 11926 3e43 1E       		.uleb128 0x1e
 11927 3e44 8B300000 		.4byte	.LASF946
 11928 3e48 2A       		.byte	0x2a
 11929 3e49 0601     		.2byte	0x106
 11930 3e4b 063E0000 		.4byte	0x3e06
 11931 3e4f 1E       		.uleb128 0x1e
 11932 3e50 0F2F0000 		.4byte	.LASF947
 11933 3e54 2A       		.byte	0x2a
 11934 3e55 0C01     		.2byte	0x10c
 11935 3e57 1D3E0000 		.4byte	0x3e1d
 11936 3e5b 00       		.byte	0
 11937 3e5c 0D       		.uleb128 0xd
 11938 3e5d 14       		.byte	0x14
 11939 3e5e 2A       		.byte	0x2a
 11940 3e5f F3       		.byte	0xf3
 11941 3e60 A33E0000 		.4byte	0x3ea3
 11942 3e64 0E       		.uleb128 0xe
 11943 3e65 90080000 		.4byte	.LASF954
 11944 3e69 2A       		.byte	0x2a
 11945 3e6a F7       		.byte	0xf7
 11946 3e6b 0A1F0000 		.4byte	0x1f0a
 11947 3e6f 00       		.byte	0
 11948 3e70 0E       		.uleb128 0xe
 11949 3e71 921E0000 		.4byte	.LASF955
 11950 3e75 2A       		.byte	0x2a
 11951 3e76 FB       		.byte	0xfb
 11952 3e77 38000000 		.4byte	0x38
 11953 3e7b 04       		.byte	0x4
 11954 3e7c 0E       		.uleb128 0xe
 11955 3e7d 870C0000 		.4byte	.LASF956
 11956 3e81 2A       		.byte	0x2a
 11957 3e82 FF       		.byte	0xff
 11958 3e83 38000000 		.4byte	0x38
 11959 3e87 08       		.byte	0x8
 11960 3e88 19       		.uleb128 0x19
 11961 3e89 AA0C0000 		.4byte	.LASF782
 11962 3e8d 2A       		.byte	0x2a
 11963 3e8e 0D01     		.2byte	0x10d
 11964 3e90 3A3E0000 		.4byte	0x3e3a
 11965 3e94 0C       		.byte	0xc
 11966 3e95 19       		.uleb128 0x19
 11967 3e96 D0170000 		.4byte	.LASF951
 11968 3e9a 2A       		.byte	0x2a
 11969 3e9b 1101     		.2byte	0x111
 11970 3e9d 38000000 		.4byte	0x38
 11971 3ea1 10       		.byte	0x10
 11972 3ea2 00       		.byte	0
 11973 3ea3 08       		.uleb128 0x8
 11974 3ea4 762D0000 		.4byte	.LASF957
 11975 3ea8 2A       		.byte	0x2a
ARM GAS  /tmp/ccjQGkoy.s 			page 212


 11976 3ea9 1201     		.2byte	0x112
 11977 3eab 5C3E0000 		.4byte	0x3e5c
 11978 3eaf 1C       		.uleb128 0x1c
 11979 3eb0 24       		.byte	0x24
 11980 3eb1 2A       		.byte	0x2a
 11981 3eb2 1801     		.2byte	0x118
 11982 3eb4 3B3F0000 		.4byte	0x3f3b
 11983 3eb8 19       		.uleb128 0x19
 11984 3eb9 473D0000 		.4byte	.LASF958
 11985 3ebd 2A       		.byte	0x2a
 11986 3ebe 1C01     		.2byte	0x11c
 11987 3ec0 7F090000 		.4byte	0x97f
 11988 3ec4 00       		.byte	0
 11989 3ec5 19       		.uleb128 0x19
 11990 3ec6 800D0000 		.4byte	.LASF959
 11991 3eca 2A       		.byte	0x2a
 11992 3ecb 2701     		.2byte	0x127
 11993 3ecd 6C370000 		.4byte	0x376c
 11994 3ed1 04       		.byte	0x4
 11995 3ed2 19       		.uleb128 0x19
 11996 3ed3 20250000 		.4byte	.LASF960
 11997 3ed7 2A       		.byte	0x2a
 11998 3ed8 2D01     		.2byte	0x12d
 11999 3eda 6C370000 		.4byte	0x376c
 12000 3ede 08       		.byte	0x8
 12001 3edf 19       		.uleb128 0x19
 12002 3ee0 C5120000 		.4byte	.LASF961
 12003 3ee4 2A       		.byte	0x2a
 12004 3ee5 3301     		.2byte	0x133
 12005 3ee7 6C370000 		.4byte	0x376c
 12006 3eeb 0C       		.byte	0xc
 12007 3eec 19       		.uleb128 0x19
 12008 3eed 353D0000 		.4byte	.LASF962
 12009 3ef1 2A       		.byte	0x2a
 12010 3ef2 3901     		.2byte	0x139
 12011 3ef4 5F090000 		.4byte	0x95f
 12012 3ef8 10       		.byte	0x10
 12013 3ef9 19       		.uleb128 0x19
 12014 3efa C8180000 		.4byte	.LASF963
 12015 3efe 2A       		.byte	0x2a
 12016 3eff 3F01     		.2byte	0x13f
 12017 3f01 5F090000 		.4byte	0x95f
 12018 3f05 12       		.byte	0x12
 12019 3f06 19       		.uleb128 0x19
 12020 3f07 723A0000 		.4byte	.LASF964
 12021 3f0b 2A       		.byte	0x2a
 12022 3f0c 4401     		.2byte	0x144
 12023 3f0e 3B3F0000 		.4byte	0x3f3b
 12024 3f12 14       		.byte	0x14
 12025 3f13 19       		.uleb128 0x19
 12026 3f14 24160000 		.4byte	.LASF965
 12027 3f18 2A       		.byte	0x2a
 12028 3f19 4901     		.2byte	0x149
 12029 3f1b 413F0000 		.4byte	0x3f41
 12030 3f1f 18       		.byte	0x18
 12031 3f20 19       		.uleb128 0x19
 12032 3f21 FF1B0000 		.4byte	.LASF966
ARM GAS  /tmp/ccjQGkoy.s 			page 213


 12033 3f25 2A       		.byte	0x2a
 12034 3f26 5001     		.2byte	0x150
 12035 3f28 5F090000 		.4byte	0x95f
 12036 3f2c 1C       		.byte	0x1c
 12037 3f2d 19       		.uleb128 0x19
 12038 3f2e FB380000 		.4byte	.LASF967
 12039 3f32 2A       		.byte	0x2a
 12040 3f33 5601     		.2byte	0x156
 12041 3f35 B2160000 		.4byte	0x16b2
 12042 3f39 20       		.byte	0x20
 12043 3f3a 00       		.byte	0
 12044 3f3b 06       		.uleb128 0x6
 12045 3f3c 04       		.byte	0x4
 12046 3f3d FB3D0000 		.4byte	0x3dfb
 12047 3f41 06       		.uleb128 0x6
 12048 3f42 04       		.byte	0x4
 12049 3f43 A33E0000 		.4byte	0x3ea3
 12050 3f47 08       		.uleb128 0x8
 12051 3f48 F82F0000 		.4byte	.LASF968
 12052 3f4c 2A       		.byte	0x2a
 12053 3f4d 5701     		.2byte	0x157
 12054 3f4f AF3E0000 		.4byte	0x3eaf
 12055 3f53 10       		.uleb128 0x10
 12056 3f54 473F0000 		.4byte	0x3f47
 12057 3f58 1C       		.uleb128 0x1c
 12058 3f59 10       		.byte	0x10
 12059 3f5a 2A       		.byte	0x2a
 12060 3f5b 5C01     		.2byte	0x15c
 12061 3f5d 963F0000 		.4byte	0x3f96
 12062 3f61 19       		.uleb128 0x19
 12063 3f62 5A070000 		.4byte	.LASF969
 12064 3f66 2A       		.byte	0x2a
 12065 3f67 6101     		.2byte	0x161
 12066 3f69 8E370000 		.4byte	0x378e
 12067 3f6d 00       		.byte	0
 12068 3f6e 19       		.uleb128 0x19
 12069 3f6f 7B370000 		.4byte	.LASF970
 12070 3f73 2A       		.byte	0x2a
 12071 3f74 6601     		.2byte	0x166
 12072 3f76 D1370000 		.4byte	0x37d1
 12073 3f7a 04       		.byte	0x4
 12074 3f7b 19       		.uleb128 0x19
 12075 3f7c CA1C0000 		.4byte	.LASF971
 12076 3f80 2A       		.byte	0x2a
 12077 3f81 6C01     		.2byte	0x16c
 12078 3f83 B0370000 		.4byte	0x37b0
 12079 3f87 08       		.byte	0x8
 12080 3f88 19       		.uleb128 0x19
 12081 3f89 1B030000 		.4byte	.LASF972
 12082 3f8d 2A       		.byte	0x2a
 12083 3f8e 7001     		.2byte	0x170
 12084 3f90 49370000 		.4byte	0x3749
 12085 3f94 0C       		.byte	0xc
 12086 3f95 00       		.byte	0
 12087 3f96 08       		.uleb128 0x8
 12088 3f97 211B0000 		.4byte	.LASF973
 12089 3f9b 2A       		.byte	0x2a
ARM GAS  /tmp/ccjQGkoy.s 			page 214


 12090 3f9c 7201     		.2byte	0x172
 12091 3f9e 583F0000 		.4byte	0x3f58
 12092 3fa2 10       		.uleb128 0x10
 12093 3fa3 963F0000 		.4byte	0x3f96
 12094 3fa7 06       		.uleb128 0x6
 12095 3fa8 04       		.byte	0x4
 12096 3fa9 A23F0000 		.4byte	0x3fa2
 12097 3fad 0B       		.uleb128 0xb
 12098 3fae BD3F0000 		.4byte	0x3fbd
 12099 3fb2 BD3F0000 		.4byte	0x3fbd
 12100 3fb6 0C       		.uleb128 0xc
 12101 3fb7 48000000 		.4byte	0x48
 12102 3fbb 03       		.byte	0x3
 12103 3fbc 00       		.byte	0
 12104 3fbd 06       		.uleb128 0x6
 12105 3fbe 04       		.byte	0x4
 12106 3fbf 533F0000 		.4byte	0x3f53
 12107 3fc3 0B       		.uleb128 0xb
 12108 3fc4 72010000 		.4byte	0x172
 12109 3fc8 D33F0000 		.4byte	0x3fd3
 12110 3fcc 0C       		.uleb128 0xc
 12111 3fcd 48000000 		.4byte	0x48
 12112 3fd1 02       		.byte	0x2
 12113 3fd2 00       		.byte	0
 12114 3fd3 06       		.uleb128 0x6
 12115 3fd4 04       		.byte	0x4
 12116 3fd5 1F3D0000 		.4byte	0x3d1f
 12117 3fd9 06       		.uleb128 0x6
 12118 3fda 04       		.byte	0x4
 12119 3fdb 623D0000 		.4byte	0x3d62
 12120 3fdf 0B       		.uleb128 0xb
 12121 3fe0 0C120000 		.4byte	0x120c
 12122 3fe4 EF3F0000 		.4byte	0x3fef
 12123 3fe8 0C       		.uleb128 0xc
 12124 3fe9 48000000 		.4byte	0x48
 12125 3fed 42       		.byte	0x42
 12126 3fee 00       		.byte	0
 12127 3fef 20       		.uleb128 0x20
 12128 3ff0 92200000 		.4byte	.LASF974
 12129 3ff4 2A       		.byte	0x2a
 12130 3ff5 0602     		.2byte	0x206
 12131 3ff7 15350000 		.4byte	0x3515
 12132 3ffb 0B       		.uleb128 0xb
 12133 3ffc 44090000 		.4byte	0x944
 12134 4000 0B400000 		.4byte	0x400b
 12135 4004 0C       		.uleb128 0xc
 12136 4005 48000000 		.4byte	0x48
 12137 4009 03       		.byte	0x3
 12138 400a 00       		.byte	0
 12139 400b 0B       		.uleb128 0xb
 12140 400c 6A090000 		.4byte	0x96a
 12141 4010 16400000 		.4byte	0x4016
 12142 4014 33       		.uleb128 0x33
 12143 4015 00       		.byte	0
 12144 4016 04       		.uleb128 0x4
 12145 4017 0B400000 		.4byte	0x400b
 12146 401b 25       		.uleb128 0x25
ARM GAS  /tmp/ccjQGkoy.s 			page 215


 12147 401c 4E230000 		.4byte	.LASF975
 12148 4020 2C       		.byte	0x2c
 12149 4021 5A       		.byte	0x5a
 12150 4022 16400000 		.4byte	0x4016
 12151 4026 0B       		.uleb128 0xb
 12152 4027 33000000 		.4byte	0x33
 12153 402b 31400000 		.4byte	0x4031
 12154 402f 33       		.uleb128 0x33
 12155 4030 00       		.byte	0
 12156 4031 04       		.uleb128 0x4
 12157 4032 26400000 		.4byte	0x4026
 12158 4036 25       		.uleb128 0x25
 12159 4037 64290000 		.4byte	.LASF976
 12160 403b 2C       		.byte	0x2c
 12161 403c 5B       		.byte	0x5b
 12162 403d 31400000 		.4byte	0x4031
 12163 4041 29       		.uleb128 0x29
 12164 4042 07       		.byte	0x7
 12165 4043 01       		.byte	0x1
 12166 4044 6C000000 		.4byte	0x6c
 12167 4048 2D       		.byte	0x2d
 12168 4049 1E       		.byte	0x1e
 12169 404a 6D400000 		.4byte	0x406d
 12170 404e 23       		.uleb128 0x23
 12171 404f FE370000 		.4byte	.LASF977
 12172 4053 00       		.byte	0
 12173 4054 23       		.uleb128 0x23
 12174 4055 0E160000 		.4byte	.LASF978
 12175 4059 01       		.byte	0x1
 12176 405a 23       		.uleb128 0x23
 12177 405b B5080000 		.4byte	.LASF979
 12178 405f 02       		.byte	0x2
 12179 4060 23       		.uleb128 0x23
 12180 4061 CD200000 		.4byte	.LASF980
 12181 4065 03       		.byte	0x3
 12182 4066 23       		.uleb128 0x23
 12183 4067 CB210000 		.4byte	.LASF981
 12184 406b 04       		.byte	0x4
 12185 406c 00       		.byte	0
 12186 406d 0B       		.uleb128 0xb
 12187 406e 0C120000 		.4byte	0x120c
 12188 4072 7D400000 		.4byte	0x407d
 12189 4076 0C       		.uleb128 0xc
 12190 4077 48000000 		.4byte	0x48
 12191 407b 72       		.byte	0x72
 12192 407c 00       		.byte	0
 12193 407d 34       		.uleb128 0x34
 12194 407e AA330000 		.4byte	.LASF982
 12195 4082 01       		.byte	0x1
 12196 4083 2B       		.byte	0x2b
 12197 4084 6D400000 		.4byte	0x406d
 12198 4088 05       		.uleb128 0x5
 12199 4089 03       		.byte	0x3
 12200 408a 00000000 		.4byte	cancom_read_thread_wa
 12201 408e 0B       		.uleb128 0xb
 12202 408f 0C120000 		.4byte	0x120c
 12203 4093 9F400000 		.4byte	0x409f
ARM GAS  /tmp/ccjQGkoy.s 			page 216


 12204 4097 32       		.uleb128 0x32
 12205 4098 48000000 		.4byte	0x48
 12206 409c 3202     		.2byte	0x232
 12207 409e 00       		.byte	0
 12208 409f 34       		.uleb128 0x34
 12209 40a0 A1360000 		.4byte	.LASF983
 12210 40a4 01       		.byte	0x1
 12211 40a5 2C       		.byte	0x2c
 12212 40a6 8E400000 		.4byte	0x408e
 12213 40aa 05       		.uleb128 0x5
 12214 40ab 03       		.byte	0x3
 12215 40ac 00000000 		.4byte	cancom_process_thread_wa
 12216 40b0 0B       		.uleb128 0xb
 12217 40b1 0C120000 		.4byte	0x120c
 12218 40b5 C0400000 		.4byte	0x40c0
 12219 40b9 0C       		.uleb128 0xc
 12220 40ba 48000000 		.4byte	0x48
 12221 40be B2       		.byte	0xb2
 12222 40bf 00       		.byte	0
 12223 40c0 34       		.uleb128 0x34
 12224 40c1 EC260000 		.4byte	.LASF984
 12225 40c5 01       		.byte	0x1
 12226 40c6 2D       		.byte	0x2d
 12227 40c7 B0400000 		.4byte	0x40b0
 12228 40cb 05       		.uleb128 0x5
 12229 40cc 03       		.byte	0x3
 12230 40cd 00000000 		.4byte	cancom_status_thread_wa
 12231 40d1 34       		.uleb128 0x34
 12232 40d2 25290000 		.4byte	.LASF985
 12233 40d6 01       		.byte	0x1
 12234 40d7 32       		.byte	0x32
 12235 40d8 89150000 		.4byte	0x1589
 12236 40dc 05       		.uleb128 0x5
 12237 40dd 03       		.byte	0x3
 12238 40de 00000000 		.4byte	can_mtx
 12239 40e2 34       		.uleb128 0x34
 12240 40e3 8C280000 		.4byte	.LASF986
 12241 40e7 01       		.byte	0x1
 12242 40e8 33       		.byte	0x33
 12243 40e9 89150000 		.4byte	0x1589
 12244 40ed 05       		.uleb128 0x5
 12245 40ee 03       		.byte	0x3
 12246 40ef 00000000 		.4byte	can_rx_mtx
 12247 40f3 0B       		.uleb128 0xb
 12248 40f4 44090000 		.4byte	0x944
 12249 40f8 04410000 		.4byte	0x4104
 12250 40fc 32       		.uleb128 0x32
 12251 40fd 48000000 		.4byte	0x48
 12252 4101 FF01     		.2byte	0x1ff
 12253 4103 00       		.byte	0
 12254 4104 34       		.uleb128 0x34
 12255 4105 2D290000 		.4byte	.LASF987
 12256 4109 01       		.byte	0x1
 12257 410a 34       		.byte	0x34
 12258 410b F3400000 		.4byte	0x40f3
 12259 410f 05       		.uleb128 0x5
 12260 4110 03       		.byte	0x3
ARM GAS  /tmp/ccjQGkoy.s 			page 217


 12261 4111 00000000 		.4byte	rx_buffer
 12262 4115 34       		.uleb128 0x34
 12263 4116 E62D0000 		.4byte	.LASF988
 12264 411a 01       		.byte	0x1
 12265 411b 35       		.byte	0x35
 12266 411c 48000000 		.4byte	0x48
 12267 4120 05       		.uleb128 0x5
 12268 4121 03       		.byte	0x3
 12269 4122 00000000 		.4byte	rx_buffer_last_id
 12270 4126 0B       		.uleb128 0xb
 12271 4127 0F2D0000 		.4byte	0x2d0f
 12272 412b 36410000 		.4byte	0x4136
 12273 412f 0C       		.uleb128 0xc
 12274 4130 48000000 		.4byte	0x48
 12275 4134 63       		.byte	0x63
 12276 4135 00       		.byte	0
 12277 4136 34       		.uleb128 0x34
 12278 4137 2E2C0000 		.4byte	.LASF989
 12279 413b 01       		.byte	0x1
 12280 413c 36       		.byte	0x36
 12281 413d 26410000 		.4byte	0x4126
 12282 4141 05       		.uleb128 0x5
 12283 4142 03       		.byte	0x3
 12284 4143 00000000 		.4byte	rx_frames
 12285 4147 34       		.uleb128 0x34
 12286 4148 1E190000 		.4byte	.LASF990
 12287 414c 01       		.byte	0x1
 12288 414d 37       		.byte	0x37
 12289 414e 2C000000 		.4byte	0x2c
 12290 4152 05       		.uleb128 0x5
 12291 4153 03       		.byte	0x3
 12292 4154 00000000 		.4byte	rx_frame_read
 12293 4158 34       		.uleb128 0x34
 12294 4159 F1390000 		.4byte	.LASF991
 12295 415d 01       		.byte	0x1
 12296 415e 38       		.byte	0x38
 12297 415f 2C000000 		.4byte	0x2c
 12298 4163 05       		.uleb128 0x5
 12299 4164 03       		.byte	0x3
 12300 4165 00000000 		.4byte	rx_frame_write
 12301 4169 34       		.uleb128 0x34
 12302 416a 020C0000 		.4byte	.LASF992
 12303 416e 01       		.byte	0x1
 12304 416f 39       		.byte	0x39
 12305 4170 3E0B0000 		.4byte	0xb3e
 12306 4174 05       		.uleb128 0x5
 12307 4175 03       		.byte	0x3
 12308 4176 00000000 		.4byte	process_tp
 12309 417a 34       		.uleb128 0x34
 12310 417b BD060000 		.4byte	.LASF993
 12311 417f 01       		.byte	0x1
 12312 4180 3A       		.byte	0x3a
 12313 4181 3E0B0000 		.4byte	0xb3e
 12314 4185 05       		.uleb128 0x5
 12315 4186 03       		.byte	0x3
 12316 4187 00000000 		.4byte	ping_tp
 12317 418b 0B       		.uleb128 0xb
ARM GAS  /tmp/ccjQGkoy.s 			page 218


 12318 418c 1B270000 		.4byte	0x271b
 12319 4190 9B410000 		.4byte	0x419b
 12320 4194 0C       		.uleb128 0xc
 12321 4195 48000000 		.4byte	0x48
 12322 4199 09       		.byte	0x9
 12323 419a 00       		.byte	0
 12324 419b 34       		.uleb128 0x34
 12325 419c E1030000 		.4byte	.LASF994
 12326 41a0 01       		.byte	0x1
 12327 41a1 3E       		.byte	0x3e
 12328 41a2 8B410000 		.4byte	0x418b
 12329 41a6 05       		.uleb128 0x5
 12330 41a7 03       		.byte	0x3
 12331 41a8 00000000 		.4byte	stat_msgs
 12332 41ac 0B       		.uleb128 0xb
 12333 41ad 64270000 		.4byte	0x2764
 12334 41b1 BC410000 		.4byte	0x41bc
 12335 41b5 0C       		.uleb128 0xc
 12336 41b6 48000000 		.4byte	0x48
 12337 41ba 09       		.byte	0x9
 12338 41bb 00       		.byte	0
 12339 41bc 34       		.uleb128 0x34
 12340 41bd 0B1D0000 		.4byte	.LASF995
 12341 41c1 01       		.byte	0x1
 12342 41c2 3F       		.byte	0x3f
 12343 41c3 AC410000 		.4byte	0x41ac
 12344 41c7 05       		.uleb128 0x5
 12345 41c8 03       		.byte	0x3
 12346 41c9 00000000 		.4byte	stat_msgs_2
 12347 41cd 0B       		.uleb128 0xb
 12348 41ce AD270000 		.4byte	0x27ad
 12349 41d2 DD410000 		.4byte	0x41dd
 12350 41d6 0C       		.uleb128 0xc
 12351 41d7 48000000 		.4byte	0x48
 12352 41db 09       		.byte	0x9
 12353 41dc 00       		.byte	0
 12354 41dd 34       		.uleb128 0x34
 12355 41de 171D0000 		.4byte	.LASF996
 12356 41e2 01       		.byte	0x1
 12357 41e3 40       		.byte	0x40
 12358 41e4 CD410000 		.4byte	0x41cd
 12359 41e8 05       		.uleb128 0x5
 12360 41e9 03       		.byte	0x3
 12361 41ea 00000000 		.4byte	stat_msgs_3
 12362 41ee 0B       		.uleb128 0xb
 12363 41ef 10280000 		.4byte	0x2810
 12364 41f3 FE410000 		.4byte	0x41fe
 12365 41f7 0C       		.uleb128 0xc
 12366 41f8 48000000 		.4byte	0x48
 12367 41fc 09       		.byte	0x9
 12368 41fd 00       		.byte	0
 12369 41fe 34       		.uleb128 0x34
 12370 41ff 71200000 		.4byte	.LASF997
 12371 4203 01       		.byte	0x1
 12372 4204 41       		.byte	0x41
 12373 4205 EE410000 		.4byte	0x41ee
 12374 4209 05       		.uleb128 0x5
ARM GAS  /tmp/ccjQGkoy.s 			page 219


 12375 420a 03       		.byte	0x3
 12376 420b 00000000 		.4byte	stat_msgs_4
 12377 420f 34       		.uleb128 0x34
 12378 4210 66300000 		.4byte	.LASF998
 12379 4214 01       		.byte	0x1
 12380 4215 42       		.byte	0x42
 12381 4216 48000000 		.4byte	0x48
 12382 421a 05       		.uleb128 0x5
 12383 421b 03       		.byte	0x3
 12384 421c 00000000 		.4byte	detect_all_foc_res_index
 12385 4220 0B       		.uleb128 0xb
 12386 4221 39090000 		.4byte	0x939
 12387 4225 30420000 		.4byte	0x4230
 12388 4229 0C       		.uleb128 0xc
 12389 422a 48000000 		.4byte	0x48
 12390 422e 31       		.byte	0x31
 12391 422f 00       		.byte	0
 12392 4230 34       		.uleb128 0x34
 12393 4231 27360000 		.4byte	.LASF999
 12394 4235 01       		.byte	0x1
 12395 4236 43       		.byte	0x43
 12396 4237 20420000 		.4byte	0x4220
 12397 423b 05       		.uleb128 0x5
 12398 423c 03       		.byte	0x3
 12399 423d 00000000 		.4byte	detect_all_foc_res
 12400 4241 34       		.uleb128 0x34
 12401 4242 26010000 		.4byte	.LASF1000
 12402 4246 01       		.byte	0x1
 12403 4247 4A       		.byte	0x4a
 12404 4248 3C2D0000 		.4byte	0x2d3c
 12405 424c 05       		.uleb128 0x5
 12406 424d 03       		.byte	0x3
 12407 424e 00000000 		.4byte	cancfg
 12408 4252 1F       		.uleb128 0x1f
 12409 4253 67420000 		.4byte	0x4267
 12410 4257 17       		.uleb128 0x17
 12411 4258 7F090000 		.4byte	0x97f
 12412 425c 17       		.uleb128 0x17
 12413 425d B2160000 		.4byte	0x16b2
 12414 4261 17       		.uleb128 0x17
 12415 4262 44090000 		.4byte	0x944
 12416 4266 00       		.byte	0
 12417 4267 34       		.uleb128 0x34
 12418 4268 86130000 		.4byte	.LASF1001
 12419 426c 01       		.byte	0x1
 12420 426d 57       		.byte	0x57
 12421 426e 78420000 		.4byte	0x4278
 12422 4272 05       		.uleb128 0x5
 12423 4273 03       		.byte	0x3
 12424 4274 00000000 		.4byte	sid_callback
 12425 4278 06       		.uleb128 0x6
 12426 4279 04       		.byte	0x4
 12427 427a 52420000 		.4byte	0x4252
 12428 427e 35       		.uleb128 0x35
 12429 427f AA0E0000 		.4byte	.LASF1067
 12430 4283 01       		.byte	0x1
 12431 4284 6304     		.2byte	0x463
ARM GAS  /tmp/ccjQGkoy.s 			page 220


 12432 4286 01       		.byte	0x1
 12433 4287 B0420000 		.4byte	0x42b0
 12434 428b 36       		.uleb128 0x36
 12435 428c 62727000 		.ascii	"brp\000"
 12436 4290 01       		.byte	0x1
 12437 4291 6304     		.2byte	0x463
 12438 4293 2C000000 		.4byte	0x2c
 12439 4297 36       		.uleb128 0x36
 12440 4298 74733100 		.ascii	"ts1\000"
 12441 429c 01       		.byte	0x1
 12442 429d 6304     		.2byte	0x463
 12443 429f 2C000000 		.4byte	0x2c
 12444 42a3 36       		.uleb128 0x36
 12445 42a4 74733200 		.ascii	"ts2\000"
 12446 42a8 01       		.byte	0x1
 12447 42a9 6304     		.2byte	0x463
 12448 42ab 2C000000 		.4byte	0x2c
 12449 42af 00       		.byte	0
 12450 42b0 37       		.uleb128 0x37
 12451 42b1 75140000 		.4byte	.LASF1003
 12452 42b5 01       		.byte	0x1
 12453 42b6 5E04     		.2byte	0x45e
 12454 42b8 00000000 		.4byte	.LFB291
 12455 42bc 18000000 		.4byte	.LFE291-.LFB291
 12456 42c0 01       		.uleb128 0x1
 12457 42c1 9C       		.byte	0x9c
 12458 42c2 04430000 		.4byte	0x4304
 12459 42c6 38       		.uleb128 0x38
 12460 42c7 A12E0000 		.4byte	.LASF1002
 12461 42cb 01       		.byte	0x1
 12462 42cc 5E04     		.2byte	0x45e
 12463 42ce 43030000 		.4byte	0x343
 12464 42d2 00000000 		.4byte	.LLST43
 12465 42d6 39       		.uleb128 0x39
 12466 42d7 6C656E00 		.ascii	"len\000"
 12467 42db 01       		.byte	0x1
 12468 42dc 5E04     		.2byte	0x45e
 12469 42de 48000000 		.4byte	0x48
 12470 42e2 2C000000 		.4byte	.LLST44
 12471 42e6 3A       		.uleb128 0x3a
 12472 42e7 14000000 		.4byte	.LVL126
 12473 42eb AB5F0000 		.4byte	0x5fab
 12474 42ef 3B       		.uleb128 0x3b
 12475 42f0 01       		.uleb128 0x1
 12476 42f1 51       		.byte	0x51
 12477 42f2 03       		.uleb128 0x3
 12478 42f3 F3       		.byte	0xf3
 12479 42f4 01       		.uleb128 0x1
 12480 42f5 50       		.byte	0x50
 12481 42f6 3B       		.uleb128 0x3b
 12482 42f7 01       		.uleb128 0x1
 12483 42f8 52       		.byte	0x52
 12484 42f9 03       		.uleb128 0x3
 12485 42fa F3       		.byte	0xf3
 12486 42fb 01       		.uleb128 0x1
 12487 42fc 51       		.byte	0x51
 12488 42fd 3B       		.uleb128 0x3b
ARM GAS  /tmp/ccjQGkoy.s 			page 221


 12489 42fe 01       		.uleb128 0x1
 12490 42ff 53       		.byte	0x53
 12491 4300 01       		.uleb128 0x1
 12492 4301 31       		.byte	0x31
 12493 4302 00       		.byte	0
 12494 4303 00       		.byte	0
 12495 4304 37       		.uleb128 0x37
 12496 4305 1C060000 		.4byte	.LASF1004
 12497 4309 01       		.byte	0x1
 12498 430a 1F04     		.2byte	0x41f
 12499 430c 00000000 		.4byte	.LFB290
 12500 4310 EC010000 		.4byte	.LFE290-.LFB290
 12501 4314 01       		.uleb128 0x1
 12502 4315 9C       		.byte	0x9c
 12503 4316 15460000 		.4byte	0x4615
 12504 431a 39       		.uleb128 0x39
 12505 431b 61726700 		.ascii	"arg\000"
 12506 431f 01       		.byte	0x1
 12507 4320 1F04     		.2byte	0x41f
 12508 4322 72010000 		.4byte	0x172
 12509 4326 58000000 		.4byte	.LLST25
 12510 432a 3C       		.uleb128 0x3c
 12511 432b 90000000 		.4byte	.Ldebug_ranges0+0x90
 12512 432f F7450000 		.4byte	0x45f7
 12513 4333 3D       		.uleb128 0x3d
 12514 4334 71280000 		.4byte	.LASF1005
 12515 4338 01       		.byte	0x1
 12516 4339 2404     		.2byte	0x424
 12517 433b 15460000 		.4byte	0x4615
 12518 433f 79000000 		.4byte	.LLST26
 12519 4343 3D       		.uleb128 0x3d
 12520 4344 F6090000 		.4byte	.LASF1006
 12521 4348 01       		.byte	0x1
 12522 4349 5504     		.2byte	0x455
 12523 434b 130A0000 		.4byte	0xa13
 12524 434f AD000000 		.4byte	.LLST27
 12525 4353 3C       		.uleb128 0x3c
 12526 4354 D8000000 		.4byte	.Ldebug_ranges0+0xd8
 12527 4358 F4430000 		.4byte	0x43f4
 12528 435c 3E       		.uleb128 0x3e
 12529 435d 28320000 		.4byte	.LASF1007
 12530 4361 01       		.byte	0x1
 12531 4362 2B04     		.2byte	0x42b
 12532 4364 6F090000 		.4byte	0x96f
 12533 4368 02       		.uleb128 0x2
 12534 4369 91       		.byte	0x91
 12535 436a 54       		.sleb128 -44
 12536 436b 3E       		.uleb128 0x3e
 12537 436c 5F2A0000 		.4byte	.LASF1008
 12538 4370 01       		.byte	0x1
 12539 4371 2C04     		.2byte	0x42c
 12540 4373 211F0000 		.4byte	0x1f21
 12541 4377 02       		.uleb128 0x2
 12542 4378 91       		.byte	0x91
 12543 4379 58       		.sleb128 -40
 12544 437a 3F       		.uleb128 0x3f
 12545 437b 58000000 		.4byte	.LVL54
ARM GAS  /tmp/ccjQGkoy.s 			page 222


 12546 437f 79670000 		.4byte	0x6779
 12547 4383 40       		.uleb128 0x40
 12548 4384 68000000 		.4byte	.LVL55
 12549 4388 84670000 		.4byte	0x6784
 12550 438c 9D430000 		.4byte	0x439d
 12551 4390 3B       		.uleb128 0x3b
 12552 4391 01       		.uleb128 0x1
 12553 4392 50       		.byte	0x50
 12554 4393 02       		.uleb128 0x2
 12555 4394 91       		.byte	0x91
 12556 4395 58       		.sleb128 -40
 12557 4396 3B       		.uleb128 0x3b
 12558 4397 01       		.uleb128 0x1
 12559 4398 52       		.byte	0x52
 12560 4399 02       		.uleb128 0x2
 12561 439a 91       		.byte	0x91
 12562 439b 54       		.sleb128 -44
 12563 439c 00       		.byte	0
 12564 439d 3F       		.uleb128 0x3f
 12565 439e 6C000000 		.4byte	.LVL56
 12566 43a2 8F670000 		.4byte	0x678f
 12567 43a6 40       		.uleb128 0x40
 12568 43a7 86000000 		.4byte	.LVL57
 12569 43ab 9A670000 		.4byte	0x679a
 12570 43af C0430000 		.4byte	0x43c0
 12571 43b3 3B       		.uleb128 0x3b
 12572 43b4 01       		.uleb128 0x1
 12573 43b5 50       		.byte	0x50
 12574 43b6 02       		.uleb128 0x2
 12575 43b7 91       		.byte	0x91
 12576 43b8 58       		.sleb128 -40
 12577 43b9 3B       		.uleb128 0x3b
 12578 43ba 01       		.uleb128 0x1
 12579 43bb 52       		.byte	0x52
 12580 43bc 02       		.uleb128 0x2
 12581 43bd 91       		.byte	0x91
 12582 43be 54       		.sleb128 -44
 12583 43bf 00       		.byte	0
 12584 43c0 3F       		.uleb128 0x3f
 12585 43c1 8A000000 		.4byte	.LVL58
 12586 43c5 A5670000 		.4byte	0x67a5
 12587 43c9 40       		.uleb128 0x40
 12588 43ca A0000000 		.4byte	.LVL59
 12589 43ce 9A670000 		.4byte	0x679a
 12590 43d2 E3430000 		.4byte	0x43e3
 12591 43d6 3B       		.uleb128 0x3b
 12592 43d7 01       		.uleb128 0x1
 12593 43d8 50       		.byte	0x50
 12594 43d9 02       		.uleb128 0x2
 12595 43da 91       		.byte	0x91
 12596 43db 58       		.sleb128 -40
 12597 43dc 3B       		.uleb128 0x3b
 12598 43dd 01       		.uleb128 0x1
 12599 43de 52       		.byte	0x52
 12600 43df 02       		.uleb128 0x2
 12601 43e0 91       		.byte	0x91
 12602 43e1 54       		.sleb128 -44
ARM GAS  /tmp/ccjQGkoy.s 			page 223


 12603 43e2 00       		.byte	0
 12604 43e3 41       		.uleb128 0x41
 12605 43e4 B0000000 		.4byte	.LVL60
 12606 43e8 2A610000 		.4byte	0x612a
 12607 43ec 3B       		.uleb128 0x3b
 12608 43ed 01       		.uleb128 0x1
 12609 43ee 51       		.byte	0x51
 12610 43ef 02       		.uleb128 0x2
 12611 43f0 91       		.byte	0x91
 12612 43f1 58       		.sleb128 -40
 12613 43f2 00       		.byte	0
 12614 43f3 00       		.byte	0
 12615 43f4 42       		.uleb128 0x42
 12616 43f5 B8000000 		.4byte	.LBB172
 12617 43f9 4A000000 		.4byte	.LBE172-.LBB172
 12618 43fd 8C440000 		.4byte	0x448c
 12619 4401 3E       		.uleb128 0x3e
 12620 4402 28320000 		.4byte	.LASF1007
 12621 4406 01       		.byte	0x1
 12622 4407 3704     		.2byte	0x437
 12623 4409 6F090000 		.4byte	0x96f
 12624 440d 02       		.uleb128 0x2
 12625 440e 91       		.byte	0x91
 12626 440f 54       		.sleb128 -44
 12627 4410 3E       		.uleb128 0x3e
 12628 4411 5F2A0000 		.4byte	.LASF1008
 12629 4415 01       		.byte	0x1
 12630 4416 3804     		.2byte	0x438
 12631 4418 211F0000 		.4byte	0x1f21
 12632 441c 02       		.uleb128 0x2
 12633 441d 91       		.byte	0x91
 12634 441e 58       		.sleb128 -40
 12635 441f 40       		.uleb128 0x40
 12636 4420 C2000000 		.4byte	.LVL61
 12637 4424 B0670000 		.4byte	0x67b0
 12638 4428 33440000 		.4byte	0x4433
 12639 442c 3B       		.uleb128 0x3b
 12640 442d 01       		.uleb128 0x1
 12641 442e 50       		.byte	0x50
 12642 442f 02       		.uleb128 0x2
 12643 4430 75       		.byte	0x75
 12644 4431 00       		.sleb128 0
 12645 4432 00       		.byte	0
 12646 4433 40       		.uleb128 0x40
 12647 4434 D6000000 		.4byte	.LVL62
 12648 4438 84670000 		.4byte	0x6784
 12649 443c 4D440000 		.4byte	0x444d
 12650 4440 3B       		.uleb128 0x3b
 12651 4441 01       		.uleb128 0x1
 12652 4442 50       		.byte	0x50
 12653 4443 02       		.uleb128 0x2
 12654 4444 91       		.byte	0x91
 12655 4445 58       		.sleb128 -40
 12656 4446 3B       		.uleb128 0x3b
 12657 4447 01       		.uleb128 0x1
 12658 4448 52       		.byte	0x52
 12659 4449 02       		.uleb128 0x2
ARM GAS  /tmp/ccjQGkoy.s 			page 224


 12660 444a 91       		.byte	0x91
 12661 444b 54       		.sleb128 -44
 12662 444c 00       		.byte	0
 12663 444d 40       		.uleb128 0x40
 12664 444e DC000000 		.4byte	.LVL63
 12665 4452 BB670000 		.4byte	0x67bb
 12666 4456 61440000 		.4byte	0x4461
 12667 445a 3B       		.uleb128 0x3b
 12668 445b 01       		.uleb128 0x1
 12669 445c 50       		.byte	0x50
 12670 445d 02       		.uleb128 0x2
 12671 445e 75       		.byte	0x75
 12672 445f 00       		.sleb128 0
 12673 4460 00       		.byte	0
 12674 4461 40       		.uleb128 0x40
 12675 4462 F0000000 		.4byte	.LVL64
 12676 4466 84670000 		.4byte	0x6784
 12677 446a 7B440000 		.4byte	0x447b
 12678 446e 3B       		.uleb128 0x3b
 12679 446f 01       		.uleb128 0x1
 12680 4470 50       		.byte	0x50
 12681 4471 02       		.uleb128 0x2
 12682 4472 91       		.byte	0x91
 12683 4473 58       		.sleb128 -40
 12684 4474 3B       		.uleb128 0x3b
 12685 4475 01       		.uleb128 0x1
 12686 4476 52       		.byte	0x52
 12687 4477 02       		.uleb128 0x2
 12688 4478 91       		.byte	0x91
 12689 4479 54       		.sleb128 -44
 12690 447a 00       		.byte	0
 12691 447b 41       		.uleb128 0x41
 12692 447c 00010000 		.4byte	.LVL65
 12693 4480 2A610000 		.4byte	0x612a
 12694 4484 3B       		.uleb128 0x3b
 12695 4485 01       		.uleb128 0x1
 12696 4486 51       		.byte	0x51
 12697 4487 02       		.uleb128 0x2
 12698 4488 91       		.byte	0x91
 12699 4489 58       		.sleb128 -40
 12700 448a 00       		.byte	0
 12701 448b 00       		.byte	0
 12702 448c 3C       		.uleb128 0x3c
 12703 448d A8000000 		.4byte	.Ldebug_ranges0+0xa8
 12704 4491 20450000 		.4byte	0x4520
 12705 4495 3E       		.uleb128 0x3e
 12706 4496 28320000 		.4byte	.LASF1007
 12707 449a 01       		.byte	0x1
 12708 449b 4104     		.2byte	0x441
 12709 449d 6F090000 		.4byte	0x96f
 12710 44a1 02       		.uleb128 0x2
 12711 44a2 91       		.byte	0x91
 12712 44a3 54       		.sleb128 -44
 12713 44a4 3E       		.uleb128 0x3e
 12714 44a5 5F2A0000 		.4byte	.LASF1008
 12715 44a9 01       		.byte	0x1
 12716 44aa 4204     		.2byte	0x442
ARM GAS  /tmp/ccjQGkoy.s 			page 225


 12717 44ac 211F0000 		.4byte	0x1f21
 12718 44b0 02       		.uleb128 0x2
 12719 44b1 91       		.byte	0x91
 12720 44b2 58       		.sleb128 -40
 12721 44b3 40       		.uleb128 0x40
 12722 44b4 12010000 		.4byte	.LVL66
 12723 44b8 C6670000 		.4byte	0x67c6
 12724 44bc C7440000 		.4byte	0x44c7
 12725 44c0 3B       		.uleb128 0x3b
 12726 44c1 01       		.uleb128 0x1
 12727 44c2 50       		.byte	0x50
 12728 44c3 02       		.uleb128 0x2
 12729 44c4 75       		.byte	0x75
 12730 44c5 00       		.sleb128 0
 12731 44c6 00       		.byte	0
 12732 44c7 40       		.uleb128 0x40
 12733 44c8 26010000 		.4byte	.LVL67
 12734 44cc 84670000 		.4byte	0x6784
 12735 44d0 E1440000 		.4byte	0x44e1
 12736 44d4 3B       		.uleb128 0x3b
 12737 44d5 01       		.uleb128 0x1
 12738 44d6 50       		.byte	0x50
 12739 44d7 02       		.uleb128 0x2
 12740 44d8 91       		.byte	0x91
 12741 44d9 58       		.sleb128 -40
 12742 44da 3B       		.uleb128 0x3b
 12743 44db 01       		.uleb128 0x1
 12744 44dc 52       		.byte	0x52
 12745 44dd 02       		.uleb128 0x2
 12746 44de 91       		.byte	0x91
 12747 44df 54       		.sleb128 -44
 12748 44e0 00       		.byte	0
 12749 44e1 40       		.uleb128 0x40
 12750 44e2 2C010000 		.4byte	.LVL68
 12751 44e6 D1670000 		.4byte	0x67d1
 12752 44ea F5440000 		.4byte	0x44f5
 12753 44ee 3B       		.uleb128 0x3b
 12754 44ef 01       		.uleb128 0x1
 12755 44f0 50       		.byte	0x50
 12756 44f1 02       		.uleb128 0x2
 12757 44f2 75       		.byte	0x75
 12758 44f3 00       		.sleb128 0
 12759 44f4 00       		.byte	0
 12760 44f5 40       		.uleb128 0x40
 12761 44f6 40010000 		.4byte	.LVL69
 12762 44fa 84670000 		.4byte	0x6784
 12763 44fe 0F450000 		.4byte	0x450f
 12764 4502 3B       		.uleb128 0x3b
 12765 4503 01       		.uleb128 0x1
 12766 4504 50       		.byte	0x50
 12767 4505 02       		.uleb128 0x2
 12768 4506 91       		.byte	0x91
 12769 4507 58       		.sleb128 -40
 12770 4508 3B       		.uleb128 0x3b
 12771 4509 01       		.uleb128 0x1
 12772 450a 52       		.byte	0x52
 12773 450b 02       		.uleb128 0x2
ARM GAS  /tmp/ccjQGkoy.s 			page 226


 12774 450c 91       		.byte	0x91
 12775 450d 54       		.sleb128 -44
 12776 450e 00       		.byte	0
 12777 450f 41       		.uleb128 0x41
 12778 4510 50010000 		.4byte	.LVL70
 12779 4514 2A610000 		.4byte	0x612a
 12780 4518 3B       		.uleb128 0x3b
 12781 4519 01       		.uleb128 0x1
 12782 451a 51       		.byte	0x51
 12783 451b 02       		.uleb128 0x2
 12784 451c 91       		.byte	0x91
 12785 451d 58       		.sleb128 -40
 12786 451e 00       		.byte	0
 12787 451f 00       		.byte	0
 12788 4520 3C       		.uleb128 0x3c
 12789 4521 C0000000 		.4byte	.Ldebug_ranges0+0xc0
 12790 4525 E4450000 		.4byte	0x45e4
 12791 4529 3E       		.uleb128 0x3e
 12792 452a 28320000 		.4byte	.LASF1007
 12793 452e 01       		.byte	0x1
 12794 452f 4A04     		.2byte	0x44a
 12795 4531 6F090000 		.4byte	0x96f
 12796 4535 02       		.uleb128 0x2
 12797 4536 91       		.byte	0x91
 12798 4537 54       		.sleb128 -44
 12799 4538 3E       		.uleb128 0x3e
 12800 4539 5F2A0000 		.4byte	.LASF1008
 12801 453d 01       		.byte	0x1
 12802 453e 4B04     		.2byte	0x44b
 12803 4540 211F0000 		.4byte	0x1f21
 12804 4544 02       		.uleb128 0x2
 12805 4545 91       		.byte	0x91
 12806 4546 58       		.sleb128 -40
 12807 4547 3F       		.uleb128 0x3f
 12808 4548 5E010000 		.4byte	.LVL71
 12809 454c DC670000 		.4byte	0x67dc
 12810 4550 40       		.uleb128 0x40
 12811 4551 78010000 		.4byte	.LVL72
 12812 4555 9A670000 		.4byte	0x679a
 12813 4559 6A450000 		.4byte	0x456a
 12814 455d 3B       		.uleb128 0x3b
 12815 455e 01       		.uleb128 0x1
 12816 455f 50       		.byte	0x50
 12817 4560 02       		.uleb128 0x2
 12818 4561 91       		.byte	0x91
 12819 4562 58       		.sleb128 -40
 12820 4563 3B       		.uleb128 0x3b
 12821 4564 01       		.uleb128 0x1
 12822 4565 52       		.byte	0x52
 12823 4566 02       		.uleb128 0x2
 12824 4567 91       		.byte	0x91
 12825 4568 54       		.sleb128 -44
 12826 4569 00       		.byte	0
 12827 456a 3F       		.uleb128 0x3f
 12828 456b 7C010000 		.4byte	.LVL73
 12829 456f E7670000 		.4byte	0x67e7
 12830 4573 40       		.uleb128 0x40
ARM GAS  /tmp/ccjQGkoy.s 			page 227


 12831 4574 92010000 		.4byte	.LVL74
 12832 4578 9A670000 		.4byte	0x679a
 12833 457c 8D450000 		.4byte	0x458d
 12834 4580 3B       		.uleb128 0x3b
 12835 4581 01       		.uleb128 0x1
 12836 4582 50       		.byte	0x50
 12837 4583 02       		.uleb128 0x2
 12838 4584 91       		.byte	0x91
 12839 4585 58       		.sleb128 -40
 12840 4586 3B       		.uleb128 0x3b
 12841 4587 01       		.uleb128 0x1
 12842 4588 52       		.byte	0x52
 12843 4589 02       		.uleb128 0x2
 12844 458a 91       		.byte	0x91
 12845 458b 54       		.sleb128 -44
 12846 458c 00       		.byte	0
 12847 458d 3F       		.uleb128 0x3f
 12848 458e 96010000 		.4byte	.LVL75
 12849 4592 F2670000 		.4byte	0x67f2
 12850 4596 40       		.uleb128 0x40
 12851 4597 AC010000 		.4byte	.LVL76
 12852 459b 9A670000 		.4byte	0x679a
 12853 459f B0450000 		.4byte	0x45b0
 12854 45a3 3B       		.uleb128 0x3b
 12855 45a4 01       		.uleb128 0x1
 12856 45a5 50       		.byte	0x50
 12857 45a6 02       		.uleb128 0x2
 12858 45a7 91       		.byte	0x91
 12859 45a8 58       		.sleb128 -40
 12860 45a9 3B       		.uleb128 0x3b
 12861 45aa 01       		.uleb128 0x1
 12862 45ab 52       		.byte	0x52
 12863 45ac 02       		.uleb128 0x2
 12864 45ad 91       		.byte	0x91
 12865 45ae 54       		.sleb128 -44
 12866 45af 00       		.byte	0
 12867 45b0 3F       		.uleb128 0x3f
 12868 45b1 B0010000 		.4byte	.LVL77
 12869 45b5 FD670000 		.4byte	0x67fd
 12870 45b9 40       		.uleb128 0x40
 12871 45ba C6010000 		.4byte	.LVL78
 12872 45be 9A670000 		.4byte	0x679a
 12873 45c2 D3450000 		.4byte	0x45d3
 12874 45c6 3B       		.uleb128 0x3b
 12875 45c7 01       		.uleb128 0x1
 12876 45c8 50       		.byte	0x50
 12877 45c9 02       		.uleb128 0x2
 12878 45ca 91       		.byte	0x91
 12879 45cb 58       		.sleb128 -40
 12880 45cc 3B       		.uleb128 0x3b
 12881 45cd 01       		.uleb128 0x1
 12882 45ce 52       		.byte	0x52
 12883 45cf 02       		.uleb128 0x2
 12884 45d0 91       		.byte	0x91
 12885 45d1 54       		.sleb128 -44
 12886 45d2 00       		.byte	0
 12887 45d3 41       		.uleb128 0x41
ARM GAS  /tmp/ccjQGkoy.s 			page 228


 12888 45d4 D6010000 		.4byte	.LVL79
 12889 45d8 2A610000 		.4byte	0x612a
 12890 45dc 3B       		.uleb128 0x3b
 12891 45dd 01       		.uleb128 0x1
 12892 45de 51       		.byte	0x51
 12893 45df 02       		.uleb128 0x2
 12894 45e0 91       		.byte	0x91
 12895 45e1 58       		.sleb128 -40
 12896 45e2 00       		.byte	0
 12897 45e3 00       		.byte	0
 12898 45e4 3F       		.uleb128 0x3f
 12899 45e5 3E000000 		.4byte	.LVL51
 12900 45e9 08680000 		.4byte	0x6808
 12901 45ed 3F       		.uleb128 0x3f
 12902 45ee 42000000 		.4byte	.LVL52
 12903 45f2 13680000 		.4byte	0x6813
 12904 45f6 00       		.byte	0
 12905 45f7 43       		.uleb128 0x43
 12906 45f8 94640000 		.4byte	0x6494
 12907 45fc 02000000 		.4byte	.LBB164
 12908 4600 78000000 		.4byte	.Ldebug_ranges0+0x78
 12909 4604 01       		.byte	0x1
 12910 4605 2104     		.2byte	0x421
 12911 4607 44       		.uleb128 0x44
 12912 4608 A0640000 		.4byte	0x64a0
 12913 460c 06       		.uleb128 0x6
 12914 460d 03       		.byte	0x3
 12915 460e 00000000 		.4byte	.LC1
 12916 4612 9F       		.byte	0x9f
 12917 4613 00       		.byte	0
 12918 4614 00       		.byte	0
 12919 4615 06       		.uleb128 0x6
 12920 4616 04       		.byte	0x4
 12921 4617 0F260000 		.4byte	0x260f
 12922 461b 37       		.uleb128 0x37
 12923 461c C7050000 		.4byte	.LASF1009
 12924 4620 01       		.byte	0x1
 12925 4621 DB02     		.2byte	0x2db
 12926 4623 00000000 		.4byte	.LFB289
 12927 4627 48070000 		.4byte	.LFE289-.LFB289
 12928 462b 01       		.uleb128 0x1
 12929 462c 9C       		.byte	0x9c
 12930 462d 92510000 		.4byte	0x5192
 12931 4631 39       		.uleb128 0x39
 12932 4632 61726700 		.ascii	"arg\000"
 12933 4636 01       		.byte	0x1
 12934 4637 DB02     		.2byte	0x2db
 12935 4639 72010000 		.4byte	0x172
 12936 463d C0000000 		.4byte	.LLST94
 12937 4641 45       		.uleb128 0x45
 12938 4642 696E6400 		.ascii	"ind\000"
 12939 4646 01       		.byte	0x1
 12940 4647 E102     		.2byte	0x2e1
 12941 4649 6F090000 		.4byte	0x96f
 12942 464d 03       		.uleb128 0x3
 12943 464e 91       		.byte	0x91
 12944 464f D87B     		.sleb128 -552
ARM GAS  /tmp/ccjQGkoy.s 			page 229


 12945 4651 3D       		.uleb128 0x3d
 12946 4652 A31F0000 		.4byte	.LASF1010
 12947 4656 01       		.byte	0x1
 12948 4657 E202     		.2byte	0x2e2
 12949 4659 48000000 		.4byte	0x48
 12950 465d E1000000 		.4byte	.LLST95
 12951 4661 3D       		.uleb128 0x3d
 12952 4662 CB250000 		.4byte	.LASF1011
 12953 4666 01       		.byte	0x1
 12954 4667 E302     		.2byte	0x2e3
 12955 4669 48000000 		.4byte	0x48
 12956 466d 0E010000 		.4byte	.LLST96
 12957 4671 3D       		.uleb128 0x3d
 12958 4672 E83C0000 		.4byte	.LASF1012
 12959 4676 01       		.byte	0x1
 12960 4677 E402     		.2byte	0x2e4
 12961 4679 44090000 		.4byte	0x944
 12962 467d 49010000 		.4byte	.LLST97
 12963 4681 3D       		.uleb128 0x3d
 12964 4682 04060000 		.4byte	.LASF1013
 12965 4686 01       		.byte	0x1
 12966 4687 E502     		.2byte	0x2e5
 12967 4689 44090000 		.4byte	0x944
 12968 468d 6B010000 		.4byte	.LLST98
 12969 4691 3D       		.uleb128 0x3d
 12970 4692 AF2C0000 		.4byte	.LASF1014
 12971 4696 01       		.byte	0x1
 12972 4697 E602     		.2byte	0x2e6
 12973 4699 44090000 		.4byte	0x944
 12974 469d 80010000 		.4byte	.LLST99
 12975 46a1 3C       		.uleb128 0x3c
 12976 46a2 C8010000 		.4byte	.Ldebug_ranges0+0x1c8
 12977 46a6 77510000 		.4byte	0x5177
 12978 46aa 3D       		.uleb128 0x3d
 12979 46ab 73060000 		.4byte	.LASF1015
 12980 46af 01       		.byte	0x1
 12981 46b0 EF02     		.2byte	0x2ef
 12982 46b2 92510000 		.4byte	0x5192
 12983 46b6 C7010000 		.4byte	.LLST101
 12984 46ba 3C       		.uleb128 0x3c
 12985 46bb E0010000 		.4byte	.Ldebug_ranges0+0x1e0
 12986 46bf 51510000 		.4byte	0x5151
 12987 46c3 3E       		.uleb128 0x3e
 12988 46c4 5F130000 		.4byte	.LASF1016
 12989 46c8 01       		.byte	0x1
 12990 46c9 F102     		.2byte	0x2f1
 12991 46cb 0F2D0000 		.4byte	0x2d0f
 12992 46cf 03       		.uleb128 0x3
 12993 46d0 91       		.byte	0x91
 12994 46d1 DC7B     		.sleb128 -548
 12995 46d3 3C       		.uleb128 0x3c
 12996 46d4 00020000 		.4byte	.Ldebug_ranges0+0x200
 12997 46d8 43510000 		.4byte	0x5143
 12998 46dc 46       		.uleb128 0x46
 12999 46dd 696400   		.ascii	"id\000"
 13000 46e0 01       		.byte	0x1
 13001 46e1 F402     		.2byte	0x2f4
ARM GAS  /tmp/ccjQGkoy.s 			page 230


 13002 46e3 44090000 		.4byte	0x944
 13003 46e7 F4010000 		.4byte	.LLST102
 13004 46eb 46       		.uleb128 0x46
 13005 46ec 636D6400 		.ascii	"cmd\000"
 13006 46f0 01       		.byte	0x1
 13007 46f1 F502     		.2byte	0x2f5
 13008 46f3 C5260000 		.4byte	0x26c5
 13009 46f7 28020000 		.4byte	.LLST103
 13010 46fb 42       		.uleb128 0x42
 13011 46fc CE040000 		.4byte	.LBB285
 13012 4700 1A000000 		.4byte	.LBE285-.LBB285
 13013 4704 38470000 		.4byte	0x4738
 13014 4708 3E       		.uleb128 0x3e
 13015 4709 5F2A0000 		.4byte	.LASF1008
 13016 470d 01       		.byte	0x1
 13017 470e 7103     		.2byte	0x371
 13018 4710 98510000 		.4byte	0x5198
 13019 4714 03       		.uleb128 0x3
 13020 4715 91       		.byte	0x91
 13021 4716 F07B     		.sleb128 -528
 13022 4718 3F       		.uleb128 0x3f
 13023 4719 D2040000 		.4byte	.LVL330
 13024 471d 13680000 		.4byte	0x6813
 13025 4721 41       		.uleb128 0x41
 13026 4722 E8040000 		.4byte	.LVL331
 13027 4726 2A610000 		.4byte	0x612a
 13028 472a 3B       		.uleb128 0x3b
 13029 472b 01       		.uleb128 0x1
 13030 472c 51       		.byte	0x51
 13031 472d 03       		.uleb128 0x3
 13032 472e 91       		.byte	0x91
 13033 472f F07B     		.sleb128 -528
 13034 4731 3B       		.uleb128 0x3b
 13035 4732 01       		.uleb128 0x1
 13036 4733 52       		.byte	0x52
 13037 4734 01       		.uleb128 0x1
 13038 4735 31       		.byte	0x31
 13039 4736 00       		.byte	0
 13040 4737 00       		.byte	0
 13041 4738 3C       		.uleb128 0x3c
 13042 4739 18030000 		.4byte	.Ldebug_ranges0+0x318
 13043 473d 3C480000 		.4byte	0x483c
 13044 4741 3D       		.uleb128 0x3d
 13045 4742 8A3C0000 		.4byte	.LASF1017
 13046 4746 01       		.byte	0x1
 13047 4747 8003     		.2byte	0x380
 13048 4749 0A1F0000 		.4byte	0x1f0a
 13049 474d 56020000 		.4byte	.LLST124
 13050 4751 3D       		.uleb128 0x3d
 13051 4752 88090000 		.4byte	.LASF1018
 13052 4756 01       		.byte	0x1
 13053 4757 8103     		.2byte	0x381
 13054 4759 25000000 		.4byte	0x25
 13055 475d 80020000 		.4byte	.LLST125
 13056 4761 46       		.uleb128 0x46
 13057 4762 72657300 		.ascii	"res\000"
 13058 4766 01       		.byte	0x1
ARM GAS  /tmp/ccjQGkoy.s 			page 231


 13059 4767 8203     		.2byte	0x382
 13060 4769 2C000000 		.4byte	0x2c
 13061 476d 94020000 		.4byte	.LLST126
 13062 4771 3E       		.uleb128 0x3e
 13063 4772 5F2A0000 		.4byte	.LASF1008
 13064 4776 01       		.byte	0x1
 13065 4777 8D03     		.2byte	0x38d
 13066 4779 A8510000 		.4byte	0x51a8
 13067 477d 03       		.uleb128 0x3
 13068 477e 91       		.byte	0x91
 13069 477f F07B     		.sleb128 -528
 13070 4781 42       		.uleb128 0x42
 13071 4782 EA060000 		.4byte	.LBB284
 13072 4786 2C000000 		.4byte	.LBE284-.LBB284
 13073 478a E9470000 		.4byte	0x47e9
 13074 478e 3E       		.uleb128 0x3e
 13075 478f 66190000 		.4byte	.LASF1019
 13076 4793 01       		.byte	0x1
 13077 4794 8403     		.2byte	0x384
 13078 4796 03260000 		.4byte	0x2603
 13079 479a 03       		.uleb128 0x3
 13080 479b 91       		.byte	0x91
 13081 479c F07B     		.sleb128 -528
 13082 479e 3F       		.uleb128 0x3f
 13083 479f EE060000 		.4byte	.LVL376
 13084 47a3 13680000 		.4byte	0x6813
 13085 47a7 40       		.uleb128 0x40
 13086 47a8 F8060000 		.4byte	.LVL377
 13087 47ac 1E680000 		.4byte	0x681e
 13088 47b0 C2470000 		.4byte	0x47c2
 13089 47b4 3B       		.uleb128 0x3b
 13090 47b5 01       		.uleb128 0x1
 13091 47b6 50       		.byte	0x50
 13092 47b7 03       		.uleb128 0x3
 13093 47b8 91       		.byte	0x91
 13094 47b9 F07B     		.sleb128 -528
 13095 47bb 3B       		.uleb128 0x3b
 13096 47bc 01       		.uleb128 0x1
 13097 47bd 52       		.byte	0x52
 13098 47be 02       		.uleb128 0x2
 13099 47bf 08       		.byte	0x8
 13100 47c0 CC       		.byte	0xcc
 13101 47c1 00       		.byte	0
 13102 47c2 40       		.uleb128 0x40
 13103 47c3 0E070000 		.4byte	.LVL378
 13104 47c7 2D680000 		.4byte	0x682d
 13105 47cb D7470000 		.4byte	0x47d7
 13106 47cf 3B       		.uleb128 0x3b
 13107 47d0 01       		.uleb128 0x1
 13108 47d1 50       		.byte	0x50
 13109 47d2 03       		.uleb128 0x3
 13110 47d3 91       		.byte	0x91
 13111 47d4 F07B     		.sleb128 -528
 13112 47d6 00       		.byte	0
 13113 47d7 41       		.uleb128 0x41
 13114 47d8 14070000 		.4byte	.LVL379
 13115 47dc 38680000 		.4byte	0x6838
ARM GAS  /tmp/ccjQGkoy.s 			page 232


 13116 47e0 3B       		.uleb128 0x3b
 13117 47e1 01       		.uleb128 0x1
 13118 47e2 50       		.byte	0x50
 13119 47e3 03       		.uleb128 0x3
 13120 47e4 91       		.byte	0x91
 13121 47e5 F07B     		.sleb128 -528
 13122 47e7 00       		.byte	0
 13123 47e8 00       		.byte	0
 13124 47e9 40       		.uleb128 0x40
 13125 47ea 92040000 		.4byte	.LVL324
 13126 47ee 43680000 		.4byte	0x6843
 13127 47f2 0D480000 		.4byte	0x480d
 13128 47f6 3B       		.uleb128 0x3b
 13129 47f7 01       		.uleb128 0x1
 13130 47f8 50       		.byte	0x50
 13131 47f9 03       		.uleb128 0x3
 13132 47fa 91       		.byte	0x91
 13133 47fb E87B     		.sleb128 -536
 13134 47fd 3B       		.uleb128 0x3b
 13135 47fe 02       		.uleb128 0x2
 13136 47ff 90       		.byte	0x90
 13137 4800 40       		.uleb128 0x40
 13138 4801 03       		.uleb128 0x3
 13139 4802 F5       		.byte	0xf5
 13140 4803 51       		.uleb128 0x51
 13141 4804 25       		.uleb128 0x25
 13142 4805 3B       		.uleb128 0x3b
 13143 4806 01       		.uleb128 0x1
 13144 4807 51       		.byte	0x51
 13145 4808 03       		.uleb128 0x3
 13146 4809 91       		.byte	0x91
 13147 480a D87B     		.sleb128 -552
 13148 480c 00       		.byte	0
 13149 480d 40       		.uleb128 0x40
 13150 480e 9A040000 		.4byte	.LVL325
 13151 4812 4E680000 		.4byte	0x684e
 13152 4816 25480000 		.4byte	0x4825
 13153 481a 3B       		.uleb128 0x3b
 13154 481b 01       		.uleb128 0x1
 13155 481c 50       		.byte	0x50
 13156 481d 01       		.uleb128 0x1
 13157 481e 31       		.byte	0x31
 13158 481f 3B       		.uleb128 0x3b
 13159 4820 01       		.uleb128 0x1
 13160 4821 51       		.byte	0x51
 13161 4822 01       		.uleb128 0x1
 13162 4823 30       		.byte	0x30
 13163 4824 00       		.byte	0
 13164 4825 41       		.uleb128 0x41
 13165 4826 B8040000 		.4byte	.LVL327
 13166 482a 2A610000 		.4byte	0x612a
 13167 482e 3B       		.uleb128 0x3b
 13168 482f 01       		.uleb128 0x1
 13169 4830 51       		.byte	0x51
 13170 4831 03       		.uleb128 0x3
 13171 4832 91       		.byte	0x91
 13172 4833 F07B     		.sleb128 -528
ARM GAS  /tmp/ccjQGkoy.s 			page 233


 13173 4835 3B       		.uleb128 0x3b
 13174 4836 01       		.uleb128 0x1
 13175 4837 52       		.byte	0x52
 13176 4838 01       		.uleb128 0x1
 13177 4839 31       		.byte	0x31
 13178 483a 00       		.byte	0
 13179 483b 00       		.byte	0
 13180 483c 42       		.uleb128 0x42
 13181 483d F8030000 		.4byte	.LBB281
 13182 4841 5E000000 		.4byte	.LBE281-.LBB281
 13183 4845 E3480000 		.4byte	0x48e3
 13184 4849 46       		.uleb128 0x46
 13185 484a 6D696E00 		.ascii	"min\000"
 13186 484e 01       		.byte	0x1
 13187 484f 9B03     		.2byte	0x39b
 13188 4851 25000000 		.4byte	0x25
 13189 4855 C8020000 		.4byte	.LLST122
 13190 4859 46       		.uleb128 0x46
 13191 485a 6D617800 		.ascii	"max\000"
 13192 485e 01       		.byte	0x1
 13193 485f 9C03     		.2byte	0x39c
 13194 4861 25000000 		.4byte	0x25
 13195 4865 E8020000 		.4byte	.LLST123
 13196 4869 3E       		.uleb128 0x3e
 13197 486a 462F0000 		.4byte	.LASF1020
 13198 486e 01       		.byte	0x1
 13199 486f 9D03     		.2byte	0x39d
 13200 4871 311F0000 		.4byte	0x1f31
 13201 4875 03       		.uleb128 0x3
 13202 4876 91       		.byte	0x91
 13203 4877 F07B     		.sleb128 -528
 13204 4879 40       		.uleb128 0x40
 13205 487a 08040000 		.4byte	.LVL314
 13206 487e 43680000 		.4byte	0x6843
 13207 4882 9D480000 		.4byte	0x489d
 13208 4886 3B       		.uleb128 0x3b
 13209 4887 01       		.uleb128 0x1
 13210 4888 50       		.byte	0x50
 13211 4889 03       		.uleb128 0x3
 13212 488a 91       		.byte	0x91
 13213 488b E87B     		.sleb128 -536
 13214 488d 3B       		.uleb128 0x3b
 13215 488e 02       		.uleb128 0x2
 13216 488f 90       		.byte	0x90
 13217 4890 40       		.uleb128 0x40
 13218 4891 03       		.uleb128 0x3
 13219 4892 F5       		.byte	0xf5
 13220 4893 51       		.uleb128 0x51
 13221 4894 25       		.uleb128 0x25
 13222 4895 3B       		.uleb128 0x3b
 13223 4896 01       		.uleb128 0x1
 13224 4897 51       		.byte	0x51
 13225 4898 03       		.uleb128 0x3
 13226 4899 91       		.byte	0x91
 13227 489a D87B     		.sleb128 -552
 13228 489c 00       		.byte	0
 13229 489d 40       		.uleb128 0x40
ARM GAS  /tmp/ccjQGkoy.s 			page 234


 13230 489e 18040000 		.4byte	.LVL317
 13231 48a2 43680000 		.4byte	0x6843
 13232 48a6 C1480000 		.4byte	0x48c1
 13233 48aa 3B       		.uleb128 0x3b
 13234 48ab 01       		.uleb128 0x1
 13235 48ac 50       		.byte	0x50
 13236 48ad 03       		.uleb128 0x3
 13237 48ae 91       		.byte	0x91
 13238 48af E87B     		.sleb128 -536
 13239 48b1 3B       		.uleb128 0x3b
 13240 48b2 02       		.uleb128 0x2
 13241 48b3 90       		.byte	0x90
 13242 48b4 40       		.uleb128 0x40
 13243 48b5 03       		.uleb128 0x3
 13244 48b6 F5       		.byte	0xf5
 13245 48b7 51       		.uleb128 0x51
 13246 48b8 25       		.uleb128 0x25
 13247 48b9 3B       		.uleb128 0x3b
 13248 48ba 01       		.uleb128 0x1
 13249 48bb 51       		.byte	0x51
 13250 48bc 03       		.uleb128 0x3
 13251 48bd 91       		.byte	0x91
 13252 48be D87B     		.sleb128 -552
 13253 48c0 00       		.byte	0
 13254 48c1 3F       		.uleb128 0x3f
 13255 48c2 20040000 		.4byte	.LVL319
 13256 48c6 59680000 		.4byte	0x6859
 13257 48ca 41       		.uleb128 0x41
 13258 48cb 2C040000 		.4byte	.LVL320
 13259 48cf 1E680000 		.4byte	0x681e
 13260 48d3 3B       		.uleb128 0x3b
 13261 48d4 01       		.uleb128 0x1
 13262 48d5 50       		.byte	0x50
 13263 48d6 03       		.uleb128 0x3
 13264 48d7 91       		.byte	0x91
 13265 48d8 F07B     		.sleb128 -528
 13266 48da 3B       		.uleb128 0x3b
 13267 48db 01       		.uleb128 0x1
 13268 48dc 52       		.byte	0x52
 13269 48dd 03       		.uleb128 0x3
 13270 48de 0A       		.byte	0xa
 13271 48df C801     		.2byte	0x1c8
 13272 48e1 00       		.byte	0
 13273 48e2 00       		.byte	0
 13274 48e3 42       		.uleb128 0x42
 13275 48e4 92030000 		.4byte	.LBB279
 13276 48e8 5E000000 		.4byte	.LBE279-.LBB279
 13277 48ec 8A490000 		.4byte	0x498a
 13278 48f0 46       		.uleb128 0x46
 13279 48f1 6D696E00 		.ascii	"min\000"
 13280 48f5 01       		.byte	0x1
 13281 48f6 AE03     		.2byte	0x3ae
 13282 48f8 25000000 		.4byte	0x25
 13283 48fc 08030000 		.4byte	.LLST120
 13284 4900 46       		.uleb128 0x46
 13285 4901 6D617800 		.ascii	"max\000"
 13286 4905 01       		.byte	0x1
ARM GAS  /tmp/ccjQGkoy.s 			page 235


 13287 4906 AF03     		.2byte	0x3af
 13288 4908 25000000 		.4byte	0x25
 13289 490c 28030000 		.4byte	.LLST121
 13290 4910 3E       		.uleb128 0x3e
 13291 4911 462F0000 		.4byte	.LASF1020
 13292 4915 01       		.byte	0x1
 13293 4916 B003     		.2byte	0x3b0
 13294 4918 311F0000 		.4byte	0x1f31
 13295 491c 03       		.uleb128 0x3
 13296 491d 91       		.byte	0x91
 13297 491e F07B     		.sleb128 -528
 13298 4920 40       		.uleb128 0x40
 13299 4921 A2030000 		.4byte	.LVL305
 13300 4925 43680000 		.4byte	0x6843
 13301 4929 44490000 		.4byte	0x4944
 13302 492d 3B       		.uleb128 0x3b
 13303 492e 01       		.uleb128 0x1
 13304 492f 50       		.byte	0x50
 13305 4930 03       		.uleb128 0x3
 13306 4931 91       		.byte	0x91
 13307 4932 E87B     		.sleb128 -536
 13308 4934 3B       		.uleb128 0x3b
 13309 4935 02       		.uleb128 0x2
 13310 4936 90       		.byte	0x90
 13311 4937 40       		.uleb128 0x40
 13312 4938 03       		.uleb128 0x3
 13313 4939 F5       		.byte	0xf5
 13314 493a 51       		.uleb128 0x51
 13315 493b 25       		.uleb128 0x25
 13316 493c 3B       		.uleb128 0x3b
 13317 493d 01       		.uleb128 0x1
 13318 493e 51       		.byte	0x51
 13319 493f 03       		.uleb128 0x3
 13320 4940 91       		.byte	0x91
 13321 4941 D87B     		.sleb128 -552
 13322 4943 00       		.byte	0
 13323 4944 40       		.uleb128 0x40
 13324 4945 B2030000 		.4byte	.LVL308
 13325 4949 43680000 		.4byte	0x6843
 13326 494d 68490000 		.4byte	0x4968
 13327 4951 3B       		.uleb128 0x3b
 13328 4952 01       		.uleb128 0x1
 13329 4953 50       		.byte	0x50
 13330 4954 03       		.uleb128 0x3
 13331 4955 91       		.byte	0x91
 13332 4956 E87B     		.sleb128 -536
 13333 4958 3B       		.uleb128 0x3b
 13334 4959 02       		.uleb128 0x2
 13335 495a 90       		.byte	0x90
 13336 495b 40       		.uleb128 0x40
 13337 495c 03       		.uleb128 0x3
 13338 495d F5       		.byte	0xf5
 13339 495e 51       		.uleb128 0x51
 13340 495f 25       		.uleb128 0x25
 13341 4960 3B       		.uleb128 0x3b
 13342 4961 01       		.uleb128 0x1
 13343 4962 51       		.byte	0x51
ARM GAS  /tmp/ccjQGkoy.s 			page 236


 13344 4963 03       		.uleb128 0x3
 13345 4964 91       		.byte	0x91
 13346 4965 D87B     		.sleb128 -552
 13347 4967 00       		.byte	0
 13348 4968 3F       		.uleb128 0x3f
 13349 4969 BA030000 		.4byte	.LVL310
 13350 496d 59680000 		.4byte	0x6859
 13351 4971 41       		.uleb128 0x41
 13352 4972 C6030000 		.4byte	.LVL311
 13353 4976 1E680000 		.4byte	0x681e
 13354 497a 3B       		.uleb128 0x3b
 13355 497b 01       		.uleb128 0x1
 13356 497c 50       		.byte	0x50
 13357 497d 03       		.uleb128 0x3
 13358 497e 91       		.byte	0x91
 13359 497f F07B     		.sleb128 -528
 13360 4981 3B       		.uleb128 0x3b
 13361 4982 01       		.uleb128 0x1
 13362 4983 52       		.byte	0x52
 13363 4984 03       		.uleb128 0x3
 13364 4985 0A       		.byte	0xa
 13365 4986 C801     		.2byte	0x1c8
 13366 4988 00       		.byte	0
 13367 4989 00       		.byte	0
 13368 498a 3C       		.uleb128 0x3c
 13369 498b F8020000 		.4byte	.Ldebug_ranges0+0x2f8
 13370 498f 6C4A0000 		.4byte	0x4a6c
 13371 4993 3D       		.uleb128 0x3d
 13372 4994 DA2B0000 		.4byte	.LASF427
 13373 4998 01       		.byte	0x1
 13374 4999 C103     		.2byte	0x3c1
 13375 499b 25000000 		.4byte	0x25
 13376 499f 48030000 		.4byte	.LLST118
 13377 49a3 3D       		.uleb128 0x3d
 13378 49a4 CF190000 		.4byte	.LASF434
 13379 49a8 01       		.byte	0x1
 13380 49a9 C203     		.2byte	0x3c2
 13381 49ab 25000000 		.4byte	0x25
 13382 49af 68030000 		.4byte	.LLST119
 13383 49b3 3E       		.uleb128 0x3e
 13384 49b4 462F0000 		.4byte	.LASF1020
 13385 49b8 01       		.byte	0x1
 13386 49b9 C303     		.2byte	0x3c3
 13387 49bb 311F0000 		.4byte	0x1f31
 13388 49bf 03       		.uleb128 0x3
 13389 49c0 91       		.byte	0x91
 13390 49c1 F07B     		.sleb128 -528
 13391 49c3 40       		.uleb128 0x40
 13392 49c4 3C030000 		.4byte	.LVL296
 13393 49c8 43680000 		.4byte	0x6843
 13394 49cc E7490000 		.4byte	0x49e7
 13395 49d0 3B       		.uleb128 0x3b
 13396 49d1 01       		.uleb128 0x1
 13397 49d2 50       		.byte	0x50
 13398 49d3 03       		.uleb128 0x3
 13399 49d4 91       		.byte	0x91
 13400 49d5 E87B     		.sleb128 -536
ARM GAS  /tmp/ccjQGkoy.s 			page 237


 13401 49d7 3B       		.uleb128 0x3b
 13402 49d8 02       		.uleb128 0x2
 13403 49d9 90       		.byte	0x90
 13404 49da 40       		.uleb128 0x40
 13405 49db 03       		.uleb128 0x3
 13406 49dc F5       		.byte	0xf5
 13407 49dd 51       		.uleb128 0x51
 13408 49de 25       		.uleb128 0x25
 13409 49df 3B       		.uleb128 0x3b
 13410 49e0 01       		.uleb128 0x1
 13411 49e1 51       		.byte	0x51
 13412 49e2 03       		.uleb128 0x3
 13413 49e3 91       		.byte	0x91
 13414 49e4 D87B     		.sleb128 -552
 13415 49e6 00       		.byte	0
 13416 49e7 40       		.uleb128 0x40
 13417 49e8 4C030000 		.4byte	.LVL299
 13418 49ec 43680000 		.4byte	0x6843
 13419 49f0 0B4A0000 		.4byte	0x4a0b
 13420 49f4 3B       		.uleb128 0x3b
 13421 49f5 01       		.uleb128 0x1
 13422 49f6 50       		.byte	0x50
 13423 49f7 03       		.uleb128 0x3
 13424 49f8 91       		.byte	0x91
 13425 49f9 E87B     		.sleb128 -536
 13426 49fb 3B       		.uleb128 0x3b
 13427 49fc 02       		.uleb128 0x2
 13428 49fd 90       		.byte	0x90
 13429 49fe 40       		.uleb128 0x40
 13430 49ff 03       		.uleb128 0x3
 13431 4a00 F5       		.byte	0xf5
 13432 4a01 51       		.uleb128 0x51
 13433 4a02 25       		.uleb128 0x25
 13434 4a03 3B       		.uleb128 0x3b
 13435 4a04 01       		.uleb128 0x1
 13436 4a05 51       		.byte	0x51
 13437 4a06 03       		.uleb128 0x3
 13438 4a07 91       		.byte	0x91
 13439 4a08 D87B     		.sleb128 -552
 13440 4a0a 00       		.byte	0
 13441 4a0b 3F       		.uleb128 0x3f
 13442 4a0c 54030000 		.4byte	.LVL301
 13443 4a10 59680000 		.4byte	0x6859
 13444 4a14 40       		.uleb128 0x40
 13445 4a15 60030000 		.4byte	.LVL302
 13446 4a19 1E680000 		.4byte	0x681e
 13447 4a1d 304A0000 		.4byte	0x4a30
 13448 4a21 3B       		.uleb128 0x3b
 13449 4a22 01       		.uleb128 0x1
 13450 4a23 50       		.byte	0x50
 13451 4a24 03       		.uleb128 0x3
 13452 4a25 91       		.byte	0x91
 13453 4a26 F07B     		.sleb128 -528
 13454 4a28 3B       		.uleb128 0x3b
 13455 4a29 01       		.uleb128 0x1
 13456 4a2a 52       		.byte	0x52
 13457 4a2b 03       		.uleb128 0x3
ARM GAS  /tmp/ccjQGkoy.s 			page 238


 13458 4a2c 0A       		.byte	0xa
 13459 4a2d C801     		.2byte	0x1c8
 13460 4a2f 00       		.byte	0
 13461 4a30 40       		.uleb128 0x40
 13462 4a31 90030000 		.4byte	.LVL304
 13463 4a35 64680000 		.4byte	0x6864
 13464 4a39 454A0000 		.4byte	0x4a45
 13465 4a3d 3B       		.uleb128 0x3b
 13466 4a3e 01       		.uleb128 0x1
 13467 4a3f 50       		.byte	0x50
 13468 4a40 03       		.uleb128 0x3
 13469 4a41 91       		.byte	0x91
 13470 4a42 F07B     		.sleb128 -528
 13471 4a44 00       		.byte	0
 13472 4a45 40       		.uleb128 0x40
 13473 4a46 F6030000 		.4byte	.LVL313
 13474 4a4a 6F680000 		.4byte	0x686f
 13475 4a4e 5A4A0000 		.4byte	0x4a5a
 13476 4a52 3B       		.uleb128 0x3b
 13477 4a53 01       		.uleb128 0x1
 13478 4a54 50       		.byte	0x50
 13479 4a55 03       		.uleb128 0x3
 13480 4a56 91       		.byte	0x91
 13481 4a57 F07B     		.sleb128 -528
 13482 4a59 00       		.byte	0
 13483 4a5a 41       		.uleb128 0x41
 13484 4a5b 5C040000 		.4byte	.LVL321
 13485 4a5f 6F680000 		.4byte	0x686f
 13486 4a63 3B       		.uleb128 0x3b
 13487 4a64 01       		.uleb128 0x1
 13488 4a65 50       		.byte	0x50
 13489 4a66 03       		.uleb128 0x3
 13490 4a67 91       		.byte	0x91
 13491 4a68 F07B     		.sleb128 -528
 13492 4a6a 00       		.byte	0
 13493 4a6b 00       		.byte	0
 13494 4a6c 3C       		.uleb128 0x3c
 13495 4a6d A0020000 		.4byte	.Ldebug_ranges0+0x2a0
 13496 4a71 A14B0000 		.4byte	0x4ba1
 13497 4a75 46       		.uleb128 0x46
 13498 4a76 6900     		.ascii	"i\000"
 13499 4a78 01       		.byte	0x1
 13500 4a79 D903     		.2byte	0x3d9
 13501 4a7b 2C000000 		.4byte	0x2c
 13502 4a7f 88030000 		.4byte	.LLST112
 13503 4a83 47       		.uleb128 0x47
 13504 4a84 B8020000 		.4byte	.Ldebug_ranges0+0x2b8
 13505 4a88 3D       		.uleb128 0x3d
 13506 4a89 B70B0000 		.4byte	.LASF1021
 13507 4a8d 01       		.byte	0x1
 13508 4a8e DA03     		.2byte	0x3da
 13509 4a90 B8510000 		.4byte	0x51b8
 13510 4a94 9B030000 		.4byte	.LLST113
 13511 4a98 48       		.uleb128 0x48
 13512 4a99 C4640000 		.4byte	0x64c4
 13513 4a9d 0A020000 		.4byte	.LBB256
 13514 4aa1 0E000000 		.4byte	.LBE256-.LBB256
ARM GAS  /tmp/ccjQGkoy.s 			page 239


 13515 4aa5 01       		.byte	0x1
 13516 4aa6 DE03     		.2byte	0x3de
 13517 4aa8 4F4B0000 		.4byte	0x4b4f
 13518 4aac 49       		.uleb128 0x49
 13519 4aad 0A020000 		.4byte	.LBB257
 13520 4ab1 0E000000 		.4byte	.LBE257-.LBB257
 13521 4ab5 4A       		.uleb128 0x4a
 13522 4ab6 D4640000 		.4byte	0x64d4
 13523 4aba 4B       		.uleb128 0x4b
 13524 4abb 1C650000 		.4byte	0x651c
 13525 4abf 0A020000 		.4byte	.LBB258
 13526 4ac3 06000000 		.4byte	.LBE258-.LBB258
 13527 4ac7 06       		.byte	0x6
 13528 4ac8 FA       		.byte	0xfa
 13529 4ac9 F94A0000 		.4byte	0x4af9
 13530 4acd 4C       		.uleb128 0x4c
 13531 4ace 2E650000 		.4byte	0x652e
 13532 4ad2 0A020000 		.4byte	.LBB259
 13533 4ad6 06000000 		.4byte	.LBE259-.LBB259
 13534 4ada 2E       		.byte	0x2e
 13535 4adb 5C01     		.2byte	0x15c
 13536 4add 4C       		.uleb128 0x4c
 13537 4ade 37650000 		.4byte	0x6537
 13538 4ae2 0A020000 		.4byte	.LBB260
 13539 4ae6 06000000 		.4byte	.LBE260-.LBB260
 13540 4aea 15       		.byte	0x15
 13541 4aeb BF01     		.2byte	0x1bf
 13542 4aed 4D       		.uleb128 0x4d
 13543 4aee 44650000 		.4byte	0x6544
 13544 4af2 E2030000 		.4byte	.LLST114
 13545 4af6 00       		.byte	0
 13546 4af7 00       		.byte	0
 13547 4af8 00       		.byte	0
 13548 4af9 4E       		.uleb128 0x4e
 13549 4afa E0640000 		.4byte	0x64e0
 13550 4afe 10020000 		.4byte	.LBB262
 13551 4b02 04000000 		.4byte	.LBE262-.LBB262
 13552 4b06 06       		.byte	0x6
 13553 4b07 FB       		.byte	0xfb
 13554 4b08 4F       		.uleb128 0x4f
 13555 4b09 EC640000 		.4byte	0x64ec
 13556 4b0d 14020000 		.4byte	.LBB264
 13557 4b11 04000000 		.4byte	.LBE264-.LBB264
 13558 4b15 06       		.byte	0x6
 13559 4b16 FC       		.byte	0xfc
 13560 4b17 49       		.uleb128 0x49
 13561 4b18 14020000 		.4byte	.LBB265
 13562 4b1c 04000000 		.4byte	.LBE265-.LBB265
 13563 4b20 4C       		.uleb128 0x4c
 13564 4b21 25650000 		.4byte	0x6525
 13565 4b25 14020000 		.4byte	.LBB266
 13566 4b29 04000000 		.4byte	.LBE266-.LBB266
 13567 4b2d 2E       		.byte	0x2e
 13568 4b2e 7301     		.2byte	0x173
 13569 4b30 4C       		.uleb128 0x4c
 13570 4b31 37650000 		.4byte	0x6537
 13571 4b35 14020000 		.4byte	.LBB267
ARM GAS  /tmp/ccjQGkoy.s 			page 240


 13572 4b39 04000000 		.4byte	.LBE267-.LBB267
 13573 4b3d 15       		.byte	0x15
 13574 4b3e CD01     		.2byte	0x1cd
 13575 4b40 4D       		.uleb128 0x4d
 13576 4b41 44650000 		.4byte	0x6544
 13577 4b45 F7030000 		.4byte	.LLST115
 13578 4b49 00       		.byte	0
 13579 4b4a 00       		.byte	0
 13580 4b4b 00       		.byte	0
 13581 4b4c 00       		.byte	0
 13582 4b4d 00       		.byte	0
 13583 4b4e 00       		.byte	0
 13584 4b4f 40       		.uleb128 0x40
 13585 4b50 22020000 		.4byte	.LVL290
 13586 4b54 7A680000 		.4byte	0x687a
 13587 4b58 6B4B0000 		.4byte	0x4b6b
 13588 4b5c 3B       		.uleb128 0x3b
 13589 4b5d 01       		.uleb128 0x1
 13590 4b5e 50       		.byte	0x50
 13591 4b5f 03       		.uleb128 0x3
 13592 4b60 91       		.byte	0x91
 13593 4b61 E87B     		.sleb128 -536
 13594 4b63 3B       		.uleb128 0x3b
 13595 4b64 01       		.uleb128 0x1
 13596 4b65 51       		.byte	0x51
 13597 4b66 03       		.uleb128 0x3
 13598 4b67 91       		.byte	0x91
 13599 4b68 D87B     		.sleb128 -552
 13600 4b6a 00       		.byte	0
 13601 4b6b 40       		.uleb128 0x40
 13602 4b6c 36020000 		.4byte	.LVL291
 13603 4b70 85680000 		.4byte	0x6885
 13604 4b74 874B0000 		.4byte	0x4b87
 13605 4b78 3B       		.uleb128 0x3b
 13606 4b79 01       		.uleb128 0x1
 13607 4b7a 50       		.byte	0x50
 13608 4b7b 03       		.uleb128 0x3
 13609 4b7c 91       		.byte	0x91
 13610 4b7d E87B     		.sleb128 -536
 13611 4b7f 3B       		.uleb128 0x3b
 13612 4b80 01       		.uleb128 0x1
 13613 4b81 51       		.byte	0x51
 13614 4b82 03       		.uleb128 0x3
 13615 4b83 91       		.byte	0x91
 13616 4b84 D87B     		.sleb128 -552
 13617 4b86 00       		.byte	0
 13618 4b87 41       		.uleb128 0x41
 13619 4b88 52020000 		.4byte	.LVL292
 13620 4b8c 85680000 		.4byte	0x6885
 13621 4b90 3B       		.uleb128 0x3b
 13622 4b91 01       		.uleb128 0x1
 13623 4b92 50       		.byte	0x50
 13624 4b93 03       		.uleb128 0x3
 13625 4b94 91       		.byte	0x91
 13626 4b95 E87B     		.sleb128 -536
 13627 4b97 3B       		.uleb128 0x3b
 13628 4b98 01       		.uleb128 0x1
ARM GAS  /tmp/ccjQGkoy.s 			page 241


 13629 4b99 51       		.byte	0x51
 13630 4b9a 03       		.uleb128 0x3
 13631 4b9b 91       		.byte	0x91
 13632 4b9c D87B     		.sleb128 -552
 13633 4b9e 00       		.byte	0
 13634 4b9f 00       		.byte	0
 13635 4ba0 00       		.byte	0
 13636 4ba1 42       		.uleb128 0x42
 13637 4ba2 BE010000 		.4byte	.LBB273
 13638 4ba6 22000000 		.4byte	.LBE273-.LBB273
 13639 4baa D34B0000 		.4byte	0x4bd3
 13640 4bae 46       		.uleb128 0x46
 13641 4baf 6900     		.ascii	"i\000"
 13642 4bb1 01       		.byte	0x1
 13643 4bb2 E803     		.2byte	0x3e8
 13644 4bb4 2C000000 		.4byte	0x2c
 13645 4bb8 0B040000 		.4byte	.LLST116
 13646 4bbc 47       		.uleb128 0x47
 13647 4bbd D8020000 		.4byte	.Ldebug_ranges0+0x2d8
 13648 4bc1 3D       		.uleb128 0x3d
 13649 4bc2 EE000000 		.4byte	.LASF1022
 13650 4bc6 01       		.byte	0x1
 13651 4bc7 E903     		.2byte	0x3e9
 13652 4bc9 BE510000 		.4byte	0x51be
 13653 4bcd 1E040000 		.4byte	.LLST117
 13654 4bd1 00       		.byte	0
 13655 4bd2 00       		.byte	0
 13656 4bd3 3C       		.uleb128 0x3c
 13657 4bd4 60020000 		.4byte	.Ldebug_ranges0+0x260
 13658 4bd8 EC4C0000 		.4byte	0x4cec
 13659 4bdc 46       		.uleb128 0x46
 13660 4bdd 6900     		.ascii	"i\000"
 13661 4bdf 01       		.byte	0x1
 13662 4be0 F603     		.2byte	0x3f6
 13663 4be2 2C000000 		.4byte	0x2c
 13664 4be6 65040000 		.4byte	.LLST108
 13665 4bea 47       		.uleb128 0x47
 13666 4beb 78020000 		.4byte	.Ldebug_ranges0+0x278
 13667 4bef 3D       		.uleb128 0x3d
 13668 4bf0 F9000000 		.4byte	.LASF1023
 13669 4bf4 01       		.byte	0x1
 13670 4bf5 F703     		.2byte	0x3f7
 13671 4bf7 C4510000 		.4byte	0x51c4
 13672 4bfb 78040000 		.4byte	.LLST109
 13673 4bff 48       		.uleb128 0x48
 13674 4c00 C4640000 		.4byte	0x64c4
 13675 4c04 7C010000 		.4byte	.LBB238
 13676 4c08 0E000000 		.4byte	.LBE238-.LBB238
 13677 4c0c 01       		.byte	0x1
 13678 4c0d FB03     		.2byte	0x3fb
 13679 4c0f B64C0000 		.4byte	0x4cb6
 13680 4c13 49       		.uleb128 0x49
 13681 4c14 7C010000 		.4byte	.LBB239
 13682 4c18 0E000000 		.4byte	.LBE239-.LBB239
 13683 4c1c 4A       		.uleb128 0x4a
 13684 4c1d D4640000 		.4byte	0x64d4
 13685 4c21 4B       		.uleb128 0x4b
ARM GAS  /tmp/ccjQGkoy.s 			page 242


 13686 4c22 1C650000 		.4byte	0x651c
 13687 4c26 7C010000 		.4byte	.LBB240
 13688 4c2a 06000000 		.4byte	.LBE240-.LBB240
 13689 4c2e 06       		.byte	0x6
 13690 4c2f FA       		.byte	0xfa
 13691 4c30 604C0000 		.4byte	0x4c60
 13692 4c34 4C       		.uleb128 0x4c
 13693 4c35 2E650000 		.4byte	0x652e
 13694 4c39 7C010000 		.4byte	.LBB241
 13695 4c3d 06000000 		.4byte	.LBE241-.LBB241
 13696 4c41 2E       		.byte	0x2e
 13697 4c42 5C01     		.2byte	0x15c
 13698 4c44 4C       		.uleb128 0x4c
 13699 4c45 37650000 		.4byte	0x6537
 13700 4c49 7C010000 		.4byte	.LBB242
 13701 4c4d 06000000 		.4byte	.LBE242-.LBB242
 13702 4c51 15       		.byte	0x15
 13703 4c52 BF01     		.2byte	0x1bf
 13704 4c54 4D       		.uleb128 0x4d
 13705 4c55 44650000 		.4byte	0x6544
 13706 4c59 BF040000 		.4byte	.LLST110
 13707 4c5d 00       		.byte	0
 13708 4c5e 00       		.byte	0
 13709 4c5f 00       		.byte	0
 13710 4c60 4E       		.uleb128 0x4e
 13711 4c61 E0640000 		.4byte	0x64e0
 13712 4c65 82010000 		.4byte	.LBB244
 13713 4c69 04000000 		.4byte	.LBE244-.LBB244
 13714 4c6d 06       		.byte	0x6
 13715 4c6e FB       		.byte	0xfb
 13716 4c6f 4F       		.uleb128 0x4f
 13717 4c70 EC640000 		.4byte	0x64ec
 13718 4c74 86010000 		.4byte	.LBB246
 13719 4c78 04000000 		.4byte	.LBE246-.LBB246
 13720 4c7c 06       		.byte	0x6
 13721 4c7d FC       		.byte	0xfc
 13722 4c7e 49       		.uleb128 0x49
 13723 4c7f 86010000 		.4byte	.LBB247
 13724 4c83 04000000 		.4byte	.LBE247-.LBB247
 13725 4c87 4C       		.uleb128 0x4c
 13726 4c88 25650000 		.4byte	0x6525
 13727 4c8c 86010000 		.4byte	.LBB248
 13728 4c90 04000000 		.4byte	.LBE248-.LBB248
 13729 4c94 2E       		.byte	0x2e
 13730 4c95 7301     		.2byte	0x173
 13731 4c97 4C       		.uleb128 0x4c
 13732 4c98 37650000 		.4byte	0x6537
 13733 4c9c 86010000 		.4byte	.LBB249
 13734 4ca0 04000000 		.4byte	.LBE249-.LBB249
 13735 4ca4 15       		.byte	0x15
 13736 4ca5 CD01     		.2byte	0x1cd
 13737 4ca7 4D       		.uleb128 0x4d
 13738 4ca8 44650000 		.4byte	0x6544
 13739 4cac D4040000 		.4byte	.LLST111
 13740 4cb0 00       		.byte	0
 13741 4cb1 00       		.byte	0
 13742 4cb2 00       		.byte	0
ARM GAS  /tmp/ccjQGkoy.s 			page 243


 13743 4cb3 00       		.byte	0
 13744 4cb4 00       		.byte	0
 13745 4cb5 00       		.byte	0
 13746 4cb6 40       		.uleb128 0x40
 13747 4cb7 94010000 		.4byte	.LVL274
 13748 4cbb 7A680000 		.4byte	0x687a
 13749 4cbf D24C0000 		.4byte	0x4cd2
 13750 4cc3 3B       		.uleb128 0x3b
 13751 4cc4 01       		.uleb128 0x1
 13752 4cc5 50       		.byte	0x50
 13753 4cc6 03       		.uleb128 0x3
 13754 4cc7 91       		.byte	0x91
 13755 4cc8 E87B     		.sleb128 -536
 13756 4cca 3B       		.uleb128 0x3b
 13757 4ccb 01       		.uleb128 0x1
 13758 4ccc 51       		.byte	0x51
 13759 4ccd 03       		.uleb128 0x3
 13760 4cce 91       		.byte	0x91
 13761 4ccf D87B     		.sleb128 -552
 13762 4cd1 00       		.byte	0
 13763 4cd2 41       		.uleb128 0x41
 13764 4cd3 AC010000 		.4byte	.LVL275
 13765 4cd7 7A680000 		.4byte	0x687a
 13766 4cdb 3B       		.uleb128 0x3b
 13767 4cdc 01       		.uleb128 0x1
 13768 4cdd 50       		.byte	0x50
 13769 4cde 03       		.uleb128 0x3
 13770 4cdf 91       		.byte	0x91
 13771 4ce0 E87B     		.sleb128 -536
 13772 4ce2 3B       		.uleb128 0x3b
 13773 4ce3 01       		.uleb128 0x1
 13774 4ce4 51       		.byte	0x51
 13775 4ce5 03       		.uleb128 0x3
 13776 4ce6 91       		.byte	0x91
 13777 4ce7 D87B     		.sleb128 -552
 13778 4ce9 00       		.byte	0
 13779 4cea 00       		.byte	0
 13780 4ceb 00       		.byte	0
 13781 4cec 3C       		.uleb128 0x3c
 13782 4ced 28020000 		.4byte	.Ldebug_ranges0+0x228
 13783 4cf1 3D4E0000 		.4byte	0x4e3d
 13784 4cf5 46       		.uleb128 0x46
 13785 4cf6 6900     		.ascii	"i\000"
 13786 4cf8 01       		.byte	0x1
 13787 4cf9 0404     		.2byte	0x404
 13788 4cfb 2C000000 		.4byte	0x2c
 13789 4cff E8040000 		.4byte	.LLST104
 13790 4d03 47       		.uleb128 0x47
 13791 4d04 40020000 		.4byte	.Ldebug_ranges0+0x240
 13792 4d08 3D       		.uleb128 0x3d
 13793 4d09 04010000 		.4byte	.LASF1024
 13794 4d0d 01       		.byte	0x1
 13795 4d0e 0504     		.2byte	0x405
 13796 4d10 CA510000 		.4byte	0x51ca
 13797 4d14 FB040000 		.4byte	.LLST105
 13798 4d18 48       		.uleb128 0x48
 13799 4d19 C4640000 		.4byte	0x64c4
ARM GAS  /tmp/ccjQGkoy.s 			page 244


 13800 4d1d E6000000 		.4byte	.LBB221
 13801 4d21 0E000000 		.4byte	.LBE221-.LBB221
 13802 4d25 01       		.byte	0x1
 13803 4d26 0904     		.2byte	0x409
 13804 4d28 CF4D0000 		.4byte	0x4dcf
 13805 4d2c 49       		.uleb128 0x49
 13806 4d2d E6000000 		.4byte	.LBB222
 13807 4d31 0E000000 		.4byte	.LBE222-.LBB222
 13808 4d35 4A       		.uleb128 0x4a
 13809 4d36 D4640000 		.4byte	0x64d4
 13810 4d3a 4B       		.uleb128 0x4b
 13811 4d3b 1C650000 		.4byte	0x651c
 13812 4d3f E6000000 		.4byte	.LBB223
 13813 4d43 06000000 		.4byte	.LBE223-.LBB223
 13814 4d47 06       		.byte	0x6
 13815 4d48 FA       		.byte	0xfa
 13816 4d49 794D0000 		.4byte	0x4d79
 13817 4d4d 4C       		.uleb128 0x4c
 13818 4d4e 2E650000 		.4byte	0x652e
 13819 4d52 E6000000 		.4byte	.LBB224
 13820 4d56 06000000 		.4byte	.LBE224-.LBB224
 13821 4d5a 2E       		.byte	0x2e
 13822 4d5b 5C01     		.2byte	0x15c
 13823 4d5d 4C       		.uleb128 0x4c
 13824 4d5e 37650000 		.4byte	0x6537
 13825 4d62 E6000000 		.4byte	.LBB225
 13826 4d66 06000000 		.4byte	.LBE225-.LBB225
 13827 4d6a 15       		.byte	0x15
 13828 4d6b BF01     		.2byte	0x1bf
 13829 4d6d 4D       		.uleb128 0x4d
 13830 4d6e 44650000 		.4byte	0x6544
 13831 4d72 42050000 		.4byte	.LLST106
 13832 4d76 00       		.byte	0
 13833 4d77 00       		.byte	0
 13834 4d78 00       		.byte	0
 13835 4d79 4E       		.uleb128 0x4e
 13836 4d7a E0640000 		.4byte	0x64e0
 13837 4d7e EC000000 		.4byte	.LBB227
 13838 4d82 04000000 		.4byte	.LBE227-.LBB227
 13839 4d86 06       		.byte	0x6
 13840 4d87 FB       		.byte	0xfb
 13841 4d88 4F       		.uleb128 0x4f
 13842 4d89 EC640000 		.4byte	0x64ec
 13843 4d8d F0000000 		.4byte	.LBB229
 13844 4d91 04000000 		.4byte	.LBE229-.LBB229
 13845 4d95 06       		.byte	0x6
 13846 4d96 FC       		.byte	0xfc
 13847 4d97 49       		.uleb128 0x49
 13848 4d98 F0000000 		.4byte	.LBB230
 13849 4d9c 04000000 		.4byte	.LBE230-.LBB230
 13850 4da0 4C       		.uleb128 0x4c
 13851 4da1 25650000 		.4byte	0x6525
 13852 4da5 F0000000 		.4byte	.LBB231
 13853 4da9 04000000 		.4byte	.LBE231-.LBB231
 13854 4dad 2E       		.byte	0x2e
 13855 4dae 7301     		.2byte	0x173
 13856 4db0 4C       		.uleb128 0x4c
ARM GAS  /tmp/ccjQGkoy.s 			page 245


 13857 4db1 37650000 		.4byte	0x6537
 13858 4db5 F0000000 		.4byte	.LBB232
 13859 4db9 04000000 		.4byte	.LBE232-.LBB232
 13860 4dbd 15       		.byte	0x15
 13861 4dbe CD01     		.2byte	0x1cd
 13862 4dc0 4D       		.uleb128 0x4d
 13863 4dc1 44650000 		.4byte	0x6544
 13864 4dc5 57050000 		.4byte	.LLST107
 13865 4dc9 00       		.byte	0
 13866 4dca 00       		.byte	0
 13867 4dcb 00       		.byte	0
 13868 4dcc 00       		.byte	0
 13869 4dcd 00       		.byte	0
 13870 4dce 00       		.byte	0
 13871 4dcf 40       		.uleb128 0x40
 13872 4dd0 FE000000 		.4byte	.LVL262
 13873 4dd4 85680000 		.4byte	0x6885
 13874 4dd8 EB4D0000 		.4byte	0x4deb
 13875 4ddc 3B       		.uleb128 0x3b
 13876 4ddd 01       		.uleb128 0x1
 13877 4dde 50       		.byte	0x50
 13878 4ddf 03       		.uleb128 0x3
 13879 4de0 91       		.byte	0x91
 13880 4de1 E87B     		.sleb128 -536
 13881 4de3 3B       		.uleb128 0x3b
 13882 4de4 01       		.uleb128 0x1
 13883 4de5 51       		.byte	0x51
 13884 4de6 03       		.uleb128 0x3
 13885 4de7 91       		.byte	0x91
 13886 4de8 D87B     		.sleb128 -552
 13887 4dea 00       		.byte	0
 13888 4deb 40       		.uleb128 0x40
 13889 4dec 1A010000 		.4byte	.LVL263
 13890 4df0 85680000 		.4byte	0x6885
 13891 4df4 074E0000 		.4byte	0x4e07
 13892 4df8 3B       		.uleb128 0x3b
 13893 4df9 01       		.uleb128 0x1
 13894 4dfa 50       		.byte	0x50
 13895 4dfb 03       		.uleb128 0x3
 13896 4dfc 91       		.byte	0x91
 13897 4dfd E87B     		.sleb128 -536
 13898 4dff 3B       		.uleb128 0x3b
 13899 4e00 01       		.uleb128 0x1
 13900 4e01 51       		.byte	0x51
 13901 4e02 03       		.uleb128 0x3
 13902 4e03 91       		.byte	0x91
 13903 4e04 D87B     		.sleb128 -552
 13904 4e06 00       		.byte	0
 13905 4e07 40       		.uleb128 0x40
 13906 4e08 32010000 		.4byte	.LVL264
 13907 4e0c 85680000 		.4byte	0x6885
 13908 4e10 234E0000 		.4byte	0x4e23
 13909 4e14 3B       		.uleb128 0x3b
 13910 4e15 01       		.uleb128 0x1
 13911 4e16 50       		.byte	0x50
 13912 4e17 03       		.uleb128 0x3
 13913 4e18 91       		.byte	0x91
ARM GAS  /tmp/ccjQGkoy.s 			page 246


 13914 4e19 E87B     		.sleb128 -536
 13915 4e1b 3B       		.uleb128 0x3b
 13916 4e1c 01       		.uleb128 0x1
 13917 4e1d 51       		.byte	0x51
 13918 4e1e 03       		.uleb128 0x3
 13919 4e1f 91       		.byte	0x91
 13920 4e20 D87B     		.sleb128 -552
 13921 4e22 00       		.byte	0
 13922 4e23 41       		.uleb128 0x41
 13923 4e24 4A010000 		.4byte	.LVL265
 13924 4e28 85680000 		.4byte	0x6885
 13925 4e2c 3B       		.uleb128 0x3b
 13926 4e2d 01       		.uleb128 0x1
 13927 4e2e 50       		.byte	0x50
 13928 4e2f 03       		.uleb128 0x3
 13929 4e30 91       		.byte	0x91
 13930 4e31 E87B     		.sleb128 -536
 13931 4e33 3B       		.uleb128 0x3b
 13932 4e34 01       		.uleb128 0x1
 13933 4e35 51       		.byte	0x51
 13934 4e36 03       		.uleb128 0x3
 13935 4e37 91       		.byte	0x91
 13936 4e38 D87B     		.sleb128 -552
 13937 4e3a 00       		.byte	0
 13938 4e3b 00       		.byte	0
 13939 4e3c 00       		.byte	0
 13940 4e3d 3F       		.uleb128 0x3f
 13941 4e3e 86000000 		.4byte	.LVL253
 13942 4e42 13680000 		.4byte	0x6813
 13943 4e46 40       		.uleb128 0x40
 13944 4e47 CC040000 		.4byte	.LVL329
 13945 4e4b 90680000 		.4byte	0x6890
 13946 4e4f 5B4E0000 		.4byte	0x4e5b
 13947 4e53 3B       		.uleb128 0x3b
 13948 4e54 01       		.uleb128 0x1
 13949 4e55 51       		.byte	0x51
 13950 4e56 03       		.uleb128 0x3
 13951 4e57 40       		.byte	0x40
 13952 4e58 49       		.byte	0x49
 13953 4e59 24       		.byte	0x24
 13954 4e5a 00       		.byte	0
 13955 4e5b 40       		.uleb128 0x40
 13956 4e5c FA040000 		.4byte	.LVL332
 13957 4e60 43680000 		.4byte	0x6843
 13958 4e64 7F4E0000 		.4byte	0x4e7f
 13959 4e68 3B       		.uleb128 0x3b
 13960 4e69 01       		.uleb128 0x1
 13961 4e6a 50       		.byte	0x50
 13962 4e6b 03       		.uleb128 0x3
 13963 4e6c 91       		.byte	0x91
 13964 4e6d E87B     		.sleb128 -536
 13965 4e6f 3B       		.uleb128 0x3b
 13966 4e70 02       		.uleb128 0x2
 13967 4e71 90       		.byte	0x90
 13968 4e72 40       		.uleb128 0x40
 13969 4e73 03       		.uleb128 0x3
 13970 4e74 F5       		.byte	0xf5
ARM GAS  /tmp/ccjQGkoy.s 			page 247


 13971 4e75 50       		.uleb128 0x50
 13972 4e76 25       		.uleb128 0x25
 13973 4e77 3B       		.uleb128 0x3b
 13974 4e78 01       		.uleb128 0x1
 13975 4e79 51       		.byte	0x51
 13976 4e7a 03       		.uleb128 0x3
 13977 4e7b 91       		.byte	0x91
 13978 4e7c D87B     		.sleb128 -552
 13979 4e7e 00       		.byte	0
 13980 4e7f 3F       		.uleb128 0x3f
 13981 4e80 FE040000 		.4byte	.LVL333
 13982 4e84 9B680000 		.4byte	0x689b
 13983 4e88 3F       		.uleb128 0x3f
 13984 4e89 02050000 		.4byte	.LVL334
 13985 4e8d A6680000 		.4byte	0x68a6
 13986 4e91 40       		.uleb128 0x40
 13987 4e92 14050000 		.4byte	.LVL335
 13988 4e96 43680000 		.4byte	0x6843
 13989 4e9a B54E0000 		.4byte	0x4eb5
 13990 4e9e 3B       		.uleb128 0x3b
 13991 4e9f 01       		.uleb128 0x1
 13992 4ea0 50       		.byte	0x50
 13993 4ea1 03       		.uleb128 0x3
 13994 4ea2 91       		.byte	0x91
 13995 4ea3 E87B     		.sleb128 -536
 13996 4ea5 3B       		.uleb128 0x3b
 13997 4ea6 02       		.uleb128 0x2
 13998 4ea7 90       		.byte	0x90
 13999 4ea8 40       		.uleb128 0x40
 14000 4ea9 03       		.uleb128 0x3
 14001 4eaa F5       		.byte	0xf5
 14002 4eab 51       		.uleb128 0x51
 14003 4eac 25       		.uleb128 0x25
 14004 4ead 3B       		.uleb128 0x3b
 14005 4eae 01       		.uleb128 0x1
 14006 4eaf 51       		.byte	0x51
 14007 4eb0 03       		.uleb128 0x3
 14008 4eb1 91       		.byte	0x91
 14009 4eb2 D87B     		.sleb128 -552
 14010 4eb4 00       		.byte	0
 14011 4eb5 3F       		.uleb128 0x3f
 14012 4eb6 18050000 		.4byte	.LVL336
 14013 4eba B1680000 		.4byte	0x68b1
 14014 4ebe 3F       		.uleb128 0x3f
 14015 4ebf 1C050000 		.4byte	.LVL337
 14016 4ec3 A6680000 		.4byte	0x68a6
 14017 4ec7 40       		.uleb128 0x40
 14018 4ec8 2E050000 		.4byte	.LVL338
 14019 4ecc 43680000 		.4byte	0x6843
 14020 4ed0 EB4E0000 		.4byte	0x4eeb
 14021 4ed4 3B       		.uleb128 0x3b
 14022 4ed5 01       		.uleb128 0x1
 14023 4ed6 50       		.byte	0x50
 14024 4ed7 03       		.uleb128 0x3
 14025 4ed8 91       		.byte	0x91
 14026 4ed9 E87B     		.sleb128 -536
 14027 4edb 3B       		.uleb128 0x3b
ARM GAS  /tmp/ccjQGkoy.s 			page 248


 14028 4edc 02       		.uleb128 0x2
 14029 4edd 90       		.byte	0x90
 14030 4ede 40       		.uleb128 0x40
 14031 4edf 03       		.uleb128 0x3
 14032 4ee0 F5       		.byte	0xf5
 14033 4ee1 50       		.uleb128 0x50
 14034 4ee2 25       		.uleb128 0x25
 14035 4ee3 3B       		.uleb128 0x3b
 14036 4ee4 01       		.uleb128 0x1
 14037 4ee5 51       		.byte	0x51
 14038 4ee6 03       		.uleb128 0x3
 14039 4ee7 91       		.byte	0x91
 14040 4ee8 D87B     		.sleb128 -552
 14041 4eea 00       		.byte	0
 14042 4eeb 3F       		.uleb128 0x3f
 14043 4eec 32050000 		.4byte	.LVL339
 14044 4ef0 BC680000 		.4byte	0x68bc
 14045 4ef4 3F       		.uleb128 0x3f
 14046 4ef5 36050000 		.4byte	.LVL340
 14047 4ef9 A6680000 		.4byte	0x68a6
 14048 4efd 40       		.uleb128 0x40
 14049 4efe 48050000 		.4byte	.LVL341
 14050 4f02 43680000 		.4byte	0x6843
 14051 4f06 214F0000 		.4byte	0x4f21
 14052 4f0a 3B       		.uleb128 0x3b
 14053 4f0b 01       		.uleb128 0x1
 14054 4f0c 50       		.byte	0x50
 14055 4f0d 03       		.uleb128 0x3
 14056 4f0e 91       		.byte	0x91
 14057 4f0f E87B     		.sleb128 -536
 14058 4f11 3B       		.uleb128 0x3b
 14059 4f12 02       		.uleb128 0x2
 14060 4f13 90       		.byte	0x90
 14061 4f14 40       		.uleb128 0x40
 14062 4f15 03       		.uleb128 0x3
 14063 4f16 F5       		.byte	0xf5
 14064 4f17 50       		.uleb128 0x50
 14065 4f18 25       		.uleb128 0x25
 14066 4f19 3B       		.uleb128 0x3b
 14067 4f1a 01       		.uleb128 0x1
 14068 4f1b 51       		.byte	0x51
 14069 4f1c 03       		.uleb128 0x3
 14070 4f1d 91       		.byte	0x91
 14071 4f1e D87B     		.sleb128 -552
 14072 4f20 00       		.byte	0
 14073 4f21 3F       		.uleb128 0x3f
 14074 4f22 4C050000 		.4byte	.LVL342
 14075 4f26 C7680000 		.4byte	0x68c7
 14076 4f2a 3F       		.uleb128 0x3f
 14077 4f2b 50050000 		.4byte	.LVL343
 14078 4f2f A6680000 		.4byte	0x68a6
 14079 4f33 40       		.uleb128 0x40
 14080 4f34 88050000 		.4byte	.LVL345
 14081 4f38 D2680000 		.4byte	0x68d2
 14082 4f3c 4D4F0000 		.4byte	0x4f4d
 14083 4f40 3B       		.uleb128 0x3b
 14084 4f41 01       		.uleb128 0x1
ARM GAS  /tmp/ccjQGkoy.s 			page 249


 14085 4f42 50       		.byte	0x50
 14086 4f43 03       		.uleb128 0x3
 14087 4f44 91       		.byte	0x91
 14088 4f45 EA7B     		.sleb128 -534
 14089 4f47 3B       		.uleb128 0x3b
 14090 4f48 01       		.uleb128 0x1
 14091 4f49 52       		.byte	0x52
 14092 4f4a 01       		.uleb128 0x1
 14093 4f4b 30       		.byte	0x30
 14094 4f4c 00       		.byte	0
 14095 4f4d 40       		.uleb128 0x40
 14096 4f4e CA050000 		.4byte	.LVL350
 14097 4f52 DD680000 		.4byte	0x68dd
 14098 4f56 6C4F0000 		.4byte	0x4f6c
 14099 4f5a 3B       		.uleb128 0x3b
 14100 4f5b 01       		.uleb128 0x1
 14101 4f5c 50       		.byte	0x50
 14102 4f5d 05       		.uleb128 0x5
 14103 4f5e 03       		.byte	0x3
 14104 4f5f 00000000 		.4byte	.LANCHOR18
 14105 4f63 3B       		.uleb128 0x3b
 14106 4f64 01       		.uleb128 0x1
 14107 4f65 51       		.byte	0x51
 14108 4f66 04       		.uleb128 0x4
 14109 4f67 91       		.byte	0x91
 14110 4f68 D47B     		.sleb128 -556
 14111 4f6a 06       		.byte	0x6
 14112 4f6b 00       		.byte	0
 14113 4f6c 40       		.uleb128 0x40
 14114 4f6d F8050000 		.4byte	.LVL351
 14115 4f71 D2680000 		.4byte	0x68d2
 14116 4f75 904F0000 		.4byte	0x4f90
 14117 4f79 3B       		.uleb128 0x3b
 14118 4f7a 01       		.uleb128 0x1
 14119 4f7b 50       		.byte	0x50
 14120 4f7c 05       		.uleb128 0x5
 14121 4f7d 03       		.byte	0x3
 14122 4f7e 00000000 		.4byte	.LANCHOR18
 14123 4f82 3B       		.uleb128 0x3b
 14124 4f83 01       		.uleb128 0x1
 14125 4f84 51       		.byte	0x51
 14126 4f85 04       		.uleb128 0x4
 14127 4f86 91       		.byte	0x91
 14128 4f87 D47B     		.sleb128 -556
 14129 4f89 06       		.byte	0x6
 14130 4f8a 3B       		.uleb128 0x3b
 14131 4f8b 01       		.uleb128 0x1
 14132 4f8c 52       		.byte	0x52
 14133 4f8d 01       		.uleb128 0x1
 14134 4f8e 30       		.byte	0x30
 14135 4f8f 00       		.byte	0
 14136 4f90 40       		.uleb128 0x40
 14137 4f91 20060000 		.4byte	.LVL354
 14138 4f95 1E680000 		.4byte	0x681e
 14139 4f99 A54F0000 		.4byte	0x4fa5
 14140 4f9d 3B       		.uleb128 0x3b
 14141 4f9e 01       		.uleb128 0x1
ARM GAS  /tmp/ccjQGkoy.s 			page 250


 14142 4f9f 51       		.byte	0x51
 14143 4fa0 03       		.uleb128 0x3
 14144 4fa1 91       		.byte	0x91
 14145 4fa2 EA7B     		.sleb128 -534
 14146 4fa4 00       		.byte	0
 14147 4fa5 40       		.uleb128 0x40
 14148 4fa6 32060000 		.4byte	.LVL355
 14149 4faa 43680000 		.4byte	0x6843
 14150 4fae CD4F0000 		.4byte	0x4fcd
 14151 4fb2 3B       		.uleb128 0x3b
 14152 4fb3 01       		.uleb128 0x1
 14153 4fb4 50       		.byte	0x50
 14154 4fb5 03       		.uleb128 0x3
 14155 4fb6 91       		.byte	0x91
 14156 4fb7 E87B     		.sleb128 -536
 14157 4fb9 3B       		.uleb128 0x3b
 14158 4fba 02       		.uleb128 0x2
 14159 4fbb 90       		.byte	0x90
 14160 4fbc 40       		.uleb128 0x40
 14161 4fbd 07       		.uleb128 0x7
 14162 4fbe F4       		.byte	0xf4
 14163 4fbf 25       		.uleb128 0x25
 14164 4fc0 04       		.byte	0x4
 14165 4fc1 0000803F 		.4byte	0x3f800000
 14166 4fc5 3B       		.uleb128 0x3b
 14167 4fc6 01       		.uleb128 0x1
 14168 4fc7 51       		.byte	0x51
 14169 4fc8 03       		.uleb128 0x3
 14170 4fc9 91       		.byte	0x91
 14171 4fca D87B     		.sleb128 -552
 14172 4fcc 00       		.byte	0
 14173 4fcd 3F       		.uleb128 0x3f
 14174 4fce 36060000 		.4byte	.LVL356
 14175 4fd2 E8680000 		.4byte	0x68e8
 14176 4fd6 3F       		.uleb128 0x3f
 14177 4fd7 3A060000 		.4byte	.LVL357
 14178 4fdb A6680000 		.4byte	0x68a6
 14179 4fdf 40       		.uleb128 0x40
 14180 4fe0 56060000 		.4byte	.LVL358
 14181 4fe4 1E680000 		.4byte	0x681e
 14182 4fe8 F44F0000 		.4byte	0x4ff4
 14183 4fec 3B       		.uleb128 0x3b
 14184 4fed 01       		.uleb128 0x1
 14185 4fee 51       		.byte	0x51
 14186 4fef 03       		.uleb128 0x3
 14187 4ff0 91       		.byte	0x91
 14188 4ff1 E97B     		.sleb128 -535
 14189 4ff3 00       		.byte	0
 14190 4ff4 40       		.uleb128 0x40
 14191 4ff5 68060000 		.4byte	.LVL359
 14192 4ff9 43680000 		.4byte	0x6843
 14193 4ffd 18500000 		.4byte	0x5018
 14194 5001 3B       		.uleb128 0x3b
 14195 5002 01       		.uleb128 0x1
 14196 5003 50       		.byte	0x50
 14197 5004 03       		.uleb128 0x3
 14198 5005 91       		.byte	0x91
ARM GAS  /tmp/ccjQGkoy.s 			page 251


 14199 5006 E87B     		.sleb128 -536
 14200 5008 3B       		.uleb128 0x3b
 14201 5009 02       		.uleb128 0x2
 14202 500a 90       		.byte	0x90
 14203 500b 40       		.uleb128 0x40
 14204 500c 03       		.uleb128 0x3
 14205 500d F5       		.byte	0xf5
 14206 500e 54       		.uleb128 0x54
 14207 500f 25       		.uleb128 0x25
 14208 5010 3B       		.uleb128 0x3b
 14209 5011 01       		.uleb128 0x1
 14210 5012 51       		.byte	0x51
 14211 5013 03       		.uleb128 0x3
 14212 5014 91       		.byte	0x91
 14213 5015 D87B     		.sleb128 -552
 14214 5017 00       		.byte	0
 14215 5018 3F       		.uleb128 0x3f
 14216 5019 6C060000 		.4byte	.LVL360
 14217 501d F3680000 		.4byte	0x68f3
 14218 5021 3F       		.uleb128 0x3f
 14219 5022 70060000 		.4byte	.LVL361
 14220 5026 A6680000 		.4byte	0x68a6
 14221 502a 40       		.uleb128 0x40
 14222 502b 82060000 		.4byte	.LVL362
 14223 502f 43680000 		.4byte	0x6843
 14224 5033 4E500000 		.4byte	0x504e
 14225 5037 3B       		.uleb128 0x3b
 14226 5038 01       		.uleb128 0x1
 14227 5039 50       		.byte	0x50
 14228 503a 03       		.uleb128 0x3
 14229 503b 91       		.byte	0x91
 14230 503c E87B     		.sleb128 -536
 14231 503e 3B       		.uleb128 0x3b
 14232 503f 02       		.uleb128 0x2
 14233 5040 90       		.byte	0x90
 14234 5041 40       		.uleb128 0x40
 14235 5042 03       		.uleb128 0x3
 14236 5043 F5       		.byte	0xf5
 14237 5044 51       		.uleb128 0x51
 14238 5045 25       		.uleb128 0x25
 14239 5046 3B       		.uleb128 0x3b
 14240 5047 01       		.uleb128 0x1
 14241 5048 51       		.byte	0x51
 14242 5049 03       		.uleb128 0x3
 14243 504a 91       		.byte	0x91
 14244 504b D87B     		.sleb128 -552
 14245 504d 00       		.byte	0
 14246 504e 3F       		.uleb128 0x3f
 14247 504f 86060000 		.4byte	.LVL363
 14248 5053 FE680000 		.4byte	0x68fe
 14249 5057 3F       		.uleb128 0x3f
 14250 5058 8A060000 		.4byte	.LVL364
 14251 505c A6680000 		.4byte	0x68a6
 14252 5060 40       		.uleb128 0x40
 14253 5061 9C060000 		.4byte	.LVL365
 14254 5065 43680000 		.4byte	0x6843
 14255 5069 84500000 		.4byte	0x5084
ARM GAS  /tmp/ccjQGkoy.s 			page 252


 14256 506d 3B       		.uleb128 0x3b
 14257 506e 01       		.uleb128 0x1
 14258 506f 50       		.byte	0x50
 14259 5070 03       		.uleb128 0x3
 14260 5071 91       		.byte	0x91
 14261 5072 E87B     		.sleb128 -536
 14262 5074 3B       		.uleb128 0x3b
 14263 5075 02       		.uleb128 0x2
 14264 5076 90       		.byte	0x90
 14265 5077 40       		.uleb128 0x40
 14266 5078 03       		.uleb128 0x3
 14267 5079 F5       		.byte	0xf5
 14268 507a 50       		.uleb128 0x50
 14269 507b 25       		.uleb128 0x25
 14270 507c 3B       		.uleb128 0x3b
 14271 507d 01       		.uleb128 0x1
 14272 507e 51       		.byte	0x51
 14273 507f 03       		.uleb128 0x3
 14274 5080 91       		.byte	0x91
 14275 5081 D87B     		.sleb128 -552
 14276 5083 00       		.byte	0
 14277 5084 3F       		.uleb128 0x3f
 14278 5085 A0060000 		.4byte	.LVL366
 14279 5089 09690000 		.4byte	0x6909
 14280 508d 3F       		.uleb128 0x3f
 14281 508e A4060000 		.4byte	.LVL367
 14282 5092 A6680000 		.4byte	0x68a6
 14283 5096 40       		.uleb128 0x40
 14284 5097 B6060000 		.4byte	.LVL368
 14285 509b 43680000 		.4byte	0x6843
 14286 509f BA500000 		.4byte	0x50ba
 14287 50a3 3B       		.uleb128 0x3b
 14288 50a4 01       		.uleb128 0x1
 14289 50a5 50       		.byte	0x50
 14290 50a6 03       		.uleb128 0x3
 14291 50a7 91       		.byte	0x91
 14292 50a8 E87B     		.sleb128 -536
 14293 50aa 3B       		.uleb128 0x3b
 14294 50ab 02       		.uleb128 0x2
 14295 50ac 90       		.byte	0x90
 14296 50ad 40       		.uleb128 0x40
 14297 50ae 03       		.uleb128 0x3
 14298 50af F5       		.byte	0xf5
 14299 50b0 51       		.uleb128 0x51
 14300 50b1 25       		.uleb128 0x25
 14301 50b2 3B       		.uleb128 0x3b
 14302 50b3 01       		.uleb128 0x1
 14303 50b4 51       		.byte	0x51
 14304 50b5 03       		.uleb128 0x3
 14305 50b6 91       		.byte	0x91
 14306 50b7 D87B     		.sleb128 -552
 14307 50b9 00       		.byte	0
 14308 50ba 3F       		.uleb128 0x3f
 14309 50bb BA060000 		.4byte	.LVL369
 14310 50bf 14690000 		.4byte	0x6914
 14311 50c3 3F       		.uleb128 0x3f
 14312 50c4 BE060000 		.4byte	.LVL370
ARM GAS  /tmp/ccjQGkoy.s 			page 253


 14313 50c8 A6680000 		.4byte	0x68a6
 14314 50cc 40       		.uleb128 0x40
 14315 50cd D4060000 		.4byte	.LVL372
 14316 50d1 D2680000 		.4byte	0x68d2
 14317 50d5 EA500000 		.4byte	0x50ea
 14318 50d9 3B       		.uleb128 0x3b
 14319 50da 01       		.uleb128 0x1
 14320 50db 50       		.byte	0x50
 14321 50dc 03       		.uleb128 0x3
 14322 50dd 91       		.byte	0x91
 14323 50de EA7B     		.sleb128 -534
 14324 50e0 3B       		.uleb128 0x3b
 14325 50e1 01       		.uleb128 0x1
 14326 50e2 52       		.byte	0x52
 14327 50e3 05       		.uleb128 0x5
 14328 50e4 03       		.byte	0x3
 14329 50e5 00000000 		.4byte	send_packet_wrapper
 14330 50e9 00       		.byte	0
 14331 50ea 40       		.uleb128 0x40
 14332 50eb E8060000 		.4byte	.LVL374
 14333 50ef 1F690000 		.4byte	0x691f
 14334 50f3 FF500000 		.4byte	0x50ff
 14335 50f7 3B       		.uleb128 0x3b
 14336 50f8 01       		.uleb128 0x1
 14337 50f9 50       		.byte	0x50
 14338 50fa 03       		.uleb128 0x3
 14339 50fb 91       		.byte	0x91
 14340 50fc EA7B     		.sleb128 -534
 14341 50fe 00       		.byte	0
 14342 50ff 40       		.uleb128 0x40
 14343 5100 20070000 		.4byte	.LVL381
 14344 5104 D2680000 		.4byte	0x68d2
 14345 5108 27510000 		.4byte	0x5127
 14346 510c 3B       		.uleb128 0x3b
 14347 510d 01       		.uleb128 0x1
 14348 510e 50       		.byte	0x50
 14349 510f 05       		.uleb128 0x5
 14350 5110 03       		.byte	0x3
 14351 5111 00000000 		.4byte	.LANCHOR18
 14352 5115 3B       		.uleb128 0x3b
 14353 5116 01       		.uleb128 0x1
 14354 5117 51       		.byte	0x51
 14355 5118 04       		.uleb128 0x4
 14356 5119 91       		.byte	0x91
 14357 511a D47B     		.sleb128 -556
 14358 511c 06       		.byte	0x6
 14359 511d 3B       		.uleb128 0x3b
 14360 511e 01       		.uleb128 0x1
 14361 511f 52       		.byte	0x52
 14362 5120 05       		.uleb128 0x5
 14363 5121 03       		.byte	0x3
 14364 5122 00000000 		.4byte	send_packet_wrapper
 14365 5126 00       		.byte	0
 14366 5127 41       		.uleb128 0x41
 14367 5128 2A070000 		.4byte	.LVL382
 14368 512c 1F690000 		.4byte	0x691f
 14369 5130 3B       		.uleb128 0x3b
ARM GAS  /tmp/ccjQGkoy.s 			page 254


 14370 5131 01       		.uleb128 0x1
 14371 5132 50       		.byte	0x50
 14372 5133 05       		.uleb128 0x5
 14373 5134 03       		.byte	0x3
 14374 5135 00000000 		.4byte	.LANCHOR18
 14375 5139 3B       		.uleb128 0x3b
 14376 513a 01       		.uleb128 0x1
 14377 513b 51       		.byte	0x51
 14378 513c 04       		.uleb128 0x4
 14379 513d 91       		.byte	0x91
 14380 513e D47B     		.sleb128 -556
 14381 5140 06       		.byte	0x6
 14382 5141 00       		.byte	0
 14383 5142 00       		.byte	0
 14384 5143 50       		.uleb128 0x50
 14385 5144 7E020000 		.4byte	.LVL294
 14386 5148 3B       		.uleb128 0x3b
 14387 5149 01       		.uleb128 0x1
 14388 514a 51       		.byte	0x51
 14389 514b 03       		.uleb128 0x3
 14390 514c 91       		.byte	0x91
 14391 514d E87B     		.sleb128 -536
 14392 514f 00       		.byte	0
 14393 5150 00       		.byte	0
 14394 5151 40       		.uleb128 0x40
 14395 5152 40000000 		.4byte	.LVL246
 14396 5156 2A690000 		.4byte	0x692a
 14397 515a 64510000 		.4byte	0x5164
 14398 515e 3B       		.uleb128 0x3b
 14399 515f 01       		.uleb128 0x1
 14400 5160 50       		.byte	0x50
 14401 5161 01       		.uleb128 0x1
 14402 5162 31       		.byte	0x31
 14403 5163 00       		.byte	0
 14404 5164 3F       		.uleb128 0x3f
 14405 5165 44000000 		.4byte	.LVL247
 14406 5169 13680000 		.4byte	0x6813
 14407 516d 3F       		.uleb128 0x3f
 14408 516e 56000000 		.4byte	.LVL248
 14409 5172 8E530000 		.4byte	0x538e
 14410 5176 00       		.byte	0
 14411 5177 43       		.uleb128 0x43
 14412 5178 94640000 		.4byte	0x6494
 14413 517c 04000000 		.4byte	.LBB212
 14414 5180 B0010000 		.4byte	.Ldebug_ranges0+0x1b0
 14415 5184 01       		.byte	0x1
 14416 5185 DE02     		.2byte	0x2de
 14417 5187 4D       		.uleb128 0x4d
 14418 5188 A0640000 		.4byte	0x64a0
 14419 518c 6B050000 		.4byte	.LLST100
 14420 5190 00       		.byte	0
 14421 5191 00       		.byte	0
 14422 5192 06       		.uleb128 0x6
 14423 5193 04       		.byte	0x4
 14424 5194 0F2D0000 		.4byte	0x2d0f
 14425 5198 0B       		.uleb128 0xb
 14426 5199 44090000 		.4byte	0x944
ARM GAS  /tmp/ccjQGkoy.s 			page 255


 14427 519d A8510000 		.4byte	0x51a8
 14428 51a1 0C       		.uleb128 0xc
 14429 51a2 48000000 		.4byte	0x48
 14430 51a6 00       		.byte	0
 14431 51a7 00       		.byte	0
 14432 51a8 0B       		.uleb128 0xb
 14433 51a9 39090000 		.4byte	0x939
 14434 51ad B8510000 		.4byte	0x51b8
 14435 51b1 0C       		.uleb128 0xc
 14436 51b2 48000000 		.4byte	0x48
 14437 51b6 00       		.byte	0
 14438 51b7 00       		.byte	0
 14439 51b8 06       		.uleb128 0x6
 14440 51b9 04       		.byte	0x4
 14441 51ba 1B270000 		.4byte	0x271b
 14442 51be 06       		.uleb128 0x6
 14443 51bf 04       		.byte	0x4
 14444 51c0 64270000 		.4byte	0x2764
 14445 51c4 06       		.uleb128 0x6
 14446 51c5 04       		.byte	0x4
 14447 51c6 AD270000 		.4byte	0x27ad
 14448 51ca 06       		.uleb128 0x6
 14449 51cb 04       		.byte	0x4
 14450 51cc 10280000 		.4byte	0x2810
 14451 51d0 37       		.uleb128 0x37
 14452 51d1 0D390000 		.4byte	.LASF1025
 14453 51d5 01       		.byte	0x1
 14454 51d6 B602     		.2byte	0x2b6
 14455 51d8 00000000 		.4byte	.LFB288
 14456 51dc E8000000 		.4byte	.LFE288-.LFB288
 14457 51e0 01       		.uleb128 0x1
 14458 51e1 9C       		.byte	0x9c
 14459 51e2 8E530000 		.4byte	0x538e
 14460 51e6 39       		.uleb128 0x39
 14461 51e7 61726700 		.ascii	"arg\000"
 14462 51eb 01       		.byte	0x1
 14463 51ec B602     		.2byte	0x2b6
 14464 51ee 72010000 		.4byte	0x172
 14465 51f2 83050000 		.4byte	.LLST0
 14466 51f6 45       		.uleb128 0x45
 14467 51f7 656C00   		.ascii	"el\000"
 14468 51fa 01       		.byte	0x1
 14469 51fb BA02     		.2byte	0x2ba
 14470 51fd 9A150000 		.4byte	0x159a
 14471 5201 03       		.uleb128 0x3
 14472 5202 91       		.byte	0x91
 14473 5203 B07F     		.sleb128 -80
 14474 5205 3E       		.uleb128 0x3e
 14475 5206 5F130000 		.4byte	.LASF1016
 14476 520a 01       		.byte	0x1
 14477 520b BB02     		.2byte	0x2bb
 14478 520d 0F2D0000 		.4byte	0x2d0f
 14479 5211 02       		.uleb128 0x2
 14480 5212 91       		.byte	0x91
 14481 5213 44       		.sleb128 -60
 14482 5214 3C       		.uleb128 0x3c
 14483 5215 30000000 		.4byte	.Ldebug_ranges0+0x30
ARM GAS  /tmp/ccjQGkoy.s 			page 256


 14484 5219 DC520000 		.4byte	0x52dc
 14485 521d 3D       		.uleb128 0x3d
 14486 521e 9C1D0000 		.4byte	.LASF1026
 14487 5222 01       		.byte	0x1
 14488 5223 C702     		.2byte	0x2c7
 14489 5225 DC090000 		.4byte	0x9dc
 14490 5229 A4050000 		.4byte	.LLST7
 14491 522d 40       		.uleb128 0x40
 14492 522e 3A000000 		.4byte	.LVL5
 14493 5232 35690000 		.4byte	0x6935
 14494 5236 40520000 		.4byte	0x5240
 14495 523a 3B       		.uleb128 0x3b
 14496 523b 01       		.uleb128 0x1
 14497 523c 50       		.byte	0x50
 14498 523d 01       		.uleb128 0x1
 14499 523e 31       		.byte	0x31
 14500 523f 00       		.byte	0
 14501 5240 40       		.uleb128 0x40
 14502 5241 44000000 		.4byte	.LVL6
 14503 5245 40690000 		.4byte	0x6940
 14504 5249 5A520000 		.4byte	0x525a
 14505 524d 3B       		.uleb128 0x3b
 14506 524e 01       		.uleb128 0x1
 14507 524f 50       		.byte	0x50
 14508 5250 02       		.uleb128 0x2
 14509 5251 09       		.byte	0x9
 14510 5252 FF       		.byte	0xff
 14511 5253 3B       		.uleb128 0x3b
 14512 5254 01       		.uleb128 0x1
 14513 5255 51       		.byte	0x51
 14514 5256 02       		.uleb128 0x2
 14515 5257 08       		.byte	0x8
 14516 5258 64       		.byte	0x64
 14517 5259 00       		.byte	0
 14518 525a 40       		.uleb128 0x40
 14519 525b 54000000 		.4byte	.LVL7
 14520 525f 4B690000 		.4byte	0x694b
 14521 5263 80520000 		.4byte	0x5280
 14522 5267 3B       		.uleb128 0x3b
 14523 5268 01       		.uleb128 0x1
 14524 5269 50       		.byte	0x50
 14525 526a 02       		.uleb128 0x2
 14526 526b 77       		.byte	0x77
 14527 526c 00       		.sleb128 0
 14528 526d 3B       		.uleb128 0x3b
 14529 526e 01       		.uleb128 0x1
 14530 526f 51       		.byte	0x51
 14531 5270 02       		.uleb128 0x2
 14532 5271 74       		.byte	0x74
 14533 5272 00       		.sleb128 0
 14534 5273 3B       		.uleb128 0x3b
 14535 5274 01       		.uleb128 0x1
 14536 5275 52       		.byte	0x52
 14537 5276 02       		.uleb128 0x2
 14538 5277 91       		.byte	0x91
 14539 5278 44       		.sleb128 -60
 14540 5279 3B       		.uleb128 0x3b
ARM GAS  /tmp/ccjQGkoy.s 			page 257


 14541 527a 01       		.uleb128 0x1
 14542 527b 53       		.byte	0x53
 14543 527c 02       		.uleb128 0x2
 14544 527d 74       		.byte	0x74
 14545 527e 00       		.sleb128 0
 14546 527f 00       		.byte	0
 14547 5280 40       		.uleb128 0x40
 14548 5281 68000000 		.4byte	.LVL9
 14549 5285 56690000 		.4byte	0x6956
 14550 5289 94520000 		.4byte	0x5294
 14551 528d 3B       		.uleb128 0x3b
 14552 528e 01       		.uleb128 0x1
 14553 528f 50       		.byte	0x50
 14554 5290 02       		.uleb128 0x2
 14555 5291 76       		.byte	0x76
 14556 5292 00       		.sleb128 0
 14557 5293 00       		.byte	0
 14558 5294 40       		.uleb128 0x40
 14559 5295 94000000 		.4byte	.LVL10
 14560 5299 61690000 		.4byte	0x6961
 14561 529d A8520000 		.4byte	0x52a8
 14562 52a1 3B       		.uleb128 0x3b
 14563 52a2 01       		.uleb128 0x1
 14564 52a3 50       		.byte	0x50
 14565 52a4 02       		.uleb128 0x2
 14566 52a5 76       		.byte	0x76
 14567 52a6 00       		.sleb128 0
 14568 52a7 00       		.byte	0
 14569 52a8 40       		.uleb128 0x40
 14570 52a9 9E000000 		.4byte	.LVL11
 14571 52ad 90680000 		.4byte	0x6890
 14572 52b1 BB520000 		.4byte	0x52bb
 14573 52b5 3B       		.uleb128 0x3b
 14574 52b6 01       		.uleb128 0x1
 14575 52b7 51       		.byte	0x51
 14576 52b8 01       		.uleb128 0x1
 14577 52b9 31       		.byte	0x31
 14578 52ba 00       		.byte	0
 14579 52bb 41       		.uleb128 0x41
 14580 52bc AA000000 		.4byte	.LVL12
 14581 52c0 4B690000 		.4byte	0x694b
 14582 52c4 3B       		.uleb128 0x3b
 14583 52c5 01       		.uleb128 0x1
 14584 52c6 50       		.byte	0x50
 14585 52c7 02       		.uleb128 0x2
 14586 52c8 77       		.byte	0x77
 14587 52c9 00       		.sleb128 0
 14588 52ca 3B       		.uleb128 0x3b
 14589 52cb 01       		.uleb128 0x1
 14590 52cc 51       		.byte	0x51
 14591 52cd 01       		.uleb128 0x1
 14592 52ce 30       		.byte	0x30
 14593 52cf 3B       		.uleb128 0x3b
 14594 52d0 01       		.uleb128 0x1
 14595 52d1 52       		.byte	0x52
 14596 52d2 02       		.uleb128 0x2
 14597 52d3 91       		.byte	0x91
ARM GAS  /tmp/ccjQGkoy.s 			page 258


 14598 52d4 44       		.sleb128 -60
 14599 52d5 3B       		.uleb128 0x3b
 14600 52d6 01       		.uleb128 0x1
 14601 52d7 53       		.byte	0x53
 14602 52d8 01       		.uleb128 0x1
 14603 52d9 30       		.byte	0x30
 14604 52da 00       		.byte	0
 14605 52db 00       		.byte	0
 14606 52dc 51       		.uleb128 0x51
 14607 52dd 94640000 		.4byte	0x6494
 14608 52e1 04000000 		.4byte	.LBB137
 14609 52e5 00000000 		.4byte	.Ldebug_ranges0+0
 14610 52e9 01       		.byte	0x1
 14611 52ea B802     		.2byte	0x2b8
 14612 52ec FA520000 		.4byte	0x52fa
 14613 52f0 4D       		.uleb128 0x4d
 14614 52f1 A0640000 		.4byte	0x64a0
 14615 52f5 CE050000 		.4byte	.LLST1
 14616 52f9 00       		.byte	0
 14617 52fa 51       		.uleb128 0x51
 14618 52fb 32640000 		.4byte	0x6432
 14619 52ff 0E000000 		.4byte	.LBB140
 14620 5303 18000000 		.4byte	.Ldebug_ranges0+0x18
 14621 5307 01       		.byte	0x1
 14622 5308 BD02     		.2byte	0x2bd
 14623 530a 6D530000 		.4byte	0x536d
 14624 530e 52       		.uleb128 0x52
 14625 530f 54640000 		.4byte	0x6454
 14626 5313 00       		.byte	0
 14627 5314 4D       		.uleb128 0x4d
 14628 5315 49640000 		.4byte	0x6449
 14629 5319 E6050000 		.4byte	.LLST2
 14630 531d 4D       		.uleb128 0x4d
 14631 531e 3E640000 		.4byte	0x643e
 14632 5322 15060000 		.4byte	.LLST3
 14633 5326 53       		.uleb128 0x53
 14634 5327 66640000 		.4byte	0x6466
 14635 532b 0E000000 		.4byte	.LBB141
 14636 532f 18000000 		.4byte	.Ldebug_ranges0+0x18
 14637 5333 03       		.byte	0x3
 14638 5334 D5       		.byte	0xd5
 14639 5335 4D       		.uleb128 0x4d
 14640 5336 88640000 		.4byte	0x6488
 14641 533a 33060000 		.4byte	.LLST4
 14642 533e 4D       		.uleb128 0x4d
 14643 533f 7D640000 		.4byte	0x647d
 14644 5343 47060000 		.4byte	.LLST5
 14645 5347 4D       		.uleb128 0x4d
 14646 5348 72640000 		.4byte	0x6472
 14647 534c 5A060000 		.4byte	.LLST6
 14648 5350 41       		.uleb128 0x41
 14649 5351 20000000 		.4byte	.LVL4
 14650 5355 6C690000 		.4byte	0x696c
 14651 5359 3B       		.uleb128 0x3b
 14652 535a 01       		.uleb128 0x1
 14653 535b 51       		.byte	0x51
 14654 535c 02       		.uleb128 0x2
ARM GAS  /tmp/ccjQGkoy.s 			page 259


 14655 535d 7D       		.byte	0x7d
 14656 535e 00       		.sleb128 0
 14657 535f 3B       		.uleb128 0x3b
 14658 5360 01       		.uleb128 0x1
 14659 5361 52       		.byte	0x52
 14660 5362 01       		.uleb128 0x1
 14661 5363 31       		.byte	0x31
 14662 5364 3B       		.uleb128 0x3b
 14663 5365 01       		.uleb128 0x1
 14664 5366 53       		.byte	0x53
 14665 5367 02       		.uleb128 0x2
 14666 5368 09       		.byte	0x9
 14667 5369 FF       		.byte	0xff
 14668 536a 00       		.byte	0
 14669 536b 00       		.byte	0
 14670 536c 00       		.byte	0
 14671 536d 54       		.uleb128 0x54
 14672 536e AC640000 		.4byte	0x64ac
 14673 5372 28000000 		.4byte	.LBB148
 14674 5376 48000000 		.4byte	.Ldebug_ranges0+0x48
 14675 537a 01       		.byte	0x1
 14676 537b BF02     		.2byte	0x2bf
 14677 537d 41       		.uleb128 0x41
 14678 537e C2000000 		.4byte	.LVL15
 14679 5382 77690000 		.4byte	0x6977
 14680 5386 3B       		.uleb128 0x3b
 14681 5387 01       		.uleb128 0x1
 14682 5388 51       		.byte	0x51
 14683 5389 02       		.uleb128 0x2
 14684 538a 7D       		.byte	0x7d
 14685 538b 00       		.sleb128 0
 14686 538c 00       		.byte	0
 14687 538d 00       		.byte	0
 14688 538e 55       		.uleb128 0x55
 14689 538f EE1A0000 		.4byte	.LASF1027
 14690 5393 01       		.byte	0x1
 14691 5394 A002     		.2byte	0x2a0
 14692 5396 92510000 		.4byte	0x5192
 14693 539a 00000000 		.4byte	.LFB287
 14694 539e 4C000000 		.4byte	.LFE287-.LFB287
 14695 53a2 01       		.uleb128 0x1
 14696 53a3 9C       		.byte	0x9c
 14697 53a4 04540000 		.4byte	0x5404
 14698 53a8 42       		.uleb128 0x42
 14699 53a9 14000000 		.4byte	.LBB211
 14700 53ad 1A000000 		.4byte	.LBE211-.LBB211
 14701 53b1 D9530000 		.4byte	0x53d9
 14702 53b5 46       		.uleb128 0x46
 14703 53b6 72657300 		.ascii	"res\000"
 14704 53ba 01       		.byte	0x1
 14705 53bb A402     		.2byte	0x2a4
 14706 53bd 92510000 		.4byte	0x5192
 14707 53c1 6D060000 		.4byte	.LLST93
 14708 53c5 41       		.uleb128 0x41
 14709 53c6 2E000000 		.4byte	.LVL241
 14710 53ca 61690000 		.4byte	0x6961
 14711 53ce 3B       		.uleb128 0x3b
ARM GAS  /tmp/ccjQGkoy.s 			page 260


 14712 53cf 01       		.uleb128 0x1
 14713 53d0 50       		.byte	0x50
 14714 53d1 05       		.uleb128 0x5
 14715 53d2 03       		.byte	0x3
 14716 53d3 00000000 		.4byte	.LANCHOR0
 14717 53d7 00       		.byte	0
 14718 53d8 00       		.byte	0
 14719 53d9 40       		.uleb128 0x40
 14720 53da 08000000 		.4byte	.LVL239
 14721 53de 56690000 		.4byte	0x6956
 14722 53e2 F0530000 		.4byte	0x53f0
 14723 53e6 3B       		.uleb128 0x3b
 14724 53e7 01       		.uleb128 0x1
 14725 53e8 50       		.byte	0x50
 14726 53e9 05       		.uleb128 0x5
 14727 53ea 03       		.byte	0x3
 14728 53eb 00000000 		.4byte	.LANCHOR0
 14729 53ef 00       		.byte	0
 14730 53f0 41       		.uleb128 0x41
 14731 53f1 38000000 		.4byte	.LVL242
 14732 53f5 61690000 		.4byte	0x6961
 14733 53f9 3B       		.uleb128 0x3b
 14734 53fa 01       		.uleb128 0x1
 14735 53fb 50       		.byte	0x50
 14736 53fc 05       		.uleb128 0x5
 14737 53fd 03       		.byte	0x3
 14738 53fe 00000000 		.4byte	.LANCHOR0
 14739 5402 00       		.byte	0
 14740 5403 00       		.byte	0
 14741 5404 55       		.uleb128 0x55
 14742 5405 B9230000 		.4byte	.LASF1028
 14743 5409 01       		.byte	0x1
 14744 540a 9602     		.2byte	0x296
 14745 540c CA510000 		.4byte	0x51ca
 14746 5410 00000000 		.4byte	.LFB286
 14747 5414 34000000 		.4byte	.LFE286-.LFB286
 14748 5418 01       		.uleb128 0x1
 14749 5419 9C       		.byte	0x9c
 14750 541a 42540000 		.4byte	0x5442
 14751 541e 39       		.uleb128 0x39
 14752 541f 696400   		.ascii	"id\000"
 14753 5422 01       		.byte	0x1
 14754 5423 9602     		.2byte	0x296
 14755 5425 2C000000 		.4byte	0x2c
 14756 5429 80060000 		.4byte	.LLST91
 14757 542d 47       		.uleb128 0x47
 14758 542e 98010000 		.4byte	.Ldebug_ranges0+0x198
 14759 5432 46       		.uleb128 0x46
 14760 5433 6900     		.ascii	"i\000"
 14761 5435 01       		.byte	0x1
 14762 5436 9702     		.2byte	0x297
 14763 5438 2C000000 		.4byte	0x2c
 14764 543c BA060000 		.4byte	.LLST92
 14765 5440 00       		.byte	0
 14766 5441 00       		.byte	0
 14767 5442 55       		.uleb128 0x55
 14768 5443 86210000 		.4byte	.LASF1029
ARM GAS  /tmp/ccjQGkoy.s 			page 261


 14769 5447 01       		.byte	0x1
 14770 5448 8502     		.2byte	0x285
 14771 544a CA510000 		.4byte	0x51ca
 14772 544e 00000000 		.4byte	.LFB285
 14773 5452 18000000 		.4byte	.LFE285-.LFB285
 14774 5456 01       		.uleb128 0x1
 14775 5457 9C       		.byte	0x9c
 14776 5458 6D540000 		.4byte	0x546d
 14777 545c 38       		.uleb128 0x38
 14778 545d D1070000 		.4byte	.LASF1030
 14779 5461 01       		.byte	0x1
 14780 5462 8502     		.2byte	0x285
 14781 5464 2C000000 		.4byte	0x2c
 14782 5468 D9060000 		.4byte	.LLST90
 14783 546c 00       		.byte	0
 14784 546d 55       		.uleb128 0x55
 14785 546e C0150000 		.4byte	.LASF1031
 14786 5472 01       		.byte	0x1
 14787 5473 7202     		.2byte	0x272
 14788 5475 C4510000 		.4byte	0x51c4
 14789 5479 00000000 		.4byte	.LFB284
 14790 547d 28000000 		.4byte	.LFE284-.LFB284
 14791 5481 01       		.uleb128 0x1
 14792 5482 9C       		.byte	0x9c
 14793 5483 AB540000 		.4byte	0x54ab
 14794 5487 39       		.uleb128 0x39
 14795 5488 696400   		.ascii	"id\000"
 14796 548b 01       		.byte	0x1
 14797 548c 7202     		.2byte	0x272
 14798 548e 2C000000 		.4byte	0x2c
 14799 5492 FA060000 		.4byte	.LLST88
 14800 5496 47       		.uleb128 0x47
 14801 5497 80010000 		.4byte	.Ldebug_ranges0+0x180
 14802 549b 46       		.uleb128 0x46
 14803 549c 6900     		.ascii	"i\000"
 14804 549e 01       		.byte	0x1
 14805 549f 7302     		.2byte	0x273
 14806 54a1 2C000000 		.4byte	0x2c
 14807 54a5 34070000 		.4byte	.LLST89
 14808 54a9 00       		.byte	0
 14809 54aa 00       		.byte	0
 14810 54ab 55       		.uleb128 0x55
 14811 54ac 69150000 		.4byte	.LASF1032
 14812 54b0 01       		.byte	0x1
 14813 54b1 6102     		.2byte	0x261
 14814 54b3 C4510000 		.4byte	0x51c4
 14815 54b7 00000000 		.4byte	.LFB283
 14816 54bb 14000000 		.4byte	.LFE283-.LFB283
 14817 54bf 01       		.uleb128 0x1
 14818 54c0 9C       		.byte	0x9c
 14819 54c1 D6540000 		.4byte	0x54d6
 14820 54c5 38       		.uleb128 0x38
 14821 54c6 D1070000 		.4byte	.LASF1030
 14822 54ca 01       		.byte	0x1
 14823 54cb 6102     		.2byte	0x261
 14824 54cd 2C000000 		.4byte	0x2c
 14825 54d1 53070000 		.4byte	.LLST87
ARM GAS  /tmp/ccjQGkoy.s 			page 262


 14826 54d5 00       		.byte	0
 14827 54d6 55       		.uleb128 0x55
 14828 54d7 15350000 		.4byte	.LASF1033
 14829 54db 01       		.byte	0x1
 14830 54dc 4E02     		.2byte	0x24e
 14831 54de BE510000 		.4byte	0x51be
 14832 54e2 00000000 		.4byte	.LFB282
 14833 54e6 28000000 		.4byte	.LFE282-.LFB282
 14834 54ea 01       		.uleb128 0x1
 14835 54eb 9C       		.byte	0x9c
 14836 54ec 14550000 		.4byte	0x5514
 14837 54f0 39       		.uleb128 0x39
 14838 54f1 696400   		.ascii	"id\000"
 14839 54f4 01       		.byte	0x1
 14840 54f5 4E02     		.2byte	0x24e
 14841 54f7 2C000000 		.4byte	0x2c
 14842 54fb 74070000 		.4byte	.LLST85
 14843 54ff 47       		.uleb128 0x47
 14844 5500 68010000 		.4byte	.Ldebug_ranges0+0x168
 14845 5504 46       		.uleb128 0x46
 14846 5505 6900     		.ascii	"i\000"
 14847 5507 01       		.byte	0x1
 14848 5508 4F02     		.2byte	0x24f
 14849 550a 2C000000 		.4byte	0x2c
 14850 550e AE070000 		.4byte	.LLST86
 14851 5512 00       		.byte	0
 14852 5513 00       		.byte	0
 14853 5514 55       		.uleb128 0x55
 14854 5515 B8290000 		.4byte	.LASF1034
 14855 5519 01       		.byte	0x1
 14856 551a 3D02     		.2byte	0x23d
 14857 551c BE510000 		.4byte	0x51be
 14858 5520 00000000 		.4byte	.LFB281
 14859 5524 14000000 		.4byte	.LFE281-.LFB281
 14860 5528 01       		.uleb128 0x1
 14861 5529 9C       		.byte	0x9c
 14862 552a 3F550000 		.4byte	0x553f
 14863 552e 38       		.uleb128 0x38
 14864 552f D1070000 		.4byte	.LASF1030
 14865 5533 01       		.byte	0x1
 14866 5534 3D02     		.2byte	0x23d
 14867 5536 2C000000 		.4byte	0x2c
 14868 553a CD070000 		.4byte	.LLST84
 14869 553e 00       		.byte	0
 14870 553f 55       		.uleb128 0x55
 14871 5540 DF1F0000 		.4byte	.LASF1035
 14872 5544 01       		.byte	0x1
 14873 5545 2A02     		.2byte	0x22a
 14874 5547 B8510000 		.4byte	0x51b8
 14875 554b 00000000 		.4byte	.LFB280
 14876 554f 34000000 		.4byte	.LFE280-.LFB280
 14877 5553 01       		.uleb128 0x1
 14878 5554 9C       		.byte	0x9c
 14879 5555 7D550000 		.4byte	0x557d
 14880 5559 39       		.uleb128 0x39
 14881 555a 696400   		.ascii	"id\000"
 14882 555d 01       		.byte	0x1
ARM GAS  /tmp/ccjQGkoy.s 			page 263


 14883 555e 2A02     		.2byte	0x22a
 14884 5560 2C000000 		.4byte	0x2c
 14885 5564 EE070000 		.4byte	.LLST82
 14886 5568 47       		.uleb128 0x47
 14887 5569 50010000 		.4byte	.Ldebug_ranges0+0x150
 14888 556d 46       		.uleb128 0x46
 14889 556e 6900     		.ascii	"i\000"
 14890 5570 01       		.byte	0x1
 14891 5571 2B02     		.2byte	0x22b
 14892 5573 2C000000 		.4byte	0x2c
 14893 5577 28080000 		.4byte	.LLST83
 14894 557b 00       		.byte	0
 14895 557c 00       		.byte	0
 14896 557d 55       		.uleb128 0x55
 14897 557e 18380000 		.4byte	.LASF1036
 14898 5582 01       		.byte	0x1
 14899 5583 1902     		.2byte	0x219
 14900 5585 B8510000 		.4byte	0x51b8
 14901 5589 00000000 		.4byte	.LFB279
 14902 558d 18000000 		.4byte	.LFE279-.LFB279
 14903 5591 01       		.uleb128 0x1
 14904 5592 9C       		.byte	0x9c
 14905 5593 A8550000 		.4byte	0x55a8
 14906 5597 38       		.uleb128 0x38
 14907 5598 D1070000 		.4byte	.LASF1030
 14908 559c 01       		.byte	0x1
 14909 559d 1902     		.2byte	0x219
 14910 559f 2C000000 		.4byte	0x2c
 14911 55a3 47080000 		.4byte	.LLST81
 14912 55a7 00       		.byte	0
 14913 55a8 56       		.uleb128 0x56
 14914 55a9 A4000000 		.4byte	.LASF1143
 14915 55ad 01       		.byte	0x1
 14916 55ae 0C02     		.2byte	0x20c
 14917 55b0 00000000 		.4byte	.LFB278
 14918 55b4 0C000000 		.4byte	.LFE278-.LFB278
 14919 55b8 01       		.uleb128 0x1
 14920 55b9 9C       		.byte	0x9c
 14921 55ba 57       		.uleb128 0x57
 14922 55bb 00000000 		.4byte	.LASF1144
 14923 55bf 01       		.byte	0x1
 14924 55c0 0802     		.2byte	0x208
 14925 55c2 2C000000 		.4byte	0x2c
 14926 55c6 00000000 		.4byte	.LFB277
 14927 55ca 0C000000 		.4byte	.LFE277-.LFB277
 14928 55ce 01       		.uleb128 0x1
 14929 55cf 9C       		.byte	0x9c
 14930 55d0 55       		.uleb128 0x55
 14931 55d1 3C3B0000 		.4byte	.LASF1037
 14932 55d5 01       		.byte	0x1
 14933 55d6 0002     		.2byte	0x200
 14934 55d8 2C000000 		.4byte	0x2c
 14935 55dc 00000000 		.4byte	.LFB276
 14936 55e0 1C000000 		.4byte	.LFE276-.LFB276
 14937 55e4 01       		.uleb128 0x1
 14938 55e5 9C       		.byte	0x9c
 14939 55e6 FB550000 		.4byte	0x55fb
ARM GAS  /tmp/ccjQGkoy.s 			page 264


 14940 55ea 38       		.uleb128 0x38
 14941 55eb D1070000 		.4byte	.LASF1030
 14942 55ef 01       		.byte	0x1
 14943 55f0 0002     		.2byte	0x200
 14944 55f2 48000000 		.4byte	0x48
 14945 55f6 68080000 		.4byte	.LLST80
 14946 55fa 00       		.byte	0
 14947 55fb 58       		.uleb128 0x58
 14948 55fc 99220000 		.4byte	.LASF1039
 14949 5600 01       		.byte	0x1
 14950 5601 F501     		.2byte	0x1f5
 14951 5603 00000000 		.4byte	.LFB275
 14952 5607 58000000 		.4byte	.LFE275-.LFB275
 14953 560b 01       		.uleb128 0x1
 14954 560c 9C       		.byte	0x9c
 14955 560d DE560000 		.4byte	0x56de
 14956 5611 38       		.uleb128 0x38
 14957 5612 243A0000 		.4byte	.LASF601
 14958 5616 01       		.byte	0x1
 14959 5617 F501     		.2byte	0x1f5
 14960 5619 44090000 		.4byte	0x944
 14961 561d 89080000 		.4byte	.LLST76
 14962 5621 38       		.uleb128 0x38
 14963 5622 E7350000 		.4byte	.LASF1038
 14964 5626 01       		.byte	0x1
 14965 5627 F601     		.2byte	0x1f6
 14966 5629 0A1F0000 		.4byte	0x1f0a
 14967 562d AA080000 		.4byte	.LLST77
 14968 5631 38       		.uleb128 0x38
 14969 5632 DA2B0000 		.4byte	.LASF427
 14970 5636 01       		.byte	0x1
 14971 5637 F601     		.2byte	0x1f6
 14972 5639 25000000 		.4byte	0x25
 14973 563d CB080000 		.4byte	.LLST78
 14974 5641 38       		.uleb128 0x38
 14975 5642 CF190000 		.4byte	.LASF434
 14976 5646 01       		.byte	0x1
 14977 5647 F601     		.2byte	0x1f6
 14978 5649 25000000 		.4byte	0x25
 14979 564d EF080000 		.4byte	.LLST79
 14980 5651 3E       		.uleb128 0x3e
 14981 5652 28320000 		.4byte	.LASF1007
 14982 5656 01       		.byte	0x1
 14983 5657 F701     		.2byte	0x1f7
 14984 5659 6F090000 		.4byte	0x96f
 14985 565d 02       		.uleb128 0x2
 14986 565e 91       		.byte	0x91
 14987 565f 5C       		.sleb128 -36
 14988 5660 3E       		.uleb128 0x3e
 14989 5661 5F2A0000 		.4byte	.LASF1008
 14990 5665 01       		.byte	0x1
 14991 5666 F801     		.2byte	0x1f8
 14992 5668 211F0000 		.4byte	0x1f21
 14993 566c 02       		.uleb128 0x2
 14994 566d 91       		.byte	0x91
 14995 566e 60       		.sleb128 -32
 14996 566f 40       		.uleb128 0x40
ARM GAS  /tmp/ccjQGkoy.s 			page 265


 14997 5670 24000000 		.4byte	.LVL199
 14998 5674 82690000 		.4byte	0x6982
 14999 5678 9F560000 		.4byte	0x569f
 15000 567c 3B       		.uleb128 0x3b
 15001 567d 01       		.uleb128 0x1
 15002 567e 50       		.byte	0x50
 15003 567f 02       		.uleb128 0x2
 15004 5680 91       		.byte	0x91
 15005 5681 60       		.sleb128 -32
 15006 5682 3B       		.uleb128 0x3b
 15007 5683 02       		.uleb128 0x2
 15008 5684 90       		.byte	0x90
 15009 5685 40       		.uleb128 0x40
 15010 5686 05       		.uleb128 0x5
 15011 5687 F3       		.byte	0xf3
 15012 5688 03       		.uleb128 0x3
 15013 5689 F5       		.byte	0xf5
 15014 568a 40       		.uleb128 0x40
 15015 568b 25       		.uleb128 0x25
 15016 568c 3B       		.uleb128 0x3b
 15017 568d 02       		.uleb128 0x2
 15018 568e 90       		.byte	0x90
 15019 568f 41       		.uleb128 0x41
 15020 5690 07       		.uleb128 0x7
 15021 5691 F4       		.byte	0xf4
 15022 5692 25       		.uleb128 0x25
 15023 5693 04       		.byte	0x4
 15024 5694 00007A44 		.4byte	0x447a0000
 15025 5698 3B       		.uleb128 0x3b
 15026 5699 01       		.uleb128 0x1
 15027 569a 51       		.byte	0x51
 15028 569b 02       		.uleb128 0x2
 15029 569c 74       		.byte	0x74
 15030 569d 00       		.sleb128 0
 15031 569e 00       		.byte	0
 15032 569f 40       		.uleb128 0x40
 15033 56a0 34000000 		.4byte	.LVL200
 15034 56a4 82690000 		.4byte	0x6982
 15035 56a8 CD560000 		.4byte	0x56cd
 15036 56ac 3B       		.uleb128 0x3b
 15037 56ad 01       		.uleb128 0x1
 15038 56ae 50       		.byte	0x50
 15039 56af 02       		.uleb128 0x2
 15040 56b0 91       		.byte	0x91
 15041 56b1 60       		.sleb128 -32
 15042 56b2 3B       		.uleb128 0x3b
 15043 56b3 02       		.uleb128 0x2
 15044 56b4 90       		.byte	0x90
 15045 56b5 40       		.uleb128 0x40
 15046 56b6 03       		.uleb128 0x3
 15047 56b7 F5       		.byte	0xf5
 15048 56b8 50       		.uleb128 0x50
 15049 56b9 25       		.uleb128 0x25
 15050 56ba 3B       		.uleb128 0x3b
 15051 56bb 02       		.uleb128 0x2
 15052 56bc 90       		.byte	0x90
 15053 56bd 41       		.uleb128 0x41
ARM GAS  /tmp/ccjQGkoy.s 			page 266


 15054 56be 07       		.uleb128 0x7
 15055 56bf F4       		.byte	0xf4
 15056 56c0 25       		.uleb128 0x25
 15057 56c1 04       		.byte	0x4
 15058 56c2 00007A44 		.4byte	0x447a0000
 15059 56c6 3B       		.uleb128 0x3b
 15060 56c7 01       		.uleb128 0x1
 15061 56c8 51       		.byte	0x51
 15062 56c9 02       		.uleb128 0x2
 15063 56ca 74       		.byte	0x74
 15064 56cb 00       		.sleb128 0
 15065 56cc 00       		.byte	0
 15066 56cd 41       		.uleb128 0x41
 15067 56ce 4C000000 		.4byte	.LVL201
 15068 56d2 2A610000 		.4byte	0x612a
 15069 56d6 3B       		.uleb128 0x3b
 15070 56d7 01       		.uleb128 0x1
 15071 56d8 51       		.byte	0x51
 15072 56d9 02       		.uleb128 0x2
 15073 56da 91       		.byte	0x91
 15074 56db 60       		.sleb128 -32
 15075 56dc 00       		.byte	0
 15076 56dd 00       		.byte	0
 15077 56de 58       		.uleb128 0x58
 15078 56df 4A280000 		.4byte	.LASF1040
 15079 56e3 01       		.byte	0x1
 15080 56e4 DB01     		.2byte	0x1db
 15081 56e6 00000000 		.4byte	.LFB274
 15082 56ea 58000000 		.4byte	.LFE274-.LFB274
 15083 56ee 01       		.uleb128 0x1
 15084 56ef 9C       		.byte	0x9c
 15085 56f0 C1570000 		.4byte	0x57c1
 15086 56f4 38       		.uleb128 0x38
 15087 56f5 243A0000 		.4byte	.LASF601
 15088 56f9 01       		.byte	0x1
 15089 56fa DB01     		.2byte	0x1db
 15090 56fc 44090000 		.4byte	0x944
 15091 5700 1F090000 		.4byte	.LLST72
 15092 5704 38       		.uleb128 0x38
 15093 5705 E7350000 		.4byte	.LASF1038
 15094 5709 01       		.byte	0x1
 15095 570a DC01     		.2byte	0x1dc
 15096 570c 0A1F0000 		.4byte	0x1f0a
 15097 5710 40090000 		.4byte	.LLST73
 15098 5714 39       		.uleb128 0x39
 15099 5715 6D696E00 		.ascii	"min\000"
 15100 5719 01       		.byte	0x1
 15101 571a DC01     		.2byte	0x1dc
 15102 571c 25000000 		.4byte	0x25
 15103 5720 61090000 		.4byte	.LLST74
 15104 5724 39       		.uleb128 0x39
 15105 5725 6D617800 		.ascii	"max\000"
 15106 5729 01       		.byte	0x1
 15107 572a DC01     		.2byte	0x1dc
 15108 572c 25000000 		.4byte	0x25
 15109 5730 85090000 		.4byte	.LLST75
 15110 5734 3E       		.uleb128 0x3e
ARM GAS  /tmp/ccjQGkoy.s 			page 267


 15111 5735 28320000 		.4byte	.LASF1007
 15112 5739 01       		.byte	0x1
 15113 573a DD01     		.2byte	0x1dd
 15114 573c 6F090000 		.4byte	0x96f
 15115 5740 02       		.uleb128 0x2
 15116 5741 91       		.byte	0x91
 15117 5742 5C       		.sleb128 -36
 15118 5743 3E       		.uleb128 0x3e
 15119 5744 5F2A0000 		.4byte	.LASF1008
 15120 5748 01       		.byte	0x1
 15121 5749 DE01     		.2byte	0x1de
 15122 574b 211F0000 		.4byte	0x1f21
 15123 574f 02       		.uleb128 0x2
 15124 5750 91       		.byte	0x91
 15125 5751 60       		.sleb128 -32
 15126 5752 40       		.uleb128 0x40
 15127 5753 24000000 		.4byte	.LVL191
 15128 5757 82690000 		.4byte	0x6982
 15129 575b 82570000 		.4byte	0x5782
 15130 575f 3B       		.uleb128 0x3b
 15131 5760 01       		.uleb128 0x1
 15132 5761 50       		.byte	0x50
 15133 5762 02       		.uleb128 0x2
 15134 5763 91       		.byte	0x91
 15135 5764 60       		.sleb128 -32
 15136 5765 3B       		.uleb128 0x3b
 15137 5766 02       		.uleb128 0x2
 15138 5767 90       		.byte	0x90
 15139 5768 40       		.uleb128 0x40
 15140 5769 05       		.uleb128 0x5
 15141 576a F3       		.byte	0xf3
 15142 576b 03       		.uleb128 0x3
 15143 576c F5       		.byte	0xf5
 15144 576d 40       		.uleb128 0x40
 15145 576e 25       		.uleb128 0x25
 15146 576f 3B       		.uleb128 0x3b
 15147 5770 02       		.uleb128 0x2
 15148 5771 90       		.byte	0x90
 15149 5772 41       		.uleb128 0x41
 15150 5773 07       		.uleb128 0x7
 15151 5774 F4       		.byte	0xf4
 15152 5775 25       		.uleb128 0x25
 15153 5776 04       		.byte	0x4
 15154 5777 00007A44 		.4byte	0x447a0000
 15155 577b 3B       		.uleb128 0x3b
 15156 577c 01       		.uleb128 0x1
 15157 577d 51       		.byte	0x51
 15158 577e 02       		.uleb128 0x2
 15159 577f 74       		.byte	0x74
 15160 5780 00       		.sleb128 0
 15161 5781 00       		.byte	0
 15162 5782 40       		.uleb128 0x40
 15163 5783 34000000 		.4byte	.LVL192
 15164 5787 82690000 		.4byte	0x6982
 15165 578b B0570000 		.4byte	0x57b0
 15166 578f 3B       		.uleb128 0x3b
 15167 5790 01       		.uleb128 0x1
ARM GAS  /tmp/ccjQGkoy.s 			page 268


 15168 5791 50       		.byte	0x50
 15169 5792 02       		.uleb128 0x2
 15170 5793 91       		.byte	0x91
 15171 5794 60       		.sleb128 -32
 15172 5795 3B       		.uleb128 0x3b
 15173 5796 02       		.uleb128 0x2
 15174 5797 90       		.byte	0x90
 15175 5798 40       		.uleb128 0x40
 15176 5799 03       		.uleb128 0x3
 15177 579a F5       		.byte	0xf5
 15178 579b 50       		.uleb128 0x50
 15179 579c 25       		.uleb128 0x25
 15180 579d 3B       		.uleb128 0x3b
 15181 579e 02       		.uleb128 0x2
 15182 579f 90       		.byte	0x90
 15183 57a0 41       		.uleb128 0x41
 15184 57a1 07       		.uleb128 0x7
 15185 57a2 F4       		.byte	0xf4
 15186 57a3 25       		.uleb128 0x25
 15187 57a4 04       		.byte	0x4
 15188 57a5 00007A44 		.4byte	0x447a0000
 15189 57a9 3B       		.uleb128 0x3b
 15190 57aa 01       		.uleb128 0x1
 15191 57ab 51       		.byte	0x51
 15192 57ac 02       		.uleb128 0x2
 15193 57ad 74       		.byte	0x74
 15194 57ae 00       		.sleb128 0
 15195 57af 00       		.byte	0
 15196 57b0 41       		.uleb128 0x41
 15197 57b1 4C000000 		.4byte	.LVL193
 15198 57b5 2A610000 		.4byte	0x612a
 15199 57b9 3B       		.uleb128 0x3b
 15200 57ba 01       		.uleb128 0x1
 15201 57bb 51       		.byte	0x51
 15202 57bc 02       		.uleb128 0x2
 15203 57bd 91       		.byte	0x91
 15204 57be 60       		.sleb128 -32
 15205 57bf 00       		.byte	0
 15206 57c0 00       		.byte	0
 15207 57c1 58       		.uleb128 0x58
 15208 57c2 2F2A0000 		.4byte	.LASF1041
 15209 57c6 01       		.byte	0x1
 15210 57c7 C101     		.2byte	0x1c1
 15211 57c9 00000000 		.4byte	.LFB273
 15212 57cd 58000000 		.4byte	.LFE273-.LFB273
 15213 57d1 01       		.uleb128 0x1
 15214 57d2 9C       		.byte	0x9c
 15215 57d3 A4580000 		.4byte	0x58a4
 15216 57d7 38       		.uleb128 0x38
 15217 57d8 243A0000 		.4byte	.LASF601
 15218 57dc 01       		.byte	0x1
 15219 57dd C101     		.2byte	0x1c1
 15220 57df 44090000 		.4byte	0x944
 15221 57e3 B5090000 		.4byte	.LLST68
 15222 57e7 38       		.uleb128 0x38
 15223 57e8 E7350000 		.4byte	.LASF1038
 15224 57ec 01       		.byte	0x1
ARM GAS  /tmp/ccjQGkoy.s 			page 269


 15225 57ed C201     		.2byte	0x1c2
 15226 57ef 0A1F0000 		.4byte	0x1f0a
 15227 57f3 D6090000 		.4byte	.LLST69
 15228 57f7 39       		.uleb128 0x39
 15229 57f8 6D696E00 		.ascii	"min\000"
 15230 57fc 01       		.byte	0x1
 15231 57fd C201     		.2byte	0x1c2
 15232 57ff 25000000 		.4byte	0x25
 15233 5803 F7090000 		.4byte	.LLST70
 15234 5807 39       		.uleb128 0x39
 15235 5808 6D617800 		.ascii	"max\000"
 15236 580c 01       		.byte	0x1
 15237 580d C201     		.2byte	0x1c2
 15238 580f 25000000 		.4byte	0x25
 15239 5813 1B0A0000 		.4byte	.LLST71
 15240 5817 3E       		.uleb128 0x3e
 15241 5818 28320000 		.4byte	.LASF1007
 15242 581c 01       		.byte	0x1
 15243 581d C301     		.2byte	0x1c3
 15244 581f 6F090000 		.4byte	0x96f
 15245 5823 02       		.uleb128 0x2
 15246 5824 91       		.byte	0x91
 15247 5825 5C       		.sleb128 -36
 15248 5826 3E       		.uleb128 0x3e
 15249 5827 5F2A0000 		.4byte	.LASF1008
 15250 582b 01       		.byte	0x1
 15251 582c C401     		.2byte	0x1c4
 15252 582e 211F0000 		.4byte	0x1f21
 15253 5832 02       		.uleb128 0x2
 15254 5833 91       		.byte	0x91
 15255 5834 60       		.sleb128 -32
 15256 5835 40       		.uleb128 0x40
 15257 5836 24000000 		.4byte	.LVL183
 15258 583a 82690000 		.4byte	0x6982
 15259 583e 65580000 		.4byte	0x5865
 15260 5842 3B       		.uleb128 0x3b
 15261 5843 01       		.uleb128 0x1
 15262 5844 50       		.byte	0x50
 15263 5845 02       		.uleb128 0x2
 15264 5846 91       		.byte	0x91
 15265 5847 60       		.sleb128 -32
 15266 5848 3B       		.uleb128 0x3b
 15267 5849 02       		.uleb128 0x2
 15268 584a 90       		.byte	0x90
 15269 584b 40       		.uleb128 0x40
 15270 584c 05       		.uleb128 0x5
 15271 584d F3       		.byte	0xf3
 15272 584e 03       		.uleb128 0x3
 15273 584f F5       		.byte	0xf5
 15274 5850 40       		.uleb128 0x40
 15275 5851 25       		.uleb128 0x25
 15276 5852 3B       		.uleb128 0x3b
 15277 5853 02       		.uleb128 0x2
 15278 5854 90       		.byte	0x90
 15279 5855 41       		.uleb128 0x41
 15280 5856 07       		.uleb128 0x7
 15281 5857 F4       		.byte	0xf4
ARM GAS  /tmp/ccjQGkoy.s 			page 270


 15282 5858 25       		.uleb128 0x25
 15283 5859 04       		.byte	0x4
 15284 585a 00007A44 		.4byte	0x447a0000
 15285 585e 3B       		.uleb128 0x3b
 15286 585f 01       		.uleb128 0x1
 15287 5860 51       		.byte	0x51
 15288 5861 02       		.uleb128 0x2
 15289 5862 74       		.byte	0x74
 15290 5863 00       		.sleb128 0
 15291 5864 00       		.byte	0
 15292 5865 40       		.uleb128 0x40
 15293 5866 34000000 		.4byte	.LVL184
 15294 586a 82690000 		.4byte	0x6982
 15295 586e 93580000 		.4byte	0x5893
 15296 5872 3B       		.uleb128 0x3b
 15297 5873 01       		.uleb128 0x1
 15298 5874 50       		.byte	0x50
 15299 5875 02       		.uleb128 0x2
 15300 5876 91       		.byte	0x91
 15301 5877 60       		.sleb128 -32
 15302 5878 3B       		.uleb128 0x3b
 15303 5879 02       		.uleb128 0x2
 15304 587a 90       		.byte	0x90
 15305 587b 40       		.uleb128 0x40
 15306 587c 03       		.uleb128 0x3
 15307 587d F5       		.byte	0xf5
 15308 587e 50       		.uleb128 0x50
 15309 587f 25       		.uleb128 0x25
 15310 5880 3B       		.uleb128 0x3b
 15311 5881 02       		.uleb128 0x2
 15312 5882 90       		.byte	0x90
 15313 5883 41       		.uleb128 0x41
 15314 5884 07       		.uleb128 0x7
 15315 5885 F4       		.byte	0xf4
 15316 5886 25       		.uleb128 0x25
 15317 5887 04       		.byte	0x4
 15318 5888 00007A44 		.4byte	0x447a0000
 15319 588c 3B       		.uleb128 0x3b
 15320 588d 01       		.uleb128 0x1
 15321 588e 51       		.byte	0x51
 15322 588f 02       		.uleb128 0x2
 15323 5890 74       		.byte	0x74
 15324 5891 00       		.sleb128 0
 15325 5892 00       		.byte	0
 15326 5893 41       		.uleb128 0x41
 15327 5894 4C000000 		.4byte	.LVL185
 15328 5898 2A610000 		.4byte	0x612a
 15329 589c 3B       		.uleb128 0x3b
 15330 589d 01       		.uleb128 0x1
 15331 589e 51       		.byte	0x51
 15332 589f 02       		.uleb128 0x2
 15333 58a0 91       		.byte	0x91
 15334 58a1 60       		.sleb128 -32
 15335 58a2 00       		.byte	0
 15336 58a3 00       		.byte	0
 15337 58a4 58       		.uleb128 0x58
 15338 58a5 5C180000 		.4byte	.LASF1042
ARM GAS  /tmp/ccjQGkoy.s 			page 271


 15339 58a9 01       		.byte	0x1
 15340 58aa A801     		.2byte	0x1a8
 15341 58ac 00000000 		.4byte	.LFB272
 15342 58b0 58000000 		.4byte	.LFE272-.LFB272
 15343 58b4 01       		.uleb128 0x1
 15344 58b5 9C       		.byte	0x9c
 15345 58b6 5A590000 		.4byte	0x595a
 15346 58ba 38       		.uleb128 0x38
 15347 58bb 243A0000 		.4byte	.LASF601
 15348 58bf 01       		.byte	0x1
 15349 58c0 A801     		.2byte	0x1a8
 15350 58c2 44090000 		.4byte	0x944
 15351 58c6 4B0A0000 		.4byte	.LLST65
 15352 58ca 38       		.uleb128 0x38
 15353 58cb 8A330000 		.4byte	.LASF1043
 15354 58cf 01       		.byte	0x1
 15355 58d0 A801     		.2byte	0x1a8
 15356 58d2 0A1F0000 		.4byte	0x1f0a
 15357 58d6 6C0A0000 		.4byte	.LLST66
 15358 58da 38       		.uleb128 0x38
 15359 58db 88090000 		.4byte	.LASF1018
 15360 58df 01       		.byte	0x1
 15361 58e0 A801     		.2byte	0x1a8
 15362 58e2 25000000 		.4byte	0x25
 15363 58e6 8D0A0000 		.4byte	.LLST67
 15364 58ea 3E       		.uleb128 0x3e
 15365 58eb 28320000 		.4byte	.LASF1007
 15366 58ef 01       		.byte	0x1
 15367 58f0 A901     		.2byte	0x1a9
 15368 58f2 6F090000 		.4byte	0x96f
 15369 58f6 02       		.uleb128 0x2
 15370 58f7 91       		.byte	0x91
 15371 58f8 5C       		.sleb128 -36
 15372 58f9 3E       		.uleb128 0x3e
 15373 58fa 5F2A0000 		.4byte	.LASF1008
 15374 58fe 01       		.byte	0x1
 15375 58ff AA01     		.2byte	0x1aa
 15376 5901 5A590000 		.4byte	0x595a
 15377 5905 02       		.uleb128 0x2
 15378 5906 91       		.byte	0x91
 15379 5907 60       		.sleb128 -32
 15380 5908 3F       		.uleb128 0x3f
 15381 5909 18000000 		.4byte	.LVL175
 15382 590d 13680000 		.4byte	0x6813
 15383 5911 40       		.uleb128 0x40
 15384 5912 3E000000 		.4byte	.LVL176
 15385 5916 82690000 		.4byte	0x6982
 15386 591a 3F590000 		.4byte	0x593f
 15387 591e 3B       		.uleb128 0x3b
 15388 591f 01       		.uleb128 0x1
 15389 5920 50       		.byte	0x50
 15390 5921 02       		.uleb128 0x2
 15391 5922 91       		.byte	0x91
 15392 5923 60       		.sleb128 -32
 15393 5924 3B       		.uleb128 0x3b
 15394 5925 02       		.uleb128 0x2
 15395 5926 90       		.byte	0x90
ARM GAS  /tmp/ccjQGkoy.s 			page 272


 15396 5927 40       		.uleb128 0x40
 15397 5928 03       		.uleb128 0x3
 15398 5929 F5       		.byte	0xf5
 15399 592a 50       		.uleb128 0x50
 15400 592b 25       		.uleb128 0x25
 15401 592c 3B       		.uleb128 0x3b
 15402 592d 02       		.uleb128 0x2
 15403 592e 90       		.byte	0x90
 15404 592f 41       		.uleb128 0x41
 15405 5930 07       		.uleb128 0x7
 15406 5931 F4       		.byte	0xf4
 15407 5932 25       		.uleb128 0x25
 15408 5933 04       		.byte	0x4
 15409 5934 00007A44 		.4byte	0x447a0000
 15410 5938 3B       		.uleb128 0x3b
 15411 5939 01       		.uleb128 0x1
 15412 593a 51       		.byte	0x51
 15413 593b 02       		.uleb128 0x2
 15414 593c 91       		.byte	0x91
 15415 593d 5C       		.sleb128 -36
 15416 593e 00       		.byte	0
 15417 593f 41       		.uleb128 0x41
 15418 5940 4C000000 		.4byte	.LVL177
 15419 5944 2A610000 		.4byte	0x612a
 15420 5948 3B       		.uleb128 0x3b
 15421 5949 01       		.uleb128 0x1
 15422 594a 50       		.byte	0x50
 15423 594b 06       		.uleb128 0x6
 15424 594c 74       		.byte	0x74
 15425 594d 00       		.sleb128 0
 15426 594e 0A       		.byte	0xa
 15427 594f 0013     		.2byte	0x1300
 15428 5951 21       		.byte	0x21
 15429 5952 3B       		.uleb128 0x3b
 15430 5953 01       		.uleb128 0x1
 15431 5954 51       		.byte	0x51
 15432 5955 02       		.uleb128 0x2
 15433 5956 91       		.byte	0x91
 15434 5957 60       		.sleb128 -32
 15435 5958 00       		.byte	0
 15436 5959 00       		.byte	0
 15437 595a 0B       		.uleb128 0xb
 15438 595b 44090000 		.4byte	0x944
 15439 595f 6A590000 		.4byte	0x596a
 15440 5963 0C       		.uleb128 0xc
 15441 5964 48000000 		.4byte	0x48
 15442 5968 05       		.byte	0x5
 15443 5969 00       		.byte	0
 15444 596a 55       		.uleb128 0x55
 15445 596b 32350000 		.4byte	.LASF1044
 15446 596f 01       		.byte	0x1
 15447 5970 8901     		.2byte	0x189
 15448 5972 0A1F0000 		.4byte	0x1f0a
 15449 5976 00000000 		.4byte	.LFB271
 15450 597a 4C000000 		.4byte	.LFE271-.LFB271
 15451 597e 01       		.uleb128 0x1
 15452 597f 9C       		.byte	0x9c
ARM GAS  /tmp/ccjQGkoy.s 			page 273


 15453 5980 1B5A0000 		.4byte	0x5a1b
 15454 5984 38       		.uleb128 0x38
 15455 5985 243A0000 		.4byte	.LASF601
 15456 5989 01       		.byte	0x1
 15457 598a 8901     		.2byte	0x189
 15458 598c 44090000 		.4byte	0x944
 15459 5990 BD0A0000 		.4byte	.LLST63
 15460 5994 3E       		.uleb128 0x3e
 15461 5995 5F2A0000 		.4byte	.LASF1008
 15462 5999 01       		.byte	0x1
 15463 599a 8E01     		.2byte	0x18e
 15464 599c 98510000 		.4byte	0x5198
 15465 59a0 02       		.uleb128 0x2
 15466 59a1 91       		.byte	0x91
 15467 59a2 6C       		.sleb128 -20
 15468 59a3 46       		.uleb128 0x46
 15469 59a4 72657400 		.ascii	"ret\000"
 15470 59a8 01       		.byte	0x1
 15471 59a9 9301     		.2byte	0x193
 15472 59ab 2C000000 		.4byte	0x2c
 15473 59af DE0A0000 		.4byte	.LLST64
 15474 59b3 59       		.uleb128 0x59
 15475 59b4 B8640000 		.4byte	0x64b8
 15476 59b8 02000000 		.4byte	.LBB201
 15477 59bc 02000000 		.4byte	.LBE201-.LBB201
 15478 59c0 01       		.byte	0x1
 15479 59c1 8B01     		.2byte	0x18b
 15480 59c3 40       		.uleb128 0x40
 15481 59c4 16000000 		.4byte	.LVL169
 15482 59c8 8D690000 		.4byte	0x698d
 15483 59cc D7590000 		.4byte	0x59d7
 15484 59d0 3B       		.uleb128 0x3b
 15485 59d1 01       		.uleb128 0x1
 15486 59d2 50       		.byte	0x50
 15487 59d3 02       		.uleb128 0x2
 15488 59d4 09       		.byte	0x9
 15489 59d5 FF       		.byte	0xff
 15490 59d6 00       		.byte	0
 15491 59d7 3F       		.uleb128 0x3f
 15492 59d8 1A000000 		.4byte	.LVL170
 15493 59dc 13680000 		.4byte	0x6813
 15494 59e0 40       		.uleb128 0x40
 15495 59e1 2C000000 		.4byte	.LVL171
 15496 59e5 2A610000 		.4byte	0x612a
 15497 59e9 035A0000 		.4byte	0x5a03
 15498 59ed 3B       		.uleb128 0x3b
 15499 59ee 01       		.uleb128 0x1
 15500 59ef 50       		.byte	0x50
 15501 59f0 06       		.uleb128 0x6
 15502 59f1 75       		.byte	0x75
 15503 59f2 00       		.sleb128 0
 15504 59f3 0A       		.byte	0xa
 15505 59f4 0011     		.2byte	0x1100
 15506 59f6 21       		.byte	0x21
 15507 59f7 3B       		.uleb128 0x3b
 15508 59f8 01       		.uleb128 0x1
 15509 59f9 51       		.byte	0x51
ARM GAS  /tmp/ccjQGkoy.s 			page 274


 15510 59fa 02       		.uleb128 0x2
 15511 59fb 91       		.byte	0x91
 15512 59fc 6C       		.sleb128 -20
 15513 59fd 3B       		.uleb128 0x3b
 15514 59fe 01       		.uleb128 0x1
 15515 59ff 52       		.byte	0x52
 15516 5a00 01       		.uleb128 0x1
 15517 5a01 31       		.byte	0x31
 15518 5a02 00       		.byte	0
 15519 5a03 41       		.uleb128 0x41
 15520 5a04 36000000 		.4byte	.LVL172
 15521 5a08 40690000 		.4byte	0x6940
 15522 5a0c 3B       		.uleb128 0x3b
 15523 5a0d 01       		.uleb128 0x1
 15524 5a0e 50       		.byte	0x50
 15525 5a0f 03       		.uleb128 0x3
 15526 5a10 40       		.byte	0x40
 15527 5a11 49       		.byte	0x49
 15528 5a12 24       		.byte	0x24
 15529 5a13 3B       		.uleb128 0x3b
 15530 5a14 01       		.uleb128 0x1
 15531 5a15 51       		.byte	0x51
 15532 5a16 02       		.uleb128 0x2
 15533 5a17 08       		.byte	0x8
 15534 5a18 64       		.byte	0x64
 15535 5a19 00       		.byte	0
 15536 5a1a 00       		.byte	0
 15537 5a1b 58       		.uleb128 0x58
 15538 5a1c 1A070000 		.4byte	.LASF1045
 15539 5a20 01       		.byte	0x1
 15540 5a21 7801     		.2byte	0x178
 15541 5a23 00000000 		.4byte	.LFB270
 15542 5a27 30000000 		.4byte	.LFE270-.LFB270
 15543 5a2b 01       		.uleb128 0x1
 15544 5a2c 9C       		.byte	0x9c
 15545 5a2d BA5A0000 		.4byte	0x5aba
 15546 5a31 38       		.uleb128 0x38
 15547 5a32 243A0000 		.4byte	.LASF601
 15548 5a36 01       		.byte	0x1
 15549 5a37 7801     		.2byte	0x178
 15550 5a39 44090000 		.4byte	0x944
 15551 5a3d F10A0000 		.4byte	.LLST61
 15552 5a41 38       		.uleb128 0x38
 15553 5a42 63070000 		.4byte	.LASF1046
 15554 5a46 01       		.byte	0x1
 15555 5a47 7801     		.2byte	0x178
 15556 5a49 25000000 		.4byte	0x25
 15557 5a4d 120B0000 		.4byte	.LLST62
 15558 5a51 3E       		.uleb128 0x3e
 15559 5a52 28320000 		.4byte	.LASF1007
 15560 5a56 01       		.byte	0x1
 15561 5a57 7901     		.2byte	0x179
 15562 5a59 6F090000 		.4byte	0x96f
 15563 5a5d 02       		.uleb128 0x2
 15564 5a5e 91       		.byte	0x91
 15565 5a5f 70       		.sleb128 -16
 15566 5a60 3E       		.uleb128 0x3e
ARM GAS  /tmp/ccjQGkoy.s 			page 275


 15567 5a61 5F2A0000 		.4byte	.LASF1008
 15568 5a65 01       		.byte	0x1
 15569 5a66 7A01     		.2byte	0x17a
 15570 5a68 FB3F0000 		.4byte	0x3ffb
 15571 5a6c 02       		.uleb128 0x2
 15572 5a6d 91       		.byte	0x91
 15573 5a6e 74       		.sleb128 -12
 15574 5a6f 40       		.uleb128 0x40
 15575 5a70 18000000 		.4byte	.LVL165
 15576 5a74 82690000 		.4byte	0x6982
 15577 5a78 9F5A0000 		.4byte	0x5a9f
 15578 5a7c 3B       		.uleb128 0x3b
 15579 5a7d 01       		.uleb128 0x1
 15580 5a7e 50       		.byte	0x50
 15581 5a7f 02       		.uleb128 0x2
 15582 5a80 91       		.byte	0x91
 15583 5a81 74       		.sleb128 -12
 15584 5a82 3B       		.uleb128 0x3b
 15585 5a83 02       		.uleb128 0x2
 15586 5a84 90       		.byte	0x90
 15587 5a85 40       		.uleb128 0x40
 15588 5a86 05       		.uleb128 0x5
 15589 5a87 F3       		.byte	0xf3
 15590 5a88 03       		.uleb128 0x3
 15591 5a89 F5       		.byte	0xf5
 15592 5a8a 40       		.uleb128 0x40
 15593 5a8b 25       		.uleb128 0x25
 15594 5a8c 3B       		.uleb128 0x3b
 15595 5a8d 02       		.uleb128 0x2
 15596 5a8e 90       		.byte	0x90
 15597 5a8f 41       		.uleb128 0x41
 15598 5a90 07       		.uleb128 0x7
 15599 5a91 F4       		.byte	0xf4
 15600 5a92 25       		.uleb128 0x25
 15601 5a93 04       		.byte	0x4
 15602 5a94 0050C347 		.4byte	0x47c35000
 15603 5a98 3B       		.uleb128 0x3b
 15604 5a99 01       		.uleb128 0x1
 15605 5a9a 51       		.byte	0x51
 15606 5a9b 02       		.uleb128 0x2
 15607 5a9c 91       		.byte	0x91
 15608 5a9d 70       		.sleb128 -16
 15609 5a9e 00       		.byte	0
 15610 5a9f 41       		.uleb128 0x41
 15611 5aa0 26000000 		.4byte	.LVL166
 15612 5aa4 2A610000 		.4byte	0x612a
 15613 5aa8 3B       		.uleb128 0x3b
 15614 5aa9 01       		.uleb128 0x1
 15615 5aaa 50       		.byte	0x50
 15616 5aab 06       		.uleb128 0x6
 15617 5aac 74       		.byte	0x74
 15618 5aad 00       		.sleb128 0
 15619 5aae 0A       		.byte	0xa
 15620 5aaf 000D     		.2byte	0xd00
 15621 5ab1 21       		.byte	0x21
 15622 5ab2 3B       		.uleb128 0x3b
 15623 5ab3 01       		.uleb128 0x1
ARM GAS  /tmp/ccjQGkoy.s 			page 276


 15624 5ab4 51       		.byte	0x51
 15625 5ab5 02       		.uleb128 0x2
 15626 5ab6 91       		.byte	0x91
 15627 5ab7 74       		.sleb128 -12
 15628 5ab8 00       		.byte	0
 15629 5ab9 00       		.byte	0
 15630 5aba 58       		.uleb128 0x58
 15631 5abb C5040000 		.4byte	.LASF1047
 15632 5abf 01       		.byte	0x1
 15633 5ac0 6701     		.2byte	0x167
 15634 5ac2 00000000 		.4byte	.LFB269
 15635 5ac6 30000000 		.4byte	.LFE269-.LFB269
 15636 5aca 01       		.uleb128 0x1
 15637 5acb 9C       		.byte	0x9c
 15638 5acc 595B0000 		.4byte	0x5b59
 15639 5ad0 38       		.uleb128 0x38
 15640 5ad1 243A0000 		.4byte	.LASF601
 15641 5ad5 01       		.byte	0x1
 15642 5ad6 6701     		.2byte	0x167
 15643 5ad8 44090000 		.4byte	0x944
 15644 5adc 360B0000 		.4byte	.LLST59
 15645 5ae0 38       		.uleb128 0x38
 15646 5ae1 5B200000 		.4byte	.LASF647
 15647 5ae5 01       		.byte	0x1
 15648 5ae6 6701     		.2byte	0x167
 15649 5ae8 25000000 		.4byte	0x25
 15650 5aec 570B0000 		.4byte	.LLST60
 15651 5af0 3E       		.uleb128 0x3e
 15652 5af1 28320000 		.4byte	.LASF1007
 15653 5af5 01       		.byte	0x1
 15654 5af6 6801     		.2byte	0x168
 15655 5af8 6F090000 		.4byte	0x96f
 15656 5afc 02       		.uleb128 0x2
 15657 5afd 91       		.byte	0x91
 15658 5afe 70       		.sleb128 -16
 15659 5aff 3E       		.uleb128 0x3e
 15660 5b00 5F2A0000 		.4byte	.LASF1008
 15661 5b04 01       		.byte	0x1
 15662 5b05 6901     		.2byte	0x169
 15663 5b07 FB3F0000 		.4byte	0x3ffb
 15664 5b0b 02       		.uleb128 0x2
 15665 5b0c 91       		.byte	0x91
 15666 5b0d 74       		.sleb128 -12
 15667 5b0e 40       		.uleb128 0x40
 15668 5b0f 18000000 		.4byte	.LVL161
 15669 5b13 82690000 		.4byte	0x6982
 15670 5b17 3E5B0000 		.4byte	0x5b3e
 15671 5b1b 3B       		.uleb128 0x3b
 15672 5b1c 01       		.uleb128 0x1
 15673 5b1d 50       		.byte	0x50
 15674 5b1e 02       		.uleb128 0x2
 15675 5b1f 91       		.byte	0x91
 15676 5b20 74       		.sleb128 -12
 15677 5b21 3B       		.uleb128 0x3b
 15678 5b22 02       		.uleb128 0x2
 15679 5b23 90       		.byte	0x90
 15680 5b24 40       		.uleb128 0x40
ARM GAS  /tmp/ccjQGkoy.s 			page 277


 15681 5b25 05       		.uleb128 0x5
 15682 5b26 F3       		.byte	0xf3
 15683 5b27 03       		.uleb128 0x3
 15684 5b28 F5       		.byte	0xf5
 15685 5b29 40       		.uleb128 0x40
 15686 5b2a 25       		.uleb128 0x25
 15687 5b2b 3B       		.uleb128 0x3b
 15688 5b2c 02       		.uleb128 0x2
 15689 5b2d 90       		.byte	0x90
 15690 5b2e 41       		.uleb128 0x41
 15691 5b2f 07       		.uleb128 0x7
 15692 5b30 F4       		.byte	0xf4
 15693 5b31 25       		.uleb128 0x25
 15694 5b32 04       		.byte	0x4
 15695 5b33 00007A44 		.4byte	0x447a0000
 15696 5b37 3B       		.uleb128 0x3b
 15697 5b38 01       		.uleb128 0x1
 15698 5b39 51       		.byte	0x51
 15699 5b3a 02       		.uleb128 0x2
 15700 5b3b 91       		.byte	0x91
 15701 5b3c 70       		.sleb128 -16
 15702 5b3d 00       		.byte	0
 15703 5b3e 41       		.uleb128 0x41
 15704 5b3f 26000000 		.4byte	.LVL162
 15705 5b43 2A610000 		.4byte	0x612a
 15706 5b47 3B       		.uleb128 0x3b
 15707 5b48 01       		.uleb128 0x1
 15708 5b49 50       		.byte	0x50
 15709 5b4a 06       		.uleb128 0x6
 15710 5b4b 74       		.byte	0x74
 15711 5b4c 00       		.sleb128 0
 15712 5b4d 0A       		.byte	0xa
 15713 5b4e 000C     		.2byte	0xc00
 15714 5b50 21       		.byte	0x21
 15715 5b51 3B       		.uleb128 0x3b
 15716 5b52 01       		.uleb128 0x1
 15717 5b53 51       		.byte	0x51
 15718 5b54 02       		.uleb128 0x2
 15719 5b55 91       		.byte	0x91
 15720 5b56 74       		.sleb128 -12
 15721 5b57 00       		.byte	0
 15722 5b58 00       		.byte	0
 15723 5b59 58       		.uleb128 0x58
 15724 5b5a 45290000 		.4byte	.LASF1048
 15725 5b5e 01       		.byte	0x1
 15726 5b5f 5601     		.2byte	0x156
 15727 5b61 00000000 		.4byte	.LFB268
 15728 5b65 30000000 		.4byte	.LFE268-.LFB268
 15729 5b69 01       		.uleb128 0x1
 15730 5b6a 9C       		.byte	0x9c
 15731 5b6b F85B0000 		.4byte	0x5bf8
 15732 5b6f 38       		.uleb128 0x38
 15733 5b70 243A0000 		.4byte	.LASF601
 15734 5b74 01       		.byte	0x1
 15735 5b75 5601     		.2byte	0x156
 15736 5b77 44090000 		.4byte	0x944
 15737 5b7b 7B0B0000 		.4byte	.LLST57
ARM GAS  /tmp/ccjQGkoy.s 			page 278


 15738 5b7f 38       		.uleb128 0x38
 15739 5b80 63070000 		.4byte	.LASF1046
 15740 5b84 01       		.byte	0x1
 15741 5b85 5601     		.2byte	0x156
 15742 5b87 25000000 		.4byte	0x25
 15743 5b8b 9C0B0000 		.4byte	.LLST58
 15744 5b8f 3E       		.uleb128 0x3e
 15745 5b90 28320000 		.4byte	.LASF1007
 15746 5b94 01       		.byte	0x1
 15747 5b95 5701     		.2byte	0x157
 15748 5b97 6F090000 		.4byte	0x96f
 15749 5b9b 02       		.uleb128 0x2
 15750 5b9c 91       		.byte	0x91
 15751 5b9d 70       		.sleb128 -16
 15752 5b9e 3E       		.uleb128 0x3e
 15753 5b9f 5F2A0000 		.4byte	.LASF1008
 15754 5ba3 01       		.byte	0x1
 15755 5ba4 5801     		.2byte	0x158
 15756 5ba6 FB3F0000 		.4byte	0x3ffb
 15757 5baa 02       		.uleb128 0x2
 15758 5bab 91       		.byte	0x91
 15759 5bac 74       		.sleb128 -12
 15760 5bad 40       		.uleb128 0x40
 15761 5bae 18000000 		.4byte	.LVL157
 15762 5bb2 82690000 		.4byte	0x6982
 15763 5bb6 DD5B0000 		.4byte	0x5bdd
 15764 5bba 3B       		.uleb128 0x3b
 15765 5bbb 01       		.uleb128 0x1
 15766 5bbc 50       		.byte	0x50
 15767 5bbd 02       		.uleb128 0x2
 15768 5bbe 91       		.byte	0x91
 15769 5bbf 74       		.sleb128 -12
 15770 5bc0 3B       		.uleb128 0x3b
 15771 5bc1 02       		.uleb128 0x2
 15772 5bc2 90       		.byte	0x90
 15773 5bc3 40       		.uleb128 0x40
 15774 5bc4 05       		.uleb128 0x5
 15775 5bc5 F3       		.byte	0xf3
 15776 5bc6 03       		.uleb128 0x3
 15777 5bc7 F5       		.byte	0xf5
 15778 5bc8 40       		.uleb128 0x40
 15779 5bc9 25       		.uleb128 0x25
 15780 5bca 3B       		.uleb128 0x3b
 15781 5bcb 02       		.uleb128 0x2
 15782 5bcc 90       		.byte	0x90
 15783 5bcd 41       		.uleb128 0x41
 15784 5bce 07       		.uleb128 0x7
 15785 5bcf F4       		.byte	0xf4
 15786 5bd0 25       		.uleb128 0x25
 15787 5bd1 04       		.byte	0x4
 15788 5bd2 0050C347 		.4byte	0x47c35000
 15789 5bd6 3B       		.uleb128 0x3b
 15790 5bd7 01       		.uleb128 0x1
 15791 5bd8 51       		.byte	0x51
 15792 5bd9 02       		.uleb128 0x2
 15793 5bda 91       		.byte	0x91
 15794 5bdb 70       		.sleb128 -16
ARM GAS  /tmp/ccjQGkoy.s 			page 279


 15795 5bdc 00       		.byte	0
 15796 5bdd 41       		.uleb128 0x41
 15797 5bde 26000000 		.4byte	.LVL158
 15798 5be2 2A610000 		.4byte	0x612a
 15799 5be6 3B       		.uleb128 0x3b
 15800 5be7 01       		.uleb128 0x1
 15801 5be8 50       		.byte	0x50
 15802 5be9 06       		.uleb128 0x6
 15803 5bea 74       		.byte	0x74
 15804 5beb 00       		.sleb128 0
 15805 5bec 0A       		.byte	0xa
 15806 5bed 000B     		.2byte	0xb00
 15807 5bef 21       		.byte	0x21
 15808 5bf0 3B       		.uleb128 0x3b
 15809 5bf1 01       		.uleb128 0x1
 15810 5bf2 51       		.byte	0x51
 15811 5bf3 02       		.uleb128 0x2
 15812 5bf4 91       		.byte	0x91
 15813 5bf5 74       		.sleb128 -12
 15814 5bf6 00       		.byte	0
 15815 5bf7 00       		.byte	0
 15816 5bf8 58       		.uleb128 0x58
 15817 5bf9 682C0000 		.4byte	.LASF1049
 15818 5bfd 01       		.byte	0x1
 15819 5bfe 4501     		.2byte	0x145
 15820 5c00 00000000 		.4byte	.LFB267
 15821 5c04 30000000 		.4byte	.LFE267-.LFB267
 15822 5c08 01       		.uleb128 0x1
 15823 5c09 9C       		.byte	0x9c
 15824 5c0a 975C0000 		.4byte	0x5c97
 15825 5c0e 38       		.uleb128 0x38
 15826 5c0f 243A0000 		.4byte	.LASF601
 15827 5c13 01       		.byte	0x1
 15828 5c14 4501     		.2byte	0x145
 15829 5c16 44090000 		.4byte	0x944
 15830 5c1a C00B0000 		.4byte	.LLST55
 15831 5c1e 38       		.uleb128 0x38
 15832 5c1f 63070000 		.4byte	.LASF1046
 15833 5c23 01       		.byte	0x1
 15834 5c24 4501     		.2byte	0x145
 15835 5c26 25000000 		.4byte	0x25
 15836 5c2a E10B0000 		.4byte	.LLST56
 15837 5c2e 3E       		.uleb128 0x3e
 15838 5c2f 28320000 		.4byte	.LASF1007
 15839 5c33 01       		.byte	0x1
 15840 5c34 4601     		.2byte	0x146
 15841 5c36 6F090000 		.4byte	0x96f
 15842 5c3a 02       		.uleb128 0x2
 15843 5c3b 91       		.byte	0x91
 15844 5c3c 70       		.sleb128 -16
 15845 5c3d 3E       		.uleb128 0x3e
 15846 5c3e 5F2A0000 		.4byte	.LASF1008
 15847 5c42 01       		.byte	0x1
 15848 5c43 4701     		.2byte	0x147
 15849 5c45 FB3F0000 		.4byte	0x3ffb
 15850 5c49 02       		.uleb128 0x2
 15851 5c4a 91       		.byte	0x91
ARM GAS  /tmp/ccjQGkoy.s 			page 280


 15852 5c4b 74       		.sleb128 -12
 15853 5c4c 40       		.uleb128 0x40
 15854 5c4d 18000000 		.4byte	.LVL153
 15855 5c51 82690000 		.4byte	0x6982
 15856 5c55 7C5C0000 		.4byte	0x5c7c
 15857 5c59 3B       		.uleb128 0x3b
 15858 5c5a 01       		.uleb128 0x1
 15859 5c5b 50       		.byte	0x50
 15860 5c5c 02       		.uleb128 0x2
 15861 5c5d 91       		.byte	0x91
 15862 5c5e 74       		.sleb128 -12
 15863 5c5f 3B       		.uleb128 0x3b
 15864 5c60 02       		.uleb128 0x2
 15865 5c61 90       		.byte	0x90
 15866 5c62 40       		.uleb128 0x40
 15867 5c63 05       		.uleb128 0x5
 15868 5c64 F3       		.byte	0xf3
 15869 5c65 03       		.uleb128 0x3
 15870 5c66 F5       		.byte	0xf5
 15871 5c67 40       		.uleb128 0x40
 15872 5c68 25       		.uleb128 0x25
 15873 5c69 3B       		.uleb128 0x3b
 15874 5c6a 02       		.uleb128 0x2
 15875 5c6b 90       		.byte	0x90
 15876 5c6c 41       		.uleb128 0x41
 15877 5c6d 07       		.uleb128 0x7
 15878 5c6e F4       		.byte	0xf4
 15879 5c6f 25       		.uleb128 0x25
 15880 5c70 04       		.byte	0x4
 15881 5c71 0050C347 		.4byte	0x47c35000
 15882 5c75 3B       		.uleb128 0x3b
 15883 5c76 01       		.uleb128 0x1
 15884 5c77 51       		.byte	0x51
 15885 5c78 02       		.uleb128 0x2
 15886 5c79 91       		.byte	0x91
 15887 5c7a 70       		.sleb128 -16
 15888 5c7b 00       		.byte	0
 15889 5c7c 41       		.uleb128 0x41
 15890 5c7d 26000000 		.4byte	.LVL154
 15891 5c81 2A610000 		.4byte	0x612a
 15892 5c85 3B       		.uleb128 0x3b
 15893 5c86 01       		.uleb128 0x1
 15894 5c87 50       		.byte	0x50
 15895 5c88 06       		.uleb128 0x6
 15896 5c89 74       		.byte	0x74
 15897 5c8a 00       		.sleb128 0
 15898 5c8b 0A       		.byte	0xa
 15899 5c8c 000A     		.2byte	0xa00
 15900 5c8e 21       		.byte	0x21
 15901 5c8f 3B       		.uleb128 0x3b
 15902 5c90 01       		.uleb128 0x1
 15903 5c91 51       		.byte	0x51
 15904 5c92 02       		.uleb128 0x2
 15905 5c93 91       		.byte	0x91
 15906 5c94 74       		.sleb128 -12
 15907 5c95 00       		.byte	0
 15908 5c96 00       		.byte	0
ARM GAS  /tmp/ccjQGkoy.s 			page 281


 15909 5c97 58       		.uleb128 0x58
 15910 5c98 A8030000 		.4byte	.LASF1050
 15911 5c9c 01       		.byte	0x1
 15912 5c9d 3401     		.2byte	0x134
 15913 5c9f 00000000 		.4byte	.LFB266
 15914 5ca3 3C000000 		.4byte	.LFE266-.LFB266
 15915 5ca7 01       		.uleb128 0x1
 15916 5ca8 9C       		.byte	0x9c
 15917 5ca9 375D0000 		.4byte	0x5d37
 15918 5cad 38       		.uleb128 0x38
 15919 5cae 243A0000 		.4byte	.LASF601
 15920 5cb2 01       		.byte	0x1
 15921 5cb3 3401     		.2byte	0x134
 15922 5cb5 44090000 		.4byte	0x944
 15923 5cb9 050C0000 		.4byte	.LLST53
 15924 5cbd 39       		.uleb128 0x39
 15925 5cbe 706F7300 		.ascii	"pos\000"
 15926 5cc2 01       		.byte	0x1
 15927 5cc3 3401     		.2byte	0x134
 15928 5cc5 25000000 		.4byte	0x25
 15929 5cc9 260C0000 		.4byte	.LLST54
 15930 5ccd 3E       		.uleb128 0x3e
 15931 5cce 28320000 		.4byte	.LASF1007
 15932 5cd2 01       		.byte	0x1
 15933 5cd3 3501     		.2byte	0x135
 15934 5cd5 6F090000 		.4byte	0x96f
 15935 5cd9 02       		.uleb128 0x2
 15936 5cda 91       		.byte	0x91
 15937 5cdb 70       		.sleb128 -16
 15938 5cdc 3E       		.uleb128 0x3e
 15939 5cdd 5F2A0000 		.4byte	.LASF1008
 15940 5ce1 01       		.byte	0x1
 15941 5ce2 3601     		.2byte	0x136
 15942 5ce4 FB3F0000 		.4byte	0x3ffb
 15943 5ce8 02       		.uleb128 0x2
 15944 5ce9 91       		.byte	0x91
 15945 5cea 74       		.sleb128 -12
 15946 5ceb 40       		.uleb128 0x40
 15947 5cec 24000000 		.4byte	.LVL149
 15948 5cf0 84670000 		.4byte	0x6784
 15949 5cf4 1C5D0000 		.4byte	0x5d1c
 15950 5cf8 3B       		.uleb128 0x3b
 15951 5cf9 01       		.uleb128 0x1
 15952 5cfa 50       		.byte	0x50
 15953 5cfb 02       		.uleb128 0x2
 15954 5cfc 91       		.byte	0x91
 15955 5cfd 74       		.sleb128 -12
 15956 5cfe 3B       		.uleb128 0x3b
 15957 5cff 01       		.uleb128 0x1
 15958 5d00 51       		.byte	0x51
 15959 5d01 13       		.uleb128 0x13
 15960 5d02 F3       		.byte	0xf3
 15961 5d03 03       		.uleb128 0x3
 15962 5d04 F5       		.byte	0xf5
 15963 5d05 40       		.uleb128 0x40
 15964 5d06 25       		.uleb128 0x25
 15965 5d07 F4       		.byte	0xf4
ARM GAS  /tmp/ccjQGkoy.s 			page 282


 15966 5d08 25       		.uleb128 0x25
 15967 5d09 04       		.byte	0x4
 15968 5d0a 00247449 		.4byte	0x49742400
 15969 5d0e 1E       		.byte	0x1e
 15970 5d0f F7       		.byte	0xf7
 15971 5d10 25       		.uleb128 0x25
 15972 5d11 F7       		.byte	0xf7
 15973 5d12 2C       		.uleb128 0x2c
 15974 5d13 F7       		.byte	0xf7
 15975 5d14 00       		.uleb128 0
 15976 5d15 3B       		.uleb128 0x3b
 15977 5d16 01       		.uleb128 0x1
 15978 5d17 52       		.byte	0x52
 15979 5d18 02       		.uleb128 0x2
 15980 5d19 91       		.byte	0x91
 15981 5d1a 70       		.sleb128 -16
 15982 5d1b 00       		.byte	0
 15983 5d1c 41       		.uleb128 0x41
 15984 5d1d 32000000 		.4byte	.LVL150
 15985 5d21 2A610000 		.4byte	0x612a
 15986 5d25 3B       		.uleb128 0x3b
 15987 5d26 01       		.uleb128 0x1
 15988 5d27 50       		.byte	0x50
 15989 5d28 06       		.uleb128 0x6
 15990 5d29 74       		.byte	0x74
 15991 5d2a 00       		.sleb128 0
 15992 5d2b 0A       		.byte	0xa
 15993 5d2c 0004     		.2byte	0x400
 15994 5d2e 21       		.byte	0x21
 15995 5d2f 3B       		.uleb128 0x3b
 15996 5d30 01       		.uleb128 0x1
 15997 5d31 51       		.byte	0x51
 15998 5d32 02       		.uleb128 0x2
 15999 5d33 91       		.byte	0x91
 16000 5d34 74       		.sleb128 -12
 16001 5d35 00       		.byte	0
 16002 5d36 00       		.byte	0
 16003 5d37 58       		.uleb128 0x58
 16004 5d38 14100000 		.4byte	.LASF1051
 16005 5d3c 01       		.byte	0x1
 16006 5d3d 2C01     		.2byte	0x12c
 16007 5d3f 00000000 		.4byte	.LFB265
 16008 5d43 2E000000 		.4byte	.LFE265-.LFB265
 16009 5d47 01       		.uleb128 0x1
 16010 5d48 9C       		.byte	0x9c
 16011 5d49 CF5D0000 		.4byte	0x5dcf
 16012 5d4d 38       		.uleb128 0x38
 16013 5d4e 243A0000 		.4byte	.LASF601
 16014 5d52 01       		.byte	0x1
 16015 5d53 2C01     		.2byte	0x12c
 16016 5d55 44090000 		.4byte	0x944
 16017 5d59 4A0C0000 		.4byte	.LLST51
 16018 5d5d 39       		.uleb128 0x39
 16019 5d5e 72706D00 		.ascii	"rpm\000"
 16020 5d62 01       		.byte	0x1
 16021 5d63 2C01     		.2byte	0x12c
 16022 5d65 25000000 		.4byte	0x25
ARM GAS  /tmp/ccjQGkoy.s 			page 283


 16023 5d69 6B0C0000 		.4byte	.LLST52
 16024 5d6d 3E       		.uleb128 0x3e
 16025 5d6e 28320000 		.4byte	.LASF1007
 16026 5d72 01       		.byte	0x1
 16027 5d73 2D01     		.2byte	0x12d
 16028 5d75 6F090000 		.4byte	0x96f
 16029 5d79 02       		.uleb128 0x2
 16030 5d7a 91       		.byte	0x91
 16031 5d7b 70       		.sleb128 -16
 16032 5d7c 3E       		.uleb128 0x3e
 16033 5d7d 5F2A0000 		.4byte	.LASF1008
 16034 5d81 01       		.byte	0x1
 16035 5d82 2E01     		.2byte	0x12e
 16036 5d84 FB3F0000 		.4byte	0x3ffb
 16037 5d88 02       		.uleb128 0x2
 16038 5d89 91       		.byte	0x91
 16039 5d8a 74       		.sleb128 -12
 16040 5d8b 40       		.uleb128 0x40
 16041 5d8c 1C000000 		.4byte	.LVL144
 16042 5d90 84670000 		.4byte	0x6784
 16043 5d94 B45D0000 		.4byte	0x5db4
 16044 5d98 3B       		.uleb128 0x3b
 16045 5d99 01       		.uleb128 0x1
 16046 5d9a 50       		.byte	0x50
 16047 5d9b 02       		.uleb128 0x2
 16048 5d9c 91       		.byte	0x91
 16049 5d9d 74       		.sleb128 -12
 16050 5d9e 3B       		.uleb128 0x3b
 16051 5d9f 01       		.uleb128 0x1
 16052 5da0 51       		.byte	0x51
 16053 5da1 0B       		.uleb128 0xb
 16054 5da2 F3       		.byte	0xf3
 16055 5da3 03       		.uleb128 0x3
 16056 5da4 F5       		.byte	0xf5
 16057 5da5 40       		.uleb128 0x40
 16058 5da6 25       		.uleb128 0x25
 16059 5da7 F7       		.byte	0xf7
 16060 5da8 25       		.uleb128 0x25
 16061 5da9 F7       		.byte	0xf7
 16062 5daa 2C       		.uleb128 0x2c
 16063 5dab F7       		.byte	0xf7
 16064 5dac 00       		.uleb128 0
 16065 5dad 3B       		.uleb128 0x3b
 16066 5dae 01       		.uleb128 0x1
 16067 5daf 52       		.byte	0x52
 16068 5db0 02       		.uleb128 0x2
 16069 5db1 91       		.byte	0x91
 16070 5db2 70       		.sleb128 -16
 16071 5db3 00       		.byte	0
 16072 5db4 41       		.uleb128 0x41
 16073 5db5 2A000000 		.4byte	.LVL145
 16074 5db9 2A610000 		.4byte	0x612a
 16075 5dbd 3B       		.uleb128 0x3b
 16076 5dbe 01       		.uleb128 0x1
 16077 5dbf 50       		.byte	0x50
 16078 5dc0 06       		.uleb128 0x6
 16079 5dc1 74       		.byte	0x74
ARM GAS  /tmp/ccjQGkoy.s 			page 284


 16080 5dc2 00       		.sleb128 0
 16081 5dc3 0A       		.byte	0xa
 16082 5dc4 0003     		.2byte	0x300
 16083 5dc6 21       		.byte	0x21
 16084 5dc7 3B       		.uleb128 0x3b
 16085 5dc8 01       		.uleb128 0x1
 16086 5dc9 51       		.byte	0x51
 16087 5dca 02       		.uleb128 0x2
 16088 5dcb 91       		.byte	0x91
 16089 5dcc 74       		.sleb128 -12
 16090 5dcd 00       		.byte	0
 16091 5dce 00       		.byte	0
 16092 5dcf 58       		.uleb128 0x58
 16093 5dd0 6F330000 		.4byte	.LASF1052
 16094 5dd4 01       		.byte	0x1
 16095 5dd5 2401     		.2byte	0x124
 16096 5dd7 00000000 		.4byte	.LFB264
 16097 5ddb 3C000000 		.4byte	.LFE264-.LFB264
 16098 5ddf 01       		.uleb128 0x1
 16099 5de0 9C       		.byte	0x9c
 16100 5de1 6F5E0000 		.4byte	0x5e6f
 16101 5de5 38       		.uleb128 0x38
 16102 5de6 243A0000 		.4byte	.LASF601
 16103 5dea 01       		.byte	0x1
 16104 5deb 2401     		.2byte	0x124
 16105 5ded 44090000 		.4byte	0x944
 16106 5df1 8F0C0000 		.4byte	.LLST49
 16107 5df5 38       		.uleb128 0x38
 16108 5df6 5B200000 		.4byte	.LASF647
 16109 5dfa 01       		.byte	0x1
 16110 5dfb 2401     		.2byte	0x124
 16111 5dfd 25000000 		.4byte	0x25
 16112 5e01 B00C0000 		.4byte	.LLST50
 16113 5e05 3E       		.uleb128 0x3e
 16114 5e06 28320000 		.4byte	.LASF1007
 16115 5e0a 01       		.byte	0x1
 16116 5e0b 2501     		.2byte	0x125
 16117 5e0d 6F090000 		.4byte	0x96f
 16118 5e11 02       		.uleb128 0x2
 16119 5e12 91       		.byte	0x91
 16120 5e13 70       		.sleb128 -16
 16121 5e14 3E       		.uleb128 0x3e
 16122 5e15 5F2A0000 		.4byte	.LASF1008
 16123 5e19 01       		.byte	0x1
 16124 5e1a 2601     		.2byte	0x126
 16125 5e1c FB3F0000 		.4byte	0x3ffb
 16126 5e20 02       		.uleb128 0x2
 16127 5e21 91       		.byte	0x91
 16128 5e22 74       		.sleb128 -12
 16129 5e23 40       		.uleb128 0x40
 16130 5e24 24000000 		.4byte	.LVL140
 16131 5e28 84670000 		.4byte	0x6784
 16132 5e2c 545E0000 		.4byte	0x5e54
 16133 5e30 3B       		.uleb128 0x3b
 16134 5e31 01       		.uleb128 0x1
 16135 5e32 50       		.byte	0x50
 16136 5e33 02       		.uleb128 0x2
ARM GAS  /tmp/ccjQGkoy.s 			page 285


 16137 5e34 91       		.byte	0x91
 16138 5e35 74       		.sleb128 -12
 16139 5e36 3B       		.uleb128 0x3b
 16140 5e37 01       		.uleb128 0x1
 16141 5e38 51       		.byte	0x51
 16142 5e39 13       		.uleb128 0x13
 16143 5e3a F3       		.byte	0xf3
 16144 5e3b 03       		.uleb128 0x3
 16145 5e3c F5       		.byte	0xf5
 16146 5e3d 40       		.uleb128 0x40
 16147 5e3e 25       		.uleb128 0x25
 16148 5e3f F4       		.byte	0xf4
 16149 5e40 25       		.uleb128 0x25
 16150 5e41 04       		.byte	0x4
 16151 5e42 00007A44 		.4byte	0x447a0000
 16152 5e46 1E       		.byte	0x1e
 16153 5e47 F7       		.byte	0xf7
 16154 5e48 25       		.uleb128 0x25
 16155 5e49 F7       		.byte	0xf7
 16156 5e4a 2C       		.uleb128 0x2c
 16157 5e4b F7       		.byte	0xf7
 16158 5e4c 00       		.uleb128 0
 16159 5e4d 3B       		.uleb128 0x3b
 16160 5e4e 01       		.uleb128 0x1
 16161 5e4f 52       		.byte	0x52
 16162 5e50 02       		.uleb128 0x2
 16163 5e51 91       		.byte	0x91
 16164 5e52 70       		.sleb128 -16
 16165 5e53 00       		.byte	0
 16166 5e54 41       		.uleb128 0x41
 16167 5e55 32000000 		.4byte	.LVL141
 16168 5e59 2A610000 		.4byte	0x612a
 16169 5e5d 3B       		.uleb128 0x3b
 16170 5e5e 01       		.uleb128 0x1
 16171 5e5f 50       		.byte	0x50
 16172 5e60 06       		.uleb128 0x6
 16173 5e61 74       		.byte	0x74
 16174 5e62 00       		.sleb128 0
 16175 5e63 0A       		.byte	0xa
 16176 5e64 0002     		.2byte	0x200
 16177 5e66 21       		.byte	0x21
 16178 5e67 3B       		.uleb128 0x3b
 16179 5e68 01       		.uleb128 0x1
 16180 5e69 51       		.byte	0x51
 16181 5e6a 02       		.uleb128 0x2
 16182 5e6b 91       		.byte	0x91
 16183 5e6c 74       		.sleb128 -12
 16184 5e6d 00       		.byte	0
 16185 5e6e 00       		.byte	0
 16186 5e6f 58       		.uleb128 0x58
 16187 5e70 D5250000 		.4byte	.LASF1053
 16188 5e74 01       		.byte	0x1
 16189 5e75 1C01     		.2byte	0x11c
 16190 5e77 00000000 		.4byte	.LFB263
 16191 5e7b 3C000000 		.4byte	.LFE263-.LFB263
 16192 5e7f 01       		.uleb128 0x1
 16193 5e80 9C       		.byte	0x9c
ARM GAS  /tmp/ccjQGkoy.s 			page 286


 16194 5e81 0F5F0000 		.4byte	0x5f0f
 16195 5e85 38       		.uleb128 0x38
 16196 5e86 243A0000 		.4byte	.LASF601
 16197 5e8a 01       		.byte	0x1
 16198 5e8b 1C01     		.2byte	0x11c
 16199 5e8d 44090000 		.4byte	0x944
 16200 5e91 D40C0000 		.4byte	.LLST47
 16201 5e95 38       		.uleb128 0x38
 16202 5e96 5B200000 		.4byte	.LASF647
 16203 5e9a 01       		.byte	0x1
 16204 5e9b 1C01     		.2byte	0x11c
 16205 5e9d 25000000 		.4byte	0x25
 16206 5ea1 F50C0000 		.4byte	.LLST48
 16207 5ea5 3E       		.uleb128 0x3e
 16208 5ea6 28320000 		.4byte	.LASF1007
 16209 5eaa 01       		.byte	0x1
 16210 5eab 1D01     		.2byte	0x11d
 16211 5ead 6F090000 		.4byte	0x96f
 16212 5eb1 02       		.uleb128 0x2
 16213 5eb2 91       		.byte	0x91
 16214 5eb3 70       		.sleb128 -16
 16215 5eb4 3E       		.uleb128 0x3e
 16216 5eb5 5F2A0000 		.4byte	.LASF1008
 16217 5eb9 01       		.byte	0x1
 16218 5eba 1E01     		.2byte	0x11e
 16219 5ebc FB3F0000 		.4byte	0x3ffb
 16220 5ec0 02       		.uleb128 0x2
 16221 5ec1 91       		.byte	0x91
 16222 5ec2 74       		.sleb128 -12
 16223 5ec3 40       		.uleb128 0x40
 16224 5ec4 24000000 		.4byte	.LVL135
 16225 5ec8 84670000 		.4byte	0x6784
 16226 5ecc F45E0000 		.4byte	0x5ef4
 16227 5ed0 3B       		.uleb128 0x3b
 16228 5ed1 01       		.uleb128 0x1
 16229 5ed2 50       		.byte	0x50
 16230 5ed3 02       		.uleb128 0x2
 16231 5ed4 91       		.byte	0x91
 16232 5ed5 74       		.sleb128 -12
 16233 5ed6 3B       		.uleb128 0x3b
 16234 5ed7 01       		.uleb128 0x1
 16235 5ed8 51       		.byte	0x51
 16236 5ed9 13       		.uleb128 0x13
 16237 5eda F3       		.byte	0xf3
 16238 5edb 03       		.uleb128 0x3
 16239 5edc F5       		.byte	0xf5
 16240 5edd 40       		.uleb128 0x40
 16241 5ede 25       		.uleb128 0x25
 16242 5edf F4       		.byte	0xf4
 16243 5ee0 25       		.uleb128 0x25
 16244 5ee1 04       		.byte	0x4
 16245 5ee2 00007A44 		.4byte	0x447a0000
 16246 5ee6 1E       		.byte	0x1e
 16247 5ee7 F7       		.byte	0xf7
 16248 5ee8 25       		.uleb128 0x25
 16249 5ee9 F7       		.byte	0xf7
 16250 5eea 2C       		.uleb128 0x2c
ARM GAS  /tmp/ccjQGkoy.s 			page 287


 16251 5eeb F7       		.byte	0xf7
 16252 5eec 00       		.uleb128 0
 16253 5eed 3B       		.uleb128 0x3b
 16254 5eee 01       		.uleb128 0x1
 16255 5eef 52       		.byte	0x52
 16256 5ef0 02       		.uleb128 0x2
 16257 5ef1 91       		.byte	0x91
 16258 5ef2 70       		.sleb128 -16
 16259 5ef3 00       		.byte	0
 16260 5ef4 41       		.uleb128 0x41
 16261 5ef5 32000000 		.4byte	.LVL136
 16262 5ef9 2A610000 		.4byte	0x612a
 16263 5efd 3B       		.uleb128 0x3b
 16264 5efe 01       		.uleb128 0x1
 16265 5eff 50       		.byte	0x50
 16266 5f00 06       		.uleb128 0x6
 16267 5f01 74       		.byte	0x74
 16268 5f02 00       		.sleb128 0
 16269 5f03 0A       		.byte	0xa
 16270 5f04 0001     		.2byte	0x100
 16271 5f06 21       		.byte	0x21
 16272 5f07 3B       		.uleb128 0x3b
 16273 5f08 01       		.uleb128 0x1
 16274 5f09 51       		.byte	0x51
 16275 5f0a 02       		.uleb128 0x2
 16276 5f0b 91       		.byte	0x91
 16277 5f0c 74       		.sleb128 -12
 16278 5f0d 00       		.byte	0
 16279 5f0e 00       		.byte	0
 16280 5f0f 58       		.uleb128 0x58
 16281 5f10 38050000 		.4byte	.LASF1054
 16282 5f14 01       		.byte	0x1
 16283 5f15 1401     		.2byte	0x114
 16284 5f17 00000000 		.4byte	.LFB262
 16285 5f1b 38000000 		.4byte	.LFE262-.LFB262
 16286 5f1f 01       		.uleb128 0x1
 16287 5f20 9C       		.byte	0x9c
 16288 5f21 AB5F0000 		.4byte	0x5fab
 16289 5f25 38       		.uleb128 0x38
 16290 5f26 243A0000 		.4byte	.LASF601
 16291 5f2a 01       		.byte	0x1
 16292 5f2b 1401     		.2byte	0x114
 16293 5f2d 44090000 		.4byte	0x944
 16294 5f31 190D0000 		.4byte	.LLST45
 16295 5f35 38       		.uleb128 0x38
 16296 5f36 DC2A0000 		.4byte	.LASF648
 16297 5f3a 01       		.byte	0x1
 16298 5f3b 1401     		.2byte	0x114
 16299 5f3d 25000000 		.4byte	0x25
 16300 5f41 3A0D0000 		.4byte	.LLST46
 16301 5f45 3E       		.uleb128 0x3e
 16302 5f46 28320000 		.4byte	.LASF1007
 16303 5f4a 01       		.byte	0x1
 16304 5f4b 1501     		.2byte	0x115
 16305 5f4d 6F090000 		.4byte	0x96f
 16306 5f51 02       		.uleb128 0x2
 16307 5f52 91       		.byte	0x91
ARM GAS  /tmp/ccjQGkoy.s 			page 288


 16308 5f53 70       		.sleb128 -16
 16309 5f54 3E       		.uleb128 0x3e
 16310 5f55 5F2A0000 		.4byte	.LASF1008
 16311 5f59 01       		.byte	0x1
 16312 5f5a 1601     		.2byte	0x116
 16313 5f5c FB3F0000 		.4byte	0x3ffb
 16314 5f60 02       		.uleb128 0x2
 16315 5f61 91       		.byte	0x91
 16316 5f62 74       		.sleb128 -12
 16317 5f63 40       		.uleb128 0x40
 16318 5f64 24000000 		.4byte	.LVL130
 16319 5f68 84670000 		.4byte	0x6784
 16320 5f6c 945F0000 		.4byte	0x5f94
 16321 5f70 3B       		.uleb128 0x3b
 16322 5f71 01       		.uleb128 0x1
 16323 5f72 50       		.byte	0x50
 16324 5f73 02       		.uleb128 0x2
 16325 5f74 91       		.byte	0x91
 16326 5f75 74       		.sleb128 -12
 16327 5f76 3B       		.uleb128 0x3b
 16328 5f77 01       		.uleb128 0x1
 16329 5f78 51       		.byte	0x51
 16330 5f79 13       		.uleb128 0x13
 16331 5f7a F3       		.byte	0xf3
 16332 5f7b 03       		.uleb128 0x3
 16333 5f7c F5       		.byte	0xf5
 16334 5f7d 40       		.uleb128 0x40
 16335 5f7e 25       		.uleb128 0x25
 16336 5f7f F4       		.byte	0xf4
 16337 5f80 25       		.uleb128 0x25
 16338 5f81 04       		.byte	0x4
 16339 5f82 0050C347 		.4byte	0x47c35000
 16340 5f86 1E       		.byte	0x1e
 16341 5f87 F7       		.byte	0xf7
 16342 5f88 25       		.uleb128 0x25
 16343 5f89 F7       		.byte	0xf7
 16344 5f8a 2C       		.uleb128 0x2c
 16345 5f8b F7       		.byte	0xf7
 16346 5f8c 00       		.uleb128 0
 16347 5f8d 3B       		.uleb128 0x3b
 16348 5f8e 01       		.uleb128 0x1
 16349 5f8f 52       		.byte	0x52
 16350 5f90 02       		.uleb128 0x2
 16351 5f91 91       		.byte	0x91
 16352 5f92 70       		.sleb128 -16
 16353 5f93 00       		.byte	0
 16354 5f94 41       		.uleb128 0x41
 16355 5f95 30000000 		.4byte	.LVL131
 16356 5f99 2A610000 		.4byte	0x612a
 16357 5f9d 3B       		.uleb128 0x3b
 16358 5f9e 01       		.uleb128 0x1
 16359 5f9f 50       		.byte	0x50
 16360 5fa0 02       		.uleb128 0x2
 16361 5fa1 74       		.byte	0x74
 16362 5fa2 00       		.sleb128 0
 16363 5fa3 3B       		.uleb128 0x3b
 16364 5fa4 01       		.uleb128 0x1
ARM GAS  /tmp/ccjQGkoy.s 			page 289


 16365 5fa5 51       		.byte	0x51
 16366 5fa6 02       		.uleb128 0x2
 16367 5fa7 91       		.byte	0x91
 16368 5fa8 74       		.sleb128 -12
 16369 5fa9 00       		.byte	0
 16370 5faa 00       		.byte	0
 16371 5fab 5A       		.uleb128 0x5a
 16372 5fac 772B0000 		.4byte	.LASF1145
 16373 5fb0 01       		.byte	0x1
 16374 5fb1 D4       		.byte	0xd4
 16375 5fb2 01       		.byte	0x1
 16376 5fb3 59600000 		.4byte	0x6059
 16377 5fb7 5B       		.uleb128 0x5b
 16378 5fb8 243A0000 		.4byte	.LASF601
 16379 5fbc 01       		.byte	0x1
 16380 5fbd D4       		.byte	0xd4
 16381 5fbe 44090000 		.4byte	0x944
 16382 5fc2 5B       		.uleb128 0x5b
 16383 5fc3 A12E0000 		.4byte	.LASF1002
 16384 5fc7 01       		.byte	0x1
 16385 5fc8 D4       		.byte	0xd4
 16386 5fc9 B2160000 		.4byte	0x16b2
 16387 5fcd 5C       		.uleb128 0x5c
 16388 5fce 6C656E00 		.ascii	"len\000"
 16389 5fd2 01       		.byte	0x1
 16390 5fd3 D4       		.byte	0xd4
 16391 5fd4 48000000 		.4byte	0x48
 16392 5fd8 5B       		.uleb128 0x5b
 16393 5fd9 4D2C0000 		.4byte	.LASF1055
 16394 5fdd 01       		.byte	0x1
 16395 5fde D4       		.byte	0xd4
 16396 5fdf 44090000 		.4byte	0x944
 16397 5fe3 5D       		.uleb128 0x5d
 16398 5fe4 E2330000 		.4byte	.LASF1056
 16399 5fe8 01       		.byte	0x1
 16400 5fe9 D5       		.byte	0xd5
 16401 5fea 211F0000 		.4byte	0x1f21
 16402 5fee 5E       		.uleb128 0x5e
 16403 5fef FF5F0000 		.4byte	0x5fff
 16404 5ff3 5F       		.uleb128 0x5f
 16405 5ff4 696E6400 		.ascii	"ind\000"
 16406 5ff8 01       		.byte	0x1
 16407 5ff9 D8       		.byte	0xd8
 16408 5ffa 7F090000 		.4byte	0x97f
 16409 5ffe 00       		.byte	0
 16410 5fff 60       		.uleb128 0x60
 16411 6000 5D       		.uleb128 0x5d
 16412 6001 58230000 		.4byte	.LASF1057
 16413 6005 01       		.byte	0x1
 16414 6006 E0       		.byte	0xe0
 16415 6007 48000000 		.4byte	0x48
 16416 600b 61       		.uleb128 0x61
 16417 600c 696E6400 		.ascii	"ind\000"
 16418 6010 01       		.byte	0x1
 16419 6011 0601     		.2byte	0x106
 16420 6013 7F090000 		.4byte	0x97f
 16421 6017 61       		.uleb128 0x61
ARM GAS  /tmp/ccjQGkoy.s 			page 290


 16422 6018 63726300 		.ascii	"crc\000"
 16423 601c 01       		.byte	0x1
 16424 601d 0B01     		.2byte	0x10b
 16425 601f 90000000 		.4byte	0x90
 16426 6023 5E       		.uleb128 0x5e
 16427 6024 3F600000 		.4byte	0x603f
 16428 6028 5F       		.uleb128 0x5f
 16429 6029 6900     		.ascii	"i\000"
 16430 602b 01       		.byte	0x1
 16431 602c E1       		.byte	0xe1
 16432 602d 48000000 		.4byte	0x48
 16433 6031 60       		.uleb128 0x60
 16434 6032 5D       		.uleb128 0x5d
 16435 6033 8D0C0000 		.4byte	.LASF1058
 16436 6037 01       		.byte	0x1
 16437 6038 E8       		.byte	0xe8
 16438 6039 44090000 		.4byte	0x944
 16439 603d 00       		.byte	0
 16440 603e 00       		.byte	0
 16441 603f 60       		.uleb128 0x60
 16442 6040 5F       		.uleb128 0x5f
 16443 6041 6900     		.ascii	"i\000"
 16444 6043 01       		.byte	0x1
 16445 6044 F6       		.byte	0xf6
 16446 6045 48000000 		.4byte	0x48
 16447 6049 60       		.uleb128 0x60
 16448 604a 5D       		.uleb128 0x5d
 16449 604b 8D0C0000 		.4byte	.LASF1058
 16450 604f 01       		.byte	0x1
 16451 6050 F7       		.byte	0xf7
 16452 6051 44090000 		.4byte	0x944
 16453 6055 00       		.byte	0
 16454 6056 00       		.byte	0
 16455 6057 00       		.byte	0
 16456 6058 00       		.byte	0
 16457 6059 62       		.uleb128 0x62
 16458 605a 15150000 		.4byte	.LASF1059
 16459 605e 01       		.byte	0x1
 16460 605f BC       		.byte	0xbc
 16461 6060 00000000 		.4byte	.LFB260
 16462 6064 0C000000 		.4byte	.LFE260-.LFB260
 16463 6068 01       		.uleb128 0x1
 16464 6069 9C       		.byte	0x9c
 16465 606a 7C600000 		.4byte	0x607c
 16466 606e 63       		.uleb128 0x63
 16467 606f 0D3B0000 		.4byte	.LASF1060
 16468 6073 01       		.byte	0x1
 16469 6074 BC       		.byte	0xbc
 16470 6075 78420000 		.4byte	0x4278
 16471 6079 01       		.uleb128 0x1
 16472 607a 50       		.byte	0x50
 16473 607b 00       		.byte	0
 16474 607c 62       		.uleb128 0x62
 16475 607d E8370000 		.4byte	.LASF1061
 16476 6081 01       		.byte	0x1
 16477 6082 9F       		.byte	0x9f
 16478 6083 00000000 		.4byte	.LFB259
ARM GAS  /tmp/ccjQGkoy.s 			page 291


 16479 6087 54000000 		.4byte	.LFE259-.LFB259
 16480 608b 01       		.uleb128 0x1
 16481 608c 9C       		.byte	0x9c
 16482 608d 2A610000 		.4byte	0x612a
 16483 6091 64       		.uleb128 0x64
 16484 6092 696400   		.ascii	"id\000"
 16485 6095 01       		.byte	0x1
 16486 6096 9F       		.byte	0x9f
 16487 6097 7F090000 		.4byte	0x97f
 16488 609b 5E0D0000 		.4byte	.LLST28
 16489 609f 65       		.uleb128 0x65
 16490 60a0 A12E0000 		.4byte	.LASF1002
 16491 60a4 01       		.byte	0x1
 16492 60a5 9F       		.byte	0x9f
 16493 60a6 B2160000 		.4byte	0x16b2
 16494 60aa 7F0D0000 		.4byte	.LLST29
 16495 60ae 64       		.uleb128 0x64
 16496 60af 6C656E00 		.ascii	"len\000"
 16497 60b3 01       		.byte	0x1
 16498 60b4 9F       		.byte	0x9f
 16499 60b5 44090000 		.4byte	0x944
 16500 60b9 A00D0000 		.4byte	.LLST30
 16501 60bd 34       		.uleb128 0x34
 16502 60be 073B0000 		.4byte	.LASF1062
 16503 60c2 01       		.byte	0x1
 16504 60c3 A5       		.byte	0xa5
 16505 60c4 1F2C0000 		.4byte	0x2c1f
 16506 60c8 02       		.uleb128 0x2
 16507 60c9 91       		.byte	0x91
 16508 60ca 60       		.sleb128 -32
 16509 60cb 40       		.uleb128 0x40
 16510 60cc 30000000 		.4byte	.LVL83
 16511 60d0 1E680000 		.4byte	0x681e
 16512 60d4 E6600000 		.4byte	0x60e6
 16513 60d8 3B       		.uleb128 0x3b
 16514 60d9 01       		.uleb128 0x1
 16515 60da 50       		.byte	0x50
 16516 60db 02       		.uleb128 0x2
 16517 60dc 91       		.byte	0x91
 16518 60dd 68       		.sleb128 -24
 16519 60de 3B       		.uleb128 0x3b
 16520 60df 01       		.uleb128 0x1
 16521 60e0 51       		.byte	0x51
 16522 60e1 03       		.uleb128 0x3
 16523 60e2 F3       		.byte	0xf3
 16524 60e3 01       		.uleb128 0x1
 16525 60e4 51       		.byte	0x51
 16526 60e5 00       		.byte	0
 16527 60e6 40       		.uleb128 0x40
 16528 60e7 36000000 		.4byte	.LVL84
 16529 60eb 56690000 		.4byte	0x6956
 16530 60ef FA600000 		.4byte	0x60fa
 16531 60f3 3B       		.uleb128 0x3b
 16532 60f4 01       		.uleb128 0x1
 16533 60f5 50       		.byte	0x50
 16534 60f6 02       		.uleb128 0x2
 16535 60f7 75       		.byte	0x75
ARM GAS  /tmp/ccjQGkoy.s 			page 292


 16536 60f8 00       		.sleb128 0
 16537 60f9 00       		.byte	0
 16538 60fa 40       		.uleb128 0x40
 16539 60fb 42000000 		.4byte	.LVL85
 16540 60ff 98690000 		.4byte	0x6998
 16541 6103 19610000 		.4byte	0x6119
 16542 6107 3B       		.uleb128 0x3b
 16543 6108 01       		.uleb128 0x1
 16544 6109 51       		.byte	0x51
 16545 610a 01       		.uleb128 0x1
 16546 610b 30       		.byte	0x30
 16547 610c 3B       		.uleb128 0x3b
 16548 610d 01       		.uleb128 0x1
 16549 610e 52       		.byte	0x52
 16550 610f 02       		.uleb128 0x2
 16551 6110 74       		.byte	0x74
 16552 6111 00       		.sleb128 0
 16553 6112 3B       		.uleb128 0x3b
 16554 6113 01       		.uleb128 0x1
 16555 6114 53       		.byte	0x53
 16556 6115 02       		.uleb128 0x2
 16557 6116 08       		.byte	0x8
 16558 6117 32       		.byte	0x32
 16559 6118 00       		.byte	0
 16560 6119 41       		.uleb128 0x41
 16561 611a 48000000 		.4byte	.LVL86
 16562 611e 61690000 		.4byte	0x6961
 16563 6122 3B       		.uleb128 0x3b
 16564 6123 01       		.uleb128 0x1
 16565 6124 50       		.byte	0x50
 16566 6125 02       		.uleb128 0x2
 16567 6126 75       		.byte	0x75
 16568 6127 00       		.sleb128 0
 16569 6128 00       		.byte	0
 16570 6129 00       		.byte	0
 16571 612a 62       		.uleb128 0x62
 16572 612b 212E0000 		.4byte	.LASF1063
 16573 612f 01       		.byte	0x1
 16574 6130 88       		.byte	0x88
 16575 6131 00000000 		.4byte	.LFB258
 16576 6135 54000000 		.4byte	.LFE258-.LFB258
 16577 6139 01       		.uleb128 0x1
 16578 613a 9C       		.byte	0x9c
 16579 613b D8610000 		.4byte	0x61d8
 16580 613f 64       		.uleb128 0x64
 16581 6140 696400   		.ascii	"id\000"
 16582 6143 01       		.byte	0x1
 16583 6144 88       		.byte	0x88
 16584 6145 7F090000 		.4byte	0x97f
 16585 6149 BE0D0000 		.4byte	.LLST22
 16586 614d 65       		.uleb128 0x65
 16587 614e A12E0000 		.4byte	.LASF1002
 16588 6152 01       		.byte	0x1
 16589 6153 88       		.byte	0x88
 16590 6154 E7160000 		.4byte	0x16e7
 16591 6158 DF0D0000 		.4byte	.LLST23
 16592 615c 64       		.uleb128 0x64
ARM GAS  /tmp/ccjQGkoy.s 			page 293


 16593 615d 6C656E00 		.ascii	"len\000"
 16594 6161 01       		.byte	0x1
 16595 6162 88       		.byte	0x88
 16596 6163 44090000 		.4byte	0x944
 16597 6167 000E0000 		.4byte	.LLST24
 16598 616b 34       		.uleb128 0x34
 16599 616c 073B0000 		.4byte	.LASF1062
 16600 6170 01       		.byte	0x1
 16601 6171 8E       		.byte	0x8e
 16602 6172 1F2C0000 		.4byte	0x2c1f
 16603 6176 02       		.uleb128 0x2
 16604 6177 91       		.byte	0x91
 16605 6178 60       		.sleb128 -32
 16606 6179 40       		.uleb128 0x40
 16607 617a 30000000 		.4byte	.LVL41
 16608 617e 1E680000 		.4byte	0x681e
 16609 6182 94610000 		.4byte	0x6194
 16610 6186 3B       		.uleb128 0x3b
 16611 6187 01       		.uleb128 0x1
 16612 6188 50       		.byte	0x50
 16613 6189 02       		.uleb128 0x2
 16614 618a 91       		.byte	0x91
 16615 618b 68       		.sleb128 -24
 16616 618c 3B       		.uleb128 0x3b
 16617 618d 01       		.uleb128 0x1
 16618 618e 51       		.byte	0x51
 16619 618f 03       		.uleb128 0x3
 16620 6190 F3       		.byte	0xf3
 16621 6191 01       		.uleb128 0x1
 16622 6192 51       		.byte	0x51
 16623 6193 00       		.byte	0
 16624 6194 40       		.uleb128 0x40
 16625 6195 36000000 		.4byte	.LVL42
 16626 6199 56690000 		.4byte	0x6956
 16627 619d A8610000 		.4byte	0x61a8
 16628 61a1 3B       		.uleb128 0x3b
 16629 61a2 01       		.uleb128 0x1
 16630 61a3 50       		.byte	0x50
 16631 61a4 02       		.uleb128 0x2
 16632 61a5 75       		.byte	0x75
 16633 61a6 00       		.sleb128 0
 16634 61a7 00       		.byte	0
 16635 61a8 40       		.uleb128 0x40
 16636 61a9 42000000 		.4byte	.LVL43
 16637 61ad 98690000 		.4byte	0x6998
 16638 61b1 C7610000 		.4byte	0x61c7
 16639 61b5 3B       		.uleb128 0x3b
 16640 61b6 01       		.uleb128 0x1
 16641 61b7 51       		.byte	0x51
 16642 61b8 01       		.uleb128 0x1
 16643 61b9 30       		.byte	0x30
 16644 61ba 3B       		.uleb128 0x3b
 16645 61bb 01       		.uleb128 0x1
 16646 61bc 52       		.byte	0x52
 16647 61bd 02       		.uleb128 0x2
 16648 61be 74       		.byte	0x74
 16649 61bf 00       		.sleb128 0
ARM GAS  /tmp/ccjQGkoy.s 			page 294


 16650 61c0 3B       		.uleb128 0x3b
 16651 61c1 01       		.uleb128 0x1
 16652 61c2 53       		.byte	0x53
 16653 61c3 02       		.uleb128 0x2
 16654 61c4 08       		.byte	0x8
 16655 61c5 32       		.byte	0x32
 16656 61c6 00       		.byte	0
 16657 61c7 41       		.uleb128 0x41
 16658 61c8 48000000 		.4byte	.LVL44
 16659 61cc 61690000 		.4byte	0x6961
 16660 61d0 3B       		.uleb128 0x3b
 16661 61d1 01       		.uleb128 0x1
 16662 61d2 50       		.byte	0x50
 16663 61d3 02       		.uleb128 0x2
 16664 61d4 75       		.byte	0x75
 16665 61d5 00       		.sleb128 0
 16666 61d6 00       		.byte	0
 16667 61d7 00       		.byte	0
 16668 61d8 62       		.uleb128 0x62
 16669 61d9 D4180000 		.4byte	.LASF1064
 16670 61dd 01       		.byte	0x1
 16671 61de 7E       		.byte	0x7e
 16672 61df 00000000 		.4byte	.LFB257
 16673 61e3 54000000 		.4byte	.LFE257-.LFB257
 16674 61e7 01       		.uleb128 0x1
 16675 61e8 9C       		.byte	0x9c
 16676 61e9 D1620000 		.4byte	0x62d1
 16677 61ed 65       		.uleb128 0x65
 16678 61ee D1310000 		.4byte	.LASF1065
 16679 61f2 01       		.byte	0x1
 16680 61f3 7E       		.byte	0x7e
 16681 61f4 D7180000 		.4byte	0x18d7
 16682 61f8 1E0E0000 		.4byte	.LLST9
 16683 61fc 66       		.uleb128 0x66
 16684 61fd 7E420000 		.4byte	0x427e
 16685 6201 0E000000 		.4byte	.LBB154
 16686 6205 60000000 		.4byte	.Ldebug_ranges0+0x60
 16687 6209 01       		.byte	0x1
 16688 620a 83       		.byte	0x83
 16689 620b 47620000 		.4byte	0x6247
 16690 620f 4D       		.uleb128 0x4d
 16691 6210 A3420000 		.4byte	0x42a3
 16692 6214 4A0E0000 		.4byte	.LLST10
 16693 6218 4D       		.uleb128 0x4d
 16694 6219 97420000 		.4byte	0x4297
 16695 621d 5E0E0000 		.4byte	.LLST11
 16696 6221 4D       		.uleb128 0x4d
 16697 6222 8B420000 		.4byte	0x428b
 16698 6226 4A0E0000 		.4byte	.LLST10
 16699 622a 3F       		.uleb128 0x3f
 16700 622b 1A000000 		.4byte	.LVL33
 16701 622f A3690000 		.4byte	0x69a3
 16702 6233 3A       		.uleb128 0x3a
 16703 6234 26000000 		.4byte	.LVL34
 16704 6238 AE690000 		.4byte	0x69ae
 16705 623c 3B       		.uleb128 0x3b
 16706 623d 01       		.uleb128 0x1
ARM GAS  /tmp/ccjQGkoy.s 			page 295


 16707 623e 51       		.byte	0x51
 16708 623f 05       		.uleb128 0x5
 16709 6240 03       		.byte	0x3
 16710 6241 00000000 		.4byte	.LANCHOR10
 16711 6245 00       		.byte	0
 16712 6246 00       		.byte	0
 16713 6247 4B       		.uleb128 0x4b
 16714 6248 7E420000 		.4byte	0x427e
 16715 624c 26000000 		.4byte	.LBB158
 16716 6250 06000000 		.4byte	.LBE158-.LBB158
 16717 6254 01       		.byte	0x1
 16718 6255 82       		.byte	0x82
 16719 6256 76620000 		.4byte	0x6276
 16720 625a 4D       		.uleb128 0x4d
 16721 625b A3420000 		.4byte	0x42a3
 16722 625f 720E0000 		.4byte	.LLST13
 16723 6263 4D       		.uleb128 0x4d
 16724 6264 97420000 		.4byte	0x4297
 16725 6268 860E0000 		.4byte	.LLST14
 16726 626c 4D       		.uleb128 0x4d
 16727 626d 8B420000 		.4byte	0x428b
 16728 6271 9A0E0000 		.4byte	.LLST15
 16729 6275 00       		.byte	0
 16730 6276 4B       		.uleb128 0x4b
 16731 6277 7E420000 		.4byte	0x427e
 16732 627b 2C000000 		.4byte	.LBB160
 16733 627f 06000000 		.4byte	.LBE160-.LBB160
 16734 6283 01       		.byte	0x1
 16735 6284 81       		.byte	0x81
 16736 6285 A5620000 		.4byte	0x62a5
 16737 6289 4D       		.uleb128 0x4d
 16738 628a A3420000 		.4byte	0x42a3
 16739 628e AE0E0000 		.4byte	.LLST16
 16740 6292 4D       		.uleb128 0x4d
 16741 6293 97420000 		.4byte	0x4297
 16742 6297 C20E0000 		.4byte	.LLST17
 16743 629b 4D       		.uleb128 0x4d
 16744 629c 8B420000 		.4byte	0x428b
 16745 62a0 D60E0000 		.4byte	.LLST18
 16746 62a4 00       		.byte	0
 16747 62a5 4F       		.uleb128 0x4f
 16748 62a6 7E420000 		.4byte	0x427e
 16749 62aa 32000000 		.4byte	.LBB162
 16750 62ae 06000000 		.4byte	.LBE162-.LBB162
 16751 62b2 01       		.byte	0x1
 16752 62b3 80       		.byte	0x80
 16753 62b4 4D       		.uleb128 0x4d
 16754 62b5 A3420000 		.4byte	0x42a3
 16755 62b9 EA0E0000 		.4byte	.LLST19
 16756 62bd 4D       		.uleb128 0x4d
 16757 62be 97420000 		.4byte	0x4297
 16758 62c2 FE0E0000 		.4byte	.LLST20
 16759 62c6 4D       		.uleb128 0x4d
 16760 62c7 8B420000 		.4byte	0x428b
 16761 62cb 120F0000 		.4byte	.LLST21
 16762 62cf 00       		.byte	0
 16763 62d0 00       		.byte	0
ARM GAS  /tmp/ccjQGkoy.s 			page 296


 16764 62d1 62       		.uleb128 0x62
 16765 62d2 90190000 		.4byte	.LASF1066
 16766 62d6 01       		.byte	0x1
 16767 62d7 59       		.byte	0x59
 16768 62d8 00000000 		.4byte	.LFB256
 16769 62dc DC000000 		.4byte	.LFE256-.LFB256
 16770 62e0 01       		.uleb128 0x1
 16771 62e1 9C       		.byte	0x9c
 16772 62e2 32640000 		.4byte	0x6432
 16773 62e6 42       		.uleb128 0x42
 16774 62e7 0E000000 		.4byte	.LBB153
 16775 62eb 16000000 		.4byte	.LBE153-.LBB153
 16776 62ef 01630000 		.4byte	0x6301
 16777 62f3 67       		.uleb128 0x67
 16778 62f4 6900     		.ascii	"i\000"
 16779 62f6 01       		.byte	0x1
 16780 62f7 5A       		.byte	0x5a
 16781 62f8 2C000000 		.4byte	0x2c
 16782 62fc 260F0000 		.4byte	.LLST8
 16783 6300 00       		.byte	0
 16784 6301 40       		.uleb128 0x40
 16785 6302 34000000 		.4byte	.LVL20
 16786 6306 B9690000 		.4byte	0x69b9
 16787 630a 18630000 		.4byte	0x6318
 16788 630e 3B       		.uleb128 0x3b
 16789 630f 01       		.uleb128 0x1
 16790 6310 50       		.byte	0x50
 16791 6311 05       		.uleb128 0x5
 16792 6312 03       		.byte	0x3
 16793 6313 00000000 		.4byte	.LANCHOR9
 16794 6317 00       		.byte	0
 16795 6318 40       		.uleb128 0x40
 16796 6319 3A000000 		.4byte	.LVL21
 16797 631d B9690000 		.4byte	0x69b9
 16798 6321 2F630000 		.4byte	0x632f
 16799 6325 3B       		.uleb128 0x3b
 16800 6326 01       		.uleb128 0x1
 16801 6327 50       		.byte	0x50
 16802 6328 05       		.uleb128 0x5
 16803 6329 03       		.byte	0x3
 16804 632a 00000000 		.4byte	.LANCHOR0
 16805 632e 00       		.byte	0
 16806 632f 40       		.uleb128 0x40
 16807 6330 48000000 		.4byte	.LVL22
 16808 6334 C4690000 		.4byte	0x69c4
 16809 6338 54630000 		.4byte	0x6354
 16810 633c 3B       		.uleb128 0x3b
 16811 633d 01       		.uleb128 0x1
 16812 633e 50       		.byte	0x50
 16813 633f 05       		.uleb128 0x5
 16814 6340 0C       		.byte	0xc
 16815 6341 00040240 		.4byte	0x40020400
 16816 6345 3B       		.uleb128 0x3b
 16817 6346 01       		.uleb128 0x1
 16818 6347 51       		.byte	0x51
 16819 6348 03       		.uleb128 0x3
 16820 6349 0A       		.byte	0xa
ARM GAS  /tmp/ccjQGkoy.s 			page 297


 16821 634a 0001     		.2byte	0x100
 16822 634c 3B       		.uleb128 0x3b
 16823 634d 01       		.uleb128 0x1
 16824 634e 52       		.byte	0x52
 16825 634f 03       		.uleb128 0x3
 16826 6350 0A       		.byte	0xa
 16827 6351 8A04     		.2byte	0x48a
 16828 6353 00       		.byte	0
 16829 6354 40       		.uleb128 0x40
 16830 6355 56000000 		.4byte	.LVL23
 16831 6359 C4690000 		.4byte	0x69c4
 16832 635d 79630000 		.4byte	0x6379
 16833 6361 3B       		.uleb128 0x3b
 16834 6362 01       		.uleb128 0x1
 16835 6363 50       		.byte	0x50
 16836 6364 05       		.uleb128 0x5
 16837 6365 0C       		.byte	0xc
 16838 6366 00040240 		.4byte	0x40020400
 16839 636a 3B       		.uleb128 0x3b
 16840 636b 01       		.uleb128 0x1
 16841 636c 51       		.byte	0x51
 16842 636d 03       		.uleb128 0x3
 16843 636e 0A       		.byte	0xa
 16844 636f 0002     		.2byte	0x200
 16845 6371 3B       		.uleb128 0x3b
 16846 6372 01       		.uleb128 0x1
 16847 6373 52       		.byte	0x52
 16848 6374 03       		.uleb128 0x3
 16849 6375 0A       		.byte	0xa
 16850 6376 8A04     		.2byte	0x48a
 16851 6378 00       		.byte	0
 16852 6379 40       		.uleb128 0x40
 16853 637a 5E000000 		.4byte	.LVL24
 16854 637e AE690000 		.4byte	0x69ae
 16855 6382 90630000 		.4byte	0x6390
 16856 6386 3B       		.uleb128 0x3b
 16857 6387 01       		.uleb128 0x1
 16858 6388 51       		.byte	0x51
 16859 6389 05       		.uleb128 0x5
 16860 638a 03       		.byte	0x3
 16861 638b 00000000 		.4byte	.LANCHOR10
 16862 638f 00       		.byte	0
 16863 6390 3F       		.uleb128 0x3f
 16864 6391 62000000 		.4byte	.LVL25
 16865 6395 D0690000 		.4byte	0x69d0
 16866 6399 40       		.uleb128 0x40
 16867 639a 72000000 		.4byte	.LVL26
 16868 639e DB690000 		.4byte	0x69db
 16869 63a2 CD630000 		.4byte	0x63cd
 16870 63a6 3B       		.uleb128 0x3b
 16871 63a7 01       		.uleb128 0x1
 16872 63a8 50       		.byte	0x50
 16873 63a9 05       		.uleb128 0x5
 16874 63aa 03       		.byte	0x3
 16875 63ab 00000000 		.4byte	.LANCHOR11
 16876 63af 3B       		.uleb128 0x3b
 16877 63b0 01       		.uleb128 0x1
ARM GAS  /tmp/ccjQGkoy.s 			page 298


 16878 63b1 51       		.byte	0x51
 16879 63b2 03       		.uleb128 0x3
 16880 63b3 0A       		.byte	0xa
 16881 63b4 9803     		.2byte	0x398
 16882 63b6 3B       		.uleb128 0x3b
 16883 63b7 01       		.uleb128 0x1
 16884 63b8 52       		.byte	0x52
 16885 63b9 02       		.uleb128 0x2
 16886 63ba 08       		.byte	0x8
 16887 63bb 41       		.byte	0x41
 16888 63bc 3B       		.uleb128 0x3b
 16889 63bd 01       		.uleb128 0x1
 16890 63be 53       		.byte	0x53
 16891 63bf 05       		.uleb128 0x5
 16892 63c0 03       		.byte	0x3
 16893 63c1 00000000 		.4byte	cancom_read_thread
 16894 63c5 3B       		.uleb128 0x3b
 16895 63c6 02       		.uleb128 0x2
 16896 63c7 7D       		.byte	0x7d
 16897 63c8 00       		.sleb128 0
 16898 63c9 02       		.uleb128 0x2
 16899 63ca 74       		.byte	0x74
 16900 63cb 00       		.sleb128 0
 16901 63cc 00       		.byte	0
 16902 63cd 40       		.uleb128 0x40
 16903 63ce 82000000 		.4byte	.LVL27
 16904 63d2 DB690000 		.4byte	0x69db
 16905 63d6 01640000 		.4byte	0x6401
 16906 63da 3B       		.uleb128 0x3b
 16907 63db 01       		.uleb128 0x1
 16908 63dc 50       		.byte	0x50
 16909 63dd 05       		.uleb128 0x5
 16910 63de 03       		.byte	0x3
 16911 63df 00000000 		.4byte	.LANCHOR12
 16912 63e3 3B       		.uleb128 0x3b
 16913 63e4 01       		.uleb128 0x1
 16914 63e5 51       		.byte	0x51
 16915 63e6 03       		.uleb128 0x3
 16916 63e7 0A       		.byte	0xa
 16917 63e8 9805     		.2byte	0x598
 16918 63ea 3B       		.uleb128 0x3b
 16919 63eb 01       		.uleb128 0x1
 16920 63ec 52       		.byte	0x52
 16921 63ed 02       		.uleb128 0x2
 16922 63ee 08       		.byte	0x8
 16923 63ef 40       		.byte	0x40
 16924 63f0 3B       		.uleb128 0x3b
 16925 63f1 01       		.uleb128 0x1
 16926 63f2 53       		.byte	0x53
 16927 63f3 05       		.uleb128 0x5
 16928 63f4 03       		.byte	0x3
 16929 63f5 00000000 		.4byte	cancom_status_thread
 16930 63f9 3B       		.uleb128 0x3b
 16931 63fa 02       		.uleb128 0x2
 16932 63fb 7D       		.byte	0x7d
 16933 63fc 00       		.sleb128 0
 16934 63fd 02       		.uleb128 0x2
ARM GAS  /tmp/ccjQGkoy.s 			page 299


 16935 63fe 74       		.byte	0x74
 16936 63ff 00       		.sleb128 0
 16937 6400 00       		.byte	0
 16938 6401 41       		.uleb128 0x41
 16939 6402 92000000 		.4byte	.LVL28
 16940 6406 DB690000 		.4byte	0x69db
 16941 640a 3B       		.uleb128 0x3b
 16942 640b 01       		.uleb128 0x1
 16943 640c 50       		.byte	0x50
 16944 640d 05       		.uleb128 0x5
 16945 640e 03       		.byte	0x3
 16946 640f 00000000 		.4byte	cancom_process_thread_wa
 16947 6413 3B       		.uleb128 0x3b
 16948 6414 01       		.uleb128 0x1
 16949 6415 51       		.byte	0x51
 16950 6416 03       		.uleb128 0x3
 16951 6417 0A       		.byte	0xa
 16952 6418 9811     		.2byte	0x1198
 16953 641a 3B       		.uleb128 0x3b
 16954 641b 01       		.uleb128 0x1
 16955 641c 52       		.byte	0x52
 16956 641d 02       		.uleb128 0x2
 16957 641e 08       		.byte	0x8
 16958 641f 40       		.byte	0x40
 16959 6420 3B       		.uleb128 0x3b
 16960 6421 01       		.uleb128 0x1
 16961 6422 53       		.byte	0x53
 16962 6423 05       		.uleb128 0x5
 16963 6424 03       		.byte	0x3
 16964 6425 00000000 		.4byte	cancom_process_thread
 16965 6429 3B       		.uleb128 0x3b
 16966 642a 02       		.uleb128 0x2
 16967 642b 7D       		.byte	0x7d
 16968 642c 00       		.sleb128 0
 16969 642d 02       		.uleb128 0x2
 16970 642e 74       		.byte	0x74
 16971 642f 00       		.sleb128 0
 16972 6430 00       		.byte	0
 16973 6431 00       		.byte	0
 16974 6432 68       		.uleb128 0x68
 16975 6433 A03C0000 		.4byte	.LASF1068
 16976 6437 03       		.byte	0x3
 16977 6438 D1       		.byte	0xd1
 16978 6439 03       		.byte	0x3
 16979 643a 60640000 		.4byte	0x6460
 16980 643e 5C       		.uleb128 0x5c
 16981 643f 65737000 		.ascii	"esp\000"
 16982 6443 03       		.byte	0x3
 16983 6444 D1       		.byte	0xd1
 16984 6445 60640000 		.4byte	0x6460
 16985 6449 5C       		.uleb128 0x5c
 16986 644a 656C7000 		.ascii	"elp\000"
 16987 644e 03       		.byte	0x3
 16988 644f D2       		.byte	0xd2
 16989 6450 EE150000 		.4byte	0x15ee
 16990 6454 5B       		.uleb128 0x5b
 16991 6455 E7100000 		.4byte	.LASF795
ARM GAS  /tmp/ccjQGkoy.s 			page 300


 16992 6459 03       		.byte	0x3
 16993 645a D3       		.byte	0xd3
 16994 645b E7090000 		.4byte	0x9e7
 16995 645f 00       		.byte	0
 16996 6460 06       		.uleb128 0x6
 16997 6461 04       		.byte	0x4
 16998 6462 0D160000 		.4byte	0x160d
 16999 6466 68       		.uleb128 0x68
 17000 6467 3E3C0000 		.4byte	.LASF1069
 17001 646b 03       		.byte	0x3
 17002 646c BD       		.byte	0xbd
 17003 646d 03       		.byte	0x3
 17004 646e 94640000 		.4byte	0x6494
 17005 6472 5C       		.uleb128 0x5c
 17006 6473 65737000 		.ascii	"esp\000"
 17007 6477 03       		.byte	0x3
 17008 6478 BD       		.byte	0xbd
 17009 6479 60640000 		.4byte	0x6460
 17010 647d 5C       		.uleb128 0x5c
 17011 647e 656C7000 		.ascii	"elp\000"
 17012 6482 03       		.byte	0x3
 17013 6483 BE       		.byte	0xbe
 17014 6484 EE150000 		.4byte	0x15ee
 17015 6488 5B       		.uleb128 0x5b
 17016 6489 853B0000 		.4byte	.LASF1070
 17017 648d 03       		.byte	0x3
 17018 648e BF       		.byte	0xbf
 17019 648f F2090000 		.4byte	0x9f2
 17020 6493 00       		.byte	0
 17021 6494 68       		.uleb128 0x68
 17022 6495 BE310000 		.4byte	.LASF1071
 17023 6499 02       		.byte	0x2
 17024 649a 84       		.byte	0x84
 17025 649b 03       		.byte	0x3
 17026 649c AC640000 		.4byte	0x64ac
 17027 64a0 5B       		.uleb128 0x5b
 17028 64a1 56350000 		.4byte	.LASF1072
 17029 64a5 02       		.byte	0x2
 17030 64a6 84       		.byte	0x84
 17031 64a7 F2050000 		.4byte	0x5f2
 17032 64ab 00       		.byte	0
 17033 64ac 69       		.uleb128 0x69
 17034 64ad 5B310000 		.4byte	.LASF1073
 17035 64b1 04       		.byte	0x4
 17036 64b2 E7       		.byte	0xe7
 17037 64b3 0A1F0000 		.4byte	0x1f0a
 17038 64b7 03       		.byte	0x3
 17039 64b8 69       		.uleb128 0x69
 17040 64b9 D9280000 		.4byte	.LASF1074
 17041 64bd 04       		.byte	0x4
 17042 64be AE       		.byte	0xae
 17043 64bf 3E0B0000 		.4byte	0xb3e
 17044 64c3 03       		.byte	0x3
 17045 64c4 6A       		.uleb128 0x6a
 17046 64c5 09370000 		.4byte	.LASF1146
 17047 64c9 06       		.byte	0x6
 17048 64ca F7       		.byte	0xf7
ARM GAS  /tmp/ccjQGkoy.s 			page 301


 17049 64cb 130A0000 		.4byte	0xa13
 17050 64cf 03       		.byte	0x3
 17051 64d0 E0640000 		.4byte	0x64e0
 17052 64d4 5D       		.uleb128 0x5d
 17053 64d5 02190000 		.4byte	.LASF1075
 17054 64d9 06       		.byte	0x6
 17055 64da F8       		.byte	0xf8
 17056 64db 130A0000 		.4byte	0xa13
 17057 64df 00       		.byte	0
 17058 64e0 69       		.uleb128 0x69
 17059 64e1 4A2D0000 		.4byte	.LASF1076
 17060 64e5 06       		.byte	0x6
 17061 64e6 E4       		.byte	0xe4
 17062 64e7 130A0000 		.4byte	0xa13
 17063 64eb 03       		.byte	0x3
 17064 64ec 35       		.uleb128 0x35
 17065 64ed E9310000 		.4byte	.LASF1077
 17066 64f1 2E       		.byte	0x2e
 17067 64f2 6601     		.2byte	0x166
 17068 64f4 03       		.byte	0x3
 17069 64f5 07650000 		.4byte	0x6507
 17070 64f9 6B       		.uleb128 0x6b
 17071 64fa C6000000 		.4byte	.LASF1078
 17072 64fe 17650000 		.4byte	0x6517
 17073 6502 E9310000 		.4byte	.LASF1077
 17074 6506 00       		.byte	0
 17075 6507 0B       		.uleb128 0xb
 17076 6508 81010000 		.4byte	0x181
 17077 650c 17650000 		.4byte	0x6517
 17078 6510 0C       		.uleb128 0xc
 17079 6511 48000000 		.4byte	0x48
 17080 6515 0B       		.byte	0xb
 17081 6516 00       		.byte	0
 17082 6517 10       		.uleb128 0x10
 17083 6518 07650000 		.4byte	0x6507
 17084 651c 6C       		.uleb128 0x6c
 17085 651d F8080000 		.4byte	.LASF1079
 17086 6521 2E       		.byte	0x2e
 17087 6522 5A01     		.2byte	0x15a
 17088 6524 03       		.byte	0x3
 17089 6525 6C       		.uleb128 0x6c
 17090 6526 FF030000 		.4byte	.LASF1080
 17091 652a 15       		.byte	0x15
 17092 652b CA01     		.2byte	0x1ca
 17093 652d 03       		.byte	0x3
 17094 652e 6C       		.uleb128 0x6c
 17095 652f 0B260000 		.4byte	.LASF1081
 17096 6533 15       		.byte	0x15
 17097 6534 BC01     		.2byte	0x1bc
 17098 6536 03       		.byte	0x3
 17099 6537 35       		.uleb128 0x35
 17100 6538 BD2B0000 		.4byte	.LASF1082
 17101 653c 05       		.byte	0x5
 17102 653d 2002     		.2byte	0x220
 17103 653f 03       		.byte	0x3
 17104 6540 51650000 		.4byte	0x6551
 17105 6544 6D       		.uleb128 0x6d
ARM GAS  /tmp/ccjQGkoy.s 			page 302


 17106 6545 7D120000 		.4byte	.LASF1083
 17107 6549 05       		.byte	0x5
 17108 654a 2002     		.2byte	0x220
 17109 654c 7F090000 		.4byte	0x97f
 17110 6550 00       		.byte	0
 17111 6551 6E       		.uleb128 0x6e
 17112 6552 AB5F0000 		.4byte	0x5fab
 17113 6556 00000000 		.4byte	.LFB261
 17114 655a 54010000 		.4byte	.LFE261-.LFB261
 17115 655e 01       		.uleb128 0x1
 17116 655f 9C       		.byte	0x9c
 17117 6560 79670000 		.4byte	0x6779
 17118 6564 4D       		.uleb128 0x4d
 17119 6565 B75F0000 		.4byte	0x5fb7
 17120 6569 3A0F0000 		.4byte	.LLST31
 17121 656d 4D       		.uleb128 0x4d
 17122 656e C25F0000 		.4byte	0x5fc2
 17123 6572 740F0000 		.4byte	.LLST32
 17124 6576 4D       		.uleb128 0x4d
 17125 6577 CD5F0000 		.4byte	0x5fcd
 17126 657b CD0F0000 		.4byte	.LLST33
 17127 657f 4D       		.uleb128 0x4d
 17128 6580 D85F0000 		.4byte	0x5fd8
 17129 6584 01100000 		.4byte	.LLST34
 17130 6588 6F       		.uleb128 0x6f
 17131 6589 E35F0000 		.4byte	0x5fe3
 17132 658d 02       		.uleb128 0x2
 17133 658e 91       		.byte	0x91
 17134 658f 50       		.sleb128 -48
 17135 6590 70       		.uleb128 0x70
 17136 6591 AB5F0000 		.4byte	0x5fab
 17137 6595 F0000000 		.4byte	.Ldebug_ranges0+0xf0
 17138 6599 1C670000 		.4byte	0x671c
 17139 659d 71       		.uleb128 0x71
 17140 659e D85F0000 		.4byte	0x5fd8
 17141 65a2 71       		.uleb128 0x71
 17142 65a3 CD5F0000 		.4byte	0x5fcd
 17143 65a7 71       		.uleb128 0x71
 17144 65a8 C25F0000 		.4byte	0x5fc2
 17145 65ac 71       		.uleb128 0x71
 17146 65ad B75F0000 		.4byte	0x5fb7
 17147 65b1 47       		.uleb128 0x47
 17148 65b2 F0000000 		.4byte	.Ldebug_ranges0+0xf0
 17149 65b6 4A       		.uleb128 0x4a
 17150 65b7 88650000 		.4byte	0x6588
 17151 65bb 72       		.uleb128 0x72
 17152 65bc FF5F0000 		.4byte	0x5fff
 17153 65c0 F0000000 		.4byte	.Ldebug_ranges0+0xf0
 17154 65c4 73       		.uleb128 0x73
 17155 65c5 00600000 		.4byte	0x6000
 17156 65c9 3B100000 		.4byte	.LLST35
 17157 65cd 73       		.uleb128 0x73
 17158 65ce 0B600000 		.4byte	0x600b
 17159 65d2 6F100000 		.4byte	.LLST36
 17160 65d6 73       		.uleb128 0x73
 17161 65d7 17600000 		.4byte	0x6017
 17162 65db CB100000 		.4byte	.LLST37
ARM GAS  /tmp/ccjQGkoy.s 			page 303


 17163 65df 70       		.uleb128 0x70
 17164 65e0 23600000 		.4byte	0x6023
 17165 65e4 08010000 		.4byte	.Ldebug_ranges0+0x108
 17166 65e8 42660000 		.4byte	0x6642
 17167 65ec 73       		.uleb128 0x73
 17168 65ed 28600000 		.4byte	0x6028
 17169 65f1 DE100000 		.4byte	.LLST38
 17170 65f5 72       		.uleb128 0x72
 17171 65f6 31600000 		.4byte	0x6031
 17172 65fa 20010000 		.4byte	.Ldebug_ranges0+0x120
 17173 65fe 73       		.uleb128 0x73
 17174 65ff 32600000 		.4byte	0x6032
 17175 6603 07110000 		.4byte	.LLST39
 17176 6607 40       		.uleb128 0x40
 17177 6608 56000000 		.4byte	.LVL95
 17178 660c 2A610000 		.4byte	0x612a
 17179 6610 21660000 		.4byte	0x6621
 17180 6614 3B       		.uleb128 0x3b
 17181 6615 01       		.uleb128 0x1
 17182 6616 50       		.byte	0x50
 17183 6617 02       		.uleb128 0x2
 17184 6618 77       		.byte	0x77
 17185 6619 00       		.sleb128 0
 17186 661a 3B       		.uleb128 0x3b
 17187 661b 01       		.uleb128 0x1
 17188 661c 51       		.byte	0x51
 17189 661d 02       		.uleb128 0x2
 17190 661e 91       		.byte	0x91
 17191 661f 50       		.sleb128 -48
 17192 6620 00       		.byte	0
 17193 6621 41       		.uleb128 0x41
 17194 6622 48010000 		.4byte	.LVL122
 17195 6626 1E680000 		.4byte	0x681e
 17196 662a 3B       		.uleb128 0x3b
 17197 662b 01       		.uleb128 0x1
 17198 662c 50       		.byte	0x50
 17199 662d 02       		.uleb128 0x2
 17200 662e 91       		.byte	0x91
 17201 662f 51       		.sleb128 -47
 17202 6630 3B       		.uleb128 0x3b
 17203 6631 01       		.uleb128 0x1
 17204 6632 52       		.byte	0x52
 17205 6633 0B       		.uleb128 0xb
 17206 6634 91       		.byte	0x91
 17207 6635 48       		.sleb128 -56
 17208 6636 06       		.byte	0x6
 17209 6637 79       		.byte	0x79
 17210 6638 00       		.sleb128 0
 17211 6639 1C       		.byte	0x1c
 17212 663a 23       		.byte	0x23
 17213 663b 07       		.uleb128 0x7
 17214 663c 08       		.byte	0x8
 17215 663d FF       		.byte	0xff
 17216 663e 1A       		.byte	0x1a
 17217 663f 00       		.byte	0
 17218 6640 00       		.byte	0
 17219 6641 00       		.byte	0
ARM GAS  /tmp/ccjQGkoy.s 			page 304


 17220 6642 74       		.uleb128 0x74
 17221 6643 3F600000 		.4byte	0x603f
 17222 6647 CE000000 		.4byte	.LBB193
 17223 664b 68000000 		.4byte	.LBE193-.LBB193
 17224 664f D7660000 		.4byte	0x66d7
 17225 6653 73       		.uleb128 0x73
 17226 6654 40600000 		.4byte	0x6040
 17227 6658 2F110000 		.4byte	.LLST40
 17228 665c 72       		.uleb128 0x72
 17229 665d 49600000 		.4byte	0x6049
 17230 6661 38010000 		.4byte	.Ldebug_ranges0+0x138
 17231 6665 73       		.uleb128 0x73
 17232 6666 4A600000 		.4byte	0x604a
 17233 666a 67110000 		.4byte	.LLST41
 17234 666e 40       		.uleb128 0x40
 17235 666f F8000000 		.4byte	.LVL115
 17236 6673 2A610000 		.4byte	0x612a
 17237 6677 8D660000 		.4byte	0x668d
 17238 667b 3B       		.uleb128 0x3b
 17239 667c 01       		.uleb128 0x1
 17240 667d 50       		.byte	0x50
 17241 667e 02       		.uleb128 0x2
 17242 667f 79       		.byte	0x79
 17243 6680 00       		.sleb128 0
 17244 6681 3B       		.uleb128 0x3b
 17245 6682 01       		.uleb128 0x1
 17246 6683 51       		.byte	0x51
 17247 6684 02       		.uleb128 0x2
 17248 6685 91       		.byte	0x91
 17249 6686 50       		.sleb128 -48
 17250 6687 3B       		.uleb128 0x3b
 17251 6688 01       		.uleb128 0x1
 17252 6689 52       		.byte	0x52
 17253 668a 01       		.uleb128 0x1
 17254 668b 38       		.byte	0x38
 17255 668c 00       		.byte	0
 17256 668d 40       		.uleb128 0x40
 17257 668e 20010000 		.4byte	.LVL119
 17258 6692 1E680000 		.4byte	0x681e
 17259 6696 B6660000 		.4byte	0x66b6
 17260 669a 3B       		.uleb128 0x3b
 17261 669b 01       		.uleb128 0x1
 17262 669c 50       		.byte	0x50
 17263 669d 02       		.uleb128 0x2
 17264 669e 91       		.byte	0x91
 17265 669f 52       		.sleb128 -46
 17266 66a0 3B       		.uleb128 0x3b
 17267 66a1 01       		.uleb128 0x1
 17268 66a2 51       		.byte	0x51
 17269 66a3 05       		.uleb128 0x5
 17270 66a4 78       		.byte	0x78
 17271 66a5 00       		.sleb128 0
 17272 66a6 74       		.byte	0x74
 17273 66a7 00       		.sleb128 0
 17274 66a8 22       		.byte	0x22
 17275 66a9 3B       		.uleb128 0x3b
 17276 66aa 01       		.uleb128 0x1
ARM GAS  /tmp/ccjQGkoy.s 			page 305


 17277 66ab 52       		.byte	0x52
 17278 66ac 08       		.uleb128 0x8
 17279 66ad 77       		.byte	0x77
 17280 66ae 00       		.sleb128 0
 17281 66af 76       		.byte	0x76
 17282 66b0 00       		.sleb128 0
 17283 66b1 1C       		.byte	0x1c
 17284 66b2 08       		.byte	0x8
 17285 66b3 FF       		.byte	0xff
 17286 66b4 1A       		.byte	0x1a
 17287 66b5 00       		.byte	0
 17288 66b6 41       		.uleb128 0x41
 17289 66b7 2E010000 		.4byte	.LVL120
 17290 66bb 2A610000 		.4byte	0x612a
 17291 66bf 3B       		.uleb128 0x3b
 17292 66c0 01       		.uleb128 0x1
 17293 66c1 50       		.byte	0x50
 17294 66c2 02       		.uleb128 0x2
 17295 66c3 79       		.byte	0x79
 17296 66c4 00       		.sleb128 0
 17297 66c5 3B       		.uleb128 0x3b
 17298 66c6 01       		.uleb128 0x1
 17299 66c7 51       		.byte	0x51
 17300 66c8 02       		.uleb128 0x2
 17301 66c9 91       		.byte	0x91
 17302 66ca 50       		.sleb128 -48
 17303 66cb 3B       		.uleb128 0x3b
 17304 66cc 01       		.uleb128 0x1
 17305 66cd 52       		.byte	0x52
 17306 66ce 05       		.uleb128 0x5
 17307 66cf 7B       		.byte	0x7b
 17308 66d0 00       		.sleb128 0
 17309 66d1 76       		.byte	0x76
 17310 66d2 00       		.sleb128 0
 17311 66d3 1C       		.byte	0x1c
 17312 66d4 00       		.byte	0
 17313 66d5 00       		.byte	0
 17314 66d6 00       		.byte	0
 17315 66d7 3F       		.uleb128 0x3f
 17316 66d8 60000000 		.4byte	.LVL97
 17317 66dc 13680000 		.4byte	0x6813
 17318 66e0 40       		.uleb128 0x40
 17319 66e1 80000000 		.4byte	.LVL101
 17320 66e5 DD680000 		.4byte	0x68dd
 17321 66e9 FA660000 		.4byte	0x66fa
 17322 66ed 3B       		.uleb128 0x3b
 17323 66ee 01       		.uleb128 0x1
 17324 66ef 50       		.byte	0x50
 17325 66f0 02       		.uleb128 0x2
 17326 66f1 76       		.byte	0x76
 17327 66f2 00       		.sleb128 0
 17328 66f3 3B       		.uleb128 0x3b
 17329 66f4 01       		.uleb128 0x1
 17330 66f5 51       		.byte	0x51
 17331 66f6 02       		.uleb128 0x2
 17332 66f7 75       		.byte	0x75
 17333 66f8 00       		.sleb128 0
ARM GAS  /tmp/ccjQGkoy.s 			page 306


 17334 66f9 00       		.byte	0
 17335 66fa 41       		.uleb128 0x41
 17336 66fb 98000000 		.4byte	.LVL105
 17337 66ff 2A610000 		.4byte	0x612a
 17338 6703 3B       		.uleb128 0x3b
 17339 6704 01       		.uleb128 0x1
 17340 6705 50       		.byte	0x50
 17341 6706 06       		.uleb128 0x6
 17342 6707 7A       		.byte	0x7a
 17343 6708 00       		.sleb128 0
 17344 6709 0A       		.byte	0xa
 17345 670a 0007     		.2byte	0x700
 17346 670c 21       		.byte	0x21
 17347 670d 3B       		.uleb128 0x3b
 17348 670e 01       		.uleb128 0x1
 17349 670f 51       		.byte	0x51
 17350 6710 02       		.uleb128 0x2
 17351 6711 91       		.byte	0x91
 17352 6712 50       		.sleb128 -48
 17353 6713 3B       		.uleb128 0x3b
 17354 6714 01       		.uleb128 0x1
 17355 6715 52       		.byte	0x52
 17356 6716 01       		.uleb128 0x1
 17357 6717 36       		.byte	0x36
 17358 6718 00       		.byte	0
 17359 6719 00       		.byte	0
 17360 671a 00       		.byte	0
 17361 671b 00       		.byte	0
 17362 671c 49       		.uleb128 0x49
 17363 671d 9E000000 		.4byte	.LBB199
 17364 6721 2A000000 		.4byte	.LBE199-.LBB199
 17365 6725 73       		.uleb128 0x73
 17366 6726 F35F0000 		.4byte	0x5ff3
 17367 672a 7B110000 		.4byte	.LLST42
 17368 672e 3F       		.uleb128 0x3f
 17369 672f A2000000 		.4byte	.LVL107
 17370 6733 13680000 		.4byte	0x6813
 17371 6737 40       		.uleb128 0x40
 17372 6738 BA000000 		.4byte	.LVL109
 17373 673c 1E680000 		.4byte	0x681e
 17374 6740 57670000 		.4byte	0x6757
 17375 6744 3B       		.uleb128 0x3b
 17376 6745 01       		.uleb128 0x1
 17377 6746 50       		.byte	0x50
 17378 6747 02       		.uleb128 0x2
 17379 6748 91       		.byte	0x91
 17380 6749 52       		.sleb128 -46
 17381 674a 3B       		.uleb128 0x3b
 17382 674b 01       		.uleb128 0x1
 17383 674c 51       		.byte	0x51
 17384 674d 02       		.uleb128 0x2
 17385 674e 76       		.byte	0x76
 17386 674f 00       		.sleb128 0
 17387 6750 3B       		.uleb128 0x3b
 17388 6751 01       		.uleb128 0x1
 17389 6752 52       		.byte	0x52
 17390 6753 02       		.uleb128 0x2
ARM GAS  /tmp/ccjQGkoy.s 			page 307


 17391 6754 75       		.byte	0x75
 17392 6755 00       		.sleb128 0
 17393 6756 00       		.byte	0
 17394 6757 41       		.uleb128 0x41
 17395 6758 C8000000 		.4byte	.LVL112
 17396 675c 2A610000 		.4byte	0x612a
 17397 6760 3B       		.uleb128 0x3b
 17398 6761 01       		.uleb128 0x1
 17399 6762 50       		.byte	0x50
 17400 6763 06       		.uleb128 0x6
 17401 6764 7A       		.byte	0x7a
 17402 6765 00       		.sleb128 0
 17403 6766 0A       		.byte	0xa
 17404 6767 0008     		.2byte	0x800
 17405 6769 21       		.byte	0x21
 17406 676a 3B       		.uleb128 0x3b
 17407 676b 01       		.uleb128 0x1
 17408 676c 51       		.byte	0x51
 17409 676d 02       		.uleb128 0x2
 17410 676e 91       		.byte	0x91
 17411 676f 50       		.sleb128 -48
 17412 6770 3B       		.uleb128 0x3b
 17413 6771 01       		.uleb128 0x1
 17414 6772 52       		.byte	0x52
 17415 6773 02       		.uleb128 0x2
 17416 6774 75       		.byte	0x75
 17417 6775 02       		.sleb128 2
 17418 6776 00       		.byte	0
 17419 6777 00       		.byte	0
 17420 6778 00       		.byte	0
 17421 6779 75       		.uleb128 0x75
 17422 677a 210A0000 		.4byte	.LASF1084
 17423 677e 210A0000 		.4byte	.LASF1084
 17424 6782 2C       		.byte	0x2c
 17425 6783 34       		.byte	0x34
 17426 6784 75       		.uleb128 0x75
 17427 6785 A4290000 		.4byte	.LASF1085
 17428 6789 A4290000 		.4byte	.LASF1085
 17429 678d 2F       		.byte	0x2f
 17430 678e 1B       		.byte	0x1b
 17431 678f 75       		.uleb128 0x75
 17432 6790 3D250000 		.4byte	.LASF1086
 17433 6794 3D250000 		.4byte	.LASF1086
 17434 6798 2C       		.byte	0x2c
 17435 6799 3A       		.byte	0x3a
 17436 679a 75       		.uleb128 0x75
 17437 679b BB270000 		.4byte	.LASF1087
 17438 679f BB270000 		.4byte	.LASF1087
 17439 67a3 2F       		.byte	0x2f
 17440 67a4 19       		.byte	0x19
 17441 67a5 75       		.uleb128 0x75
 17442 67a6 B0170000 		.4byte	.LASF1088
 17443 67aa B0170000 		.4byte	.LASF1088
 17444 67ae 2C       		.byte	0x2c
 17445 67af 32       		.byte	0x32
 17446 67b0 75       		.uleb128 0x75
 17447 67b1 B0350000 		.4byte	.LASF1089
ARM GAS  /tmp/ccjQGkoy.s 			page 308


 17448 67b5 B0350000 		.4byte	.LASF1089
 17449 67b9 2C       		.byte	0x2c
 17450 67ba 35       		.byte	0x35
 17451 67bb 75       		.uleb128 0x75
 17452 67bc 81290000 		.4byte	.LASF1090
 17453 67c0 81290000 		.4byte	.LASF1090
 17454 67c4 2C       		.byte	0x2c
 17455 67c5 36       		.byte	0x36
 17456 67c6 75       		.uleb128 0x75
 17457 67c7 92260000 		.4byte	.LASF1091
 17458 67cb 92260000 		.4byte	.LASF1091
 17459 67cf 2C       		.byte	0x2c
 17460 67d0 37       		.byte	0x37
 17461 67d1 75       		.uleb128 0x75
 17462 67d2 A73A0000 		.4byte	.LASF1092
 17463 67d6 A73A0000 		.4byte	.LASF1092
 17464 67da 2C       		.byte	0x2c
 17465 67db 38       		.byte	0x38
 17466 67dc 75       		.uleb128 0x75
 17467 67dd 06280000 		.4byte	.LASF1093
 17468 67e1 06280000 		.4byte	.LASF1093
 17469 67e5 2C       		.byte	0x2c
 17470 67e6 4A       		.byte	0x4a
 17471 67e7 75       		.uleb128 0x75
 17472 67e8 0E200000 		.4byte	.LASF1094
 17473 67ec 0E200000 		.4byte	.LASF1094
 17474 67f0 2C       		.byte	0x2c
 17475 67f1 4B       		.byte	0x4b
 17476 67f2 75       		.uleb128 0x75
 17477 67f3 620A0000 		.4byte	.LASF1095
 17478 67f7 620A0000 		.4byte	.LASF1095
 17479 67fb 2C       		.byte	0x2c
 17480 67fc 3E       		.byte	0x3e
 17481 67fd 75       		.uleb128 0x75
 17482 67fe 351D0000 		.4byte	.LASF1096
 17483 6802 351D0000 		.4byte	.LASF1096
 17484 6806 2C       		.byte	0x2c
 17485 6807 47       		.byte	0x47
 17486 6808 75       		.uleb128 0x75
 17487 6809 B2300000 		.4byte	.LASF1097
 17488 680d B2300000 		.4byte	.LASF1097
 17489 6811 04       		.byte	0x4
 17490 6812 96       		.byte	0x96
 17491 6813 75       		.uleb128 0x75
 17492 6814 F2340000 		.4byte	.LASF1098
 17493 6818 F2340000 		.4byte	.LASF1098
 17494 681c 30       		.byte	0x30
 17495 681d 1A       		.byte	0x1a
 17496 681e 76       		.uleb128 0x76
 17497 681f F1080000 		.4byte	.LASF1147
 17498 6823 8A2D0000 		.4byte	.LASF1148
 17499 6827 34       		.byte	0x34
 17500 6828 00       		.byte	0
 17501 6829 F1080000 		.4byte	.LASF1147
 17502 682d 75       		.uleb128 0x75
 17503 682e BD300000 		.4byte	.LASF1099
 17504 6832 BD300000 		.4byte	.LASF1099
ARM GAS  /tmp/ccjQGkoy.s 			page 309


 17505 6836 1B       		.byte	0x1b
 17506 6837 F0       		.byte	0xf0
 17507 6838 75       		.uleb128 0x75
 17508 6839 EB220000 		.4byte	.LASF1100
 17509 683d EB220000 		.4byte	.LASF1100
 17510 6841 30       		.byte	0x30
 17511 6842 1B       		.byte	0x1b
 17512 6843 75       		.uleb128 0x75
 17513 6844 71390000 		.4byte	.LASF1101
 17514 6848 71390000 		.4byte	.LASF1101
 17515 684c 2F       		.byte	0x2f
 17516 684d 25       		.byte	0x25
 17517 684e 75       		.uleb128 0x75
 17518 684f 9B060000 		.4byte	.LASF1102
 17519 6853 9B060000 		.4byte	.LASF1102
 17520 6857 1B       		.byte	0x1b
 17521 6858 FC       		.byte	0xfc
 17522 6859 75       		.uleb128 0x75
 17523 685a C8320000 		.4byte	.LASF1103
 17524 685e C8320000 		.4byte	.LASF1103
 17525 6862 2C       		.byte	0x2c
 17526 6863 1C       		.byte	0x1c
 17527 6864 75       		.uleb128 0x75
 17528 6865 4A1B0000 		.4byte	.LASF1104
 17529 6869 4A1B0000 		.4byte	.LASF1104
 17530 686d 2C       		.byte	0x2c
 17531 686e 1D       		.byte	0x1d
 17532 686f 75       		.uleb128 0x75
 17533 6870 57340000 		.4byte	.LASF1105
 17534 6874 57340000 		.4byte	.LASF1105
 17535 6878 1B       		.byte	0x1b
 17536 6879 F2       		.byte	0xf2
 17537 687a 75       		.uleb128 0x75
 17538 687b A5200000 		.4byte	.LASF1106
 17539 687f A5200000 		.4byte	.LASF1106
 17540 6883 2F       		.byte	0x2f
 17541 6884 22       		.byte	0x22
 17542 6885 75       		.uleb128 0x75
 17543 6886 152F0000 		.4byte	.LASF1107
 17544 688a 152F0000 		.4byte	.LASF1107
 17545 688e 2F       		.byte	0x2f
 17546 688f 20       		.byte	0x20
 17547 6890 75       		.uleb128 0x75
 17548 6891 A5280000 		.4byte	.LASF1108
 17549 6895 A5280000 		.4byte	.LASF1108
 17550 6899 03       		.byte	0x3
 17551 689a 84       		.byte	0x84
 17552 689b 75       		.uleb128 0x75
 17553 689c 11240000 		.4byte	.LASF1109
 17554 68a0 11240000 		.4byte	.LASF1109
 17555 68a4 2C       		.byte	0x2c
 17556 68a5 2E       		.byte	0x2e
 17557 68a6 75       		.uleb128 0x75
 17558 68a7 38100000 		.4byte	.LASF1110
 17559 68ab 38100000 		.4byte	.LASF1110
 17560 68af 2D       		.byte	0x2d
 17561 68b0 29       		.byte	0x29
ARM GAS  /tmp/ccjQGkoy.s 			page 310


 17562 68b1 75       		.uleb128 0x75
 17563 68b2 20330000 		.4byte	.LASF1111
 17564 68b6 20330000 		.4byte	.LASF1111
 17565 68ba 2C       		.byte	0x2c
 17566 68bb 2D       		.byte	0x2d
 17567 68bc 75       		.uleb128 0x75
 17568 68bd 76270000 		.4byte	.LASF1112
 17569 68c1 76270000 		.4byte	.LASF1112
 17570 68c5 2C       		.byte	0x2c
 17571 68c6 2C       		.byte	0x2c
 17572 68c7 75       		.uleb128 0x75
 17573 68c8 311C0000 		.4byte	.LASF1113
 17574 68cc 311C0000 		.4byte	.LASF1113
 17575 68d0 2C       		.byte	0x2c
 17576 68d1 2B       		.byte	0x2b
 17577 68d2 75       		.uleb128 0x75
 17578 68d3 35300000 		.4byte	.LASF1114
 17579 68d7 35300000 		.4byte	.LASF1114
 17580 68db 31       		.byte	0x31
 17581 68dc 1E       		.byte	0x1e
 17582 68dd 75       		.uleb128 0x75
 17583 68de ED0D0000 		.4byte	.LASF1115
 17584 68e2 ED0D0000 		.4byte	.LASF1115
 17585 68e6 32       		.byte	0x32
 17586 68e7 1C       		.byte	0x1c
 17587 68e8 75       		.uleb128 0x75
 17588 68e9 0D0C0000 		.4byte	.LASF1116
 17589 68ed 0D0C0000 		.4byte	.LASF1116
 17590 68f1 2C       		.byte	0x2c
 17591 68f2 27       		.byte	0x27
 17592 68f3 75       		.uleb128 0x75
 17593 68f4 5D2D0000 		.4byte	.LASF1117
 17594 68f8 5D2D0000 		.4byte	.LASF1117
 17595 68fc 2C       		.byte	0x2c
 17596 68fd 28       		.byte	0x28
 17597 68fe 75       		.uleb128 0x75
 17598 68ff 0E360000 		.4byte	.LASF1118
 17599 6903 0E360000 		.4byte	.LASF1118
 17600 6907 2C       		.byte	0x2c
 17601 6908 29       		.byte	0x29
 17602 6909 75       		.uleb128 0x75
 17603 690a 79380000 		.4byte	.LASF1119
 17604 690e 79380000 		.4byte	.LASF1119
 17605 6912 2C       		.byte	0x2c
 17606 6913 25       		.byte	0x25
 17607 6914 75       		.uleb128 0x75
 17608 6915 5F320000 		.4byte	.LASF1120
 17609 6919 5F320000 		.4byte	.LASF1120
 17610 691d 2C       		.byte	0x2c
 17611 691e 2A       		.byte	0x2a
 17612 691f 75       		.uleb128 0x75
 17613 6920 D33C0000 		.4byte	.LASF1121
 17614 6924 D33C0000 		.4byte	.LASF1121
 17615 6928 31       		.byte	0x31
 17616 6929 1B       		.byte	0x1b
 17617 692a 75       		.uleb128 0x75
 17618 692b DD3B0000 		.4byte	.LASF1122
ARM GAS  /tmp/ccjQGkoy.s 			page 311


 17619 692f DD3B0000 		.4byte	.LASF1122
 17620 6933 03       		.byte	0x3
 17621 6934 8B       		.byte	0x8b
 17622 6935 75       		.uleb128 0x75
 17623 6936 42240000 		.4byte	.LASF1123
 17624 693a 42240000 		.4byte	.LASF1123
 17625 693e 2D       		.byte	0x2d
 17626 693f 2F       		.byte	0x2f
 17627 6940 75       		.uleb128 0x75
 17628 6941 C4100000 		.4byte	.LASF1124
 17629 6945 C4100000 		.4byte	.LASF1124
 17630 6949 03       		.byte	0x3
 17631 694a 90       		.byte	0x90
 17632 694b 75       		.uleb128 0x75
 17633 694c 4B350000 		.4byte	.LASF1125
 17634 6950 4B350000 		.4byte	.LASF1125
 17635 6954 1E       		.byte	0x1e
 17636 6955 86       		.byte	0x86
 17637 6956 75       		.uleb128 0x75
 17638 6957 65260000 		.4byte	.LASF1126
 17639 695b 65260000 		.4byte	.LASF1126
 17640 695f 18       		.byte	0x18
 17641 6960 68       		.byte	0x68
 17642 6961 75       		.uleb128 0x75
 17643 6962 F1010000 		.4byte	.LASF1127
 17644 6966 F1010000 		.4byte	.LASF1127
 17645 696a 18       		.byte	0x18
 17646 696b 6C       		.byte	0x6c
 17647 696c 75       		.uleb128 0x75
 17648 696d 8D020000 		.4byte	.LASF1128
 17649 6971 8D020000 		.4byte	.LASF1128
 17650 6975 03       		.byte	0x3
 17651 6976 7B       		.byte	0x7b
 17652 6977 75       		.uleb128 0x75
 17653 6978 C50A0000 		.4byte	.LASF1129
 17654 697c C50A0000 		.4byte	.LASF1129
 17655 6980 03       		.byte	0x3
 17656 6981 7F       		.byte	0x7f
 17657 6982 75       		.uleb128 0x75
 17658 6983 24040000 		.4byte	.LASF1130
 17659 6987 24040000 		.4byte	.LASF1130
 17660 698b 2F       		.byte	0x2f
 17661 698c 1E       		.byte	0x1e
 17662 698d 75       		.uleb128 0x75
 17663 698e 46100000 		.4byte	.LASF1131
 17664 6992 46100000 		.4byte	.LASF1131
 17665 6996 03       		.byte	0x3
 17666 6997 80       		.byte	0x80
 17667 6998 75       		.uleb128 0x75
 17668 6999 A61C0000 		.4byte	.LASF1132
 17669 699d A61C0000 		.4byte	.LASF1132
 17670 69a1 1E       		.byte	0x1e
 17671 69a2 82       		.byte	0x82
 17672 69a3 75       		.uleb128 0x75
 17673 69a4 831C0000 		.4byte	.LASF1133
 17674 69a8 831C0000 		.4byte	.LASF1133
 17675 69ac 1E       		.byte	0x1e
ARM GAS  /tmp/ccjQGkoy.s 			page 312


 17676 69ad 81       		.byte	0x81
 17677 69ae 75       		.uleb128 0x75
 17678 69af 280C0000 		.4byte	.LASF1134
 17679 69b3 280C0000 		.4byte	.LASF1134
 17680 69b7 1E       		.byte	0x1e
 17681 69b8 80       		.byte	0x80
 17682 69b9 75       		.uleb128 0x75
 17683 69ba CB370000 		.4byte	.LASF1135
 17684 69be CB370000 		.4byte	.LASF1135
 17685 69c2 18       		.byte	0x18
 17686 69c3 67       		.byte	0x67
 17687 69c4 77       		.uleb128 0x77
 17688 69c5 143B0000 		.4byte	.LASF1136
 17689 69c9 143B0000 		.4byte	.LASF1136
 17690 69cd 1D       		.byte	0x1d
 17691 69ce E001     		.2byte	0x1e0
 17692 69d0 75       		.uleb128 0x75
 17693 69d1 0F110000 		.4byte	.LASF1137
 17694 69d5 0F110000 		.4byte	.LASF1137
 17695 69d9 33       		.byte	0x33
 17696 69da 1A       		.byte	0x1a
 17697 69db 75       		.uleb128 0x75
 17698 69dc 6E0D0000 		.4byte	.LASF1138
 17699 69e0 6E0D0000 		.4byte	.LASF1138
 17700 69e4 04       		.byte	0x4
 17701 69e5 89       		.byte	0x89
 17702 69e6 00       		.byte	0
 17703              		.section	.debug_abbrev,"",%progbits
 17704              	.Ldebug_abbrev0:
 17705 0000 01       		.uleb128 0x1
 17706 0001 11       		.uleb128 0x11
 17707 0002 01       		.byte	0x1
 17708 0003 25       		.uleb128 0x25
 17709 0004 0E       		.uleb128 0xe
 17710 0005 13       		.uleb128 0x13
 17711 0006 0B       		.uleb128 0xb
 17712 0007 03       		.uleb128 0x3
 17713 0008 0E       		.uleb128 0xe
 17714 0009 1B       		.uleb128 0x1b
 17715 000a 0E       		.uleb128 0xe
 17716 000b 55       		.uleb128 0x55
 17717 000c 17       		.uleb128 0x17
 17718 000d 11       		.uleb128 0x11
 17719 000e 01       		.uleb128 0x1
 17720 000f 10       		.uleb128 0x10
 17721 0010 17       		.uleb128 0x17
 17722 0011 00       		.byte	0
 17723 0012 00       		.byte	0
 17724 0013 02       		.uleb128 0x2
 17725 0014 24       		.uleb128 0x24
 17726 0015 00       		.byte	0
 17727 0016 0B       		.uleb128 0xb
 17728 0017 0B       		.uleb128 0xb
 17729 0018 3E       		.uleb128 0x3e
 17730 0019 0B       		.uleb128 0xb
 17731 001a 03       		.uleb128 0x3
 17732 001b 0E       		.uleb128 0xe
ARM GAS  /tmp/ccjQGkoy.s 			page 313


 17733 001c 00       		.byte	0
 17734 001d 00       		.byte	0
 17735 001e 03       		.uleb128 0x3
 17736 001f 24       		.uleb128 0x24
 17737 0020 00       		.byte	0
 17738 0021 0B       		.uleb128 0xb
 17739 0022 0B       		.uleb128 0xb
 17740 0023 3E       		.uleb128 0x3e
 17741 0024 0B       		.uleb128 0xb
 17742 0025 03       		.uleb128 0x3
 17743 0026 08       		.uleb128 0x8
 17744 0027 00       		.byte	0
 17745 0028 00       		.byte	0
 17746 0029 04       		.uleb128 0x4
 17747 002a 35       		.uleb128 0x35
 17748 002b 00       		.byte	0
 17749 002c 49       		.uleb128 0x49
 17750 002d 13       		.uleb128 0x13
 17751 002e 00       		.byte	0
 17752 002f 00       		.byte	0
 17753 0030 05       		.uleb128 0x5
 17754 0031 16       		.uleb128 0x16
 17755 0032 00       		.byte	0
 17756 0033 03       		.uleb128 0x3
 17757 0034 0E       		.uleb128 0xe
 17758 0035 3A       		.uleb128 0x3a
 17759 0036 0B       		.uleb128 0xb
 17760 0037 3B       		.uleb128 0x3b
 17761 0038 0B       		.uleb128 0xb
 17762 0039 49       		.uleb128 0x49
 17763 003a 13       		.uleb128 0x13
 17764 003b 00       		.byte	0
 17765 003c 00       		.byte	0
 17766 003d 06       		.uleb128 0x6
 17767 003e 0F       		.uleb128 0xf
 17768 003f 00       		.byte	0
 17769 0040 0B       		.uleb128 0xb
 17770 0041 0B       		.uleb128 0xb
 17771 0042 49       		.uleb128 0x49
 17772 0043 13       		.uleb128 0x13
 17773 0044 00       		.byte	0
 17774 0045 00       		.byte	0
 17775 0046 07       		.uleb128 0x7
 17776 0047 13       		.uleb128 0x13
 17777 0048 00       		.byte	0
 17778 0049 03       		.uleb128 0x3
 17779 004a 0E       		.uleb128 0xe
 17780 004b 3C       		.uleb128 0x3c
 17781 004c 19       		.uleb128 0x19
 17782 004d 00       		.byte	0
 17783 004e 00       		.byte	0
 17784 004f 08       		.uleb128 0x8
 17785 0050 16       		.uleb128 0x16
 17786 0051 00       		.byte	0
 17787 0052 03       		.uleb128 0x3
 17788 0053 0E       		.uleb128 0xe
 17789 0054 3A       		.uleb128 0x3a
ARM GAS  /tmp/ccjQGkoy.s 			page 314


 17790 0055 0B       		.uleb128 0xb
 17791 0056 3B       		.uleb128 0x3b
 17792 0057 05       		.uleb128 0x5
 17793 0058 49       		.uleb128 0x49
 17794 0059 13       		.uleb128 0x13
 17795 005a 00       		.byte	0
 17796 005b 00       		.byte	0
 17797 005c 09       		.uleb128 0x9
 17798 005d 17       		.uleb128 0x17
 17799 005e 01       		.byte	0x1
 17800 005f 0B       		.uleb128 0xb
 17801 0060 0B       		.uleb128 0xb
 17802 0061 3A       		.uleb128 0x3a
 17803 0062 0B       		.uleb128 0xb
 17804 0063 3B       		.uleb128 0x3b
 17805 0064 0B       		.uleb128 0xb
 17806 0065 01       		.uleb128 0x1
 17807 0066 13       		.uleb128 0x13
 17808 0067 00       		.byte	0
 17809 0068 00       		.byte	0
 17810 0069 0A       		.uleb128 0xa
 17811 006a 0D       		.uleb128 0xd
 17812 006b 00       		.byte	0
 17813 006c 03       		.uleb128 0x3
 17814 006d 0E       		.uleb128 0xe
 17815 006e 3A       		.uleb128 0x3a
 17816 006f 0B       		.uleb128 0xb
 17817 0070 3B       		.uleb128 0x3b
 17818 0071 0B       		.uleb128 0xb
 17819 0072 49       		.uleb128 0x49
 17820 0073 13       		.uleb128 0x13
 17821 0074 00       		.byte	0
 17822 0075 00       		.byte	0
 17823 0076 0B       		.uleb128 0xb
 17824 0077 01       		.uleb128 0x1
 17825 0078 01       		.byte	0x1
 17826 0079 49       		.uleb128 0x49
 17827 007a 13       		.uleb128 0x13
 17828 007b 01       		.uleb128 0x1
 17829 007c 13       		.uleb128 0x13
 17830 007d 00       		.byte	0
 17831 007e 00       		.byte	0
 17832 007f 0C       		.uleb128 0xc
 17833 0080 21       		.uleb128 0x21
 17834 0081 00       		.byte	0
 17835 0082 49       		.uleb128 0x49
 17836 0083 13       		.uleb128 0x13
 17837 0084 2F       		.uleb128 0x2f
 17838 0085 0B       		.uleb128 0xb
 17839 0086 00       		.byte	0
 17840 0087 00       		.byte	0
 17841 0088 0D       		.uleb128 0xd
 17842 0089 13       		.uleb128 0x13
 17843 008a 01       		.byte	0x1
 17844 008b 0B       		.uleb128 0xb
 17845 008c 0B       		.uleb128 0xb
 17846 008d 3A       		.uleb128 0x3a
ARM GAS  /tmp/ccjQGkoy.s 			page 315


 17847 008e 0B       		.uleb128 0xb
 17848 008f 3B       		.uleb128 0x3b
 17849 0090 0B       		.uleb128 0xb
 17850 0091 01       		.uleb128 0x1
 17851 0092 13       		.uleb128 0x13
 17852 0093 00       		.byte	0
 17853 0094 00       		.byte	0
 17854 0095 0E       		.uleb128 0xe
 17855 0096 0D       		.uleb128 0xd
 17856 0097 00       		.byte	0
 17857 0098 03       		.uleb128 0x3
 17858 0099 0E       		.uleb128 0xe
 17859 009a 3A       		.uleb128 0x3a
 17860 009b 0B       		.uleb128 0xb
 17861 009c 3B       		.uleb128 0x3b
 17862 009d 0B       		.uleb128 0xb
 17863 009e 49       		.uleb128 0x49
 17864 009f 13       		.uleb128 0x13
 17865 00a0 38       		.uleb128 0x38
 17866 00a1 0B       		.uleb128 0xb
 17867 00a2 00       		.byte	0
 17868 00a3 00       		.byte	0
 17869 00a4 0F       		.uleb128 0xf
 17870 00a5 0F       		.uleb128 0xf
 17871 00a6 00       		.byte	0
 17872 00a7 0B       		.uleb128 0xb
 17873 00a8 0B       		.uleb128 0xb
 17874 00a9 00       		.byte	0
 17875 00aa 00       		.byte	0
 17876 00ab 10       		.uleb128 0x10
 17877 00ac 26       		.uleb128 0x26
 17878 00ad 00       		.byte	0
 17879 00ae 49       		.uleb128 0x49
 17880 00af 13       		.uleb128 0x13
 17881 00b0 00       		.byte	0
 17882 00b1 00       		.byte	0
 17883 00b2 11       		.uleb128 0x11
 17884 00b3 13       		.uleb128 0x13
 17885 00b4 01       		.byte	0x1
 17886 00b5 03       		.uleb128 0x3
 17887 00b6 0E       		.uleb128 0xe
 17888 00b7 0B       		.uleb128 0xb
 17889 00b8 0B       		.uleb128 0xb
 17890 00b9 3A       		.uleb128 0x3a
 17891 00ba 0B       		.uleb128 0xb
 17892 00bb 3B       		.uleb128 0x3b
 17893 00bc 0B       		.uleb128 0xb
 17894 00bd 01       		.uleb128 0x1
 17895 00be 13       		.uleb128 0x13
 17896 00bf 00       		.byte	0
 17897 00c0 00       		.byte	0
 17898 00c1 12       		.uleb128 0x12
 17899 00c2 0D       		.uleb128 0xd
 17900 00c3 00       		.byte	0
 17901 00c4 03       		.uleb128 0x3
 17902 00c5 08       		.uleb128 0x8
 17903 00c6 3A       		.uleb128 0x3a
ARM GAS  /tmp/ccjQGkoy.s 			page 316


 17904 00c7 0B       		.uleb128 0xb
 17905 00c8 3B       		.uleb128 0x3b
 17906 00c9 0B       		.uleb128 0xb
 17907 00ca 49       		.uleb128 0x49
 17908 00cb 13       		.uleb128 0x13
 17909 00cc 38       		.uleb128 0x38
 17910 00cd 0B       		.uleb128 0xb
 17911 00ce 00       		.byte	0
 17912 00cf 00       		.byte	0
 17913 00d0 13       		.uleb128 0x13
 17914 00d1 13       		.uleb128 0x13
 17915 00d2 01       		.byte	0x1
 17916 00d3 03       		.uleb128 0x3
 17917 00d4 0E       		.uleb128 0xe
 17918 00d5 0B       		.uleb128 0xb
 17919 00d6 05       		.uleb128 0x5
 17920 00d7 3A       		.uleb128 0x3a
 17921 00d8 0B       		.uleb128 0xb
 17922 00d9 3B       		.uleb128 0x3b
 17923 00da 0B       		.uleb128 0xb
 17924 00db 01       		.uleb128 0x1
 17925 00dc 13       		.uleb128 0x13
 17926 00dd 00       		.byte	0
 17927 00de 00       		.byte	0
 17928 00df 14       		.uleb128 0x14
 17929 00e0 0D       		.uleb128 0xd
 17930 00e1 00       		.byte	0
 17931 00e2 03       		.uleb128 0x3
 17932 00e3 0E       		.uleb128 0xe
 17933 00e4 3A       		.uleb128 0x3a
 17934 00e5 0B       		.uleb128 0xb
 17935 00e6 3B       		.uleb128 0x3b
 17936 00e7 0B       		.uleb128 0xb
 17937 00e8 49       		.uleb128 0x49
 17938 00e9 13       		.uleb128 0x13
 17939 00ea 38       		.uleb128 0x38
 17940 00eb 05       		.uleb128 0x5
 17941 00ec 00       		.byte	0
 17942 00ed 00       		.byte	0
 17943 00ee 15       		.uleb128 0x15
 17944 00ef 15       		.uleb128 0x15
 17945 00f0 00       		.byte	0
 17946 00f1 27       		.uleb128 0x27
 17947 00f2 19       		.uleb128 0x19
 17948 00f3 00       		.byte	0
 17949 00f4 00       		.byte	0
 17950 00f5 16       		.uleb128 0x16
 17951 00f6 15       		.uleb128 0x15
 17952 00f7 01       		.byte	0x1
 17953 00f8 27       		.uleb128 0x27
 17954 00f9 19       		.uleb128 0x19
 17955 00fa 49       		.uleb128 0x49
 17956 00fb 13       		.uleb128 0x13
 17957 00fc 01       		.uleb128 0x1
 17958 00fd 13       		.uleb128 0x13
 17959 00fe 00       		.byte	0
 17960 00ff 00       		.byte	0
ARM GAS  /tmp/ccjQGkoy.s 			page 317


 17961 0100 17       		.uleb128 0x17
 17962 0101 05       		.uleb128 0x5
 17963 0102 00       		.byte	0
 17964 0103 49       		.uleb128 0x49
 17965 0104 13       		.uleb128 0x13
 17966 0105 00       		.byte	0
 17967 0106 00       		.byte	0
 17968 0107 18       		.uleb128 0x18
 17969 0108 13       		.uleb128 0x13
 17970 0109 01       		.byte	0x1
 17971 010a 03       		.uleb128 0x3
 17972 010b 0E       		.uleb128 0xe
 17973 010c 0B       		.uleb128 0xb
 17974 010d 05       		.uleb128 0x5
 17975 010e 3A       		.uleb128 0x3a
 17976 010f 0B       		.uleb128 0xb
 17977 0110 3B       		.uleb128 0x3b
 17978 0111 05       		.uleb128 0x5
 17979 0112 01       		.uleb128 0x1
 17980 0113 13       		.uleb128 0x13
 17981 0114 00       		.byte	0
 17982 0115 00       		.byte	0
 17983 0116 19       		.uleb128 0x19
 17984 0117 0D       		.uleb128 0xd
 17985 0118 00       		.byte	0
 17986 0119 03       		.uleb128 0x3
 17987 011a 0E       		.uleb128 0xe
 17988 011b 3A       		.uleb128 0x3a
 17989 011c 0B       		.uleb128 0xb
 17990 011d 3B       		.uleb128 0x3b
 17991 011e 05       		.uleb128 0x5
 17992 011f 49       		.uleb128 0x49
 17993 0120 13       		.uleb128 0x13
 17994 0121 38       		.uleb128 0x38
 17995 0122 0B       		.uleb128 0xb
 17996 0123 00       		.byte	0
 17997 0124 00       		.byte	0
 17998 0125 1A       		.uleb128 0x1a
 17999 0126 0D       		.uleb128 0xd
 18000 0127 00       		.byte	0
 18001 0128 03       		.uleb128 0x3
 18002 0129 0E       		.uleb128 0xe
 18003 012a 3A       		.uleb128 0x3a
 18004 012b 0B       		.uleb128 0xb
 18005 012c 3B       		.uleb128 0x3b
 18006 012d 05       		.uleb128 0x5
 18007 012e 49       		.uleb128 0x49
 18008 012f 13       		.uleb128 0x13
 18009 0130 38       		.uleb128 0x38
 18010 0131 05       		.uleb128 0x5
 18011 0132 00       		.byte	0
 18012 0133 00       		.byte	0
 18013 0134 1B       		.uleb128 0x1b
 18014 0135 13       		.uleb128 0x13
 18015 0136 01       		.byte	0x1
 18016 0137 03       		.uleb128 0x3
 18017 0138 0E       		.uleb128 0xe
ARM GAS  /tmp/ccjQGkoy.s 			page 318


 18018 0139 0B       		.uleb128 0xb
 18019 013a 0B       		.uleb128 0xb
 18020 013b 3A       		.uleb128 0x3a
 18021 013c 0B       		.uleb128 0xb
 18022 013d 3B       		.uleb128 0x3b
 18023 013e 05       		.uleb128 0x5
 18024 013f 01       		.uleb128 0x1
 18025 0140 13       		.uleb128 0x13
 18026 0141 00       		.byte	0
 18027 0142 00       		.byte	0
 18028 0143 1C       		.uleb128 0x1c
 18029 0144 13       		.uleb128 0x13
 18030 0145 01       		.byte	0x1
 18031 0146 0B       		.uleb128 0xb
 18032 0147 0B       		.uleb128 0xb
 18033 0148 3A       		.uleb128 0x3a
 18034 0149 0B       		.uleb128 0xb
 18035 014a 3B       		.uleb128 0x3b
 18036 014b 05       		.uleb128 0x5
 18037 014c 01       		.uleb128 0x1
 18038 014d 13       		.uleb128 0x13
 18039 014e 00       		.byte	0
 18040 014f 00       		.byte	0
 18041 0150 1D       		.uleb128 0x1d
 18042 0151 17       		.uleb128 0x17
 18043 0152 01       		.byte	0x1
 18044 0153 0B       		.uleb128 0xb
 18045 0154 0B       		.uleb128 0xb
 18046 0155 3A       		.uleb128 0x3a
 18047 0156 0B       		.uleb128 0xb
 18048 0157 3B       		.uleb128 0x3b
 18049 0158 05       		.uleb128 0x5
 18050 0159 01       		.uleb128 0x1
 18051 015a 13       		.uleb128 0x13
 18052 015b 00       		.byte	0
 18053 015c 00       		.byte	0
 18054 015d 1E       		.uleb128 0x1e
 18055 015e 0D       		.uleb128 0xd
 18056 015f 00       		.byte	0
 18057 0160 03       		.uleb128 0x3
 18058 0161 0E       		.uleb128 0xe
 18059 0162 3A       		.uleb128 0x3a
 18060 0163 0B       		.uleb128 0xb
 18061 0164 3B       		.uleb128 0x3b
 18062 0165 05       		.uleb128 0x5
 18063 0166 49       		.uleb128 0x49
 18064 0167 13       		.uleb128 0x13
 18065 0168 00       		.byte	0
 18066 0169 00       		.byte	0
 18067 016a 1F       		.uleb128 0x1f
 18068 016b 15       		.uleb128 0x15
 18069 016c 01       		.byte	0x1
 18070 016d 27       		.uleb128 0x27
 18071 016e 19       		.uleb128 0x19
 18072 016f 01       		.uleb128 0x1
 18073 0170 13       		.uleb128 0x13
 18074 0171 00       		.byte	0
ARM GAS  /tmp/ccjQGkoy.s 			page 319


 18075 0172 00       		.byte	0
 18076 0173 20       		.uleb128 0x20
 18077 0174 34       		.uleb128 0x34
 18078 0175 00       		.byte	0
 18079 0176 03       		.uleb128 0x3
 18080 0177 0E       		.uleb128 0xe
 18081 0178 3A       		.uleb128 0x3a
 18082 0179 0B       		.uleb128 0xb
 18083 017a 3B       		.uleb128 0x3b
 18084 017b 05       		.uleb128 0x5
 18085 017c 49       		.uleb128 0x49
 18086 017d 13       		.uleb128 0x13
 18087 017e 3F       		.uleb128 0x3f
 18088 017f 19       		.uleb128 0x19
 18089 0180 3C       		.uleb128 0x3c
 18090 0181 19       		.uleb128 0x19
 18091 0182 00       		.byte	0
 18092 0183 00       		.byte	0
 18093 0184 21       		.uleb128 0x21
 18094 0185 04       		.uleb128 0x4
 18095 0186 01       		.byte	0x1
 18096 0187 03       		.uleb128 0x3
 18097 0188 0E       		.uleb128 0xe
 18098 0189 3E       		.uleb128 0x3e
 18099 018a 0B       		.uleb128 0xb
 18100 018b 0B       		.uleb128 0xb
 18101 018c 0B       		.uleb128 0xb
 18102 018d 49       		.uleb128 0x49
 18103 018e 13       		.uleb128 0x13
 18104 018f 3A       		.uleb128 0x3a
 18105 0190 0B       		.uleb128 0xb
 18106 0191 3B       		.uleb128 0x3b
 18107 0192 05       		.uleb128 0x5
 18108 0193 01       		.uleb128 0x1
 18109 0194 13       		.uleb128 0x13
 18110 0195 00       		.byte	0
 18111 0196 00       		.byte	0
 18112 0197 22       		.uleb128 0x22
 18113 0198 28       		.uleb128 0x28
 18114 0199 00       		.byte	0
 18115 019a 03       		.uleb128 0x3
 18116 019b 0E       		.uleb128 0xe
 18117 019c 1C       		.uleb128 0x1c
 18118 019d 0D       		.uleb128 0xd
 18119 019e 00       		.byte	0
 18120 019f 00       		.byte	0
 18121 01a0 23       		.uleb128 0x23
 18122 01a1 28       		.uleb128 0x28
 18123 01a2 00       		.byte	0
 18124 01a3 03       		.uleb128 0x3
 18125 01a4 0E       		.uleb128 0xe
 18126 01a5 1C       		.uleb128 0x1c
 18127 01a6 0B       		.uleb128 0xb
 18128 01a7 00       		.byte	0
 18129 01a8 00       		.byte	0
 18130 01a9 24       		.uleb128 0x24
 18131 01aa 0D       		.uleb128 0xd
ARM GAS  /tmp/ccjQGkoy.s 			page 320


 18132 01ab 00       		.byte	0
 18133 01ac 03       		.uleb128 0x3
 18134 01ad 08       		.uleb128 0x8
 18135 01ae 3A       		.uleb128 0x3a
 18136 01af 0B       		.uleb128 0xb
 18137 01b0 3B       		.uleb128 0x3b
 18138 01b1 05       		.uleb128 0x5
 18139 01b2 49       		.uleb128 0x49
 18140 01b3 13       		.uleb128 0x13
 18141 01b4 38       		.uleb128 0x38
 18142 01b5 0B       		.uleb128 0xb
 18143 01b6 00       		.byte	0
 18144 01b7 00       		.byte	0
 18145 01b8 25       		.uleb128 0x25
 18146 01b9 34       		.uleb128 0x34
 18147 01ba 00       		.byte	0
 18148 01bb 03       		.uleb128 0x3
 18149 01bc 0E       		.uleb128 0xe
 18150 01bd 3A       		.uleb128 0x3a
 18151 01be 0B       		.uleb128 0xb
 18152 01bf 3B       		.uleb128 0x3b
 18153 01c0 0B       		.uleb128 0xb
 18154 01c1 49       		.uleb128 0x49
 18155 01c2 13       		.uleb128 0x13
 18156 01c3 3F       		.uleb128 0x3f
 18157 01c4 19       		.uleb128 0x19
 18158 01c5 3C       		.uleb128 0x3c
 18159 01c6 19       		.uleb128 0x19
 18160 01c7 00       		.byte	0
 18161 01c8 00       		.byte	0
 18162 01c9 26       		.uleb128 0x26
 18163 01ca 13       		.uleb128 0x13
 18164 01cb 01       		.byte	0x1
 18165 01cc 0B       		.uleb128 0xb
 18166 01cd 05       		.uleb128 0x5
 18167 01ce 3A       		.uleb128 0x3a
 18168 01cf 0B       		.uleb128 0xb
 18169 01d0 3B       		.uleb128 0x3b
 18170 01d1 05       		.uleb128 0x5
 18171 01d2 01       		.uleb128 0x1
 18172 01d3 13       		.uleb128 0x13
 18173 01d4 00       		.byte	0
 18174 01d5 00       		.byte	0
 18175 01d6 27       		.uleb128 0x27
 18176 01d7 0D       		.uleb128 0xd
 18177 01d8 00       		.byte	0
 18178 01d9 03       		.uleb128 0x3
 18179 01da 08       		.uleb128 0x8
 18180 01db 3A       		.uleb128 0x3a
 18181 01dc 0B       		.uleb128 0xb
 18182 01dd 3B       		.uleb128 0x3b
 18183 01de 05       		.uleb128 0x5
 18184 01df 49       		.uleb128 0x49
 18185 01e0 13       		.uleb128 0x13
 18186 01e1 38       		.uleb128 0x38
 18187 01e2 05       		.uleb128 0x5
 18188 01e3 00       		.byte	0
ARM GAS  /tmp/ccjQGkoy.s 			page 321


 18189 01e4 00       		.byte	0
 18190 01e5 28       		.uleb128 0x28
 18191 01e6 34       		.uleb128 0x34
 18192 01e7 00       		.byte	0
 18193 01e8 03       		.uleb128 0x3
 18194 01e9 08       		.uleb128 0x8
 18195 01ea 3A       		.uleb128 0x3a
 18196 01eb 0B       		.uleb128 0xb
 18197 01ec 3B       		.uleb128 0x3b
 18198 01ed 05       		.uleb128 0x5
 18199 01ee 49       		.uleb128 0x49
 18200 01ef 13       		.uleb128 0x13
 18201 01f0 3F       		.uleb128 0x3f
 18202 01f1 19       		.uleb128 0x19
 18203 01f2 3C       		.uleb128 0x3c
 18204 01f3 19       		.uleb128 0x19
 18205 01f4 00       		.byte	0
 18206 01f5 00       		.byte	0
 18207 01f6 29       		.uleb128 0x29
 18208 01f7 04       		.uleb128 0x4
 18209 01f8 01       		.byte	0x1
 18210 01f9 3E       		.uleb128 0x3e
 18211 01fa 0B       		.uleb128 0xb
 18212 01fb 0B       		.uleb128 0xb
 18213 01fc 0B       		.uleb128 0xb
 18214 01fd 49       		.uleb128 0x49
 18215 01fe 13       		.uleb128 0x13
 18216 01ff 3A       		.uleb128 0x3a
 18217 0200 0B       		.uleb128 0xb
 18218 0201 3B       		.uleb128 0x3b
 18219 0202 0B       		.uleb128 0xb
 18220 0203 01       		.uleb128 0x1
 18221 0204 13       		.uleb128 0x13
 18222 0205 00       		.byte	0
 18223 0206 00       		.byte	0
 18224 0207 2A       		.uleb128 0x2a
 18225 0208 13       		.uleb128 0x13
 18226 0209 01       		.byte	0x1
 18227 020a 0B       		.uleb128 0xb
 18228 020b 05       		.uleb128 0x5
 18229 020c 3A       		.uleb128 0x3a
 18230 020d 0B       		.uleb128 0xb
 18231 020e 3B       		.uleb128 0x3b
 18232 020f 0B       		.uleb128 0xb
 18233 0210 01       		.uleb128 0x1
 18234 0211 13       		.uleb128 0x13
 18235 0212 00       		.byte	0
 18236 0213 00       		.byte	0
 18237 0214 2B       		.uleb128 0x2b
 18238 0215 04       		.uleb128 0x4
 18239 0216 01       		.byte	0x1
 18240 0217 3E       		.uleb128 0x3e
 18241 0218 0B       		.uleb128 0xb
 18242 0219 0B       		.uleb128 0xb
 18243 021a 0B       		.uleb128 0xb
 18244 021b 49       		.uleb128 0x49
 18245 021c 13       		.uleb128 0x13
ARM GAS  /tmp/ccjQGkoy.s 			page 322


 18246 021d 3A       		.uleb128 0x3a
 18247 021e 0B       		.uleb128 0xb
 18248 021f 3B       		.uleb128 0x3b
 18249 0220 05       		.uleb128 0x5
 18250 0221 01       		.uleb128 0x1
 18251 0222 13       		.uleb128 0x13
 18252 0223 00       		.byte	0
 18253 0224 00       		.byte	0
 18254 0225 2C       		.uleb128 0x2c
 18255 0226 0D       		.uleb128 0xd
 18256 0227 00       		.byte	0
 18257 0228 03       		.uleb128 0x3
 18258 0229 08       		.uleb128 0x8
 18259 022a 3A       		.uleb128 0x3a
 18260 022b 0B       		.uleb128 0xb
 18261 022c 3B       		.uleb128 0x3b
 18262 022d 0B       		.uleb128 0xb
 18263 022e 49       		.uleb128 0x49
 18264 022f 13       		.uleb128 0x13
 18265 0230 00       		.byte	0
 18266 0231 00       		.byte	0
 18267 0232 2D       		.uleb128 0x2d
 18268 0233 0D       		.uleb128 0xd
 18269 0234 00       		.byte	0
 18270 0235 03       		.uleb128 0x3
 18271 0236 08       		.uleb128 0x8
 18272 0237 3A       		.uleb128 0x3a
 18273 0238 0B       		.uleb128 0xb
 18274 0239 3B       		.uleb128 0x3b
 18275 023a 0B       		.uleb128 0xb
 18276 023b 49       		.uleb128 0x49
 18277 023c 13       		.uleb128 0x13
 18278 023d 0B       		.uleb128 0xb
 18279 023e 0B       		.uleb128 0xb
 18280 023f 0D       		.uleb128 0xd
 18281 0240 0B       		.uleb128 0xb
 18282 0241 0C       		.uleb128 0xc
 18283 0242 0B       		.uleb128 0xb
 18284 0243 38       		.uleb128 0x38
 18285 0244 0B       		.uleb128 0xb
 18286 0245 00       		.byte	0
 18287 0246 00       		.byte	0
 18288 0247 2E       		.uleb128 0x2e
 18289 0248 0D       		.uleb128 0xd
 18290 0249 00       		.byte	0
 18291 024a 49       		.uleb128 0x49
 18292 024b 13       		.uleb128 0x13
 18293 024c 00       		.byte	0
 18294 024d 00       		.byte	0
 18295 024e 2F       		.uleb128 0x2f
 18296 024f 0D       		.uleb128 0xd
 18297 0250 00       		.byte	0
 18298 0251 49       		.uleb128 0x49
 18299 0252 13       		.uleb128 0x13
 18300 0253 38       		.uleb128 0x38
 18301 0254 0B       		.uleb128 0xb
 18302 0255 00       		.byte	0
ARM GAS  /tmp/ccjQGkoy.s 			page 323


 18303 0256 00       		.byte	0
 18304 0257 30       		.uleb128 0x30
 18305 0258 13       		.uleb128 0x13
 18306 0259 01       		.byte	0x1
 18307 025a 0B       		.uleb128 0xb
 18308 025b 06       		.uleb128 0x6
 18309 025c 3A       		.uleb128 0x3a
 18310 025d 0B       		.uleb128 0xb
 18311 025e 3B       		.uleb128 0x3b
 18312 025f 0B       		.uleb128 0xb
 18313 0260 01       		.uleb128 0x1
 18314 0261 13       		.uleb128 0x13
 18315 0262 00       		.byte	0
 18316 0263 00       		.byte	0
 18317 0264 31       		.uleb128 0x31
 18318 0265 0D       		.uleb128 0xd
 18319 0266 00       		.byte	0
 18320 0267 03       		.uleb128 0x3
 18321 0268 08       		.uleb128 0x8
 18322 0269 3A       		.uleb128 0x3a
 18323 026a 0B       		.uleb128 0xb
 18324 026b 3B       		.uleb128 0x3b
 18325 026c 0B       		.uleb128 0xb
 18326 026d 49       		.uleb128 0x49
 18327 026e 13       		.uleb128 0x13
 18328 026f 38       		.uleb128 0x38
 18329 0270 05       		.uleb128 0x5
 18330 0271 00       		.byte	0
 18331 0272 00       		.byte	0
 18332 0273 32       		.uleb128 0x32
 18333 0274 21       		.uleb128 0x21
 18334 0275 00       		.byte	0
 18335 0276 49       		.uleb128 0x49
 18336 0277 13       		.uleb128 0x13
 18337 0278 2F       		.uleb128 0x2f
 18338 0279 05       		.uleb128 0x5
 18339 027a 00       		.byte	0
 18340 027b 00       		.byte	0
 18341 027c 33       		.uleb128 0x33
 18342 027d 21       		.uleb128 0x21
 18343 027e 00       		.byte	0
 18344 027f 00       		.byte	0
 18345 0280 00       		.byte	0
 18346 0281 34       		.uleb128 0x34
 18347 0282 34       		.uleb128 0x34
 18348 0283 00       		.byte	0
 18349 0284 03       		.uleb128 0x3
 18350 0285 0E       		.uleb128 0xe
 18351 0286 3A       		.uleb128 0x3a
 18352 0287 0B       		.uleb128 0xb
 18353 0288 3B       		.uleb128 0x3b
 18354 0289 0B       		.uleb128 0xb
 18355 028a 49       		.uleb128 0x49
 18356 028b 13       		.uleb128 0x13
 18357 028c 02       		.uleb128 0x2
 18358 028d 18       		.uleb128 0x18
 18359 028e 00       		.byte	0
ARM GAS  /tmp/ccjQGkoy.s 			page 324


 18360 028f 00       		.byte	0
 18361 0290 35       		.uleb128 0x35
 18362 0291 2E       		.uleb128 0x2e
 18363 0292 01       		.byte	0x1
 18364 0293 03       		.uleb128 0x3
 18365 0294 0E       		.uleb128 0xe
 18366 0295 3A       		.uleb128 0x3a
 18367 0296 0B       		.uleb128 0xb
 18368 0297 3B       		.uleb128 0x3b
 18369 0298 05       		.uleb128 0x5
 18370 0299 27       		.uleb128 0x27
 18371 029a 19       		.uleb128 0x19
 18372 029b 20       		.uleb128 0x20
 18373 029c 0B       		.uleb128 0xb
 18374 029d 01       		.uleb128 0x1
 18375 029e 13       		.uleb128 0x13
 18376 029f 00       		.byte	0
 18377 02a0 00       		.byte	0
 18378 02a1 36       		.uleb128 0x36
 18379 02a2 05       		.uleb128 0x5
 18380 02a3 00       		.byte	0
 18381 02a4 03       		.uleb128 0x3
 18382 02a5 08       		.uleb128 0x8
 18383 02a6 3A       		.uleb128 0x3a
 18384 02a7 0B       		.uleb128 0xb
 18385 02a8 3B       		.uleb128 0x3b
 18386 02a9 05       		.uleb128 0x5
 18387 02aa 49       		.uleb128 0x49
 18388 02ab 13       		.uleb128 0x13
 18389 02ac 00       		.byte	0
 18390 02ad 00       		.byte	0
 18391 02ae 37       		.uleb128 0x37
 18392 02af 2E       		.uleb128 0x2e
 18393 02b0 01       		.byte	0x1
 18394 02b1 03       		.uleb128 0x3
 18395 02b2 0E       		.uleb128 0xe
 18396 02b3 3A       		.uleb128 0x3a
 18397 02b4 0B       		.uleb128 0xb
 18398 02b5 3B       		.uleb128 0x3b
 18399 02b6 05       		.uleb128 0x5
 18400 02b7 27       		.uleb128 0x27
 18401 02b8 19       		.uleb128 0x19
 18402 02b9 11       		.uleb128 0x11
 18403 02ba 01       		.uleb128 0x1
 18404 02bb 12       		.uleb128 0x12
 18405 02bc 06       		.uleb128 0x6
 18406 02bd 40       		.uleb128 0x40
 18407 02be 18       		.uleb128 0x18
 18408 02bf 9742     		.uleb128 0x2117
 18409 02c1 19       		.uleb128 0x19
 18410 02c2 01       		.uleb128 0x1
 18411 02c3 13       		.uleb128 0x13
 18412 02c4 00       		.byte	0
 18413 02c5 00       		.byte	0
 18414 02c6 38       		.uleb128 0x38
 18415 02c7 05       		.uleb128 0x5
 18416 02c8 00       		.byte	0
ARM GAS  /tmp/ccjQGkoy.s 			page 325


 18417 02c9 03       		.uleb128 0x3
 18418 02ca 0E       		.uleb128 0xe
 18419 02cb 3A       		.uleb128 0x3a
 18420 02cc 0B       		.uleb128 0xb
 18421 02cd 3B       		.uleb128 0x3b
 18422 02ce 05       		.uleb128 0x5
 18423 02cf 49       		.uleb128 0x49
 18424 02d0 13       		.uleb128 0x13
 18425 02d1 02       		.uleb128 0x2
 18426 02d2 17       		.uleb128 0x17
 18427 02d3 00       		.byte	0
 18428 02d4 00       		.byte	0
 18429 02d5 39       		.uleb128 0x39
 18430 02d6 05       		.uleb128 0x5
 18431 02d7 00       		.byte	0
 18432 02d8 03       		.uleb128 0x3
 18433 02d9 08       		.uleb128 0x8
 18434 02da 3A       		.uleb128 0x3a
 18435 02db 0B       		.uleb128 0xb
 18436 02dc 3B       		.uleb128 0x3b
 18437 02dd 05       		.uleb128 0x5
 18438 02de 49       		.uleb128 0x49
 18439 02df 13       		.uleb128 0x13
 18440 02e0 02       		.uleb128 0x2
 18441 02e1 17       		.uleb128 0x17
 18442 02e2 00       		.byte	0
 18443 02e3 00       		.byte	0
 18444 02e4 3A       		.uleb128 0x3a
 18445 02e5 898201   		.uleb128 0x4109
 18446 02e8 01       		.byte	0x1
 18447 02e9 11       		.uleb128 0x11
 18448 02ea 01       		.uleb128 0x1
 18449 02eb 9542     		.uleb128 0x2115
 18450 02ed 19       		.uleb128 0x19
 18451 02ee 31       		.uleb128 0x31
 18452 02ef 13       		.uleb128 0x13
 18453 02f0 00       		.byte	0
 18454 02f1 00       		.byte	0
 18455 02f2 3B       		.uleb128 0x3b
 18456 02f3 8A8201   		.uleb128 0x410a
 18457 02f6 00       		.byte	0
 18458 02f7 02       		.uleb128 0x2
 18459 02f8 18       		.uleb128 0x18
 18460 02f9 9142     		.uleb128 0x2111
 18461 02fb 18       		.uleb128 0x18
 18462 02fc 00       		.byte	0
 18463 02fd 00       		.byte	0
 18464 02fe 3C       		.uleb128 0x3c
 18465 02ff 0B       		.uleb128 0xb
 18466 0300 01       		.byte	0x1
 18467 0301 55       		.uleb128 0x55
 18468 0302 17       		.uleb128 0x17
 18469 0303 01       		.uleb128 0x1
 18470 0304 13       		.uleb128 0x13
 18471 0305 00       		.byte	0
 18472 0306 00       		.byte	0
 18473 0307 3D       		.uleb128 0x3d
ARM GAS  /tmp/ccjQGkoy.s 			page 326


 18474 0308 34       		.uleb128 0x34
 18475 0309 00       		.byte	0
 18476 030a 03       		.uleb128 0x3
 18477 030b 0E       		.uleb128 0xe
 18478 030c 3A       		.uleb128 0x3a
 18479 030d 0B       		.uleb128 0xb
 18480 030e 3B       		.uleb128 0x3b
 18481 030f 05       		.uleb128 0x5
 18482 0310 49       		.uleb128 0x49
 18483 0311 13       		.uleb128 0x13
 18484 0312 02       		.uleb128 0x2
 18485 0313 17       		.uleb128 0x17
 18486 0314 00       		.byte	0
 18487 0315 00       		.byte	0
 18488 0316 3E       		.uleb128 0x3e
 18489 0317 34       		.uleb128 0x34
 18490 0318 00       		.byte	0
 18491 0319 03       		.uleb128 0x3
 18492 031a 0E       		.uleb128 0xe
 18493 031b 3A       		.uleb128 0x3a
 18494 031c 0B       		.uleb128 0xb
 18495 031d 3B       		.uleb128 0x3b
 18496 031e 05       		.uleb128 0x5
 18497 031f 49       		.uleb128 0x49
 18498 0320 13       		.uleb128 0x13
 18499 0321 02       		.uleb128 0x2
 18500 0322 18       		.uleb128 0x18
 18501 0323 00       		.byte	0
 18502 0324 00       		.byte	0
 18503 0325 3F       		.uleb128 0x3f
 18504 0326 898201   		.uleb128 0x4109
 18505 0329 00       		.byte	0
 18506 032a 11       		.uleb128 0x11
 18507 032b 01       		.uleb128 0x1
 18508 032c 31       		.uleb128 0x31
 18509 032d 13       		.uleb128 0x13
 18510 032e 00       		.byte	0
 18511 032f 00       		.byte	0
 18512 0330 40       		.uleb128 0x40
 18513 0331 898201   		.uleb128 0x4109
 18514 0334 01       		.byte	0x1
 18515 0335 11       		.uleb128 0x11
 18516 0336 01       		.uleb128 0x1
 18517 0337 31       		.uleb128 0x31
 18518 0338 13       		.uleb128 0x13
 18519 0339 01       		.uleb128 0x1
 18520 033a 13       		.uleb128 0x13
 18521 033b 00       		.byte	0
 18522 033c 00       		.byte	0
 18523 033d 41       		.uleb128 0x41
 18524 033e 898201   		.uleb128 0x4109
 18525 0341 01       		.byte	0x1
 18526 0342 11       		.uleb128 0x11
 18527 0343 01       		.uleb128 0x1
 18528 0344 31       		.uleb128 0x31
 18529 0345 13       		.uleb128 0x13
 18530 0346 00       		.byte	0
ARM GAS  /tmp/ccjQGkoy.s 			page 327


 18531 0347 00       		.byte	0
 18532 0348 42       		.uleb128 0x42
 18533 0349 0B       		.uleb128 0xb
 18534 034a 01       		.byte	0x1
 18535 034b 11       		.uleb128 0x11
 18536 034c 01       		.uleb128 0x1
 18537 034d 12       		.uleb128 0x12
 18538 034e 06       		.uleb128 0x6
 18539 034f 01       		.uleb128 0x1
 18540 0350 13       		.uleb128 0x13
 18541 0351 00       		.byte	0
 18542 0352 00       		.byte	0
 18543 0353 43       		.uleb128 0x43
 18544 0354 1D       		.uleb128 0x1d
 18545 0355 01       		.byte	0x1
 18546 0356 31       		.uleb128 0x31
 18547 0357 13       		.uleb128 0x13
 18548 0358 52       		.uleb128 0x52
 18549 0359 01       		.uleb128 0x1
 18550 035a 55       		.uleb128 0x55
 18551 035b 17       		.uleb128 0x17
 18552 035c 58       		.uleb128 0x58
 18553 035d 0B       		.uleb128 0xb
 18554 035e 59       		.uleb128 0x59
 18555 035f 05       		.uleb128 0x5
 18556 0360 00       		.byte	0
 18557 0361 00       		.byte	0
 18558 0362 44       		.uleb128 0x44
 18559 0363 05       		.uleb128 0x5
 18560 0364 00       		.byte	0
 18561 0365 31       		.uleb128 0x31
 18562 0366 13       		.uleb128 0x13
 18563 0367 02       		.uleb128 0x2
 18564 0368 18       		.uleb128 0x18
 18565 0369 00       		.byte	0
 18566 036a 00       		.byte	0
 18567 036b 45       		.uleb128 0x45
 18568 036c 34       		.uleb128 0x34
 18569 036d 00       		.byte	0
 18570 036e 03       		.uleb128 0x3
 18571 036f 08       		.uleb128 0x8
 18572 0370 3A       		.uleb128 0x3a
 18573 0371 0B       		.uleb128 0xb
 18574 0372 3B       		.uleb128 0x3b
 18575 0373 05       		.uleb128 0x5
 18576 0374 49       		.uleb128 0x49
 18577 0375 13       		.uleb128 0x13
 18578 0376 02       		.uleb128 0x2
 18579 0377 18       		.uleb128 0x18
 18580 0378 00       		.byte	0
 18581 0379 00       		.byte	0
 18582 037a 46       		.uleb128 0x46
 18583 037b 34       		.uleb128 0x34
 18584 037c 00       		.byte	0
 18585 037d 03       		.uleb128 0x3
 18586 037e 08       		.uleb128 0x8
 18587 037f 3A       		.uleb128 0x3a
ARM GAS  /tmp/ccjQGkoy.s 			page 328


 18588 0380 0B       		.uleb128 0xb
 18589 0381 3B       		.uleb128 0x3b
 18590 0382 05       		.uleb128 0x5
 18591 0383 49       		.uleb128 0x49
 18592 0384 13       		.uleb128 0x13
 18593 0385 02       		.uleb128 0x2
 18594 0386 17       		.uleb128 0x17
 18595 0387 00       		.byte	0
 18596 0388 00       		.byte	0
 18597 0389 47       		.uleb128 0x47
 18598 038a 0B       		.uleb128 0xb
 18599 038b 01       		.byte	0x1
 18600 038c 55       		.uleb128 0x55
 18601 038d 17       		.uleb128 0x17
 18602 038e 00       		.byte	0
 18603 038f 00       		.byte	0
 18604 0390 48       		.uleb128 0x48
 18605 0391 1D       		.uleb128 0x1d
 18606 0392 01       		.byte	0x1
 18607 0393 31       		.uleb128 0x31
 18608 0394 13       		.uleb128 0x13
 18609 0395 11       		.uleb128 0x11
 18610 0396 01       		.uleb128 0x1
 18611 0397 12       		.uleb128 0x12
 18612 0398 06       		.uleb128 0x6
 18613 0399 58       		.uleb128 0x58
 18614 039a 0B       		.uleb128 0xb
 18615 039b 59       		.uleb128 0x59
 18616 039c 05       		.uleb128 0x5
 18617 039d 01       		.uleb128 0x1
 18618 039e 13       		.uleb128 0x13
 18619 039f 00       		.byte	0
 18620 03a0 00       		.byte	0
 18621 03a1 49       		.uleb128 0x49
 18622 03a2 0B       		.uleb128 0xb
 18623 03a3 01       		.byte	0x1
 18624 03a4 11       		.uleb128 0x11
 18625 03a5 01       		.uleb128 0x1
 18626 03a6 12       		.uleb128 0x12
 18627 03a7 06       		.uleb128 0x6
 18628 03a8 00       		.byte	0
 18629 03a9 00       		.byte	0
 18630 03aa 4A       		.uleb128 0x4a
 18631 03ab 34       		.uleb128 0x34
 18632 03ac 00       		.byte	0
 18633 03ad 31       		.uleb128 0x31
 18634 03ae 13       		.uleb128 0x13
 18635 03af 00       		.byte	0
 18636 03b0 00       		.byte	0
 18637 03b1 4B       		.uleb128 0x4b
 18638 03b2 1D       		.uleb128 0x1d
 18639 03b3 01       		.byte	0x1
 18640 03b4 31       		.uleb128 0x31
 18641 03b5 13       		.uleb128 0x13
 18642 03b6 11       		.uleb128 0x11
 18643 03b7 01       		.uleb128 0x1
 18644 03b8 12       		.uleb128 0x12
ARM GAS  /tmp/ccjQGkoy.s 			page 329


 18645 03b9 06       		.uleb128 0x6
 18646 03ba 58       		.uleb128 0x58
 18647 03bb 0B       		.uleb128 0xb
 18648 03bc 59       		.uleb128 0x59
 18649 03bd 0B       		.uleb128 0xb
 18650 03be 01       		.uleb128 0x1
 18651 03bf 13       		.uleb128 0x13
 18652 03c0 00       		.byte	0
 18653 03c1 00       		.byte	0
 18654 03c2 4C       		.uleb128 0x4c
 18655 03c3 1D       		.uleb128 0x1d
 18656 03c4 01       		.byte	0x1
 18657 03c5 31       		.uleb128 0x31
 18658 03c6 13       		.uleb128 0x13
 18659 03c7 11       		.uleb128 0x11
 18660 03c8 01       		.uleb128 0x1
 18661 03c9 12       		.uleb128 0x12
 18662 03ca 06       		.uleb128 0x6
 18663 03cb 58       		.uleb128 0x58
 18664 03cc 0B       		.uleb128 0xb
 18665 03cd 59       		.uleb128 0x59
 18666 03ce 05       		.uleb128 0x5
 18667 03cf 00       		.byte	0
 18668 03d0 00       		.byte	0
 18669 03d1 4D       		.uleb128 0x4d
 18670 03d2 05       		.uleb128 0x5
 18671 03d3 00       		.byte	0
 18672 03d4 31       		.uleb128 0x31
 18673 03d5 13       		.uleb128 0x13
 18674 03d6 02       		.uleb128 0x2
 18675 03d7 17       		.uleb128 0x17
 18676 03d8 00       		.byte	0
 18677 03d9 00       		.byte	0
 18678 03da 4E       		.uleb128 0x4e
 18679 03db 1D       		.uleb128 0x1d
 18680 03dc 00       		.byte	0
 18681 03dd 31       		.uleb128 0x31
 18682 03de 13       		.uleb128 0x13
 18683 03df 11       		.uleb128 0x11
 18684 03e0 01       		.uleb128 0x1
 18685 03e1 12       		.uleb128 0x12
 18686 03e2 06       		.uleb128 0x6
 18687 03e3 58       		.uleb128 0x58
 18688 03e4 0B       		.uleb128 0xb
 18689 03e5 59       		.uleb128 0x59
 18690 03e6 0B       		.uleb128 0xb
 18691 03e7 00       		.byte	0
 18692 03e8 00       		.byte	0
 18693 03e9 4F       		.uleb128 0x4f
 18694 03ea 1D       		.uleb128 0x1d
 18695 03eb 01       		.byte	0x1
 18696 03ec 31       		.uleb128 0x31
 18697 03ed 13       		.uleb128 0x13
 18698 03ee 11       		.uleb128 0x11
 18699 03ef 01       		.uleb128 0x1
 18700 03f0 12       		.uleb128 0x12
 18701 03f1 06       		.uleb128 0x6
ARM GAS  /tmp/ccjQGkoy.s 			page 330


 18702 03f2 58       		.uleb128 0x58
 18703 03f3 0B       		.uleb128 0xb
 18704 03f4 59       		.uleb128 0x59
 18705 03f5 0B       		.uleb128 0xb
 18706 03f6 00       		.byte	0
 18707 03f7 00       		.byte	0
 18708 03f8 50       		.uleb128 0x50
 18709 03f9 898201   		.uleb128 0x4109
 18710 03fc 01       		.byte	0x1
 18711 03fd 11       		.uleb128 0x11
 18712 03fe 01       		.uleb128 0x1
 18713 03ff 00       		.byte	0
 18714 0400 00       		.byte	0
 18715 0401 51       		.uleb128 0x51
 18716 0402 1D       		.uleb128 0x1d
 18717 0403 01       		.byte	0x1
 18718 0404 31       		.uleb128 0x31
 18719 0405 13       		.uleb128 0x13
 18720 0406 52       		.uleb128 0x52
 18721 0407 01       		.uleb128 0x1
 18722 0408 55       		.uleb128 0x55
 18723 0409 17       		.uleb128 0x17
 18724 040a 58       		.uleb128 0x58
 18725 040b 0B       		.uleb128 0xb
 18726 040c 59       		.uleb128 0x59
 18727 040d 05       		.uleb128 0x5
 18728 040e 01       		.uleb128 0x1
 18729 040f 13       		.uleb128 0x13
 18730 0410 00       		.byte	0
 18731 0411 00       		.byte	0
 18732 0412 52       		.uleb128 0x52
 18733 0413 05       		.uleb128 0x5
 18734 0414 00       		.byte	0
 18735 0415 31       		.uleb128 0x31
 18736 0416 13       		.uleb128 0x13
 18737 0417 1C       		.uleb128 0x1c
 18738 0418 0B       		.uleb128 0xb
 18739 0419 00       		.byte	0
 18740 041a 00       		.byte	0
 18741 041b 53       		.uleb128 0x53
 18742 041c 1D       		.uleb128 0x1d
 18743 041d 01       		.byte	0x1
 18744 041e 31       		.uleb128 0x31
 18745 041f 13       		.uleb128 0x13
 18746 0420 52       		.uleb128 0x52
 18747 0421 01       		.uleb128 0x1
 18748 0422 55       		.uleb128 0x55
 18749 0423 17       		.uleb128 0x17
 18750 0424 58       		.uleb128 0x58
 18751 0425 0B       		.uleb128 0xb
 18752 0426 59       		.uleb128 0x59
 18753 0427 0B       		.uleb128 0xb
 18754 0428 00       		.byte	0
 18755 0429 00       		.byte	0
 18756 042a 54       		.uleb128 0x54
 18757 042b 1D       		.uleb128 0x1d
 18758 042c 00       		.byte	0
ARM GAS  /tmp/ccjQGkoy.s 			page 331


 18759 042d 31       		.uleb128 0x31
 18760 042e 13       		.uleb128 0x13
 18761 042f 52       		.uleb128 0x52
 18762 0430 01       		.uleb128 0x1
 18763 0431 55       		.uleb128 0x55
 18764 0432 17       		.uleb128 0x17
 18765 0433 58       		.uleb128 0x58
 18766 0434 0B       		.uleb128 0xb
 18767 0435 59       		.uleb128 0x59
 18768 0436 05       		.uleb128 0x5
 18769 0437 00       		.byte	0
 18770 0438 00       		.byte	0
 18771 0439 55       		.uleb128 0x55
 18772 043a 2E       		.uleb128 0x2e
 18773 043b 01       		.byte	0x1
 18774 043c 3F       		.uleb128 0x3f
 18775 043d 19       		.uleb128 0x19
 18776 043e 03       		.uleb128 0x3
 18777 043f 0E       		.uleb128 0xe
 18778 0440 3A       		.uleb128 0x3a
 18779 0441 0B       		.uleb128 0xb
 18780 0442 3B       		.uleb128 0x3b
 18781 0443 05       		.uleb128 0x5
 18782 0444 27       		.uleb128 0x27
 18783 0445 19       		.uleb128 0x19
 18784 0446 49       		.uleb128 0x49
 18785 0447 13       		.uleb128 0x13
 18786 0448 11       		.uleb128 0x11
 18787 0449 01       		.uleb128 0x1
 18788 044a 12       		.uleb128 0x12
 18789 044b 06       		.uleb128 0x6
 18790 044c 40       		.uleb128 0x40
 18791 044d 18       		.uleb128 0x18
 18792 044e 9742     		.uleb128 0x2117
 18793 0450 19       		.uleb128 0x19
 18794 0451 01       		.uleb128 0x1
 18795 0452 13       		.uleb128 0x13
 18796 0453 00       		.byte	0
 18797 0454 00       		.byte	0
 18798 0455 56       		.uleb128 0x56
 18799 0456 2E       		.uleb128 0x2e
 18800 0457 00       		.byte	0
 18801 0458 3F       		.uleb128 0x3f
 18802 0459 19       		.uleb128 0x19
 18803 045a 03       		.uleb128 0x3
 18804 045b 0E       		.uleb128 0xe
 18805 045c 3A       		.uleb128 0x3a
 18806 045d 0B       		.uleb128 0xb
 18807 045e 3B       		.uleb128 0x3b
 18808 045f 05       		.uleb128 0x5
 18809 0460 27       		.uleb128 0x27
 18810 0461 19       		.uleb128 0x19
 18811 0462 11       		.uleb128 0x11
 18812 0463 01       		.uleb128 0x1
 18813 0464 12       		.uleb128 0x12
 18814 0465 06       		.uleb128 0x6
 18815 0466 40       		.uleb128 0x40
ARM GAS  /tmp/ccjQGkoy.s 			page 332


 18816 0467 18       		.uleb128 0x18
 18817 0468 9742     		.uleb128 0x2117
 18818 046a 19       		.uleb128 0x19
 18819 046b 00       		.byte	0
 18820 046c 00       		.byte	0
 18821 046d 57       		.uleb128 0x57
 18822 046e 2E       		.uleb128 0x2e
 18823 046f 00       		.byte	0
 18824 0470 3F       		.uleb128 0x3f
 18825 0471 19       		.uleb128 0x19
 18826 0472 03       		.uleb128 0x3
 18827 0473 0E       		.uleb128 0xe
 18828 0474 3A       		.uleb128 0x3a
 18829 0475 0B       		.uleb128 0xb
 18830 0476 3B       		.uleb128 0x3b
 18831 0477 05       		.uleb128 0x5
 18832 0478 27       		.uleb128 0x27
 18833 0479 19       		.uleb128 0x19
 18834 047a 49       		.uleb128 0x49
 18835 047b 13       		.uleb128 0x13
 18836 047c 11       		.uleb128 0x11
 18837 047d 01       		.uleb128 0x1
 18838 047e 12       		.uleb128 0x12
 18839 047f 06       		.uleb128 0x6
 18840 0480 40       		.uleb128 0x40
 18841 0481 18       		.uleb128 0x18
 18842 0482 9742     		.uleb128 0x2117
 18843 0484 19       		.uleb128 0x19
 18844 0485 00       		.byte	0
 18845 0486 00       		.byte	0
 18846 0487 58       		.uleb128 0x58
 18847 0488 2E       		.uleb128 0x2e
 18848 0489 01       		.byte	0x1
 18849 048a 3F       		.uleb128 0x3f
 18850 048b 19       		.uleb128 0x19
 18851 048c 03       		.uleb128 0x3
 18852 048d 0E       		.uleb128 0xe
 18853 048e 3A       		.uleb128 0x3a
 18854 048f 0B       		.uleb128 0xb
 18855 0490 3B       		.uleb128 0x3b
 18856 0491 05       		.uleb128 0x5
 18857 0492 27       		.uleb128 0x27
 18858 0493 19       		.uleb128 0x19
 18859 0494 11       		.uleb128 0x11
 18860 0495 01       		.uleb128 0x1
 18861 0496 12       		.uleb128 0x12
 18862 0497 06       		.uleb128 0x6
 18863 0498 40       		.uleb128 0x40
 18864 0499 18       		.uleb128 0x18
 18865 049a 9742     		.uleb128 0x2117
 18866 049c 19       		.uleb128 0x19
 18867 049d 01       		.uleb128 0x1
 18868 049e 13       		.uleb128 0x13
 18869 049f 00       		.byte	0
 18870 04a0 00       		.byte	0
 18871 04a1 59       		.uleb128 0x59
 18872 04a2 1D       		.uleb128 0x1d
ARM GAS  /tmp/ccjQGkoy.s 			page 333


 18873 04a3 00       		.byte	0
 18874 04a4 31       		.uleb128 0x31
 18875 04a5 13       		.uleb128 0x13
 18876 04a6 11       		.uleb128 0x11
 18877 04a7 01       		.uleb128 0x1
 18878 04a8 12       		.uleb128 0x12
 18879 04a9 06       		.uleb128 0x6
 18880 04aa 58       		.uleb128 0x58
 18881 04ab 0B       		.uleb128 0xb
 18882 04ac 59       		.uleb128 0x59
 18883 04ad 05       		.uleb128 0x5
 18884 04ae 00       		.byte	0
 18885 04af 00       		.byte	0
 18886 04b0 5A       		.uleb128 0x5a
 18887 04b1 2E       		.uleb128 0x2e
 18888 04b2 01       		.byte	0x1
 18889 04b3 3F       		.uleb128 0x3f
 18890 04b4 19       		.uleb128 0x19
 18891 04b5 03       		.uleb128 0x3
 18892 04b6 0E       		.uleb128 0xe
 18893 04b7 3A       		.uleb128 0x3a
 18894 04b8 0B       		.uleb128 0xb
 18895 04b9 3B       		.uleb128 0x3b
 18896 04ba 0B       		.uleb128 0xb
 18897 04bb 27       		.uleb128 0x27
 18898 04bc 19       		.uleb128 0x19
 18899 04bd 20       		.uleb128 0x20
 18900 04be 0B       		.uleb128 0xb
 18901 04bf 01       		.uleb128 0x1
 18902 04c0 13       		.uleb128 0x13
 18903 04c1 00       		.byte	0
 18904 04c2 00       		.byte	0
 18905 04c3 5B       		.uleb128 0x5b
 18906 04c4 05       		.uleb128 0x5
 18907 04c5 00       		.byte	0
 18908 04c6 03       		.uleb128 0x3
 18909 04c7 0E       		.uleb128 0xe
 18910 04c8 3A       		.uleb128 0x3a
 18911 04c9 0B       		.uleb128 0xb
 18912 04ca 3B       		.uleb128 0x3b
 18913 04cb 0B       		.uleb128 0xb
 18914 04cc 49       		.uleb128 0x49
 18915 04cd 13       		.uleb128 0x13
 18916 04ce 00       		.byte	0
 18917 04cf 00       		.byte	0
 18918 04d0 5C       		.uleb128 0x5c
 18919 04d1 05       		.uleb128 0x5
 18920 04d2 00       		.byte	0
 18921 04d3 03       		.uleb128 0x3
 18922 04d4 08       		.uleb128 0x8
 18923 04d5 3A       		.uleb128 0x3a
 18924 04d6 0B       		.uleb128 0xb
 18925 04d7 3B       		.uleb128 0x3b
 18926 04d8 0B       		.uleb128 0xb
 18927 04d9 49       		.uleb128 0x49
 18928 04da 13       		.uleb128 0x13
 18929 04db 00       		.byte	0
ARM GAS  /tmp/ccjQGkoy.s 			page 334


 18930 04dc 00       		.byte	0
 18931 04dd 5D       		.uleb128 0x5d
 18932 04de 34       		.uleb128 0x34
 18933 04df 00       		.byte	0
 18934 04e0 03       		.uleb128 0x3
 18935 04e1 0E       		.uleb128 0xe
 18936 04e2 3A       		.uleb128 0x3a
 18937 04e3 0B       		.uleb128 0xb
 18938 04e4 3B       		.uleb128 0x3b
 18939 04e5 0B       		.uleb128 0xb
 18940 04e6 49       		.uleb128 0x49
 18941 04e7 13       		.uleb128 0x13
 18942 04e8 00       		.byte	0
 18943 04e9 00       		.byte	0
 18944 04ea 5E       		.uleb128 0x5e
 18945 04eb 0B       		.uleb128 0xb
 18946 04ec 01       		.byte	0x1
 18947 04ed 01       		.uleb128 0x1
 18948 04ee 13       		.uleb128 0x13
 18949 04ef 00       		.byte	0
 18950 04f0 00       		.byte	0
 18951 04f1 5F       		.uleb128 0x5f
 18952 04f2 34       		.uleb128 0x34
 18953 04f3 00       		.byte	0
 18954 04f4 03       		.uleb128 0x3
 18955 04f5 08       		.uleb128 0x8
 18956 04f6 3A       		.uleb128 0x3a
 18957 04f7 0B       		.uleb128 0xb
 18958 04f8 3B       		.uleb128 0x3b
 18959 04f9 0B       		.uleb128 0xb
 18960 04fa 49       		.uleb128 0x49
 18961 04fb 13       		.uleb128 0x13
 18962 04fc 00       		.byte	0
 18963 04fd 00       		.byte	0
 18964 04fe 60       		.uleb128 0x60
 18965 04ff 0B       		.uleb128 0xb
 18966 0500 01       		.byte	0x1
 18967 0501 00       		.byte	0
 18968 0502 00       		.byte	0
 18969 0503 61       		.uleb128 0x61
 18970 0504 34       		.uleb128 0x34
 18971 0505 00       		.byte	0
 18972 0506 03       		.uleb128 0x3
 18973 0507 08       		.uleb128 0x8
 18974 0508 3A       		.uleb128 0x3a
 18975 0509 0B       		.uleb128 0xb
 18976 050a 3B       		.uleb128 0x3b
 18977 050b 05       		.uleb128 0x5
 18978 050c 49       		.uleb128 0x49
 18979 050d 13       		.uleb128 0x13
 18980 050e 00       		.byte	0
 18981 050f 00       		.byte	0
 18982 0510 62       		.uleb128 0x62
 18983 0511 2E       		.uleb128 0x2e
 18984 0512 01       		.byte	0x1
 18985 0513 3F       		.uleb128 0x3f
 18986 0514 19       		.uleb128 0x19
ARM GAS  /tmp/ccjQGkoy.s 			page 335


 18987 0515 03       		.uleb128 0x3
 18988 0516 0E       		.uleb128 0xe
 18989 0517 3A       		.uleb128 0x3a
 18990 0518 0B       		.uleb128 0xb
 18991 0519 3B       		.uleb128 0x3b
 18992 051a 0B       		.uleb128 0xb
 18993 051b 27       		.uleb128 0x27
 18994 051c 19       		.uleb128 0x19
 18995 051d 11       		.uleb128 0x11
 18996 051e 01       		.uleb128 0x1
 18997 051f 12       		.uleb128 0x12
 18998 0520 06       		.uleb128 0x6
 18999 0521 40       		.uleb128 0x40
 19000 0522 18       		.uleb128 0x18
 19001 0523 9742     		.uleb128 0x2117
 19002 0525 19       		.uleb128 0x19
 19003 0526 01       		.uleb128 0x1
 19004 0527 13       		.uleb128 0x13
 19005 0528 00       		.byte	0
 19006 0529 00       		.byte	0
 19007 052a 63       		.uleb128 0x63
 19008 052b 05       		.uleb128 0x5
 19009 052c 00       		.byte	0
 19010 052d 03       		.uleb128 0x3
 19011 052e 0E       		.uleb128 0xe
 19012 052f 3A       		.uleb128 0x3a
 19013 0530 0B       		.uleb128 0xb
 19014 0531 3B       		.uleb128 0x3b
 19015 0532 0B       		.uleb128 0xb
 19016 0533 49       		.uleb128 0x49
 19017 0534 13       		.uleb128 0x13
 19018 0535 02       		.uleb128 0x2
 19019 0536 18       		.uleb128 0x18
 19020 0537 00       		.byte	0
 19021 0538 00       		.byte	0
 19022 0539 64       		.uleb128 0x64
 19023 053a 05       		.uleb128 0x5
 19024 053b 00       		.byte	0
 19025 053c 03       		.uleb128 0x3
 19026 053d 08       		.uleb128 0x8
 19027 053e 3A       		.uleb128 0x3a
 19028 053f 0B       		.uleb128 0xb
 19029 0540 3B       		.uleb128 0x3b
 19030 0541 0B       		.uleb128 0xb
 19031 0542 49       		.uleb128 0x49
 19032 0543 13       		.uleb128 0x13
 19033 0544 02       		.uleb128 0x2
 19034 0545 17       		.uleb128 0x17
 19035 0546 00       		.byte	0
 19036 0547 00       		.byte	0
 19037 0548 65       		.uleb128 0x65
 19038 0549 05       		.uleb128 0x5
 19039 054a 00       		.byte	0
 19040 054b 03       		.uleb128 0x3
 19041 054c 0E       		.uleb128 0xe
 19042 054d 3A       		.uleb128 0x3a
 19043 054e 0B       		.uleb128 0xb
ARM GAS  /tmp/ccjQGkoy.s 			page 336


 19044 054f 3B       		.uleb128 0x3b
 19045 0550 0B       		.uleb128 0xb
 19046 0551 49       		.uleb128 0x49
 19047 0552 13       		.uleb128 0x13
 19048 0553 02       		.uleb128 0x2
 19049 0554 17       		.uleb128 0x17
 19050 0555 00       		.byte	0
 19051 0556 00       		.byte	0
 19052 0557 66       		.uleb128 0x66
 19053 0558 1D       		.uleb128 0x1d
 19054 0559 01       		.byte	0x1
 19055 055a 31       		.uleb128 0x31
 19056 055b 13       		.uleb128 0x13
 19057 055c 52       		.uleb128 0x52
 19058 055d 01       		.uleb128 0x1
 19059 055e 55       		.uleb128 0x55
 19060 055f 17       		.uleb128 0x17
 19061 0560 58       		.uleb128 0x58
 19062 0561 0B       		.uleb128 0xb
 19063 0562 59       		.uleb128 0x59
 19064 0563 0B       		.uleb128 0xb
 19065 0564 01       		.uleb128 0x1
 19066 0565 13       		.uleb128 0x13
 19067 0566 00       		.byte	0
 19068 0567 00       		.byte	0
 19069 0568 67       		.uleb128 0x67
 19070 0569 34       		.uleb128 0x34
 19071 056a 00       		.byte	0
 19072 056b 03       		.uleb128 0x3
 19073 056c 08       		.uleb128 0x8
 19074 056d 3A       		.uleb128 0x3a
 19075 056e 0B       		.uleb128 0xb
 19076 056f 3B       		.uleb128 0x3b
 19077 0570 0B       		.uleb128 0xb
 19078 0571 49       		.uleb128 0x49
 19079 0572 13       		.uleb128 0x13
 19080 0573 02       		.uleb128 0x2
 19081 0574 17       		.uleb128 0x17
 19082 0575 00       		.byte	0
 19083 0576 00       		.byte	0
 19084 0577 68       		.uleb128 0x68
 19085 0578 2E       		.uleb128 0x2e
 19086 0579 01       		.byte	0x1
 19087 057a 03       		.uleb128 0x3
 19088 057b 0E       		.uleb128 0xe
 19089 057c 3A       		.uleb128 0x3a
 19090 057d 0B       		.uleb128 0xb
 19091 057e 3B       		.uleb128 0x3b
 19092 057f 0B       		.uleb128 0xb
 19093 0580 27       		.uleb128 0x27
 19094 0581 19       		.uleb128 0x19
 19095 0582 20       		.uleb128 0x20
 19096 0583 0B       		.uleb128 0xb
 19097 0584 01       		.uleb128 0x1
 19098 0585 13       		.uleb128 0x13
 19099 0586 00       		.byte	0
 19100 0587 00       		.byte	0
ARM GAS  /tmp/ccjQGkoy.s 			page 337


 19101 0588 69       		.uleb128 0x69
 19102 0589 2E       		.uleb128 0x2e
 19103 058a 00       		.byte	0
 19104 058b 03       		.uleb128 0x3
 19105 058c 0E       		.uleb128 0xe
 19106 058d 3A       		.uleb128 0x3a
 19107 058e 0B       		.uleb128 0xb
 19108 058f 3B       		.uleb128 0x3b
 19109 0590 0B       		.uleb128 0xb
 19110 0591 27       		.uleb128 0x27
 19111 0592 19       		.uleb128 0x19
 19112 0593 49       		.uleb128 0x49
 19113 0594 13       		.uleb128 0x13
 19114 0595 20       		.uleb128 0x20
 19115 0596 0B       		.uleb128 0xb
 19116 0597 00       		.byte	0
 19117 0598 00       		.byte	0
 19118 0599 6A       		.uleb128 0x6a
 19119 059a 2E       		.uleb128 0x2e
 19120 059b 01       		.byte	0x1
 19121 059c 03       		.uleb128 0x3
 19122 059d 0E       		.uleb128 0xe
 19123 059e 3A       		.uleb128 0x3a
 19124 059f 0B       		.uleb128 0xb
 19125 05a0 3B       		.uleb128 0x3b
 19126 05a1 0B       		.uleb128 0xb
 19127 05a2 27       		.uleb128 0x27
 19128 05a3 19       		.uleb128 0x19
 19129 05a4 49       		.uleb128 0x49
 19130 05a5 13       		.uleb128 0x13
 19131 05a6 20       		.uleb128 0x20
 19132 05a7 0B       		.uleb128 0xb
 19133 05a8 01       		.uleb128 0x1
 19134 05a9 13       		.uleb128 0x13
 19135 05aa 00       		.byte	0
 19136 05ab 00       		.byte	0
 19137 05ac 6B       		.uleb128 0x6b
 19138 05ad 34       		.uleb128 0x34
 19139 05ae 00       		.byte	0
 19140 05af 03       		.uleb128 0x3
 19141 05b0 0E       		.uleb128 0xe
 19142 05b1 49       		.uleb128 0x49
 19143 05b2 13       		.uleb128 0x13
 19144 05b3 34       		.uleb128 0x34
 19145 05b4 19       		.uleb128 0x19
 19146 05b5 1C       		.uleb128 0x1c
 19147 05b6 0E       		.uleb128 0xe
 19148 05b7 00       		.byte	0
 19149 05b8 00       		.byte	0
 19150 05b9 6C       		.uleb128 0x6c
 19151 05ba 2E       		.uleb128 0x2e
 19152 05bb 00       		.byte	0
 19153 05bc 03       		.uleb128 0x3
 19154 05bd 0E       		.uleb128 0xe
 19155 05be 3A       		.uleb128 0x3a
 19156 05bf 0B       		.uleb128 0xb
 19157 05c0 3B       		.uleb128 0x3b
ARM GAS  /tmp/ccjQGkoy.s 			page 338


 19158 05c1 05       		.uleb128 0x5
 19159 05c2 27       		.uleb128 0x27
 19160 05c3 19       		.uleb128 0x19
 19161 05c4 20       		.uleb128 0x20
 19162 05c5 0B       		.uleb128 0xb
 19163 05c6 00       		.byte	0
 19164 05c7 00       		.byte	0
 19165 05c8 6D       		.uleb128 0x6d
 19166 05c9 05       		.uleb128 0x5
 19167 05ca 00       		.byte	0
 19168 05cb 03       		.uleb128 0x3
 19169 05cc 0E       		.uleb128 0xe
 19170 05cd 3A       		.uleb128 0x3a
 19171 05ce 0B       		.uleb128 0xb
 19172 05cf 3B       		.uleb128 0x3b
 19173 05d0 05       		.uleb128 0x5
 19174 05d1 49       		.uleb128 0x49
 19175 05d2 13       		.uleb128 0x13
 19176 05d3 00       		.byte	0
 19177 05d4 00       		.byte	0
 19178 05d5 6E       		.uleb128 0x6e
 19179 05d6 2E       		.uleb128 0x2e
 19180 05d7 01       		.byte	0x1
 19181 05d8 31       		.uleb128 0x31
 19182 05d9 13       		.uleb128 0x13
 19183 05da 11       		.uleb128 0x11
 19184 05db 01       		.uleb128 0x1
 19185 05dc 12       		.uleb128 0x12
 19186 05dd 06       		.uleb128 0x6
 19187 05de 40       		.uleb128 0x40
 19188 05df 18       		.uleb128 0x18
 19189 05e0 9742     		.uleb128 0x2117
 19190 05e2 19       		.uleb128 0x19
 19191 05e3 01       		.uleb128 0x1
 19192 05e4 13       		.uleb128 0x13
 19193 05e5 00       		.byte	0
 19194 05e6 00       		.byte	0
 19195 05e7 6F       		.uleb128 0x6f
 19196 05e8 34       		.uleb128 0x34
 19197 05e9 00       		.byte	0
 19198 05ea 31       		.uleb128 0x31
 19199 05eb 13       		.uleb128 0x13
 19200 05ec 02       		.uleb128 0x2
 19201 05ed 18       		.uleb128 0x18
 19202 05ee 00       		.byte	0
 19203 05ef 00       		.byte	0
 19204 05f0 70       		.uleb128 0x70
 19205 05f1 0B       		.uleb128 0xb
 19206 05f2 01       		.byte	0x1
 19207 05f3 31       		.uleb128 0x31
 19208 05f4 13       		.uleb128 0x13
 19209 05f5 55       		.uleb128 0x55
 19210 05f6 17       		.uleb128 0x17
 19211 05f7 01       		.uleb128 0x1
 19212 05f8 13       		.uleb128 0x13
 19213 05f9 00       		.byte	0
 19214 05fa 00       		.byte	0
ARM GAS  /tmp/ccjQGkoy.s 			page 339


 19215 05fb 71       		.uleb128 0x71
 19216 05fc 05       		.uleb128 0x5
 19217 05fd 00       		.byte	0
 19218 05fe 31       		.uleb128 0x31
 19219 05ff 13       		.uleb128 0x13
 19220 0600 00       		.byte	0
 19221 0601 00       		.byte	0
 19222 0602 72       		.uleb128 0x72
 19223 0603 0B       		.uleb128 0xb
 19224 0604 01       		.byte	0x1
 19225 0605 31       		.uleb128 0x31
 19226 0606 13       		.uleb128 0x13
 19227 0607 55       		.uleb128 0x55
 19228 0608 17       		.uleb128 0x17
 19229 0609 00       		.byte	0
 19230 060a 00       		.byte	0
 19231 060b 73       		.uleb128 0x73
 19232 060c 34       		.uleb128 0x34
 19233 060d 00       		.byte	0
 19234 060e 31       		.uleb128 0x31
 19235 060f 13       		.uleb128 0x13
 19236 0610 02       		.uleb128 0x2
 19237 0611 17       		.uleb128 0x17
 19238 0612 00       		.byte	0
 19239 0613 00       		.byte	0
 19240 0614 74       		.uleb128 0x74
 19241 0615 0B       		.uleb128 0xb
 19242 0616 01       		.byte	0x1
 19243 0617 31       		.uleb128 0x31
 19244 0618 13       		.uleb128 0x13
 19245 0619 11       		.uleb128 0x11
 19246 061a 01       		.uleb128 0x1
 19247 061b 12       		.uleb128 0x12
 19248 061c 06       		.uleb128 0x6
 19249 061d 01       		.uleb128 0x1
 19250 061e 13       		.uleb128 0x13
 19251 061f 00       		.byte	0
 19252 0620 00       		.byte	0
 19253 0621 75       		.uleb128 0x75
 19254 0622 2E       		.uleb128 0x2e
 19255 0623 00       		.byte	0
 19256 0624 3F       		.uleb128 0x3f
 19257 0625 19       		.uleb128 0x19
 19258 0626 3C       		.uleb128 0x3c
 19259 0627 19       		.uleb128 0x19
 19260 0628 6E       		.uleb128 0x6e
 19261 0629 0E       		.uleb128 0xe
 19262 062a 03       		.uleb128 0x3
 19263 062b 0E       		.uleb128 0xe
 19264 062c 3A       		.uleb128 0x3a
 19265 062d 0B       		.uleb128 0xb
 19266 062e 3B       		.uleb128 0x3b
 19267 062f 0B       		.uleb128 0xb
 19268 0630 00       		.byte	0
 19269 0631 00       		.byte	0
 19270 0632 76       		.uleb128 0x76
 19271 0633 2E       		.uleb128 0x2e
ARM GAS  /tmp/ccjQGkoy.s 			page 340


 19272 0634 00       		.byte	0
 19273 0635 3F       		.uleb128 0x3f
 19274 0636 19       		.uleb128 0x19
 19275 0637 3C       		.uleb128 0x3c
 19276 0638 19       		.uleb128 0x19
 19277 0639 6E       		.uleb128 0x6e
 19278 063a 0E       		.uleb128 0xe
 19279 063b 03       		.uleb128 0x3
 19280 063c 0E       		.uleb128 0xe
 19281 063d 3A       		.uleb128 0x3a
 19282 063e 0B       		.uleb128 0xb
 19283 063f 3B       		.uleb128 0x3b
 19284 0640 0B       		.uleb128 0xb
 19285 0641 6E       		.uleb128 0x6e
 19286 0642 0E       		.uleb128 0xe
 19287 0643 00       		.byte	0
 19288 0644 00       		.byte	0
 19289 0645 77       		.uleb128 0x77
 19290 0646 2E       		.uleb128 0x2e
 19291 0647 00       		.byte	0
 19292 0648 3F       		.uleb128 0x3f
 19293 0649 19       		.uleb128 0x19
 19294 064a 3C       		.uleb128 0x3c
 19295 064b 19       		.uleb128 0x19
 19296 064c 6E       		.uleb128 0x6e
 19297 064d 0E       		.uleb128 0xe
 19298 064e 03       		.uleb128 0x3
 19299 064f 0E       		.uleb128 0xe
 19300 0650 3A       		.uleb128 0x3a
 19301 0651 0B       		.uleb128 0xb
 19302 0652 3B       		.uleb128 0x3b
 19303 0653 05       		.uleb128 0x5
 19304 0654 00       		.byte	0
 19305 0655 00       		.byte	0
 19306 0656 00       		.byte	0
 19307              		.section	.debug_loc,"",%progbits
 19308              	.Ldebug_loc0:
 19309              	.LLST43:
 19310 0000 00000000 		.4byte	.LVL123
 19311 0004 0C000000 		.4byte	.LVL125
 19312 0008 0100     		.2byte	0x1
 19313 000a 50       		.byte	0x50
 19314 000b 0C000000 		.4byte	.LVL125
 19315 000f 13000000 		.4byte	.LVL126-1
 19316 0013 0100     		.2byte	0x1
 19317 0015 51       		.byte	0x51
 19318 0016 13000000 		.4byte	.LVL126-1
 19319 001a 18000000 		.4byte	.LFE291
 19320 001e 0400     		.2byte	0x4
 19321 0020 F3       		.byte	0xf3
 19322 0021 01       		.uleb128 0x1
 19323 0022 50       		.byte	0x50
 19324 0023 9F       		.byte	0x9f
 19325 0024 00000000 		.4byte	0
 19326 0028 00000000 		.4byte	0
 19327              	.LLST44:
 19328 002c 00000000 		.4byte	.LVL123
ARM GAS  /tmp/ccjQGkoy.s 			page 341


 19329 0030 0A000000 		.4byte	.LVL124
 19330 0034 0100     		.2byte	0x1
 19331 0036 51       		.byte	0x51
 19332 0037 0A000000 		.4byte	.LVL124
 19333 003b 13000000 		.4byte	.LVL126-1
 19334 003f 0100     		.2byte	0x1
 19335 0041 52       		.byte	0x52
 19336 0042 13000000 		.4byte	.LVL126-1
 19337 0046 18000000 		.4byte	.LFE291
 19338 004a 0400     		.2byte	0x4
 19339 004c F3       		.byte	0xf3
 19340 004d 01       		.uleb128 0x1
 19341 004e 51       		.byte	0x51
 19342 004f 9F       		.byte	0x9f
 19343 0050 00000000 		.4byte	0
 19344 0054 00000000 		.4byte	0
 19345              	.LLST25:
 19346 0058 00000000 		.4byte	.LVL45
 19347 005c 1E000000 		.4byte	.LVL46
 19348 0060 0100     		.2byte	0x1
 19349 0062 50       		.byte	0x50
 19350 0063 1E000000 		.4byte	.LVL46
 19351 0067 EC010000 		.4byte	.LFE290
 19352 006b 0400     		.2byte	0x4
 19353 006d F3       		.byte	0xf3
 19354 006e 01       		.uleb128 0x1
 19355 006f 50       		.byte	0x50
 19356 0070 9F       		.byte	0x9f
 19357 0071 00000000 		.4byte	0
 19358 0075 00000000 		.4byte	0
 19359              	.LLST26:
 19360 0079 1E000000 		.4byte	.LVL46
 19361 007d 24000000 		.4byte	.LVL47
 19362 0081 0100     		.2byte	0x1
 19363 0083 50       		.byte	0x50
 19364 0084 24000000 		.4byte	.LVL47
 19365 0088 3E000000 		.4byte	.LVL51
 19366 008c 0100     		.2byte	0x1
 19367 008e 54       		.byte	0x54
 19368 008f 46000000 		.4byte	.LVL53
 19369 0093 57000000 		.4byte	.LVL54-1
 19370 0097 0100     		.2byte	0x1
 19371 0099 50       		.byte	0x50
 19372 009a 57000000 		.4byte	.LVL54-1
 19373 009e EC010000 		.4byte	.LFE290
 19374 00a2 0100     		.2byte	0x1
 19375 00a4 54       		.byte	0x54
 19376 00a5 00000000 		.4byte	0
 19377 00a9 00000000 		.4byte	0
 19378              	.LLST27:
 19379 00ad 34000000 		.4byte	.LVL48
 19380 00b1 36000000 		.4byte	.LVL49
 19381 00b5 0100     		.2byte	0x1
 19382 00b7 50       		.byte	0x50
 19383 00b8 00000000 		.4byte	0
 19384 00bc 00000000 		.4byte	0
 19385              	.LLST94:
ARM GAS  /tmp/ccjQGkoy.s 			page 342


 19386 00c0 00000000 		.4byte	.LVL243
 19387 00c4 3A000000 		.4byte	.LVL245
 19388 00c8 0100     		.2byte	0x1
 19389 00ca 50       		.byte	0x50
 19390 00cb 3A000000 		.4byte	.LVL245
 19391 00cf 48070000 		.4byte	.LFE289
 19392 00d3 0400     		.2byte	0x4
 19393 00d5 F3       		.byte	0xf3
 19394 00d6 01       		.uleb128 0x1
 19395 00d7 50       		.byte	0x50
 19396 00d8 9F       		.byte	0x9f
 19397 00d9 00000000 		.4byte	0
 19398 00dd 00000000 		.4byte	0
 19399              	.LLST95:
 19400 00e1 AC050000 		.4byte	.LVL346
 19401 00e5 C9050000 		.4byte	.LVL350-1
 19402 00e9 0100     		.2byte	0x1
 19403 00eb 52       		.byte	0x52
 19404 00ec C9050000 		.4byte	.LVL350-1
 19405 00f0 FA050000 		.4byte	.LVL352
 19406 00f4 0300     		.2byte	0x3
 19407 00f6 91       		.byte	0x91
 19408 00f7 D47B     		.sleb128 -556
 19409 00f9 16070000 		.4byte	.LVL380
 19410 00fd 48070000 		.4byte	.LFE289
 19411 0101 0300     		.2byte	0x3
 19412 0103 91       		.byte	0x91
 19413 0104 D47B     		.sleb128 -556
 19414 0106 00000000 		.4byte	0
 19415 010a 00000000 		.4byte	0
 19416              	.LLST96:
 19417 010e FA050000 		.4byte	.LVL352
 19418 0112 02060000 		.4byte	.LVL353
 19419 0116 0B00     		.2byte	0xb
 19420 0118 91       		.byte	0x91
 19421 0119 E87B     		.sleb128 -536
 19422 011b 94       		.byte	0x94
 19423 011c 01       		.byte	0x1
 19424 011d 08       		.byte	0x8
 19425 011e FF       		.byte	0xff
 19426 011f 1A       		.byte	0x1a
 19427 0120 38       		.byte	0x38
 19428 0121 24       		.byte	0x24
 19429 0122 9F       		.byte	0x9f
 19430 0123 02060000 		.4byte	.LVL353
 19431 0127 1F060000 		.4byte	.LVL354-1
 19432 012b 1400     		.2byte	0x14
 19433 012d 91       		.byte	0x91
 19434 012e E87B     		.sleb128 -536
 19435 0130 94       		.byte	0x94
 19436 0131 01       		.byte	0x1
 19437 0132 08       		.byte	0x8
 19438 0133 FF       		.byte	0xff
 19439 0134 1A       		.byte	0x1a
 19440 0135 38       		.byte	0x38
 19441 0136 24       		.byte	0x24
 19442 0137 91       		.byte	0x91
ARM GAS  /tmp/ccjQGkoy.s 			page 343


 19443 0138 E97B     		.sleb128 -535
 19444 013a 94       		.byte	0x94
 19445 013b 01       		.byte	0x1
 19446 013c 08       		.byte	0x8
 19447 013d FF       		.byte	0xff
 19448 013e 1A       		.byte	0x1a
 19449 013f 21       		.byte	0x21
 19450 0140 9F       		.byte	0x9f
 19451 0141 00000000 		.4byte	0
 19452 0145 00000000 		.4byte	0
 19453              	.LLST97:
 19454 0149 C6050000 		.4byte	.LVL349
 19455 014d FA050000 		.4byte	.LVL352
 19456 0151 0300     		.2byte	0x3
 19457 0153 91       		.byte	0x91
 19458 0154 D07B     		.sleb128 -560
 19459 0156 16070000 		.4byte	.LVL380
 19460 015a 48070000 		.4byte	.LFE289
 19461 015e 0300     		.2byte	0x3
 19462 0160 91       		.byte	0x91
 19463 0161 D07B     		.sleb128 -560
 19464 0163 00000000 		.4byte	0
 19465 0167 00000000 		.4byte	0
 19466              	.LLST98:
 19467 016b B0050000 		.4byte	.LVL347
 19468 016f BA050000 		.4byte	.LVL348
 19469 0173 0300     		.2byte	0x3
 19470 0175 91       		.byte	0x91
 19471 0176 CC7B     		.sleb128 -564
 19472 0178 00000000 		.4byte	0
 19473 017c 00000000 		.4byte	0
 19474              	.LLST99:
 19475 0180 66050000 		.4byte	.LVL344
 19476 0184 87050000 		.4byte	.LVL345-1
 19477 0188 0300     		.2byte	0x3
 19478 018a 91       		.byte	0x91
 19479 018b E97B     		.sleb128 -535
 19480 018d AC050000 		.4byte	.LVL346
 19481 0191 FA050000 		.4byte	.LVL352
 19482 0195 0200     		.2byte	0x2
 19483 0197 7D       		.byte	0x7d
 19484 0198 00       		.sleb128 0
 19485 0199 C0060000 		.4byte	.LVL371
 19486 019d D3060000 		.4byte	.LVL372-1
 19487 01a1 0300     		.2byte	0x3
 19488 01a3 91       		.byte	0x91
 19489 01a4 E97B     		.sleb128 -535
 19490 01a6 D6060000 		.4byte	.LVL373
 19491 01aa E7060000 		.4byte	.LVL374-1
 19492 01ae 0300     		.2byte	0x3
 19493 01b0 91       		.byte	0x91
 19494 01b1 E97B     		.sleb128 -535
 19495 01b3 16070000 		.4byte	.LVL380
 19496 01b7 48070000 		.4byte	.LFE289
 19497 01bb 0200     		.2byte	0x2
 19498 01bd 7D       		.byte	0x7d
 19499 01be 00       		.sleb128 0
ARM GAS  /tmp/ccjQGkoy.s 			page 344


 19500 01bf 00000000 		.4byte	0
 19501 01c3 00000000 		.4byte	0
 19502              	.LLST101:
 19503 01c7 56000000 		.4byte	.LVL248
 19504 01cb 5E000000 		.4byte	.LVL249
 19505 01cf 0100     		.2byte	0x1
 19506 01d1 50       		.byte	0x50
 19507 01d2 5E000000 		.4byte	.LVL249
 19508 01d6 72000000 		.4byte	.LVL250
 19509 01da 0300     		.2byte	0x3
 19510 01dc 74       		.byte	0x74
 19511 01dd 70       		.sleb128 -16
 19512 01de 9F       		.byte	0x9f
 19513 01df 64020000 		.4byte	.LVL293
 19514 01e3 80020000 		.4byte	.LVL295
 19515 01e7 0300     		.2byte	0x3
 19516 01e9 74       		.byte	0x74
 19517 01ea 70       		.sleb128 -16
 19518 01eb 9F       		.byte	0x9f
 19519 01ec 00000000 		.4byte	0
 19520 01f0 00000000 		.4byte	0
 19521              	.LLST102:
 19522 01f4 78000000 		.4byte	.LVL251
 19523 01f8 64020000 		.4byte	.LVL293
 19524 01fc 0100     		.2byte	0x1
 19525 01fe 55       		.byte	0x55
 19526 01ff 80020000 		.4byte	.LVL295
 19527 0203 8E040000 		.4byte	.LVL323
 19528 0207 0100     		.2byte	0x1
 19529 0209 55       		.byte	0x55
 19530 020a BA040000 		.4byte	.LVL328
 19531 020e EA060000 		.4byte	.LVL375
 19532 0212 0100     		.2byte	0x1
 19533 0214 55       		.byte	0x55
 19534 0215 16070000 		.4byte	.LVL380
 19535 0219 48070000 		.4byte	.LFE289
 19536 021d 0100     		.2byte	0x1
 19537 021f 55       		.byte	0x55
 19538 0220 00000000 		.4byte	0
 19539 0224 00000000 		.4byte	0
 19540              	.LLST103:
 19541 0228 78000000 		.4byte	.LVL251
 19542 022c 7E000000 		.4byte	.LVL252
 19543 0230 0500     		.2byte	0x5
 19544 0232 74       		.byte	0x74
 19545 0233 00       		.sleb128 0
 19546 0234 38       		.byte	0x38
 19547 0235 25       		.byte	0x25
 19548 0236 9F       		.byte	0x9f
 19549 0237 7E000000 		.4byte	.LVL252
 19550 023b 85000000 		.4byte	.LVL253-1
 19551 023f 0D00     		.2byte	0xd
 19552 0241 91       		.byte	0x91
 19553 0242 E47B     		.sleb128 -540
 19554 0244 06       		.byte	0x6
 19555 0245 09       		.byte	0x9
 19556 0246 E7       		.byte	0xe7
ARM GAS  /tmp/ccjQGkoy.s 			page 345


 19557 0247 24       		.byte	0x24
 19558 0248 09       		.byte	0x9
 19559 0249 E7       		.byte	0xe7
 19560 024a 25       		.byte	0x25
 19561 024b 38       		.byte	0x38
 19562 024c 25       		.byte	0x25
 19563 024d 9F       		.byte	0x9f
 19564 024e 00000000 		.4byte	0
 19565 0252 00000000 		.4byte	0
 19566              	.LLST124:
 19567 0256 8E040000 		.4byte	.LVL323
 19568 025a BA040000 		.4byte	.LVL328
 19569 025e 0700     		.2byte	0x7
 19570 0260 75       		.byte	0x75
 19571 0261 00       		.sleb128 0
 19572 0262 48       		.byte	0x48
 19573 0263 24       		.byte	0x24
 19574 0264 30       		.byte	0x30
 19575 0265 2E       		.byte	0x2e
 19576 0266 9F       		.byte	0x9f
 19577 0267 EA060000 		.4byte	.LVL375
 19578 026b 16070000 		.4byte	.LVL380
 19579 026f 0700     		.2byte	0x7
 19580 0271 75       		.byte	0x75
 19581 0272 00       		.sleb128 0
 19582 0273 48       		.byte	0x48
 19583 0274 24       		.byte	0x24
 19584 0275 30       		.byte	0x30
 19585 0276 2E       		.byte	0x2e
 19586 0277 9F       		.byte	0x9f
 19587 0278 00000000 		.4byte	0
 19588 027c 00000000 		.4byte	0
 19589              	.LLST125:
 19590 0280 92040000 		.4byte	.LVL324
 19591 0284 99040000 		.4byte	.LVL325-1
 19592 0288 0200     		.2byte	0x2
 19593 028a 90       		.byte	0x90
 19594 028b 40       		.uleb128 0x40
 19595 028c 00000000 		.4byte	0
 19596 0290 00000000 		.4byte	0
 19597              	.LLST126:
 19598 0294 9A040000 		.4byte	.LVL325
 19599 0298 A4040000 		.4byte	.LVL326
 19600 029c 0100     		.2byte	0x1
 19601 029e 50       		.byte	0x50
 19602 029f A4040000 		.4byte	.LVL326
 19603 02a3 BA040000 		.4byte	.LVL328
 19604 02a7 0100     		.2byte	0x1
 19605 02a9 54       		.byte	0x54
 19606 02aa EA060000 		.4byte	.LVL375
 19607 02ae ED060000 		.4byte	.LVL376-1
 19608 02b2 0100     		.2byte	0x1
 19609 02b4 50       		.byte	0x50
 19610 02b5 ED060000 		.4byte	.LVL376-1
 19611 02b9 16070000 		.4byte	.LVL380
 19612 02bd 0100     		.2byte	0x1
 19613 02bf 54       		.byte	0x54
ARM GAS  /tmp/ccjQGkoy.s 			page 346


 19614 02c0 00000000 		.4byte	0
 19615 02c4 00000000 		.4byte	0
 19616              	.LLST122:
 19617 02c8 0E040000 		.4byte	.LVL315
 19618 02cc 14040000 		.4byte	.LVL316
 19619 02d0 0200     		.2byte	0x2
 19620 02d2 90       		.byte	0x90
 19621 02d3 40       		.uleb128 0x40
 19622 02d4 14040000 		.4byte	.LVL316
 19623 02d8 5E040000 		.4byte	.LVL322
 19624 02dc 0200     		.2byte	0x2
 19625 02de 90       		.byte	0x90
 19626 02df 53       		.uleb128 0x53
 19627 02e0 00000000 		.4byte	0
 19628 02e4 00000000 		.4byte	0
 19629              	.LLST123:
 19630 02e8 1C040000 		.4byte	.LVL318
 19631 02ec 1F040000 		.4byte	.LVL319-1
 19632 02f0 0200     		.2byte	0x2
 19633 02f2 90       		.byte	0x90
 19634 02f3 40       		.uleb128 0x40
 19635 02f4 1F040000 		.4byte	.LVL319-1
 19636 02f8 5E040000 		.4byte	.LVL322
 19637 02fc 0200     		.2byte	0x2
 19638 02fe 90       		.byte	0x90
 19639 02ff 56       		.uleb128 0x56
 19640 0300 00000000 		.4byte	0
 19641 0304 00000000 		.4byte	0
 19642              	.LLST120:
 19643 0308 A8030000 		.4byte	.LVL306
 19644 030c AE030000 		.4byte	.LVL307
 19645 0310 0200     		.2byte	0x2
 19646 0312 90       		.byte	0x90
 19647 0313 40       		.uleb128 0x40
 19648 0314 AE030000 		.4byte	.LVL307
 19649 0318 F0030000 		.4byte	.LVL312
 19650 031c 0200     		.2byte	0x2
 19651 031e 90       		.byte	0x90
 19652 031f 53       		.uleb128 0x53
 19653 0320 00000000 		.4byte	0
 19654 0324 00000000 		.4byte	0
 19655              	.LLST121:
 19656 0328 B6030000 		.4byte	.LVL309
 19657 032c B9030000 		.4byte	.LVL310-1
 19658 0330 0200     		.2byte	0x2
 19659 0332 90       		.byte	0x90
 19660 0333 40       		.uleb128 0x40
 19661 0334 B9030000 		.4byte	.LVL310-1
 19662 0338 F0030000 		.4byte	.LVL312
 19663 033c 0200     		.2byte	0x2
 19664 033e 90       		.byte	0x90
 19665 033f 56       		.uleb128 0x56
 19666 0340 00000000 		.4byte	0
 19667 0344 00000000 		.4byte	0
 19668              	.LLST118:
 19669 0348 42030000 		.4byte	.LVL297
 19670 034c 48030000 		.4byte	.LVL298
ARM GAS  /tmp/ccjQGkoy.s 			page 347


 19671 0350 0200     		.2byte	0x2
 19672 0352 90       		.byte	0x90
 19673 0353 40       		.uleb128 0x40
 19674 0354 48030000 		.4byte	.LVL298
 19675 0358 8A030000 		.4byte	.LVL303
 19676 035c 0200     		.2byte	0x2
 19677 035e 90       		.byte	0x90
 19678 035f 53       		.uleb128 0x53
 19679 0360 00000000 		.4byte	0
 19680 0364 00000000 		.4byte	0
 19681              	.LLST119:
 19682 0368 50030000 		.4byte	.LVL300
 19683 036c 53030000 		.4byte	.LVL301-1
 19684 0370 0200     		.2byte	0x2
 19685 0372 90       		.byte	0x90
 19686 0373 40       		.uleb128 0x40
 19687 0374 53030000 		.4byte	.LVL301-1
 19688 0378 8A030000 		.4byte	.LVL303
 19689 037c 0200     		.2byte	0x2
 19690 037e 90       		.byte	0x90
 19691 037f 56       		.uleb128 0x56
 19692 0380 00000000 		.4byte	0
 19693 0384 00000000 		.4byte	0
 19694              	.LLST112:
 19695 0388 E4010000 		.4byte	.LVL282
 19696 038c FE010000 		.4byte	.LVL285
 19697 0390 0100     		.2byte	0x1
 19698 0392 53       		.byte	0x53
 19699 0393 00000000 		.4byte	0
 19700 0397 00000000 		.4byte	0
 19701              	.LLST113:
 19702 039b E4010000 		.4byte	.LVL282
 19703 039f EA010000 		.4byte	.LVL283
 19704 03a3 0B00     		.2byte	0xb
 19705 03a5 73       		.byte	0x73
 19706 03a6 00       		.sleb128 0
 19707 03a7 44       		.byte	0x44
 19708 03a8 1E       		.byte	0x1e
 19709 03a9 03       		.byte	0x3
 19710 03aa 00000000 		.4byte	stat_msgs
 19711 03ae 22       		.byte	0x22
 19712 03af 9F       		.byte	0x9f
 19713 03b0 EA010000 		.4byte	.LVL283
 19714 03b4 F0010000 		.4byte	.LVL284
 19715 03b8 0B00     		.2byte	0xb
 19716 03ba 73       		.byte	0x73
 19717 03bb 7F       		.sleb128 -1
 19718 03bc 44       		.byte	0x44
 19719 03bd 1E       		.byte	0x1e
 19720 03be 03       		.byte	0x3
 19721 03bf 00000000 		.4byte	stat_msgs
 19722 03c3 22       		.byte	0x22
 19723 03c4 9F       		.byte	0x9f
 19724 03c5 F0010000 		.4byte	.LVL284
 19725 03c9 FE010000 		.4byte	.LVL285
 19726 03cd 0B00     		.2byte	0xb
 19727 03cf 73       		.byte	0x73
ARM GAS  /tmp/ccjQGkoy.s 			page 348


 19728 03d0 00       		.sleb128 0
 19729 03d1 44       		.byte	0x44
 19730 03d2 1E       		.byte	0x1e
 19731 03d3 03       		.byte	0x3
 19732 03d4 00000000 		.4byte	stat_msgs
 19733 03d8 22       		.byte	0x22
 19734 03d9 9F       		.byte	0x9f
 19735 03da 00000000 		.4byte	0
 19736 03de 00000000 		.4byte	0
 19737              	.LLST114:
 19738 03e2 04020000 		.4byte	.LVL286
 19739 03e6 10020000 		.4byte	.LVL287
 19740 03ea 0300     		.2byte	0x3
 19741 03ec 08       		.byte	0x8
 19742 03ed 20       		.byte	0x20
 19743 03ee 9F       		.byte	0x9f
 19744 03ef 00000000 		.4byte	0
 19745 03f3 00000000 		.4byte	0
 19746              	.LLST115:
 19747 03f7 14020000 		.4byte	.LVL288
 19748 03fb 18020000 		.4byte	.LVL289
 19749 03ff 0200     		.2byte	0x2
 19750 0401 30       		.byte	0x30
 19751 0402 9F       		.byte	0x9f
 19752 0403 00000000 		.4byte	0
 19753 0407 00000000 		.4byte	0
 19754              	.LLST116:
 19755 040b C2010000 		.4byte	.LVL276
 19756 040f D8010000 		.4byte	.LVL279
 19757 0413 0100     		.2byte	0x1
 19758 0415 53       		.byte	0x53
 19759 0416 00000000 		.4byte	0
 19760 041a 00000000 		.4byte	0
 19761              	.LLST117:
 19762 041e C2010000 		.4byte	.LVL276
 19763 0422 CC010000 		.4byte	.LVL277
 19764 0426 0B00     		.2byte	0xb
 19765 0428 73       		.byte	0x73
 19766 0429 7F       		.sleb128 -1
 19767 042a 34       		.byte	0x34
 19768 042b 24       		.byte	0x24
 19769 042c 03       		.byte	0x3
 19770 042d 00000000 		.4byte	stat_msgs_2
 19771 0431 22       		.byte	0x22
 19772 0432 9F       		.byte	0x9f
 19773 0433 CC010000 		.4byte	.LVL277
 19774 0437 D0010000 		.4byte	.LVL278
 19775 043b 0B00     		.2byte	0xb
 19776 043d 73       		.byte	0x73
 19777 043e 00       		.sleb128 0
 19778 043f 34       		.byte	0x34
 19779 0440 24       		.byte	0x24
 19780 0441 03       		.byte	0x3
 19781 0442 00000000 		.4byte	stat_msgs_2
 19782 0446 22       		.byte	0x22
 19783 0447 9F       		.byte	0x9f
 19784 0448 D0010000 		.4byte	.LVL278
ARM GAS  /tmp/ccjQGkoy.s 			page 349


 19785 044c D8010000 		.4byte	.LVL279
 19786 0450 0B00     		.2byte	0xb
 19787 0452 73       		.byte	0x73
 19788 0453 7F       		.sleb128 -1
 19789 0454 34       		.byte	0x34
 19790 0455 24       		.byte	0x24
 19791 0456 03       		.byte	0x3
 19792 0457 00000000 		.4byte	stat_msgs_2
 19793 045b 22       		.byte	0x22
 19794 045c 9F       		.byte	0x9f
 19795 045d 00000000 		.4byte	0
 19796 0461 00000000 		.4byte	0
 19797              	.LLST108:
 19798 0465 60010000 		.4byte	.LVL266
 19799 0469 78010000 		.4byte	.LVL270
 19800 046d 0100     		.2byte	0x1
 19801 046f 53       		.byte	0x53
 19802 0470 00000000 		.4byte	0
 19803 0474 00000000 		.4byte	0
 19804              	.LLST109:
 19805 0478 60010000 		.4byte	.LVL266
 19806 047c 6A010000 		.4byte	.LVL267
 19807 0480 0B00     		.2byte	0xb
 19808 0482 73       		.byte	0x73
 19809 0483 7F       		.sleb128 -1
 19810 0484 34       		.byte	0x34
 19811 0485 24       		.byte	0x24
 19812 0486 03       		.byte	0x3
 19813 0487 00000000 		.4byte	stat_msgs_3
 19814 048b 22       		.byte	0x22
 19815 048c 9F       		.byte	0x9f
 19816 048d 6A010000 		.4byte	.LVL267
 19817 0491 6E010000 		.4byte	.LVL268
 19818 0495 0B00     		.2byte	0xb
 19819 0497 73       		.byte	0x73
 19820 0498 00       		.sleb128 0
 19821 0499 34       		.byte	0x34
 19822 049a 24       		.byte	0x24
 19823 049b 03       		.byte	0x3
 19824 049c 00000000 		.4byte	stat_msgs_3
 19825 04a0 22       		.byte	0x22
 19826 04a1 9F       		.byte	0x9f
 19827 04a2 6E010000 		.4byte	.LVL268
 19828 04a6 78010000 		.4byte	.LVL270
 19829 04aa 0B00     		.2byte	0xb
 19830 04ac 73       		.byte	0x73
 19831 04ad 7F       		.sleb128 -1
 19832 04ae 34       		.byte	0x34
 19833 04af 24       		.byte	0x24
 19834 04b0 03       		.byte	0x3
 19835 04b1 00000000 		.4byte	stat_msgs_3
 19836 04b5 22       		.byte	0x22
 19837 04b6 9F       		.byte	0x9f
 19838 04b7 00000000 		.4byte	0
 19839 04bb 00000000 		.4byte	0
 19840              	.LLST110:
 19841 04bf 76010000 		.4byte	.LVL269
ARM GAS  /tmp/ccjQGkoy.s 			page 350


 19842 04c3 7A010000 		.4byte	.LVL271
 19843 04c7 0300     		.2byte	0x3
 19844 04c9 08       		.byte	0x8
 19845 04ca 20       		.byte	0x20
 19846 04cb 9F       		.byte	0x9f
 19847 04cc 00000000 		.4byte	0
 19848 04d0 00000000 		.4byte	0
 19849              	.LLST111:
 19850 04d4 86010000 		.4byte	.LVL272
 19851 04d8 8A010000 		.4byte	.LVL273
 19852 04dc 0200     		.2byte	0x2
 19853 04de 30       		.byte	0x30
 19854 04df 9F       		.byte	0x9f
 19855 04e0 00000000 		.4byte	0
 19856 04e4 00000000 		.4byte	0
 19857              	.LLST104:
 19858 04e8 C2000000 		.4byte	.LVL254
 19859 04ec DA000000 		.4byte	.LVL257
 19860 04f0 0100     		.2byte	0x1
 19861 04f2 53       		.byte	0x53
 19862 04f3 00000000 		.4byte	0
 19863 04f7 00000000 		.4byte	0
 19864              	.LLST105:
 19865 04fb C2000000 		.4byte	.LVL254
 19866 04ff C8000000 		.4byte	.LVL255
 19867 0503 0B00     		.2byte	0xb
 19868 0505 73       		.byte	0x73
 19869 0506 00       		.sleb128 0
 19870 0507 48       		.byte	0x48
 19871 0508 1E       		.byte	0x1e
 19872 0509 03       		.byte	0x3
 19873 050a 00000000 		.4byte	stat_msgs_4
 19874 050e 22       		.byte	0x22
 19875 050f 9F       		.byte	0x9f
 19876 0510 C8000000 		.4byte	.LVL255
 19877 0514 CC000000 		.4byte	.LVL256
 19878 0518 0B00     		.2byte	0xb
 19879 051a 73       		.byte	0x73
 19880 051b 7F       		.sleb128 -1
 19881 051c 48       		.byte	0x48
 19882 051d 1E       		.byte	0x1e
 19883 051e 03       		.byte	0x3
 19884 051f 00000000 		.4byte	stat_msgs_4
 19885 0523 22       		.byte	0x22
 19886 0524 9F       		.byte	0x9f
 19887 0525 CC000000 		.4byte	.LVL256
 19888 0529 DA000000 		.4byte	.LVL257
 19889 052d 0B00     		.2byte	0xb
 19890 052f 73       		.byte	0x73
 19891 0530 00       		.sleb128 0
 19892 0531 48       		.byte	0x48
 19893 0532 1E       		.byte	0x1e
 19894 0533 03       		.byte	0x3
 19895 0534 00000000 		.4byte	stat_msgs_4
 19896 0538 22       		.byte	0x22
 19897 0539 9F       		.byte	0x9f
 19898 053a 00000000 		.4byte	0
ARM GAS  /tmp/ccjQGkoy.s 			page 351


 19899 053e 00000000 		.4byte	0
 19900              	.LLST106:
 19901 0542 E0000000 		.4byte	.LVL258
 19902 0546 EC000000 		.4byte	.LVL259
 19903 054a 0300     		.2byte	0x3
 19904 054c 08       		.byte	0x8
 19905 054d 20       		.byte	0x20
 19906 054e 9F       		.byte	0x9f
 19907 054f 00000000 		.4byte	0
 19908 0553 00000000 		.4byte	0
 19909              	.LLST107:
 19910 0557 F0000000 		.4byte	.LVL260
 19911 055b F4000000 		.4byte	.LVL261
 19912 055f 0200     		.2byte	0x2
 19913 0561 30       		.byte	0x30
 19914 0562 9F       		.byte	0x9f
 19915 0563 00000000 		.4byte	0
 19916 0567 00000000 		.4byte	0
 19917              	.LLST100:
 19918 056b 00000000 		.4byte	.LVL243
 19919 056f 28000000 		.4byte	.LVL244
 19920 0573 0600     		.2byte	0x6
 19921 0575 03       		.byte	0x3
 19922 0576 00000000 		.4byte	.LC2
 19923 057a 9F       		.byte	0x9f
 19924 057b 00000000 		.4byte	0
 19925 057f 00000000 		.4byte	0
 19926              	.LLST0:
 19927 0583 00000000 		.4byte	.LVL0
 19928 0587 10000000 		.4byte	.LVL1
 19929 058b 0100     		.2byte	0x1
 19930 058d 50       		.byte	0x50
 19931 058e 10000000 		.4byte	.LVL1
 19932 0592 E8000000 		.4byte	.LFE288
 19933 0596 0400     		.2byte	0x4
 19934 0598 F3       		.byte	0xf3
 19935 0599 01       		.uleb128 0x1
 19936 059a 50       		.byte	0x50
 19937 059b 9F       		.byte	0x9f
 19938 059c 00000000 		.4byte	0
 19939 05a0 00000000 		.4byte	0
 19940              	.LLST7:
 19941 05a4 54000000 		.4byte	.LVL7
 19942 05a8 60000000 		.4byte	.LVL8
 19943 05ac 0100     		.2byte	0x1
 19944 05ae 50       		.byte	0x50
 19945 05af 60000000 		.4byte	.LVL8
 19946 05b3 AA000000 		.4byte	.LVL12
 19947 05b7 0200     		.2byte	0x2
 19948 05b9 30       		.byte	0x30
 19949 05ba 9F       		.byte	0x9f
 19950 05bb AA000000 		.4byte	.LVL12
 19951 05bf BA000000 		.4byte	.LVL13
 19952 05c3 0100     		.2byte	0x1
 19953 05c5 50       		.byte	0x50
 19954 05c6 00000000 		.4byte	0
 19955 05ca 00000000 		.4byte	0
ARM GAS  /tmp/ccjQGkoy.s 			page 352


 19956              	.LLST1:
 19957 05ce 00000000 		.4byte	.LVL0
 19958 05d2 12000000 		.4byte	.LVL2
 19959 05d6 0600     		.2byte	0x6
 19960 05d8 03       		.byte	0x3
 19961 05d9 00000000 		.4byte	.LC0
 19962 05dd 9F       		.byte	0x9f
 19963 05de 00000000 		.4byte	0
 19964 05e2 00000000 		.4byte	0
 19965              	.LLST2:
 19966 05e6 14000000 		.4byte	.LVL3
 19967 05ea C4000000 		.4byte	.LVL16
 19968 05ee 0100     		.2byte	0x1
 19969 05f0 5D       		.byte	0x5d
 19970 05f1 C4000000 		.4byte	.LVL16
 19971 05f5 C8000000 		.4byte	.LVL17
 19972 05f9 0400     		.2byte	0x4
 19973 05fb 91       		.byte	0x91
 19974 05fc B07F     		.sleb128 -80
 19975 05fe 9F       		.byte	0x9f
 19976 05ff C8000000 		.4byte	.LVL17
 19977 0603 E8000000 		.4byte	.LFE288
 19978 0607 0400     		.2byte	0x4
 19979 0609 7D       		.byte	0x7d
 19980 060a B07F     		.sleb128 -80
 19981 060c 9F       		.byte	0x9f
 19982 060d 00000000 		.4byte	0
 19983 0611 00000000 		.4byte	0
 19984              	.LLST3:
 19985 0615 12000000 		.4byte	.LVL2
 19986 0619 1F000000 		.4byte	.LVL4-1
 19987 061d 0100     		.2byte	0x1
 19988 061f 50       		.byte	0x50
 19989 0620 BE000000 		.4byte	.LVL14
 19990 0624 C1000000 		.4byte	.LVL15-1
 19991 0628 0100     		.2byte	0x1
 19992 062a 50       		.byte	0x50
 19993 062b 00000000 		.4byte	0
 19994 062f 00000000 		.4byte	0
 19995              	.LLST4:
 19996 0633 14000000 		.4byte	.LVL3
 19997 0637 20000000 		.4byte	.LVL4
 19998 063b 0200     		.2byte	0x2
 19999 063d 31       		.byte	0x31
 20000 063e 9F       		.byte	0x9f
 20001 063f 00000000 		.4byte	0
 20002 0643 00000000 		.4byte	0
 20003              	.LLST5:
 20004 0647 14000000 		.4byte	.LVL3
 20005 064b 20000000 		.4byte	.LVL4
 20006 064f 0100     		.2byte	0x1
 20007 0651 5D       		.byte	0x5d
 20008 0652 00000000 		.4byte	0
 20009 0656 00000000 		.4byte	0
 20010              	.LLST6:
 20011 065a 14000000 		.4byte	.LVL3
 20012 065e 1F000000 		.4byte	.LVL4-1
ARM GAS  /tmp/ccjQGkoy.s 			page 353


 20013 0662 0100     		.2byte	0x1
 20014 0664 50       		.byte	0x50
 20015 0665 00000000 		.4byte	0
 20016 0669 00000000 		.4byte	0
 20017              	.LLST93:
 20018 066d 28000000 		.4byte	.LVL240
 20019 0671 2E000000 		.4byte	.LVL241
 20020 0675 0100     		.2byte	0x1
 20021 0677 54       		.byte	0x54
 20022 0678 00000000 		.4byte	0
 20023 067c 00000000 		.4byte	0
 20024              	.LLST91:
 20025 0680 00000000 		.4byte	.LVL232
 20026 0684 1A000000 		.4byte	.LVL235
 20027 0688 0100     		.2byte	0x1
 20028 068a 50       		.byte	0x50
 20029 068b 1A000000 		.4byte	.LVL235
 20030 068f 20000000 		.4byte	.LVL236
 20031 0693 0400     		.2byte	0x4
 20032 0695 F3       		.byte	0xf3
 20033 0696 01       		.uleb128 0x1
 20034 0697 50       		.byte	0x50
 20035 0698 9F       		.byte	0x9f
 20036 0699 20000000 		.4byte	.LVL236
 20037 069d 28000000 		.4byte	.LVL238
 20038 06a1 0100     		.2byte	0x1
 20039 06a3 50       		.byte	0x50
 20040 06a4 28000000 		.4byte	.LVL238
 20041 06a8 34000000 		.4byte	.LFE286
 20042 06ac 0400     		.2byte	0x4
 20043 06ae F3       		.byte	0xf3
 20044 06af 01       		.uleb128 0x1
 20045 06b0 50       		.byte	0x50
 20046 06b1 9F       		.byte	0x9f
 20047 06b2 00000000 		.4byte	0
 20048 06b6 00000000 		.4byte	0
 20049              	.LLST92:
 20050 06ba 00000000 		.4byte	.LVL232
 20051 06be 08000000 		.4byte	.LVL233
 20052 06c2 0200     		.2byte	0x2
 20053 06c4 30       		.byte	0x30
 20054 06c5 9F       		.byte	0x9f
 20055 06c6 08000000 		.4byte	.LVL233
 20056 06ca 24000000 		.4byte	.LVL237
 20057 06ce 0100     		.2byte	0x1
 20058 06d0 53       		.byte	0x53
 20059 06d1 00000000 		.4byte	0
 20060 06d5 00000000 		.4byte	0
 20061              	.LLST90:
 20062 06d9 00000000 		.4byte	.LVL230
 20063 06dd 0A000000 		.4byte	.LVL231
 20064 06e1 0100     		.2byte	0x1
 20065 06e3 50       		.byte	0x50
 20066 06e4 0A000000 		.4byte	.LVL231
 20067 06e8 18000000 		.4byte	.LFE285
 20068 06ec 0400     		.2byte	0x4
 20069 06ee F3       		.byte	0xf3
ARM GAS  /tmp/ccjQGkoy.s 			page 354


 20070 06ef 01       		.uleb128 0x1
 20071 06f0 50       		.byte	0x50
 20072 06f1 9F       		.byte	0x9f
 20073 06f2 00000000 		.4byte	0
 20074 06f6 00000000 		.4byte	0
 20075              	.LLST88:
 20076 06fa 00000000 		.4byte	.LVL224
 20077 06fe 16000000 		.4byte	.LVL227
 20078 0702 0100     		.2byte	0x1
 20079 0704 50       		.byte	0x50
 20080 0705 16000000 		.4byte	.LVL227
 20081 0709 1C000000 		.4byte	.LVL228
 20082 070d 0400     		.2byte	0x4
 20083 070f F3       		.byte	0xf3
 20084 0710 01       		.uleb128 0x1
 20085 0711 50       		.byte	0x50
 20086 0712 9F       		.byte	0x9f
 20087 0713 1C000000 		.4byte	.LVL228
 20088 0717 1E000000 		.4byte	.LVL229
 20089 071b 0100     		.2byte	0x1
 20090 071d 50       		.byte	0x50
 20091 071e 1E000000 		.4byte	.LVL229
 20092 0722 28000000 		.4byte	.LFE284
 20093 0726 0400     		.2byte	0x4
 20094 0728 F3       		.byte	0xf3
 20095 0729 01       		.uleb128 0x1
 20096 072a 50       		.byte	0x50
 20097 072b 9F       		.byte	0x9f
 20098 072c 00000000 		.4byte	0
 20099 0730 00000000 		.4byte	0
 20100              	.LLST89:
 20101 0734 00000000 		.4byte	.LVL224
 20102 0738 06000000 		.4byte	.LVL225
 20103 073c 0200     		.2byte	0x2
 20104 073e 30       		.byte	0x30
 20105 073f 9F       		.byte	0x9f
 20106 0740 06000000 		.4byte	.LVL225
 20107 0744 28000000 		.4byte	.LFE284
 20108 0748 0100     		.2byte	0x1
 20109 074a 53       		.byte	0x53
 20110 074b 00000000 		.4byte	0
 20111 074f 00000000 		.4byte	0
 20112              	.LLST87:
 20113 0753 00000000 		.4byte	.LVL222
 20114 0757 0A000000 		.4byte	.LVL223
 20115 075b 0100     		.2byte	0x1
 20116 075d 50       		.byte	0x50
 20117 075e 0A000000 		.4byte	.LVL223
 20118 0762 14000000 		.4byte	.LFE283
 20119 0766 0400     		.2byte	0x4
 20120 0768 F3       		.byte	0xf3
 20121 0769 01       		.uleb128 0x1
 20122 076a 50       		.byte	0x50
 20123 076b 9F       		.byte	0x9f
 20124 076c 00000000 		.4byte	0
 20125 0770 00000000 		.4byte	0
 20126              	.LLST85:
ARM GAS  /tmp/ccjQGkoy.s 			page 355


 20127 0774 00000000 		.4byte	.LVL216
 20128 0778 16000000 		.4byte	.LVL219
 20129 077c 0100     		.2byte	0x1
 20130 077e 50       		.byte	0x50
 20131 077f 16000000 		.4byte	.LVL219
 20132 0783 1C000000 		.4byte	.LVL220
 20133 0787 0400     		.2byte	0x4
 20134 0789 F3       		.byte	0xf3
 20135 078a 01       		.uleb128 0x1
 20136 078b 50       		.byte	0x50
 20137 078c 9F       		.byte	0x9f
 20138 078d 1C000000 		.4byte	.LVL220
 20139 0791 1E000000 		.4byte	.LVL221
 20140 0795 0100     		.2byte	0x1
 20141 0797 50       		.byte	0x50
 20142 0798 1E000000 		.4byte	.LVL221
 20143 079c 28000000 		.4byte	.LFE282
 20144 07a0 0400     		.2byte	0x4
 20145 07a2 F3       		.byte	0xf3
 20146 07a3 01       		.uleb128 0x1
 20147 07a4 50       		.byte	0x50
 20148 07a5 9F       		.byte	0x9f
 20149 07a6 00000000 		.4byte	0
 20150 07aa 00000000 		.4byte	0
 20151              	.LLST86:
 20152 07ae 00000000 		.4byte	.LVL216
 20153 07b2 06000000 		.4byte	.LVL217
 20154 07b6 0200     		.2byte	0x2
 20155 07b8 30       		.byte	0x30
 20156 07b9 9F       		.byte	0x9f
 20157 07ba 06000000 		.4byte	.LVL217
 20158 07be 28000000 		.4byte	.LFE282
 20159 07c2 0100     		.2byte	0x1
 20160 07c4 53       		.byte	0x53
 20161 07c5 00000000 		.4byte	0
 20162 07c9 00000000 		.4byte	0
 20163              	.LLST84:
 20164 07cd 00000000 		.4byte	.LVL214
 20165 07d1 0A000000 		.4byte	.LVL215
 20166 07d5 0100     		.2byte	0x1
 20167 07d7 50       		.byte	0x50
 20168 07d8 0A000000 		.4byte	.LVL215
 20169 07dc 14000000 		.4byte	.LFE281
 20170 07e0 0400     		.2byte	0x4
 20171 07e2 F3       		.byte	0xf3
 20172 07e3 01       		.uleb128 0x1
 20173 07e4 50       		.byte	0x50
 20174 07e5 9F       		.byte	0x9f
 20175 07e6 00000000 		.4byte	0
 20176 07ea 00000000 		.4byte	0
 20177              	.LLST82:
 20178 07ee 00000000 		.4byte	.LVL207
 20179 07f2 1A000000 		.4byte	.LVL210
 20180 07f6 0100     		.2byte	0x1
 20181 07f8 50       		.byte	0x50
 20182 07f9 1A000000 		.4byte	.LVL210
 20183 07fd 20000000 		.4byte	.LVL211
ARM GAS  /tmp/ccjQGkoy.s 			page 356


 20184 0801 0400     		.2byte	0x4
 20185 0803 F3       		.byte	0xf3
 20186 0804 01       		.uleb128 0x1
 20187 0805 50       		.byte	0x50
 20188 0806 9F       		.byte	0x9f
 20189 0807 20000000 		.4byte	.LVL211
 20190 080b 28000000 		.4byte	.LVL213
 20191 080f 0100     		.2byte	0x1
 20192 0811 50       		.byte	0x50
 20193 0812 28000000 		.4byte	.LVL213
 20194 0816 34000000 		.4byte	.LFE280
 20195 081a 0400     		.2byte	0x4
 20196 081c F3       		.byte	0xf3
 20197 081d 01       		.uleb128 0x1
 20198 081e 50       		.byte	0x50
 20199 081f 9F       		.byte	0x9f
 20200 0820 00000000 		.4byte	0
 20201 0824 00000000 		.4byte	0
 20202              	.LLST83:
 20203 0828 00000000 		.4byte	.LVL207
 20204 082c 08000000 		.4byte	.LVL208
 20205 0830 0200     		.2byte	0x2
 20206 0832 30       		.byte	0x30
 20207 0833 9F       		.byte	0x9f
 20208 0834 08000000 		.4byte	.LVL208
 20209 0838 24000000 		.4byte	.LVL212
 20210 083c 0100     		.2byte	0x1
 20211 083e 53       		.byte	0x53
 20212 083f 00000000 		.4byte	0
 20213 0843 00000000 		.4byte	0
 20214              	.LLST81:
 20215 0847 00000000 		.4byte	.LVL205
 20216 084b 0A000000 		.4byte	.LVL206
 20217 084f 0100     		.2byte	0x1
 20218 0851 50       		.byte	0x50
 20219 0852 0A000000 		.4byte	.LVL206
 20220 0856 18000000 		.4byte	.LFE279
 20221 085a 0400     		.2byte	0x4
 20222 085c F3       		.byte	0xf3
 20223 085d 01       		.uleb128 0x1
 20224 085e 50       		.byte	0x50
 20225 085f 9F       		.byte	0x9f
 20226 0860 00000000 		.4byte	0
 20227 0864 00000000 		.4byte	0
 20228              	.LLST80:
 20229 0868 00000000 		.4byte	.LVL203
 20230 086c 0C000000 		.4byte	.LVL204
 20231 0870 0100     		.2byte	0x1
 20232 0872 50       		.byte	0x50
 20233 0873 0C000000 		.4byte	.LVL204
 20234 0877 1C000000 		.4byte	.LFE276
 20235 087b 0400     		.2byte	0x4
 20236 087d F3       		.byte	0xf3
 20237 087e 01       		.uleb128 0x1
 20238 087f 50       		.byte	0x50
 20239 0880 9F       		.byte	0x9f
 20240 0881 00000000 		.4byte	0
ARM GAS  /tmp/ccjQGkoy.s 			page 357


 20241 0885 00000000 		.4byte	0
 20242              	.LLST76:
 20243 0889 00000000 		.4byte	.LVL195
 20244 088d 1A000000 		.4byte	.LVL196
 20245 0891 0100     		.2byte	0x1
 20246 0893 50       		.byte	0x50
 20247 0894 1A000000 		.4byte	.LVL196
 20248 0898 58000000 		.4byte	.LFE275
 20249 089c 0400     		.2byte	0x4
 20250 089e F3       		.byte	0xf3
 20251 089f 01       		.uleb128 0x1
 20252 08a0 50       		.byte	0x50
 20253 08a1 9F       		.byte	0x9f
 20254 08a2 00000000 		.4byte	0
 20255 08a6 00000000 		.4byte	0
 20256              	.LLST77:
 20257 08aa 00000000 		.4byte	.LVL195
 20258 08ae 1C000000 		.4byte	.LVL197
 20259 08b2 0100     		.2byte	0x1
 20260 08b4 51       		.byte	0x51
 20261 08b5 1C000000 		.4byte	.LVL197
 20262 08b9 58000000 		.4byte	.LFE275
 20263 08bd 0400     		.2byte	0x4
 20264 08bf F3       		.byte	0xf3
 20265 08c0 01       		.uleb128 0x1
 20266 08c1 51       		.byte	0x51
 20267 08c2 9F       		.byte	0x9f
 20268 08c3 00000000 		.4byte	0
 20269 08c7 00000000 		.4byte	0
 20270              	.LLST78:
 20271 08cb 00000000 		.4byte	.LVL195
 20272 08cf 23000000 		.4byte	.LVL199-1
 20273 08d3 0200     		.2byte	0x2
 20274 08d5 90       		.byte	0x90
 20275 08d6 40       		.uleb128 0x40
 20276 08d7 23000000 		.4byte	.LVL199-1
 20277 08db 58000000 		.4byte	.LFE275
 20278 08df 0600     		.2byte	0x6
 20279 08e1 F3       		.byte	0xf3
 20280 08e2 03       		.uleb128 0x3
 20281 08e3 F5       		.byte	0xf5
 20282 08e4 40       		.uleb128 0x40
 20283 08e5 25       		.uleb128 0x25
 20284 08e6 9F       		.byte	0x9f
 20285 08e7 00000000 		.4byte	0
 20286 08eb 00000000 		.4byte	0
 20287              	.LLST79:
 20288 08ef 00000000 		.4byte	.LVL195
 20289 08f3 20000000 		.4byte	.LVL198
 20290 08f7 0200     		.2byte	0x2
 20291 08f9 90       		.byte	0x90
 20292 08fa 41       		.uleb128 0x41
 20293 08fb 20000000 		.4byte	.LVL198
 20294 08ff 52000000 		.4byte	.LVL202
 20295 0903 0200     		.2byte	0x2
 20296 0905 90       		.byte	0x90
 20297 0906 50       		.uleb128 0x50
ARM GAS  /tmp/ccjQGkoy.s 			page 358


 20298 0907 52000000 		.4byte	.LVL202
 20299 090b 58000000 		.4byte	.LFE275
 20300 090f 0600     		.2byte	0x6
 20301 0911 F3       		.byte	0xf3
 20302 0912 03       		.uleb128 0x3
 20303 0913 F5       		.byte	0xf5
 20304 0914 41       		.uleb128 0x41
 20305 0915 25       		.uleb128 0x25
 20306 0916 9F       		.byte	0x9f
 20307 0917 00000000 		.4byte	0
 20308 091b 00000000 		.4byte	0
 20309              	.LLST72:
 20310 091f 00000000 		.4byte	.LVL187
 20311 0923 1A000000 		.4byte	.LVL188
 20312 0927 0100     		.2byte	0x1
 20313 0929 50       		.byte	0x50
 20314 092a 1A000000 		.4byte	.LVL188
 20315 092e 58000000 		.4byte	.LFE274
 20316 0932 0400     		.2byte	0x4
 20317 0934 F3       		.byte	0xf3
 20318 0935 01       		.uleb128 0x1
 20319 0936 50       		.byte	0x50
 20320 0937 9F       		.byte	0x9f
 20321 0938 00000000 		.4byte	0
 20322 093c 00000000 		.4byte	0
 20323              	.LLST73:
 20324 0940 00000000 		.4byte	.LVL187
 20325 0944 1C000000 		.4byte	.LVL189
 20326 0948 0100     		.2byte	0x1
 20327 094a 51       		.byte	0x51
 20328 094b 1C000000 		.4byte	.LVL189
 20329 094f 58000000 		.4byte	.LFE274
 20330 0953 0400     		.2byte	0x4
 20331 0955 F3       		.byte	0xf3
 20332 0956 01       		.uleb128 0x1
 20333 0957 51       		.byte	0x51
 20334 0958 9F       		.byte	0x9f
 20335 0959 00000000 		.4byte	0
 20336 095d 00000000 		.4byte	0
 20337              	.LLST74:
 20338 0961 00000000 		.4byte	.LVL187
 20339 0965 23000000 		.4byte	.LVL191-1
 20340 0969 0200     		.2byte	0x2
 20341 096b 90       		.byte	0x90
 20342 096c 40       		.uleb128 0x40
 20343 096d 23000000 		.4byte	.LVL191-1
 20344 0971 58000000 		.4byte	.LFE274
 20345 0975 0600     		.2byte	0x6
 20346 0977 F3       		.byte	0xf3
 20347 0978 03       		.uleb128 0x3
 20348 0979 F5       		.byte	0xf5
 20349 097a 40       		.uleb128 0x40
 20350 097b 25       		.uleb128 0x25
 20351 097c 9F       		.byte	0x9f
 20352 097d 00000000 		.4byte	0
 20353 0981 00000000 		.4byte	0
 20354              	.LLST75:
ARM GAS  /tmp/ccjQGkoy.s 			page 359


 20355 0985 00000000 		.4byte	.LVL187
 20356 0989 20000000 		.4byte	.LVL190
 20357 098d 0200     		.2byte	0x2
 20358 098f 90       		.byte	0x90
 20359 0990 41       		.uleb128 0x41
 20360 0991 20000000 		.4byte	.LVL190
 20361 0995 52000000 		.4byte	.LVL194
 20362 0999 0200     		.2byte	0x2
 20363 099b 90       		.byte	0x90
 20364 099c 50       		.uleb128 0x50
 20365 099d 52000000 		.4byte	.LVL194
 20366 09a1 58000000 		.4byte	.LFE274
 20367 09a5 0600     		.2byte	0x6
 20368 09a7 F3       		.byte	0xf3
 20369 09a8 03       		.uleb128 0x3
 20370 09a9 F5       		.byte	0xf5
 20371 09aa 41       		.uleb128 0x41
 20372 09ab 25       		.uleb128 0x25
 20373 09ac 9F       		.byte	0x9f
 20374 09ad 00000000 		.4byte	0
 20375 09b1 00000000 		.4byte	0
 20376              	.LLST68:
 20377 09b5 00000000 		.4byte	.LVL179
 20378 09b9 1A000000 		.4byte	.LVL180
 20379 09bd 0100     		.2byte	0x1
 20380 09bf 50       		.byte	0x50
 20381 09c0 1A000000 		.4byte	.LVL180
 20382 09c4 58000000 		.4byte	.LFE273
 20383 09c8 0400     		.2byte	0x4
 20384 09ca F3       		.byte	0xf3
 20385 09cb 01       		.uleb128 0x1
 20386 09cc 50       		.byte	0x50
 20387 09cd 9F       		.byte	0x9f
 20388 09ce 00000000 		.4byte	0
 20389 09d2 00000000 		.4byte	0
 20390              	.LLST69:
 20391 09d6 00000000 		.4byte	.LVL179
 20392 09da 1C000000 		.4byte	.LVL181
 20393 09de 0100     		.2byte	0x1
 20394 09e0 51       		.byte	0x51
 20395 09e1 1C000000 		.4byte	.LVL181
 20396 09e5 58000000 		.4byte	.LFE273
 20397 09e9 0400     		.2byte	0x4
 20398 09eb F3       		.byte	0xf3
 20399 09ec 01       		.uleb128 0x1
 20400 09ed 51       		.byte	0x51
 20401 09ee 9F       		.byte	0x9f
 20402 09ef 00000000 		.4byte	0
 20403 09f3 00000000 		.4byte	0
 20404              	.LLST70:
 20405 09f7 00000000 		.4byte	.LVL179
 20406 09fb 23000000 		.4byte	.LVL183-1
 20407 09ff 0200     		.2byte	0x2
 20408 0a01 90       		.byte	0x90
 20409 0a02 40       		.uleb128 0x40
 20410 0a03 23000000 		.4byte	.LVL183-1
 20411 0a07 58000000 		.4byte	.LFE273
ARM GAS  /tmp/ccjQGkoy.s 			page 360


 20412 0a0b 0600     		.2byte	0x6
 20413 0a0d F3       		.byte	0xf3
 20414 0a0e 03       		.uleb128 0x3
 20415 0a0f F5       		.byte	0xf5
 20416 0a10 40       		.uleb128 0x40
 20417 0a11 25       		.uleb128 0x25
 20418 0a12 9F       		.byte	0x9f
 20419 0a13 00000000 		.4byte	0
 20420 0a17 00000000 		.4byte	0
 20421              	.LLST71:
 20422 0a1b 00000000 		.4byte	.LVL179
 20423 0a1f 20000000 		.4byte	.LVL182
 20424 0a23 0200     		.2byte	0x2
 20425 0a25 90       		.byte	0x90
 20426 0a26 41       		.uleb128 0x41
 20427 0a27 20000000 		.4byte	.LVL182
 20428 0a2b 52000000 		.4byte	.LVL186
 20429 0a2f 0200     		.2byte	0x2
 20430 0a31 90       		.byte	0x90
 20431 0a32 50       		.uleb128 0x50
 20432 0a33 52000000 		.4byte	.LVL186
 20433 0a37 58000000 		.4byte	.LFE273
 20434 0a3b 0600     		.2byte	0x6
 20435 0a3d F3       		.byte	0xf3
 20436 0a3e 03       		.uleb128 0x3
 20437 0a3f F5       		.byte	0xf5
 20438 0a40 41       		.uleb128 0x41
 20439 0a41 25       		.uleb128 0x25
 20440 0a42 9F       		.byte	0x9f
 20441 0a43 00000000 		.4byte	0
 20442 0a47 00000000 		.4byte	0
 20443              	.LLST65:
 20444 0a4b 00000000 		.4byte	.LVL174
 20445 0a4f 17000000 		.4byte	.LVL175-1
 20446 0a53 0100     		.2byte	0x1
 20447 0a55 50       		.byte	0x50
 20448 0a56 17000000 		.4byte	.LVL175-1
 20449 0a5a 58000000 		.4byte	.LFE272
 20450 0a5e 0400     		.2byte	0x4
 20451 0a60 F3       		.byte	0xf3
 20452 0a61 01       		.uleb128 0x1
 20453 0a62 50       		.byte	0x50
 20454 0a63 9F       		.byte	0x9f
 20455 0a64 00000000 		.4byte	0
 20456 0a68 00000000 		.4byte	0
 20457              	.LLST66:
 20458 0a6c 00000000 		.4byte	.LVL174
 20459 0a70 17000000 		.4byte	.LVL175-1
 20460 0a74 0100     		.2byte	0x1
 20461 0a76 51       		.byte	0x51
 20462 0a77 17000000 		.4byte	.LVL175-1
 20463 0a7b 58000000 		.4byte	.LFE272
 20464 0a7f 0400     		.2byte	0x4
 20465 0a81 F3       		.byte	0xf3
 20466 0a82 01       		.uleb128 0x1
 20467 0a83 51       		.byte	0x51
 20468 0a84 9F       		.byte	0x9f
ARM GAS  /tmp/ccjQGkoy.s 			page 361


 20469 0a85 00000000 		.4byte	0
 20470 0a89 00000000 		.4byte	0
 20471              	.LLST67:
 20472 0a8d 00000000 		.4byte	.LVL174
 20473 0a91 17000000 		.4byte	.LVL175-1
 20474 0a95 0200     		.2byte	0x2
 20475 0a97 90       		.byte	0x90
 20476 0a98 40       		.uleb128 0x40
 20477 0a99 17000000 		.4byte	.LVL175-1
 20478 0a9d 52000000 		.4byte	.LVL178
 20479 0aa1 0200     		.2byte	0x2
 20480 0aa3 90       		.byte	0x90
 20481 0aa4 50       		.uleb128 0x50
 20482 0aa5 52000000 		.4byte	.LVL178
 20483 0aa9 58000000 		.4byte	.LFE272
 20484 0aad 0600     		.2byte	0x6
 20485 0aaf F3       		.byte	0xf3
 20486 0ab0 03       		.uleb128 0x3
 20487 0ab1 F5       		.byte	0xf5
 20488 0ab2 40       		.uleb128 0x40
 20489 0ab3 25       		.uleb128 0x25
 20490 0ab4 9F       		.byte	0x9f
 20491 0ab5 00000000 		.4byte	0
 20492 0ab9 00000000 		.4byte	0
 20493              	.LLST63:
 20494 0abd 00000000 		.4byte	.LVL167
 20495 0ac1 12000000 		.4byte	.LVL168
 20496 0ac5 0100     		.2byte	0x1
 20497 0ac7 50       		.byte	0x50
 20498 0ac8 12000000 		.4byte	.LVL168
 20499 0acc 4C000000 		.4byte	.LFE271
 20500 0ad0 0400     		.2byte	0x4
 20501 0ad2 F3       		.byte	0xf3
 20502 0ad3 01       		.uleb128 0x1
 20503 0ad4 50       		.byte	0x50
 20504 0ad5 9F       		.byte	0x9f
 20505 0ad6 00000000 		.4byte	0
 20506 0ada 00000000 		.4byte	0
 20507              	.LLST64:
 20508 0ade 36000000 		.4byte	.LVL172
 20509 0ae2 3E000000 		.4byte	.LVL173
 20510 0ae6 0100     		.2byte	0x1
 20511 0ae8 50       		.byte	0x50
 20512 0ae9 00000000 		.4byte	0
 20513 0aed 00000000 		.4byte	0
 20514              	.LLST61:
 20515 0af1 00000000 		.4byte	.LVL163
 20516 0af5 14000000 		.4byte	.LVL164
 20517 0af9 0100     		.2byte	0x1
 20518 0afb 50       		.byte	0x50
 20519 0afc 14000000 		.4byte	.LVL164
 20520 0b00 30000000 		.4byte	.LFE270
 20521 0b04 0400     		.2byte	0x4
 20522 0b06 F3       		.byte	0xf3
 20523 0b07 01       		.uleb128 0x1
 20524 0b08 50       		.byte	0x50
 20525 0b09 9F       		.byte	0x9f
ARM GAS  /tmp/ccjQGkoy.s 			page 362


 20526 0b0a 00000000 		.4byte	0
 20527 0b0e 00000000 		.4byte	0
 20528              	.LLST62:
 20529 0b12 00000000 		.4byte	.LVL163
 20530 0b16 17000000 		.4byte	.LVL165-1
 20531 0b1a 0200     		.2byte	0x2
 20532 0b1c 90       		.byte	0x90
 20533 0b1d 40       		.uleb128 0x40
 20534 0b1e 17000000 		.4byte	.LVL165-1
 20535 0b22 30000000 		.4byte	.LFE270
 20536 0b26 0600     		.2byte	0x6
 20537 0b28 F3       		.byte	0xf3
 20538 0b29 03       		.uleb128 0x3
 20539 0b2a F5       		.byte	0xf5
 20540 0b2b 40       		.uleb128 0x40
 20541 0b2c 25       		.uleb128 0x25
 20542 0b2d 9F       		.byte	0x9f
 20543 0b2e 00000000 		.4byte	0
 20544 0b32 00000000 		.4byte	0
 20545              	.LLST59:
 20546 0b36 00000000 		.4byte	.LVL159
 20547 0b3a 14000000 		.4byte	.LVL160
 20548 0b3e 0100     		.2byte	0x1
 20549 0b40 50       		.byte	0x50
 20550 0b41 14000000 		.4byte	.LVL160
 20551 0b45 30000000 		.4byte	.LFE269
 20552 0b49 0400     		.2byte	0x4
 20553 0b4b F3       		.byte	0xf3
 20554 0b4c 01       		.uleb128 0x1
 20555 0b4d 50       		.byte	0x50
 20556 0b4e 9F       		.byte	0x9f
 20557 0b4f 00000000 		.4byte	0
 20558 0b53 00000000 		.4byte	0
 20559              	.LLST60:
 20560 0b57 00000000 		.4byte	.LVL159
 20561 0b5b 17000000 		.4byte	.LVL161-1
 20562 0b5f 0200     		.2byte	0x2
 20563 0b61 90       		.byte	0x90
 20564 0b62 40       		.uleb128 0x40
 20565 0b63 17000000 		.4byte	.LVL161-1
 20566 0b67 30000000 		.4byte	.LFE269
 20567 0b6b 0600     		.2byte	0x6
 20568 0b6d F3       		.byte	0xf3
 20569 0b6e 03       		.uleb128 0x3
 20570 0b6f F5       		.byte	0xf5
 20571 0b70 40       		.uleb128 0x40
 20572 0b71 25       		.uleb128 0x25
 20573 0b72 9F       		.byte	0x9f
 20574 0b73 00000000 		.4byte	0
 20575 0b77 00000000 		.4byte	0
 20576              	.LLST57:
 20577 0b7b 00000000 		.4byte	.LVL155
 20578 0b7f 14000000 		.4byte	.LVL156
 20579 0b83 0100     		.2byte	0x1
 20580 0b85 50       		.byte	0x50
 20581 0b86 14000000 		.4byte	.LVL156
 20582 0b8a 30000000 		.4byte	.LFE268
ARM GAS  /tmp/ccjQGkoy.s 			page 363


 20583 0b8e 0400     		.2byte	0x4
 20584 0b90 F3       		.byte	0xf3
 20585 0b91 01       		.uleb128 0x1
 20586 0b92 50       		.byte	0x50
 20587 0b93 9F       		.byte	0x9f
 20588 0b94 00000000 		.4byte	0
 20589 0b98 00000000 		.4byte	0
 20590              	.LLST58:
 20591 0b9c 00000000 		.4byte	.LVL155
 20592 0ba0 17000000 		.4byte	.LVL157-1
 20593 0ba4 0200     		.2byte	0x2
 20594 0ba6 90       		.byte	0x90
 20595 0ba7 40       		.uleb128 0x40
 20596 0ba8 17000000 		.4byte	.LVL157-1
 20597 0bac 30000000 		.4byte	.LFE268
 20598 0bb0 0600     		.2byte	0x6
 20599 0bb2 F3       		.byte	0xf3
 20600 0bb3 03       		.uleb128 0x3
 20601 0bb4 F5       		.byte	0xf5
 20602 0bb5 40       		.uleb128 0x40
 20603 0bb6 25       		.uleb128 0x25
 20604 0bb7 9F       		.byte	0x9f
 20605 0bb8 00000000 		.4byte	0
 20606 0bbc 00000000 		.4byte	0
 20607              	.LLST55:
 20608 0bc0 00000000 		.4byte	.LVL151
 20609 0bc4 14000000 		.4byte	.LVL152
 20610 0bc8 0100     		.2byte	0x1
 20611 0bca 50       		.byte	0x50
 20612 0bcb 14000000 		.4byte	.LVL152
 20613 0bcf 30000000 		.4byte	.LFE267
 20614 0bd3 0400     		.2byte	0x4
 20615 0bd5 F3       		.byte	0xf3
 20616 0bd6 01       		.uleb128 0x1
 20617 0bd7 50       		.byte	0x50
 20618 0bd8 9F       		.byte	0x9f
 20619 0bd9 00000000 		.4byte	0
 20620 0bdd 00000000 		.4byte	0
 20621              	.LLST56:
 20622 0be1 00000000 		.4byte	.LVL151
 20623 0be5 17000000 		.4byte	.LVL153-1
 20624 0be9 0200     		.2byte	0x2
 20625 0beb 90       		.byte	0x90
 20626 0bec 40       		.uleb128 0x40
 20627 0bed 17000000 		.4byte	.LVL153-1
 20628 0bf1 30000000 		.4byte	.LFE267
 20629 0bf5 0600     		.2byte	0x6
 20630 0bf7 F3       		.byte	0xf3
 20631 0bf8 03       		.uleb128 0x3
 20632 0bf9 F5       		.byte	0xf5
 20633 0bfa 40       		.uleb128 0x40
 20634 0bfb 25       		.uleb128 0x25
 20635 0bfc 9F       		.byte	0x9f
 20636 0bfd 00000000 		.4byte	0
 20637 0c01 00000000 		.4byte	0
 20638              	.LLST53:
 20639 0c05 00000000 		.4byte	.LVL146
ARM GAS  /tmp/ccjQGkoy.s 			page 364


 20640 0c09 20000000 		.4byte	.LVL148
 20641 0c0d 0100     		.2byte	0x1
 20642 0c0f 50       		.byte	0x50
 20643 0c10 20000000 		.4byte	.LVL148
 20644 0c14 3C000000 		.4byte	.LFE266
 20645 0c18 0400     		.2byte	0x4
 20646 0c1a F3       		.byte	0xf3
 20647 0c1b 01       		.uleb128 0x1
 20648 0c1c 50       		.byte	0x50
 20649 0c1d 9F       		.byte	0x9f
 20650 0c1e 00000000 		.4byte	0
 20651 0c22 00000000 		.4byte	0
 20652              	.LLST54:
 20653 0c26 00000000 		.4byte	.LVL146
 20654 0c2a 0A000000 		.4byte	.LVL147
 20655 0c2e 0200     		.2byte	0x2
 20656 0c30 90       		.byte	0x90
 20657 0c31 40       		.uleb128 0x40
 20658 0c32 0A000000 		.4byte	.LVL147
 20659 0c36 3C000000 		.4byte	.LFE266
 20660 0c3a 0600     		.2byte	0x6
 20661 0c3c F3       		.byte	0xf3
 20662 0c3d 03       		.uleb128 0x3
 20663 0c3e F5       		.byte	0xf5
 20664 0c3f 40       		.uleb128 0x40
 20665 0c40 25       		.uleb128 0x25
 20666 0c41 9F       		.byte	0x9f
 20667 0c42 00000000 		.4byte	0
 20668 0c46 00000000 		.4byte	0
 20669              	.LLST51:
 20670 0c4a 00000000 		.4byte	.LVL142
 20671 0c4e 18000000 		.4byte	.LVL143
 20672 0c52 0100     		.2byte	0x1
 20673 0c54 50       		.byte	0x50
 20674 0c55 18000000 		.4byte	.LVL143
 20675 0c59 2E000000 		.4byte	.LFE265
 20676 0c5d 0400     		.2byte	0x4
 20677 0c5f F3       		.byte	0xf3
 20678 0c60 01       		.uleb128 0x1
 20679 0c61 50       		.byte	0x50
 20680 0c62 9F       		.byte	0x9f
 20681 0c63 00000000 		.4byte	0
 20682 0c67 00000000 		.4byte	0
 20683              	.LLST52:
 20684 0c6b 00000000 		.4byte	.LVL142
 20685 0c6f 1B000000 		.4byte	.LVL144-1
 20686 0c73 0200     		.2byte	0x2
 20687 0c75 90       		.byte	0x90
 20688 0c76 40       		.uleb128 0x40
 20689 0c77 1B000000 		.4byte	.LVL144-1
 20690 0c7b 2E000000 		.4byte	.LFE265
 20691 0c7f 0600     		.2byte	0x6
 20692 0c81 F3       		.byte	0xf3
 20693 0c82 03       		.uleb128 0x3
 20694 0c83 F5       		.byte	0xf5
 20695 0c84 40       		.uleb128 0x40
 20696 0c85 25       		.uleb128 0x25
ARM GAS  /tmp/ccjQGkoy.s 			page 365


 20697 0c86 9F       		.byte	0x9f
 20698 0c87 00000000 		.4byte	0
 20699 0c8b 00000000 		.4byte	0
 20700              	.LLST49:
 20701 0c8f 00000000 		.4byte	.LVL137
 20702 0c93 20000000 		.4byte	.LVL139
 20703 0c97 0100     		.2byte	0x1
 20704 0c99 50       		.byte	0x50
 20705 0c9a 20000000 		.4byte	.LVL139
 20706 0c9e 3C000000 		.4byte	.LFE264
 20707 0ca2 0400     		.2byte	0x4
 20708 0ca4 F3       		.byte	0xf3
 20709 0ca5 01       		.uleb128 0x1
 20710 0ca6 50       		.byte	0x50
 20711 0ca7 9F       		.byte	0x9f
 20712 0ca8 00000000 		.4byte	0
 20713 0cac 00000000 		.4byte	0
 20714              	.LLST50:
 20715 0cb0 00000000 		.4byte	.LVL137
 20716 0cb4 0A000000 		.4byte	.LVL138
 20717 0cb8 0200     		.2byte	0x2
 20718 0cba 90       		.byte	0x90
 20719 0cbb 40       		.uleb128 0x40
 20720 0cbc 0A000000 		.4byte	.LVL138
 20721 0cc0 3C000000 		.4byte	.LFE264
 20722 0cc4 0600     		.2byte	0x6
 20723 0cc6 F3       		.byte	0xf3
 20724 0cc7 03       		.uleb128 0x3
 20725 0cc8 F5       		.byte	0xf5
 20726 0cc9 40       		.uleb128 0x40
 20727 0cca 25       		.uleb128 0x25
 20728 0ccb 9F       		.byte	0x9f
 20729 0ccc 00000000 		.4byte	0
 20730 0cd0 00000000 		.4byte	0
 20731              	.LLST47:
 20732 0cd4 00000000 		.4byte	.LVL132
 20733 0cd8 20000000 		.4byte	.LVL134
 20734 0cdc 0100     		.2byte	0x1
 20735 0cde 50       		.byte	0x50
 20736 0cdf 20000000 		.4byte	.LVL134
 20737 0ce3 3C000000 		.4byte	.LFE263
 20738 0ce7 0400     		.2byte	0x4
 20739 0ce9 F3       		.byte	0xf3
 20740 0cea 01       		.uleb128 0x1
 20741 0ceb 50       		.byte	0x50
 20742 0cec 9F       		.byte	0x9f
 20743 0ced 00000000 		.4byte	0
 20744 0cf1 00000000 		.4byte	0
 20745              	.LLST48:
 20746 0cf5 00000000 		.4byte	.LVL132
 20747 0cf9 0A000000 		.4byte	.LVL133
 20748 0cfd 0200     		.2byte	0x2
 20749 0cff 90       		.byte	0x90
 20750 0d00 40       		.uleb128 0x40
 20751 0d01 0A000000 		.4byte	.LVL133
 20752 0d05 3C000000 		.4byte	.LFE263
 20753 0d09 0600     		.2byte	0x6
ARM GAS  /tmp/ccjQGkoy.s 			page 366


 20754 0d0b F3       		.byte	0xf3
 20755 0d0c 03       		.uleb128 0x3
 20756 0d0d F5       		.byte	0xf5
 20757 0d0e 40       		.uleb128 0x40
 20758 0d0f 25       		.uleb128 0x25
 20759 0d10 9F       		.byte	0x9f
 20760 0d11 00000000 		.4byte	0
 20761 0d15 00000000 		.4byte	0
 20762              	.LLST45:
 20763 0d19 00000000 		.4byte	.LVL127
 20764 0d1d 20000000 		.4byte	.LVL129
 20765 0d21 0100     		.2byte	0x1
 20766 0d23 50       		.byte	0x50
 20767 0d24 20000000 		.4byte	.LVL129
 20768 0d28 38000000 		.4byte	.LFE262
 20769 0d2c 0400     		.2byte	0x4
 20770 0d2e F3       		.byte	0xf3
 20771 0d2f 01       		.uleb128 0x1
 20772 0d30 50       		.byte	0x50
 20773 0d31 9F       		.byte	0x9f
 20774 0d32 00000000 		.4byte	0
 20775 0d36 00000000 		.4byte	0
 20776              	.LLST46:
 20777 0d3a 00000000 		.4byte	.LVL127
 20778 0d3e 0A000000 		.4byte	.LVL128
 20779 0d42 0200     		.2byte	0x2
 20780 0d44 90       		.byte	0x90
 20781 0d45 40       		.uleb128 0x40
 20782 0d46 0A000000 		.4byte	.LVL128
 20783 0d4a 38000000 		.4byte	.LFE262
 20784 0d4e 0600     		.2byte	0x6
 20785 0d50 F3       		.byte	0xf3
 20786 0d51 03       		.uleb128 0x3
 20787 0d52 F5       		.byte	0xf5
 20788 0d53 40       		.uleb128 0x40
 20789 0d54 25       		.uleb128 0x25
 20790 0d55 9F       		.byte	0x9f
 20791 0d56 00000000 		.4byte	0
 20792 0d5a 00000000 		.4byte	0
 20793              	.LLST28:
 20794 0d5e 00000000 		.4byte	.LVL80
 20795 0d62 28000000 		.4byte	.LVL82
 20796 0d66 0100     		.2byte	0x1
 20797 0d68 50       		.byte	0x50
 20798 0d69 28000000 		.4byte	.LVL82
 20799 0d6d 54000000 		.4byte	.LFE259
 20800 0d71 0400     		.2byte	0x4
 20801 0d73 F3       		.byte	0xf3
 20802 0d74 01       		.uleb128 0x1
 20803 0d75 50       		.byte	0x50
 20804 0d76 9F       		.byte	0x9f
 20805 0d77 00000000 		.4byte	0
 20806 0d7b 00000000 		.4byte	0
 20807              	.LLST29:
 20808 0d7f 00000000 		.4byte	.LVL80
 20809 0d83 2F000000 		.4byte	.LVL83-1
 20810 0d87 0100     		.2byte	0x1
ARM GAS  /tmp/ccjQGkoy.s 			page 367


 20811 0d89 51       		.byte	0x51
 20812 0d8a 2F000000 		.4byte	.LVL83-1
 20813 0d8e 54000000 		.4byte	.LFE259
 20814 0d92 0400     		.2byte	0x4
 20815 0d94 F3       		.byte	0xf3
 20816 0d95 01       		.uleb128 0x1
 20817 0d96 51       		.byte	0x51
 20818 0d97 9F       		.byte	0x9f
 20819 0d98 00000000 		.4byte	0
 20820 0d9c 00000000 		.4byte	0
 20821              	.LLST30:
 20822 0da0 00000000 		.4byte	.LVL80
 20823 0da4 14000000 		.4byte	.LVL81
 20824 0da8 0100     		.2byte	0x1
 20825 0daa 52       		.byte	0x52
 20826 0dab 14000000 		.4byte	.LVL81
 20827 0daf 2F000000 		.4byte	.LVL83-1
 20828 0db3 0100     		.2byte	0x1
 20829 0db5 52       		.byte	0x52
 20830 0db6 00000000 		.4byte	0
 20831 0dba 00000000 		.4byte	0
 20832              	.LLST22:
 20833 0dbe 00000000 		.4byte	.LVL38
 20834 0dc2 2A000000 		.4byte	.LVL40
 20835 0dc6 0100     		.2byte	0x1
 20836 0dc8 50       		.byte	0x50
 20837 0dc9 2A000000 		.4byte	.LVL40
 20838 0dcd 54000000 		.4byte	.LFE258
 20839 0dd1 0400     		.2byte	0x4
 20840 0dd3 F3       		.byte	0xf3
 20841 0dd4 01       		.uleb128 0x1
 20842 0dd5 50       		.byte	0x50
 20843 0dd6 9F       		.byte	0x9f
 20844 0dd7 00000000 		.4byte	0
 20845 0ddb 00000000 		.4byte	0
 20846              	.LLST23:
 20847 0ddf 00000000 		.4byte	.LVL38
 20848 0de3 2F000000 		.4byte	.LVL41-1
 20849 0de7 0100     		.2byte	0x1
 20850 0de9 51       		.byte	0x51
 20851 0dea 2F000000 		.4byte	.LVL41-1
 20852 0dee 54000000 		.4byte	.LFE258
 20853 0df2 0400     		.2byte	0x4
 20854 0df4 F3       		.byte	0xf3
 20855 0df5 01       		.uleb128 0x1
 20856 0df6 51       		.byte	0x51
 20857 0df7 9F       		.byte	0x9f
 20858 0df8 00000000 		.4byte	0
 20859 0dfc 00000000 		.4byte	0
 20860              	.LLST24:
 20861 0e00 00000000 		.4byte	.LVL38
 20862 0e04 16000000 		.4byte	.LVL39
 20863 0e08 0100     		.2byte	0x1
 20864 0e0a 52       		.byte	0x52
 20865 0e0b 16000000 		.4byte	.LVL39
 20866 0e0f 2F000000 		.4byte	.LVL41-1
 20867 0e13 0100     		.2byte	0x1
ARM GAS  /tmp/ccjQGkoy.s 			page 368


 20868 0e15 52       		.byte	0x52
 20869 0e16 00000000 		.4byte	0
 20870 0e1a 00000000 		.4byte	0
 20871              	.LLST9:
 20872 0e1e 00000000 		.4byte	.LVL29
 20873 0e22 14000000 		.4byte	.LVL32
 20874 0e26 0100     		.2byte	0x1
 20875 0e28 50       		.byte	0x50
 20876 0e29 14000000 		.4byte	.LVL32
 20877 0e2d 26000000 		.4byte	.LVL34
 20878 0e31 0400     		.2byte	0x4
 20879 0e33 F3       		.byte	0xf3
 20880 0e34 01       		.uleb128 0x1
 20881 0e35 50       		.byte	0x50
 20882 0e36 9F       		.byte	0x9f
 20883 0e37 26000000 		.4byte	.LVL34
 20884 0e3b 54000000 		.4byte	.LFE257
 20885 0e3f 0100     		.2byte	0x1
 20886 0e41 50       		.byte	0x50
 20887 0e42 00000000 		.4byte	0
 20888 0e46 00000000 		.4byte	0
 20889              	.LLST10:
 20890 0e4a 0E000000 		.4byte	.LVL30
 20891 0e4e 12000000 		.4byte	.LVL31
 20892 0e52 0200     		.2byte	0x2
 20893 0e54 32       		.byte	0x32
 20894 0e55 9F       		.byte	0x9f
 20895 0e56 00000000 		.4byte	0
 20896 0e5a 00000000 		.4byte	0
 20897              	.LLST11:
 20898 0e5e 0E000000 		.4byte	.LVL30
 20899 0e62 12000000 		.4byte	.LVL31
 20900 0e66 0200     		.2byte	0x2
 20901 0e68 39       		.byte	0x39
 20902 0e69 9F       		.byte	0x9f
 20903 0e6a 00000000 		.4byte	0
 20904 0e6e 00000000 		.4byte	0
 20905              	.LLST13:
 20906 0e72 26000000 		.4byte	.LVL34
 20907 0e76 2C000000 		.4byte	.LVL35
 20908 0e7a 0200     		.2byte	0x2
 20909 0e7c 32       		.byte	0x32
 20910 0e7d 9F       		.byte	0x9f
 20911 0e7e 00000000 		.4byte	0
 20912 0e82 00000000 		.4byte	0
 20913              	.LLST14:
 20914 0e86 26000000 		.4byte	.LVL34
 20915 0e8a 2C000000 		.4byte	.LVL35
 20916 0e8e 0200     		.2byte	0x2
 20917 0e90 39       		.byte	0x39
 20918 0e91 9F       		.byte	0x9f
 20919 0e92 00000000 		.4byte	0
 20920 0e96 00000000 		.4byte	0
 20921              	.LLST15:
 20922 0e9a 26000000 		.4byte	.LVL34
 20923 0e9e 2C000000 		.4byte	.LVL35
 20924 0ea2 0200     		.2byte	0x2
ARM GAS  /tmp/ccjQGkoy.s 			page 369


 20925 0ea4 35       		.byte	0x35
 20926 0ea5 9F       		.byte	0x9f
 20927 0ea6 00000000 		.4byte	0
 20928 0eaa 00000000 		.4byte	0
 20929              	.LLST16:
 20930 0eae 2C000000 		.4byte	.LVL35
 20931 0eb2 32000000 		.4byte	.LVL36
 20932 0eb6 0200     		.2byte	0x2
 20933 0eb8 34       		.byte	0x34
 20934 0eb9 9F       		.byte	0x9f
 20935 0eba 00000000 		.4byte	0
 20936 0ebe 00000000 		.4byte	0
 20937              	.LLST17:
 20938 0ec2 2C000000 		.4byte	.LVL35
 20939 0ec6 32000000 		.4byte	.LVL36
 20940 0eca 0200     		.2byte	0x2
 20941 0ecc 3E       		.byte	0x3e
 20942 0ecd 9F       		.byte	0x9f
 20943 0ece 00000000 		.4byte	0
 20944 0ed2 00000000 		.4byte	0
 20945              	.LLST18:
 20946 0ed6 2C000000 		.4byte	.LVL35
 20947 0eda 32000000 		.4byte	.LVL36
 20948 0ede 0200     		.2byte	0x2
 20949 0ee0 37       		.byte	0x37
 20950 0ee1 9F       		.byte	0x9f
 20951 0ee2 00000000 		.4byte	0
 20952 0ee6 00000000 		.4byte	0
 20953              	.LLST19:
 20954 0eea 32000000 		.4byte	.LVL36
 20955 0eee 38000000 		.4byte	.LVL37
 20956 0ef2 0200     		.2byte	0x2
 20957 0ef4 34       		.byte	0x34
 20958 0ef5 9F       		.byte	0x9f
 20959 0ef6 00000000 		.4byte	0
 20960 0efa 00000000 		.4byte	0
 20961              	.LLST20:
 20962 0efe 32000000 		.4byte	.LVL36
 20963 0f02 38000000 		.4byte	.LVL37
 20964 0f06 0200     		.2byte	0x2
 20965 0f08 3E       		.byte	0x3e
 20966 0f09 9F       		.byte	0x9f
 20967 0f0a 00000000 		.4byte	0
 20968 0f0e 00000000 		.4byte	0
 20969              	.LLST21:
 20970 0f12 32000000 		.4byte	.LVL36
 20971 0f16 38000000 		.4byte	.LVL37
 20972 0f1a 0200     		.2byte	0x2
 20973 0f1c 3F       		.byte	0x3f
 20974 0f1d 9F       		.byte	0x9f
 20975 0f1e 00000000 		.4byte	0
 20976 0f22 00000000 		.4byte	0
 20977              	.LLST8:
 20978 0f26 00000000 		.4byte	.LVL18
 20979 0f2a 12000000 		.4byte	.LVL19
 20980 0f2e 0200     		.2byte	0x2
 20981 0f30 30       		.byte	0x30
ARM GAS  /tmp/ccjQGkoy.s 			page 370


 20982 0f31 9F       		.byte	0x9f
 20983 0f32 00000000 		.4byte	0
 20984 0f36 00000000 		.4byte	0
 20985              	.LLST31:
 20986 0f3a 00000000 		.4byte	.LVL88
 20987 0f3e 22000000 		.4byte	.LVL91
 20988 0f42 0100     		.2byte	0x1
 20989 0f44 50       		.byte	0x50
 20990 0f45 22000000 		.4byte	.LVL91
 20991 0f49 9E000000 		.4byte	.LVL106
 20992 0f4d 0400     		.2byte	0x4
 20993 0f4f F3       		.byte	0xf3
 20994 0f50 01       		.uleb128 0x1
 20995 0f51 50       		.byte	0x50
 20996 0f52 9F       		.byte	0x9f
 20997 0f53 9E000000 		.4byte	.LVL106
 20998 0f57 A1000000 		.4byte	.LVL107-1
 20999 0f5b 0100     		.2byte	0x1
 21000 0f5d 50       		.byte	0x50
 21001 0f5e A1000000 		.4byte	.LVL107-1
 21002 0f62 54010000 		.4byte	.LFE261
 21003 0f66 0400     		.2byte	0x4
 21004 0f68 F3       		.byte	0xf3
 21005 0f69 01       		.uleb128 0x1
 21006 0f6a 50       		.byte	0x50
 21007 0f6b 9F       		.byte	0x9f
 21008 0f6c 00000000 		.4byte	0
 21009 0f70 00000000 		.4byte	0
 21010              	.LLST32:
 21011 0f74 00000000 		.4byte	.LVL88
 21012 0f78 1C000000 		.4byte	.LVL90
 21013 0f7c 0100     		.2byte	0x1
 21014 0f7e 51       		.byte	0x51
 21015 0f7f 1C000000 		.4byte	.LVL90
 21016 0f83 5C000000 		.4byte	.LVL96
 21017 0f87 0100     		.2byte	0x1
 21018 0f89 56       		.byte	0x56
 21019 0f8a 5C000000 		.4byte	.LVL96
 21020 0f8e 9E000000 		.4byte	.LVL106
 21021 0f92 0400     		.2byte	0x4
 21022 0f94 F3       		.byte	0xf3
 21023 0f95 01       		.uleb128 0x1
 21024 0f96 51       		.byte	0x51
 21025 0f97 9F       		.byte	0x9f
 21026 0f98 9E000000 		.4byte	.LVL106
 21027 0f9c A1000000 		.4byte	.LVL107-1
 21028 0fa0 0100     		.2byte	0x1
 21029 0fa2 51       		.byte	0x51
 21030 0fa3 A1000000 		.4byte	.LVL107-1
 21031 0fa7 E2000000 		.4byte	.LVL114
 21032 0fab 0100     		.2byte	0x1
 21033 0fad 56       		.byte	0x56
 21034 0fae E2000000 		.4byte	.LVL114
 21035 0fb2 36010000 		.4byte	.LVL121
 21036 0fb6 0200     		.2byte	0x2
 21037 0fb8 91       		.byte	0x91
 21038 0fb9 4C       		.sleb128 -52
ARM GAS  /tmp/ccjQGkoy.s 			page 371


 21039 0fba 36010000 		.4byte	.LVL121
 21040 0fbe 54010000 		.4byte	.LFE261
 21041 0fc2 0100     		.2byte	0x1
 21042 0fc4 56       		.byte	0x56
 21043 0fc5 00000000 		.4byte	0
 21044 0fc9 00000000 		.4byte	0
 21045              	.LLST33:
 21046 0fcd 00000000 		.4byte	.LVL88
 21047 0fd1 22000000 		.4byte	.LVL91
 21048 0fd5 0100     		.2byte	0x1
 21049 0fd7 52       		.byte	0x52
 21050 0fd8 22000000 		.4byte	.LVL91
 21051 0fdc 9E000000 		.4byte	.LVL106
 21052 0fe0 0100     		.2byte	0x1
 21053 0fe2 55       		.byte	0x55
 21054 0fe3 9E000000 		.4byte	.LVL106
 21055 0fe7 A1000000 		.4byte	.LVL107-1
 21056 0feb 0100     		.2byte	0x1
 21057 0fed 52       		.byte	0x52
 21058 0fee A1000000 		.4byte	.LVL107-1
 21059 0ff2 54010000 		.4byte	.LFE261
 21060 0ff6 0100     		.2byte	0x1
 21061 0ff8 55       		.byte	0x55
 21062 0ff9 00000000 		.4byte	0
 21063 0ffd 00000000 		.4byte	0
 21064              	.LLST34:
 21065 1001 00000000 		.4byte	.LVL88
 21066 1005 14000000 		.4byte	.LVL89
 21067 1009 0100     		.2byte	0x1
 21068 100b 53       		.byte	0x53
 21069 100c 14000000 		.4byte	.LVL89
 21070 1010 9E000000 		.4byte	.LVL106
 21071 1014 0400     		.2byte	0x4
 21072 1016 F3       		.byte	0xf3
 21073 1017 01       		.uleb128 0x1
 21074 1018 53       		.byte	0x53
 21075 1019 9F       		.byte	0x9f
 21076 101a 9E000000 		.4byte	.LVL106
 21077 101e A1000000 		.4byte	.LVL107-1
 21078 1022 0100     		.2byte	0x1
 21079 1024 53       		.byte	0x53
 21080 1025 A1000000 		.4byte	.LVL107-1
 21081 1029 54010000 		.4byte	.LFE261
 21082 102d 0400     		.2byte	0x4
 21083 102f F3       		.byte	0xf3
 21084 1030 01       		.uleb128 0x1
 21085 1031 53       		.byte	0x53
 21086 1032 9F       		.byte	0x9f
 21087 1033 00000000 		.4byte	0
 21088 1037 00000000 		.4byte	0
 21089              	.LLST35:
 21090 103b 22000000 		.4byte	.LVL91
 21091 103f 26000000 		.4byte	.LVL92
 21092 1043 0100     		.2byte	0x1
 21093 1045 51       		.byte	0x51
 21094 1046 28000000 		.4byte	.LVL93
 21095 104a 5C000000 		.4byte	.LVL96
ARM GAS  /tmp/ccjQGkoy.s 			page 372


 21096 104e 0100     		.2byte	0x1
 21097 1050 54       		.byte	0x54
 21098 1051 CE000000 		.4byte	.LVL113
 21099 1055 E2000000 		.4byte	.LVL114
 21100 1059 0100     		.2byte	0x1
 21101 105b 51       		.byte	0x51
 21102 105c 36010000 		.4byte	.LVL121
 21103 1060 54010000 		.4byte	.LFE261
 21104 1064 0100     		.2byte	0x1
 21105 1066 54       		.byte	0x54
 21106 1067 00000000 		.4byte	0
 21107 106b 00000000 		.4byte	0
 21108              	.LLST36:
 21109 106f 5C000000 		.4byte	.LVL96
 21110 1073 60000000 		.4byte	.LVL97
 21111 1077 0200     		.2byte	0x2
 21112 1079 30       		.byte	0x30
 21113 107a 9F       		.byte	0x9f
 21114 107b 60000000 		.4byte	.LVL97
 21115 107f 68000000 		.4byte	.LVL98
 21116 1083 0200     		.2byte	0x2
 21117 1085 31       		.byte	0x31
 21118 1086 9F       		.byte	0x9f
 21119 1087 68000000 		.4byte	.LVL98
 21120 108b 70000000 		.4byte	.LVL99
 21121 108f 0200     		.2byte	0x2
 21122 1091 32       		.byte	0x32
 21123 1092 9F       		.byte	0x9f
 21124 1093 70000000 		.4byte	.LVL99
 21125 1097 7C000000 		.4byte	.LVL100
 21126 109b 0200     		.2byte	0x2
 21127 109d 33       		.byte	0x33
 21128 109e 9F       		.byte	0x9f
 21129 109f 7C000000 		.4byte	.LVL100
 21130 10a3 84000000 		.4byte	.LVL102
 21131 10a7 0200     		.2byte	0x2
 21132 10a9 34       		.byte	0x34
 21133 10aa 9F       		.byte	0x9f
 21134 10ab 84000000 		.4byte	.LVL102
 21135 10af 94000000 		.4byte	.LVL104
 21136 10b3 0200     		.2byte	0x2
 21137 10b5 35       		.byte	0x35
 21138 10b6 9F       		.byte	0x9f
 21139 10b7 94000000 		.4byte	.LVL104
 21140 10bb 9E000000 		.4byte	.LVL106
 21141 10bf 0200     		.2byte	0x2
 21142 10c1 37       		.byte	0x37
 21143 10c2 9F       		.byte	0x9f
 21144 10c3 00000000 		.4byte	0
 21145 10c7 00000000 		.4byte	0
 21146              	.LLST37:
 21147 10cb 84000000 		.4byte	.LVL102
 21148 10cf 8C000000 		.4byte	.LVL103
 21149 10d3 0100     		.2byte	0x1
 21150 10d5 50       		.byte	0x50
 21151 10d6 00000000 		.4byte	0
 21152 10da 00000000 		.4byte	0
ARM GAS  /tmp/ccjQGkoy.s 			page 373


 21153              	.LLST38:
 21154 10de 22000000 		.4byte	.LVL91
 21155 10e2 26000000 		.4byte	.LVL92
 21156 10e6 0100     		.2byte	0x1
 21157 10e8 51       		.byte	0x51
 21158 10e9 56000000 		.4byte	.LVL95
 21159 10ed 5C000000 		.4byte	.LVL96
 21160 10f1 0100     		.2byte	0x1
 21161 10f3 54       		.byte	0x54
 21162 10f4 CE000000 		.4byte	.LVL113
 21163 10f8 E2000000 		.4byte	.LVL114
 21164 10fc 0100     		.2byte	0x1
 21165 10fe 51       		.byte	0x51
 21166 10ff 00000000 		.4byte	0
 21167 1103 00000000 		.4byte	0
 21168              	.LLST39:
 21169 1107 28000000 		.4byte	.LVL93
 21170 110b 4E000000 		.4byte	.LVL94
 21171 110f 0200     		.2byte	0x2
 21172 1111 37       		.byte	0x37
 21173 1112 9F       		.byte	0x9f
 21174 1113 36010000 		.4byte	.LVL121
 21175 1117 54010000 		.4byte	.LFE261
 21176 111b 0A00     		.2byte	0xa
 21177 111d 91       		.byte	0x91
 21178 111e 48       		.sleb128 -56
 21179 111f 94       		.byte	0x94
 21180 1120 01       		.byte	0x1
 21181 1121 79       		.byte	0x79
 21182 1122 00       		.sleb128 0
 21183 1123 1C       		.byte	0x1c
 21184 1124 23       		.byte	0x23
 21185 1125 07       		.uleb128 0x7
 21186 1126 9F       		.byte	0x9f
 21187 1127 00000000 		.4byte	0
 21188 112b 00000000 		.4byte	0
 21189              	.LLST40:
 21190 112f E2000000 		.4byte	.LVL114
 21191 1133 F8000000 		.4byte	.LVL115
 21192 1137 0300     		.2byte	0x3
 21193 1139 74       		.byte	0x74
 21194 113a 7A       		.sleb128 -6
 21195 113b 9F       		.byte	0x9f
 21196 113c F8000000 		.4byte	.LVL115
 21197 1140 04010000 		.4byte	.LVL117
 21198 1144 0100     		.2byte	0x1
 21199 1146 54       		.byte	0x54
 21200 1147 04010000 		.4byte	.LVL117
 21201 114b 2E010000 		.4byte	.LVL120
 21202 114f 0300     		.2byte	0x3
 21203 1151 74       		.byte	0x74
 21204 1152 7A       		.sleb128 -6
 21205 1153 9F       		.byte	0x9f
 21206 1154 2E010000 		.4byte	.LVL120
 21207 1158 36010000 		.4byte	.LVL121
 21208 115c 0100     		.2byte	0x1
 21209 115e 54       		.byte	0x54
ARM GAS  /tmp/ccjQGkoy.s 			page 374


 21210 115f 00000000 		.4byte	0
 21211 1163 00000000 		.4byte	0
 21212              	.LLST41:
 21213 1167 FC000000 		.4byte	.LVL116
 21214 116b 06010000 		.4byte	.LVL118
 21215 116f 0200     		.2byte	0x2
 21216 1171 36       		.byte	0x36
 21217 1172 9F       		.byte	0x9f
 21218 1173 00000000 		.4byte	0
 21219 1177 00000000 		.4byte	0
 21220              	.LLST42:
 21221 117b 9E000000 		.4byte	.LVL106
 21222 117f A2000000 		.4byte	.LVL107
 21223 1183 0200     		.2byte	0x2
 21224 1185 30       		.byte	0x30
 21225 1186 9F       		.byte	0x9f
 21226 1187 A2000000 		.4byte	.LVL107
 21227 118b A8000000 		.4byte	.LVL108
 21228 118f 0200     		.2byte	0x2
 21229 1191 31       		.byte	0x31
 21230 1192 9F       		.byte	0x9f
 21231 1193 A8000000 		.4byte	.LVL108
 21232 1197 BA000000 		.4byte	.LVL109
 21233 119b 0200     		.2byte	0x2
 21234 119d 32       		.byte	0x32
 21235 119e 9F       		.byte	0x9f
 21236 119f BA000000 		.4byte	.LVL109
 21237 11a3 BC000000 		.4byte	.LVL110
 21238 11a7 0300     		.2byte	0x3
 21239 11a9 75       		.byte	0x75
 21240 11aa 02       		.sleb128 2
 21241 11ab 9F       		.byte	0x9f
 21242 11ac BC000000 		.4byte	.LVL110
 21243 11b0 BE000000 		.4byte	.LVL111
 21244 11b4 0100     		.2byte	0x1
 21245 11b6 52       		.byte	0x52
 21246 11b7 BE000000 		.4byte	.LVL111
 21247 11bb CE000000 		.4byte	.LVL113
 21248 11bf 0300     		.2byte	0x3
 21249 11c1 75       		.byte	0x75
 21250 11c2 02       		.sleb128 2
 21251 11c3 9F       		.byte	0x9f
 21252 11c4 00000000 		.4byte	0
 21253 11c8 00000000 		.4byte	0
 21254              		.section	.debug_aranges,"",%progbits
 21255 0000 34010000 		.4byte	0x134
 21256 0004 0200     		.2byte	0x2
 21257 0006 00000000 		.4byte	.Ldebug_info0
 21258 000a 04       		.byte	0x4
 21259 000b 00       		.byte	0
 21260 000c 0000     		.2byte	0
 21261 000e 0000     		.2byte	0
 21262 0010 00000000 		.4byte	.LFB288
 21263 0014 E8000000 		.4byte	.LFE288-.LFB288
 21264 0018 00000000 		.4byte	.LFB256
 21265 001c DC000000 		.4byte	.LFE256-.LFB256
 21266 0020 00000000 		.4byte	.LFB257
ARM GAS  /tmp/ccjQGkoy.s 			page 375


 21267 0024 54000000 		.4byte	.LFE257-.LFB257
 21268 0028 00000000 		.4byte	.LFB258
 21269 002c 54000000 		.4byte	.LFE258-.LFB258
 21270 0030 00000000 		.4byte	.LFB290
 21271 0034 EC010000 		.4byte	.LFE290-.LFB290
 21272 0038 00000000 		.4byte	.LFB259
 21273 003c 54000000 		.4byte	.LFE259-.LFB259
 21274 0040 00000000 		.4byte	.LFB260
 21275 0044 0C000000 		.4byte	.LFE260-.LFB260
 21276 0048 00000000 		.4byte	.LFB261
 21277 004c 54010000 		.4byte	.LFE261-.LFB261
 21278 0050 00000000 		.4byte	.LFB291
 21279 0054 18000000 		.4byte	.LFE291-.LFB291
 21280 0058 00000000 		.4byte	.LFB262
 21281 005c 38000000 		.4byte	.LFE262-.LFB262
 21282 0060 00000000 		.4byte	.LFB263
 21283 0064 3C000000 		.4byte	.LFE263-.LFB263
 21284 0068 00000000 		.4byte	.LFB264
 21285 006c 3C000000 		.4byte	.LFE264-.LFB264
 21286 0070 00000000 		.4byte	.LFB265
 21287 0074 2E000000 		.4byte	.LFE265-.LFB265
 21288 0078 00000000 		.4byte	.LFB266
 21289 007c 3C000000 		.4byte	.LFE266-.LFB266
 21290 0080 00000000 		.4byte	.LFB267
 21291 0084 30000000 		.4byte	.LFE267-.LFB267
 21292 0088 00000000 		.4byte	.LFB268
 21293 008c 30000000 		.4byte	.LFE268-.LFB268
 21294 0090 00000000 		.4byte	.LFB269
 21295 0094 30000000 		.4byte	.LFE269-.LFB269
 21296 0098 00000000 		.4byte	.LFB270
 21297 009c 30000000 		.4byte	.LFE270-.LFB270
 21298 00a0 00000000 		.4byte	.LFB271
 21299 00a4 4C000000 		.4byte	.LFE271-.LFB271
 21300 00a8 00000000 		.4byte	.LFB272
 21301 00ac 58000000 		.4byte	.LFE272-.LFB272
 21302 00b0 00000000 		.4byte	.LFB273
 21303 00b4 58000000 		.4byte	.LFE273-.LFB273
 21304 00b8 00000000 		.4byte	.LFB274
 21305 00bc 58000000 		.4byte	.LFE274-.LFB274
 21306 00c0 00000000 		.4byte	.LFB275
 21307 00c4 58000000 		.4byte	.LFE275-.LFB275
 21308 00c8 00000000 		.4byte	.LFB276
 21309 00cc 1C000000 		.4byte	.LFE276-.LFB276
 21310 00d0 00000000 		.4byte	.LFB277
 21311 00d4 0C000000 		.4byte	.LFE277-.LFB277
 21312 00d8 00000000 		.4byte	.LFB278
 21313 00dc 0C000000 		.4byte	.LFE278-.LFB278
 21314 00e0 00000000 		.4byte	.LFB279
 21315 00e4 18000000 		.4byte	.LFE279-.LFB279
 21316 00e8 00000000 		.4byte	.LFB280
 21317 00ec 34000000 		.4byte	.LFE280-.LFB280
 21318 00f0 00000000 		.4byte	.LFB281
 21319 00f4 14000000 		.4byte	.LFE281-.LFB281
 21320 00f8 00000000 		.4byte	.LFB282
 21321 00fc 28000000 		.4byte	.LFE282-.LFB282
 21322 0100 00000000 		.4byte	.LFB283
 21323 0104 14000000 		.4byte	.LFE283-.LFB283
ARM GAS  /tmp/ccjQGkoy.s 			page 376


 21324 0108 00000000 		.4byte	.LFB284
 21325 010c 28000000 		.4byte	.LFE284-.LFB284
 21326 0110 00000000 		.4byte	.LFB285
 21327 0114 18000000 		.4byte	.LFE285-.LFB285
 21328 0118 00000000 		.4byte	.LFB286
 21329 011c 34000000 		.4byte	.LFE286-.LFB286
 21330 0120 00000000 		.4byte	.LFB287
 21331 0124 4C000000 		.4byte	.LFE287-.LFB287
 21332 0128 00000000 		.4byte	.LFB289
 21333 012c 48070000 		.4byte	.LFE289-.LFB289
 21334 0130 00000000 		.4byte	0
 21335 0134 00000000 		.4byte	0
 21336              		.section	.debug_ranges,"",%progbits
 21337              	.Ldebug_ranges0:
 21338 0000 04000000 		.4byte	.LBB137
 21339 0004 0E000000 		.4byte	.LBE137
 21340 0008 10000000 		.4byte	.LBB145
 21341 000c 12000000 		.4byte	.LBE145
 21342 0010 00000000 		.4byte	0
 21343 0014 00000000 		.4byte	0
 21344 0018 0E000000 		.4byte	.LBB140
 21345 001c 10000000 		.4byte	.LBE140
 21346 0020 14000000 		.4byte	.LBB146
 21347 0024 20000000 		.4byte	.LBE146
 21348 0028 00000000 		.4byte	0
 21349 002c 00000000 		.4byte	0
 21350 0030 20000000 		.4byte	.LBB147
 21351 0034 28000000 		.4byte	.LBE147
 21352 0038 34000000 		.4byte	.LBB151
 21353 003c AE000000 		.4byte	.LBE151
 21354 0040 00000000 		.4byte	0
 21355 0044 00000000 		.4byte	0
 21356 0048 28000000 		.4byte	.LBB148
 21357 004c 2C000000 		.4byte	.LBE148
 21358 0050 AE000000 		.4byte	.LBB152
 21359 0054 B2000000 		.4byte	.LBE152
 21360 0058 00000000 		.4byte	0
 21361 005c 00000000 		.4byte	0
 21362 0060 0E000000 		.4byte	.LBB154
 21363 0064 1E000000 		.4byte	.LBE154
 21364 0068 22000000 		.4byte	.LBB157
 21365 006c 26000000 		.4byte	.LBE157
 21366 0070 00000000 		.4byte	0
 21367 0074 00000000 		.4byte	0
 21368 0078 02000000 		.4byte	.LBB164
 21369 007c 08000000 		.4byte	.LBE164
 21370 0080 18000000 		.4byte	.LBB175
 21371 0084 1A000000 		.4byte	.LBE175
 21372 0088 00000000 		.4byte	0
 21373 008c 00000000 		.4byte	0
 21374 0090 0C000000 		.4byte	.LBB167
 21375 0094 18000000 		.4byte	.LBE167
 21376 0098 1E000000 		.4byte	.LBB176
 21377 009c EC010000 		.4byte	.LBE176
 21378 00a0 00000000 		.4byte	0
 21379 00a4 00000000 		.4byte	0
 21380 00a8 0C000000 		.4byte	.LBB168
ARM GAS  /tmp/ccjQGkoy.s 			page 377


 21381 00ac 10000000 		.4byte	.LBE168
 21382 00b0 08010000 		.4byte	.LBB173
 21383 00b4 50010000 		.4byte	.LBE173
 21384 00b8 00000000 		.4byte	0
 21385 00bc 00000000 		.4byte	0
 21386 00c0 10000000 		.4byte	.LBB169
 21387 00c4 14000000 		.4byte	.LBE169
 21388 00c8 58010000 		.4byte	.LBB174
 21389 00cc EC010000 		.4byte	.LBE174
 21390 00d0 00000000 		.4byte	0
 21391 00d4 00000000 		.4byte	0
 21392 00d8 14000000 		.4byte	.LBB170
 21393 00dc 18000000 		.4byte	.LBE170
 21394 00e0 52000000 		.4byte	.LBB171
 21395 00e4 B2000000 		.4byte	.LBE171
 21396 00e8 00000000 		.4byte	0
 21397 00ec 00000000 		.4byte	0
 21398 00f0 1A000000 		.4byte	.LBB187
 21399 00f4 98000000 		.4byte	.LBE187
 21400 00f8 CE000000 		.4byte	.LBB200
 21401 00fc 54010000 		.4byte	.LBE200
 21402 0100 00000000 		.4byte	0
 21403 0104 00000000 		.4byte	0
 21404 0108 1C000000 		.4byte	.LBB190
 21405 010c 5C000000 		.4byte	.LBE190
 21406 0110 36010000 		.4byte	.LBB196
 21407 0114 54010000 		.4byte	.LBE196
 21408 0118 00000000 		.4byte	0
 21409 011c 00000000 		.4byte	0
 21410 0120 1C000000 		.4byte	.LBB191
 21411 0124 56000000 		.4byte	.LBE191
 21412 0128 36010000 		.4byte	.LBB192
 21413 012c 54010000 		.4byte	.LBE192
 21414 0130 00000000 		.4byte	0
 21415 0134 00000000 		.4byte	0
 21416 0138 CE000000 		.4byte	.LBB194
 21417 013c F8000000 		.4byte	.LBE194
 21418 0140 FC000000 		.4byte	.LBB195
 21419 0144 2E010000 		.4byte	.LBE195
 21420 0148 00000000 		.4byte	0
 21421 014c 00000000 		.4byte	0
 21422 0150 04000000 		.4byte	.LBB203
 21423 0154 18000000 		.4byte	.LBE203
 21424 0158 20000000 		.4byte	.LBB204
 21425 015c 28000000 		.4byte	.LBE204
 21426 0160 00000000 		.4byte	0
 21427 0164 00000000 		.4byte	0
 21428 0168 04000000 		.4byte	.LBB205
 21429 016c 14000000 		.4byte	.LBE205
 21430 0170 1C000000 		.4byte	.LBB206
 21431 0174 1E000000 		.4byte	.LBE206
 21432 0178 00000000 		.4byte	0
 21433 017c 00000000 		.4byte	0
 21434 0180 04000000 		.4byte	.LBB207
 21435 0184 14000000 		.4byte	.LBE207
 21436 0188 1C000000 		.4byte	.LBB208
 21437 018c 1E000000 		.4byte	.LBE208
ARM GAS  /tmp/ccjQGkoy.s 			page 378


 21438 0190 00000000 		.4byte	0
 21439 0194 00000000 		.4byte	0
 21440 0198 04000000 		.4byte	.LBB209
 21441 019c 18000000 		.4byte	.LBE209
 21442 01a0 20000000 		.4byte	.LBB210
 21443 01a4 28000000 		.4byte	.LBE210
 21444 01a8 00000000 		.4byte	0
 21445 01ac 00000000 		.4byte	0
 21446 01b0 04000000 		.4byte	.LBB212
 21447 01b4 0E000000 		.4byte	.LBE212
 21448 01b8 26000000 		.4byte	.LBB215
 21449 01bc 28000000 		.4byte	.LBE215
 21450 01c0 00000000 		.4byte	0
 21451 01c4 00000000 		.4byte	0
 21452 01c8 28000000 		.4byte	.LBB216
 21453 01cc 34000000 		.4byte	.LBE216
 21454 01d0 3A000000 		.4byte	.LBB292
 21455 01d4 48070000 		.4byte	.LBE292
 21456 01d8 00000000 		.4byte	0
 21457 01dc 00000000 		.4byte	0
 21458 01e0 28000000 		.4byte	.LBB217
 21459 01e4 34000000 		.4byte	.LBE217
 21460 01e8 4A000000 		.4byte	.LBB290
 21461 01ec 52000000 		.4byte	.LBE290
 21462 01f0 5A000000 		.4byte	.LBB291
 21463 01f4 48070000 		.4byte	.LBE291
 21464 01f8 00000000 		.4byte	0
 21465 01fc 00000000 		.4byte	0
 21466 0200 28000000 		.4byte	.LBB218
 21467 0204 34000000 		.4byte	.LBE218
 21468 0208 4A000000 		.4byte	.LBB287
 21469 020c 52000000 		.4byte	.LBE287
 21470 0210 70000000 		.4byte	.LBB288
 21471 0214 64020000 		.4byte	.LBE288
 21472 0218 80020000 		.4byte	.LBB289
 21473 021c 48070000 		.4byte	.LBE289
 21474 0220 00000000 		.4byte	0
 21475 0224 00000000 		.4byte	0
 21476 0228 28000000 		.4byte	.LBB219
 21477 022c 2C000000 		.4byte	.LBE219
 21478 0230 BE000000 		.4byte	.LBB271
 21479 0234 5C010000 		.4byte	.LBE271
 21480 0238 00000000 		.4byte	0
 21481 023c 00000000 		.4byte	0
 21482 0240 28000000 		.4byte	.LBB220
 21483 0244 2C000000 		.4byte	.LBE220
 21484 0248 C2000000 		.4byte	.LBB234
 21485 024c C6000000 		.4byte	.LBE234
 21486 0250 CC000000 		.4byte	.LBB235
 21487 0254 5C010000 		.4byte	.LBE235
 21488 0258 00000000 		.4byte	0
 21489 025c 00000000 		.4byte	0
 21490 0260 2C000000 		.4byte	.LBB236
 21491 0264 30000000 		.4byte	.LBE236
 21492 0268 5C010000 		.4byte	.LBB272
 21493 026c BE010000 		.4byte	.LBE272
 21494 0270 00000000 		.4byte	0
ARM GAS  /tmp/ccjQGkoy.s 			page 379


 21495 0274 00000000 		.4byte	0
 21496 0278 2C000000 		.4byte	.LBB237
 21497 027c 30000000 		.4byte	.LBE237
 21498 0280 60010000 		.4byte	.LBB251
 21499 0284 64010000 		.4byte	.LBE251
 21500 0288 6A010000 		.4byte	.LBB252
 21501 028c 6C010000 		.4byte	.LBE252
 21502 0290 6E010000 		.4byte	.LBB253
 21503 0294 BE010000 		.4byte	.LBE253
 21504 0298 00000000 		.4byte	0
 21505 029c 00000000 		.4byte	0
 21506 02a0 30000000 		.4byte	.LBB254
 21507 02a4 34000000 		.4byte	.LBE254
 21508 02a8 E0010000 		.4byte	.LBB277
 21509 02ac 64020000 		.4byte	.LBE277
 21510 02b0 00000000 		.4byte	0
 21511 02b4 00000000 		.4byte	0
 21512 02b8 30000000 		.4byte	.LBB255
 21513 02bc 34000000 		.4byte	.LBE255
 21514 02c0 E4010000 		.4byte	.LBB269
 21515 02c4 E8010000 		.4byte	.LBE269
 21516 02c8 F0010000 		.4byte	.LBB270
 21517 02cc 64020000 		.4byte	.LBE270
 21518 02d0 00000000 		.4byte	0
 21519 02d4 00000000 		.4byte	0
 21520 02d8 C2010000 		.4byte	.LBB274
 21521 02dc C6010000 		.4byte	.LBE274
 21522 02e0 CC010000 		.4byte	.LBB275
 21523 02e4 CE010000 		.4byte	.LBE275
 21524 02e8 D0010000 		.4byte	.LBB276
 21525 02ec E0010000 		.4byte	.LBE276
 21526 02f0 00000000 		.4byte	0
 21527 02f4 00000000 		.4byte	0
 21528 02f8 2C030000 		.4byte	.LBB278
 21529 02fc 90030000 		.4byte	.LBE278
 21530 0300 F0030000 		.4byte	.LBB280
 21531 0304 F8030000 		.4byte	.LBE280
 21532 0308 56040000 		.4byte	.LBB282
 21533 030c 5E040000 		.4byte	.LBE282
 21534 0310 00000000 		.4byte	0
 21535 0314 00000000 		.4byte	0
 21536 0318 7E040000 		.4byte	.LBB283
 21537 031c B8040000 		.4byte	.LBE283
 21538 0320 EA060000 		.4byte	.LBB286
 21539 0324 16070000 		.4byte	.LBE286
 21540 0328 00000000 		.4byte	0
 21541 032c 00000000 		.4byte	0
 21542 0330 00000000 		.4byte	.LFB288
 21543 0334 E8000000 		.4byte	.LFE288
 21544 0338 00000000 		.4byte	.LFB256
 21545 033c DC000000 		.4byte	.LFE256
 21546 0340 00000000 		.4byte	.LFB257
 21547 0344 54000000 		.4byte	.LFE257
 21548 0348 00000000 		.4byte	.LFB258
 21549 034c 54000000 		.4byte	.LFE258
 21550 0350 00000000 		.4byte	.LFB290
 21551 0354 EC010000 		.4byte	.LFE290
ARM GAS  /tmp/ccjQGkoy.s 			page 380


 21552 0358 00000000 		.4byte	.LFB259
 21553 035c 54000000 		.4byte	.LFE259
 21554 0360 00000000 		.4byte	.LFB260
 21555 0364 0C000000 		.4byte	.LFE260
 21556 0368 00000000 		.4byte	.LFB261
 21557 036c 54010000 		.4byte	.LFE261
 21558 0370 00000000 		.4byte	.LFB291
 21559 0374 18000000 		.4byte	.LFE291
 21560 0378 00000000 		.4byte	.LFB262
 21561 037c 38000000 		.4byte	.LFE262
 21562 0380 00000000 		.4byte	.LFB263
 21563 0384 3C000000 		.4byte	.LFE263
 21564 0388 00000000 		.4byte	.LFB264
 21565 038c 3C000000 		.4byte	.LFE264
 21566 0390 00000000 		.4byte	.LFB265
 21567 0394 2E000000 		.4byte	.LFE265
 21568 0398 00000000 		.4byte	.LFB266
 21569 039c 3C000000 		.4byte	.LFE266
 21570 03a0 00000000 		.4byte	.LFB267
 21571 03a4 30000000 		.4byte	.LFE267
 21572 03a8 00000000 		.4byte	.LFB268
 21573 03ac 30000000 		.4byte	.LFE268
 21574 03b0 00000000 		.4byte	.LFB269
 21575 03b4 30000000 		.4byte	.LFE269
 21576 03b8 00000000 		.4byte	.LFB270
 21577 03bc 30000000 		.4byte	.LFE270
 21578 03c0 00000000 		.4byte	.LFB271
 21579 03c4 4C000000 		.4byte	.LFE271
 21580 03c8 00000000 		.4byte	.LFB272
 21581 03cc 58000000 		.4byte	.LFE272
 21582 03d0 00000000 		.4byte	.LFB273
 21583 03d4 58000000 		.4byte	.LFE273
 21584 03d8 00000000 		.4byte	.LFB274
 21585 03dc 58000000 		.4byte	.LFE274
 21586 03e0 00000000 		.4byte	.LFB275
 21587 03e4 58000000 		.4byte	.LFE275
 21588 03e8 00000000 		.4byte	.LFB276
 21589 03ec 1C000000 		.4byte	.LFE276
 21590 03f0 00000000 		.4byte	.LFB277
 21591 03f4 0C000000 		.4byte	.LFE277
 21592 03f8 00000000 		.4byte	.LFB278
 21593 03fc 0C000000 		.4byte	.LFE278
 21594 0400 00000000 		.4byte	.LFB279
 21595 0404 18000000 		.4byte	.LFE279
 21596 0408 00000000 		.4byte	.LFB280
 21597 040c 34000000 		.4byte	.LFE280
 21598 0410 00000000 		.4byte	.LFB281
 21599 0414 14000000 		.4byte	.LFE281
 21600 0418 00000000 		.4byte	.LFB282
 21601 041c 28000000 		.4byte	.LFE282
 21602 0420 00000000 		.4byte	.LFB283
 21603 0424 14000000 		.4byte	.LFE283
 21604 0428 00000000 		.4byte	.LFB284
 21605 042c 28000000 		.4byte	.LFE284
 21606 0430 00000000 		.4byte	.LFB285
 21607 0434 18000000 		.4byte	.LFE285
 21608 0438 00000000 		.4byte	.LFB286
ARM GAS  /tmp/ccjQGkoy.s 			page 381


 21609 043c 34000000 		.4byte	.LFE286
 21610 0440 00000000 		.4byte	.LFB287
 21611 0444 4C000000 		.4byte	.LFE287
 21612 0448 00000000 		.4byte	.LFB289
 21613 044c 48070000 		.4byte	.LFE289
 21614 0450 00000000 		.4byte	0
 21615 0454 00000000 		.4byte	0
 21616              		.section	.debug_line,"",%progbits
 21617              	.Ldebug_line0:
 21618 0000 DF0B0000 		.section	.debug_str,"MS",%progbits,1
 21618      02008105 
 21618      00000201 
 21618      FB0E0D00 
 21618      01010101 
 21619              	.LASF1144:
 21620 0000 636F6D6D 		.ascii	"comm_can_detect_all_foc_res_size\000"
 21620      5F63616E 
 21620      5F646574 
 21620      6563745F 
 21620      616C6C5F 
 21621              	.LASF838:
 21622 0021 5553425F 		.ascii	"USB_STOP\000"
 21622      53544F50 
 21622      00
 21623              	.LASF653:
 21624 002a 77617474 		.ascii	"watt_hours\000"
 21624      5F686F75 
 21624      727300
 21625              	.LASF550:
 21626 0035 4348554B 		.ascii	"CHUK_CTRL_TYPE_CURRENT\000"
 21626      5F435452 
 21626      4C5F5459 
 21626      50455F43 
 21626      55525245 
 21627              	.LASF255:
 21628 004c 706F7274 		.ascii	"port_intctx\000"
 21628      5F696E74 
 21628      63747800 
 21629              	.LASF505:
 21630 0058 6374726C 		.ascii	"ctrl_type\000"
 21630      5F747970 
 21630      6500
 21631              	.LASF373:
 21632 0062 6C5F6D61 		.ascii	"l_max_erpm_fbrake\000"
 21632      785F6572 
 21632      706D5F66 
 21632      6272616B 
 21632      6500
 21633              	.LASF276:
 21634 0074 63685F70 		.ascii	"ch_ptrsize\000"
 21634      74727369 
 21634      7A6500
 21635              	.LASF369:
 21636 007f 6C5F6162 		.ascii	"l_abs_current_max\000"
 21636      735F6375 
 21636      7272656E 
 21636      745F6D61 
ARM GAS  /tmp/ccjQGkoy.s 			page 382


 21636      7800
 21637              	.LASF496:
 21638 0091 50504D5F 		.ascii	"PPM_CTRL_TYPE_NONE\000"
 21638      4354524C 
 21638      5F545950 
 21638      455F4E4F 
 21638      4E4500
 21639              	.LASF1143:
 21640 00a4 636F6D6D 		.ascii	"comm_can_detect_all_foc_res_clear\000"
 21640      5F63616E 
 21640      5F646574 
 21640      6563745F 
 21640      616C6C5F 
 21641              	.LASF1078:
 21642 00c6 5F5F6675 		.ascii	"__func__\000"
 21642      6E635F5F 
 21642      00
 21643              	.LASF148:
 21644 00cf 6D73675F 		.ascii	"msg_t\000"
 21644      7400
 21645              	.LASF684:
 21646 00d5 61667268 		.ascii	"afrh\000"
 21646      00
 21647              	.LASF733:
 21648 00da 4F504D4F 		.ascii	"OPMODE_SMBUS_DEVICE\000"
 21648      44455F53 
 21648      4D425553 
 21648      5F444556 
 21648      49434500 
 21649              	.LASF1022:
 21650 00ee 73746174 		.ascii	"stat_tmp_2\000"
 21650      5F746D70 
 21650      5F3200
 21651              	.LASF1023:
 21652 00f9 73746174 		.ascii	"stat_tmp_3\000"
 21652      5F746D70 
 21652      5F3300
 21653              	.LASF1024:
 21654 0104 73746174 		.ascii	"stat_tmp_4\000"
 21654      5F746D70 
 21654      5F3400
 21655              	.LASF422:
 21656 010f 666F635F 		.ascii	"foc_observer_gain_slow\000"
 21656      6F627365 
 21656      72766572 
 21656      5F676169 
 21656      6E5F736C 
 21657              	.LASF1000:
 21658 0126 63616E63 		.ascii	"cancfg\000"
 21658      666700
 21659              	.LASF571:
 21660 012d 4E52465F 		.ascii	"NRF_RETR_DELAY_750US\000"
 21660      52455452 
 21660      5F44454C 
 21660      41595F37 
 21660      35305553 
 21661              	.LASF897:
ARM GAS  /tmp/ccjQGkoy.s 			page 383


 21662 0142 44494550 		.ascii	"DIEPTXF0\000"
 21662      54584630 
 21662      00
 21663              	.LASF132:
 21664 014b 5F5F6664 		.ascii	"__fdlibm_xopen\000"
 21664      6C69626D 
 21664      5F786F70 
 21664      656E00
 21665              	.LASF700:
 21666 015a 43414E5F 		.ascii	"CAN_STOP\000"
 21666      53544F50 
 21666      00
 21667              	.LASF445:
 21668 0163 6770645F 		.ascii	"gpd_current_ki\000"
 21668      63757272 
 21668      656E745F 
 21668      6B6900
 21669              	.LASF289:
 21670 0172 63665F6F 		.ascii	"cf_off_time\000"
 21670      66665F74 
 21670      696D6500 
 21671              	.LASF202:
 21672 017e 63685F73 		.ascii	"ch_system_t\000"
 21672      79737465 
 21672      6D5F7400 
 21673              	.LASF5:
 21674 018a 5F5F7569 		.ascii	"__uint8_t\000"
 21674      6E74385F 
 21674      7400
 21675              	.LASF262:
 21676 0194 77747365 		.ascii	"wtsemp\000"
 21676      6D7000
 21677              	.LASF507:
 21678 019b 68797374 		.ascii	"hyst\000"
 21678      00
 21679              	.LASF480:
 21680 01a0 5F426F6F 		.ascii	"_Bool\000"
 21680      6C00
 21681              	.LASF630:
 21682 01a6 43414E5F 		.ascii	"CAN_PACKET_SET_CURRENT_HANDBRAKE\000"
 21682      5041434B 
 21682      45545F53 
 21682      45545F43 
 21682      55525245 
 21683              	.LASF751:
 21684 01c7 646D6172 		.ascii	"dmarx\000"
 21684      7800
 21685              	.LASF71:
 21686 01cd 5F6D6273 		.ascii	"_mbstate\000"
 21686      74617465 
 21686      00
 21687              	.LASF50:
 21688 01d6 5F617465 		.ascii	"_atexit\000"
 21688      78697400 
 21689              	.LASF543:
 21690 01de 63635F62 		.ascii	"cc_button_inverted\000"
 21690      7574746F 
ARM GAS  /tmp/ccjQGkoy.s 			page 384


 21690      6E5F696E 
 21690      76657274 
 21690      656400
 21691              	.LASF1127:
 21692 01f1 63684D74 		.ascii	"chMtxUnlock\000"
 21692      78556E6C 
 21692      6F636B00 
 21693              	.LASF595:
 21694 01fd 43414E5F 		.ascii	"CAN_STATUS_DISABLED\000"
 21694      53544154 
 21694      55535F44 
 21694      49534142 
 21694      4C454400 
 21695              	.LASF916:
 21696 0211 72657376 		.ascii	"resvd700\000"
 21696      64373030 
 21696      00
 21697              	.LASF927:
 21698 021a 44564255 		.ascii	"DVBUSDIS\000"
 21698      53444953 
 21698      00
 21699              	.LASF745:
 21700 0223 6572726F 		.ascii	"errors\000"
 21700      727300
 21701              	.LASF813:
 21702 022a 73706963 		.ascii	"spicallback_t\000"
 21702      616C6C62 
 21702      61636B5F 
 21702      7400
 21703              	.LASF198:
 21704 0238 76745F73 		.ascii	"vt_systime\000"
 21704      79737469 
 21704      6D6500
 21705              	.LASF468:
 21706 0243 6D5F6472 		.ascii	"m_drv8301_oc_adj\000"
 21706      76383330 
 21706      315F6F63 
 21706      5F61646A 
 21706      00
 21707              	.LASF836:
 21708 0254 75736265 		.ascii	"usbep_t\000"
 21708      705F7400 
 21709              	.LASF40:
 21710 025c 5F5F746D 		.ascii	"__tm_mon\000"
 21710      5F6D6F6E 
 21710      00
 21711              	.LASF545:
 21712 0265 766F6C74 		.ascii	"voltage_inverted\000"
 21712      6167655F 
 21712      696E7665 
 21712      72746564 
 21712      00
 21713              	.LASF48:
 21714 0276 5F666E74 		.ascii	"_fntypes\000"
 21714      79706573 
 21714      00
 21715              	.LASF271:
ARM GAS  /tmp/ccjQGkoy.s 			page 385


 21716 027f 6D5F6E65 		.ascii	"m_next\000"
 21716      787400
 21717              	.LASF688:
 21718 0286 50434461 		.ascii	"PCData\000"
 21718      746100
 21719              	.LASF1128:
 21720 028d 63684576 		.ascii	"chEvtRegisterMaskWithFlags\000"
 21720      74526567 
 21720      69737465 
 21720      724D6173 
 21720      6B576974 
 21721              	.LASF379:
 21722 02a8 6C5F736C 		.ascii	"l_slow_abs_current\000"
 21722      6F775F61 
 21722      62735F63 
 21722      75727265 
 21722      6E7400
 21723              	.LASF78:
 21724 02bb 5F696E63 		.ascii	"_inc\000"
 21724      00
 21725              	.LASF51:
 21726 02c0 5F696E64 		.ascii	"_ind\000"
 21726      00
 21727              	.LASF801:
 21728 02c5 72656164 		.ascii	"read\000"
 21728      00
 21729              	.LASF710:
 21730 02ca 43414E52 		.ascii	"CANRxFrame\000"
 21730      78467261 
 21730      6D6500
 21731              	.LASF901:
 21732 02d5 47434346 		.ascii	"GCCFG\000"
 21732      4700
 21733              	.LASF368:
 21734 02db 6C5F696E 		.ascii	"l_in_current_min\000"
 21734      5F637572 
 21734      72656E74 
 21734      5F6D696E 
 21734      00
 21735              	.LASF770:
 21736 02ec 42445452 		.ascii	"BDTR\000"
 21736      00
 21737              	.LASF743:
 21738 02f1 49324343 		.ascii	"I2CConfig\000"
 21738      6F6E6669 
 21738      6700
 21739              	.LASF138:
 21740 02fb 75696E74 		.ascii	"uint16_t\000"
 21740      31365F74 
 21740      00
 21741              	.LASF559:
 21742 0304 4E52465F 		.ascii	"NRF_POWER_M18DBM\000"
 21742      504F5745 
 21742      525F4D31 
 21742      3844424D 
 21742      00
 21743              	.LASF752:
ARM GAS  /tmp/ccjQGkoy.s 			page 386


 21744 0315 646D6174 		.ascii	"dmatx\000"
 21744      7800
 21745              	.LASF972:
 21746 031b 736F665F 		.ascii	"sof_cb\000"
 21746      636200
 21747              	.LASF416:
 21748 0322 666F635F 		.ascii	"foc_encoder_cos_gain\000"
 21748      656E636F 
 21748      6465725F 
 21748      636F735F 
 21748      6761696E 
 21749              	.LASF57:
 21750 0337 5F666C61 		.ascii	"_flags\000"
 21750      677300
 21751              	.LASF681:
 21752 033e 6F737065 		.ascii	"ospeedr\000"
 21752      65647200 
 21753              	.LASF904:
 21754 0346 44494550 		.ascii	"DIEPTXF\000"
 21754      54584600 
 21755              	.LASF295:
 21756 034e 656C5F6E 		.ascii	"el_next\000"
 21756      65787400 
 21757              	.LASF457:
 21758 0356 63635F73 		.ascii	"cc_startup_boost_duty\000"
 21758      74617274 
 21758      75705F62 
 21758      6F6F7374 
 21758      5F647574 
 21759              	.LASF88:
 21760 036c 5F637674 		.ascii	"_cvtlen\000"
 21760      6C656E00 
 21761              	.LASF179:
 21762 0374 63685F74 		.ascii	"ch_threads_queue\000"
 21762      68726561 
 21762      64735F71 
 21762      75657565 
 21762      00
 21763              	.LASF131:
 21764 0385 5F5F6664 		.ascii	"__fdlibm_svid\000"
 21764      6C69626D 
 21764      5F737669 
 21764      6400
 21765              	.LASF92:
 21766 0393 5F736967 		.ascii	"_sig_func\000"
 21766      5F66756E 
 21766      6300
 21767              	.LASF370:
 21768 039d 6C5F6D69 		.ascii	"l_min_erpm\000"
 21768      6E5F6572 
 21768      706D00
 21769              	.LASF1050:
 21770 03a8 636F6D6D 		.ascii	"comm_can_set_pos\000"
 21770      5F63616E 
 21770      5F736574 
 21770      5F706F73 
 21770      00
ARM GAS  /tmp/ccjQGkoy.s 			page 387


 21771              	.LASF160:
 21772 03b9 705F6E65 		.ascii	"p_newer\000"
 21772      77657200 
 21773              	.LASF914:
 21774 03c1 48505254 		.ascii	"HPRT\000"
 21774      00
 21775              	.LASF856:
 21776 03c6 5553425F 		.ascii	"USB_EVENT_STALLED\000"
 21776      4556454E 
 21776      545F5354 
 21776      414C4C45 
 21776      4400
 21777              	.LASF356:
 21778 03d8 43414E5F 		.ascii	"CAN_BAUD\000"
 21778      42415544 
 21778      00
 21779              	.LASF994:
 21780 03e1 73746174 		.ascii	"stat_msgs\000"
 21780      5F6D7367 
 21780      7300
 21781              	.LASF868:
 21782 03eb 4843494E 		.ascii	"HCINT\000"
 21782      5400
 21783              	.LASF645:
 21784 03f1 43414E5F 		.ascii	"CAN_PACKET_ID\000"
 21784      5041434B 
 21784      45545F49 
 21784      4400
 21785              	.LASF1080:
 21786 03ff 706F7274 		.ascii	"port_unlock\000"
 21786      5F756E6C 
 21786      6F636B00 
 21787              	.LASF286:
 21788 040b 63665F6F 		.ascii	"cf_off_flags\000"
 21788      66665F66 
 21788      6C616773 
 21788      00
 21789              	.LASF70:
 21790 0418 5F6C6F63 		.ascii	"_lock\000"
 21790      6B00
 21791              	.LASF66:
 21792 041e 5F6E6275 		.ascii	"_nbuf\000"
 21792      6600
 21793              	.LASF1130:
 21794 0424 62756666 		.ascii	"buffer_append_float32\000"
 21794      65725F61 
 21794      7070656E 
 21794      645F666C 
 21794      6F617433 
 21795              	.LASF807:
 21796 043a 5350495F 		.ascii	"SPI_STOP\000"
 21796      53544F50 
 21796      00
 21797              	.LASF124:
 21798 0443 5F756E75 		.ascii	"_unused\000"
 21798      73656400 
 21799              	.LASF528:
ARM GAS  /tmp/ccjQGkoy.s 			page 388


 21800 044b 4144435F 		.ascii	"ADC_CTRL_TYPE_CURRENT_NOREV_BRAKE_BUTTON\000"
 21800      4354524C 
 21800      5F545950 
 21800      455F4355 
 21800      5252454E 
 21801              	.LASF475:
 21802 0474 73695F67 		.ascii	"si_gear_ratio\000"
 21802      6561725F 
 21802      72617469 
 21802      6F00
 21803              	.LASF570:
 21804 0482 4E52465F 		.ascii	"NRF_RETR_DELAY_500US\000"
 21804      52455452 
 21804      5F44454C 
 21804      41595F35 
 21804      30305553 
 21805              	.LASF562:
 21806 0497 4E52465F 		.ascii	"NRF_POWER_0DBM\000"
 21806      504F5745 
 21806      525F3044 
 21806      424D00
 21807              	.LASF274:
 21808 04a6 63685F73 		.ascii	"ch_size\000"
 21808      697A6500 
 21809              	.LASF910:
 21810 04ae 48505458 		.ascii	"HPTXSTS\000"
 21810      53545300 
 21811              	.LASF680:
 21812 04b6 6F747970 		.ascii	"otyper\000"
 21812      657200
 21813              	.LASF872:
 21814 04bd 72657376 		.ascii	"resvd18\000"
 21814      64313800 
 21815              	.LASF1047:
 21816 04c5 636F6D6D 		.ascii	"comm_can_set_handbrake\000"
 21816      5F63616E 
 21816      5F736574 
 21816      5F68616E 
 21816      64627261 
 21817              	.LASF381:
 21818 04dc 6C5F7465 		.ascii	"l_temp_fet_end\000"
 21818      6D705F66 
 21818      65745F65 
 21818      6E6400
 21819              	.LASF671:
 21820 04eb 4F545950 		.ascii	"OTYPER\000"
 21820      455200
 21821              	.LASF811:
 21822 04f2 73706973 		.ascii	"spistate_t\000"
 21822      74617465 
 21822      5F7400
 21823              	.LASF866:
 21824 04fd 48434348 		.ascii	"HCCHAR\000"
 21824      415200
 21825              	.LASF479:
 21826 0504 73695F62 		.ascii	"si_battery_ah\000"
 21826      61747465 
ARM GAS  /tmp/ccjQGkoy.s 			page 389


 21826      72795F61 
 21826      6800
 21827              	.LASF709:
 21828 0512 54494D45 		.ascii	"TIME\000"
 21828      00
 21829              	.LASF727:
 21830 0517 4932435F 		.ascii	"I2C_ACTIVE_RX\000"
 21830      41435449 
 21830      56455F52 
 21830      5800
 21831              	.LASF154:
 21832 0525 74687265 		.ascii	"thread_t\000"
 21832      61645F74 
 21832      00
 21833              	.LASF297:
 21834 052e 656C5F65 		.ascii	"el_events\000"
 21834      76656E74 
 21834      7300
 21835              	.LASF1054:
 21836 0538 636F6D6D 		.ascii	"comm_can_set_duty\000"
 21836      5F63616E 
 21836      5F736574 
 21836      5F647574 
 21836      7900
 21837              	.LASF719:
 21838 054a 736C6565 		.ascii	"sleep_event\000"
 21838      705F6576 
 21838      656E7400 
 21839              	.LASF621:
 21840 0556 43414E5F 		.ascii	"CAN_PACKET_SET_RPM\000"
 21840      5041434B 
 21840      45545F53 
 21840      45545F52 
 21840      504D00
 21841              	.LASF197:
 21842 0569 63685F76 		.ascii	"ch_virtual_timers_list\000"
 21842      69727475 
 21842      616C5F74 
 21842      696D6572 
 21842      735F6C69 
 21843              	.LASF666:
 21844 0580 76656374 		.ascii	"vector\000"
 21844      6F7200
 21845              	.LASF892:
 21846 0587 47494E54 		.ascii	"GINTSTS\000"
 21846      53545300 
 21847              	.LASF139:
 21848 058f 696E7433 		.ascii	"int32_t\000"
 21848      325F7400 
 21849              	.LASF708:
 21850 0597 43414E54 		.ascii	"CANTxFrame\000"
 21850      78467261 
 21850      6D6500
 21851              	.LASF741:
 21852 05a2 636C6F63 		.ascii	"clock_speed\000"
 21852      6B5F7370 
 21852      65656400 
ARM GAS  /tmp/ccjQGkoy.s 			page 390


 21853              	.LASF153:
 21854 05ae 73797374 		.ascii	"systime_t\000"
 21854      696D655F 
 21854      7400
 21855              	.LASF721:
 21856 05b8 43414E44 		.ascii	"CANDriver\000"
 21856      72697665 
 21856      7200
 21857              	.LASF102:
 21858 05c2 5F616464 		.ascii	"_add\000"
 21858      00
 21859              	.LASF1009:
 21860 05c7 63616E63 		.ascii	"cancom_process_thread\000"
 21860      6F6D5F70 
 21860      726F6365 
 21860      73735F74 
 21860      68726561 
 21861              	.LASF236:
 21862 05dd 4D304152 		.ascii	"M0AR\000"
 21862      00
 21863              	.LASF347:
 21864 05e2 44525638 		.ascii	"DRV8301_OC_LIMIT\000"
 21864      3330315F 
 21864      4F435F4C 
 21864      494D4954 
 21864      00
 21865              	.LASF731:
 21866 05f3 69326366 		.ascii	"i2cflags_t\000"
 21866      6C616773 
 21866      5F7400
 21867              	.LASF911:
 21868 05fe 4841494E 		.ascii	"HAINT\000"
 21868      5400
 21869              	.LASF1013:
 21870 0604 6372635F 		.ascii	"crc_high\000"
 21870      68696768 
 21870      00
 21871              	.LASF585:
 21872 060d 4E52465F 		.ascii	"NRF_RETR_DELAY\000"
 21872      52455452 
 21872      5F44454C 
 21872      415900
 21873              	.LASF1004:
 21874 061c 63616E63 		.ascii	"cancom_status_thread\000"
 21874      6F6D5F73 
 21874      74617475 
 21874      735F7468 
 21874      72656164 
 21875              	.LASF637:
 21876 0631 43414E5F 		.ascii	"CAN_PACKET_DETECT_APPLY_ALL_FOC\000"
 21876      5041434B 
 21876      45545F44 
 21876      45544543 
 21876      545F4150 
 21877              	.LASF231:
 21878 0651 46413152 		.ascii	"FA1R\000"
 21878      00
ARM GAS  /tmp/ccjQGkoy.s 			page 391


 21879              	.LASF318:
 21880 0656 50574D5F 		.ascii	"PWM_MODE_BIPOLAR\000"
 21880      4D4F4445 
 21880      5F424950 
 21880      4F4C4152 
 21880      00
 21881              	.LASF319:
 21882 0667 6D635F70 		.ascii	"mc_pwm_mode\000"
 21882      776D5F6D 
 21882      6F646500 
 21883              	.LASF1015:
 21884 0673 72786D73 		.ascii	"rxmsg_tmp\000"
 21884      675F746D 
 21884      7000
 21885              	.LASF908:
 21886 067d 48464E55 		.ascii	"HFNUM\000"
 21886      4D00
 21887              	.LASF313:
 21888 0683 716E6F74 		.ascii	"qnotify_t\000"
 21888      6966795F 
 21888      7400
 21889              	.LASF352:
 21890 068d 43414E5F 		.ascii	"CAN_BAUD_125K\000"
 21890      42415544 
 21890      5F313235 
 21890      4B00
 21891              	.LASF1102:
 21892 069b 636F6E66 		.ascii	"conf_general_detect_apply_all_foc\000"
 21892      5F67656E 
 21892      6572616C 
 21892      5F646574 
 21892      6563745F 
 21893              	.LASF993:
 21894 06bd 70696E67 		.ascii	"ping_tp\000"
 21894      5F747000 
 21895              	.LASF614:
 21896 06c5 6170705F 		.ascii	"app_uart_baudrate\000"
 21896      75617274 
 21896      5F626175 
 21896      64726174 
 21896      6500
 21897              	.LASF664:
 21898 06d7 69736869 		.ascii	"ishift\000"
 21898      667400
 21899              	.LASF930:
 21900 06de 44494550 		.ascii	"DIEPEMPMSK\000"
 21900      454D504D 
 21900      534B00
 21901              	.LASF308:
 21902 06e9 715F746F 		.ascii	"q_top\000"
 21902      7000
 21903              	.LASF59:
 21904 06ef 5F6C6266 		.ascii	"_lbfsize\000"
 21904      73697A65 
 21904      00
 21905              	.LASF859:
 21906 06f8 75645F73 		.ascii	"ud_string\000"
ARM GAS  /tmp/ccjQGkoy.s 			page 392


 21906      7472696E 
 21906      6700
 21907              	.LASF744:
 21908 0702 49324344 		.ascii	"I2CDriver\000"
 21908      72697665 
 21908      7200
 21909              	.LASF726:
 21910 070c 4932435F 		.ascii	"I2C_ACTIVE_TX\000"
 21910      41435449 
 21910      56455F54 
 21910      5800
 21911              	.LASF1045:
 21912 071a 636F6D6D 		.ascii	"comm_can_set_handbrake_rel\000"
 21912      5F63616E 
 21912      5F736574 
 21912      5F68616E 
 21912      64627261 
 21913              	.LASF732:
 21914 0735 4F504D4F 		.ascii	"OPMODE_I2C\000"
 21914      44455F49 
 21914      324300
 21915              	.LASF331:
 21916 0740 4F55545F 		.ascii	"OUT_AUX_MODE_OFF\000"
 21916      4155585F 
 21916      4D4F4445 
 21916      5F4F4646 
 21916      00
 21917              	.LASF920:
 21918 0751 72657376 		.ascii	"resvd80C\000"
 21918      64383043 
 21918      00
 21919              	.LASF969:
 21920 075a 6576656E 		.ascii	"event_cb\000"
 21920      745F6362 
 21920      00
 21921              	.LASF1046:
 21922 0763 63757272 		.ascii	"current_rel\000"
 21922      656E745F 
 21922      72656C00 
 21923              	.LASF887:
 21924 076f 474F5447 		.ascii	"GOTGCTL\000"
 21924      43544C00 
 21925              	.LASF825:
 21926 0777 6570306E 		.ascii	"ep0next\000"
 21926      65787400 
 21927              	.LASF862:
 21928 077f 75736265 		.ascii	"usbepcallback_t\000"
 21928      7063616C 
 21928      6C626163 
 21928      6B5F7400 
 21929              	.LASF69:
 21930 078f 5F646174 		.ascii	"_data\000"
 21930      6100
 21931              	.LASF205:
 21932 0795 76746C69 		.ascii	"vtlist\000"
 21932      737400
 21933              	.LASF702:
ARM GAS  /tmp/ccjQGkoy.s 			page 393


 21934 079c 43414E5F 		.ascii	"CAN_READY\000"
 21934      52454144 
 21934      5900
 21935              	.LASF756:
 21936 07a6 4943555F 		.ascii	"ICU_READY\000"
 21936      52454144 
 21936      5900
 21937              	.LASF491:
 21938 07b0 6170705F 		.ascii	"app_use\000"
 21938      75736500 
 21939              	.LASF241:
 21940 07b8 54524953 		.ascii	"TRISE\000"
 21940      4500
 21941              	.LASF926:
 21942 07be 72657376 		.ascii	"resvd824\000"
 21942      64383234 
 21942      00
 21943              	.LASF168:
 21944 07c7 705F7761 		.ascii	"p_waiting\000"
 21944      6974696E 
 21944      6700
 21945              	.LASF1030:
 21946 07d1 696E6465 		.ascii	"index\000"
 21946      7800
 21947              	.LASF763:
 21948 07d7 70636372 		.ascii	"pccrp\000"
 21948      7000
 21949              	.LASF305:
 21950 07dd 715F7761 		.ascii	"q_waiting\000"
 21950      6974696E 
 21950      6700
 21951              	.LASF213:
 21952 07e7 43414E5F 		.ascii	"CAN_TxMailBox_TypeDef\000"
 21952      54784D61 
 21952      696C426F 
 21952      785F5479 
 21952      70654465 
 21953              	.LASF204:
 21954 07fd 726C6973 		.ascii	"rlist\000"
 21954      7400
 21955              	.LASF176:
 21956 0803 74687265 		.ascii	"threads_list_t\000"
 21956      6164735F 
 21956      6C697374 
 21956      5F7400
 21957              	.LASF257:
 21958 0812 746D5F63 		.ascii	"tm_calibration_t\000"
 21958      616C6962 
 21958      72617469 
 21958      6F6E5F74 
 21958      00
 21959              	.LASF314:
 21960 0823 696E7075 		.ascii	"input_queue_t\000"
 21960      745F7175 
 21960      6575655F 
 21960      7400
 21961              	.LASF125:
ARM GAS  /tmp/ccjQGkoy.s 			page 394


 21962 0831 5F5F6C6F 		.ascii	"__lock\000"
 21962      636B00
 21963              	.LASF398:
 21964 0838 736C5F6D 		.ascii	"sl_min_erpm_cycle_int_limit\000"
 21964      696E5F65 
 21964      72706D5F 
 21964      6379636C 
 21964      655F696E 
 21965              	.LASF73:
 21966 0854 5F726565 		.ascii	"_reent\000"
 21966      6E7400
 21967              	.LASF282:
 21968 085b 63665F6F 		.ascii	"cf_off_older\000"
 21968      66665F6F 
 21968      6C646572 
 21968      00
 21969              	.LASF407:
 21970 0868 666F635F 		.ascii	"foc_current_ki\000"
 21970      63757272 
 21970      656E745F 
 21970      6B6900
 21971              	.LASF616:
 21972 0877 6170705F 		.ascii	"app_nrf_conf\000"
 21972      6E72665F 
 21972      636F6E66 
 21972      00
 21973              	.LASF519:
 21974 0884 74635F6D 		.ascii	"tc_max_diff\000"
 21974      61785F64 
 21974      69666600 
 21975              	.LASF954:
 21976 0890 72787175 		.ascii	"rxqueued\000"
 21976      65756564 
 21976      00
 21977              	.LASF406:
 21978 0899 666F635F 		.ascii	"foc_current_kp\000"
 21978      63757272 
 21978      656E745F 
 21978      6B7000
 21979              	.LASF781:
 21980 08a8 69637563 		.ascii	"icuchannel_t\000"
 21980      68616E6E 
 21980      656C5F74 
 21980      00
 21981              	.LASF979:
 21982 08b5 54485245 		.ascii	"THREAD_TIMER\000"
 21982      41445F54 
 21982      494D4552 
 21982      00
 21983              	.LASF704:
 21984 08c2 63616E73 		.ascii	"canstate_t\000"
 21984      74617465 
 21984      5F7400
 21985              	.LASF233:
 21986 08cd 7346696C 		.ascii	"sFilterRegister\000"
 21986      74657252 
 21986      65676973 
ARM GAS  /tmp/ccjQGkoy.s 			page 395


 21986      74657200 
 21987              	.LASF94:
 21988 08dd 5F5F7366 		.ascii	"__sf\000"
 21988      00
 21989              	.LASF925:
 21990 08e2 72657376 		.ascii	"resvd820\000"
 21990      64383230 
 21990      00
 21991              	.LASF54:
 21992 08eb 5F626173 		.ascii	"_base\000"
 21992      6500
 21993              	.LASF1147:
 21994 08f1 6D656D63 		.ascii	"memcpy\000"
 21994      707900
 21995              	.LASF1079:
 21996 08f8 63685379 		.ascii	"chSysLock\000"
 21996      734C6F63 
 21996      6B00
 21997              	.LASF740:
 21998 0902 6F705F6D 		.ascii	"op_mode\000"
 21998      6F646500 
 21999              	.LASF111:
 22000 090a 5F6D6274 		.ascii	"_mbtowc_state\000"
 22000      6F77635F 
 22000      73746174 
 22000      6500
 22001              	.LASF441:
 22002 0918 6770645F 		.ascii	"gpd_buffer_notify_left\000"
 22002      62756666 
 22002      65725F6E 
 22002      6F746966 
 22002      795F6C65 
 22003              	.LASF472:
 22004 092f 6D5F6E74 		.ascii	"m_ntc_motor_beta\000"
 22004      635F6D6F 
 22004      746F725F 
 22004      62657461 
 22004      00
 22005              	.LASF723:
 22006 0940 4932435F 		.ascii	"I2C_UNINIT\000"
 22006      554E494E 
 22006      495400
 22007              	.LASF815:
 22008 094b 7373706F 		.ascii	"ssport\000"
 22008      727400
 22009              	.LASF790:
 22010 0952 53445F55 		.ascii	"SD_UNINIT\000"
 22010      4E494E49 
 22010      5400
 22011              	.LASF651:
 22012 095c 616D705F 		.ascii	"amp_hours_charged\000"
 22012      686F7572 
 22012      735F6368 
 22012      61726765 
 22012      6400
 22013              	.LASF515:
 22014 096e 7468726F 		.ascii	"throttle_exp_mode\000"
ARM GAS  /tmp/ccjQGkoy.s 			page 396


 22014      74746C65 
 22014      5F657870 
 22014      5F6D6F64 
 22014      6500
 22015              	.LASF147:
 22016 0980 74707269 		.ascii	"tprio_t\000"
 22016      6F5F7400 
 22017              	.LASF1018:
 22018 0988 6D61785F 		.ascii	"max_power_loss\000"
 22018      706F7765 
 22018      725F6C6F 
 22018      737300
 22019              	.LASF334:
 22020 0997 4F55545F 		.ascii	"OUT_AUX_MODE_ON_AFTER_10S\000"
 22020      4155585F 
 22020      4D4F4445 
 22020      5F4F4E5F 
 22020      41465445 
 22021              	.LASF929:
 22022 09b1 72657376 		.ascii	"resvd830\000"
 22022      64383330 
 22022      00
 22023              	.LASF35:
 22024 09ba 5F5F746D 		.ascii	"__tm\000"
 22024      00
 22025              	.LASF608:
 22026 09bf 7065726D 		.ascii	"permanent_uart_enabled\000"
 22026      616E656E 
 22026      745F7561 
 22026      72745F65 
 22026      6E61626C 
 22027              	.LASF649:
 22028 09d6 63616E5F 		.ascii	"can_status_msg\000"
 22028      73746174 
 22028      75735F6D 
 22028      736700
 22029              	.LASF568:
 22030 09e5 4E52465F 		.ascii	"NRF_CRC\000"
 22030      43524300 
 22031              	.LASF931:
 22032 09ed 72657376 		.ascii	"resvd838\000"
 22032      64383338 
 22032      00
 22033              	.LASF1006:
 22034 09f6 736C6565 		.ascii	"sleep_time\000"
 22034      705F7469 
 22034      6D6500
 22035              	.LASF739:
 22036 0a01 69326364 		.ascii	"i2cdutycycle_t\000"
 22036      75747963 
 22036      79636C65 
 22036      5F7400
 22037              	.LASF598:
 22038 0a10 43414E5F 		.ascii	"CAN_STATUS_1_2_3\000"
 22038      53544154 
 22038      55535F31 
 22038      5F325F33 
ARM GAS  /tmp/ccjQGkoy.s 			page 397


 22038      00
 22039              	.LASF1084:
 22040 0a21 6D635F69 		.ascii	"mc_interface_get_rpm\000"
 22040      6E746572 
 22040      66616365 
 22040      5F676574 
 22040      5F72706D 
 22041              	.LASF932:
 22042 0a36 72657376 		.ascii	"resvd83C\000"
 22042      64383343 
 22042      00
 22043              	.LASF747:
 22044 0a3f 74687265 		.ascii	"thread\000"
 22044      616400
 22045              	.LASF928:
 22046 0a46 44564255 		.ascii	"DVBUSPULSE\000"
 22046      5350554C 
 22046      534500
 22047              	.LASF828:
 22048 0a51 73657475 		.ascii	"setup\000"
 22048      7000
 22049              	.LASF806:
 22050 0a57 5350495F 		.ascii	"SPI_UNINIT\000"
 22050      554E494E 
 22050      495400
 22051              	.LASF1095:
 22052 0a62 6D635F69 		.ascii	"mc_interface_get_tot_current_in_filtered\000"
 22052      6E746572 
 22052      66616365 
 22052      5F676574 
 22052      5F746F74 
 22053              	.LASF880:
 22054 0a8b 44545846 		.ascii	"DTXFSTS\000"
 22054      53545300 
 22055              	.LASF540:
 22056 0a93 766F6C74 		.ascii	"voltage2_start\000"
 22056      61676532 
 22056      5F737461 
 22056      727400
 22057              	.LASF725:
 22058 0aa2 4932435F 		.ascii	"I2C_READY\000"
 22058      52454144 
 22058      5900
 22059              	.LASF43:
 22060 0aac 5F5F746D 		.ascii	"__tm_yday\000"
 22060      5F796461 
 22060      7900
 22061              	.LASF822:
 22062 0ab6 696E5F70 		.ascii	"in_params\000"
 22062      6172616D 
 22062      7300
 22063              	.LASF769:
 22064 0ac0 43434552 		.ascii	"CCER\000"
 22064      00
 22065              	.LASF1129:
 22066 0ac5 63684576 		.ascii	"chEvtUnregister\000"
 22066      74556E72 
ARM GAS  /tmp/ccjQGkoy.s 			page 398


 22066      65676973 
 22066      74657200 
 22067              	.LASF248:
 22068 0ad5 49325350 		.ascii	"I2SPR\000"
 22068      5200
 22069              	.LASF328:
 22070 0adb 464F435F 		.ascii	"FOC_SENSOR_MODE_ENCODER\000"
 22070      53454E53 
 22070      4F525F4D 
 22070      4F44455F 
 22070      454E434F 
 22071              	.LASF520:
 22072 0af3 70706D5F 		.ascii	"ppm_config\000"
 22072      636F6E66 
 22072      696700
 22073              	.LASF889:
 22074 0afe 47414842 		.ascii	"GAHBCFG\000"
 22074      43464700 
 22075              	.LASF503:
 22076 0b06 50504D5F 		.ascii	"PPM_CTRL_TYPE_PID_NOREV\000"
 22076      4354524C 
 22076      5F545950 
 22076      455F5049 
 22076      445F4E4F 
 22077              	.LASF18:
 22078 0b1e 5F4C4F43 		.ascii	"_LOCK_T\000"
 22078      4B5F5400 
 22079              	.LASF537:
 22080 0b26 766F6C74 		.ascii	"voltage_start\000"
 22080      6167655F 
 22080      73746172 
 22080      7400
 22081              	.LASF933:
 22082 0b34 72657376 		.ascii	"resvd840\000"
 22082      64383430 
 22082      00
 22083              	.LASF244:
 22084 0b3d 43524350 		.ascii	"CRCPR\000"
 22084      5200
 22085              	.LASF524:
 22086 0b43 4144435F 		.ascii	"ADC_CTRL_TYPE_CURRENT_REV_BUTTON\000"
 22086      4354524C 
 22086      5F545950 
 22086      455F4355 
 22086      5252454E 
 22087              	.LASF349:
 22088 0b64 44525638 		.ascii	"DRV8301_OC_REPORT_ONLY\000"
 22088      3330315F 
 22088      4F435F52 
 22088      45504F52 
 22088      545F4F4E 
 22089              	.LASF7:
 22090 0b7b 5F5F696E 		.ascii	"__int16_t\000"
 22090      7431365F 
 22090      7400
 22091              	.LASF9:
 22092 0b85 5F5F7569 		.ascii	"__uint16_t\000"
ARM GAS  /tmp/ccjQGkoy.s 			page 399


 22092      6E743136 
 22092      5F7400
 22093              	.LASF548:
 22094 0b90 6164635F 		.ascii	"adc_config\000"
 22094      636F6E66 
 22094      696700
 22095              	.LASF948:
 22096 0b9b 74787175 		.ascii	"txqueued\000"
 22096      65756564 
 22096      00
 22097              	.LASF170:
 22098 0ba4 705F6D73 		.ascii	"p_msg\000"
 22098      6700
 22099              	.LASF103:
 22100 0baa 5F756E75 		.ascii	"_unused_rand\000"
 22100      7365645F 
 22100      72616E64 
 22100      00
 22101              	.LASF1021:
 22102 0bb7 73746174 		.ascii	"stat_tmp\000"
 22102      5F746D70 
 22102      00
 22103              	.LASF461:
 22104 0bc0 6D5F6661 		.ascii	"m_fault_stop_time_ms\000"
 22104      756C745F 
 22104      73746F70 
 22104      5F74696D 
 22104      655F6D73 
 22105              	.LASF895:
 22106 0bd5 47525853 		.ascii	"GRXSTSP\000"
 22106      54535000 
 22107              	.LASF894:
 22108 0bdd 47525853 		.ascii	"GRXSTSR\000"
 22108      54535200 
 22109              	.LASF237:
 22110 0be5 4D314152 		.ascii	"M1AR\000"
 22110      00
 22111              	.LASF834:
 22112 0bea 77616974 		.ascii	"wait\000"
 22112      00
 22113              	.LASF238:
 22114 0bef 444D415F 		.ascii	"DMA_Stream_TypeDef\000"
 22114      53747265 
 22114      616D5F54 
 22114      79706544 
 22114      656600
 22115              	.LASF992:
 22116 0c02 70726F63 		.ascii	"process_tp\000"
 22116      6573735F 
 22116      747000
 22117              	.LASF1116:
 22118 0c0d 6D635F69 		.ascii	"mc_interface_set_pid_speed\000"
 22118      6E746572 
 22118      66616365 
 22118      5F736574 
 22118      5F706964 
 22119              	.LASF1134:
ARM GAS  /tmp/ccjQGkoy.s 			page 400


 22120 0c28 63616E53 		.ascii	"canStart\000"
 22120      74617274 
 22120      00
 22121              	.LASF841:
 22122 0c31 5553425F 		.ascii	"USB_ACTIVE\000"
 22122      41435449 
 22122      564500
 22123              	.LASF414:
 22124 0c3c 666F635F 		.ascii	"foc_encoder_sin_gain\000"
 22124      656E636F 
 22124      6465725F 
 22124      73696E5F 
 22124      6761696E 
 22125              	.LASF444:
 22126 0c51 6770645F 		.ascii	"gpd_current_kp\000"
 22126      63757272 
 22126      656E745F 
 22126      6B7000
 22127              	.LASF658:
 22128 0c60 63757272 		.ascii	"current_in\000"
 22128      656E745F 
 22128      696E00
 22129              	.LASF149:
 22130 0c6b 6576656E 		.ascii	"eventid_t\000"
 22130      7469645F 
 22130      7400
 22131              	.LASF882:
 22132 0c75 73746D33 		.ascii	"stm32_otg_in_ep_t\000"
 22132      325F6F74 
 22132      675F696E 
 22132      5F65705F 
 22132      7400
 22133              	.LASF956:
 22134 0c87 7278636E 		.ascii	"rxcnt\000"
 22134      7400
 22135              	.LASF1058:
 22136 0c8d 73656E64 		.ascii	"send_len\000"
 22136      5F6C656E 
 22136      00
 22137              	.LASF749:
 22138 0c96 7278646D 		.ascii	"rxdmamode\000"
 22138      616D6F64 
 22138      6500
 22139              	.LASF85:
 22140 0ca0 5F726573 		.ascii	"_result_k\000"
 22140      756C745F 
 22140      6B00
 22141              	.LASF782:
 22142 0caa 6D6F6465 		.ascii	"mode\000"
 22142      00
 22143              	.LASF77:
 22144 0caf 5F737464 		.ascii	"_stderr\000"
 22144      65727200 
 22145              	.LASF84:
 22146 0cb7 5F726573 		.ascii	"_result\000"
 22146      756C7400 
 22147              	.LASF775:
ARM GAS  /tmp/ccjQGkoy.s 			page 401


 22148 0cbf 4943555F 		.ascii	"ICU_INPUT_ACTIVE_HIGH\000"
 22148      494E5055 
 22148      545F4143 
 22148      54495645 
 22148      5F484947 
 22149              	.LASF560:
 22150 0cd5 4E52465F 		.ascii	"NRF_POWER_M12DBM\000"
 22150      504F5745 
 22150      525F4D31 
 22150      3244424D 
 22150      00
 22151              	.LASF47:
 22152 0ce6 5F64736F 		.ascii	"_dso_handle\000"
 22152      5F68616E 
 22152      646C6500 
 22153              	.LASF816:
 22154 0cf2 73737061 		.ascii	"sspad\000"
 22154      6400
 22155              	.LASF750:
 22156 0cf8 7478646D 		.ascii	"txdmamode\000"
 22156      616D6F64 
 22156      6500
 22157              	.LASF805:
 22158 0d02 72656164 		.ascii	"readt\000"
 22158      7400
 22159              	.LASF418:
 22160 0d08 666F635F 		.ascii	"foc_motor_l\000"
 22160      6D6F746F 
 22160      725F6C00 
 22161              	.LASF419:
 22162 0d14 666F635F 		.ascii	"foc_motor_r\000"
 22162      6D6F746F 
 22162      725F7200 
 22163              	.LASF42:
 22164 0d20 5F5F746D 		.ascii	"__tm_wday\000"
 22164      5F776461 
 22164      7900
 22165              	.LASF44:
 22166 0d2a 5F5F746D 		.ascii	"__tm_isdst\000"
 22166      5F697364 
 22166      737400
 22167              	.LASF134:
 22168 0d35 5F5F6664 		.ascii	"__fdlib_version\000"
 22168      6C69625F 
 22168      76657273 
 22168      696F6E00 
 22169              	.LASF941:
 22170 0d45 72785F66 		.ascii	"rx_fifo_size\000"
 22170      69666F5F 
 22170      73697A65 
 22170      00
 22171              	.LASF720:
 22172 0d52 77616B65 		.ascii	"wakeup_event\000"
 22172      75705F65 
 22172      76656E74 
 22172      00
 22173              	.LASF192:
ARM GAS  /tmp/ccjQGkoy.s 			page 402


 22174 0d5f 76745F70 		.ascii	"vt_prev\000"
 22174      72657600 
 22175              	.LASF814:
 22176 0d67 656E645F 		.ascii	"end_cb\000"
 22176      636200
 22177              	.LASF1138:
 22178 0d6e 63685468 		.ascii	"chThdCreateStatic\000"
 22178      64437265 
 22178      61746553 
 22178      74617469 
 22178      6300
 22179              	.LASF959:
 22180 0d80 73657475 		.ascii	"setup_cb\000"
 22180      705F6362 
 22180      00
 22181              	.LASF6:
 22182 0d89 756E7369 		.ascii	"unsigned char\000"
 22182      676E6564 
 22182      20636861 
 22182      7200
 22183              	.LASF76:
 22184 0d97 5F737464 		.ascii	"_stdout\000"
 22184      6F757400 
 22185              	.LASF294:
 22186 0d9f 6576656E 		.ascii	"event_listener\000"
 22186      745F6C69 
 22186      7374656E 
 22186      657200
 22187              	.LASF450:
 22188 0dae 735F7069 		.ascii	"s_pid_min_erpm\000"
 22188      645F6D69 
 22188      6E5F6572 
 22188      706D00
 22189              	.LASF714:
 22190 0dbd 74787175 		.ascii	"txqueue\000"
 22190      65756500 
 22191              	.LASF642:
 22192 0dc5 43414E5F 		.ascii	"CAN_PACKET_CONF_STORE_CURRENT_LIMITS_IN\000"
 22192      5041434B 
 22192      45545F43 
 22192      4F4E465F 
 22192      53544F52 
 22193              	.LASF1115:
 22194 0ded 63726331 		.ascii	"crc16\000"
 22194      3600
 22195              	.LASF267:
 22196 0df3 735F636E 		.ascii	"s_cnt\000"
 22196      7400
 22197              	.LASF180:
 22198 0df9 72656164 		.ascii	"ready_list_t\000"
 22198      795F6C69 
 22198      73745F74 
 22198      00
 22199              	.LASF155:
 22200 0e06 63685F74 		.ascii	"ch_thread\000"
 22200      68726561 
 22200      6400
ARM GAS  /tmp/ccjQGkoy.s 			page 403


 22201              	.LASF734:
 22202 0e10 4F504D4F 		.ascii	"OPMODE_SMBUS_HOST\000"
 22202      44455F53 
 22202      4D425553 
 22202      5F484F53 
 22202      5400
 22203              	.LASF118:
 22204 0e22 5F6D6273 		.ascii	"_mbsrtowcs_state\000"
 22204      72746F77 
 22204      63735F73 
 22204      74617465 
 22204      00
 22205              	.LASF33:
 22206 0e33 5F776473 		.ascii	"_wds\000"
 22206      00
 22207              	.LASF876:
 22208 0e38 72657376 		.ascii	"resvd4\000"
 22208      643400
 22209              	.LASF0:
 22210 0e3f 666C6F61 		.ascii	"float\000"
 22210      7400
 22211              	.LASF594:
 22212 0e45 6E72665F 		.ascii	"nrf_config\000"
 22212      636F6E66 
 22212      696700
 22213              	.LASF624:
 22214 0e50 43414E5F 		.ascii	"CAN_PACKET_FILL_RX_BUFFER_LONG\000"
 22214      5041434B 
 22214      45545F46 
 22214      494C4C5F 
 22214      52585F42 
 22215              	.LASF561:
 22216 0e6f 4E52465F 		.ascii	"NRF_POWER_M6DBM\000"
 22216      504F5745 
 22216      525F4D36 
 22216      44424D00 
 22217              	.LASF387:
 22218 0e7f 6C5F7761 		.ascii	"l_watt_max\000"
 22218      74745F6D 
 22218      617800
 22219              	.LASF703:
 22220 0e8a 43414E5F 		.ascii	"CAN_SLEEP\000"
 22220      534C4545 
 22220      5000
 22221              	.LASF408:
 22222 0e94 666F635F 		.ascii	"foc_f_sw\000"
 22222      665F7377 
 22222      00
 22223              	.LASF372:
 22224 0e9d 6C5F6572 		.ascii	"l_erpm_start\000"
 22224      706D5F73 
 22224      74617274 
 22224      00
 22225              	.LASF1067:
 22226 0eaa 7365745F 		.ascii	"set_timing\000"
 22226      74696D69 
 22226      6E6700
ARM GAS  /tmp/ccjQGkoy.s 			page 404


 22227              	.LASF493:
 22228 0eb5 5448525F 		.ascii	"THR_EXP_NATURAL\000"
 22228      4558505F 
 22228      4E415455 
 22228      52414C00 
 22229              	.LASF55:
 22230 0ec5 5F73697A 		.ascii	"_size\000"
 22230      6500
 22231              	.LASF511:
 22232 0ecb 6D656469 		.ascii	"median_filter\000"
 22232      616E5F66 
 22232      696C7465 
 22232      7200
 22233              	.LASF199:
 22234 0ed9 73797374 		.ascii	"system_debug_t\000"
 22234      656D5F64 
 22234      65627567 
 22234      5F7400
 22235              	.LASF380:
 22236 0ee8 6C5F7465 		.ascii	"l_temp_fet_start\000"
 22236      6D705F66 
 22236      65745F73 
 22236      74617274 
 22236      00
 22237              	.LASF465:
 22238 0ef9 6D5F7365 		.ascii	"m_sensor_port_mode\000"
 22238      6E736F72 
 22238      5F706F72 
 22238      745F6D6F 
 22238      646500
 22239              	.LASF546:
 22240 0f0c 766F6C74 		.ascii	"voltage2_inverted\000"
 22240      61676532 
 22240      5F696E76 
 22240      65727465 
 22240      6400
 22241              	.LASF159:
 22242 0f1e 705F6374 		.ascii	"p_ctx\000"
 22242      7800
 22243              	.LASF195:
 22244 0f24 76745F70 		.ascii	"vt_par\000"
 22244      617200
 22245              	.LASF638:
 22246 0f2b 43414E5F 		.ascii	"CAN_PACKET_DETECT_APPLY_ALL_FOC_RES\000"
 22246      5041434B 
 22246      45545F44 
 22246      45544543 
 22246      545F4150 
 22247              	.LASF62:
 22248 0f4f 5F777269 		.ascii	"_write\000"
 22248      746500
 22249              	.LASF246:
 22250 0f56 54584352 		.ascii	"TXCRCR\000"
 22250      435200
 22251              	.LASF362:
 22252 0f5d 636F6D6D 		.ascii	"comm_mode\000"
 22252      5F6D6F64 
ARM GAS  /tmp/ccjQGkoy.s 			page 405


 22252      6500
 22253              	.LASF939:
 22254 0f67 4649464F 		.ascii	"FIFO\000"
 22254      00
 22255              	.LASF421:
 22256 0f6c 666F635F 		.ascii	"foc_observer_gain\000"
 22256      6F627365 
 22256      72766572 
 22256      5F676169 
 22256      6E00
 22257              	.LASF553:
 22258 0f7e 73746963 		.ascii	"stick_erpm_per_s_in_cc\000"
 22258      6B5F6572 
 22258      706D5F70 
 22258      65725F73 
 22258      5F696E5F 
 22259              	.LASF413:
 22260 0f95 666F635F 		.ascii	"foc_encoder_sin_offset\000"
 22260      656E636F 
 22260      6465725F 
 22260      73696E5F 
 22260      6F666673 
 22261              	.LASF738:
 22262 0fac 46415354 		.ascii	"FAST_DUTY_CYCLE_16_9\000"
 22262      5F445554 
 22262      595F4359 
 22262      434C455F 
 22262      31365F39 
 22263              	.LASF799:
 22264 0fc1 53657269 		.ascii	"SerialDriverVMT\000"
 22264      616C4472 
 22264      69766572 
 22264      564D5400 
 22265              	.LASF786:
 22266 0fd1 6F766572 		.ascii	"overflow_cb\000"
 22266      666C6F77 
 22266      5F636200 
 22267              	.LASF141:
 22268 0fdd 75696E74 		.ascii	"uint64_t\000"
 22268      36345F74 
 22268      00
 22269              	.LASF291:
 22270 0fe6 63685F64 		.ascii	"ch_debug\000"
 22270      65627567 
 22270      00
 22271              	.LASF584:
 22272 0fef 4E52465F 		.ascii	"NRF_RETR_DELAY_4000US\000"
 22272      52455452 
 22272      5F44454C 
 22272      41595F34 
 22272      30303055 
 22273              	.LASF225:
 22274 1005 464D3152 		.ascii	"FM1R\000"
 22274      00
 22275              	.LASF695:
 22276 100a 50414C43 		.ascii	"PALConfig\000"
 22276      6F6E6669 
ARM GAS  /tmp/ccjQGkoy.s 			page 406


 22276      6700
 22277              	.LASF1051:
 22278 1014 636F6D6D 		.ascii	"comm_can_set_rpm\000"
 22278      5F63616E 
 22278      5F736574 
 22278      5F72706D 
 22278      00
 22279              	.LASF950:
 22280 1025 7478636E 		.ascii	"txcnt\000"
 22280      7400
 22281              	.LASF863:
 22282 102b 75736265 		.ascii	"usbeventcb_t\000"
 22282      76656E74 
 22282      63625F74 
 22282      00
 22283              	.LASF1110:
 22284 1038 74696D65 		.ascii	"timeout_reset\000"
 22284      6F75745F 
 22284      72657365 
 22284      7400
 22285              	.LASF1131:
 22286 1046 63684576 		.ascii	"chEvtGetAndClearEvents\000"
 22286      74476574 
 22286      416E6443 
 22286      6C656172 
 22286      4576656E 
 22287              	.LASF41:
 22288 105d 5F5F746D 		.ascii	"__tm_year\000"
 22288      5F796561 
 22288      7200
 22289              	.LASF293:
 22290 1067 6576656E 		.ascii	"event_listener_t\000"
 22290      745F6C69 
 22290      7374656E 
 22290      65725F74 
 22290      00
 22291              	.LASF577:
 22292 1078 4E52465F 		.ascii	"NRF_RETR_DELAY_2250US\000"
 22292      52455452 
 22292      5F44454C 
 22292      41595F32 
 22292      32353055 
 22293              	.LASF942:
 22294 108e 6F74675F 		.ascii	"otg_ram_size\000"
 22294      72616D5F 
 22294      73697A65 
 22294      00
 22295              	.LASF944:
 22296 109b 73746D33 		.ascii	"stm32_otg_params_t\000"
 22296      325F6F74 
 22296      675F7061 
 22296      72616D73 
 22296      5F7400
 22297              	.LASF936:
 22298 10ae 72657376 		.ascii	"resvdD00\000"
 22298      64443030 
 22298      00
ARM GAS  /tmp/ccjQGkoy.s 			page 407


 22299              	.LASF245:
 22300 10b7 52584352 		.ascii	"RXCRCR\000"
 22300      435200
 22301              	.LASF953:
 22302 10be 72786275 		.ascii	"rxbuf\000"
 22302      6600
 22303              	.LASF1124:
 22304 10c4 63684576 		.ascii	"chEvtWaitAnyTimeout\000"
 22304      74576169 
 22304      74416E79 
 22304      54696D65 
 22304      6F757400 
 22305              	.LASF101:
 22306 10d8 5F6D756C 		.ascii	"_mult\000"
 22306      7400
 22307              	.LASF268:
 22308 10de 63685F6D 		.ascii	"ch_mutex\000"
 22308      75746578 
 22308      00
 22309              	.LASF795:
 22310 10e7 6576656E 		.ascii	"event\000"
 22310      7400
 22311              	.LASF717:
 22312 10ed 7478656D 		.ascii	"txempty_event\000"
 22312      7074795F 
 22312      6576656E 
 22312      7400
 22313              	.LASF451:
 22314 10fb 735F7069 		.ascii	"s_pid_allow_braking\000"
 22314      645F616C 
 22314      6C6F775F 
 22314      6272616B 
 22314      696E6700 
 22315              	.LASF1137:
 22316 110f 63616E61 		.ascii	"canard_driver_init\000"
 22316      72645F64 
 22316      72697665 
 22316      725F696E 
 22316      697400
 22317              	.LASF692:
 22318 1122 50474461 		.ascii	"PGData\000"
 22318      746100
 22319              	.LASF597:
 22320 1129 43414E5F 		.ascii	"CAN_STATUS_1_2\000"
 22320      53544154 
 22320      55535F31 
 22320      5F3200
 22321              	.LASF1139:
 22322 1138 474E5520 		.ascii	"GNU C99 7.3.1 20180622 (release) [ARM/embedded-7-br"
 22322      43393920 
 22322      372E332E 
 22322      31203230 
 22322      31383036 
 22323 116b 616E6368 		.ascii	"anch revision 261907] -mcpu=cortex-m4 -mfloat-abi=h"
 22323      20726576 
 22323      6973696F 
 22323      6E203236 
ARM GAS  /tmp/ccjQGkoy.s 			page 408


 22323      31393037 
 22324 119e 61726420 		.ascii	"ard -mfpu=fpv4-sp-d16 -mno-thumb-interwork -mthumb "
 22324      2D6D6670 
 22324      753D6670 
 22324      76342D73 
 22324      702D6431 
 22325 11d1 2D676764 		.ascii	"-ggdb -O2 -std=gnu99 -fomit-frame-pointer -falign-f"
 22325      62202D4F 
 22325      32202D73 
 22325      74643D67 
 22325      6E753939 
 22326 1204 756E6374 		.ascii	"unctions=16 -ffunction-sections -fdata-sections -fn"
 22326      696F6E73 
 22326      3D313620 
 22326      2D666675 
 22326      6E637469 
 22327 1237 6F2D636F 		.ascii	"o-common -fsingle-precision-constant\000"
 22327      6D6D6F6E 
 22327      202D6673 
 22327      696E676C 
 22327      652D7072 
 22328              	.LASF116:
 22329 125c 5F6D6272 		.ascii	"_mbrlen_state\000"
 22329      6C656E5F 
 22329      73746174 
 22329      6500
 22330              	.LASF698:
 22331 126a 70616C5F 		.ascii	"pal_default_config\000"
 22331      64656661 
 22331      756C745F 
 22331      636F6E66 
 22331      696700
 22332              	.LASF1083:
 22333 127d 76616C75 		.ascii	"value\000"
 22333      6500
 22334              	.LASF324:
 22335 1283 53454E53 		.ascii	"SENSOR_MODE_SENSORED\000"
 22335      4F525F4D 
 22335      4F44455F 
 22335      53454E53 
 22335      4F524544 
 22336              	.LASF281:
 22337 1298 63665F6F 		.ascii	"cf_off_newer\000"
 22337      66665F6E 
 22337      65776572 
 22337      00
 22338              	.LASF921:
 22339 12a5 44494550 		.ascii	"DIEPMSK\000"
 22339      4D534B00 
 22340              	.LASF888:
 22341 12ad 474F5447 		.ascii	"GOTGINT\000"
 22341      494E5400 
 22342              	.LASF449:
 22343 12b5 735F7069 		.ascii	"s_pid_kd_filter\000"
 22343      645F6B64 
 22343      5F66696C 
 22343      74657200 
ARM GAS  /tmp/ccjQGkoy.s 			page 409


 22344              	.LASF961:
 22345 12c5 6F75745F 		.ascii	"out_cb\000"
 22345      636200
 22346              	.LASF912:
 22347 12cc 4841494E 		.ascii	"HAINTMSK\000"
 22347      544D534B 
 22347      00
 22348              	.LASF823:
 22349 12d5 6F75745F 		.ascii	"out_params\000"
 22349      70617261 
 22349      6D7300
 22350              	.LASF75:
 22351 12e0 5F737464 		.ascii	"_stdin\000"
 22351      696E00
 22352              	.LASF123:
 22353 12e7 5F6E6D61 		.ascii	"_nmalloc\000"
 22353      6C6C6F63 
 22353      00
 22354              	.LASF787:
 22355 12f0 64696572 		.ascii	"dier\000"
 22355      00
 22356              	.LASF909:
 22357 12f5 72657376 		.ascii	"resvd40C\000"
 22357      64343043 
 22357      00
 22358              	.LASF443:
 22359 12fe 6770645F 		.ascii	"gpd_current_filter_const\000"
 22359      63757272 
 22359      656E745F 
 22359      66696C74 
 22359      65725F63 
 22360              	.LASF558:
 22361 1317 4E52465F 		.ascii	"NRF_SPEED\000"
 22361      53504545 
 22361      4400
 22362              	.LASF517:
 22363 1321 72616D70 		.ascii	"ramp_time_neg\000"
 22363      5F74696D 
 22363      655F6E65 
 22363      6700
 22364              	.LASF189:
 22365 132f 76697274 		.ascii	"virtual_timer_t\000"
 22365      75616C5F 
 22365      74696D65 
 22365      725F7400 
 22366              	.LASF184:
 22367 133f 725F6374 		.ascii	"r_ctx\000"
 22367      7800
 22368              	.LASF191:
 22369 1345 76745F6E 		.ascii	"vt_next\000"
 22369      65787400 
 22370              	.LASF476:
 22371 134d 73695F77 		.ascii	"si_wheel_diameter\000"
 22371      6865656C 
 22371      5F646961 
 22371      6D657465 
 22371      7200
ARM GAS  /tmp/ccjQGkoy.s 			page 410


 22372              	.LASF1016:
 22373 135f 72786D73 		.ascii	"rxmsg\000"
 22373      6700
 22374              	.LASF142:
 22375 1365 7274636E 		.ascii	"rtcnt_t\000"
 22375      745F7400 
 22376              	.LASF746:
 22377 136d 6D757465 		.ascii	"mutex\000"
 22377      7800
 22378              	.LASF325:
 22379 1373 53454E53 		.ascii	"SENSOR_MODE_HYBRID\000"
 22379      4F525F4D 
 22379      4F44455F 
 22379      48594252 
 22379      494400
 22380              	.LASF1001:
 22381 1386 7369645F 		.ascii	"sid_callback\000"
 22381      63616C6C 
 22381      6261636B 
 22381      00
 22382              	.LASF467:
 22383 1393 6D5F6472 		.ascii	"m_drv8301_oc_mode\000"
 22383      76383330 
 22383      315F6F63 
 22383      5F6D6F64 
 22383      6500
 22384              	.LASF391:
 22385 13a5 6C6F5F63 		.ascii	"lo_current_max\000"
 22385      75727265 
 22385      6E745F6D 
 22385      617800
 22386              	.LASF411:
 22387 13b4 666F635F 		.ascii	"foc_encoder_inverted\000"
 22387      656E636F 
 22387      6465725F 
 22387      696E7665 
 22387      72746564 
 22388              	.LASF458:
 22389 13c9 63635F6D 		.ascii	"cc_min_current\000"
 22389      696E5F63 
 22389      75727265 
 22389      6E7400
 22390              	.LASF509:
 22391 13d8 70756C73 		.ascii	"pulse_end\000"
 22391      655F656E 
 22391      6400
 22392              	.LASF788:
 22393 13e2 49435543 		.ascii	"ICUConfig\000"
 22393      6F6E6669 
 22393      6700
 22394              	.LASF833:
 22395 13ec 74787065 		.ascii	"txpending\000"
 22395      6E64696E 
 22395      6700
 22396              	.LASF342:
 22397 13f6 53454E53 		.ascii	"SENSOR_PORT_MODE_ABI\000"
 22397      4F525F50 
ARM GAS  /tmp/ccjQGkoy.s 			page 411


 22397      4F52545F 
 22397      4D4F4445 
 22397      5F414249 
 22398              	.LASF669:
 22399 140b 636C6561 		.ascii	"clear\000"
 22399      7200
 22400              	.LASF773:
 22401 1411 43435852 		.ascii	"CCXR\000"
 22401      00
 22402              	.LASF525:
 22403 1416 4144435F 		.ascii	"ADC_CTRL_TYPE_CURRENT_REV_BUTTON_BRAKE_ADC\000"
 22403      4354524C 
 22403      5F545950 
 22403      455F4355 
 22403      5252454E 
 22404              	.LASF234:
 22405 1441 43414E5F 		.ascii	"CAN_TypeDef\000"
 22405      54797065 
 22405      44656600 
 22406              	.LASF19:
 22407 144d 5F6F6666 		.ascii	"_off_t\000"
 22407      5F7400
 22408              	.LASF523:
 22409 1454 4144435F 		.ascii	"ADC_CTRL_TYPE_CURRENT_REV_CENTER\000"
 22409      4354524C 
 22409      5F545950 
 22409      455F4355 
 22409      5252454E 
 22410              	.LASF1003:
 22411 1475 73656E64 		.ascii	"send_packet_wrapper\000"
 22411      5F706163 
 22411      6B65745F 
 22411      77726170 
 22411      70657200 
 22412              	.LASF253:
 22413 1489 73746B61 		.ascii	"stkalign_t\000"
 22413      6C69676E 
 22413      5F7400
 22414              	.LASF791:
 22415 1494 53445F53 		.ascii	"SD_STOP\000"
 22415      544F5000 
 22416              	.LASF867:
 22417 149c 72657376 		.ascii	"resvd8\000"
 22417      643800
 22418              	.LASF2:
 22419 14a3 73697A65 		.ascii	"size_t\000"
 22419      5F7400
 22420              	.LASF106:
 22421 14aa 5F6C6F63 		.ascii	"_localtime_buf\000"
 22421      616C7469 
 22421      6D655F62 
 22421      756600
 22422              	.LASF343:
 22423 14b9 53454E53 		.ascii	"SENSOR_PORT_MODE_AS5047_SPI\000"
 22423      4F525F50 
 22423      4F52545F 
 22423      4D4F4445 
ARM GAS  /tmp/ccjQGkoy.s 			page 412


 22423      5F415335 
 22424              	.LASF24:
 22425 14d5 5F5F636F 		.ascii	"__count\000"
 22425      756E7400 
 22426              	.LASF602:
 22427 14dd 74696D65 		.ascii	"timeout_msec\000"
 22427      6F75745F 
 22427      6D736563 
 22427      00
 22428              	.LASF136:
 22429 14ea 75696E74 		.ascii	"uint8_t\000"
 22429      385F7400 
 22430              	.LASF871:
 22431 14f2 72657376 		.ascii	"resvd14\000"
 22431      64313400 
 22432              	.LASF699:
 22433 14fa 43414E5F 		.ascii	"CAN_UNINIT\000"
 22433      554E494E 
 22433      495400
 22434              	.LASF604:
 22435 1505 73656E64 		.ascii	"send_can_status\000"
 22435      5F63616E 
 22435      5F737461 
 22435      74757300 
 22436              	.LASF1059:
 22437 1515 636F6D6D 		.ascii	"comm_can_set_sid_rx_callback\000"
 22437      5F63616E 
 22437      5F736574 
 22437      5F736964 
 22437      5F72785F 
 22438              	.LASF596:
 22439 1532 43414E5F 		.ascii	"CAN_STATUS_1\000"
 22439      53544154 
 22439      55535F31 
 22439      00
 22440              	.LASF186:
 22441 153f 725F6F6C 		.ascii	"r_older\000"
 22441      64657200 
 22442              	.LASF736:
 22443 1547 5354445F 		.ascii	"STD_DUTY_CYCLE\000"
 22443      44555459 
 22443      5F435943 
 22443      4C4500
 22444              	.LASF157:
 22445 1556 705F7072 		.ascii	"p_prev\000"
 22445      657600
 22446              	.LASF283:
 22447 155d 63665F6F 		.ascii	"cf_off_name\000"
 22447      66665F6E 
 22447      616D6500 
 22448              	.LASF1032:
 22449 1569 636F6D6D 		.ascii	"comm_can_get_status_msg_3_index\000"
 22449      5F63616E 
 22449      5F676574 
 22449      5F737461 
 22449      7475735F 
 22450              	.LASF488:
ARM GAS  /tmp/ccjQGkoy.s 			page 413


 22451 1589 4150505F 		.ascii	"APP_NUNCHUK\000"
 22451      4E554E43 
 22451      48554B00 
 22452              	.LASF396:
 22453 1595 6C6F5F63 		.ascii	"lo_current_motor_min_now\000"
 22453      75727265 
 22453      6E745F6D 
 22453      6F746F72 
 22453      5F6D696E 
 22454              	.LASF875:
 22455 15ae 44494550 		.ascii	"DIEPCTL\000"
 22455      43544C00 
 22456              	.LASF376:
 22457 15b6 6C5F6D61 		.ascii	"l_max_vin\000"
 22457      785F7669 
 22457      6E00
 22458              	.LASF1031:
 22459 15c0 636F6D6D 		.ascii	"comm_can_get_status_msg_3_id\000"
 22459      5F63616E 
 22459      5F676574 
 22459      5F737461 
 22459      7475735F 
 22460              	.LASF299:
 22461 15dd 656C5F77 		.ascii	"el_wflags\000"
 22461      666C6167 
 22461      7300
 22462              	.LASF831:
 22463 15e7 6F746770 		.ascii	"otgparams\000"
 22463      6172616D 
 22463      7300
 22464              	.LASF259:
 22465 15f1 65786974 		.ascii	"exitcode\000"
 22465      636F6465 
 22465      00
 22466              	.LASF689:
 22467 15fa 50444461 		.ascii	"PDData\000"
 22467      746100
 22468              	.LASF593:
 22469 1601 73656E64 		.ascii	"send_crc_ack\000"
 22469      5F637263 
 22469      5F61636B 
 22469      00
 22470              	.LASF978:
 22471 160e 54485245 		.ascii	"THREAD_CANBUS\000"
 22471      41445F43 
 22471      414E4255 
 22471      5300
 22472              	.LASF89:
 22473 161c 5F637674 		.ascii	"_cvtbuf\000"
 22473      62756600 
 22474              	.LASF965:
 22475 1624 6F75745F 		.ascii	"out_state\000"
 22475      73746174 
 22475      6500
 22476              	.LASF303:
 22477 162e 696F5F71 		.ascii	"io_queue_t\000"
 22477      75657565 
ARM GAS  /tmp/ccjQGkoy.s 			page 414


 22477      5F7400
 22478              	.LASF483:
 22479 1639 4150505F 		.ascii	"APP_PPM\000"
 22479      50504D00 
 22480              	.LASF526:
 22481 1641 4144435F 		.ascii	"ADC_CTRL_TYPE_CURRENT_REV_BUTTON_BRAKE_CENTER\000"
 22481      4354524C 
 22481      5F545950 
 22481      455F4355 
 22481      5252454E 
 22482              	.LASF724:
 22483 166f 4932435F 		.ascii	"I2C_STOP\000"
 22483      53544F50 
 22483      00
 22484              	.LASF748:
 22485 1678 61646472 		.ascii	"addr\000"
 22485      00
 22486              	.LASF599:
 22487 167d 43414E5F 		.ascii	"CAN_STATUS_1_2_3_4\000"
 22487      53544154 
 22487      55535F31 
 22487      5F325F33 
 22487      5F3400
 22488              	.LASF219:
 22489 1690 52463052 		.ascii	"RF0R\000"
 22489      00
 22490              	.LASF531:
 22491 1695 4144435F 		.ascii	"ADC_CTRL_TYPE_DUTY_REV_CENTER\000"
 22491      4354524C 
 22491      5F545950 
 22491      455F4455 
 22491      54595F52 
 22492              	.LASF504:
 22493 16b3 70706D5F 		.ascii	"ppm_control_type\000"
 22493      636F6E74 
 22493      726F6C5F 
 22493      74797065 
 22493      00
 22494              	.LASF250:
 22495 16c4 47545052 		.ascii	"GTPR\000"
 22495      00
 22496              	.LASF672:
 22497 16c9 4F535045 		.ascii	"OSPEEDR\000"
 22497      45445200 
 22498              	.LASF899:
 22499 16d1 72657376 		.ascii	"resvd30\000"
 22499      64333000 
 22500              	.LASF23:
 22501 16d9 5F5F7763 		.ascii	"__wchb\000"
 22501      686200
 22502              	.LASF117:
 22503 16e0 5F6D6272 		.ascii	"_mbrtowc_state\000"
 22503      746F7763 
 22503      5F737461 
 22503      746500
 22504              	.LASF377:
 22505 16ef 6C5F6261 		.ascii	"l_battery_cut_start\000"
ARM GAS  /tmp/ccjQGkoy.s 			page 415


 22505      74746572 
 22505      795F6375 
 22505      745F7374 
 22505      61727400 
 22506              	.LASF789:
 22507 1703 49435544 		.ascii	"ICUD4\000"
 22507      3400
 22508              	.LASF38:
 22509 1709 5F5F746D 		.ascii	"__tm_hour\000"
 22509      5F686F75 
 22509      7200
 22510              	.LASF378:
 22511 1713 6C5F6261 		.ascii	"l_battery_cut_end\000"
 22511      74746572 
 22511      795F6375 
 22511      745F656E 
 22511      6400
 22512              	.LASF375:
 22513 1725 6C5F6D69 		.ascii	"l_min_vin\000"
 22513      6E5F7669 
 22513      6E00
 22514              	.LASF578:
 22515 172f 4E52465F 		.ascii	"NRF_RETR_DELAY_2500US\000"
 22515      52455452 
 22515      5F44454C 
 22515      41595F32 
 22515      35303055 
 22516              	.LASF729:
 22517 1745 69326373 		.ascii	"i2cstate_t\000"
 22517      74617465 
 22517      5F7400
 22518              	.LASF849:
 22519 1750 5553425F 		.ascii	"USB_EP0_ERROR\000"
 22519      4550305F 
 22519      4552524F 
 22519      5200
 22520              	.LASF21:
 22521 175e 77696E74 		.ascii	"wint_t\000"
 22521      5F7400
 22522              	.LASF417:
 22523 1765 666F635F 		.ascii	"foc_encoder_sincos_filter_constant\000"
 22523      656E636F 
 22523      6465725F 
 22523      73696E63 
 22523      6F735F66 
 22524              	.LASF90:
 22525 1788 5F6E6577 		.ascii	"_new\000"
 22525      00
 22526              	.LASF355:
 22527 178d 43414E5F 		.ascii	"CAN_BAUD_1M\000"
 22527      42415544 
 22527      5F314D00 
 22528              	.LASF938:
 22529 1799 72657376 		.ascii	"resvdE04\000"
 22529      64453034 
 22529      00
 22530              	.LASF943:
ARM GAS  /tmp/ccjQGkoy.s 			page 416


 22531 17a2 6E756D5F 		.ascii	"num_endpoints\000"
 22531      656E6470 
 22531      6F696E74 
 22531      7300
 22532              	.LASF1088:
 22533 17b0 6D635F69 		.ascii	"mc_interface_get_duty_cycle_now\000"
 22533      6E746572 
 22533      66616365 
 22533      5F676574 
 22533      5F647574 
 22534              	.LASF951:
 22535 17d0 746F7473 		.ascii	"totsize\000"
 22535      697A6500 
 22536              	.LASF415:
 22537 17d8 666F635F 		.ascii	"foc_encoder_cos_offset\000"
 22537      656E636F 
 22537      6465725F 
 22537      636F735F 
 22537      6F666673 
 22538              	.LASF338:
 22539 17ef 4D4F544F 		.ascii	"MOTOR_TYPE_FOC\000"
 22539      525F5459 
 22539      50455F46 
 22539      4F4300
 22540              	.LASF97:
 22541 17fe 5F6E696F 		.ascii	"_niobs\000"
 22541      627300
 22542              	.LASF397:
 22543 1805 736C5F6D 		.ascii	"sl_min_erpm\000"
 22543      696E5F65 
 22543      72706D00 
 22544              	.LASF718:
 22545 1811 6572726F 		.ascii	"error_event\000"
 22545      725F6576 
 22545      656E7400 
 22546              	.LASF284:
 22547 181d 63665F6F 		.ascii	"cf_off_stklimit\000"
 22547      66665F73 
 22547      746B6C69 
 22547      6D697400 
 22548              	.LASF865:
 22549 182d 75736267 		.ascii	"usbgetdescriptor_t\000"
 22549      65746465 
 22549      73637269 
 22549      70746F72 
 22549      5F7400
 22550              	.LASF187:
 22551 1840 725F6375 		.ascii	"r_current\000"
 22551      7272656E 
 22551      7400
 22552              	.LASF74:
 22553 184a 5F657272 		.ascii	"_errno\000"
 22553      6E6F00
 22554              	.LASF844:
 22555 1851 5553425F 		.ascii	"USB_EP0_TX\000"
 22555      4550305F 
 22555      545800
ARM GAS  /tmp/ccjQGkoy.s 			page 417


 22556              	.LASF1042:
 22557 185c 636F6D6D 		.ascii	"comm_can_detect_apply_all_foc\000"
 22557      5F63616E 
 22557      5F646574 
 22557      6563745F 
 22557      6170706C 
 22558              	.LASF824:
 22559 187a 65703073 		.ascii	"ep0state\000"
 22559      74617465 
 22559      00
 22560              	.LASF463:
 22561 1883 6D5F6375 		.ascii	"m_current_backoff_gain\000"
 22561      7272656E 
 22561      745F6261 
 22561      636B6F66 
 22561      665F6761 
 22562              	.LASF39:
 22563 189a 5F5F746D 		.ascii	"__tm_mday\000"
 22563      5F6D6461 
 22563      7900
 22564              	.LASF508:
 22565 18a4 70756C73 		.ascii	"pulse_start\000"
 22565      655F7374 
 22565      61727400 
 22566              	.LASF466:
 22567 18b0 6D5F696E 		.ascii	"m_invert_direction\000"
 22567      76657274 
 22567      5F646972 
 22567      65637469 
 22567      6F6E00
 22568              	.LASF663:
 22569 18c3 69666372 		.ascii	"ifcr\000"
 22569      00
 22570              	.LASF963:
 22571 18c8 6F75745F 		.ascii	"out_maxsize\000"
 22571      6D617873 
 22571      697A6500 
 22572              	.LASF1064:
 22573 18d4 636F6D6D 		.ascii	"comm_can_set_baud\000"
 22573      5F63616E 
 22573      5F736574 
 22573      5F626175 
 22573      6400
 22574              	.LASF678:
 22575 18e6 73746D33 		.ascii	"stm32_gpio_t\000"
 22575      325F6770 
 22575      696F5F74 
 22575      00
 22576              	.LASF258:
 22577 18f3 7264796D 		.ascii	"rdymsg\000"
 22577      736700
 22578              	.LASF46:
 22579 18fa 5F666E61 		.ascii	"_fnargs\000"
 22579      72677300 
 22580              	.LASF1075:
 22581 1902 73797374 		.ascii	"systime\000"
 22581      696D6500 
ARM GAS  /tmp/ccjQGkoy.s 			page 418


 22582              	.LASF547:
 22583 190a 75706461 		.ascii	"update_rate_hz\000"
 22583      74655F72 
 22583      6174655F 
 22583      687A00
 22584              	.LASF210:
 22585 1919 54445452 		.ascii	"TDTR\000"
 22585      00
 22586              	.LASF990:
 22587 191e 72785F66 		.ascii	"rx_frame_read\000"
 22587      72616D65 
 22587      5F726561 
 22587      6400
 22588              	.LASF386:
 22589 192c 6C5F6D61 		.ascii	"l_max_duty\000"
 22589      785F6475 
 22589      747900
 22590              	.LASF218:
 22591 1937 43414E5F 		.ascii	"CAN_FilterRegister_TypeDef\000"
 22591      46696C74 
 22591      65725265 
 22591      67697374 
 22591      65725F54 
 22592              	.LASF618:
 22593 1952 43414E5F 		.ascii	"CAN_PACKET_SET_DUTY\000"
 22593      5041434B 
 22593      45545F53 
 22593      45545F44 
 22593      55545900 
 22594              	.LASF1019:
 22595 1966 61707063 		.ascii	"appconf\000"
 22595      6F6E6600 
 22596              	.LASF902:
 22597 196e 72657376 		.ascii	"resvd58\000"
 22597      64353800 
 22598              	.LASF952:
 22599 1976 55534249 		.ascii	"USBInEndpointState\000"
 22599      6E456E64 
 22599      706F696E 
 22599      74537461 
 22599      746500
 22600              	.LASF158:
 22601 1989 705F7072 		.ascii	"p_prio\000"
 22601      696F00
 22602              	.LASF1066:
 22603 1990 636F6D6D 		.ascii	"comm_can_init\000"
 22603      5F63616E 
 22603      5F696E69 
 22603      7400
 22604              	.LASF304:
 22605 199e 696F5F71 		.ascii	"io_queue\000"
 22605      75657565 
 22605      00
 22606              	.LASF686:
 22607 19a7 50414461 		.ascii	"PAData\000"
 22607      746100
 22608              	.LASF16:
ARM GAS  /tmp/ccjQGkoy.s 			page 419


 22609 19ae 5F5F7569 		.ascii	"__uint64_t\000"
 22609      6E743634 
 22609      5F7400
 22610              	.LASF582:
 22611 19b9 4E52465F 		.ascii	"NRF_RETR_DELAY_3500US\000"
 22611      52455452 
 22611      5F44454C 
 22611      41595F33 
 22611      35303055 
 22612              	.LASF434:
 22613 19cf 666F635F 		.ascii	"foc_sl_erpm\000"
 22613      736C5F65 
 22613      72706D00 
 22614              	.LASF30:
 22615 19db 5F6E6578 		.ascii	"_next\000"
 22615      7400
 22616              	.LASF934:
 22617 19e1 72657376 		.ascii	"resvd880\000"
 22617      64383830 
 22617      00
 22618              	.LASF632:
 22619 19ea 43414E5F 		.ascii	"CAN_PACKET_STATUS_2\000"
 22619      5041434B 
 22619      45545F53 
 22619      54415455 
 22619      535F3200 
 22620              	.LASF633:
 22621 19fe 43414E5F 		.ascii	"CAN_PACKET_STATUS_3\000"
 22621      5041434B 
 22621      45545F53 
 22621      54415455 
 22621      535F3300 
 22622              	.LASF634:
 22623 1a12 43414E5F 		.ascii	"CAN_PACKET_STATUS_4\000"
 22623      5041434B 
 22623      45545F53 
 22623      54415455 
 22623      535F3400 
 22624              	.LASF848:
 22625 1a26 5553425F 		.ascii	"USB_EP0_SENDING_STS\000"
 22625      4550305F 
 22625      53454E44 
 22625      494E475F 
 22625      53545300 
 22626              	.LASF114:
 22627 1a3a 5F736967 		.ascii	"_signal_buf\000"
 22627      6E616C5F 
 22627      62756600 
 22628              	.LASF785:
 22629 1a46 70657269 		.ascii	"period_cb\000"
 22629      6F645F63 
 22629      6200
 22630              	.LASF592:
 22631 1a50 61646472 		.ascii	"address\000"
 22631      65737300 
 22632              	.LASF60:
 22633 1a58 5F636F6F 		.ascii	"_cookie\000"
ARM GAS  /tmp/ccjQGkoy.s 			page 420


 22633      6B696500 
 22634              	.LASF656:
 22635 1a60 74656D70 		.ascii	"temp_fet\000"
 22635      5F666574 
 22635      00
 22636              	.LASF401:
 22637 1a69 736C5F70 		.ascii	"sl_phase_advance_at_br\000"
 22637      68617365 
 22637      5F616476 
 22637      616E6365 
 22637      5F61745F 
 22638              	.LASF850:
 22639 1a80 75736265 		.ascii	"usbep0state_t\000"
 22639      70307374 
 22639      6174655F 
 22639      7400
 22640              	.LASF657:
 22641 1a8e 74656D70 		.ascii	"temp_motor\000"
 22641      5F6D6F74 
 22641      6F7200
 22642              	.LASF222:
 22643 1a99 7354784D 		.ascii	"sTxMailBox\000"
 22643      61696C42 
 22643      6F7800
 22644              	.LASF809:
 22645 1aa4 5350495F 		.ascii	"SPI_ACTIVE\000"
 22645      41435449 
 22645      564500
 22646              	.LASF307:
 22647 1aaf 715F6275 		.ascii	"q_buffer\000"
 22647      66666572 
 22647      00
 22648              	.LASF527:
 22649 1ab8 4144435F 		.ascii	"ADC_CTRL_TYPE_CURRENT_NOREV_BRAKE_CENTER\000"
 22649      4354524C 
 22649      5F545950 
 22649      455F4355 
 22649      5252454E 
 22650              	.LASF156:
 22651 1ae1 705F6E65 		.ascii	"p_next\000"
 22651      787400
 22652              	.LASF753:
 22653 1ae8 49324344 		.ascii	"I2CD2\000"
 22653      3200
 22654              	.LASF1027:
 22655 1aee 636F6D6D 		.ascii	"comm_can_get_rx_frame\000"
 22655      5F63616E 
 22655      5F676574 
 22655      5F72785F 
 22655      6672616D 
 22656              	.LASF819:
 22657 1b04 55534244 		.ascii	"USBDriver\000"
 22657      72697665 
 22657      7200
 22658              	.LASF654:
 22659 1b0e 77617474 		.ascii	"watt_hours_charged\000"
 22659      5F686F75 
ARM GAS  /tmp/ccjQGkoy.s 			page 421


 22659      72735F63 
 22659      68617267 
 22659      656400
 22660              	.LASF973:
 22661 1b21 55534243 		.ascii	"USBConfig\000"
 22661      6F6E6669 
 22661      6700
 22662              	.LASF600:
 22663 1b2b 43414E5F 		.ascii	"CAN_STATUS_MODE\000"
 22663      53544154 
 22663      55535F4D 
 22663      4F444500 
 22664              	.LASF878:
 22665 1b3b 72657376 		.ascii	"resvdC\000"
 22665      644300
 22666              	.LASF591:
 22667 1b42 6368616E 		.ascii	"channel\000"
 22667      6E656C00 
 22668              	.LASF1104:
 22669 1b4a 6D635F69 		.ascii	"mc_interface_set_configuration\000"
 22669      6E746572 
 22669      66616365 
 22669      5F736574 
 22669      5F636F6E 
 22670              	.LASF459:
 22671 1b69 63635F67 		.ascii	"cc_gain\000"
 22671      61696E00 
 22672              	.LASF574:
 22673 1b71 4E52465F 		.ascii	"NRF_RETR_DELAY_1500US\000"
 22673      52455452 
 22673      5F44454C 
 22673      41595F31 
 22673      35303055 
 22674              	.LASF797:
 22675 1b87 6F717565 		.ascii	"oqueue\000"
 22675      756500
 22676              	.LASF623:
 22677 1b8e 43414E5F 		.ascii	"CAN_PACKET_FILL_RX_BUFFER\000"
 22677      5041434B 
 22677      45545F46 
 22677      494C4C5F 
 22677      52585F42 
 22678              	.LASF145:
 22679 1ba8 74726566 		.ascii	"trefs_t\000"
 22679      735F7400 
 22680              	.LASF174:
 22681 1bb0 705F6D70 		.ascii	"p_mpool\000"
 22681      6F6F6C00 
 22682              	.LASF243:
 22683 1bb8 4932435F 		.ascii	"I2C_TypeDef\000"
 22683      54797065 
 22683      44656600 
 22684              	.LASF361:
 22685 1bc4 70776D5F 		.ascii	"pwm_mode\000"
 22685      6D6F6465 
 22685      00
 22686              	.LASF532:
ARM GAS  /tmp/ccjQGkoy.s 			page 422


 22687 1bcd 4144435F 		.ascii	"ADC_CTRL_TYPE_DUTY_REV_BUTTON\000"
 22687      4354524C 
 22687      5F545950 
 22687      455F4455 
 22687      54595F52 
 22688              	.LASF363:
 22689 1beb 6D6F746F 		.ascii	"motor_type\000"
 22689      725F7479 
 22689      706500
 22690              	.LASF36:
 22691 1bf6 5F5F746D 		.ascii	"__tm_sec\000"
 22691      5F736563 
 22691      00
 22692              	.LASF966:
 22693 1bff 696E5F6D 		.ascii	"in_multiplier\000"
 22693      756C7469 
 22693      706C6965 
 22693      7200
 22694              	.LASF399:
 22695 1c0d 736C5F6D 		.ascii	"sl_max_fullbreak_current_dir_change\000"
 22695      61785F66 
 22695      756C6C62 
 22695      7265616B 
 22695      5F637572 
 22696              	.LASF1113:
 22697 1c31 6D635F69 		.ascii	"mc_interface_set_current_rel\000"
 22697      6E746572 
 22697      66616365 
 22697      5F736574 
 22697      5F637572 
 22698              	.LASF45:
 22699 1c4e 5F6F6E5F 		.ascii	"_on_exit_args\000"
 22699      65786974 
 22699      5F617267 
 22699      7300
 22700              	.LASF254:
 22701 1c5c 636F6E74 		.ascii	"context\000"
 22701      65787400 
 22702              	.LASF143:
 22703 1c64 746D6F64 		.ascii	"tmode_t\000"
 22703      655F7400 
 22704              	.LASF360:
 22705 1c6c 42415454 		.ascii	"BATTERY_TYPE\000"
 22705      4552595F 
 22705      54595045 
 22705      00
 22706              	.LASF650:
 22707 1c79 616D705F 		.ascii	"amp_hours\000"
 22707      686F7572 
 22707      7300
 22708              	.LASF1133:
 22709 1c83 63616E53 		.ascii	"canStop\000"
 22709      746F7000 
 22710              	.LASF919:
 22711 1c8b 44535453 		.ascii	"DSTS\000"
 22711      00
 22712              	.LASF430:
ARM GAS  /tmp/ccjQGkoy.s 			page 423


 22713 1c90 666F635F 		.ascii	"foc_sl_d_current_duty\000"
 22713      736C5F64 
 22713      5F637572 
 22713      72656E74 
 22713      5F647574 
 22714              	.LASF1132:
 22715 1ca6 63616E54 		.ascii	"canTransmit\000"
 22715      72616E73 
 22715      6D697400 
 22716              	.LASF674:
 22717 1cb2 42535252 		.ascii	"BSRR\000"
 22717      00
 22718              	.LASF667:
 22719 1cb7 73746D33 		.ascii	"stm32_dma_stream_t\000"
 22719      325F646D 
 22719      615F7374 
 22719      7265616D 
 22719      5F7400
 22720              	.LASF971:
 22721 1cca 72657175 		.ascii	"requests_hook_cb\000"
 22721      65737473 
 22721      5F686F6F 
 22721      6B5F6362 
 22721      00
 22722              	.LASF119:
 22723 1cdb 5F776372 		.ascii	"_wcrtomb_state\000"
 22723      746F6D62 
 22723      5F737461 
 22723      746500
 22724              	.LASF579:
 22725 1cea 4E52465F 		.ascii	"NRF_RETR_DELAY_2750US\000"
 22725      52455452 
 22725      5F44454C 
 22725      41595F32 
 22725      37353055 
 22726              	.LASF404:
 22727 1d00 68616C6C 		.ascii	"hall_table\000"
 22727      5F746162 
 22727      6C6500
 22728              	.LASF995:
 22729 1d0b 73746174 		.ascii	"stat_msgs_2\000"
 22729      5F6D7367 
 22729      735F3200 
 22730              	.LASF996:
 22731 1d17 73746174 		.ascii	"stat_msgs_3\000"
 22731      5F6D7367 
 22731      735F3300 
 22732              	.LASF627:
 22733 1d23 43414E5F 		.ascii	"CAN_PACKET_STATUS\000"
 22733      5041434B 
 22733      45545F53 
 22733      54415455 
 22733      5300
 22734              	.LASF1096:
 22735 1d35 6D635F69 		.ascii	"mc_interface_get_pid_pos_now\000"
 22735      6E746572 
 22735      66616365 
ARM GAS  /tmp/ccjQGkoy.s 			page 424


 22735      5F676574 
 22735      5F706964 
 22736              	.LASF778:
 22737 1d52 69637566 		.ascii	"icufreq_t\000"
 22737      7265715F 
 22737      7400
 22738              	.LASF269:
 22739 1d5c 6D5F7175 		.ascii	"m_queue\000"
 22739      65756500 
 22740              	.LASF728:
 22741 1d64 4932435F 		.ascii	"I2C_LOCKED\000"
 22741      4C4F434B 
 22741      454400
 22742              	.LASF784:
 22743 1d6f 77696474 		.ascii	"width_cb\000"
 22743      685F6362 
 22743      00
 22744              	.LASF337:
 22745 1d78 4D4F544F 		.ascii	"MOTOR_TYPE_DC\000"
 22745      525F5459 
 22745      50455F44 
 22745      4300
 22746              	.LASF575:
 22747 1d86 4E52465F 		.ascii	"NRF_RETR_DELAY_1750US\000"
 22747      52455452 
 22747      5F44454C 
 22747      41595F31 
 22747      37353055 
 22748              	.LASF1026:
 22749 1d9c 72657375 		.ascii	"result\000"
 22749      6C7400
 22750              	.LASF839:
 22751 1da3 5553425F 		.ascii	"USB_READY\000"
 22751      52454144 
 22751      5900
 22752              	.LASF497:
 22753 1dad 50504D5F 		.ascii	"PPM_CTRL_TYPE_CURRENT\000"
 22753      4354524C 
 22753      5F545950 
 22753      455F4355 
 22753      5252454E 
 22754              	.LASF615:
 22755 1dc3 6170705F 		.ascii	"app_chuk_conf\000"
 22755      6368756B 
 22755      5F636F6E 
 22755      6600
 22756              	.LASF420:
 22757 1dd1 666F635F 		.ascii	"foc_motor_flux_linkage\000"
 22757      6D6F746F 
 22757      725F666C 
 22757      75785F6C 
 22757      696E6B61 
 22758              	.LASF442:
 22759 1de8 6770645F 		.ascii	"gpd_buffer_interpol\000"
 22759      62756666 
 22759      65725F69 
 22759      6E746572 
ARM GAS  /tmp/ccjQGkoy.s 			page 425


 22759      706F6C00 
 22760              	.LASF891:
 22761 1dfc 47525354 		.ascii	"GRSTCTL\000"
 22761      43544C00 
 22762              	.LASF400:
 22763 1e04 736C5F63 		.ascii	"sl_cycle_int_limit\000"
 22763      79636C65 
 22763      5F696E74 
 22763      5F6C696D 
 22763      697400
 22764              	.LASF135:
 22765 1e17 696E7438 		.ascii	"int8_t\000"
 22765      5F7400
 22766              	.LASF29:
 22767 1e1e 5F5F554C 		.ascii	"__ULong\000"
 22767      6F6E6700 
 22768              	.LASF201:
 22769 1e26 70616E69 		.ascii	"panic_msg\000"
 22769      635F6D73 
 22769      6700
 22770              	.LASF603:
 22771 1e30 74696D65 		.ascii	"timeout_brake_current\000"
 22771      6F75745F 
 22771      6272616B 
 22771      655F6375 
 22771      7272656E 
 22772              	.LASF810:
 22773 1e46 5350495F 		.ascii	"SPI_COMPLETE\000"
 22773      434F4D50 
 22773      4C455445 
 22773      00
 22774              	.LASF185:
 22775 1e53 725F6E65 		.ascii	"r_newer\000"
 22775      77657200 
 22776              	.LASF762:
 22777 1e5b 77636372 		.ascii	"wccrp\000"
 22777      7000
 22778              	.LASF492:
 22779 1e61 5448525F 		.ascii	"THR_EXP_EXPO\000"
 22779      4558505F 
 22779      4558504F 
 22779      00
 22780              	.LASF290:
 22781 1e6e 63686465 		.ascii	"chdebug_t\000"
 22781      6275675F 
 22781      7400
 22782              	.LASF643:
 22783 1e78 43414E5F 		.ascii	"CAN_PACKET_CONF_FOC_ERPMS\000"
 22783      5041434B 
 22783      45545F43 
 22783      4F4E465F 
 22783      464F435F 
 22784              	.LASF955:
 22785 1e92 72787369 		.ascii	"rxsize\000"
 22785      7A6500
 22786              	.LASF757:
 22787 1e99 4943555F 		.ascii	"ICU_WAITING\000"
ARM GAS  /tmp/ccjQGkoy.s 			page 426


 22787      57414954 
 22787      494E4700 
 22788              	.LASF870:
 22789 1ea5 48435453 		.ascii	"HCTSIZ\000"
 22789      495A00
 22790              	.LASF853:
 22791 1eac 5553425F 		.ascii	"USB_EVENT_CONFIGURED\000"
 22791      4556454E 
 22791      545F434F 
 22791      4E464947 
 22791      55524544 
 22792              	.LASF802:
 22793 1ec1 70757474 		.ascii	"putt\000"
 22793      00
 22794              	.LASF146:
 22795 1ec6 74736C69 		.ascii	"tslices_t\000"
 22795      6365735F 
 22795      7400
 22796              	.LASF104:
 22797 1ed0 5F737472 		.ascii	"_strtok_last\000"
 22797      746F6B5F 
 22797      6C617374 
 22797      00
 22798              	.LASF277:
 22799 1edd 63685F74 		.ascii	"ch_timesize\000"
 22799      696D6573 
 22799      697A6500 
 22800              	.LASF510:
 22801 1ee9 70756C73 		.ascii	"pulse_center\000"
 22801      655F6365 
 22801      6E746572 
 22801      00
 22802              	.LASF835:
 22803 1ef6 77615F70 		.ascii	"wa_pump\000"
 22803      756D7000 
 22804              	.LASF535:
 22805 1efe 4144435F 		.ascii	"ADC_CTRL_TYPE_PID_REV_BUTTON\000"
 22805      4354524C 
 22805      5F545950 
 22805      455F5049 
 22805      445F5245 
 22806              	.LASF302:
 22807 1f1b 6576656E 		.ascii	"event_source_t\000"
 22807      745F736F 
 22807      75726365 
 22807      5F7400
 22808              	.LASF905:
 22809 1f2a 72657376 		.ascii	"resvd140\000"
 22809      64313430 
 22809      00
 22810              	.LASF193:
 22811 1f33 76745F64 		.ascii	"vt_delta\000"
 22811      656C7461 
 22811      00
 22812              	.LASF100:
 22813 1f3c 5F736565 		.ascii	"_seed\000"
 22813      6400
ARM GAS  /tmp/ccjQGkoy.s 			page 427


 22814              	.LASF359:
 22815 1f42 42415454 		.ascii	"BATTERY_TYPE_LEAD_ACID\000"
 22815      4552595F 
 22815      54595045 
 22815      5F4C4541 
 22815      445F4143 
 22816              	.LASF63:
 22817 1f59 5F736565 		.ascii	"_seek\000"
 22817      6B00
 22818              	.LASF696:
 22819 1f5f 696F706F 		.ascii	"ioportmask_t\000"
 22819      72746D61 
 22819      736B5F74 
 22819      00
 22820              	.LASF854:
 22821 1f6c 5553425F 		.ascii	"USB_EVENT_SUSPEND\000"
 22821      4556454E 
 22821      545F5355 
 22821      5350454E 
 22821      4400
 22822              	.LASF358:
 22823 1f7e 42415454 		.ascii	"BATTERY_TYPE_LIIRON_2_6__3_6\000"
 22823      4552595F 
 22823      54595045 
 22823      5F4C4949 
 22823      524F4E5F 
 22824              	.LASF137:
 22825 1f9b 696E7431 		.ascii	"int16_t\000"
 22825      365F7400 
 22826              	.LASF1010:
 22827 1fa3 72786275 		.ascii	"rxbuf_len\000"
 22827      665F6C65 
 22827      6E00
 22828              	.LASF883:
 22829 1fad 444F4550 		.ascii	"DOEPCTL\000"
 22829      43544C00 
 22830              	.LASF10:
 22831 1fb5 73686F72 		.ascii	"short unsigned int\000"
 22831      7420756E 
 22831      7369676E 
 22831      65642069 
 22831      6E7400
 22832              	.LASF4:
 22833 1fc8 7369676E 		.ascii	"signed char\000"
 22833      65642063 
 22833      68617200 
 22834              	.LASF611:
 22835 1fd4 6170705F 		.ascii	"app_to_use\000"
 22835      746F5F75 
 22835      736500
 22836              	.LASF1035:
 22837 1fdf 636F6D6D 		.ascii	"comm_can_get_status_msg_id\000"
 22837      5F63616E 
 22837      5F676574 
 22837      5F737461 
 22837      7475735F 
 22838              	.LASF389:
ARM GAS  /tmp/ccjQGkoy.s 			page 428


 22839 1ffa 6C5F6375 		.ascii	"l_current_max_scale\000"
 22839      7272656E 
 22839      745F6D61 
 22839      785F7363 
 22839      616C6500 
 22840              	.LASF1094:
 22841 200e 6D635F69 		.ascii	"mc_interface_temp_motor_filtered\000"
 22841      6E746572 
 22841      66616365 
 22841      5F74656D 
 22841      705F6D6F 
 22842              	.LASF166:
 22843 202f 705F7072 		.ascii	"p_preempt\000"
 22843      65656D70 
 22843      7400
 22844              	.LASF371:
 22845 2039 6C5F6D61 		.ascii	"l_max_erpm\000"
 22845      785F6572 
 22845      706D00
 22846              	.LASF167:
 22847 2044 705F7469 		.ascii	"p_time\000"
 22847      6D6500
 22848              	.LASF212:
 22849 204b 54444852 		.ascii	"TDHR\000"
 22849      00
 22850              	.LASF847:
 22851 2050 5553425F 		.ascii	"USB_EP0_RX\000"
 22851      4550305F 
 22851      525800
 22852              	.LASF647:
 22853 205b 63757272 		.ascii	"current\000"
 22853      656E7400 
 22854              	.LASF130:
 22855 2063 5F5F6664 		.ascii	"__fdlibm_ieee\000"
 22855      6C69626D 
 22855      5F696565 
 22855      6500
 22856              	.LASF997:
 22857 2071 73746174 		.ascii	"stat_msgs_4\000"
 22857      5F6D7367 
 22857      735F3400 
 22858              	.LASF829:
 22859 207d 73746174 		.ascii	"status\000"
 22859      757300
 22860              	.LASF860:
 22861 2084 55534244 		.ascii	"USBDescriptor\000"
 22861      65736372 
 22861      6970746F 
 22861      7200
 22862              	.LASF974:
 22863 2092 55534244 		.ascii	"USBD1\000"
 22863      3100
 22864              	.LASF495:
 22865 2098 7468725F 		.ascii	"thr_exp_mode\000"
 22865      6578705F 
 22865      6D6F6465 
 22865      00
ARM GAS  /tmp/ccjQGkoy.s 			page 429


 22866              	.LASF1106:
 22867 20a5 62756666 		.ascii	"buffer_get_int32\000"
 22867      65725F67 
 22867      65745F69 
 22867      6E743332 
 22867      00
 22868              	.LASF87:
 22869 20b6 5F667265 		.ascii	"_freelist\000"
 22869      656C6973 
 22869      7400
 22870              	.LASF612:
 22871 20c0 6170705F 		.ascii	"app_ppm_conf\000"
 22871      70706D5F 
 22871      636F6E66 
 22871      00
 22872              	.LASF980:
 22873 20cd 54485245 		.ascii	"THREAD_USB\000"
 22873      41445F55 
 22873      534200
 22874              	.LASF335:
 22875 20d8 6F75745F 		.ascii	"out_aux_mode\000"
 22875      6175785F 
 22875      6D6F6465 
 22875      00
 22876              	.LASF169:
 22877 20e5 705F6D73 		.ascii	"p_msgqueue\000"
 22877      67717565 
 22877      756500
 22878              	.LASF287:
 22879 20f0 63665F6F 		.ascii	"cf_off_refs\000"
 22879      66665F72 
 22879      65667300 
 22880              	.LASF426:
 22881 20fc 666F635F 		.ascii	"foc_duty_dowmramp_ki\000"
 22881      64757479 
 22881      5F646F77 
 22881      6D72616D 
 22881      705F6B69 
 22882              	.LASF285:
 22883 2111 63665F6F 		.ascii	"cf_off_state\000"
 22883      66665F73 
 22883      74617465 
 22883      00
 22884              	.LASF569:
 22885 211e 4E52465F 		.ascii	"NRF_RETR_DELAY_250US\000"
 22885      52455452 
 22885      5F44454C 
 22885      41595F32 
 22885      35305553 
 22886              	.LASF270:
 22887 2133 6D5F6F77 		.ascii	"m_owner\000"
 22887      6E657200 
 22888              	.LASF425:
 22889 213b 666F635F 		.ascii	"foc_duty_dowmramp_kp\000"
 22889      64757479 
 22889      5F646F77 
 22889      6D72616D 
ARM GAS  /tmp/ccjQGkoy.s 			page 430


 22889      705F6B70 
 22890              	.LASF68:
 22891 2150 5F6F6666 		.ascii	"_offset\000"
 22891      73657400 
 22892              	.LASF209:
 22893 2158 53797374 		.ascii	"SystemCoreClock\000"
 22893      656D436F 
 22893      7265436C 
 22893      6F636B00 
 22894              	.LASF613:
 22895 2168 6170705F 		.ascii	"app_adc_conf\000"
 22895      6164635F 
 22895      636F6E66 
 22895      00
 22896              	.LASF712:
 22897 2175 73746174 		.ascii	"state\000"
 22897      6500
 22898              	.LASF275:
 22899 217b 63685F76 		.ascii	"ch_version\000"
 22899      65727369 
 22899      6F6E00
 22900              	.LASF1029:
 22901 2186 636F6D6D 		.ascii	"comm_can_get_status_msg_4_index\000"
 22901      5F63616E 
 22901      5F676574 
 22901      5F737461 
 22901      7475735F 
 22902              	.LASF53:
 22903 21a6 5F5F7362 		.ascii	"__sbuf\000"
 22903      756600
 22904              	.LASF846:
 22905 21ad 5553425F 		.ascii	"USB_EP0_WAITING_STS\000"
 22905      4550305F 
 22905      57414954 
 22905      494E475F 
 22905      53545300 
 22906              	.LASF113:
 22907 21c1 5F6C3634 		.ascii	"_l64a_buf\000"
 22907      615F6275 
 22907      6600
 22908              	.LASF981:
 22909 21cb 54485245 		.ascii	"THREAD_APP\000"
 22909      41445F41 
 22909      505000
 22910              	.LASF216:
 22911 21d6 52444852 		.ascii	"RDHR\000"
 22911      00
 22912              	.LASF817:
 22913 21db 53504943 		.ascii	"SPIConfig\000"
 22913      6F6E6669 
 22913      6700
 22914              	.LASF771:
 22915 21e5 444D4152 		.ascii	"DMAR\000"
 22915      00
 22916              	.LASF203:
 22917 21ea 63685F73 		.ascii	"ch_system\000"
 22917      79737465 
ARM GAS  /tmp/ccjQGkoy.s 			page 431


 22917      6D00
 22918              	.LASF365:
 22919 21f4 6C5F6375 		.ascii	"l_current_max\000"
 22919      7272656E 
 22919      745F6D61 
 22919      7800
 22920              	.LASF390:
 22921 2202 6C5F6375 		.ascii	"l_current_min_scale\000"
 22921      7272656E 
 22921      745F6D69 
 22921      6E5F7363 
 22921      616C6500 
 22922              	.LASF105:
 22923 2216 5F617363 		.ascii	"_asctime_buf\000"
 22923      74696D65 
 22923      5F627566 
 22923      00
 22924              	.LASF22:
 22925 2223 5F5F7763 		.ascii	"__wch\000"
 22925      6800
 22926              	.LASF555:
 22927 2229 4E52465F 		.ascii	"NRF_SPEED_250K\000"
 22927      53504545 
 22927      445F3235 
 22927      304B00
 22928              	.LASF265:
 22929 2238 63685F73 		.ascii	"ch_semaphore\000"
 22929      656D6170 
 22929      686F7265 
 22929      00
 22930              	.LASF629:
 22931 2245 43414E5F 		.ascii	"CAN_PACKET_SET_CURRENT_BRAKE_REL\000"
 22931      5041434B 
 22931      45545F53 
 22931      45545F43 
 22931      55525245 
 22932              	.LASF120:
 22933 2266 5F776373 		.ascii	"_wcsrtombs_state\000"
 22933      72746F6D 
 22933      62735F73 
 22933      74617465 
 22933      00
 22934              	.LASF499:
 22935 2277 50504D5F 		.ascii	"PPM_CTRL_TYPE_CURRENT_NOREV_BRAKE\000"
 22935      4354524C 
 22935      5F545950 
 22935      455F4355 
 22935      5252454E 
 22936              	.LASF1039:
 22937 2299 636F6D6D 		.ascii	"comm_can_conf_foc_erpms\000"
 22937      5F63616E 
 22937      5F636F6E 
 22937      665F666F 
 22937      635F6572 
 22938              	.LASF879:
 22939 22b1 44494550 		.ascii	"DIEPTSIZ\000"
 22939      5453495A 
ARM GAS  /tmp/ccjQGkoy.s 			page 432


 22939      00
 22940              	.LASF551:
 22941 22ba 4348554B 		.ascii	"CHUK_CTRL_TYPE_CURRENT_NOREV\000"
 22941      5F435452 
 22941      4C5F5459 
 22941      50455F43 
 22941      55525245 
 22942              	.LASF549:
 22943 22d7 4348554B 		.ascii	"CHUK_CTRL_TYPE_NONE\000"
 22943      5F435452 
 22943      4C5F5459 
 22943      50455F4E 
 22943      4F4E4500 
 22944              	.LASF1100:
 22945 22eb 6170705F 		.ascii	"app_set_configuration\000"
 22945      7365745F 
 22945      636F6E66 
 22945      69677572 
 22945      6174696F 
 22946              	.LASF541:
 22947 2301 766F6C74 		.ascii	"voltage2_end\000"
 22947      61676532 
 22947      5F656E64 
 22947      00
 22948              	.LASF178:
 22949 230e 74687265 		.ascii	"threads_queue_t\000"
 22949      6164735F 
 22949      71756575 
 22949      655F7400 
 22950              	.LASF341:
 22951 231e 53454E53 		.ascii	"SENSOR_PORT_MODE_HALL\000"
 22951      4F525F50 
 22951      4F52545F 
 22951      4D4F4445 
 22951      5F48414C 
 22952              	.LASF588:
 22953 2334 6372635F 		.ascii	"crc_type\000"
 22953      74797065 
 22953      00
 22954              	.LASF1142:
 22955 233d 5F5F6664 		.ascii	"__fdlibm_version\000"
 22955      6C69626D 
 22955      5F766572 
 22955      73696F6E 
 22955      00
 22956              	.LASF975:
 22957 234e 4144435F 		.ascii	"ADC_Value\000"
 22957      56616C75 
 22957      6500
 22958              	.LASF1057:
 22959 2358 656E645F 		.ascii	"end_a\000"
 22959      6100
 22960              	.LASF327:
 22961 235e 464F435F 		.ascii	"FOC_SENSOR_MODE_SENSORLESS\000"
 22961      53454E53 
 22961      4F525F4D 
 22961      4F44455F 
ARM GAS  /tmp/ccjQGkoy.s 			page 433


 22961      53454E53 
 22962              	.LASF165:
 22963 2379 705F7265 		.ascii	"p_refs\000"
 22963      667300
 22964              	.LASF552:
 22965 2380 6368756B 		.ascii	"chuk_control_type\000"
 22965      5F636F6E 
 22965      74726F6C 
 22965      5F747970 
 22965      6500
 22966              	.LASF886:
 22967 2392 73746D33 		.ascii	"stm32_otg_out_ep_t\000"
 22967      325F6F74 
 22967      675F6F75 
 22967      745F6570 
 22967      5F7400
 22968              	.LASF326:
 22969 23a5 6D635F73 		.ascii	"mc_sensor_mode\000"
 22969      656E736F 
 22969      725F6D6F 
 22969      646500
 22970              	.LASF211:
 22971 23b4 54444C52 		.ascii	"TDLR\000"
 22971      00
 22972              	.LASF1028:
 22973 23b9 636F6D6D 		.ascii	"comm_can_get_status_msg_4_id\000"
 22973      5F63616E 
 22973      5F676574 
 22973      5F737461 
 22973      7475735F 
 22974              	.LASF12:
 22975 23d6 6C6F6E67 		.ascii	"long int\000"
 22975      20696E74 
 22975      00
 22976              	.LASF206:
 22977 23df 6D61696E 		.ascii	"mainthread\000"
 22977      74687265 
 22977      616400
 22978              	.LASF826:
 22979 23ea 6570306E 		.ascii	"ep0n\000"
 22979      00
 22980              	.LASF730:
 22981 23ef 69326361 		.ascii	"i2caddr_t\000"
 22981      6464725F 
 22981      7400
 22982              	.LASF112:
 22983 23f9 5F776374 		.ascii	"_wctomb_state\000"
 22983      6F6D625F 
 22983      73746174 
 22983      6500
 22984              	.LASF306:
 22985 2407 715F636F 		.ascii	"q_counter\000"
 22985      756E7465 
 22985      7200
 22986              	.LASF1109:
 22987 2411 6D635F69 		.ascii	"mc_interface_set_handbrake_rel\000"
 22987      6E746572 
ARM GAS  /tmp/ccjQGkoy.s 			page 434


 22987      66616365 
 22987      5F736574 
 22987      5F68616E 
 22988              	.LASF693:
 22989 2430 50484461 		.ascii	"PHData\000"
 22989      746100
 22990              	.LASF697:
 22991 2437 696F706F 		.ascii	"ioportid_t\000"
 22991      72746964 
 22991      5F7400
 22992              	.LASF1123:
 22993 2442 74696D65 		.ascii	"timeout_feed_WDT\000"
 22993      6F75745F 
 22993      66656564 
 22993      5F574454 
 22993      00
 22994              	.LASF320:
 22995 2453 434F4D4D 		.ascii	"COMM_MODE_INTEGRATE\000"
 22995      5F4D4F44 
 22995      455F494E 
 22995      54454752 
 22995      41544500 
 22996              	.LASF906:
 22997 2467 48434647 		.ascii	"HCFG\000"
 22997      00
 22998              	.LASF652:
 22999 246c 63616E5F 		.ascii	"can_status_msg_2\000"
 22999      73746174 
 22999      75735F6D 
 22999      73675F32 
 22999      00
 23000              	.LASF655:
 23001 247d 63616E5F 		.ascii	"can_status_msg_3\000"
 23001      73746174 
 23001      75735F6D 
 23001      73675F33 
 23001      00
 23002              	.LASF660:
 23003 248e 63616E5F 		.ascii	"can_status_msg_4\000"
 23003      73746174 
 23003      75735F6D 
 23003      73675F34 
 23003      00
 23004              	.LASF639:
 23005 249f 43414E5F 		.ascii	"CAN_PACKET_CONF_CURRENT_LIMITS\000"
 23005      5041434B 
 23005      45545F43 
 23005      4F4E465F 
 23005      43555252 
 23006              	.LASF98:
 23007 24be 5F696F62 		.ascii	"_iobs\000"
 23007      7300
 23008              	.LASF79:
 23009 24c4 5F656D65 		.ascii	"_emergency\000"
 23009      7267656E 
 23009      637900
 23010              	.LASF803:
ARM GAS  /tmp/ccjQGkoy.s 			page 435


 23011 24cf 67657474 		.ascii	"gett\000"
 23011      00
 23012              	.LASF513:
 23013 24d4 7468726F 		.ascii	"throttle_exp\000"
 23013      74746C65 
 23013      5F657870 
 23013      00
 23014              	.LASF502:
 23015 24e1 50504D5F 		.ascii	"PPM_CTRL_TYPE_PID\000"
 23015      4354524C 
 23015      5F545950 
 23015      455F5049 
 23015      4400
 23016              	.LASF261:
 23017 24f3 77747472 		.ascii	"wttrp\000"
 23017      7000
 23018              	.LASF310:
 23019 24f9 715F7264 		.ascii	"q_rdptr\000"
 23019      70747200 
 23020              	.LASF122:
 23021 2501 5F6E6578 		.ascii	"_nextf\000"
 23021      746600
 23022              	.LASF800:
 23023 2508 77726974 		.ascii	"write\000"
 23023      6500
 23024              	.LASF108:
 23025 250e 5F72616E 		.ascii	"_rand_next\000"
 23025      645F6E65 
 23025      787400
 23026              	.LASF796:
 23027 2519 69717565 		.ascii	"iqueue\000"
 23027      756500
 23028              	.LASF960:
 23029 2520 696E5F63 		.ascii	"in_cb\000"
 23029      6200
 23030              	.LASF474:
 23031 2526 73695F6D 		.ascii	"si_motor_poles\000"
 23031      6F746F72 
 23031      5F706F6C 
 23031      657300
 23032              	.LASF884:
 23033 2535 444F4550 		.ascii	"DOEPINT\000"
 23033      494E5400 
 23034              	.LASF1086:
 23035 253d 6D635F69 		.ascii	"mc_interface_get_tot_current_filtered\000"
 23035      6E746572 
 23035      66616365 
 23035      5F676574 
 23035      5F746F74 
 23036              	.LASF675:
 23037 2563 4C434B52 		.ascii	"LCKR\000"
 23037      00
 23038              	.LASF412:
 23039 2568 666F635F 		.ascii	"foc_encoder_ratio\000"
 23039      656E636F 
 23039      6465725F 
 23039      72617469 
ARM GAS  /tmp/ccjQGkoy.s 			page 436


 23039      6F00
 23040              	.LASF793:
 23041 257a 73647374 		.ascii	"sdstate_t\000"
 23041      6174655F 
 23041      7400
 23042              	.LASF140:
 23043 2584 75696E74 		.ascii	"uint32_t\000"
 23043      33325F74 
 23043      00
 23044              	.LASF661:
 23045 258d 636F6E66 		.ascii	"conf_general_permanent_nrf_found\000"
 23045      5F67656E 
 23045      6572616C 
 23045      5F706572 
 23045      6D616E65 
 23046              	.LASF31:
 23047 25ae 5F6D6178 		.ascii	"_maxwds\000"
 23047      77647300 
 23048              	.LASF864:
 23049 25b6 75736272 		.ascii	"usbreqhandler_t\000"
 23049      65716861 
 23049      6E646C65 
 23049      725F7400 
 23050              	.LASF215:
 23051 25c6 52444C52 		.ascii	"RDLR\000"
 23051      00
 23052              	.LASF1011:
 23053 25cb 72786275 		.ascii	"rxbuf_ind\000"
 23053      665F696E 
 23053      6400
 23054              	.LASF1053:
 23055 25d5 636F6D6D 		.ascii	"comm_can_set_current\000"
 23055      5F63616E 
 23055      5F736574 
 23055      5F637572 
 23055      72656E74 
 23056              	.LASF619:
 23057 25ea 43414E5F 		.ascii	"CAN_PACKET_SET_CURRENT\000"
 23057      5041434B 
 23057      45545F53 
 23057      45545F43 
 23057      55525245 
 23058              	.LASF564:
 23059 2601 4E52465F 		.ascii	"NRF_POWER\000"
 23059      504F5745 
 23059      5200
 23060              	.LASF1081:
 23061 260b 706F7274 		.ascii	"port_lock\000"
 23061      5F6C6F63 
 23061      6B00
 23062              	.LASF252:
 23063 2615 72656761 		.ascii	"regarm_t\000"
 23063      726D5F74 
 23063      00
 23064              	.LASF150:
 23065 261e 6576656E 		.ascii	"eventmask_t\000"
 23065      746D6173 
ARM GAS  /tmp/ccjQGkoy.s 			page 437


 23065      6B5F7400 
 23066              	.LASF851:
 23067 262a 5553425F 		.ascii	"USB_EVENT_RESET\000"
 23067      4556454E 
 23067      545F5245 
 23067      53455400 
 23068              	.LASF229:
 23069 263a 46464131 		.ascii	"FFA1R\000"
 23069      5200
 23070              	.LASF220:
 23071 2640 52463152 		.ascii	"RF1R\000"
 23071      00
 23072              	.LASF840:
 23073 2645 5553425F 		.ascii	"USB_SELECTED\000"
 23073      53454C45 
 23073      43544544 
 23073      00
 23074              	.LASF530:
 23075 2652 4144435F 		.ascii	"ADC_CTRL_TYPE_DUTY\000"
 23075      4354524C 
 23075      5F545950 
 23075      455F4455 
 23075      545900
 23076              	.LASF1126:
 23077 2665 63684D74 		.ascii	"chMtxLock\000"
 23077      784C6F63 
 23077      6B00
 23078              	.LASF14:
 23079 266f 6C6F6E67 		.ascii	"long unsigned int\000"
 23079      20756E73 
 23079      69676E65 
 23079      6420696E 
 23079      7400
 23080              	.LASF460:
 23081 2681 63635F72 		.ascii	"cc_ramp_step_max\000"
 23081      616D705F 
 23081      73746570 
 23081      5F6D6178 
 23081      00
 23082              	.LASF1091:
 23083 2692 6D635F69 		.ascii	"mc_interface_get_watt_hours\000"
 23083      6E746572 
 23083      66616365 
 23083      5F676574 
 23083      5F776174 
 23084              	.LASF454:
 23085 26ae 705F7069 		.ascii	"p_pid_kd\000"
 23085      645F6B64 
 23085      00
 23086              	.LASF453:
 23087 26b7 705F7069 		.ascii	"p_pid_ki\000"
 23087      645F6B69 
 23087      00
 23088              	.LASF565:
 23089 26c0 4E52465F 		.ascii	"NRF_CRC_DISABLED\000"
 23089      4352435F 
 23089      44495341 
ARM GAS  /tmp/ccjQGkoy.s 			page 438


 23089      424C4544 
 23089      00
 23090              	.LASF309:
 23091 26d1 715F7772 		.ascii	"q_wrptr\000"
 23091      70747200 
 23092              	.LASF452:
 23093 26d9 705F7069 		.ascii	"p_pid_kp\000"
 23093      645F6B70 
 23093      00
 23094              	.LASF760:
 23095 26e2 49435544 		.ascii	"ICUDriver\000"
 23095      72697665 
 23095      7200
 23096              	.LASF984:
 23097 26ec 63616E63 		.ascii	"cancom_status_thread_wa\000"
 23097      6F6D5F73 
 23097      74617475 
 23097      735F7468 
 23097      72656164 
 23098              	.LASF587:
 23099 2704 706F7765 		.ascii	"power\000"
 23099      7200
 23100              	.LASF482:
 23101 270a 4150505F 		.ascii	"APP_NONE\000"
 23101      4E4F4E45 
 23101      00
 23102              	.LASF317:
 23103 2713 50574D5F 		.ascii	"PWM_MODE_SYNCHRONOUS\000"
 23103      4D4F4445 
 23103      5F53594E 
 23103      4348524F 
 23103      4E4F5553 
 23104              	.LASF470:
 23105 2728 6D5F626C 		.ascii	"m_bldc_f_sw_max\000"
 23105      64635F66 
 23105      5F73775F 
 23105      6D617800 
 23106              	.LASF949:
 23107 2738 74787369 		.ascii	"txsize\000"
 23107      7A6500
 23108              	.LASF351:
 23109 273f 64727638 		.ascii	"drv8301_oc_mode\000"
 23109      3330315F 
 23109      6F635F6D 
 23109      6F646500 
 23110              	.LASF438:
 23111 274f 666F635F 		.ascii	"foc_temp_comp\000"
 23111      74656D70 
 23111      5F636F6D 
 23111      7000
 23112              	.LASF538:
 23113 275d 766F6C74 		.ascii	"voltage_end\000"
 23113      6167655F 
 23113      656E6400 
 23114              	.LASF716:
 23115 2769 72786675 		.ascii	"rxfull_event\000"
 23115      6C6C5F65 
ARM GAS  /tmp/ccjQGkoy.s 			page 439


 23115      76656E74 
 23115      00
 23116              	.LASF1112:
 23117 2776 6D635F69 		.ascii	"mc_interface_set_brake_current_rel\000"
 23117      6E746572 
 23117      66616365 
 23117      5F736574 
 23117      5F627261 
 23118              	.LASF1140:
 23119 2799 636F6D6D 		.ascii	"comm_can.c\000"
 23119      5F63616E 
 23119      2E6300
 23120              	.LASF64:
 23121 27a4 5F636C6F 		.ascii	"_close\000"
 23121      736500
 23122              	.LASF635:
 23123 27ab 43414E5F 		.ascii	"CAN_PACKET_PING\000"
 23123      5041434B 
 23123      45545F50 
 23123      494E4700 
 23124              	.LASF1087:
 23125 27bb 62756666 		.ascii	"buffer_append_int16\000"
 23125      65725F61 
 23125      7070656E 
 23125      645F696E 
 23125      74313600 
 23126              	.LASF28:
 23127 27cf 63686172 		.ascii	"char\000"
 23127      00
 23128              	.LASF711:
 23129 27d4 43414E43 		.ascii	"CANConfig\000"
 23129      6F6E6669 
 23129      6700
 23130              	.LASF690:
 23131 27de 50454461 		.ascii	"PEData\000"
 23131      746100
 23132              	.LASF182:
 23133 27e5 725F7175 		.ascii	"r_queue\000"
 23133      65756500 
 23134              	.LASF96:
 23135 27ed 5F676C75 		.ascii	"_glue\000"
 23135      6500
 23136              	.LASF403:
 23137 27f3 736C5F62 		.ascii	"sl_bemf_coupling_k\000"
 23137      656D665F 
 23137      636F7570 
 23137      6C696E67 
 23137      5F6B00
 23138              	.LASF1093:
 23139 2806 6D635F69 		.ascii	"mc_interface_temp_fet_filtered\000"
 23139      6E746572 
 23139      66616365 
 23139      5F74656D 
 23139      705F6665 
 23140              	.LASF384:
 23141 2825 6C5F7465 		.ascii	"l_temp_accel_dec\000"
 23141      6D705F61 
ARM GAS  /tmp/ccjQGkoy.s 			page 440


 23141      6363656C 
 23141      5F646563 
 23141      00
 23142              	.LASF516:
 23143 2836 72616D70 		.ascii	"ramp_time_pos\000"
 23143      5F74696D 
 23143      655F706F 
 23143      7300
 23144              	.LASF798:
 23145 2844 75736172 		.ascii	"usart\000"
 23145      7400
 23146              	.LASF1040:
 23147 284a 636F6D6D 		.ascii	"comm_can_conf_current_limits_in\000"
 23147      5F63616E 
 23147      5F636F6E 
 23147      665F6375 
 23147      7272656E 
 23148              	.LASF312:
 23149 286a 715F6C69 		.ascii	"q_link\000"
 23149      6E6B00
 23150              	.LASF1005:
 23151 2871 636F6E66 		.ascii	"conf\000"
 23151      00
 23152              	.LASF583:
 23153 2876 4E52465F 		.ascii	"NRF_RETR_DELAY_3750US\000"
 23153      52455452 
 23153      5F44454C 
 23153      41595F33 
 23153      37353055 
 23154              	.LASF986:
 23155 288c 63616E5F 		.ascii	"can_rx_mtx\000"
 23155      72785F6D 
 23155      747800
 23156              	.LASF779:
 23157 2897 4943555F 		.ascii	"ICU_CHANNEL_1\000"
 23157      4348414E 
 23157      4E454C5F 
 23157      3100
 23158              	.LASF1108:
 23159 28a5 63684576 		.ascii	"chEvtSignal\000"
 23159      74536967 
 23159      6E616C00 
 23160              	.LASF486:
 23161 28b1 4150505F 		.ascii	"APP_PPM_UART\000"
 23161      50504D5F 
 23161      55415254 
 23161      00
 23162              	.LASF34:
 23163 28be 5F426967 		.ascii	"_Bigint\000"
 23163      696E7400 
 23164              	.LASF382:
 23165 28c6 6C5F7465 		.ascii	"l_temp_motor_start\000"
 23165      6D705F6D 
 23165      6F746F72 
 23165      5F737461 
 23165      727400
 23166              	.LASF1074:
ARM GAS  /tmp/ccjQGkoy.s 			page 441


 23167 28d9 63685468 		.ascii	"chThdGetSelfX\000"
 23167      64476574 
 23167      53656C66 
 23167      5800
 23168              	.LASF893:
 23169 28e7 47494E54 		.ascii	"GINTMSK\000"
 23169      4D534B00 
 23170              	.LASF478:
 23171 28ef 73695F62 		.ascii	"si_battery_cells\000"
 23171      61747465 
 23171      72795F63 
 23171      656C6C73 
 23171      00
 23172              	.LASF764:
 23173 2900 69637563 		.ascii	"icucallback_t\000"
 23173      616C6C62 
 23173      61636B5F 
 23173      7400
 23174              	.LASF563:
 23175 290e 4E52465F 		.ascii	"NRF_POWER_OFF\000"
 23175      504F5745 
 23175      525F4F46 
 23175      4600
 23176              	.LASF898:
 23177 291c 484E5054 		.ascii	"HNPTXSTS\000"
 23177      58535453 
 23177      00
 23178              	.LASF985:
 23179 2925 63616E5F 		.ascii	"can_mtx\000"
 23179      6D747800 
 23180              	.LASF987:
 23181 292d 72785F62 		.ascii	"rx_buffer\000"
 23181      75666665 
 23181      7200
 23182              	.LASF830:
 23183 2937 636F6E66 		.ascii	"configuration\000"
 23183      69677572 
 23183      6174696F 
 23183      6E00
 23184              	.LASF1048:
 23185 2945 636F6D6D 		.ascii	"comm_can_set_current_brake_rel\000"
 23185      5F63616E 
 23185      5F736574 
 23185      5F637572 
 23185      72656E74 
 23186              	.LASF976:
 23187 2964 4144435F 		.ascii	"ADC_curr_norm_value\000"
 23187      63757272 
 23187      5F6E6F72 
 23187      6D5F7661 
 23187      6C756500 
 23188              	.LASF91:
 23189 2978 5F617465 		.ascii	"_atexit0\000"
 23189      78697430 
 23189      00
 23190              	.LASF1090:
 23191 2981 6D635F69 		.ascii	"mc_interface_get_amp_hours_charged\000"
ARM GAS  /tmp/ccjQGkoy.s 			page 442


 23191      6E746572 
 23191      66616365 
 23191      5F676574 
 23191      5F616D70 
 23192              	.LASF1085:
 23193 29a4 62756666 		.ascii	"buffer_append_int32\000"
 23193      65725F61 
 23193      7070656E 
 23193      645F696E 
 23193      74333200 
 23194              	.LASF1034:
 23195 29b8 636F6D6D 		.ascii	"comm_can_get_status_msg_2_index\000"
 23195      5F63616E 
 23195      5F676574 
 23195      5F737461 
 23195      7475735F 
 23196              	.LASF685:
 23197 29d8 73746D33 		.ascii	"stm32_gpio_setup_t\000"
 23197      325F6770 
 23197      696F5F73 
 23197      65747570 
 23197      5F7400
 23198              	.LASF935:
 23199 29eb 72657376 		.ascii	"resvd8C0\000"
 23199      64384330 
 23199      00
 23200              	.LASF776:
 23201 29f4 4943555F 		.ascii	"ICU_INPUT_ACTIVE_LOW\000"
 23201      494E5055 
 23201      545F4143 
 23201      54495645 
 23201      5F4C4F57 
 23202              	.LASF345:
 23203 2a09 53454E53 		.ascii	"SENSOR_PORT_MODE_SINCOS\000"
 23203      4F525F50 
 23203      4F52545F 
 23203      4D4F4445 
 23203      5F53494E 
 23204              	.LASF366:
 23205 2a21 6C5F6375 		.ascii	"l_current_min\000"
 23205      7272656E 
 23205      745F6D69 
 23205      6E00
 23206              	.LASF1041:
 23207 2a2f 636F6D6D 		.ascii	"comm_can_conf_current_limits\000"
 23207      5F63616E 
 23207      5F636F6E 
 23207      665F6375 
 23207      7272656E 
 23208              	.LASF668:
 23209 2a4c 5F73746D 		.ascii	"_stm32_dma_streams\000"
 23209      33325F64 
 23209      6D615F73 
 23209      74726561 
 23209      6D7300
 23210              	.LASF1008:
 23211 2a5f 62756666 		.ascii	"buffer\000"
ARM GAS  /tmp/ccjQGkoy.s 			page 443


 23211      657200
 23212              	.LASF115:
 23213 2a66 5F676574 		.ascii	"_getdate_err\000"
 23213      64617465 
 23213      5F657272 
 23213      00
 23214              	.LASF489:
 23215 2a73 4150505F 		.ascii	"APP_NRF\000"
 23215      4E524600 
 23216              	.LASF484:
 23217 2a7b 4150505F 		.ascii	"APP_ADC\000"
 23217      41444300 
 23218              	.LASF644:
 23219 2a83 43414E5F 		.ascii	"CAN_PACKET_CONF_STORE_FOC_ERPMS\000"
 23219      5041434B 
 23219      45545F43 
 23219      4F4E465F 
 23219      53544F52 
 23220              	.LASF152:
 23221 2aa3 636E745F 		.ascii	"cnt_t\000"
 23221      7400
 23222              	.LASF392:
 23223 2aa9 6C6F5F63 		.ascii	"lo_current_min\000"
 23223      75727265 
 23223      6E745F6D 
 23223      696E00
 23224              	.LASF477:
 23225 2ab8 73695F62 		.ascii	"si_battery_type\000"
 23225      61747465 
 23225      72795F74 
 23225      79706500 
 23226              	.LASF845:
 23227 2ac8 5553425F 		.ascii	"USB_EP0_WAITING_TX0\000"
 23227      4550305F 
 23227      57414954 
 23227      494E475F 
 23227      54583000 
 23228              	.LASF648:
 23229 2adc 64757479 		.ascii	"duty\000"
 23229      00
 23230              	.LASF536:
 23231 2ae1 6164635F 		.ascii	"adc_control_type\000"
 23231      636F6E74 
 23231      726F6C5F 
 23231      74797065 
 23231      00
 23232              	.LASF448:
 23233 2af2 735F7069 		.ascii	"s_pid_kd\000"
 23233      645F6B64 
 23233      00
 23234              	.LASF447:
 23235 2afb 735F7069 		.ascii	"s_pid_ki\000"
 23235      645F6B69 
 23235      00
 23236              	.LASF874:
 23237 2b04 73746D33 		.ascii	"stm32_otg_host_chn_t\000"
 23237      325F6F74 
ARM GAS  /tmp/ccjQGkoy.s 			page 444


 23237      675F686F 
 23237      73745F63 
 23237      686E5F74 
 23238              	.LASF405:
 23239 2b19 68616C6C 		.ascii	"hall_sl_erpm\000"
 23239      5F736C5F 
 23239      6572706D 
 23239      00
 23240              	.LASF446:
 23241 2b26 735F7069 		.ascii	"s_pid_kp\000"
 23241      645F6B70 
 23241      00
 23242              	.LASF677:
 23243 2b2f 41465248 		.ascii	"AFRH\000"
 23243      00
 23244              	.LASF676:
 23245 2b34 4146524C 		.ascii	"AFRL\000"
 23245      00
 23246              	.LASF617:
 23247 2b39 6170705F 		.ascii	"app_configuration\000"
 23247      636F6E66 
 23247      69677572 
 23247      6174696F 
 23247      6E00
 23248              	.LASF395:
 23249 2b4b 6C6F5F63 		.ascii	"lo_current_motor_max_now\000"
 23249      75727265 
 23249      6E745F6D 
 23249      6F746F72 
 23249      5F6D6178 
 23250              	.LASF514:
 23251 2b64 7468726F 		.ascii	"throttle_exp_brake\000"
 23251      74746C65 
 23251      5F657870 
 23251      5F627261 
 23251      6B6500
 23252              	.LASF1145:
 23253 2b77 636F6D6D 		.ascii	"comm_can_send_buffer\000"
 23253      5F63616E 
 23253      5F73656E 
 23253      645F6275 
 23253      66666572 
 23254              	.LASF127:
 23255 2b8c 5F696D70 		.ascii	"_impure_ptr\000"
 23255      7572655F 
 23255      70747200 
 23256              	.LASF288:
 23257 2b98 63665F6F 		.ascii	"cf_off_preempt\000"
 23257      66665F70 
 23257      7265656D 
 23257      707400
 23258              	.LASF556:
 23259 2ba7 4E52465F 		.ascii	"NRF_SPEED_1M\000"
 23259      53504545 
 23259      445F314D 
 23259      00
 23260              	.LASF67:
ARM GAS  /tmp/ccjQGkoy.s 			page 445


 23261 2bb4 5F626C6B 		.ascii	"_blksize\000"
 23261      73697A65 
 23261      00
 23262              	.LASF1082:
 23263 2bbd 5F5F7365 		.ascii	"__set_BASEPRI\000"
 23263      745F4241 
 23263      53455052 
 23263      4900
 23264              	.LASF869:
 23265 2bcb 4843494E 		.ascii	"HCINTMSK\000"
 23265      544D534B 
 23265      00
 23266              	.LASF65:
 23267 2bd4 5F756275 		.ascii	"_ubuf\000"
 23267      6600
 23268              	.LASF427:
 23269 2bda 666F635F 		.ascii	"foc_openloop_rpm\000"
 23269      6F70656E 
 23269      6C6F6F70 
 23269      5F72706D 
 23269      00
 23270              	.LASF431:
 23271 2beb 666F635F 		.ascii	"foc_sl_d_current_factor\000"
 23271      736C5F64 
 23271      5F637572 
 23271      72656E74 
 23271      5F666163 
 23272              	.LASF110:
 23273 2c03 5F6D626C 		.ascii	"_mblen_state\000"
 23273      656E5F73 
 23273      74617465 
 23273      00
 23274              	.LASF93:
 23275 2c10 5F5F7367 		.ascii	"__sglue\000"
 23275      6C756500 
 23276              	.LASF126:
 23277 2c18 5F5F6C6F 		.ascii	"__locale_t\000"
 23277      63616C65 
 23277      5F7400
 23278              	.LASF424:
 23279 2c23 666F635F 		.ascii	"foc_pll_ki\000"
 23279      706C6C5F 
 23279      6B6900
 23280              	.LASF989:
 23281 2c2e 72785F66 		.ascii	"rx_frames\000"
 23281      72616D65 
 23281      7300
 23282              	.LASF423:
 23283 2c38 666F635F 		.ascii	"foc_pll_kp\000"
 23283      706C6C5F 
 23283      6B7000
 23284              	.LASF83:
 23285 2c43 5F5F636C 		.ascii	"__cleanup\000"
 23285      65616E75 
 23285      7000
 23286              	.LASF1055:
 23287 2c4d 73656E64 		.ascii	"send\000"
ARM GAS  /tmp/ccjQGkoy.s 			page 446


 23287      00
 23288              	.LASF490:
 23289 2c52 4150505F 		.ascii	"APP_CUSTOM\000"
 23289      43555354 
 23289      4F4D00
 23290              	.LASF758:
 23291 2c5d 4943555F 		.ascii	"ICU_ACTIVE\000"
 23291      41435449 
 23291      564500
 23292              	.LASF1049:
 23293 2c68 636F6D6D 		.ascii	"comm_can_set_current_rel\000"
 23293      5F63616E 
 23293      5F736574 
 23293      5F637572 
 23293      72656E74 
 23294              	.LASF188:
 23295 2c81 76746675 		.ascii	"vtfunc_t\000"
 23295      6E635F74 
 23295      00
 23296              	.LASF217:
 23297 2c8a 43414E5F 		.ascii	"CAN_FIFOMailBox_TypeDef\000"
 23297      4649464F 
 23297      4D61696C 
 23297      426F785F 
 23297      54797065 
 23298              	.LASF557:
 23299 2ca2 4E52465F 		.ascii	"NRF_SPEED_2M\000"
 23299      53504545 
 23299      445F324D 
 23299      00
 23300              	.LASF1014:
 23301 2caf 636F6D6D 		.ascii	"commands_send\000"
 23301      616E6473 
 23301      5F73656E 
 23301      6400
 23302              	.LASF260:
 23303 2cbd 77746F62 		.ascii	"wtobjp\000"
 23303      6A7000
 23304              	.LASF20:
 23305 2cc4 5F66706F 		.ascii	"_fpos_t\000"
 23305      735F7400 
 23306              	.LASF58:
 23307 2ccc 5F66696C 		.ascii	"_file\000"
 23307      6500
 23308              	.LASF348:
 23309 2cd2 44525638 		.ascii	"DRV8301_OC_LATCH_SHUTDOWN\000"
 23309      3330315F 
 23309      4F435F4C 
 23309      41544348 
 23309      5F534855 
 23310              	.LASF173:
 23311 2cec 705F7265 		.ascii	"p_realprio\000"
 23311      616C7072 
 23311      696F00
 23312              	.LASF487:
 23313 2cf7 4150505F 		.ascii	"APP_ADC_UART\000"
 23313      4144435F 
ARM GAS  /tmp/ccjQGkoy.s 			page 447


 23313      55415254 
 23313      00
 23314              	.LASF311:
 23315 2d04 715F6E6F 		.ascii	"q_notify\000"
 23315      74696679 
 23315      00
 23316              	.LASF263:
 23317 2d0d 77746D74 		.ascii	"wtmtxp\000"
 23317      787000
 23318              	.LASF340:
 23319 2d14 6D635F6D 		.ascii	"mc_motor_type\000"
 23319      6F746F72 
 23319      5F747970 
 23319      6500
 23320              	.LASF56:
 23321 2d22 5F5F7346 		.ascii	"__sFILE\000"
 23321      494C4500 
 23322              	.LASF544:
 23323 2d2a 7265765F 		.ascii	"rev_button_inverted\000"
 23323      62757474 
 23323      6F6E5F69 
 23323      6E766572 
 23323      74656400 
 23324              	.LASF129:
 23325 2d3e 646F7562 		.ascii	"double\000"
 23325      6C6500
 23326              	.LASF52:
 23327 2d45 5F666E73 		.ascii	"_fns\000"
 23327      00
 23328              	.LASF1076:
 23329 2d4a 63685654 		.ascii	"chVTGetSystemTimeX\000"
 23329      47657453 
 23329      79737465 
 23329      6D54696D 
 23329      655800
 23330              	.LASF1117:
 23331 2d5d 6D635F69 		.ascii	"mc_interface_set_pid_pos\000"
 23331      6E746572 
 23331      66616365 
 23331      5F736574 
 23331      5F706964 
 23332              	.LASF957:
 23333 2d76 5553424F 		.ascii	"USBOutEndpointState\000"
 23333      7574456E 
 23333      64706F69 
 23333      6E745374 
 23333      61746500 
 23334              	.LASF1148:
 23335 2d8a 5F5F6275 		.ascii	"__builtin_memcpy\000"
 23335      696C7469 
 23335      6E5F6D65 
 23335      6D637079 
 23335      00
 23336              	.LASF913:
 23337 2d9b 72657376 		.ascii	"resvd41C\000"
 23337      64343143 
 23337      00
ARM GAS  /tmp/ccjQGkoy.s 			page 448


 23338              	.LASF383:
 23339 2da4 6C5F7465 		.ascii	"l_temp_motor_end\000"
 23339      6D705F6D 
 23339      6F746F72 
 23339      5F656E64 
 23339      00
 23340              	.LASF26:
 23341 2db5 5F6D6273 		.ascii	"_mbstate_t\000"
 23341      74617465 
 23341      5F7400
 23342              	.LASF121:
 23343 2dc0 5F685F65 		.ascii	"_h_errno\000"
 23343      72726E6F 
 23343      00
 23344              	.LASF625:
 23345 2dc9 43414E5F 		.ascii	"CAN_PACKET_PROCESS_RX_BUFFER\000"
 23345      5041434B 
 23345      45545F50 
 23345      524F4345 
 23345      53535F52 
 23346              	.LASF988:
 23347 2de6 72785F62 		.ascii	"rx_buffer_last_id\000"
 23347      75666665 
 23347      725F6C61 
 23347      73745F69 
 23347      6400
 23348              	.LASF439:
 23349 2df8 666F635F 		.ascii	"foc_temp_comp_base_temp\000"
 23349      74656D70 
 23349      5F636F6D 
 23349      705F6261 
 23349      73655F74 
 23350              	.LASF214:
 23351 2e10 52445452 		.ascii	"RDTR\000"
 23351      00
 23352              	.LASF364:
 23353 2e15 73656E73 		.ascii	"sensor_mode\000"
 23353      6F725F6D 
 23353      6F646500 
 23354              	.LASF1063:
 23355 2e21 636F6D6D 		.ascii	"comm_can_transmit_eid\000"
 23355      5F63616E 
 23355      5F747261 
 23355      6E736D69 
 23355      745F6569 
 23356              	.LASF323:
 23357 2e37 53454E53 		.ascii	"SENSOR_MODE_SENSORLESS\000"
 23357      4F525F4D 
 23357      4F44455F 
 23357      53454E53 
 23357      4F524C45 
 23358              	.LASF586:
 23359 2e4e 73706565 		.ascii	"speed\000"
 23359      6400
 23360              	.LASF181:
 23361 2e54 63685F72 		.ascii	"ch_ready_list\000"
 23361      65616479 
ARM GAS  /tmp/ccjQGkoy.s 			page 449


 23361      5F6C6973 
 23361      7400
 23362              	.LASF673:
 23363 2e62 50555044 		.ascii	"PUPDR\000"
 23363      5200
 23364              	.LASF11:
 23365 2e68 5F5F696E 		.ascii	"__int32_t\000"
 23365      7433325F 
 23365      7400
 23366              	.LASF354:
 23367 2e72 43414E5F 		.ascii	"CAN_BAUD_500K\000"
 23367      42415544 
 23367      5F353030 
 23367      4B00
 23368              	.LASF13:
 23369 2e80 5F5F7569 		.ascii	"__uint32_t\000"
 23369      6E743332 
 23369      5F7400
 23370              	.LASF705:
 23371 2e8b 64617461 		.ascii	"data8\000"
 23371      3800
 23372              	.LASF200:
 23373 2e91 63685F73 		.ascii	"ch_system_debug\000"
 23373      79737465 
 23373      6D5F6465 
 23373      62756700 
 23374              	.LASF1002:
 23375 2ea1 64617461 		.ascii	"data\000"
 23375      00
 23376              	.LASF924:
 23377 2ea6 4441494E 		.ascii	"DAINTMSK\000"
 23377      544D534B 
 23377      00
 23378              	.LASF25:
 23379 2eaf 5F5F7661 		.ascii	"__value\000"
 23379      6C756500 
 23380              	.LASF843:
 23381 2eb7 5553425F 		.ascii	"USB_EP0_WAITING_SETUP\000"
 23381      4550305F 
 23381      57414954 
 23381      494E475F 
 23381      53455455 
 23382              	.LASF49:
 23383 2ecd 5F69735F 		.ascii	"_is_cxa\000"
 23383      63786100 
 23384              	.LASF554:
 23385 2ed5 6368756B 		.ascii	"chuk_config\000"
 23385      5F636F6E 
 23385      66696700 
 23386              	.LASF755:
 23387 2ee1 4943555F 		.ascii	"ICU_STOP\000"
 23387      53544F50 
 23387      00
 23388              	.LASF683:
 23389 2eea 6166726C 		.ascii	"afrl\000"
 23389      00
 23390              	.LASF521:
ARM GAS  /tmp/ccjQGkoy.s 			page 450


 23391 2eef 4144435F 		.ascii	"ADC_CTRL_TYPE_NONE\000"
 23391      4354524C 
 23391      5F545950 
 23391      455F4E4F 
 23391      4E4500
 23392              	.LASF701:
 23393 2f02 43414E5F 		.ascii	"CAN_STARTING\000"
 23393      53544152 
 23393      54494E47 
 23393      00
 23394              	.LASF947:
 23395 2f0f 71756575 		.ascii	"queue\000"
 23395      6500
 23396              	.LASF1107:
 23397 2f15 62756666 		.ascii	"buffer_get_int16\000"
 23397      65725F67 
 23397      65745F69 
 23397      6E743136 
 23397      00
 23398              	.LASF687:
 23399 2f26 50424461 		.ascii	"PBData\000"
 23399      746100
 23400              	.LASF469:
 23401 2f2d 6D5F626C 		.ascii	"m_bldc_f_sw_min\000"
 23401      64635F66 
 23401      5F73775F 
 23401      6D696E00 
 23402              	.LASF827:
 23403 2f3d 65703065 		.ascii	"ep0endcb\000"
 23403      6E646362 
 23403      00
 23404              	.LASF1020:
 23405 2f46 6D63636F 		.ascii	"mcconf\000"
 23405      6E6600
 23406              	.LASF665:
 23407 2f4d 73656C66 		.ascii	"selfindex\000"
 23407      696E6465 
 23407      7800
 23408              	.LASF896:
 23409 2f57 47525846 		.ascii	"GRXFSIZ\000"
 23409      53495A00 
 23410              	.LASF292:
 23411 2f5f 6D757465 		.ascii	"mutex_t\000"
 23411      785F7400 
 23412              	.LASF86:
 23413 2f67 5F703573 		.ascii	"_p5s\000"
 23413      00
 23414              	.LASF410:
 23415 2f6c 666F635F 		.ascii	"foc_encoder_offset\000"
 23415      656E636F 
 23415      6465725F 
 23415      6F666673 
 23415      657400
 23416              	.LASF171:
 23417 2f7f 705F6570 		.ascii	"p_epending\000"
 23417      656E6469 
 23417      6E6700
ARM GAS  /tmp/ccjQGkoy.s 			page 451


 23418              	.LASF917:
 23419 2f8a 44434647 		.ascii	"DCFG\000"
 23419      00
 23420              	.LASF659:
 23421 2f8f 7069645F 		.ascii	"pid_pos_now\000"
 23421      706F735F 
 23421      6E6F7700 
 23422              	.LASF670:
 23423 2f9b 4D4F4445 		.ascii	"MODER\000"
 23423      5200
 23424              	.LASF761:
 23425 2fa1 636C6F63 		.ascii	"clock\000"
 23425      6B00
 23426              	.LASF428:
 23427 2fa7 666F635F 		.ascii	"foc_sl_openloop_hyst\000"
 23427      736C5F6F 
 23427      70656E6C 
 23427      6F6F705F 
 23427      68797374 
 23428              	.LASF221:
 23429 2fbc 52455345 		.ascii	"RESERVED0\000"
 23429      52564544 
 23429      3000
 23430              	.LASF224:
 23431 2fc6 52455345 		.ascii	"RESERVED1\000"
 23431      52564544 
 23431      3100
 23432              	.LASF226:
 23433 2fd0 52455345 		.ascii	"RESERVED2\000"
 23433      52564544 
 23433      3200
 23434              	.LASF228:
 23435 2fda 52455345 		.ascii	"RESERVED3\000"
 23435      52564544 
 23435      3300
 23436              	.LASF230:
 23437 2fe4 52455345 		.ascii	"RESERVED4\000"
 23437      52564544 
 23437      3400
 23438              	.LASF232:
 23439 2fee 52455345 		.ascii	"RESERVED5\000"
 23439      52564544 
 23439      3500
 23440              	.LASF968:
 23441 2ff8 55534245 		.ascii	"USBEndpointConfig\000"
 23441      6E64706F 
 23441      696E7443 
 23441      6F6E6669 
 23441      6700
 23442              	.LASF715:
 23443 300a 72787175 		.ascii	"rxqueue\000"
 23443      65756500 
 23444              	.LASF915:
 23445 3012 72657376 		.ascii	"resvd444\000"
 23445      64343434 
 23445      00
 23446              	.LASF512:
ARM GAS  /tmp/ccjQGkoy.s 			page 452


 23447 301b 73616665 		.ascii	"safe_start\000"
 23447      5F737461 
 23447      727400
 23448              	.LASF539:
 23449 3026 766F6C74 		.ascii	"voltage_center\000"
 23449      6167655F 
 23449      63656E74 
 23449      657200
 23450              	.LASF1114:
 23451 3035 636F6D6D 		.ascii	"commands_process_packet\000"
 23451      616E6473 
 23451      5F70726F 
 23451      63657373 
 23451      5F706163 
 23452              	.LASF501:
 23453 304d 50504D5F 		.ascii	"PPM_CTRL_TYPE_DUTY_NOREV\000"
 23453      4354524C 
 23453      5F545950 
 23453      455F4455 
 23453      54595F4E 
 23454              	.LASF998:
 23455 3066 64657465 		.ascii	"detect_all_foc_res_index\000"
 23455      63745F61 
 23455      6C6C5F66 
 23455      6F635F72 
 23455      65735F69 
 23456              	.LASF296:
 23457 307f 656C5F6C 		.ascii	"el_listener\000"
 23457      69737465 
 23457      6E657200 
 23458              	.LASF946:
 23459 308b 6C696E65 		.ascii	"linear\000"
 23459      617200
 23460              	.LASF353:
 23461 3092 43414E5F 		.ascii	"CAN_BAUD_250K\000"
 23461      42415544 
 23461      5F323530 
 23461      4B00
 23462              	.LASF393:
 23463 30a0 6C6F5F69 		.ascii	"lo_in_current_max\000"
 23463      6E5F6375 
 23463      7272656E 
 23463      745F6D61 
 23463      7800
 23464              	.LASF1097:
 23465 30b2 63685468 		.ascii	"chThdSleep\000"
 23465      64536C65 
 23465      657000
 23466              	.LASF1099:
 23467 30bd 636F6E66 		.ascii	"conf_general_store_app_configuration\000"
 23467      5F67656E 
 23467      6572616C 
 23467      5F73746F 
 23467      72655F61 
 23468              	.LASF774:
 23469 30e2 73746D33 		.ascii	"stm32_tim_t\000"
 23469      325F7469 
ARM GAS  /tmp/ccjQGkoy.s 			page 453


 23469      6D5F7400 
 23470              	.LASF706:
 23471 30ee 64617461 		.ascii	"data16\000"
 23471      313600
 23472              	.LASF183:
 23473 30f5 725F7072 		.ascii	"r_prio\000"
 23473      696F00
 23474              	.LASF590:
 23475 30fc 72657472 		.ascii	"retries\000"
 23475      69657300 
 23476              	.LASF832:
 23477 3104 706D6E65 		.ascii	"pmnext\000"
 23477      787400
 23478              	.LASF432:
 23479 310b 666F635F 		.ascii	"foc_sensor_mode\000"
 23479      73656E73 
 23479      6F725F6D 
 23479      6F646500 
 23480              	.LASF640:
 23481 311b 43414E5F 		.ascii	"CAN_PACKET_CONF_STORE_CURRENT_LIMITS\000"
 23481      5041434B 
 23481      45545F43 
 23481      4F4E465F 
 23481      53544F52 
 23482              	.LASF208:
 23483 3140 49544D5F 		.ascii	"ITM_RxBuffer\000"
 23483      52784275 
 23483      66666572 
 23483      00
 23484              	.LASF780:
 23485 314d 4943555F 		.ascii	"ICU_CHANNEL_2\000"
 23485      4348414E 
 23485      4E454C5F 
 23485      3200
 23486              	.LASF1073:
 23487 315b 63685468 		.ascii	"chThdShouldTerminateX\000"
 23487      6453686F 
 23487      756C6454 
 23487      65726D69 
 23487      6E617465 
 23488              	.LASF329:
 23489 3171 464F435F 		.ascii	"FOC_SENSOR_MODE_HALL\000"
 23489      53454E53 
 23489      4F525F4D 
 23489      4F44455F 
 23489      48414C4C 
 23490              	.LASF17:
 23491 3186 6C6F6E67 		.ascii	"long long unsigned int\000"
 23491      206C6F6E 
 23491      6720756E 
 23491      7369676E 
 23491      65642069 
 23492              	.LASF256:
 23493 319d 6F666673 		.ascii	"offset\000"
 23493      657400
 23494              	.LASF455:
 23495 31a4 705F7069 		.ascii	"p_pid_kd_filter\000"
ARM GAS  /tmp/ccjQGkoy.s 			page 454


 23495      645F6B64 
 23495      5F66696C 
 23495      74657200 
 23496              	.LASF409:
 23497 31b4 666F635F 		.ascii	"foc_dt_us\000"
 23497      64745F75 
 23497      7300
 23498              	.LASF1071:
 23499 31be 63685265 		.ascii	"chRegSetThreadName\000"
 23499      67536574 
 23499      54687265 
 23499      61644E61 
 23499      6D6500
 23500              	.LASF1065:
 23501 31d1 62617564 		.ascii	"baud\000"
 23501      00
 23502              	.LASF437:
 23503 31d6 666F635F 		.ascii	"foc_sat_comp\000"
 23503      7361745F 
 23503      636F6D70 
 23503      00
 23504              	.LASF818:
 23505 31e3 53504944 		.ascii	"SPID1\000"
 23505      3100
 23506              	.LASF1077:
 23507 31e9 63685379 		.ascii	"chSysUnlock\000"
 23507      73556E6C 
 23507      6F636B00 
 23508              	.LASF235:
 23509 31f5 4E445452 		.ascii	"NDTR\000"
 23509      00
 23510              	.LASF301:
 23511 31fa 65735F6E 		.ascii	"es_next\000"
 23511      65787400 
 23512              	.LASF107:
 23513 3202 5F67616D 		.ascii	"_gamma_signgam\000"
 23513      6D615F73 
 23513      69676E67 
 23513      616D00
 23514              	.LASF881:
 23515 3211 72657376 		.ascii	"resvd1C\000"
 23515      64314300 
 23516              	.LASF207:
 23517 3219 69646C65 		.ascii	"idle_thread_wa\000"
 23517      5F746872 
 23517      6561645F 
 23517      776100
 23518              	.LASF1007:
 23519 3228 73656E64 		.ascii	"send_index\000"
 23519      5F696E64 
 23519      657800
 23520              	.LASF877:
 23521 3233 44494550 		.ascii	"DIEPINT\000"
 23521      494E5400 
 23522              	.LASF759:
 23523 323b 69637573 		.ascii	"icustate_t\000"
 23523      74617465 
ARM GAS  /tmp/ccjQGkoy.s 			page 455


 23523      5F7400
 23524              	.LASF249:
 23525 3246 5350495F 		.ascii	"SPI_TypeDef\000"
 23525      54797065 
 23525      44656600 
 23526              	.LASF194:
 23527 3252 76745F66 		.ascii	"vt_func\000"
 23527      756E6300 
 23528              	.LASF765:
 23529 325a 534D4352 		.ascii	"SMCR\000"
 23529      00
 23530              	.LASF1120:
 23531 325f 6D635F69 		.ascii	"mc_interface_set_brake_current\000"
 23531      6E746572 
 23531      66616365 
 23531      5F736574 
 23531      5F627261 
 23532              	.LASF922:
 23533 327e 444F4550 		.ascii	"DOEPMSK\000"
 23533      4D534B00 
 23534              	.LASF190:
 23535 3286 63685F76 		.ascii	"ch_virtual_timer\000"
 23535      69727475 
 23535      616C5F74 
 23535      696D6572 
 23535      00
 23536              	.LASF164:
 23537 3297 705F666C 		.ascii	"p_flags\000"
 23537      61677300 
 23538              	.LASF641:
 23539 329f 43414E5F 		.ascii	"CAN_PACKET_CONF_CURRENT_LIMITS_IN\000"
 23539      5041434B 
 23539      45545F43 
 23539      4F4E465F 
 23539      43555252 
 23540              	.LASF264:
 23541 32c1 65776D61 		.ascii	"ewmask\000"
 23541      736B00
 23542              	.LASF1103:
 23543 32c8 6D635F69 		.ascii	"mc_interface_get_configuration\000"
 23543      6E746572 
 23543      66616365 
 23543      5F676574 
 23543      5F636F6E 
 23544              	.LASF357:
 23545 32e7 42415454 		.ascii	"BATTERY_TYPE_LIION_3_0__4_2\000"
 23545      4552595F 
 23545      54595045 
 23545      5F4C4949 
 23545      4F4E5F33 
 23546              	.LASF707:
 23547 3303 64617461 		.ascii	"data32\000"
 23547      333200
 23548              	.LASF298:
 23549 330a 656C5F66 		.ascii	"el_flags\000"
 23549      6C616773 
 23549      00
ARM GAS  /tmp/ccjQGkoy.s 			page 456


 23550              	.LASF300:
 23551 3313 6576656E 		.ascii	"event_source\000"
 23551      745F736F 
 23551      75726365 
 23551      00
 23552              	.LASF1111:
 23553 3320 6D635F69 		.ascii	"mc_interface_set_handbrake\000"
 23553      6E746572 
 23553      66616365 
 23553      5F736574 
 23553      5F68616E 
 23554              	.LASF580:
 23555 333b 4E52465F 		.ascii	"NRF_RETR_DELAY_3000US\000"
 23555      52455452 
 23555      5F44454C 
 23555      41595F33 
 23555      30303055 
 23556              	.LASF172:
 23557 3351 705F6D74 		.ascii	"p_mtxlist\000"
 23557      786C6973 
 23557      7400
 23558              	.LASF402:
 23559 335b 736C5F63 		.ascii	"sl_cycle_int_rpm_br\000"
 23559      79636C65 
 23559      5F696E74 
 23559      5F72706D 
 23559      5F627200 
 23560              	.LASF1052:
 23561 336f 636F6D6D 		.ascii	"comm_can_set_current_brake\000"
 23561      5F63616E 
 23561      5F736574 
 23561      5F637572 
 23561      72656E74 
 23562              	.LASF1043:
 23563 338a 61637469 		.ascii	"activate_status_msgs\000"
 23563      76617465 
 23563      5F737461 
 23563      7475735F 
 23563      6D736773 
 23564              	.LASF722:
 23565 339f 43414E44 		.ascii	"CAND1\000"
 23565      3100
 23566              	.LASF227:
 23567 33a5 46533152 		.ascii	"FS1R\000"
 23567      00
 23568              	.LASF982:
 23569 33aa 63616E63 		.ascii	"cancom_read_thread_wa\000"
 23569      6F6D5F72 
 23569      6561645F 
 23569      74687265 
 23569      61645F77 
 23570              	.LASF144:
 23571 33c0 74737461 		.ascii	"tstate_t\000"
 23571      74655F74 
 23571      00
 23572              	.LASF128:
 23573 33c9 5F676C6F 		.ascii	"_global_impure_ptr\000"
ARM GAS  /tmp/ccjQGkoy.s 			page 457


 23573      62616C5F 
 23573      696D7075 
 23573      72655F70 
 23573      747200
 23574              	.LASF923:
 23575 33dc 4441494E 		.ascii	"DAINT\000"
 23575      5400
 23576              	.LASF1056:
 23577 33e2 73656E64 		.ascii	"send_buffer\000"
 23577      5F627566 
 23577      66657200 
 23578              	.LASF500:
 23579 33ee 50504D5F 		.ascii	"PPM_CTRL_TYPE_DUTY\000"
 23579      4354524C 
 23579      5F545950 
 23579      455F4455 
 23579      545900
 23580              	.LASF80:
 23581 3401 5F756E73 		.ascii	"_unspecified_locale_info\000"
 23581      70656369 
 23581      66696564 
 23581      5F6C6F63 
 23581      616C655F 
 23582              	.LASF682:
 23583 341a 70757064 		.ascii	"pupdr\000"
 23583      7200
 23584              	.LASF471:
 23585 3420 6D5F6463 		.ascii	"m_dc_f_sw\000"
 23585      5F665F73 
 23585      7700
 23586              	.LASF436:
 23587 342a 666F635F 		.ascii	"foc_sample_high_current\000"
 23587      73616D70 
 23587      6C655F68 
 23587      6967685F 
 23587      63757272 
 23588              	.LASF873:
 23589 3442 72657376 		.ascii	"resvd1c\000"
 23589      64316300 
 23590              	.LASF820:
 23591 344a 7472616E 		.ascii	"transmitting\000"
 23591      736D6974 
 23591      74696E67 
 23591      00
 23592              	.LASF1105:
 23593 3457 636F6E66 		.ascii	"conf_general_store_mc_configuration\000"
 23593      5F67656E 
 23593      6572616C 
 23593      5F73746F 
 23593      72655F6D 
 23594              	.LASF322:
 23595 347b 6D635F63 		.ascii	"mc_comm_mode\000"
 23595      6F6D6D5F 
 23595      6D6F6465 
 23595      00
 23596              	.LASF162:
 23597 3488 705F6E61 		.ascii	"p_name\000"
ARM GAS  /tmp/ccjQGkoy.s 			page 458


 23597      6D6500
 23598              	.LASF82:
 23599 348f 5F5F7364 		.ascii	"__sdidinit\000"
 23599      6964696E 
 23599      697400
 23600              	.LASF794:
 23601 349a 53657269 		.ascii	"SerialDriver\000"
 23601      616C4472 
 23601      69766572 
 23601      00
 23602              	.LASF133:
 23603 34a7 5F5F6664 		.ascii	"__fdlibm_posix\000"
 23603      6C69626D 
 23603      5F706F73 
 23603      697800
 23604              	.LASF576:
 23605 34b6 4E52465F 		.ascii	"NRF_RETR_DELAY_2000US\000"
 23605      52455452 
 23605      5F44454C 
 23605      41595F32 
 23605      30303055 
 23606              	.LASF885:
 23607 34cc 444F4550 		.ascii	"DOEPTSIZ\000"
 23607      5453495A 
 23607      00
 23608              	.LASF534:
 23609 34d5 4144435F 		.ascii	"ADC_CTRL_TYPE_PID_REV_CENTER\000"
 23609      4354524C 
 23609      5F545950 
 23609      455F5049 
 23609      445F5245 
 23610              	.LASF1098:
 23611 34f2 6170705F 		.ascii	"app_get_configuration\000"
 23611      6765745F 
 23611      636F6E66 
 23611      69677572 
 23611      6174696F 
 23612              	.LASF494:
 23613 3508 5448525F 		.ascii	"THR_EXP_POLY\000"
 23613      4558505F 
 23613      504F4C59 
 23613      00
 23614              	.LASF1033:
 23615 3515 636F6D6D 		.ascii	"comm_can_get_status_msg_2_id\000"
 23615      5F63616E 
 23615      5F676574 
 23615      5F737461 
 23615      7475735F 
 23616              	.LASF1044:
 23617 3532 636F6D6D 		.ascii	"comm_can_ping\000"
 23617      5F63616E 
 23617      5F70696E 
 23617      6700
 23618              	.LASF280:
 23619 3540 63665F6F 		.ascii	"cf_off_ctx\000"
 23619      66665F63 
 23619      747800
ARM GAS  /tmp/ccjQGkoy.s 			page 459


 23620              	.LASF1125:
 23621 354b 63616E52 		.ascii	"canReceive\000"
 23621      65636569 
 23621      766500
 23622              	.LASF1072:
 23623 3556 6E616D65 		.ascii	"name\000"
 23623      00
 23624              	.LASF27:
 23625 355b 5F666C6F 		.ascii	"_flock_t\000"
 23625      636B5F74 
 23625      00
 23626              	.LASF196:
 23627 3564 76697274 		.ascii	"virtual_timers_list_t\000"
 23627      75616C5F 
 23627      74696D65 
 23627      72735F6C 
 23627      6973745F 
 23628              	.LASF766:
 23629 357a 44494552 		.ascii	"DIER\000"
 23629      00
 23630              	.LASF316:
 23631 357f 50574D5F 		.ascii	"PWM_MODE_NONSYNCHRONOUS_HISW\000"
 23631      4D4F4445 
 23631      5F4E4F4E 
 23631      53594E43 
 23631      48524F4E 
 23632              	.LASF350:
 23633 359c 44525638 		.ascii	"DRV8301_OC_DISABLED\000"
 23633      3330315F 
 23633      4F435F44 
 23633      49534142 
 23633      4C454400 
 23634              	.LASF1089:
 23635 35b0 6D635F69 		.ascii	"mc_interface_get_amp_hours\000"
 23635      6E746572 
 23635      66616365 
 23635      5F676574 
 23635      5F616D70 
 23636              	.LASF679:
 23637 35cb 6D6F6465 		.ascii	"moder\000"
 23637      7200
 23638              	.LASF572:
 23639 35d1 4E52465F 		.ascii	"NRF_RETR_DELAY_1000US\000"
 23639      52455452 
 23639      5F44454C 
 23639      41595F31 
 23639      30303055 
 23640              	.LASF1038:
 23641 35e7 73746F72 		.ascii	"store\000"
 23641      6500
 23642              	.LASF332:
 23643 35ed 4F55545F 		.ascii	"OUT_AUX_MODE_ON_AFTER_2S\000"
 23643      4155585F 
 23643      4D4F4445 
 23643      5F4F4E5F 
 23643      41465445 
 23644              	.LASF266:
ARM GAS  /tmp/ccjQGkoy.s 			page 460


 23645 3606 735F7175 		.ascii	"s_queue\000"
 23645      65756500 
 23646              	.LASF1118:
 23647 360e 6D635F69 		.ascii	"mc_interface_set_current\000"
 23647      6E746572 
 23647      66616365 
 23647      5F736574 
 23647      5F637572 
 23648              	.LASF999:
 23649 3627 64657465 		.ascii	"detect_all_foc_res\000"
 23649      63745F61 
 23649      6C6C5F66 
 23649      6F635F72 
 23649      657300
 23650              	.LASF247:
 23651 363a 49325343 		.ascii	"I2SCFGR\000"
 23651      46475200 
 23652              	.LASF542:
 23653 3642 7573655F 		.ascii	"use_filter\000"
 23653      66696C74 
 23653      657200
 23654              	.LASF462:
 23655 364d 6D5F6475 		.ascii	"m_duty_ramp_step\000"
 23655      74795F72 
 23655      616D705F 
 23655      73746570 
 23655      00
 23656              	.LASF481:
 23657 365e 6D635F63 		.ascii	"mc_configuration\000"
 23657      6F6E6669 
 23657      67757261 
 23657      74696F6E 
 23657      00
 23658              	.LASF713:
 23659 366f 636F6E66 		.ascii	"config\000"
 23659      696700
 23660              	.LASF272:
 23661 3676 63685F69 		.ascii	"ch_identifier\000"
 23661      64656E74 
 23661      69666965 
 23661      7200
 23662              	.LASF804:
 23663 3684 77726974 		.ascii	"writet\000"
 23663      657400
 23664              	.LASF581:
 23665 368b 4E52465F 		.ascii	"NRF_RETR_DELAY_3250US\000"
 23665      52455452 
 23665      5F44454C 
 23665      41595F33 
 23665      32353055 
 23666              	.LASF983:
 23667 36a1 63616E63 		.ascii	"cancom_process_thread_wa\000"
 23667      6F6D5F70 
 23667      726F6365 
 23667      73735F74 
 23667      68726561 
 23668              	.LASF15:
ARM GAS  /tmp/ccjQGkoy.s 			page 461


 23669 36ba 6C6F6E67 		.ascii	"long long int\000"
 23669      206C6F6E 
 23669      6720696E 
 23669      7400
 23670              	.LASF622:
 23671 36c8 43414E5F 		.ascii	"CAN_PACKET_SET_POS\000"
 23671      5041434B 
 23671      45545F53 
 23671      45545F50 
 23671      4F5300
 23672              	.LASF903:
 23673 36db 48505458 		.ascii	"HPTXFSIZ\000"
 23673      4653495A 
 23673      00
 23674              	.LASF610:
 23675 36e4 75617663 		.ascii	"uavcan_esc_index\000"
 23675      616E5F65 
 23675      73635F69 
 23675      6E646578 
 23675      00
 23676              	.LASF279:
 23677 36f5 63665F6F 		.ascii	"cf_off_prio\000"
 23677      66665F70 
 23677      72696F00 
 23678              	.LASF72:
 23679 3701 5F666C61 		.ascii	"_flags2\000"
 23679      67733200 
 23680              	.LASF1146:
 23681 3709 63685654 		.ascii	"chVTGetSystemTime\000"
 23681      47657453 
 23681      79737465 
 23681      6D54696D 
 23681      6500
 23682              	.LASF522:
 23683 371b 4144435F 		.ascii	"ADC_CTRL_TYPE_CURRENT\000"
 23683      4354524C 
 23683      5F545950 
 23683      455F4355 
 23683      5252454E 
 23684              	.LASF388:
 23685 3731 6C5F7761 		.ascii	"l_watt_min\000"
 23685      74745F6D 
 23685      696E00
 23686              	.LASF777:
 23687 373c 6963756D 		.ascii	"icumode_t\000"
 23687      6F64655F 
 23687      7400
 23688              	.LASF1141:
 23689 3746 2F686F6D 		.ascii	"/home/patrick/vesc/bldc\000"
 23689      652F7061 
 23689      74726963 
 23689      6B2F7665 
 23689      73632F62 
 23690              	.LASF566:
 23691 375e 4E52465F 		.ascii	"NRF_CRC_1B\000"
 23691      4352435F 
 23691      314200
ARM GAS  /tmp/ccjQGkoy.s 			page 462


 23692              	.LASF852:
 23693 3769 5553425F 		.ascii	"USB_EVENT_ADDRESS\000"
 23693      4556454E 
 23693      545F4144 
 23693      44524553 
 23693      5300
 23694              	.LASF970:
 23695 377b 6765745F 		.ascii	"get_descriptor_cb\000"
 23695      64657363 
 23695      72697074 
 23695      6F725F63 
 23695      6200
 23696              	.LASF374:
 23697 378d 6C5F6D61 		.ascii	"l_max_erpm_fbrake_cc\000"
 23697      785F6572 
 23697      706D5F66 
 23697      6272616B 
 23697      655F6363 
 23698              	.LASF81:
 23699 37a2 5F6C6F63 		.ascii	"_locale\000"
 23699      616C6500 
 23700              	.LASF151:
 23701 37aa 6576656E 		.ascii	"eventflags_t\000"
 23701      74666C61 
 23701      67735F74 
 23701      00
 23702              	.LASF808:
 23703 37b7 5350495F 		.ascii	"SPI_READY\000"
 23703      52454144 
 23703      5900
 23704              	.LASF812:
 23705 37c1 53504944 		.ascii	"SPIDriver\000"
 23705      72697665 
 23705      7200
 23706              	.LASF1135:
 23707 37cb 63684D74 		.ascii	"chMtxObjectInit\000"
 23707      784F626A 
 23707      65637449 
 23707      6E697400 
 23708              	.LASF506:
 23709 37db 7069645F 		.ascii	"pid_max_erpm\000"
 23709      6D61785F 
 23709      6572706D 
 23709      00
 23710              	.LASF1061:
 23711 37e8 636F6D6D 		.ascii	"comm_can_transmit_sid\000"
 23711      5F63616E 
 23711      5F747261 
 23711      6E736D69 
 23711      745F7369 
 23712              	.LASF977:
 23713 37fe 54485245 		.ascii	"THREAD_MCPWM\000"
 23713      41445F4D 
 23713      4350574D 
 23713      00
 23714              	.LASF223:
 23715 380b 73464946 		.ascii	"sFIFOMailBox\000"
ARM GAS  /tmp/ccjQGkoy.s 			page 463


 23715      4F4D6169 
 23715      6C426F78 
 23715      00
 23716              	.LASF1036:
 23717 3818 636F6D6D 		.ascii	"comm_can_get_status_msg_index\000"
 23717      5F63616E 
 23717      5F676574 
 23717      5F737461 
 23717      7475735F 
 23718              	.LASF533:
 23719 3836 4144435F 		.ascii	"ADC_CTRL_TYPE_PID\000"
 23719      4354524C 
 23719      5F545950 
 23719      455F5049 
 23719      4400
 23720              	.LASF631:
 23721 3848 43414E5F 		.ascii	"CAN_PACKET_SET_CURRENT_HANDBRAKE_REL\000"
 23721      5041434B 
 23721      45545F53 
 23721      45545F43 
 23721      55525245 
 23722              	.LASF589:
 23723 386d 72657472 		.ascii	"retry_delay\000"
 23723      795F6465 
 23723      6C617900 
 23724              	.LASF1119:
 23725 3879 6D635F69 		.ascii	"mc_interface_set_duty\000"
 23725      6E746572 
 23725      66616365 
 23725      5F736574 
 23725      5F647574 
 23726              	.LASF918:
 23727 388f 4443544C 		.ascii	"DCTL\000"
 23727      00
 23728              	.LASF606:
 23729 3894 63616E5F 		.ascii	"can_baud_rate\000"
 23729      62617564 
 23729      5F726174 
 23729      6500
 23730              	.LASF945:
 23731 38a2 74786275 		.ascii	"txbuf\000"
 23731      6600
 23732              	.LASF937:
 23733 38a8 50434743 		.ascii	"PCGCCTL\000"
 23733      43544C00 
 23734              	.LASF518:
 23735 38b0 6D756C74 		.ascii	"multi_esc\000"
 23735      695F6573 
 23735      6300
 23736              	.LASF567:
 23737 38ba 4E52465F 		.ascii	"NRF_CRC_2B\000"
 23737      4352435F 
 23737      324200
 23738              	.LASF573:
 23739 38c5 4E52465F 		.ascii	"NRF_RETR_DELAY_1250US\000"
 23739      52455452 
 23739      5F44454C 
ARM GAS  /tmp/ccjQGkoy.s 			page 464


 23739      41595F31 
 23739      32353055 
 23740              	.LASF367:
 23741 38db 6C5F696E 		.ascii	"l_in_current_max\000"
 23741      5F637572 
 23741      72656E74 
 23741      5F6D6178 
 23741      00
 23742              	.LASF161:
 23743 38ec 705F6F6C 		.ascii	"p_older\000"
 23743      64657200 
 23744              	.LASF694:
 23745 38f4 50494461 		.ascii	"PIData\000"
 23745      746100
 23746              	.LASF967:
 23747 38fb 73657475 		.ascii	"setup_buf\000"
 23747      705F6275 
 23747      6600
 23748              	.LASF900:
 23749 3905 72657376 		.ascii	"resvd34\000"
 23749      64333400 
 23750              	.LASF1025:
 23751 390d 63616E63 		.ascii	"cancom_read_thread\000"
 23751      6F6D5F72 
 23751      6561645F 
 23751      74687265 
 23751      616400
 23752              	.LASF626:
 23753 3920 43414E5F 		.ascii	"CAN_PACKET_PROCESS_SHORT_BUFFER\000"
 23753      5041434B 
 23753      45545F50 
 23753      524F4345 
 23753      53535F53 
 23754              	.LASF605:
 23755 3940 73656E64 		.ascii	"send_can_status_rate_hz\000"
 23755      5F63616E 
 23755      5F737461 
 23755      7475735F 
 23755      72617465 
 23756              	.LASF440:
 23757 3958 666F635F 		.ascii	"foc_current_filter_const\000"
 23757      63757272 
 23757      656E745F 
 23757      66696C74 
 23757      65725F63 
 23758              	.LASF1101:
 23759 3971 62756666 		.ascii	"buffer_get_float32\000"
 23759      65725F67 
 23759      65745F66 
 23759      6C6F6174 
 23759      333200
 23760              	.LASF754:
 23761 3984 4943555F 		.ascii	"ICU_UNINIT\000"
 23761      554E494E 
 23761      495400
 23762              	.LASF175:
 23763 398f 74687265 		.ascii	"thread_reference_t\000"
ARM GAS  /tmp/ccjQGkoy.s 			page 465


 23763      61645F72 
 23763      65666572 
 23763      656E6365 
 23763      5F7400
 23764              	.LASF456:
 23765 39a2 705F7069 		.ascii	"p_pid_ang_div\000"
 23765      645F616E 
 23765      675F6469 
 23765      7600
 23766              	.LASF333:
 23767 39b0 4F55545F 		.ascii	"OUT_AUX_MODE_ON_AFTER_5S\000"
 23767      4155585F 
 23767      4D4F4445 
 23767      5F4F4E5F 
 23767      41465445 
 23768              	.LASF433:
 23769 39c9 666F635F 		.ascii	"foc_hall_table\000"
 23769      68616C6C 
 23769      5F746162 
 23769      6C6500
 23770              	.LASF821:
 23771 39d8 72656365 		.ascii	"receiving\000"
 23771      6976696E 
 23771      6700
 23772              	.LASF339:
 23773 39e2 4D4F544F 		.ascii	"MOTOR_TYPE_GPD\000"
 23773      525F5459 
 23773      50455F47 
 23773      504400
 23774              	.LASF991:
 23775 39f1 72785F66 		.ascii	"rx_frame_write\000"
 23775      72616D65 
 23775      5F777269 
 23775      746500
 23776              	.LASF95:
 23777 3a00 5F5F4649 		.ascii	"__FILE\000"
 23777      4C4500
 23778              	.LASF620:
 23779 3a07 43414E5F 		.ascii	"CAN_PACKET_SET_CURRENT_BRAKE\000"
 23779      5041434B 
 23779      45545F53 
 23779      45545F43 
 23779      55525245 
 23780              	.LASF601:
 23781 3a24 636F6E74 		.ascii	"controller_id\000"
 23781      726F6C6C 
 23781      65725F69 
 23781      6400
 23782              	.LASF783:
 23783 3a32 66726571 		.ascii	"frequency\000"
 23783      75656E63 
 23783      7900
 23784              	.LASF429:
 23785 3a3c 666F635F 		.ascii	"foc_sl_openloop_time\000"
 23785      736C5F6F 
 23785      70656E6C 
 23785      6F6F705F 
ARM GAS  /tmp/ccjQGkoy.s 			page 466


 23785      74696D65 
 23786              	.LASF32:
 23787 3a51 5F736967 		.ascii	"_sign\000"
 23787      6E00
 23788              	.LASF3:
 23789 3a57 5F5F696E 		.ascii	"__int8_t\000"
 23789      74385F74 
 23789      00
 23790              	.LASF394:
 23791 3a60 6C6F5F69 		.ascii	"lo_in_current_min\000"
 23791      6E5F6375 
 23791      7272656E 
 23791      745F6D69 
 23791      6E00
 23792              	.LASF964:
 23793 3a72 696E5F73 		.ascii	"in_state\000"
 23793      74617465 
 23793      00
 23794              	.LASF628:
 23795 3a7b 43414E5F 		.ascii	"CAN_PACKET_SET_CURRENT_REL\000"
 23795      5041434B 
 23795      45545F53 
 23795      45545F43 
 23795      55525245 
 23796              	.LASF646:
 23797 3a96 72785F74 		.ascii	"rx_time\000"
 23797      696D6500 
 23798              	.LASF37:
 23799 3a9e 5F5F746D 		.ascii	"__tm_min\000"
 23799      5F6D696E 
 23799      00
 23800              	.LASF1092:
 23801 3aa7 6D635F69 		.ascii	"mc_interface_get_watt_hours_charged\000"
 23801      6E746572 
 23801      66616365 
 23801      5F676574 
 23801      5F776174 
 23802              	.LASF273:
 23803 3acb 63685F7A 		.ascii	"ch_zero\000"
 23803      65726F00 
 23804              	.LASF385:
 23805 3ad3 6C5F6D69 		.ascii	"l_min_duty\000"
 23805      6E5F6475 
 23805      747900
 23806              	.LASF498:
 23807 3ade 50504D5F 		.ascii	"PPM_CTRL_TYPE_CURRENT_NOREV\000"
 23807      4354524C 
 23807      5F545950 
 23807      455F4355 
 23807      5252454E 
 23808              	.LASF607:
 23809 3afa 70616972 		.ascii	"pairing_done\000"
 23809      696E675F 
 23809      646F6E65 
 23809      00
 23810              	.LASF1062:
 23811 3b07 74786D73 		.ascii	"txmsg\000"
ARM GAS  /tmp/ccjQGkoy.s 			page 467


 23811      6700
 23812              	.LASF1060:
 23813 3b0d 705F6675 		.ascii	"p_func\000"
 23813      6E6300
 23814              	.LASF1136:
 23815 3b14 5F70616C 		.ascii	"_pal_lld_setgroupmode\000"
 23815      5F6C6C64 
 23815      5F736574 
 23815      67726F75 
 23815      706D6F64 
 23816              	.LASF737:
 23817 3b2a 46415354 		.ascii	"FAST_DUTY_CYCLE_2\000"
 23817      5F445554 
 23817      595F4359 
 23817      434C455F 
 23817      3200
 23818              	.LASF1037:
 23819 3b3c 636F6D6D 		.ascii	"comm_can_detect_all_foc_res\000"
 23819      5F63616E 
 23819      5F646574 
 23819      6563745F 
 23819      616C6C5F 
 23820              	.LASF278:
 23821 3b58 63685F74 		.ascii	"ch_threadsize\000"
 23821      68726561 
 23821      6473697A 
 23821      6500
 23822              	.LASF242:
 23823 3b66 464C5452 		.ascii	"FLTR\000"
 23823      00
 23824              	.LASF344:
 23825 3b6b 53454E53 		.ascii	"SENSOR_PORT_MODE_AD2S1205\000"
 23825      4F525F50 
 23825      4F52545F 
 23825      4D4F4445 
 23825      5F414432 
 23826              	.LASF1070:
 23827 3b85 6576656E 		.ascii	"events\000"
 23827      747300
 23828              	.LASF346:
 23829 3b8c 73656E73 		.ascii	"sensor_port_mode\000"
 23829      6F725F70 
 23829      6F72745F 
 23829      6D6F6465 
 23829      00
 23830              	.LASF485:
 23831 3b9d 4150505F 		.ascii	"APP_UART\000"
 23831      55415254 
 23831      00
 23832              	.LASF767:
 23833 3ba6 43434D52 		.ascii	"CCMR1\000"
 23833      3100
 23834              	.LASF768:
 23835 3bac 43434D52 		.ascii	"CCMR2\000"
 23835      3200
 23836              	.LASF772:
 23837 3bb2 43434D52 		.ascii	"CCMR3\000"
ARM GAS  /tmp/ccjQGkoy.s 			page 468


 23837      3300
 23838              	.LASF330:
 23839 3bb8 6D635F66 		.ascii	"mc_foc_sensor_mode\000"
 23839      6F635F73 
 23839      656E736F 
 23839      725F6D6F 
 23839      646500
 23840              	.LASF1:
 23841 3bcb 756E7369 		.ascii	"unsigned int\000"
 23841      676E6564 
 23841      20696E74 
 23841      00
 23842              	.LASF109:
 23843 3bd8 5F723438 		.ascii	"_r48\000"
 23843      00
 23844              	.LASF1122:
 23845 3bdd 63684576 		.ascii	"chEvtWaitAny\000"
 23845      74576169 
 23845      74416E79 
 23845      00
 23846              	.LASF907:
 23847 3bea 48464952 		.ascii	"HFIR\000"
 23847      00
 23848              	.LASF857:
 23849 3bef 75736265 		.ascii	"usbevent_t\000"
 23849      76656E74 
 23849      5F7400
 23850              	.LASF837:
 23851 3bfa 5553425F 		.ascii	"USB_UNINIT\000"
 23851      554E494E 
 23851      495400
 23852              	.LASF529:
 23853 3c05 4144435F 		.ascii	"ADC_CTRL_TYPE_CURRENT_NOREV_BRAKE_ADC\000"
 23853      4354524C 
 23853      5F545950 
 23853      455F4355 
 23853      5252454E 
 23854              	.LASF662:
 23855 3c2b 73747265 		.ascii	"stream\000"
 23855      616D00
 23856              	.LASF735:
 23857 3c32 6932636F 		.ascii	"i2copmode_t\000"
 23857      706D6F64 
 23857      655F7400 
 23858              	.LASF1069:
 23859 3c3e 63684576 		.ascii	"chEvtRegisterMask\000"
 23859      74526567 
 23859      69737465 
 23859      724D6173 
 23859      6B00
 23860              	.LASF855:
 23861 3c50 5553425F 		.ascii	"USB_EVENT_WAKEUP\000"
 23861      4556454E 
 23861      545F5741 
 23861      4B455550 
 23861      00
 23862              	.LASF8:
ARM GAS  /tmp/ccjQGkoy.s 			page 469


 23863 3c61 73686F72 		.ascii	"short int\000"
 23863      7420696E 
 23863      7400
 23864              	.LASF435:
 23865 3c6b 666F635F 		.ascii	"foc_sample_v0_v7\000"
 23865      73616D70 
 23865      6C655F76 
 23865      305F7637 
 23865      00
 23866              	.LASF861:
 23867 3c7c 75736263 		.ascii	"usbcallback_t\000"
 23867      616C6C62 
 23867      61636B5F 
 23867      7400
 23868              	.LASF1017:
 23869 3c8a 61637469 		.ascii	"activate_status\000"
 23869      76617465 
 23869      5F737461 
 23869      74757300 
 23870              	.LASF61:
 23871 3c9a 5F726561 		.ascii	"_read\000"
 23871      6400
 23872              	.LASF1068:
 23873 3ca0 63684576 		.ascii	"chEvtRegister\000"
 23873      74526567 
 23873      69737465 
 23873      7200
 23874              	.LASF890:
 23875 3cae 47555342 		.ascii	"GUSBCFG\000"
 23875      43464700 
 23876              	.LASF251:
 23877 3cb6 55534152 		.ascii	"USART_TypeDef\000"
 23877      545F5479 
 23877      70654465 
 23877      6600
 23878              	.LASF315:
 23879 3cc4 6F757470 		.ascii	"output_queue_t\000"
 23879      75745F71 
 23879      75657565 
 23879      5F7400
 23880              	.LASF1121:
 23881 3cd3 636F6D6D 		.ascii	"commands_send_packet\000"
 23881      616E6473 
 23881      5F73656E 
 23881      645F7061 
 23881      636B6574 
 23882              	.LASF1012:
 23883 3ce8 6372635F 		.ascii	"crc_low\000"
 23883      6C6F7700 
 23884              	.LASF336:
 23885 3cf0 4D4F544F 		.ascii	"MOTOR_TYPE_BLDC\000"
 23885      525F5459 
 23885      50455F42 
 23885      4C444300 
 23886              	.LASF99:
 23887 3d00 5F72616E 		.ascii	"_rand48\000"
 23887      64343800 
ARM GAS  /tmp/ccjQGkoy.s 			page 470


 23888              	.LASF940:
 23889 3d08 73746D33 		.ascii	"stm32_otg_t\000"
 23889      325F6F74 
 23889      675F7400 
 23890              	.LASF742:
 23891 3d14 64757479 		.ascii	"duty_cycle\000"
 23891      5F637963 
 23891      6C6500
 23892              	.LASF858:
 23893 3d1f 75645F73 		.ascii	"ud_size\000"
 23893      697A6500 
 23894              	.LASF609:
 23895 3d27 75617663 		.ascii	"uavcan_enable\000"
 23895      616E5F65 
 23895      6E61626C 
 23895      6500
 23896              	.LASF962:
 23897 3d35 696E5F6D 		.ascii	"in_maxsize\000"
 23897      61787369 
 23897      7A6500
 23898              	.LASF691:
 23899 3d40 50464461 		.ascii	"PFData\000"
 23899      746100
 23900              	.LASF958:
 23901 3d47 65705F6D 		.ascii	"ep_mode\000"
 23901      6F646500 
 23902              	.LASF636:
 23903 3d4f 43414E5F 		.ascii	"CAN_PACKET_PONG\000"
 23903      5041434B 
 23903      45545F50 
 23903      4F4E4700 
 23904              	.LASF163:
 23905 3d5f 705F7374 		.ascii	"p_state\000"
 23905      61746500 
 23906              	.LASF177:
 23907 3d67 63685F74 		.ascii	"ch_threads_list\000"
 23907      68726561 
 23907      64735F6C 
 23907      69737400 
 23908              	.LASF321:
 23909 3d77 434F4D4D 		.ascii	"COMM_MODE_DELAY\000"
 23909      5F4D4F44 
 23909      455F4445 
 23909      4C415900 
 23910              	.LASF473:
 23911 3d87 6D5F6F75 		.ascii	"m_out_aux_mode\000"
 23911      745F6175 
 23911      785F6D6F 
 23911      646500
 23912              	.LASF239:
 23913 3d96 4F415231 		.ascii	"OAR1\000"
 23913      00
 23914              	.LASF240:
 23915 3d9b 4F415232 		.ascii	"OAR2\000"
 23915      00
 23916              	.LASF792:
 23917 3da0 53445F52 		.ascii	"SD_READY\000"
ARM GAS  /tmp/ccjQGkoy.s 			page 471


 23917      45414459 
 23917      00
 23918              	.LASF842:
 23919 3da9 75736273 		.ascii	"usbstate_t\000"
 23919      74617465 
 23919      5F7400
 23920              	.LASF464:
 23921 3db4 6D5F656E 		.ascii	"m_encoder_counts\000"
 23921      636F6465 
 23921      725F636F 
 23921      756E7473 
 23921      00
 23922              		.ident	"GCC: (GNU Tools for Arm Embedded Processors 7-2018-q3-update) 7.3.1 20180622 (release) [AR
ARM GAS  /tmp/ccjQGkoy.s 			page 472


DEFINED SYMBOLS
                            *ABS*:0000000000000000 comm_can.c
     /tmp/ccjQGkoy.s:18     .text.cancom_read_thread:0000000000000000 $t
     /tmp/ccjQGkoy.s:25     .text.cancom_read_thread:0000000000000000 cancom_read_thread
     /tmp/ccjQGkoy.s:206    .text.cancom_read_thread:00000000000000c8 $d
     /tmp/ccjQGkoy.s:218    .text.comm_can_init:0000000000000000 $t
     /tmp/ccjQGkoy.s:226    .text.comm_can_init:0000000000000000 comm_can_init
     /tmp/ccjQGkoy.s:336    .text.comm_can_init:0000000000000098 $d
     /tmp/ccjQGkoy.s:552    .text.cancom_status_thread:0000000000000000 cancom_status_thread
     /tmp/ccjQGkoy.s:2779   .text.cancom_process_thread:0000000000000000 cancom_process_thread
     /tmp/ccjQGkoy.s:4105   .bss.cancom_process_thread_wa:0000000000000000 cancom_process_thread_wa
     /tmp/ccjQGkoy.s:357    .text.comm_can_set_baud:0000000000000000 $t
     /tmp/ccjQGkoy.s:365    .text.comm_can_set_baud:0000000000000000 comm_can_set_baud
     /tmp/ccjQGkoy.s:381    .text.comm_can_set_baud:000000000000000a $d
     /tmp/ccjQGkoy.s:385    .text.comm_can_set_baud:000000000000000e $t
     /tmp/ccjQGkoy.s:456    .text.comm_can_set_baud:000000000000003c $d
     /tmp/ccjQGkoy.s:466    .text.comm_can_transmit_eid:0000000000000000 $t
     /tmp/ccjQGkoy.s:474    .text.comm_can_transmit_eid:0000000000000000 comm_can_transmit_eid
     /tmp/ccjQGkoy.s:539    .text.comm_can_transmit_eid:000000000000004c $d
     /tmp/ccjQGkoy.s:545    .text.cancom_status_thread:0000000000000000 $t
     /tmp/ccjQGkoy.s:838    .text.cancom_status_thread:00000000000001d8 $d
     /tmp/ccjQGkoy.s:849    .text.comm_can_transmit_sid:0000000000000000 $t
     /tmp/ccjQGkoy.s:857    .text.comm_can_transmit_sid:0000000000000000 comm_can_transmit_sid
     /tmp/ccjQGkoy.s:920    .text.comm_can_transmit_sid:000000000000004c $d
     /tmp/ccjQGkoy.s:926    .text.comm_can_set_sid_rx_callback:0000000000000000 $t
     /tmp/ccjQGkoy.s:934    .text.comm_can_set_sid_rx_callback:0000000000000000 comm_can_set_sid_rx_callback
     /tmp/ccjQGkoy.s:950    .text.comm_can_set_sid_rx_callback:0000000000000008 $d
     /tmp/ccjQGkoy.s:955    .text.comm_can_send_buffer:0000000000000000 $t
     /tmp/ccjQGkoy.s:963    .text.comm_can_send_buffer:0000000000000000 comm_can_send_buffer
     /tmp/ccjQGkoy.s:1245   .text.send_packet_wrapper:0000000000000000 $t
     /tmp/ccjQGkoy.s:1252   .text.send_packet_wrapper:0000000000000000 send_packet_wrapper
     /tmp/ccjQGkoy.s:1281   .text.send_packet_wrapper:0000000000000014 $d
     /tmp/ccjQGkoy.s:1286   .text.comm_can_set_duty:0000000000000000 $t
     /tmp/ccjQGkoy.s:1294   .text.comm_can_set_duty:0000000000000000 comm_can_set_duty
     /tmp/ccjQGkoy.s:1342   .text.comm_can_set_duty:0000000000000034 $d
     /tmp/ccjQGkoy.s:1347   .text.comm_can_set_current:0000000000000000 $t
     /tmp/ccjQGkoy.s:1355   .text.comm_can_set_current:0000000000000000 comm_can_set_current
     /tmp/ccjQGkoy.s:1403   .text.comm_can_set_current:0000000000000038 $d
     /tmp/ccjQGkoy.s:1408   .text.comm_can_set_current_brake:0000000000000000 $t
     /tmp/ccjQGkoy.s:1416   .text.comm_can_set_current_brake:0000000000000000 comm_can_set_current_brake
     /tmp/ccjQGkoy.s:1464   .text.comm_can_set_current_brake:0000000000000038 $d
     /tmp/ccjQGkoy.s:1469   .text.comm_can_set_rpm:0000000000000000 $t
     /tmp/ccjQGkoy.s:1477   .text.comm_can_set_rpm:0000000000000000 comm_can_set_rpm
     /tmp/ccjQGkoy.s:1521   .text.comm_can_set_pos:0000000000000000 $t
     /tmp/ccjQGkoy.s:1529   .text.comm_can_set_pos:0000000000000000 comm_can_set_pos
     /tmp/ccjQGkoy.s:1577   .text.comm_can_set_pos:0000000000000038 $d
     /tmp/ccjQGkoy.s:1582   .text.comm_can_set_current_rel:0000000000000000 $t
     /tmp/ccjQGkoy.s:1590   .text.comm_can_set_current_rel:0000000000000000 comm_can_set_current_rel
     /tmp/ccjQGkoy.s:1629   .text.comm_can_set_current_rel:000000000000002c $d
     /tmp/ccjQGkoy.s:1634   .text.comm_can_set_current_brake_rel:0000000000000000 $t
     /tmp/ccjQGkoy.s:1642   .text.comm_can_set_current_brake_rel:0000000000000000 comm_can_set_current_brake_rel
     /tmp/ccjQGkoy.s:1681   .text.comm_can_set_current_brake_rel:000000000000002c $d
     /tmp/ccjQGkoy.s:1686   .text.comm_can_set_handbrake:0000000000000000 $t
     /tmp/ccjQGkoy.s:1694   .text.comm_can_set_handbrake:0000000000000000 comm_can_set_handbrake
     /tmp/ccjQGkoy.s:1733   .text.comm_can_set_handbrake:000000000000002c $d
     /tmp/ccjQGkoy.s:1738   .text.comm_can_set_handbrake_rel:0000000000000000 $t
     /tmp/ccjQGkoy.s:1746   .text.comm_can_set_handbrake_rel:0000000000000000 comm_can_set_handbrake_rel
ARM GAS  /tmp/ccjQGkoy.s 			page 473


     /tmp/ccjQGkoy.s:1785   .text.comm_can_set_handbrake_rel:000000000000002c $d
     /tmp/ccjQGkoy.s:1790   .text.comm_can_ping:0000000000000000 $t
     /tmp/ccjQGkoy.s:1798   .text.comm_can_ping:0000000000000000 comm_can_ping
     /tmp/ccjQGkoy.s:1863   .text.comm_can_ping:0000000000000044 $d
     /tmp/ccjQGkoy.s:1869   .text.comm_can_detect_apply_all_foc:0000000000000000 $t
     /tmp/ccjQGkoy.s:1877   .text.comm_can_detect_apply_all_foc:0000000000000000 comm_can_detect_apply_all_foc
     /tmp/ccjQGkoy.s:1946   .text.comm_can_detect_apply_all_foc:0000000000000054 $d
     /tmp/ccjQGkoy.s:1951   .text.comm_can_conf_current_limits:0000000000000000 $t
     /tmp/ccjQGkoy.s:1959   .text.comm_can_conf_current_limits:0000000000000000 comm_can_conf_current_limits
     /tmp/ccjQGkoy.s:2026   .text.comm_can_conf_current_limits:0000000000000054 $d
     /tmp/ccjQGkoy.s:2031   .text.comm_can_conf_current_limits_in:0000000000000000 $t
     /tmp/ccjQGkoy.s:2039   .text.comm_can_conf_current_limits_in:0000000000000000 comm_can_conf_current_limits_in
     /tmp/ccjQGkoy.s:2106   .text.comm_can_conf_current_limits_in:0000000000000054 $d
     /tmp/ccjQGkoy.s:2111   .text.comm_can_conf_foc_erpms:0000000000000000 $t
     /tmp/ccjQGkoy.s:2119   .text.comm_can_conf_foc_erpms:0000000000000000 comm_can_conf_foc_erpms
     /tmp/ccjQGkoy.s:2186   .text.comm_can_conf_foc_erpms:0000000000000054 $d
     /tmp/ccjQGkoy.s:2191   .text.comm_can_detect_all_foc_res:0000000000000000 $t
     /tmp/ccjQGkoy.s:2199   .text.comm_can_detect_all_foc_res:0000000000000000 comm_can_detect_all_foc_res
     /tmp/ccjQGkoy.s:2223   .text.comm_can_detect_all_foc_res:0000000000000010 $d
     /tmp/ccjQGkoy.s:2230   .text.comm_can_detect_all_foc_res_size:0000000000000000 $t
     /tmp/ccjQGkoy.s:2238   .text.comm_can_detect_all_foc_res_size:0000000000000000 comm_can_detect_all_foc_res_size
     /tmp/ccjQGkoy.s:2253   .text.comm_can_detect_all_foc_res_size:0000000000000008 $d
     /tmp/ccjQGkoy.s:2258   .text.comm_can_detect_all_foc_res_clear:0000000000000000 $t
     /tmp/ccjQGkoy.s:2266   .text.comm_can_detect_all_foc_res_clear:0000000000000000 comm_can_detect_all_foc_res_clear
     /tmp/ccjQGkoy.s:2282   .text.comm_can_detect_all_foc_res_clear:0000000000000008 $d
     /tmp/ccjQGkoy.s:2287   .text.comm_can_get_status_msg_index:0000000000000000 $t
     /tmp/ccjQGkoy.s:2295   .text.comm_can_get_status_msg_index:0000000000000000 comm_can_get_status_msg_index
     /tmp/ccjQGkoy.s:2318   .text.comm_can_get_status_msg_index:0000000000000014 $d
     /tmp/ccjQGkoy.s:2323   .text.comm_can_get_status_msg_id:0000000000000000 $t
     /tmp/ccjQGkoy.s:2331   .text.comm_can_get_status_msg_id:0000000000000000 comm_can_get_status_msg_id
     /tmp/ccjQGkoy.s:2387   .text.comm_can_get_status_msg_id:0000000000000030 $d
     /tmp/ccjQGkoy.s:2392   .text.comm_can_get_status_msg_2_index:0000000000000000 $t
     /tmp/ccjQGkoy.s:2400   .text.comm_can_get_status_msg_2_index:0000000000000000 comm_can_get_status_msg_2_index
     /tmp/ccjQGkoy.s:2422   .text.comm_can_get_status_msg_2_index:0000000000000010 $d
     /tmp/ccjQGkoy.s:2427   .text.comm_can_get_status_msg_2_id:0000000000000000 $t
     /tmp/ccjQGkoy.s:2435   .text.comm_can_get_status_msg_2_id:0000000000000000 comm_can_get_status_msg_2_id
     /tmp/ccjQGkoy.s:2488   .text.comm_can_get_status_msg_2_id:0000000000000024 $d
     /tmp/ccjQGkoy.s:2493   .text.comm_can_get_status_msg_3_index:0000000000000000 $t
     /tmp/ccjQGkoy.s:2501   .text.comm_can_get_status_msg_3_index:0000000000000000 comm_can_get_status_msg_3_index
     /tmp/ccjQGkoy.s:2523   .text.comm_can_get_status_msg_3_index:0000000000000010 $d
     /tmp/ccjQGkoy.s:2528   .text.comm_can_get_status_msg_3_id:0000000000000000 $t
     /tmp/ccjQGkoy.s:2536   .text.comm_can_get_status_msg_3_id:0000000000000000 comm_can_get_status_msg_3_id
     /tmp/ccjQGkoy.s:2589   .text.comm_can_get_status_msg_3_id:0000000000000024 $d
     /tmp/ccjQGkoy.s:2594   .text.comm_can_get_status_msg_4_index:0000000000000000 $t
     /tmp/ccjQGkoy.s:2602   .text.comm_can_get_status_msg_4_index:0000000000000000 comm_can_get_status_msg_4_index
     /tmp/ccjQGkoy.s:2625   .text.comm_can_get_status_msg_4_index:0000000000000014 $d
     /tmp/ccjQGkoy.s:2630   .text.comm_can_get_status_msg_4_id:0000000000000000 $t
     /tmp/ccjQGkoy.s:2638   .text.comm_can_get_status_msg_4_id:0000000000000000 comm_can_get_status_msg_4_id
     /tmp/ccjQGkoy.s:2694   .text.comm_can_get_status_msg_4_id:0000000000000030 $d
     /tmp/ccjQGkoy.s:2699   .text.comm_can_get_rx_frame:0000000000000000 $t
     /tmp/ccjQGkoy.s:2707   .text.comm_can_get_rx_frame:0000000000000000 comm_can_get_rx_frame
     /tmp/ccjQGkoy.s:2764   .text.comm_can_get_rx_frame:000000000000003c $d
     /tmp/ccjQGkoy.s:2772   .text.cancom_process_thread:0000000000000000 $t
     /tmp/ccjQGkoy.s:2930   .text.cancom_process_thread:000000000000009c $d
     /tmp/ccjQGkoy.s:2938   .text.cancom_process_thread:00000000000000bc $t
     /tmp/ccjQGkoy.s:3381   .text.cancom_process_thread:000000000000028c $d
     /tmp/ccjQGkoy.s:3412   .text.cancom_process_thread:00000000000002f8 $d
ARM GAS  /tmp/ccjQGkoy.s 			page 474


     /tmp/ccjQGkoy.s:3428   .text.cancom_process_thread:000000000000032c $t
     /tmp/ccjQGkoy.s:4074   .text.cancom_process_thread:000000000000072c $d
     /tmp/ccjQGkoy.s:4088   .bss.can_mtx:0000000000000000 $d
     /tmp/ccjQGkoy.s:4092   .bss.can_mtx:0000000000000000 can_mtx
     /tmp/ccjQGkoy.s:4095   .bss.can_rx_mtx:0000000000000000 $d
     /tmp/ccjQGkoy.s:4099   .bss.can_rx_mtx:0000000000000000 can_rx_mtx
     /tmp/ccjQGkoy.s:4102   .bss.cancom_process_thread_wa:0000000000000000 $d
     /tmp/ccjQGkoy.s:4108   .bss.cancom_read_thread_wa:0000000000000000 $d
     /tmp/ccjQGkoy.s:4112   .bss.cancom_read_thread_wa:0000000000000000 cancom_read_thread_wa
     /tmp/ccjQGkoy.s:4115   .bss.cancom_status_thread_wa:0000000000000000 $d
     /tmp/ccjQGkoy.s:4119   .bss.cancom_status_thread_wa:0000000000000000 cancom_status_thread_wa
     /tmp/ccjQGkoy.s:4122   .bss.detect_all_foc_res:0000000000000000 $d
     /tmp/ccjQGkoy.s:4126   .bss.detect_all_foc_res:0000000000000000 detect_all_foc_res
     /tmp/ccjQGkoy.s:4129   .bss.detect_all_foc_res_index:0000000000000000 $d
     /tmp/ccjQGkoy.s:4133   .bss.detect_all_foc_res_index:0000000000000000 detect_all_foc_res_index
     /tmp/ccjQGkoy.s:4136   .bss.ping_tp:0000000000000000 $d
     /tmp/ccjQGkoy.s:4140   .bss.ping_tp:0000000000000000 ping_tp
     /tmp/ccjQGkoy.s:4143   .bss.process_tp:0000000000000000 $d
     /tmp/ccjQGkoy.s:4147   .bss.process_tp:0000000000000000 process_tp
     /tmp/ccjQGkoy.s:4150   .bss.rx_buffer:0000000000000000 $d
     /tmp/ccjQGkoy.s:4154   .bss.rx_buffer:0000000000000000 rx_buffer
     /tmp/ccjQGkoy.s:4157   .bss.rx_buffer_last_id:0000000000000000 $d
     /tmp/ccjQGkoy.s:4161   .bss.rx_buffer_last_id:0000000000000000 rx_buffer_last_id
     /tmp/ccjQGkoy.s:4164   .bss.rx_frame_read:0000000000000000 $d
     /tmp/ccjQGkoy.s:4168   .bss.rx_frame_read:0000000000000000 rx_frame_read
     /tmp/ccjQGkoy.s:4171   .bss.rx_frame_write:0000000000000000 $d
     /tmp/ccjQGkoy.s:4175   .bss.rx_frame_write:0000000000000000 rx_frame_write
     /tmp/ccjQGkoy.s:4178   .bss.rx_frames:0000000000000000 $d
     /tmp/ccjQGkoy.s:4182   .bss.rx_frames:0000000000000000 rx_frames
     /tmp/ccjQGkoy.s:4185   .bss.sid_callback:0000000000000000 $d
     /tmp/ccjQGkoy.s:4189   .bss.sid_callback:0000000000000000 sid_callback
     /tmp/ccjQGkoy.s:4192   .bss.stat_msgs:0000000000000000 $d
     /tmp/ccjQGkoy.s:4196   .bss.stat_msgs:0000000000000000 stat_msgs
     /tmp/ccjQGkoy.s:4199   .bss.stat_msgs_2:0000000000000000 $d
     /tmp/ccjQGkoy.s:4203   .bss.stat_msgs_2:0000000000000000 stat_msgs_2
     /tmp/ccjQGkoy.s:4206   .bss.stat_msgs_3:0000000000000000 $d
     /tmp/ccjQGkoy.s:4210   .bss.stat_msgs_3:0000000000000000 stat_msgs_3
     /tmp/ccjQGkoy.s:4213   .bss.stat_msgs_4:0000000000000000 $d
     /tmp/ccjQGkoy.s:4217   .bss.stat_msgs_4:0000000000000000 stat_msgs_4
     /tmp/ccjQGkoy.s:4220   .data.cancfg:0000000000000000 $d
     /tmp/ccjQGkoy.s:4224   .data.cancfg:0000000000000000 cancfg
     /tmp/ccjQGkoy.s:4228   .rodata.cancom_process_thread.str1.4:0000000000000000 $d
     /tmp/ccjQGkoy.s:4232   .rodata.cancom_read_thread.str1.4:0000000000000000 $d
     /tmp/ccjQGkoy.s:4236   .rodata.cancom_status_thread.str1.4:0000000000000000 $d

UNDEFINED SYMBOLS
chEvtRegisterMaskWithFlags
timeout_feed_WDT
chEvtWaitAnyTimeout
canReceive
chMtxLock
chMtxUnlock
chEvtSignal
chEvtUnregister
CAND1
ch
chMtxObjectInit
ARM GAS  /tmp/ccjQGkoy.s 			page 475


_pal_lld_setgroupmode
canStart
canard_driver_init
chThdCreateStatic
canStop
memcpy
canTransmit
chThdSleep
app_get_configuration
mc_interface_get_rpm
buffer_append_int32
mc_interface_get_tot_current_filtered
buffer_append_int16
mc_interface_get_duty_cycle_now
mc_interface_get_amp_hours
mc_interface_get_amp_hours_charged
mc_interface_get_watt_hours
mc_interface_get_watt_hours_charged
mc_interface_temp_fet_filtered
mc_interface_temp_motor_filtered
mc_interface_get_tot_current_in_filtered
mc_interface_get_pid_pos_now
crc16
buffer_append_float32
chEvtGetAndClearEvents
chEvtWaitAny
buffer_get_int16
buffer_get_int32
buffer_get_float32
mc_interface_get_configuration
mc_interface_set_configuration
conf_general_store_mc_configuration
conf_general_detect_apply_all_foc
mc_interface_set_handbrake_rel
timeout_reset
mc_interface_set_handbrake
mc_interface_set_brake_current_rel
mc_interface_set_current_rel
commands_process_packet
mc_interface_set_pid_speed
mc_interface_set_pid_pos
mc_interface_set_current
mc_interface_set_duty
mc_interface_set_brake_current
commands_send_packet
conf_general_store_app_configuration
app_set_configuration
