ARM GAS  /tmp/ccOR9P9P.s 			page 1


   1              		.cpu cortex-m4
   2              		.eabi_attribute 27, 1
   3              		.eabi_attribute 28, 1
   4              		.eabi_attribute 20, 1
   5              		.eabi_attribute 21, 1
   6              		.eabi_attribute 23, 3
   7              		.eabi_attribute 24, 1
   8              		.eabi_attribute 25, 1
   9              		.eabi_attribute 26, 1
  10              		.eabi_attribute 30, 2
  11              		.eabi_attribute 34, 1
  12              		.eabi_attribute 18, 4
  13              		.file	"confgenerator.c"
  14              		.text
  15              	.Ltext0:
  16              		.cfi_sections	.debug_frame
  17              		.section	.text.confgenerator_serialize_mcconf,"ax",%progbits
  18              		.align	1
  19              		.p2align 4,,15
  20              		.global	confgenerator_serialize_mcconf
  21              		.syntax unified
  22              		.thumb
  23              		.thumb_func
  24              		.fpu fpv4-sp-d16
  25              		.type	confgenerator_serialize_mcconf, %function
  26              	confgenerator_serialize_mcconf:
  27              	.LFB219:
  28              		.file 1 "confgenerator.c"
  29              		.loc 1 7 0
  30              		.cfi_startproc
  31              		@ args = 0, pretend = 0, frame = 8
  32              		@ frame_needed = 0, uses_anonymous_args = 0
  33              	.LVL0:
  34 0000 70B5     		push	{r4, r5, r6, lr}
  35              		.cfi_def_cfa_offset 16
  36              		.cfi_offset 4, -16
  37              		.cfi_offset 5, -12
  38              		.cfi_offset 6, -8
  39              		.cfi_offset 14, -4
  40 0002 82B0     		sub	sp, sp, #8
  41              		.cfi_def_cfa_offset 24
  42              		.loc 1 8 0
  43 0004 02AE     		add	r6, sp, #8
  44 0006 0023     		movs	r3, #0
  45 0008 46F8043D 		str	r3, [r6, #-4]!
  46              		.loc 1 7 0
  47 000c 0C46     		mov	r4, r1
  48              		.loc 1 10 0
  49 000e 3246     		mov	r2, r6
  50 0010 F349     		ldr	r1, .L4
  51              	.LVL1:
  52              		.loc 1 7 0
  53 0012 0546     		mov	r5, r0
  54              		.loc 1 10 0
  55 0014 FFF7FEFF 		bl	buffer_append_uint32
  56              	.LVL2:
  57              		.loc 1 12 0
ARM GAS  /tmp/ccOR9P9P.s 			page 2


  58 0018 019B     		ldr	r3, [sp, #4]
  59 001a 2278     		ldrb	r2, [r4]	@ zero_extendqisi2
  60 001c EA54     		strb	r2, [r5, r3]
  61              		.loc 1 13 0
  62 001e EA18     		adds	r2, r5, r3
  63 0020 6178     		ldrb	r1, [r4, #1]	@ zero_extendqisi2
  64 0022 5170     		strb	r1, [r2, #1]
  65              		.loc 1 14 0
  66 0024 A178     		ldrb	r1, [r4, #2]	@ zero_extendqisi2
  67 0026 9170     		strb	r1, [r2, #2]
  68              		.loc 1 15 0
  69 0028 E178     		ldrb	r1, [r4, #3]	@ zero_extendqisi2
  70 002a D170     		strb	r1, [r2, #3]
  71 002c 0433     		adds	r3, r3, #4
  72              		.loc 1 16 0
  73 002e 94ED010A 		vldr.32	s0, [r4, #4]
  74              		.loc 1 15 0
  75 0032 0193     		str	r3, [sp, #4]
  76              		.loc 1 16 0
  77 0034 3146     		mov	r1, r6
  78 0036 2846     		mov	r0, r5
  79 0038 FFF7FEFF 		bl	buffer_append_float32_auto
  80              	.LVL3:
  81              		.loc 1 17 0
  82 003c 3146     		mov	r1, r6
  83 003e 94ED020A 		vldr.32	s0, [r4, #8]
  84 0042 2846     		mov	r0, r5
  85 0044 FFF7FEFF 		bl	buffer_append_float32_auto
  86              	.LVL4:
  87              		.loc 1 18 0
  88 0048 3146     		mov	r1, r6
  89 004a 94ED030A 		vldr.32	s0, [r4, #12]
  90 004e 2846     		mov	r0, r5
  91 0050 FFF7FEFF 		bl	buffer_append_float32_auto
  92              	.LVL5:
  93              		.loc 1 19 0
  94 0054 3146     		mov	r1, r6
  95 0056 94ED040A 		vldr.32	s0, [r4, #16]
  96 005a 2846     		mov	r0, r5
  97 005c FFF7FEFF 		bl	buffer_append_float32_auto
  98              	.LVL6:
  99              		.loc 1 20 0
 100 0060 3146     		mov	r1, r6
 101 0062 94ED050A 		vldr.32	s0, [r4, #20]
 102 0066 2846     		mov	r0, r5
 103 0068 FFF7FEFF 		bl	buffer_append_float32_auto
 104              	.LVL7:
 105              		.loc 1 21 0
 106 006c 3146     		mov	r1, r6
 107 006e 94ED060A 		vldr.32	s0, [r4, #24]
 108 0072 2846     		mov	r0, r5
 109 0074 FFF7FEFF 		bl	buffer_append_float32_auto
 110              	.LVL8:
 111              		.loc 1 22 0
 112 0078 3146     		mov	r1, r6
 113 007a 94ED070A 		vldr.32	s0, [r4, #28]
 114 007e 2846     		mov	r0, r5
ARM GAS  /tmp/ccOR9P9P.s 			page 3


 115 0080 FFF7FEFF 		bl	buffer_append_float32_auto
 116              	.LVL9:
 117              		.loc 1 23 0
 118 0084 3146     		mov	r1, r6
 119 0086 94ED080A 		vldr.32	s0, [r4, #32]
 120 008a 2846     		mov	r0, r5
 121 008c FFF7FEFF 		bl	buffer_append_float32_auto
 122              	.LVL10:
 123              		.loc 1 24 0
 124 0090 3146     		mov	r1, r6
 125 0092 94ED090A 		vldr.32	s0, [r4, #36]
 126 0096 2846     		mov	r0, r5
 127 0098 FFF7FEFF 		bl	buffer_append_float32_auto
 128              	.LVL11:
 129              		.loc 1 25 0
 130 009c 3146     		mov	r1, r6
 131 009e 94ED0A0A 		vldr.32	s0, [r4, #40]
 132 00a2 2846     		mov	r0, r5
 133 00a4 FFF7FEFF 		bl	buffer_append_float32_auto
 134              	.LVL12:
 135              		.loc 1 26 0
 136 00a8 3146     		mov	r1, r6
 137 00aa 94ED0B0A 		vldr.32	s0, [r4, #44]
 138 00ae 2846     		mov	r0, r5
 139 00b0 FFF7FEFF 		bl	buffer_append_float32_auto
 140              	.LVL13:
 141              		.loc 1 27 0
 142 00b4 3146     		mov	r1, r6
 143 00b6 94ED0C0A 		vldr.32	s0, [r4, #48]
 144 00ba 2846     		mov	r0, r5
 145 00bc FFF7FEFF 		bl	buffer_append_float32_auto
 146              	.LVL14:
 147              		.loc 1 28 0
 148 00c0 3146     		mov	r1, r6
 149 00c2 94ED0D0A 		vldr.32	s0, [r4, #52]
 150 00c6 2846     		mov	r0, r5
 151 00c8 FFF7FEFF 		bl	buffer_append_float32_auto
 152              	.LVL15:
 153              		.loc 1 29 0
 154 00cc 3146     		mov	r1, r6
 155 00ce 94ED0E0A 		vldr.32	s0, [r4, #56]
 156 00d2 2846     		mov	r0, r5
 157 00d4 FFF7FEFF 		bl	buffer_append_float32_auto
 158              	.LVL16:
 159              		.loc 1 30 0
 160 00d8 019B     		ldr	r3, [sp, #4]
 161 00da 94F83C20 		ldrb	r2, [r4, #60]	@ zero_extendqisi2
 162 00de EA54     		strb	r2, [r5, r3]
 163              		.loc 1 31 0
 164 00e0 3146     		mov	r1, r6
 165              		.loc 1 30 0
 166 00e2 0133     		adds	r3, r3, #1
 167              		.loc 1 31 0
 168 00e4 94ED100A 		vldr.32	s0, [r4, #64]
 169              		.loc 1 30 0
 170 00e8 0193     		str	r3, [sp, #4]
 171              		.loc 1 31 0
ARM GAS  /tmp/ccOR9P9P.s 			page 4


 172 00ea 2846     		mov	r0, r5
 173 00ec FFF7FEFF 		bl	buffer_append_float32_auto
 174              	.LVL17:
 175              		.loc 1 32 0
 176 00f0 3146     		mov	r1, r6
 177 00f2 94ED110A 		vldr.32	s0, [r4, #68]
 178 00f6 2846     		mov	r0, r5
 179 00f8 FFF7FEFF 		bl	buffer_append_float32_auto
 180              	.LVL18:
 181              		.loc 1 33 0
 182 00fc 3146     		mov	r1, r6
 183 00fe 94ED120A 		vldr.32	s0, [r4, #72]
 184 0102 2846     		mov	r0, r5
 185 0104 FFF7FEFF 		bl	buffer_append_float32_auto
 186              	.LVL19:
 187              		.loc 1 34 0
 188 0108 3146     		mov	r1, r6
 189 010a 94ED130A 		vldr.32	s0, [r4, #76]
 190 010e 2846     		mov	r0, r5
 191 0110 FFF7FEFF 		bl	buffer_append_float32_auto
 192              	.LVL20:
 193              		.loc 1 35 0
 194 0114 3146     		mov	r1, r6
 195 0116 94ED140A 		vldr.32	s0, [r4, #80]
 196 011a 2846     		mov	r0, r5
 197 011c FFF7FEFF 		bl	buffer_append_float32_auto
 198              	.LVL21:
 199              		.loc 1 36 0
 200 0120 3146     		mov	r1, r6
 201 0122 94ED150A 		vldr.32	s0, [r4, #84]
 202 0126 2846     		mov	r0, r5
 203 0128 FFF7FEFF 		bl	buffer_append_float32_auto
 204              	.LVL22:
 205              		.loc 1 37 0
 206 012c 3146     		mov	r1, r6
 207 012e 94ED160A 		vldr.32	s0, [r4, #88]
 208 0132 2846     		mov	r0, r5
 209 0134 FFF7FEFF 		bl	buffer_append_float32_auto
 210              	.LVL23:
 211              		.loc 1 38 0
 212 0138 3146     		mov	r1, r6
 213 013a 94ED170A 		vldr.32	s0, [r4, #92]
 214 013e 2846     		mov	r0, r5
 215 0140 FFF7FEFF 		bl	buffer_append_float32_auto
 216              	.LVL24:
 217              		.loc 1 39 0
 218 0144 3146     		mov	r1, r6
 219 0146 94ED180A 		vldr.32	s0, [r4, #96]
 220 014a 2846     		mov	r0, r5
 221 014c FFF7FEFF 		bl	buffer_append_float32_auto
 222              	.LVL25:
 223              		.loc 1 40 0
 224 0150 3146     		mov	r1, r6
 225 0152 94ED190A 		vldr.32	s0, [r4, #100]
 226 0156 2846     		mov	r0, r5
 227 0158 FFF7FEFF 		bl	buffer_append_float32_auto
 228              	.LVL26:
ARM GAS  /tmp/ccOR9P9P.s 			page 5


 229              		.loc 1 41 0
 230 015c 3146     		mov	r1, r6
 231 015e 94ED1A0A 		vldr.32	s0, [r4, #104]
 232 0162 2846     		mov	r0, r5
 233 0164 FFF7FEFF 		bl	buffer_append_float32_auto
 234              	.LVL27:
 235              		.loc 1 42 0
 236 0168 3146     		mov	r1, r6
 237 016a 94ED210A 		vldr.32	s0, [r4, #132]
 238 016e 2846     		mov	r0, r5
 239 0170 FFF7FEFF 		bl	buffer_append_float32_auto
 240              	.LVL28:
 241              		.loc 1 43 0
 242 0174 3146     		mov	r1, r6
 243 0176 94ED220A 		vldr.32	s0, [r4, #136]
 244 017a 2846     		mov	r0, r5
 245 017c FFF7FEFF 		bl	buffer_append_float32_auto
 246              	.LVL29:
 247              		.loc 1 44 0
 248 0180 3146     		mov	r1, r6
 249 0182 94ED230A 		vldr.32	s0, [r4, #140]
 250 0186 2846     		mov	r0, r5
 251 0188 FFF7FEFF 		bl	buffer_append_float32_auto
 252              	.LVL30:
 253              		.loc 1 45 0
 254 018c 3146     		mov	r1, r6
 255 018e 94ED240A 		vldr.32	s0, [r4, #144]
 256 0192 2846     		mov	r0, r5
 257 0194 FFF7FEFF 		bl	buffer_append_float32_auto
 258              	.LVL31:
 259              		.loc 1 46 0
 260 0198 3146     		mov	r1, r6
 261 019a 94ED250A 		vldr.32	s0, [r4, #148]
 262 019e 2846     		mov	r0, r5
 263 01a0 FFF7FEFF 		bl	buffer_append_float32_auto
 264              	.LVL32:
 265              		.loc 1 47 0
 266 01a4 3146     		mov	r1, r6
 267 01a6 94ED260A 		vldr.32	s0, [r4, #152]
 268 01aa 2846     		mov	r0, r5
 269 01ac FFF7FEFF 		bl	buffer_append_float32_auto
 270              	.LVL33:
 271              		.loc 1 48 0
 272 01b0 3146     		mov	r1, r6
 273 01b2 94ED270A 		vldr.32	s0, [r4, #156]
 274 01b6 2846     		mov	r0, r5
 275 01b8 FFF7FEFF 		bl	buffer_append_float32_auto
 276              	.LVL34:
 277              		.loc 1 49 0
 278 01bc 019A     		ldr	r2, [sp, #4]
 279 01be 94F8A030 		ldrb	r3, [r4, #160]	@ zero_extendqisi2
 280 01c2 AB54     		strb	r3, [r5, r2]
 281              		.loc 1 50 0
 282 01c4 AB18     		adds	r3, r5, r2
 283 01c6 94F8A110 		ldrb	r1, [r4, #161]	@ zero_extendqisi2
 284 01ca 5970     		strb	r1, [r3, #1]
 285              		.loc 1 51 0
ARM GAS  /tmp/ccOR9P9P.s 			page 6


 286 01cc 94F8A210 		ldrb	r1, [r4, #162]	@ zero_extendqisi2
 287 01d0 9970     		strb	r1, [r3, #2]
 288              		.loc 1 52 0
 289 01d2 94F8A310 		ldrb	r1, [r4, #163]	@ zero_extendqisi2
 290 01d6 D970     		strb	r1, [r3, #3]
 291              		.loc 1 53 0
 292 01d8 94F8A410 		ldrb	r1, [r4, #164]	@ zero_extendqisi2
 293 01dc 1971     		strb	r1, [r3, #4]
 294              		.loc 1 54 0
 295 01de 94F8A510 		ldrb	r1, [r4, #165]	@ zero_extendqisi2
 296 01e2 5971     		strb	r1, [r3, #5]
 297              		.loc 1 55 0
 298 01e4 94F8A610 		ldrb	r1, [r4, #166]	@ zero_extendqisi2
 299 01e8 9971     		strb	r1, [r3, #6]
 300              		.loc 1 56 0
 301 01ea 94F9A710 		ldrsb	r1, [r4, #167]
 302 01ee D971     		strb	r1, [r3, #7]
 303 01f0 0832     		adds	r2, r2, #8
 304              		.loc 1 57 0
 305 01f2 94ED2A0A 		vldr.32	s0, [r4, #168]
 306              		.loc 1 56 0
 307 01f6 0192     		str	r2, [sp, #4]
 308              		.loc 1 57 0
 309 01f8 3146     		mov	r1, r6
 310 01fa 2846     		mov	r0, r5
 311 01fc FFF7FEFF 		bl	buffer_append_float32_auto
 312              	.LVL35:
 313              		.loc 1 58 0
 314 0200 3146     		mov	r1, r6
 315 0202 94ED2B0A 		vldr.32	s0, [r4, #172]
 316 0206 2846     		mov	r0, r5
 317 0208 FFF7FEFF 		bl	buffer_append_float32_auto
 318              	.LVL36:
 319              		.loc 1 59 0
 320 020c 3146     		mov	r1, r6
 321 020e 94ED2C0A 		vldr.32	s0, [r4, #176]
 322 0212 2846     		mov	r0, r5
 323 0214 FFF7FEFF 		bl	buffer_append_float32_auto
 324              	.LVL37:
 325              		.loc 1 60 0
 326 0218 3146     		mov	r1, r6
 327 021a 94ED2D0A 		vldr.32	s0, [r4, #180]
 328 021e 2846     		mov	r0, r5
 329 0220 FFF7FEFF 		bl	buffer_append_float32_auto
 330              	.LVL38:
 331              		.loc 1 61 0
 332 0224 3146     		mov	r1, r6
 333 0226 94ED2E0A 		vldr.32	s0, [r4, #184]
 334 022a 2846     		mov	r0, r5
 335 022c FFF7FEFF 		bl	buffer_append_float32_auto
 336              	.LVL39:
 337              		.loc 1 62 0
 338 0230 019B     		ldr	r3, [sp, #4]
 339 0232 94F8C020 		ldrb	r2, [r4, #192]	@ zero_extendqisi2
 340 0236 EA54     		strb	r2, [r5, r3]
 341              		.loc 1 63 0
 342 0238 3146     		mov	r1, r6
ARM GAS  /tmp/ccOR9P9P.s 			page 7


 343              		.loc 1 62 0
 344 023a 0133     		adds	r3, r3, #1
 345              		.loc 1 63 0
 346 023c 94ED2F0A 		vldr.32	s0, [r4, #188]
 347              		.loc 1 62 0
 348 0240 0193     		str	r3, [sp, #4]
 349              		.loc 1 63 0
 350 0242 2846     		mov	r0, r5
 351 0244 FFF7FEFF 		bl	buffer_append_float32_auto
 352              	.LVL40:
 353              		.loc 1 64 0
 354 0248 3146     		mov	r1, r6
 355 024a 94ED310A 		vldr.32	s0, [r4, #196]
 356 024e 2846     		mov	r0, r5
 357 0250 FFF7FEFF 		bl	buffer_append_float32_auto
 358              	.LVL41:
 359              		.loc 1 65 0
 360 0254 3146     		mov	r1, r6
 361 0256 94ED330A 		vldr.32	s0, [r4, #204]
 362 025a 2846     		mov	r0, r5
 363 025c FFF7FEFF 		bl	buffer_append_float32_auto
 364              	.LVL42:
 365              		.loc 1 66 0
 366 0260 3146     		mov	r1, r6
 367 0262 94ED350A 		vldr.32	s0, [r4, #212]
 368 0266 2846     		mov	r0, r5
 369 0268 FFF7FEFF 		bl	buffer_append_float32_auto
 370              	.LVL43:
 371              		.loc 1 67 0
 372 026c 3146     		mov	r1, r6
 373 026e 94ED320A 		vldr.32	s0, [r4, #200]
 374 0272 2846     		mov	r0, r5
 375 0274 FFF7FEFF 		bl	buffer_append_float32_auto
 376              	.LVL44:
 377              		.loc 1 68 0
 378 0278 3146     		mov	r1, r6
 379 027a 94ED340A 		vldr.32	s0, [r4, #208]
 380 027e 2846     		mov	r0, r5
 381 0280 FFF7FEFF 		bl	buffer_append_float32_auto
 382              	.LVL45:
 383              		.loc 1 69 0
 384 0284 3146     		mov	r1, r6
 385 0286 94ED360A 		vldr.32	s0, [r4, #216]
 386 028a 2846     		mov	r0, r5
 387 028c FFF7FEFF 		bl	buffer_append_float32_auto
 388              	.LVL46:
 389              		.loc 1 70 0
 390 0290 019B     		ldr	r3, [sp, #4]
 391 0292 94F81421 		ldrb	r2, [r4, #276]	@ zero_extendqisi2
 392 0296 EA54     		strb	r2, [r5, r3]
 393              		.loc 1 71 0
 394 0298 3146     		mov	r1, r6
 395              		.loc 1 70 0
 396 029a 0133     		adds	r3, r3, #1
 397              		.loc 1 71 0
 398 029c 94ED3C0A 		vldr.32	s0, [r4, #240]
 399              		.loc 1 70 0
ARM GAS  /tmp/ccOR9P9P.s 			page 8


 400 02a0 0193     		str	r3, [sp, #4]
 401              		.loc 1 71 0
 402 02a2 2846     		mov	r0, r5
 403 02a4 FFF7FEFF 		bl	buffer_append_float32_auto
 404              	.LVL47:
 405              		.loc 1 72 0
 406 02a8 3146     		mov	r1, r6
 407 02aa 94ED3D0A 		vldr.32	s0, [r4, #244]
 408 02ae 2846     		mov	r0, r5
 409 02b0 FFF7FEFF 		bl	buffer_append_float32_auto
 410              	.LVL48:
 411              		.loc 1 73 0
 412 02b4 3146     		mov	r1, r6
 413 02b6 94ED370A 		vldr.32	s0, [r4, #220]
 414 02ba 2846     		mov	r0, r5
 415 02bc FFF7FEFF 		bl	buffer_append_float32_auto
 416              	.LVL49:
 417              		.loc 1 74 0
 418 02c0 3146     		mov	r1, r6
 419 02c2 94ED380A 		vldr.32	s0, [r4, #224]
 420 02c6 2846     		mov	r0, r5
 421 02c8 FFF7FEFF 		bl	buffer_append_float32_auto
 422              	.LVL50:
 423              		.loc 1 75 0
 424 02cc 3146     		mov	r1, r6
 425 02ce 94ED390A 		vldr.32	s0, [r4, #228]
 426 02d2 2846     		mov	r0, r5
 427 02d4 FFF7FEFF 		bl	buffer_append_float32_auto
 428              	.LVL51:
 429              		.loc 1 76 0
 430 02d8 3146     		mov	r1, r6
 431 02da 94ED3A0A 		vldr.32	s0, [r4, #232]
 432 02de 2846     		mov	r0, r5
 433 02e0 FFF7FEFF 		bl	buffer_append_float32_auto
 434              	.LVL52:
 435              		.loc 1 77 0
 436 02e4 3146     		mov	r1, r6
 437 02e6 94ED3B0A 		vldr.32	s0, [r4, #236]
 438 02ea 2846     		mov	r0, r5
 439 02ec FFF7FEFF 		bl	buffer_append_float32_auto
 440              	.LVL53:
 441              		.loc 1 78 0
 442 02f0 3146     		mov	r1, r6
 443 02f2 94ED3E0A 		vldr.32	s0, [r4, #248]
 444 02f6 2846     		mov	r0, r5
 445 02f8 FFF7FEFF 		bl	buffer_append_float32_auto
 446              	.LVL54:
 447              		.loc 1 79 0
 448 02fc 3146     		mov	r1, r6
 449 02fe 94ED3F0A 		vldr.32	s0, [r4, #252]
 450 0302 2846     		mov	r0, r5
 451 0304 FFF7FEFF 		bl	buffer_append_float32_auto
 452              	.LVL55:
 453              		.loc 1 80 0
 454 0308 3146     		mov	r1, r6
 455 030a 94ED400A 		vldr.32	s0, [r4, #256]
 456 030e 2846     		mov	r0, r5
ARM GAS  /tmp/ccOR9P9P.s 			page 9


 457 0310 FFF7FEFF 		bl	buffer_append_float32_auto
 458              	.LVL56:
 459              		.loc 1 81 0
 460 0314 3146     		mov	r1, r6
 461 0316 94ED410A 		vldr.32	s0, [r4, #260]
 462 031a 2846     		mov	r0, r5
 463 031c FFF7FEFF 		bl	buffer_append_float32_auto
 464              	.LVL57:
 465              		.loc 1 82 0
 466 0320 3146     		mov	r1, r6
 467 0322 94ED420A 		vldr.32	s0, [r4, #264]
 468 0326 2846     		mov	r0, r5
 469 0328 FFF7FEFF 		bl	buffer_append_float32_auto
 470              	.LVL58:
 471              		.loc 1 83 0
 472 032c 3146     		mov	r1, r6
 473 032e 94ED430A 		vldr.32	s0, [r4, #268]
 474 0332 2846     		mov	r0, r5
 475 0334 FFF7FEFF 		bl	buffer_append_float32_auto
 476              	.LVL59:
 477              		.loc 1 84 0
 478 0338 3146     		mov	r1, r6
 479 033a 94ED440A 		vldr.32	s0, [r4, #272]
 480 033e 2846     		mov	r0, r5
 481 0340 FFF7FEFF 		bl	buffer_append_float32_auto
 482              	.LVL60:
 483              		.loc 1 85 0
 484 0344 019A     		ldr	r2, [sp, #4]
 485 0346 94F81531 		ldrb	r3, [r4, #277]	@ zero_extendqisi2
 486 034a AB54     		strb	r3, [r5, r2]
 487              		.loc 1 86 0
 488 034c AB18     		adds	r3, r5, r2
 489 034e 94F81611 		ldrb	r1, [r4, #278]	@ zero_extendqisi2
 490 0352 5970     		strb	r1, [r3, #1]
 491              		.loc 1 87 0
 492 0354 94F81711 		ldrb	r1, [r4, #279]	@ zero_extendqisi2
 493 0358 9970     		strb	r1, [r3, #2]
 494              		.loc 1 88 0
 495 035a 94F81811 		ldrb	r1, [r4, #280]	@ zero_extendqisi2
 496 035e D970     		strb	r1, [r3, #3]
 497              		.loc 1 89 0
 498 0360 94F81911 		ldrb	r1, [r4, #281]	@ zero_extendqisi2
 499 0364 1971     		strb	r1, [r3, #4]
 500              		.loc 1 90 0
 501 0366 94F81A11 		ldrb	r1, [r4, #282]	@ zero_extendqisi2
 502 036a 5971     		strb	r1, [r3, #5]
 503              		.loc 1 91 0
 504 036c 94F81B11 		ldrb	r1, [r4, #283]	@ zero_extendqisi2
 505 0370 9971     		strb	r1, [r3, #6]
 506              		.loc 1 92 0
 507 0372 94F81C11 		ldrb	r1, [r4, #284]	@ zero_extendqisi2
 508 0376 D971     		strb	r1, [r3, #7]
 509 0378 0832     		adds	r2, r2, #8
 510              		.loc 1 93 0
 511 037a 94ED480A 		vldr.32	s0, [r4, #288]
 512              		.loc 1 92 0
 513 037e 0192     		str	r2, [sp, #4]
ARM GAS  /tmp/ccOR9P9P.s 			page 10


 514              		.loc 1 93 0
 515 0380 3146     		mov	r1, r6
 516 0382 2846     		mov	r0, r5
 517 0384 FFF7FEFF 		bl	buffer_append_float32_auto
 518              	.LVL61:
 519              		.loc 1 94 0
 520 0388 019B     		ldr	r3, [sp, #4]
 521 038a 94F82421 		ldrb	r2, [r4, #292]	@ zero_extendqisi2
 522 038e EA54     		strb	r2, [r5, r3]
 523              		.loc 1 95 0
 524 0390 EA18     		adds	r2, r5, r3
 525 0392 94F82511 		ldrb	r1, [r4, #293]	@ zero_extendqisi2
 526 0396 5170     		strb	r1, [r2, #1]
 527 0398 0233     		adds	r3, r3, #2
 528              		.loc 1 96 0
 529 039a 94ED4A0A 		vldr.32	s0, [r4, #296]
 530              		.loc 1 95 0
 531 039e 0193     		str	r3, [sp, #4]
 532              		.loc 1 96 0
 533 03a0 3146     		mov	r1, r6
 534 03a2 2846     		mov	r0, r5
 535 03a4 FFF7FEFF 		bl	buffer_append_float32_auto
 536              	.LVL62:
 537              		.loc 1 97 0
 538 03a8 019B     		ldr	r3, [sp, #4]
 539 03aa 94F82C21 		ldrb	r2, [r4, #300]	@ zero_extendqisi2
 540 03ae EA54     		strb	r2, [r5, r3]
 541              		.loc 1 98 0
 542 03b0 3146     		mov	r1, r6
 543              		.loc 1 97 0
 544 03b2 0133     		adds	r3, r3, #1
 545              		.loc 1 98 0
 546 03b4 94ED4C0A 		vldr.32	s0, [r4, #304]
 547              		.loc 1 97 0
 548 03b8 0193     		str	r3, [sp, #4]
 549              		.loc 1 98 0
 550 03ba 2846     		mov	r0, r5
 551 03bc FFF7FEFF 		bl	buffer_append_float32_auto
 552              	.LVL63:
 553              		.loc 1 99 0
 554 03c0 94ED4D0A 		vldr.32	s0, [r4, #308]
 555 03c4 3146     		mov	r1, r6
 556 03c6 2846     		mov	r0, r5
 557 03c8 FFF7FEFF 		bl	buffer_append_float32_auto
 558              	.LVL64:
 559              		.loc 1 100 0
 560 03cc 3246     		mov	r2, r6
 561 03ce B4F93811 		ldrsh	r1, [r4, #312]
 562 03d2 2846     		mov	r0, r5
 563 03d4 FFF7FEFF 		bl	buffer_append_int16
 564              	.LVL65:
 565              		.loc 1 101 0
 566 03d8 3246     		mov	r2, r6
 567 03da B4F93C11 		ldrsh	r1, [r4, #316]
 568 03de 01E0     		b	.L5
 569              	.L6:
 570              		.align	2
ARM GAS  /tmp/ccOR9P9P.s 			page 11


 571              	.L4:
 572 03e0 36E6FF1D 		.word	503309878
 573              	.L5:
 574 03e4 2846     		mov	r0, r5
 575 03e6 FFF7FEFF 		bl	buffer_append_int16
 576              	.LVL66:
 577              		.loc 1 102 0
 578 03ea 3146     		mov	r1, r6
 579 03ec 94ED500A 		vldr.32	s0, [r4, #320]
 580 03f0 2846     		mov	r0, r5
 581 03f2 FFF7FEFF 		bl	buffer_append_float32_auto
 582              	.LVL67:
 583              		.loc 1 103 0
 584 03f6 3146     		mov	r1, r6
 585 03f8 94ED510A 		vldr.32	s0, [r4, #324]
 586 03fc 2846     		mov	r0, r5
 587 03fe FFF7FEFF 		bl	buffer_append_float32_auto
 588              	.LVL68:
 589              		.loc 1 104 0
 590 0402 3146     		mov	r1, r6
 591 0404 94ED520A 		vldr.32	s0, [r4, #328]
 592 0408 2846     		mov	r0, r5
 593 040a FFF7FEFF 		bl	buffer_append_float32_auto
 594              	.LVL69:
 595              		.loc 1 105 0
 596 040e 3146     		mov	r1, r6
 597 0410 94ED530A 		vldr.32	s0, [r4, #332]
 598 0414 2846     		mov	r0, r5
 599 0416 FFF7FEFF 		bl	buffer_append_float32_auto
 600              	.LVL70:
 601              		.loc 1 106 0
 602 041a 3146     		mov	r1, r6
 603 041c 94ED540A 		vldr.32	s0, [r4, #336]
 604 0420 2846     		mov	r0, r5
 605 0422 FFF7FEFF 		bl	buffer_append_float32_auto
 606              	.LVL71:
 607              		.loc 1 107 0
 608 0426 3146     		mov	r1, r6
 609 0428 94ED550A 		vldr.32	s0, [r4, #340]
 610 042c 2846     		mov	r0, r5
 611 042e FFF7FEFF 		bl	buffer_append_float32_auto
 612              	.LVL72:
 613              		.loc 1 108 0
 614 0432 3146     		mov	r1, r6
 615 0434 94ED560A 		vldr.32	s0, [r4, #344]
 616 0438 2846     		mov	r0, r5
 617 043a FFF7FEFF 		bl	buffer_append_float32_auto
 618              	.LVL73:
 619              		.loc 1 109 0
 620 043e 3146     		mov	r1, r6
 621 0440 94ED570A 		vldr.32	s0, [r4, #348]
 622 0444 2846     		mov	r0, r5
 623 0446 FFF7FEFF 		bl	buffer_append_float32_auto
 624              	.LVL74:
 625              		.loc 1 110 0
 626 044a 019B     		ldr	r3, [sp, #4]
 627 044c 94F86021 		ldrb	r2, [r4, #352]	@ zero_extendqisi2
ARM GAS  /tmp/ccOR9P9P.s 			page 12


 628 0450 EA54     		strb	r2, [r5, r3]
 629              		.loc 1 111 0
 630 0452 3146     		mov	r1, r6
 631              		.loc 1 110 0
 632 0454 0133     		adds	r3, r3, #1
 633              		.loc 1 111 0
 634 0456 94ED590A 		vldr.32	s0, [r4, #356]
 635              		.loc 1 110 0
 636 045a 0193     		str	r3, [sp, #4]
 637              		.loc 1 111 0
 638 045c 2846     		mov	r0, r5
 639 045e FFF7FEFF 		bl	buffer_append_float32_auto
 640              	.LVL75:
 641              		.loc 1 112 0
 642 0462 3146     		mov	r1, r6
 643 0464 94ED5A0A 		vldr.32	s0, [r4, #360]
 644 0468 2846     		mov	r0, r5
 645 046a FFF7FEFF 		bl	buffer_append_float32_auto
 646              	.LVL76:
 647              		.loc 1 113 0
 648 046e 3146     		mov	r1, r6
 649 0470 94ED5B0A 		vldr.32	s0, [r4, #364]
 650 0474 2846     		mov	r0, r5
 651 0476 FFF7FEFF 		bl	buffer_append_float32_auto
 652              	.LVL77:
 653              		.loc 1 114 0
 654 047a 3146     		mov	r1, r6
 655 047c 94ED5C0A 		vldr.32	s0, [r4, #368]
 656 0480 2846     		mov	r0, r5
 657 0482 FFF7FEFF 		bl	buffer_append_float32_auto
 658              	.LVL78:
 659              		.loc 1 115 0
 660 0486 3146     		mov	r1, r6
 661 0488 94ED5D0A 		vldr.32	s0, [r4, #372]
 662 048c 2846     		mov	r0, r5
 663 048e FFF7FEFF 		bl	buffer_append_float32_auto
 664              	.LVL79:
 665              		.loc 1 116 0
 666 0492 3146     		mov	r1, r6
 667 0494 94ED5E0A 		vldr.32	s0, [r4, #376]
 668 0498 2846     		mov	r0, r5
 669 049a FFF7FEFF 		bl	buffer_append_float32_auto
 670              	.LVL80:
 671              		.loc 1 117 0
 672 049e 3146     		mov	r1, r6
 673 04a0 94ED5F0A 		vldr.32	s0, [r4, #380]
 674 04a4 2846     		mov	r0, r5
 675 04a6 FFF7FEFF 		bl	buffer_append_float32_auto
 676              	.LVL81:
 677              		.loc 1 118 0
 678 04aa 3146     		mov	r1, r6
 679 04ac 94ED600A 		vldr.32	s0, [r4, #384]
 680 04b0 2846     		mov	r0, r5
 681 04b2 FFF7FEFF 		bl	buffer_append_float32_auto
 682              	.LVL82:
 683              		.loc 1 119 0
 684 04b6 94ED610A 		vldr.32	s0, [r4, #388]
ARM GAS  /tmp/ccOR9P9P.s 			page 13


 685 04ba 3146     		mov	r1, r6
 686 04bc 2846     		mov	r0, r5
 687 04be FFF7FEFF 		bl	buffer_append_float32_auto
 688              	.LVL83:
 689              		.loc 1 120 0
 690 04c2 3246     		mov	r2, r6
 691 04c4 D4F88811 		ldr	r1, [r4, #392]
 692 04c8 2846     		mov	r0, r5
 693 04ca FFF7FEFF 		bl	buffer_append_int32
 694              	.LVL84:
 695              		.loc 1 121 0
 696 04ce 3146     		mov	r1, r6
 697 04d0 94ED630A 		vldr.32	s0, [r4, #396]
 698 04d4 2846     		mov	r0, r5
 699 04d6 FFF7FEFF 		bl	buffer_append_float32_auto
 700              	.LVL85:
 701              		.loc 1 122 0
 702 04da 94ED640A 		vldr.32	s0, [r4, #400]
 703 04de 3146     		mov	r1, r6
 704 04e0 2846     		mov	r0, r5
 705 04e2 FFF7FEFF 		bl	buffer_append_float32_auto
 706              	.LVL86:
 707              		.loc 1 123 0
 708 04e6 3246     		mov	r2, r6
 709 04e8 D4F89411 		ldr	r1, [r4, #404]
 710 04ec 2846     		mov	r0, r5
 711 04ee FFF7FEFF 		bl	buffer_append_uint32
 712              	.LVL87:
 713              		.loc 1 124 0
 714 04f2 019B     		ldr	r3, [sp, #4]
 715 04f4 94F89821 		ldrb	r2, [r4, #408]	@ zero_extendqisi2
 716 04f8 EA54     		strb	r2, [r5, r3]
 717              		.loc 1 125 0
 718 04fa EA18     		adds	r2, r5, r3
 719 04fc 94F89911 		ldrb	r1, [r4, #409]	@ zero_extendqisi2
 720 0500 5170     		strb	r1, [r2, #1]
 721              		.loc 1 126 0
 722 0502 94F89A11 		ldrb	r1, [r4, #410]	@ zero_extendqisi2
 723 0506 9170     		strb	r1, [r2, #2]
 724              		.loc 1 127 0
 725 0508 D4F89C11 		ldr	r1, [r4, #412]
 726 050c D170     		strb	r1, [r2, #3]
 727 050e 0433     		adds	r3, r3, #4
 728              		.loc 1 128 0
 729 0510 94ED680A 		vldr.32	s0, [r4, #416]
 730              		.loc 1 127 0
 731 0514 0193     		str	r3, [sp, #4]
 732              		.loc 1 128 0
 733 0516 3146     		mov	r1, r6
 734 0518 2846     		mov	r0, r5
 735 051a FFF7FEFF 		bl	buffer_append_float32_auto
 736              	.LVL88:
 737              		.loc 1 129 0
 738 051e 3146     		mov	r1, r6
 739 0520 94ED690A 		vldr.32	s0, [r4, #420]
 740 0524 2846     		mov	r0, r5
 741 0526 FFF7FEFF 		bl	buffer_append_float32_auto
ARM GAS  /tmp/ccOR9P9P.s 			page 14


 742              	.LVL89:
 743              		.loc 1 130 0
 744 052a 3146     		mov	r1, r6
 745 052c 94ED6A0A 		vldr.32	s0, [r4, #424]
 746 0530 2846     		mov	r0, r5
 747 0532 FFF7FEFF 		bl	buffer_append_float32_auto
 748              	.LVL90:
 749              		.loc 1 131 0
 750 0536 3146     		mov	r1, r6
 751 0538 94ED6B0A 		vldr.32	s0, [r4, #428]
 752 053c 2846     		mov	r0, r5
 753 053e FFF7FEFF 		bl	buffer_append_float32_auto
 754              	.LVL91:
 755              		.loc 1 132 0
 756 0542 019B     		ldr	r3, [sp, #4]
 757 0544 94F8B021 		ldrb	r2, [r4, #432]	@ zero_extendqisi2
 758 0548 EA54     		strb	r2, [r5, r3]
 759              		.loc 1 133 0
 760 054a EA18     		adds	r2, r5, r3
 761 054c 94F8B111 		ldrb	r1, [r4, #433]	@ zero_extendqisi2
 762 0550 5170     		strb	r1, [r2, #1]
 763 0552 0233     		adds	r3, r3, #2
 764              		.loc 1 134 0
 765 0554 94ED6D0A 		vldr.32	s0, [r4, #436]
 766              		.loc 1 133 0
 767 0558 0193     		str	r3, [sp, #4]
 768              		.loc 1 134 0
 769 055a 3146     		mov	r1, r6
 770 055c 2846     		mov	r0, r5
 771 055e FFF7FEFF 		bl	buffer_append_float32_auto
 772              	.LVL92:
 773              		.loc 1 135 0
 774 0562 3146     		mov	r1, r6
 775 0564 94ED6E0A 		vldr.32	s0, [r4, #440]
 776 0568 2846     		mov	r0, r5
 777 056a FFF7FEFF 		bl	buffer_append_float32_auto
 778              	.LVL93:
 779              		.loc 1 136 0
 780 056e 019B     		ldr	r3, [sp, #4]
 781 0570 94F8BC21 		ldrb	r2, [r4, #444]	@ zero_extendqisi2
 782 0574 EA54     		strb	r2, [r5, r3]
 783              		.loc 1 137 0
 784 0576 EA18     		adds	r2, r5, r3
 785 0578 D4F8C011 		ldr	r1, [r4, #448]
 786 057c 5170     		strb	r1, [r2, #1]
 787 057e 0233     		adds	r3, r3, #2
 788              		.loc 1 138 0
 789 0580 2846     		mov	r0, r5
 790 0582 3146     		mov	r1, r6
 791 0584 94ED710A 		vldr.32	s0, [r4, #452]
 792              		.loc 1 137 0
 793 0588 0193     		str	r3, [sp, #4]
 794              		.loc 1 138 0
 795 058a FFF7FEFF 		bl	buffer_append_float32_auto
 796              	.LVL94:
 797              		.loc 1 141 0
 798 058e 0198     		ldr	r0, [sp, #4]
ARM GAS  /tmp/ccOR9P9P.s 			page 15


 799 0590 02B0     		add	sp, sp, #8
 800              		.cfi_def_cfa_offset 16
 801              		@ sp needed
 802 0592 70BD     		pop	{r4, r5, r6, pc}
 803              		.cfi_endproc
 804              	.LFE219:
 805              		.size	confgenerator_serialize_mcconf, .-confgenerator_serialize_mcconf
 806              		.section	.text.confgenerator_serialize_appconf,"ax",%progbits
 807              		.align	1
 808              		.p2align 4,,15
 809              		.global	confgenerator_serialize_appconf
 810              		.syntax unified
 811              		.thumb
 812              		.thumb_func
 813              		.fpu fpv4-sp-d16
 814              		.type	confgenerator_serialize_appconf, %function
 815              	confgenerator_serialize_appconf:
 816              	.LFB220:
 817              		.loc 1 143 0
 818              		.cfi_startproc
 819              		@ args = 0, pretend = 0, frame = 8
 820              		@ frame_needed = 0, uses_anonymous_args = 0
 821              	.LVL95:
 822 0000 70B5     		push	{r4, r5, r6, lr}
 823              		.cfi_def_cfa_offset 16
 824              		.cfi_offset 4, -16
 825              		.cfi_offset 5, -12
 826              		.cfi_offset 6, -8
 827              		.cfi_offset 14, -4
 828 0002 82B0     		sub	sp, sp, #8
 829              		.cfi_def_cfa_offset 24
 830              		.loc 1 144 0
 831 0004 02AE     		add	r6, sp, #8
 832 0006 0023     		movs	r3, #0
 833 0008 46F8043D 		str	r3, [r6, #-4]!
 834              		.loc 1 143 0
 835 000c 0C46     		mov	r4, r1
 836              		.loc 1 146 0
 837 000e 3246     		mov	r2, r6
 838 0010 AF49     		ldr	r1, .L9
 839              	.LVL96:
 840              		.loc 1 143 0
 841 0012 0546     		mov	r5, r0
 842              		.loc 1 146 0
 843 0014 FFF7FEFF 		bl	buffer_append_uint32
 844              	.LVL97:
 845              		.loc 1 148 0
 846 0018 019B     		ldr	r3, [sp, #4]
 847 001a 2278     		ldrb	r2, [r4]	@ zero_extendqisi2
 848 001c EA54     		strb	r2, [r5, r3]
 849              		.loc 1 149 0
 850 001e 2846     		mov	r0, r5
 851              		.loc 1 148 0
 852 0020 0133     		adds	r3, r3, #1
 853              		.loc 1 149 0
 854 0022 3246     		mov	r2, r6
 855 0024 6168     		ldr	r1, [r4, #4]
ARM GAS  /tmp/ccOR9P9P.s 			page 16


 856              		.loc 1 148 0
 857 0026 0193     		str	r3, [sp, #4]
 858              		.loc 1 149 0
 859 0028 FFF7FEFF 		bl	buffer_append_uint32
 860              	.LVL98:
 861              		.loc 1 150 0
 862 002c 94ED020A 		vldr.32	s0, [r4, #8]
 863 0030 3146     		mov	r1, r6
 864 0032 2846     		mov	r0, r5
 865 0034 FFF7FEFF 		bl	buffer_append_float32_auto
 866              	.LVL99:
 867              		.loc 1 151 0
 868 0038 019B     		ldr	r3, [sp, #4]
 869 003a 227B     		ldrb	r2, [r4, #12]	@ zero_extendqisi2
 870 003c EA54     		strb	r2, [r5, r3]
 871              		.loc 1 152 0
 872 003e 2846     		mov	r0, r5
 873              		.loc 1 151 0
 874 0040 0133     		adds	r3, r3, #1
 875              		.loc 1 152 0
 876 0042 218A     		ldrh	r1, [r4, #16]
 877              		.loc 1 151 0
 878 0044 0193     		str	r3, [sp, #4]
 879              		.loc 1 152 0
 880 0046 3246     		mov	r2, r6
 881 0048 FFF7FEFF 		bl	buffer_append_uint16
 882              	.LVL100:
 883              		.loc 1 153 0
 884 004c 019A     		ldr	r2, [sp, #4]
 885 004e 237D     		ldrb	r3, [r4, #20]	@ zero_extendqisi2
 886 0050 AB54     		strb	r3, [r5, r2]
 887              		.loc 1 154 0
 888 0052 AB18     		adds	r3, r5, r2
 889 0054 617D     		ldrb	r1, [r4, #21]	@ zero_extendqisi2
 890 0056 5970     		strb	r1, [r3, #1]
 891              		.loc 1 155 0
 892 0058 A17D     		ldrb	r1, [r4, #22]	@ zero_extendqisi2
 893 005a 9970     		strb	r1, [r3, #2]
 894              		.loc 1 156 0
 895 005c E17D     		ldrb	r1, [r4, #23]	@ zero_extendqisi2
 896 005e D970     		strb	r1, [r3, #3]
 897              		.loc 1 157 0
 898 0060 217E     		ldrb	r1, [r4, #24]	@ zero_extendqisi2
 899 0062 1971     		strb	r1, [r3, #4]
 900              		.loc 1 158 0
 901 0064 617E     		ldrb	r1, [r4, #25]	@ zero_extendqisi2
 902 0066 5971     		strb	r1, [r3, #5]
 903              		.loc 1 159 0
 904 0068 217F     		ldrb	r1, [r4, #28]	@ zero_extendqisi2
 905 006a 9971     		strb	r1, [r3, #6]
 906 006c 0732     		adds	r2, r2, #7
 907              		.loc 1 160 0
 908 006e 94ED080A 		vldr.32	s0, [r4, #32]
 909              		.loc 1 159 0
 910 0072 0192     		str	r2, [sp, #4]
 911              		.loc 1 160 0
 912 0074 3146     		mov	r1, r6
ARM GAS  /tmp/ccOR9P9P.s 			page 17


 913 0076 2846     		mov	r0, r5
 914 0078 FFF7FEFF 		bl	buffer_append_float32_auto
 915              	.LVL101:
 916              		.loc 1 161 0
 917 007c 3146     		mov	r1, r6
 918 007e 94ED090A 		vldr.32	s0, [r4, #36]
 919 0082 2846     		mov	r0, r5
 920 0084 FFF7FEFF 		bl	buffer_append_float32_auto
 921              	.LVL102:
 922              		.loc 1 162 0
 923 0088 3146     		mov	r1, r6
 924 008a 94ED0A0A 		vldr.32	s0, [r4, #40]
 925 008e 2846     		mov	r0, r5
 926 0090 FFF7FEFF 		bl	buffer_append_float32_auto
 927              	.LVL103:
 928              		.loc 1 163 0
 929 0094 3146     		mov	r1, r6
 930 0096 94ED0B0A 		vldr.32	s0, [r4, #44]
 931 009a 2846     		mov	r0, r5
 932 009c FFF7FEFF 		bl	buffer_append_float32_auto
 933              	.LVL104:
 934              		.loc 1 164 0
 935 00a0 3146     		mov	r1, r6
 936 00a2 94ED0C0A 		vldr.32	s0, [r4, #48]
 937 00a6 2846     		mov	r0, r5
 938 00a8 FFF7FEFF 		bl	buffer_append_float32_auto
 939              	.LVL105:
 940              		.loc 1 165 0
 941 00ac 019B     		ldr	r3, [sp, #4]
 942 00ae 94F83420 		ldrb	r2, [r4, #52]	@ zero_extendqisi2
 943 00b2 EA54     		strb	r2, [r5, r3]
 944              		.loc 1 166 0
 945 00b4 EA18     		adds	r2, r5, r3
 946 00b6 94F83510 		ldrb	r1, [r4, #53]	@ zero_extendqisi2
 947 00ba 5170     		strb	r1, [r2, #1]
 948 00bc 0233     		adds	r3, r3, #2
 949              		.loc 1 167 0
 950 00be 94ED0E0A 		vldr.32	s0, [r4, #56]
 951              		.loc 1 166 0
 952 00c2 0193     		str	r3, [sp, #4]
 953              		.loc 1 167 0
 954 00c4 3146     		mov	r1, r6
 955 00c6 2846     		mov	r0, r5
 956 00c8 FFF7FEFF 		bl	buffer_append_float32_auto
 957              	.LVL106:
 958              		.loc 1 168 0
 959 00cc 3146     		mov	r1, r6
 960 00ce 94ED0F0A 		vldr.32	s0, [r4, #60]
 961 00d2 2846     		mov	r0, r5
 962 00d4 FFF7FEFF 		bl	buffer_append_float32_auto
 963              	.LVL107:
 964              		.loc 1 169 0
 965 00d8 019B     		ldr	r3, [sp, #4]
 966 00da 94F84020 		ldrb	r2, [r4, #64]	@ zero_extendqisi2
 967 00de EA54     		strb	r2, [r5, r3]
 968              		.loc 1 170 0
 969 00e0 3146     		mov	r1, r6
ARM GAS  /tmp/ccOR9P9P.s 			page 18


 970              		.loc 1 169 0
 971 00e2 0133     		adds	r3, r3, #1
 972              		.loc 1 170 0
 973 00e4 94ED110A 		vldr.32	s0, [r4, #68]
 974              		.loc 1 169 0
 975 00e8 0193     		str	r3, [sp, #4]
 976              		.loc 1 170 0
 977 00ea 2846     		mov	r0, r5
 978 00ec FFF7FEFF 		bl	buffer_append_float32_auto
 979              	.LVL108:
 980              		.loc 1 171 0
 981 00f0 3146     		mov	r1, r6
 982 00f2 94ED120A 		vldr.32	s0, [r4, #72]
 983 00f6 2846     		mov	r0, r5
 984 00f8 FFF7FEFF 		bl	buffer_append_float32_auto
 985              	.LVL109:
 986              		.loc 1 172 0
 987 00fc 019B     		ldr	r3, [sp, #4]
 988 00fe 94F84C20 		ldrb	r2, [r4, #76]	@ zero_extendqisi2
 989 0102 EA54     		strb	r2, [r5, r3]
 990              		.loc 1 173 0
 991 0104 EA18     		adds	r2, r5, r3
 992 0106 94F84D10 		ldrb	r1, [r4, #77]	@ zero_extendqisi2
 993 010a 5170     		strb	r1, [r2, #1]
 994 010c 0233     		adds	r3, r3, #2
 995              		.loc 1 174 0
 996 010e 94ED140A 		vldr.32	s0, [r4, #80]
 997              		.loc 1 173 0
 998 0112 0193     		str	r3, [sp, #4]
 999              		.loc 1 174 0
 1000 0114 3146     		mov	r1, r6
 1001 0116 2846     		mov	r0, r5
 1002 0118 FFF7FEFF 		bl	buffer_append_float32_auto
 1003              	.LVL110:
 1004              		.loc 1 175 0
 1005 011c 019B     		ldr	r3, [sp, #4]
 1006 011e 94F85420 		ldrb	r2, [r4, #84]	@ zero_extendqisi2
 1007 0122 EA54     		strb	r2, [r5, r3]
 1008              		.loc 1 176 0
 1009 0124 3146     		mov	r1, r6
 1010              		.loc 1 175 0
 1011 0126 0133     		adds	r3, r3, #1
 1012              		.loc 1 176 0
 1013 0128 94ED160A 		vldr.32	s0, [r4, #88]
 1014              		.loc 1 175 0
 1015 012c 0193     		str	r3, [sp, #4]
 1016              		.loc 1 176 0
 1017 012e 2846     		mov	r0, r5
 1018 0130 FFF7FEFF 		bl	buffer_append_float32_auto
 1019              	.LVL111:
 1020              		.loc 1 177 0
 1021 0134 3146     		mov	r1, r6
 1022 0136 94ED170A 		vldr.32	s0, [r4, #92]
 1023 013a 2846     		mov	r0, r5
 1024 013c FFF7FEFF 		bl	buffer_append_float32_auto
 1025              	.LVL112:
 1026              		.loc 1 178 0
ARM GAS  /tmp/ccOR9P9P.s 			page 19


 1027 0140 3146     		mov	r1, r6
 1028 0142 94ED180A 		vldr.32	s0, [r4, #96]
 1029 0146 2846     		mov	r0, r5
 1030 0148 FFF7FEFF 		bl	buffer_append_float32_auto
 1031              	.LVL113:
 1032              		.loc 1 179 0
 1033 014c 3146     		mov	r1, r6
 1034 014e 94ED190A 		vldr.32	s0, [r4, #100]
 1035 0152 2846     		mov	r0, r5
 1036 0154 FFF7FEFF 		bl	buffer_append_float32_auto
 1037              	.LVL114:
 1038              		.loc 1 180 0
 1039 0158 3146     		mov	r1, r6
 1040 015a 94ED1A0A 		vldr.32	s0, [r4, #104]
 1041 015e 2846     		mov	r0, r5
 1042 0160 FFF7FEFF 		bl	buffer_append_float32_auto
 1043              	.LVL115:
 1044              		.loc 1 181 0
 1045 0164 3146     		mov	r1, r6
 1046 0166 94ED1B0A 		vldr.32	s0, [r4, #108]
 1047 016a 2846     		mov	r0, r5
 1048 016c FFF7FEFF 		bl	buffer_append_float32_auto
 1049              	.LVL116:
 1050              		.loc 1 182 0
 1051 0170 019B     		ldr	r3, [sp, #4]
 1052 0172 94F87020 		ldrb	r2, [r4, #112]	@ zero_extendqisi2
 1053 0176 EA54     		strb	r2, [r5, r3]
 1054              		.loc 1 183 0
 1055 0178 EA18     		adds	r2, r5, r3
 1056 017a 94F87110 		ldrb	r1, [r4, #113]	@ zero_extendqisi2
 1057 017e 5170     		strb	r1, [r2, #1]
 1058              		.loc 1 184 0
 1059 0180 94F87210 		ldrb	r1, [r4, #114]	@ zero_extendqisi2
 1060 0184 9170     		strb	r1, [r2, #2]
 1061              		.loc 1 185 0
 1062 0186 94F87310 		ldrb	r1, [r4, #115]	@ zero_extendqisi2
 1063 018a D170     		strb	r1, [r2, #3]
 1064              		.loc 1 186 0
 1065 018c 94F87410 		ldrb	r1, [r4, #116]	@ zero_extendqisi2
 1066 0190 1171     		strb	r1, [r2, #4]
 1067              		.loc 1 187 0
 1068 0192 94F87510 		ldrb	r1, [r4, #117]	@ zero_extendqisi2
 1069 0196 5171     		strb	r1, [r2, #5]
 1070 0198 0633     		adds	r3, r3, #6
 1071              		.loc 1 188 0
 1072 019a 94ED1E0A 		vldr.32	s0, [r4, #120]
 1073              		.loc 1 187 0
 1074 019e 0193     		str	r3, [sp, #4]
 1075              		.loc 1 188 0
 1076 01a0 3146     		mov	r1, r6
 1077 01a2 2846     		mov	r0, r5
 1078 01a4 FFF7FEFF 		bl	buffer_append_float32_auto
 1079              	.LVL117:
 1080              		.loc 1 189 0
 1081 01a8 3146     		mov	r1, r6
 1082 01aa 94ED1F0A 		vldr.32	s0, [r4, #124]
 1083 01ae 2846     		mov	r0, r5
ARM GAS  /tmp/ccOR9P9P.s 			page 20


 1084 01b0 FFF7FEFF 		bl	buffer_append_float32_auto
 1085              	.LVL118:
 1086              		.loc 1 190 0
 1087 01b4 019B     		ldr	r3, [sp, #4]
 1088 01b6 94F88020 		ldrb	r2, [r4, #128]	@ zero_extendqisi2
 1089 01ba EA54     		strb	r2, [r5, r3]
 1090              		.loc 1 191 0
 1091 01bc 3146     		mov	r1, r6
 1092              		.loc 1 190 0
 1093 01be 0133     		adds	r3, r3, #1
 1094              		.loc 1 191 0
 1095 01c0 94ED210A 		vldr.32	s0, [r4, #132]
 1096              		.loc 1 190 0
 1097 01c4 0193     		str	r3, [sp, #4]
 1098              		.loc 1 191 0
 1099 01c6 2846     		mov	r0, r5
 1100 01c8 FFF7FEFF 		bl	buffer_append_float32_auto
 1101              	.LVL119:
 1102              		.loc 1 192 0
 1103 01cc 3146     		mov	r1, r6
 1104 01ce 94ED220A 		vldr.32	s0, [r4, #136]
 1105 01d2 2846     		mov	r0, r5
 1106 01d4 FFF7FEFF 		bl	buffer_append_float32_auto
 1107              	.LVL120:
 1108              		.loc 1 193 0
 1109 01d8 019B     		ldr	r3, [sp, #4]
 1110 01da 94F88C20 		ldrb	r2, [r4, #140]	@ zero_extendqisi2
 1111 01de EA54     		strb	r2, [r5, r3]
 1112              		.loc 1 194 0
 1113 01e0 EA18     		adds	r2, r5, r3
 1114 01e2 94F88D10 		ldrb	r1, [r4, #141]	@ zero_extendqisi2
 1115 01e6 5170     		strb	r1, [r2, #1]
 1116 01e8 0233     		adds	r3, r3, #2
 1117              		.loc 1 195 0
 1118 01ea 94ED240A 		vldr.32	s0, [r4, #144]
 1119              		.loc 1 194 0
 1120 01ee 0193     		str	r3, [sp, #4]
 1121              		.loc 1 195 0
 1122 01f0 3146     		mov	r1, r6
 1123 01f2 2846     		mov	r0, r5
 1124 01f4 FFF7FEFF 		bl	buffer_append_float32_auto
 1125              	.LVL121:
 1126              		.loc 1 196 0
 1127 01f8 3246     		mov	r2, r6
 1128 01fa B4F89410 		ldrh	r1, [r4, #148]
 1129 01fe 2846     		mov	r0, r5
 1130 0200 FFF7FEFF 		bl	buffer_append_uint16
 1131              	.LVL122:
 1132              		.loc 1 197 0
 1133 0204 3246     		mov	r2, r6
 1134 0206 D4F89810 		ldr	r1, [r4, #152]
 1135 020a 2846     		mov	r0, r5
 1136 020c FFF7FEFF 		bl	buffer_append_uint32
 1137              	.LVL123:
 1138              		.loc 1 198 0
 1139 0210 019B     		ldr	r3, [sp, #4]
 1140 0212 94F89C20 		ldrb	r2, [r4, #156]	@ zero_extendqisi2
ARM GAS  /tmp/ccOR9P9P.s 			page 21


 1141 0216 EA54     		strb	r2, [r5, r3]
 1142              		.loc 1 199 0
 1143 0218 3146     		mov	r1, r6
 1144              		.loc 1 198 0
 1145 021a 0133     		adds	r3, r3, #1
 1146              		.loc 1 199 0
 1147 021c 94ED280A 		vldr.32	s0, [r4, #160]
 1148              		.loc 1 198 0
 1149 0220 0193     		str	r3, [sp, #4]
 1150              		.loc 1 199 0
 1151 0222 2846     		mov	r0, r5
 1152 0224 FFF7FEFF 		bl	buffer_append_float32_auto
 1153              	.LVL124:
 1154              		.loc 1 200 0
 1155 0228 3146     		mov	r1, r6
 1156 022a 94ED290A 		vldr.32	s0, [r4, #164]
 1157 022e 2846     		mov	r0, r5
 1158 0230 FFF7FEFF 		bl	buffer_append_float32_auto
 1159              	.LVL125:
 1160              		.loc 1 201 0
 1161 0234 3146     		mov	r1, r6
 1162 0236 94ED2A0A 		vldr.32	s0, [r4, #168]
 1163 023a 2846     		mov	r0, r5
 1164 023c FFF7FEFF 		bl	buffer_append_float32_auto
 1165              	.LVL126:
 1166              		.loc 1 202 0
 1167 0240 3146     		mov	r1, r6
 1168 0242 94ED2B0A 		vldr.32	s0, [r4, #172]
 1169 0246 2846     		mov	r0, r5
 1170 0248 FFF7FEFF 		bl	buffer_append_float32_auto
 1171              	.LVL127:
 1172              		.loc 1 203 0
 1173 024c 3146     		mov	r1, r6
 1174 024e 94ED2C0A 		vldr.32	s0, [r4, #176]
 1175 0252 2846     		mov	r0, r5
 1176 0254 FFF7FEFF 		bl	buffer_append_float32_auto
 1177              	.LVL128:
 1178              		.loc 1 204 0
 1179 0258 3146     		mov	r1, r6
 1180 025a 94ED2D0A 		vldr.32	s0, [r4, #180]
 1181 025e 2846     		mov	r0, r5
 1182 0260 FFF7FEFF 		bl	buffer_append_float32_auto
 1183              	.LVL129:
 1184              		.loc 1 205 0
 1185 0264 019B     		ldr	r3, [sp, #4]
 1186 0266 94F8B820 		ldrb	r2, [r4, #184]	@ zero_extendqisi2
 1187 026a EA54     		strb	r2, [r5, r3]
 1188              		.loc 1 206 0
 1189 026c EA18     		adds	r2, r5, r3
 1190 026e 94F8B910 		ldrb	r1, [r4, #185]	@ zero_extendqisi2
 1191 0272 5170     		strb	r1, [r2, #1]
 1192              		.loc 1 207 0
 1193 0274 94F8BA10 		ldrb	r1, [r4, #186]	@ zero_extendqisi2
 1194 0278 9170     		strb	r1, [r2, #2]
 1195 027a 0333     		adds	r3, r3, #3
 1196              		.loc 1 208 0
 1197 027c 2846     		mov	r0, r5
ARM GAS  /tmp/ccOR9P9P.s 			page 22


 1198 027e 3146     		mov	r1, r6
 1199 0280 94ED2F0A 		vldr.32	s0, [r4, #188]
 1200              		.loc 1 207 0
 1201 0284 0193     		str	r3, [sp, #4]
 1202              		.loc 1 208 0
 1203 0286 FFF7FEFF 		bl	buffer_append_float32_auto
 1204              	.LVL130:
 1205              		.loc 1 209 0
 1206 028a 0198     		ldr	r0, [sp, #4]
 1207 028c 94F8C030 		ldrb	r3, [r4, #192]	@ zero_extendqisi2
 1208 0290 2B54     		strb	r3, [r5, r0]
 1209              		.loc 1 210 0
 1210 0292 0544     		add	r5, r5, r0
 1211              	.LVL131:
 1212 0294 94F8C130 		ldrb	r3, [r4, #193]	@ zero_extendqisi2
 1213 0298 6B70     		strb	r3, [r5, #1]
 1214              		.loc 1 211 0
 1215 029a 94F8C230 		ldrb	r3, [r4, #194]	@ zero_extendqisi2
 1216 029e AB70     		strb	r3, [r5, #2]
 1217              		.loc 1 212 0
 1218 02a0 94F8C330 		ldrb	r3, [r4, #195]	@ zero_extendqisi2
 1219 02a4 EB70     		strb	r3, [r5, #3]
 1220              		.loc 1 213 0
 1221 02a6 94F8C430 		ldrb	r3, [r4, #196]	@ zero_extendqisi2
 1222 02aa 2B71     		strb	r3, [r5, #4]
 1223              		.loc 1 214 0
 1224 02ac 94F8C530 		ldrb	r3, [r4, #197]	@ zero_extendqisi2
 1225 02b0 6B71     		strb	r3, [r5, #5]
 1226              		.loc 1 215 0
 1227 02b2 94F8C630 		ldrb	r3, [r4, #198]	@ zero_extendqisi2
 1228 02b6 AB71     		strb	r3, [r5, #6]
 1229              		.loc 1 216 0
 1230 02b8 94F8C730 		ldrb	r3, [r4, #199]	@ zero_extendqisi2
 1231 02bc EB71     		strb	r3, [r5, #7]
 1232              		.loc 1 217 0
 1233 02be 94F8C830 		ldrb	r3, [r4, #200]	@ zero_extendqisi2
 1234 02c2 2B72     		strb	r3, [r5, #8]
 1235              		.loc 1 218 0
 1236 02c4 94F8C930 		ldrb	r3, [r4, #201]	@ zero_extendqisi2
 1237 02c8 6B72     		strb	r3, [r5, #9]
 1238              		.loc 1 221 0
 1239 02ca 0A30     		adds	r0, r0, #10
 1240 02cc 02B0     		add	sp, sp, #8
 1241              		.cfi_def_cfa_offset 16
 1242              		@ sp needed
 1243 02ce 70BD     		pop	{r4, r5, r6, pc}
 1244              	.LVL132:
 1245              	.L10:
 1246              		.align	2
 1247              	.L9:
 1248 02d0 C530382B 		.word	725102789
 1249              		.cfi_endproc
 1250              	.LFE220:
 1251              		.size	confgenerator_serialize_appconf, .-confgenerator_serialize_appconf
 1252              		.section	.text.confgenerator_deserialize_mcconf,"ax",%progbits
 1253              		.align	1
 1254              		.p2align 4,,15
ARM GAS  /tmp/ccOR9P9P.s 			page 23


 1255              		.global	confgenerator_deserialize_mcconf
 1256              		.syntax unified
 1257              		.thumb
 1258              		.thumb_func
 1259              		.fpu fpv4-sp-d16
 1260              		.type	confgenerator_deserialize_mcconf, %function
 1261              	confgenerator_deserialize_mcconf:
 1262              	.LFB221:
 1263              		.loc 1 223 0
 1264              		.cfi_startproc
 1265              		@ args = 0, pretend = 0, frame = 8
 1266              		@ frame_needed = 0, uses_anonymous_args = 0
 1267              	.LVL133:
 1268 0000 F0B5     		push	{r4, r5, r6, r7, lr}
 1269              		.cfi_def_cfa_offset 20
 1270              		.cfi_offset 4, -20
 1271              		.cfi_offset 5, -16
 1272              		.cfi_offset 6, -12
 1273              		.cfi_offset 7, -8
 1274              		.cfi_offset 14, -4
 1275 0002 83B0     		sub	sp, sp, #12
 1276              		.cfi_def_cfa_offset 32
 1277              		.loc 1 224 0
 1278 0004 02AE     		add	r6, sp, #8
 1279 0006 0027     		movs	r7, #0
 1280 0008 46F8047D 		str	r7, [r6, #-4]!
 1281              		.loc 1 223 0
 1282 000c 0C46     		mov	r4, r1
 1283              		.loc 1 226 0
 1284 000e 3146     		mov	r1, r6
 1285              	.LVL134:
 1286              		.loc 1 223 0
 1287 0010 0546     		mov	r5, r0
 1288              		.loc 1 226 0
 1289 0012 FFF7FEFF 		bl	buffer_get_uint32
 1290              	.LVL135:
 1291              		.loc 1 227 0
 1292 0016 034B     		ldr	r3, .L16
 1293 0018 9842     		cmp	r0, r3
 1294 001a 05D0     		beq	.L15
 1295              		.loc 1 228 0
 1296 001c 3846     		mov	r0, r7
 1297              	.LVL136:
 1298              		.loc 1 360 0
 1299 001e 03B0     		add	sp, sp, #12
 1300              		.cfi_remember_state
 1301              		.cfi_def_cfa_offset 20
 1302              		@ sp needed
 1303 0020 F0BD     		pop	{r4, r5, r6, r7, pc}
 1304              	.LVL137:
 1305              	.L17:
 1306 0022 00BF     		.align	2
 1307              	.L16:
 1308 0024 36E6FF1D 		.word	503309878
 1309              	.LVL138:
 1310              	.L15:
 1311              		.cfi_restore_state
ARM GAS  /tmp/ccOR9P9P.s 			page 24


 1312              		.loc 1 231 0
 1313 0028 019B     		ldr	r3, [sp, #4]
 1314 002a EA5C     		ldrb	r2, [r5, r3]	@ zero_extendqisi2
 1315 002c 2270     		strb	r2, [r4]
 1316              		.loc 1 232 0
 1317 002e EA18     		adds	r2, r5, r3
 1318              		.loc 1 235 0
 1319 0030 2846     		mov	r0, r5
 1320              	.LVL139:
 1321              		.loc 1 232 0
 1322 0032 5178     		ldrb	r1, [r2, #1]	@ zero_extendqisi2
 1323 0034 6170     		strb	r1, [r4, #1]
 1324              		.loc 1 233 0
 1325 0036 9178     		ldrb	r1, [r2, #2]	@ zero_extendqisi2
 1326 0038 A170     		strb	r1, [r4, #2]
 1327              		.loc 1 234 0
 1328 003a D278     		ldrb	r2, [r2, #3]	@ zero_extendqisi2
 1329 003c E270     		strb	r2, [r4, #3]
 1330 003e 0433     		adds	r3, r3, #4
 1331              		.loc 1 235 0
 1332 0040 3146     		mov	r1, r6
 1333              		.loc 1 234 0
 1334 0042 0193     		str	r3, [sp, #4]
 1335              		.loc 1 235 0
 1336 0044 FFF7FEFF 		bl	buffer_get_float32_auto
 1337              	.LVL140:
 1338              		.loc 1 236 0
 1339 0048 3146     		mov	r1, r6
 1340 004a 2846     		mov	r0, r5
 1341              		.loc 1 235 0
 1342 004c 84ED010A 		vstr.32	s0, [r4, #4]
 1343              		.loc 1 236 0
 1344 0050 FFF7FEFF 		bl	buffer_get_float32_auto
 1345              	.LVL141:
 1346              		.loc 1 237 0
 1347 0054 3146     		mov	r1, r6
 1348 0056 2846     		mov	r0, r5
 1349              		.loc 1 236 0
 1350 0058 84ED020A 		vstr.32	s0, [r4, #8]
 1351              		.loc 1 237 0
 1352 005c FFF7FEFF 		bl	buffer_get_float32_auto
 1353              	.LVL142:
 1354              		.loc 1 238 0
 1355 0060 3146     		mov	r1, r6
 1356 0062 2846     		mov	r0, r5
 1357              		.loc 1 237 0
 1358 0064 84ED030A 		vstr.32	s0, [r4, #12]
 1359              		.loc 1 238 0
 1360 0068 FFF7FEFF 		bl	buffer_get_float32_auto
 1361              	.LVL143:
 1362              		.loc 1 239 0
 1363 006c 3146     		mov	r1, r6
 1364 006e 2846     		mov	r0, r5
 1365              		.loc 1 238 0
 1366 0070 84ED040A 		vstr.32	s0, [r4, #16]
 1367              		.loc 1 239 0
 1368 0074 FFF7FEFF 		bl	buffer_get_float32_auto
ARM GAS  /tmp/ccOR9P9P.s 			page 25


 1369              	.LVL144:
 1370              		.loc 1 240 0
 1371 0078 3146     		mov	r1, r6
 1372 007a 2846     		mov	r0, r5
 1373              		.loc 1 239 0
 1374 007c 84ED050A 		vstr.32	s0, [r4, #20]
 1375              		.loc 1 240 0
 1376 0080 FFF7FEFF 		bl	buffer_get_float32_auto
 1377              	.LVL145:
 1378              		.loc 1 241 0
 1379 0084 3146     		mov	r1, r6
 1380 0086 2846     		mov	r0, r5
 1381              		.loc 1 240 0
 1382 0088 84ED060A 		vstr.32	s0, [r4, #24]
 1383              		.loc 1 241 0
 1384 008c FFF7FEFF 		bl	buffer_get_float32_auto
 1385              	.LVL146:
 1386              		.loc 1 242 0
 1387 0090 3146     		mov	r1, r6
 1388 0092 2846     		mov	r0, r5
 1389              		.loc 1 241 0
 1390 0094 84ED070A 		vstr.32	s0, [r4, #28]
 1391              		.loc 1 242 0
 1392 0098 FFF7FEFF 		bl	buffer_get_float32_auto
 1393              	.LVL147:
 1394              		.loc 1 243 0
 1395 009c 3146     		mov	r1, r6
 1396 009e 2846     		mov	r0, r5
 1397              		.loc 1 242 0
 1398 00a0 84ED080A 		vstr.32	s0, [r4, #32]
 1399              		.loc 1 243 0
 1400 00a4 FFF7FEFF 		bl	buffer_get_float32_auto
 1401              	.LVL148:
 1402              		.loc 1 244 0
 1403 00a8 3146     		mov	r1, r6
 1404 00aa 2846     		mov	r0, r5
 1405              		.loc 1 243 0
 1406 00ac 84ED090A 		vstr.32	s0, [r4, #36]
 1407              		.loc 1 244 0
 1408 00b0 FFF7FEFF 		bl	buffer_get_float32_auto
 1409              	.LVL149:
 1410              		.loc 1 245 0
 1411 00b4 3146     		mov	r1, r6
 1412 00b6 2846     		mov	r0, r5
 1413              		.loc 1 244 0
 1414 00b8 84ED0A0A 		vstr.32	s0, [r4, #40]
 1415              		.loc 1 245 0
 1416 00bc FFF7FEFF 		bl	buffer_get_float32_auto
 1417              	.LVL150:
 1418              		.loc 1 246 0
 1419 00c0 3146     		mov	r1, r6
 1420 00c2 2846     		mov	r0, r5
 1421              		.loc 1 245 0
 1422 00c4 84ED0B0A 		vstr.32	s0, [r4, #44]
 1423              		.loc 1 246 0
 1424 00c8 FFF7FEFF 		bl	buffer_get_float32_auto
 1425              	.LVL151:
ARM GAS  /tmp/ccOR9P9P.s 			page 26


 1426              		.loc 1 247 0
 1427 00cc 3146     		mov	r1, r6
 1428 00ce 2846     		mov	r0, r5
 1429              		.loc 1 246 0
 1430 00d0 84ED0C0A 		vstr.32	s0, [r4, #48]
 1431              		.loc 1 247 0
 1432 00d4 FFF7FEFF 		bl	buffer_get_float32_auto
 1433              	.LVL152:
 1434              		.loc 1 248 0
 1435 00d8 3146     		mov	r1, r6
 1436 00da 2846     		mov	r0, r5
 1437              		.loc 1 247 0
 1438 00dc 84ED0D0A 		vstr.32	s0, [r4, #52]
 1439              		.loc 1 248 0
 1440 00e0 FFF7FEFF 		bl	buffer_get_float32_auto
 1441              	.LVL153:
 1442              		.loc 1 249 0
 1443 00e4 019B     		ldr	r3, [sp, #4]
 1444              		.loc 1 248 0
 1445 00e6 84ED0E0A 		vstr.32	s0, [r4, #56]
 1446              		.loc 1 249 0
 1447 00ea EA5C     		ldrb	r2, [r5, r3]	@ zero_extendqisi2
 1448 00ec D21B     		subs	r2, r2, r7
 1449 00ee 18BF     		it	ne
 1450 00f0 0122     		movne	r2, #1
 1451 00f2 84F83C20 		strb	r2, [r4, #60]
 1452 00f6 0133     		adds	r3, r3, #1
 1453              		.loc 1 250 0
 1454 00f8 3146     		mov	r1, r6
 1455 00fa 2846     		mov	r0, r5
 1456              		.loc 1 249 0
 1457 00fc 0193     		str	r3, [sp, #4]
 1458              		.loc 1 250 0
 1459 00fe FFF7FEFF 		bl	buffer_get_float32_auto
 1460              	.LVL154:
 1461              		.loc 1 251 0
 1462 0102 3146     		mov	r1, r6
 1463 0104 2846     		mov	r0, r5
 1464              		.loc 1 250 0
 1465 0106 84ED100A 		vstr.32	s0, [r4, #64]
 1466              		.loc 1 251 0
 1467 010a FFF7FEFF 		bl	buffer_get_float32_auto
 1468              	.LVL155:
 1469              		.loc 1 252 0
 1470 010e 3146     		mov	r1, r6
 1471 0110 2846     		mov	r0, r5
 1472              		.loc 1 251 0
 1473 0112 84ED110A 		vstr.32	s0, [r4, #68]
 1474              		.loc 1 252 0
 1475 0116 FFF7FEFF 		bl	buffer_get_float32_auto
 1476              	.LVL156:
 1477              		.loc 1 253 0
 1478 011a 3146     		mov	r1, r6
 1479 011c 2846     		mov	r0, r5
 1480              		.loc 1 252 0
 1481 011e 84ED120A 		vstr.32	s0, [r4, #72]
 1482              		.loc 1 253 0
ARM GAS  /tmp/ccOR9P9P.s 			page 27


 1483 0122 FFF7FEFF 		bl	buffer_get_float32_auto
 1484              	.LVL157:
 1485              		.loc 1 254 0
 1486 0126 3146     		mov	r1, r6
 1487 0128 2846     		mov	r0, r5
 1488              		.loc 1 253 0
 1489 012a 84ED130A 		vstr.32	s0, [r4, #76]
 1490              		.loc 1 254 0
 1491 012e FFF7FEFF 		bl	buffer_get_float32_auto
 1492              	.LVL158:
 1493              		.loc 1 255 0
 1494 0132 3146     		mov	r1, r6
 1495 0134 2846     		mov	r0, r5
 1496              		.loc 1 254 0
 1497 0136 84ED140A 		vstr.32	s0, [r4, #80]
 1498              		.loc 1 255 0
 1499 013a FFF7FEFF 		bl	buffer_get_float32_auto
 1500              	.LVL159:
 1501              		.loc 1 256 0
 1502 013e 3146     		mov	r1, r6
 1503 0140 2846     		mov	r0, r5
 1504              		.loc 1 255 0
 1505 0142 84ED150A 		vstr.32	s0, [r4, #84]
 1506              		.loc 1 256 0
 1507 0146 FFF7FEFF 		bl	buffer_get_float32_auto
 1508              	.LVL160:
 1509              		.loc 1 257 0
 1510 014a 3146     		mov	r1, r6
 1511 014c 2846     		mov	r0, r5
 1512              		.loc 1 256 0
 1513 014e 84ED160A 		vstr.32	s0, [r4, #88]
 1514              		.loc 1 257 0
 1515 0152 FFF7FEFF 		bl	buffer_get_float32_auto
 1516              	.LVL161:
 1517              		.loc 1 258 0
 1518 0156 3146     		mov	r1, r6
 1519 0158 2846     		mov	r0, r5
 1520              		.loc 1 257 0
 1521 015a 84ED170A 		vstr.32	s0, [r4, #92]
 1522              		.loc 1 258 0
 1523 015e FFF7FEFF 		bl	buffer_get_float32_auto
 1524              	.LVL162:
 1525              		.loc 1 259 0
 1526 0162 3146     		mov	r1, r6
 1527 0164 2846     		mov	r0, r5
 1528              		.loc 1 258 0
 1529 0166 84ED180A 		vstr.32	s0, [r4, #96]
 1530              		.loc 1 259 0
 1531 016a FFF7FEFF 		bl	buffer_get_float32_auto
 1532              	.LVL163:
 1533              		.loc 1 260 0
 1534 016e 3146     		mov	r1, r6
 1535 0170 2846     		mov	r0, r5
 1536              		.loc 1 259 0
 1537 0172 84ED190A 		vstr.32	s0, [r4, #100]
 1538              		.loc 1 260 0
 1539 0176 FFF7FEFF 		bl	buffer_get_float32_auto
ARM GAS  /tmp/ccOR9P9P.s 			page 28


 1540              	.LVL164:
 1541              		.loc 1 261 0
 1542 017a 3146     		mov	r1, r6
 1543 017c 2846     		mov	r0, r5
 1544              		.loc 1 260 0
 1545 017e 84ED1A0A 		vstr.32	s0, [r4, #104]
 1546              		.loc 1 261 0
 1547 0182 FFF7FEFF 		bl	buffer_get_float32_auto
 1548              	.LVL165:
 1549              		.loc 1 262 0
 1550 0186 3146     		mov	r1, r6
 1551 0188 2846     		mov	r0, r5
 1552              		.loc 1 261 0
 1553 018a 84ED210A 		vstr.32	s0, [r4, #132]
 1554              		.loc 1 262 0
 1555 018e FFF7FEFF 		bl	buffer_get_float32_auto
 1556              	.LVL166:
 1557              		.loc 1 263 0
 1558 0192 3146     		mov	r1, r6
 1559 0194 2846     		mov	r0, r5
 1560              		.loc 1 262 0
 1561 0196 84ED220A 		vstr.32	s0, [r4, #136]
 1562              		.loc 1 263 0
 1563 019a FFF7FEFF 		bl	buffer_get_float32_auto
 1564              	.LVL167:
 1565              		.loc 1 264 0
 1566 019e 3146     		mov	r1, r6
 1567 01a0 2846     		mov	r0, r5
 1568              		.loc 1 263 0
 1569 01a2 84ED230A 		vstr.32	s0, [r4, #140]
 1570              		.loc 1 264 0
 1571 01a6 FFF7FEFF 		bl	buffer_get_float32_auto
 1572              	.LVL168:
 1573              		.loc 1 265 0
 1574 01aa 3146     		mov	r1, r6
 1575 01ac 2846     		mov	r0, r5
 1576              		.loc 1 264 0
 1577 01ae 84ED240A 		vstr.32	s0, [r4, #144]
 1578              		.loc 1 265 0
 1579 01b2 FFF7FEFF 		bl	buffer_get_float32_auto
 1580              	.LVL169:
 1581              		.loc 1 266 0
 1582 01b6 3146     		mov	r1, r6
 1583 01b8 2846     		mov	r0, r5
 1584              		.loc 1 265 0
 1585 01ba 84ED250A 		vstr.32	s0, [r4, #148]
 1586              		.loc 1 266 0
 1587 01be FFF7FEFF 		bl	buffer_get_float32_auto
 1588              	.LVL170:
 1589              		.loc 1 267 0
 1590 01c2 3146     		mov	r1, r6
 1591 01c4 2846     		mov	r0, r5
 1592              		.loc 1 266 0
 1593 01c6 84ED260A 		vstr.32	s0, [r4, #152]
 1594              		.loc 1 267 0
 1595 01ca FFF7FEFF 		bl	buffer_get_float32_auto
 1596              	.LVL171:
ARM GAS  /tmp/ccOR9P9P.s 			page 29


 1597              		.loc 1 268 0
 1598 01ce 019A     		ldr	r2, [sp, #4]
 1599              		.loc 1 267 0
 1600 01d0 84ED270A 		vstr.32	s0, [r4, #156]
 1601              		.loc 1 268 0
 1602 01d4 AB5C     		ldrb	r3, [r5, r2]	@ zero_extendqisi2
 1603 01d6 84F8A030 		strb	r3, [r4, #160]
 1604              		.loc 1 269 0
 1605 01da AB18     		adds	r3, r5, r2
 1606              		.loc 1 276 0
 1607 01dc 2846     		mov	r0, r5
 1608              		.loc 1 269 0
 1609 01de 5978     		ldrb	r1, [r3, #1]	@ zero_extendqisi2
 1610 01e0 84F8A110 		strb	r1, [r4, #161]
 1611              		.loc 1 270 0
 1612 01e4 9978     		ldrb	r1, [r3, #2]	@ zero_extendqisi2
 1613 01e6 84F8A210 		strb	r1, [r4, #162]
 1614              		.loc 1 271 0
 1615 01ea D978     		ldrb	r1, [r3, #3]	@ zero_extendqisi2
 1616 01ec 84F8A310 		strb	r1, [r4, #163]
 1617              		.loc 1 272 0
 1618 01f0 1979     		ldrb	r1, [r3, #4]	@ zero_extendqisi2
 1619 01f2 84F8A410 		strb	r1, [r4, #164]
 1620              		.loc 1 273 0
 1621 01f6 5979     		ldrb	r1, [r3, #5]	@ zero_extendqisi2
 1622 01f8 84F8A510 		strb	r1, [r4, #165]
 1623              		.loc 1 274 0
 1624 01fc 9979     		ldrb	r1, [r3, #6]	@ zero_extendqisi2
 1625 01fe 84F8A610 		strb	r1, [r4, #166]
 1626              		.loc 1 275 0
 1627 0202 DB79     		ldrb	r3, [r3, #7]	@ zero_extendqisi2
 1628 0204 84F8A730 		strb	r3, [r4, #167]
 1629 0208 0832     		adds	r2, r2, #8
 1630              		.loc 1 276 0
 1631 020a 3146     		mov	r1, r6
 1632              		.loc 1 275 0
 1633 020c 0192     		str	r2, [sp, #4]
 1634              		.loc 1 276 0
 1635 020e FFF7FEFF 		bl	buffer_get_float32_auto
 1636              	.LVL172:
 1637              		.loc 1 277 0
 1638 0212 3146     		mov	r1, r6
 1639 0214 2846     		mov	r0, r5
 1640              		.loc 1 276 0
 1641 0216 84ED2A0A 		vstr.32	s0, [r4, #168]
 1642              		.loc 1 277 0
 1643 021a FFF7FEFF 		bl	buffer_get_float32_auto
 1644              	.LVL173:
 1645              		.loc 1 278 0
 1646 021e 3146     		mov	r1, r6
 1647 0220 2846     		mov	r0, r5
 1648              		.loc 1 277 0
 1649 0222 84ED2B0A 		vstr.32	s0, [r4, #172]
 1650              		.loc 1 278 0
 1651 0226 FFF7FEFF 		bl	buffer_get_float32_auto
 1652              	.LVL174:
 1653              		.loc 1 279 0
ARM GAS  /tmp/ccOR9P9P.s 			page 30


 1654 022a 3146     		mov	r1, r6
 1655 022c 2846     		mov	r0, r5
 1656              		.loc 1 278 0
 1657 022e 84ED2C0A 		vstr.32	s0, [r4, #176]
 1658              		.loc 1 279 0
 1659 0232 FFF7FEFF 		bl	buffer_get_float32_auto
 1660              	.LVL175:
 1661              		.loc 1 280 0
 1662 0236 3146     		mov	r1, r6
 1663 0238 2846     		mov	r0, r5
 1664              		.loc 1 279 0
 1665 023a 84ED2D0A 		vstr.32	s0, [r4, #180]
 1666              		.loc 1 280 0
 1667 023e FFF7FEFF 		bl	buffer_get_float32_auto
 1668              	.LVL176:
 1669              		.loc 1 281 0
 1670 0242 019B     		ldr	r3, [sp, #4]
 1671              		.loc 1 280 0
 1672 0244 84ED2E0A 		vstr.32	s0, [r4, #184]
 1673              		.loc 1 281 0
 1674 0248 EA5C     		ldrb	r2, [r5, r3]	@ zero_extendqisi2
 1675 024a D21B     		subs	r2, r2, r7
 1676 024c 18BF     		it	ne
 1677 024e 0122     		movne	r2, #1
 1678 0250 84F8C020 		strb	r2, [r4, #192]
 1679 0254 0133     		adds	r3, r3, #1
 1680              		.loc 1 282 0
 1681 0256 3146     		mov	r1, r6
 1682 0258 2846     		mov	r0, r5
 1683              		.loc 1 281 0
 1684 025a 0193     		str	r3, [sp, #4]
 1685              		.loc 1 282 0
 1686 025c FFF7FEFF 		bl	buffer_get_float32_auto
 1687              	.LVL177:
 1688              		.loc 1 283 0
 1689 0260 3146     		mov	r1, r6
 1690 0262 2846     		mov	r0, r5
 1691              		.loc 1 282 0
 1692 0264 84ED2F0A 		vstr.32	s0, [r4, #188]
 1693              		.loc 1 283 0
 1694 0268 FFF7FEFF 		bl	buffer_get_float32_auto
 1695              	.LVL178:
 1696              		.loc 1 284 0
 1697 026c 3146     		mov	r1, r6
 1698 026e 2846     		mov	r0, r5
 1699              		.loc 1 283 0
 1700 0270 84ED310A 		vstr.32	s0, [r4, #196]
 1701              		.loc 1 284 0
 1702 0274 FFF7FEFF 		bl	buffer_get_float32_auto
 1703              	.LVL179:
 1704              		.loc 1 285 0
 1705 0278 3146     		mov	r1, r6
 1706 027a 2846     		mov	r0, r5
 1707              		.loc 1 284 0
 1708 027c 84ED330A 		vstr.32	s0, [r4, #204]
 1709              		.loc 1 285 0
 1710 0280 FFF7FEFF 		bl	buffer_get_float32_auto
ARM GAS  /tmp/ccOR9P9P.s 			page 31


 1711              	.LVL180:
 1712              		.loc 1 286 0
 1713 0284 3146     		mov	r1, r6
 1714 0286 2846     		mov	r0, r5
 1715              		.loc 1 285 0
 1716 0288 84ED350A 		vstr.32	s0, [r4, #212]
 1717              		.loc 1 286 0
 1718 028c FFF7FEFF 		bl	buffer_get_float32_auto
 1719              	.LVL181:
 1720              		.loc 1 287 0
 1721 0290 3146     		mov	r1, r6
 1722 0292 2846     		mov	r0, r5
 1723              		.loc 1 286 0
 1724 0294 84ED320A 		vstr.32	s0, [r4, #200]
 1725              		.loc 1 287 0
 1726 0298 FFF7FEFF 		bl	buffer_get_float32_auto
 1727              	.LVL182:
 1728              		.loc 1 288 0
 1729 029c 3146     		mov	r1, r6
 1730 029e 2846     		mov	r0, r5
 1731              		.loc 1 287 0
 1732 02a0 84ED340A 		vstr.32	s0, [r4, #208]
 1733              		.loc 1 288 0
 1734 02a4 FFF7FEFF 		bl	buffer_get_float32_auto
 1735              	.LVL183:
 1736              		.loc 1 289 0
 1737 02a8 019B     		ldr	r3, [sp, #4]
 1738              		.loc 1 288 0
 1739 02aa 84ED360A 		vstr.32	s0, [r4, #216]
 1740              		.loc 1 289 0
 1741 02ae EA5C     		ldrb	r2, [r5, r3]	@ zero_extendqisi2
 1742 02b0 84F81421 		strb	r2, [r4, #276]
 1743 02b4 0133     		adds	r3, r3, #1
 1744              		.loc 1 290 0
 1745 02b6 3146     		mov	r1, r6
 1746 02b8 2846     		mov	r0, r5
 1747              		.loc 1 289 0
 1748 02ba 0193     		str	r3, [sp, #4]
 1749              		.loc 1 290 0
 1750 02bc FFF7FEFF 		bl	buffer_get_float32_auto
 1751              	.LVL184:
 1752              		.loc 1 291 0
 1753 02c0 3146     		mov	r1, r6
 1754 02c2 2846     		mov	r0, r5
 1755              		.loc 1 290 0
 1756 02c4 84ED3C0A 		vstr.32	s0, [r4, #240]
 1757              		.loc 1 291 0
 1758 02c8 FFF7FEFF 		bl	buffer_get_float32_auto
 1759              	.LVL185:
 1760              		.loc 1 292 0
 1761 02cc 3146     		mov	r1, r6
 1762 02ce 2846     		mov	r0, r5
 1763              		.loc 1 291 0
 1764 02d0 84ED3D0A 		vstr.32	s0, [r4, #244]
 1765              		.loc 1 292 0
 1766 02d4 FFF7FEFF 		bl	buffer_get_float32_auto
 1767              	.LVL186:
ARM GAS  /tmp/ccOR9P9P.s 			page 32


 1768              		.loc 1 293 0
 1769 02d8 3146     		mov	r1, r6
 1770 02da 2846     		mov	r0, r5
 1771              		.loc 1 292 0
 1772 02dc 84ED370A 		vstr.32	s0, [r4, #220]
 1773              		.loc 1 293 0
 1774 02e0 FFF7FEFF 		bl	buffer_get_float32_auto
 1775              	.LVL187:
 1776              		.loc 1 294 0
 1777 02e4 3146     		mov	r1, r6
 1778 02e6 2846     		mov	r0, r5
 1779              		.loc 1 293 0
 1780 02e8 84ED380A 		vstr.32	s0, [r4, #224]
 1781              		.loc 1 294 0
 1782 02ec FFF7FEFF 		bl	buffer_get_float32_auto
 1783              	.LVL188:
 1784              		.loc 1 295 0
 1785 02f0 3146     		mov	r1, r6
 1786 02f2 2846     		mov	r0, r5
 1787              		.loc 1 294 0
 1788 02f4 84ED390A 		vstr.32	s0, [r4, #228]
 1789              		.loc 1 295 0
 1790 02f8 FFF7FEFF 		bl	buffer_get_float32_auto
 1791              	.LVL189:
 1792              		.loc 1 296 0
 1793 02fc 3146     		mov	r1, r6
 1794 02fe 2846     		mov	r0, r5
 1795              		.loc 1 295 0
 1796 0300 84ED3A0A 		vstr.32	s0, [r4, #232]
 1797              		.loc 1 296 0
 1798 0304 FFF7FEFF 		bl	buffer_get_float32_auto
 1799              	.LVL190:
 1800              		.loc 1 297 0
 1801 0308 3146     		mov	r1, r6
 1802 030a 2846     		mov	r0, r5
 1803              		.loc 1 296 0
 1804 030c 84ED3B0A 		vstr.32	s0, [r4, #236]
 1805              		.loc 1 297 0
 1806 0310 FFF7FEFF 		bl	buffer_get_float32_auto
 1807              	.LVL191:
 1808              		.loc 1 298 0
 1809 0314 3146     		mov	r1, r6
 1810 0316 2846     		mov	r0, r5
 1811              		.loc 1 297 0
 1812 0318 84ED3E0A 		vstr.32	s0, [r4, #248]
 1813              		.loc 1 298 0
 1814 031c FFF7FEFF 		bl	buffer_get_float32_auto
 1815              	.LVL192:
 1816              		.loc 1 299 0
 1817 0320 3146     		mov	r1, r6
 1818 0322 2846     		mov	r0, r5
 1819              		.loc 1 298 0
 1820 0324 84ED3F0A 		vstr.32	s0, [r4, #252]
 1821              		.loc 1 299 0
 1822 0328 FFF7FEFF 		bl	buffer_get_float32_auto
 1823              	.LVL193:
 1824              		.loc 1 300 0
ARM GAS  /tmp/ccOR9P9P.s 			page 33


 1825 032c 3146     		mov	r1, r6
 1826 032e 2846     		mov	r0, r5
 1827              		.loc 1 299 0
 1828 0330 84ED400A 		vstr.32	s0, [r4, #256]
 1829              		.loc 1 300 0
 1830 0334 FFF7FEFF 		bl	buffer_get_float32_auto
 1831              	.LVL194:
 1832              		.loc 1 301 0
 1833 0338 3146     		mov	r1, r6
 1834 033a 2846     		mov	r0, r5
 1835              		.loc 1 300 0
 1836 033c 84ED410A 		vstr.32	s0, [r4, #260]
 1837              		.loc 1 301 0
 1838 0340 FFF7FEFF 		bl	buffer_get_float32_auto
 1839              	.LVL195:
 1840              		.loc 1 302 0
 1841 0344 3146     		mov	r1, r6
 1842 0346 2846     		mov	r0, r5
 1843              		.loc 1 301 0
 1844 0348 84ED420A 		vstr.32	s0, [r4, #264]
 1845              		.loc 1 302 0
 1846 034c FFF7FEFF 		bl	buffer_get_float32_auto
 1847              	.LVL196:
 1848              		.loc 1 303 0
 1849 0350 3146     		mov	r1, r6
 1850 0352 2846     		mov	r0, r5
 1851              		.loc 1 302 0
 1852 0354 84ED430A 		vstr.32	s0, [r4, #268]
 1853              		.loc 1 303 0
 1854 0358 FFF7FEFF 		bl	buffer_get_float32_auto
 1855              	.LVL197:
 1856              		.loc 1 304 0
 1857 035c 019A     		ldr	r2, [sp, #4]
 1858              		.loc 1 303 0
 1859 035e 84ED440A 		vstr.32	s0, [r4, #272]
 1860              		.loc 1 304 0
 1861 0362 AB5C     		ldrb	r3, [r5, r2]	@ zero_extendqisi2
 1862 0364 84F81531 		strb	r3, [r4, #277]
 1863              		.loc 1 305 0
 1864 0368 AB18     		adds	r3, r5, r2
 1865              		.loc 1 312 0
 1866 036a 2846     		mov	r0, r5
 1867              		.loc 1 305 0
 1868 036c 5978     		ldrb	r1, [r3, #1]	@ zero_extendqisi2
 1869 036e 84F81611 		strb	r1, [r4, #278]
 1870              		.loc 1 306 0
 1871 0372 9978     		ldrb	r1, [r3, #2]	@ zero_extendqisi2
 1872 0374 84F81711 		strb	r1, [r4, #279]
 1873              		.loc 1 307 0
 1874 0378 D978     		ldrb	r1, [r3, #3]	@ zero_extendqisi2
 1875 037a 84F81811 		strb	r1, [r4, #280]
 1876              		.loc 1 308 0
 1877 037e 1979     		ldrb	r1, [r3, #4]	@ zero_extendqisi2
 1878 0380 84F81911 		strb	r1, [r4, #281]
 1879              		.loc 1 309 0
 1880 0384 5979     		ldrb	r1, [r3, #5]	@ zero_extendqisi2
 1881 0386 84F81A11 		strb	r1, [r4, #282]
ARM GAS  /tmp/ccOR9P9P.s 			page 34


 1882              		.loc 1 310 0
 1883 038a 9979     		ldrb	r1, [r3, #6]	@ zero_extendqisi2
 1884 038c 84F81B11 		strb	r1, [r4, #283]
 1885              		.loc 1 311 0
 1886 0390 DB79     		ldrb	r3, [r3, #7]	@ zero_extendqisi2
 1887 0392 84F81C31 		strb	r3, [r4, #284]
 1888 0396 0832     		adds	r2, r2, #8
 1889              		.loc 1 312 0
 1890 0398 3146     		mov	r1, r6
 1891              		.loc 1 311 0
 1892 039a 0192     		str	r2, [sp, #4]
 1893              		.loc 1 312 0
 1894 039c FFF7FEFF 		bl	buffer_get_float32_auto
 1895              	.LVL198:
 1896              		.loc 1 313 0
 1897 03a0 019B     		ldr	r3, [sp, #4]
 1898              		.loc 1 312 0
 1899 03a2 84ED480A 		vstr.32	s0, [r4, #288]
 1900              		.loc 1 313 0
 1901 03a6 EA5C     		ldrb	r2, [r5, r3]	@ zero_extendqisi2
 1902 03a8 D21B     		subs	r2, r2, r7
 1903              		.loc 1 314 0
 1904 03aa 05EB0301 		add	r1, r5, r3
 1905              		.loc 1 313 0
 1906 03ae 18BF     		it	ne
 1907 03b0 0122     		movne	r2, #1
 1908 03b2 84F82421 		strb	r2, [r4, #292]
 1909              		.loc 1 314 0
 1910 03b6 4A78     		ldrb	r2, [r1, #1]	@ zero_extendqisi2
 1911 03b8 D21B     		subs	r2, r2, r7
 1912 03ba 18BF     		it	ne
 1913 03bc 0122     		movne	r2, #1
 1914 03be 84F82521 		strb	r2, [r4, #293]
 1915 03c2 0233     		adds	r3, r3, #2
 1916              		.loc 1 315 0
 1917 03c4 3146     		mov	r1, r6
 1918 03c6 2846     		mov	r0, r5
 1919              		.loc 1 314 0
 1920 03c8 0193     		str	r3, [sp, #4]
 1921              		.loc 1 315 0
 1922 03ca FFF7FEFF 		bl	buffer_get_float32_auto
 1923              	.LVL199:
 1924              		.loc 1 316 0
 1925 03ce 019B     		ldr	r3, [sp, #4]
 1926              		.loc 1 315 0
 1927 03d0 84ED4A0A 		vstr.32	s0, [r4, #296]
 1928              		.loc 1 316 0
 1929 03d4 EA5C     		ldrb	r2, [r5, r3]	@ zero_extendqisi2
 1930 03d6 D21B     		subs	r2, r2, r7
 1931 03d8 18BF     		it	ne
 1932 03da 0122     		movne	r2, #1
 1933 03dc 84F82C21 		strb	r2, [r4, #300]
 1934 03e0 0133     		adds	r3, r3, #1
 1935              		.loc 1 317 0
 1936 03e2 3146     		mov	r1, r6
 1937 03e4 2846     		mov	r0, r5
 1938              		.loc 1 316 0
ARM GAS  /tmp/ccOR9P9P.s 			page 35


 1939 03e6 0193     		str	r3, [sp, #4]
 1940              		.loc 1 317 0
 1941 03e8 FFF7FEFF 		bl	buffer_get_float32_auto
 1942              	.LVL200:
 1943              		.loc 1 318 0
 1944 03ec 3146     		mov	r1, r6
 1945 03ee 2846     		mov	r0, r5
 1946              		.loc 1 317 0
 1947 03f0 84ED4C0A 		vstr.32	s0, [r4, #304]
 1948              		.loc 1 318 0
 1949 03f4 FFF7FEFF 		bl	buffer_get_float32_auto
 1950              	.LVL201:
 1951              		.loc 1 319 0
 1952 03f8 3146     		mov	r1, r6
 1953              		.loc 1 318 0
 1954 03fa 84ED4D0A 		vstr.32	s0, [r4, #308]
 1955              		.loc 1 319 0
 1956 03fe 2846     		mov	r0, r5
 1957 0400 FFF7FEFF 		bl	buffer_get_int16
 1958              	.LVL202:
 1959              		.loc 1 320 0
 1960 0404 3146     		mov	r1, r6
 1961              		.loc 1 319 0
 1962 0406 C4F83801 		str	r0, [r4, #312]
 1963              		.loc 1 320 0
 1964 040a 2846     		mov	r0, r5
 1965 040c FFF7FEFF 		bl	buffer_get_int16
 1966              	.LVL203:
 1967              		.loc 1 321 0
 1968 0410 3146     		mov	r1, r6
 1969              		.loc 1 320 0
 1970 0412 C4F83C01 		str	r0, [r4, #316]
 1971              		.loc 1 321 0
 1972 0416 2846     		mov	r0, r5
 1973 0418 FFF7FEFF 		bl	buffer_get_float32_auto
 1974              	.LVL204:
 1975              		.loc 1 322 0
 1976 041c 3146     		mov	r1, r6
 1977 041e 2846     		mov	r0, r5
 1978              		.loc 1 321 0
 1979 0420 84ED500A 		vstr.32	s0, [r4, #320]
 1980              		.loc 1 322 0
 1981 0424 FFF7FEFF 		bl	buffer_get_float32_auto
 1982              	.LVL205:
 1983              		.loc 1 323 0
 1984 0428 3146     		mov	r1, r6
 1985 042a 2846     		mov	r0, r5
 1986              		.loc 1 322 0
 1987 042c 84ED510A 		vstr.32	s0, [r4, #324]
 1988              		.loc 1 323 0
 1989 0430 FFF7FEFF 		bl	buffer_get_float32_auto
 1990              	.LVL206:
 1991              		.loc 1 324 0
 1992 0434 3146     		mov	r1, r6
 1993 0436 2846     		mov	r0, r5
 1994              		.loc 1 323 0
 1995 0438 84ED520A 		vstr.32	s0, [r4, #328]
ARM GAS  /tmp/ccOR9P9P.s 			page 36


 1996              		.loc 1 324 0
 1997 043c FFF7FEFF 		bl	buffer_get_float32_auto
 1998              	.LVL207:
 1999              		.loc 1 325 0
 2000 0440 3146     		mov	r1, r6
 2001 0442 2846     		mov	r0, r5
 2002              		.loc 1 324 0
 2003 0444 84ED530A 		vstr.32	s0, [r4, #332]
 2004              		.loc 1 325 0
 2005 0448 FFF7FEFF 		bl	buffer_get_float32_auto
 2006              	.LVL208:
 2007              		.loc 1 326 0
 2008 044c 3146     		mov	r1, r6
 2009 044e 2846     		mov	r0, r5
 2010              		.loc 1 325 0
 2011 0450 84ED540A 		vstr.32	s0, [r4, #336]
 2012              		.loc 1 326 0
 2013 0454 FFF7FEFF 		bl	buffer_get_float32_auto
 2014              	.LVL209:
 2015              		.loc 1 327 0
 2016 0458 3146     		mov	r1, r6
 2017 045a 2846     		mov	r0, r5
 2018              		.loc 1 326 0
 2019 045c 84ED550A 		vstr.32	s0, [r4, #340]
 2020              		.loc 1 327 0
 2021 0460 FFF7FEFF 		bl	buffer_get_float32_auto
 2022              	.LVL210:
 2023              		.loc 1 328 0
 2024 0464 3146     		mov	r1, r6
 2025 0466 2846     		mov	r0, r5
 2026              		.loc 1 327 0
 2027 0468 84ED560A 		vstr.32	s0, [r4, #344]
 2028              		.loc 1 328 0
 2029 046c FFF7FEFF 		bl	buffer_get_float32_auto
 2030              	.LVL211:
 2031              		.loc 1 329 0
 2032 0470 019B     		ldr	r3, [sp, #4]
 2033              		.loc 1 328 0
 2034 0472 84ED570A 		vstr.32	s0, [r4, #348]
 2035              		.loc 1 329 0
 2036 0476 EA5C     		ldrb	r2, [r5, r3]	@ zero_extendqisi2
 2037 0478 D21B     		subs	r2, r2, r7
 2038 047a 18BF     		it	ne
 2039 047c 0122     		movne	r2, #1
 2040 047e 84F86021 		strb	r2, [r4, #352]
 2041 0482 0133     		adds	r3, r3, #1
 2042              		.loc 1 330 0
 2043 0484 3146     		mov	r1, r6
 2044 0486 2846     		mov	r0, r5
 2045              		.loc 1 329 0
 2046 0488 0193     		str	r3, [sp, #4]
 2047              		.loc 1 330 0
 2048 048a FFF7FEFF 		bl	buffer_get_float32_auto
 2049              	.LVL212:
 2050              		.loc 1 331 0
 2051 048e 3146     		mov	r1, r6
 2052 0490 2846     		mov	r0, r5
ARM GAS  /tmp/ccOR9P9P.s 			page 37


 2053              		.loc 1 330 0
 2054 0492 84ED590A 		vstr.32	s0, [r4, #356]
 2055              		.loc 1 331 0
 2056 0496 FFF7FEFF 		bl	buffer_get_float32_auto
 2057              	.LVL213:
 2058              		.loc 1 332 0
 2059 049a 3146     		mov	r1, r6
 2060 049c 2846     		mov	r0, r5
 2061              		.loc 1 331 0
 2062 049e 84ED5A0A 		vstr.32	s0, [r4, #360]
 2063              		.loc 1 332 0
 2064 04a2 FFF7FEFF 		bl	buffer_get_float32_auto
 2065              	.LVL214:
 2066              		.loc 1 333 0
 2067 04a6 3146     		mov	r1, r6
 2068 04a8 2846     		mov	r0, r5
 2069              		.loc 1 332 0
 2070 04aa 84ED5B0A 		vstr.32	s0, [r4, #364]
 2071              		.loc 1 333 0
 2072 04ae FFF7FEFF 		bl	buffer_get_float32_auto
 2073              	.LVL215:
 2074              		.loc 1 334 0
 2075 04b2 3146     		mov	r1, r6
 2076 04b4 2846     		mov	r0, r5
 2077              		.loc 1 333 0
 2078 04b6 84ED5C0A 		vstr.32	s0, [r4, #368]
 2079              		.loc 1 334 0
 2080 04ba FFF7FEFF 		bl	buffer_get_float32_auto
 2081              	.LVL216:
 2082              		.loc 1 335 0
 2083 04be 3146     		mov	r1, r6
 2084 04c0 2846     		mov	r0, r5
 2085              		.loc 1 334 0
 2086 04c2 84ED5D0A 		vstr.32	s0, [r4, #372]
 2087              		.loc 1 335 0
 2088 04c6 FFF7FEFF 		bl	buffer_get_float32_auto
 2089              	.LVL217:
 2090              		.loc 1 336 0
 2091 04ca 3146     		mov	r1, r6
 2092 04cc 2846     		mov	r0, r5
 2093              		.loc 1 335 0
 2094 04ce 84ED5E0A 		vstr.32	s0, [r4, #376]
 2095              		.loc 1 336 0
 2096 04d2 FFF7FEFF 		bl	buffer_get_float32_auto
 2097              	.LVL218:
 2098              		.loc 1 337 0
 2099 04d6 3146     		mov	r1, r6
 2100 04d8 2846     		mov	r0, r5
 2101              		.loc 1 336 0
 2102 04da 84ED5F0A 		vstr.32	s0, [r4, #380]
 2103              		.loc 1 337 0
 2104 04de FFF7FEFF 		bl	buffer_get_float32_auto
 2105              	.LVL219:
 2106              		.loc 1 338 0
 2107 04e2 3146     		mov	r1, r6
 2108 04e4 2846     		mov	r0, r5
 2109              		.loc 1 337 0
ARM GAS  /tmp/ccOR9P9P.s 			page 38


 2110 04e6 84ED600A 		vstr.32	s0, [r4, #384]
 2111              		.loc 1 338 0
 2112 04ea FFF7FEFF 		bl	buffer_get_float32_auto
 2113              	.LVL220:
 2114              		.loc 1 339 0
 2115 04ee 3146     		mov	r1, r6
 2116              		.loc 1 338 0
 2117 04f0 84ED610A 		vstr.32	s0, [r4, #388]
 2118              		.loc 1 339 0
 2119 04f4 2846     		mov	r0, r5
 2120 04f6 FFF7FEFF 		bl	buffer_get_int32
 2121              	.LVL221:
 2122              		.loc 1 340 0
 2123 04fa 3146     		mov	r1, r6
 2124              		.loc 1 339 0
 2125 04fc C4F88801 		str	r0, [r4, #392]
 2126              		.loc 1 340 0
 2127 0500 2846     		mov	r0, r5
 2128 0502 FFF7FEFF 		bl	buffer_get_float32_auto
 2129              	.LVL222:
 2130              		.loc 1 341 0
 2131 0506 3146     		mov	r1, r6
 2132 0508 2846     		mov	r0, r5
 2133              		.loc 1 340 0
 2134 050a 84ED630A 		vstr.32	s0, [r4, #396]
 2135              		.loc 1 341 0
 2136 050e FFF7FEFF 		bl	buffer_get_float32_auto
 2137              	.LVL223:
 2138              		.loc 1 342 0
 2139 0512 3146     		mov	r1, r6
 2140              		.loc 1 341 0
 2141 0514 84ED640A 		vstr.32	s0, [r4, #400]
 2142              		.loc 1 342 0
 2143 0518 2846     		mov	r0, r5
 2144 051a FFF7FEFF 		bl	buffer_get_uint32
 2145              	.LVL224:
 2146              		.loc 1 343 0
 2147 051e 019B     		ldr	r3, [sp, #4]
 2148              		.loc 1 342 0
 2149 0520 C4F89401 		str	r0, [r4, #404]
 2150              		.loc 1 343 0
 2151 0524 EA5C     		ldrb	r2, [r5, r3]	@ zero_extendqisi2
 2152 0526 84F89821 		strb	r2, [r4, #408]
 2153              		.loc 1 344 0
 2154 052a EA18     		adds	r2, r5, r3
 2155              		.loc 1 346 0
 2156 052c 0433     		adds	r3, r3, #4
 2157              		.loc 1 344 0
 2158 052e 5178     		ldrb	r1, [r2, #1]	@ zero_extendqisi2
 2159              		.loc 1 346 0
 2160 0530 0193     		str	r3, [sp, #4]
 2161              		.loc 1 344 0
 2162 0532 CB1B     		subs	r3, r1, r7
 2163 0534 18BF     		it	ne
 2164 0536 0123     		movne	r3, #1
 2165 0538 84F89931 		strb	r3, [r4, #409]
 2166              		.loc 1 345 0
ARM GAS  /tmp/ccOR9P9P.s 			page 39


 2167 053c 9378     		ldrb	r3, [r2, #2]	@ zero_extendqisi2
 2168 053e 84F89A31 		strb	r3, [r4, #410]
 2169              		.loc 1 346 0
 2170 0542 D378     		ldrb	r3, [r2, #3]	@ zero_extendqisi2
 2171 0544 C4F89C31 		str	r3, [r4, #412]
 2172              		.loc 1 347 0
 2173 0548 3146     		mov	r1, r6
 2174 054a 2846     		mov	r0, r5
 2175 054c FFF7FEFF 		bl	buffer_get_float32_auto
 2176              	.LVL225:
 2177              		.loc 1 348 0
 2178 0550 3146     		mov	r1, r6
 2179 0552 2846     		mov	r0, r5
 2180              		.loc 1 347 0
 2181 0554 84ED680A 		vstr.32	s0, [r4, #416]
 2182              		.loc 1 348 0
 2183 0558 FFF7FEFF 		bl	buffer_get_float32_auto
 2184              	.LVL226:
 2185              		.loc 1 349 0
 2186 055c 3146     		mov	r1, r6
 2187 055e 2846     		mov	r0, r5
 2188              		.loc 1 348 0
 2189 0560 84ED690A 		vstr.32	s0, [r4, #420]
 2190              		.loc 1 349 0
 2191 0564 FFF7FEFF 		bl	buffer_get_float32_auto
 2192              	.LVL227:
 2193              		.loc 1 350 0
 2194 0568 3146     		mov	r1, r6
 2195 056a 2846     		mov	r0, r5
 2196              		.loc 1 349 0
 2197 056c 84ED6A0A 		vstr.32	s0, [r4, #424]
 2198              		.loc 1 350 0
 2199 0570 FFF7FEFF 		bl	buffer_get_float32_auto
 2200              	.LVL228:
 2201              		.loc 1 351 0
 2202 0574 019B     		ldr	r3, [sp, #4]
 2203              		.loc 1 350 0
 2204 0576 84ED6B0A 		vstr.32	s0, [r4, #428]
 2205              		.loc 1 351 0
 2206 057a EA5C     		ldrb	r2, [r5, r3]	@ zero_extendqisi2
 2207 057c 84F8B021 		strb	r2, [r4, #432]
 2208              		.loc 1 352 0
 2209 0580 EA18     		adds	r2, r5, r3
 2210              		.loc 1 353 0
 2211 0582 3146     		mov	r1, r6
 2212              		.loc 1 352 0
 2213 0584 5278     		ldrb	r2, [r2, #1]	@ zero_extendqisi2
 2214 0586 84F8B121 		strb	r2, [r4, #433]
 2215 058a 0233     		adds	r3, r3, #2
 2216              		.loc 1 353 0
 2217 058c 2846     		mov	r0, r5
 2218              		.loc 1 352 0
 2219 058e 0193     		str	r3, [sp, #4]
 2220              		.loc 1 353 0
 2221 0590 FFF7FEFF 		bl	buffer_get_float32_auto
 2222              	.LVL229:
 2223              		.loc 1 354 0
ARM GAS  /tmp/ccOR9P9P.s 			page 40


 2224 0594 3146     		mov	r1, r6
 2225 0596 2846     		mov	r0, r5
 2226              		.loc 1 353 0
 2227 0598 84ED6D0A 		vstr.32	s0, [r4, #436]
 2228              		.loc 1 354 0
 2229 059c FFF7FEFF 		bl	buffer_get_float32_auto
 2230              	.LVL230:
 2231              		.loc 1 355 0
 2232 05a0 019B     		ldr	r3, [sp, #4]
 2233              		.loc 1 354 0
 2234 05a2 84ED6E0A 		vstr.32	s0, [r4, #440]
 2235              		.loc 1 355 0
 2236 05a6 EA5C     		ldrb	r2, [r5, r3]	@ zero_extendqisi2
 2237 05a8 84F8BC21 		strb	r2, [r4, #444]
 2238              		.loc 1 356 0
 2239 05ac EA18     		adds	r2, r5, r3
 2240              		.loc 1 357 0
 2241 05ae 2846     		mov	r0, r5
 2242              		.loc 1 356 0
 2243 05b0 5278     		ldrb	r2, [r2, #1]	@ zero_extendqisi2
 2244 05b2 C4F8C021 		str	r2, [r4, #448]
 2245 05b6 0233     		adds	r3, r3, #2
 2246              		.loc 1 357 0
 2247 05b8 3146     		mov	r1, r6
 2248              		.loc 1 356 0
 2249 05ba 0193     		str	r3, [sp, #4]
 2250              		.loc 1 357 0
 2251 05bc FFF7FEFF 		bl	buffer_get_float32_auto
 2252              	.LVL231:
 2253              		.loc 1 359 0
 2254 05c0 0120     		movs	r0, #1
 2255              		.loc 1 357 0
 2256 05c2 84ED710A 		vstr.32	s0, [r4, #452]
 2257              		.loc 1 360 0
 2258 05c6 03B0     		add	sp, sp, #12
 2259              		.cfi_def_cfa_offset 20
 2260              		@ sp needed
 2261 05c8 F0BD     		pop	{r4, r5, r6, r7, pc}
 2262              		.cfi_endproc
 2263              	.LFE221:
 2264              		.size	confgenerator_deserialize_mcconf, .-confgenerator_deserialize_mcconf
 2265 05ca 00BF     		.section	.text.confgenerator_deserialize_appconf,"ax",%progbits
 2266              		.align	1
 2267              		.p2align 4,,15
 2268              		.global	confgenerator_deserialize_appconf
 2269              		.syntax unified
 2270              		.thumb
 2271              		.thumb_func
 2272              		.fpu fpv4-sp-d16
 2273              		.type	confgenerator_deserialize_appconf, %function
 2274              	confgenerator_deserialize_appconf:
 2275              	.LFB222:
 2276              		.loc 1 362 0
 2277              		.cfi_startproc
 2278              		@ args = 0, pretend = 0, frame = 8
 2279              		@ frame_needed = 0, uses_anonymous_args = 0
 2280              	.LVL232:
ARM GAS  /tmp/ccOR9P9P.s 			page 41


 2281 0000 F0B5     		push	{r4, r5, r6, r7, lr}
 2282              		.cfi_def_cfa_offset 20
 2283              		.cfi_offset 4, -20
 2284              		.cfi_offset 5, -16
 2285              		.cfi_offset 6, -12
 2286              		.cfi_offset 7, -8
 2287              		.cfi_offset 14, -4
 2288 0002 83B0     		sub	sp, sp, #12
 2289              		.cfi_def_cfa_offset 32
 2290              		.loc 1 363 0
 2291 0004 02AE     		add	r6, sp, #8
 2292 0006 0027     		movs	r7, #0
 2293 0008 46F8047D 		str	r7, [r6, #-4]!
 2294              		.loc 1 362 0
 2295 000c 0C46     		mov	r4, r1
 2296              		.loc 1 365 0
 2297 000e 3146     		mov	r1, r6
 2298              	.LVL233:
 2299              		.loc 1 362 0
 2300 0010 0546     		mov	r5, r0
 2301              		.loc 1 365 0
 2302 0012 FFF7FEFF 		bl	buffer_get_uint32
 2303              	.LVL234:
 2304              		.loc 1 366 0
 2305 0016 034B     		ldr	r3, .L23
 2306 0018 9842     		cmp	r0, r3
 2307 001a 05D0     		beq	.L22
 2308              		.loc 1 367 0
 2309 001c 3846     		mov	r0, r7
 2310              	.LVL235:
 2311              		.loc 1 443 0
 2312 001e 03B0     		add	sp, sp, #12
 2313              		.cfi_remember_state
 2314              		.cfi_def_cfa_offset 20
 2315              		@ sp needed
 2316 0020 F0BD     		pop	{r4, r5, r6, r7, pc}
 2317              	.LVL236:
 2318              	.L24:
 2319 0022 00BF     		.align	2
 2320              	.L23:
 2321 0024 C530382B 		.word	725102789
 2322              	.LVL237:
 2323              	.L22:
 2324              		.cfi_restore_state
 2325              		.loc 1 370 0
 2326 0028 019B     		ldr	r3, [sp, #4]
 2327 002a EA5C     		ldrb	r2, [r5, r3]	@ zero_extendqisi2
 2328 002c 2270     		strb	r2, [r4]
 2329 002e 0133     		adds	r3, r3, #1
 2330              		.loc 1 371 0
 2331 0030 3146     		mov	r1, r6
 2332 0032 2846     		mov	r0, r5
 2333              	.LVL238:
 2334              		.loc 1 370 0
 2335 0034 0193     		str	r3, [sp, #4]
 2336              		.loc 1 371 0
 2337 0036 FFF7FEFF 		bl	buffer_get_uint32
ARM GAS  /tmp/ccOR9P9P.s 			page 42


 2338              	.LVL239:
 2339              		.loc 1 372 0
 2340 003a 3146     		mov	r1, r6
 2341              		.loc 1 371 0
 2342 003c 6060     		str	r0, [r4, #4]
 2343              		.loc 1 372 0
 2344 003e 2846     		mov	r0, r5
 2345 0040 FFF7FEFF 		bl	buffer_get_float32_auto
 2346              	.LVL240:
 2347              		.loc 1 373 0
 2348 0044 019B     		ldr	r3, [sp, #4]
 2349              		.loc 1 372 0
 2350 0046 84ED020A 		vstr.32	s0, [r4, #8]
 2351              		.loc 1 373 0
 2352 004a EA5C     		ldrb	r2, [r5, r3]	@ zero_extendqisi2
 2353 004c 2273     		strb	r2, [r4, #12]
 2354 004e 0133     		adds	r3, r3, #1
 2355              		.loc 1 374 0
 2356 0050 3146     		mov	r1, r6
 2357 0052 2846     		mov	r0, r5
 2358              		.loc 1 373 0
 2359 0054 0193     		str	r3, [sp, #4]
 2360              		.loc 1 374 0
 2361 0056 FFF7FEFF 		bl	buffer_get_uint16
 2362              	.LVL241:
 2363              		.loc 1 375 0
 2364 005a 019A     		ldr	r2, [sp, #4]
 2365              		.loc 1 374 0
 2366 005c 2061     		str	r0, [r4, #16]
 2367              		.loc 1 375 0
 2368 005e AB5C     		ldrb	r3, [r5, r2]	@ zero_extendqisi2
 2369 0060 2375     		strb	r3, [r4, #20]
 2370              		.loc 1 376 0
 2371 0062 AB18     		adds	r3, r5, r2
 2372              		.loc 1 381 0
 2373 0064 0732     		adds	r2, r2, #7
 2374              		.loc 1 376 0
 2375 0066 5978     		ldrb	r1, [r3, #1]	@ zero_extendqisi2
 2376              		.loc 1 381 0
 2377 0068 0192     		str	r2, [sp, #4]
 2378              		.loc 1 376 0
 2379 006a CA1B     		subs	r2, r1, r7
 2380 006c 18BF     		it	ne
 2381 006e 0122     		movne	r2, #1
 2382 0070 6275     		strb	r2, [r4, #21]
 2383              		.loc 1 377 0
 2384 0072 9A78     		ldrb	r2, [r3, #2]	@ zero_extendqisi2
 2385 0074 D21B     		subs	r2, r2, r7
 2386 0076 18BF     		it	ne
 2387 0078 0122     		movne	r2, #1
 2388 007a A275     		strb	r2, [r4, #22]
 2389              		.loc 1 378 0
 2390 007c DA78     		ldrb	r2, [r3, #3]	@ zero_extendqisi2
 2391 007e D21B     		subs	r2, r2, r7
 2392 0080 18BF     		it	ne
 2393 0082 0122     		movne	r2, #1
 2394 0084 E275     		strb	r2, [r4, #23]
ARM GAS  /tmp/ccOR9P9P.s 			page 43


 2395              		.loc 1 379 0
 2396 0086 1A79     		ldrb	r2, [r3, #4]	@ zero_extendqisi2
 2397 0088 2276     		strb	r2, [r4, #24]
 2398              		.loc 1 380 0
 2399 008a 5A79     		ldrb	r2, [r3, #5]	@ zero_extendqisi2
 2400 008c 6276     		strb	r2, [r4, #25]
 2401              		.loc 1 381 0
 2402 008e 9B79     		ldrb	r3, [r3, #6]	@ zero_extendqisi2
 2403 0090 2377     		strb	r3, [r4, #28]
 2404              		.loc 1 382 0
 2405 0092 3146     		mov	r1, r6
 2406 0094 2846     		mov	r0, r5
 2407 0096 FFF7FEFF 		bl	buffer_get_float32_auto
 2408              	.LVL242:
 2409              		.loc 1 383 0
 2410 009a 3146     		mov	r1, r6
 2411 009c 2846     		mov	r0, r5
 2412              		.loc 1 382 0
 2413 009e 84ED080A 		vstr.32	s0, [r4, #32]
 2414              		.loc 1 383 0
 2415 00a2 FFF7FEFF 		bl	buffer_get_float32_auto
 2416              	.LVL243:
 2417              		.loc 1 384 0
 2418 00a6 3146     		mov	r1, r6
 2419 00a8 2846     		mov	r0, r5
 2420              		.loc 1 383 0
 2421 00aa 84ED090A 		vstr.32	s0, [r4, #36]
 2422              		.loc 1 384 0
 2423 00ae FFF7FEFF 		bl	buffer_get_float32_auto
 2424              	.LVL244:
 2425              		.loc 1 385 0
 2426 00b2 3146     		mov	r1, r6
 2427 00b4 2846     		mov	r0, r5
 2428              		.loc 1 384 0
 2429 00b6 84ED0A0A 		vstr.32	s0, [r4, #40]
 2430              		.loc 1 385 0
 2431 00ba FFF7FEFF 		bl	buffer_get_float32_auto
 2432              	.LVL245:
 2433              		.loc 1 386 0
 2434 00be 3146     		mov	r1, r6
 2435 00c0 2846     		mov	r0, r5
 2436              		.loc 1 385 0
 2437 00c2 84ED0B0A 		vstr.32	s0, [r4, #44]
 2438              		.loc 1 386 0
 2439 00c6 FFF7FEFF 		bl	buffer_get_float32_auto
 2440              	.LVL246:
 2441              		.loc 1 387 0
 2442 00ca 019B     		ldr	r3, [sp, #4]
 2443              		.loc 1 386 0
 2444 00cc 84ED0C0A 		vstr.32	s0, [r4, #48]
 2445              		.loc 1 387 0
 2446 00d0 EA5C     		ldrb	r2, [r5, r3]	@ zero_extendqisi2
 2447 00d2 D21B     		subs	r2, r2, r7
 2448              		.loc 1 388 0
 2449 00d4 05EB0301 		add	r1, r5, r3
 2450              		.loc 1 387 0
 2451 00d8 18BF     		it	ne
ARM GAS  /tmp/ccOR9P9P.s 			page 44


 2452 00da 0122     		movne	r2, #1
 2453 00dc 84F83420 		strb	r2, [r4, #52]
 2454              		.loc 1 388 0
 2455 00e0 4A78     		ldrb	r2, [r1, #1]	@ zero_extendqisi2
 2456 00e2 D21B     		subs	r2, r2, r7
 2457 00e4 18BF     		it	ne
 2458 00e6 0122     		movne	r2, #1
 2459 00e8 84F83520 		strb	r2, [r4, #53]
 2460 00ec 0233     		adds	r3, r3, #2
 2461              		.loc 1 389 0
 2462 00ee 3146     		mov	r1, r6
 2463 00f0 2846     		mov	r0, r5
 2464              		.loc 1 388 0
 2465 00f2 0193     		str	r3, [sp, #4]
 2466              		.loc 1 389 0
 2467 00f4 FFF7FEFF 		bl	buffer_get_float32_auto
 2468              	.LVL247:
 2469              		.loc 1 390 0
 2470 00f8 3146     		mov	r1, r6
 2471 00fa 2846     		mov	r0, r5
 2472              		.loc 1 389 0
 2473 00fc 84ED0E0A 		vstr.32	s0, [r4, #56]
 2474              		.loc 1 390 0
 2475 0100 FFF7FEFF 		bl	buffer_get_float32_auto
 2476              	.LVL248:
 2477              		.loc 1 391 0
 2478 0104 019B     		ldr	r3, [sp, #4]
 2479              		.loc 1 390 0
 2480 0106 84ED0F0A 		vstr.32	s0, [r4, #60]
 2481              		.loc 1 391 0
 2482 010a EA5C     		ldrb	r2, [r5, r3]	@ zero_extendqisi2
 2483 010c 84F84020 		strb	r2, [r4, #64]
 2484 0110 0133     		adds	r3, r3, #1
 2485              		.loc 1 392 0
 2486 0112 3146     		mov	r1, r6
 2487 0114 2846     		mov	r0, r5
 2488              		.loc 1 391 0
 2489 0116 0193     		str	r3, [sp, #4]
 2490              		.loc 1 392 0
 2491 0118 FFF7FEFF 		bl	buffer_get_float32_auto
 2492              	.LVL249:
 2493              		.loc 1 393 0
 2494 011c 3146     		mov	r1, r6
 2495 011e 2846     		mov	r0, r5
 2496              		.loc 1 392 0
 2497 0120 84ED110A 		vstr.32	s0, [r4, #68]
 2498              		.loc 1 393 0
 2499 0124 FFF7FEFF 		bl	buffer_get_float32_auto
 2500              	.LVL250:
 2501              		.loc 1 394 0
 2502 0128 019B     		ldr	r3, [sp, #4]
 2503              		.loc 1 393 0
 2504 012a 84ED120A 		vstr.32	s0, [r4, #72]
 2505              		.loc 1 394 0
 2506 012e EA5C     		ldrb	r2, [r5, r3]	@ zero_extendqisi2
 2507 0130 D21B     		subs	r2, r2, r7
 2508              		.loc 1 395 0
ARM GAS  /tmp/ccOR9P9P.s 			page 45


 2509 0132 05EB0301 		add	r1, r5, r3
 2510              		.loc 1 394 0
 2511 0136 18BF     		it	ne
 2512 0138 0122     		movne	r2, #1
 2513 013a 84F84C20 		strb	r2, [r4, #76]
 2514              		.loc 1 395 0
 2515 013e 4A78     		ldrb	r2, [r1, #1]	@ zero_extendqisi2
 2516 0140 D21B     		subs	r2, r2, r7
 2517 0142 18BF     		it	ne
 2518 0144 0122     		movne	r2, #1
 2519 0146 84F84D20 		strb	r2, [r4, #77]
 2520 014a 0233     		adds	r3, r3, #2
 2521              		.loc 1 396 0
 2522 014c 3146     		mov	r1, r6
 2523 014e 2846     		mov	r0, r5
 2524              		.loc 1 395 0
 2525 0150 0193     		str	r3, [sp, #4]
 2526              		.loc 1 396 0
 2527 0152 FFF7FEFF 		bl	buffer_get_float32_auto
 2528              	.LVL251:
 2529              		.loc 1 397 0
 2530 0156 019B     		ldr	r3, [sp, #4]
 2531              		.loc 1 396 0
 2532 0158 84ED140A 		vstr.32	s0, [r4, #80]
 2533              		.loc 1 397 0
 2534 015c EA5C     		ldrb	r2, [r5, r3]	@ zero_extendqisi2
 2535 015e 84F85420 		strb	r2, [r4, #84]
 2536 0162 0133     		adds	r3, r3, #1
 2537              		.loc 1 398 0
 2538 0164 3146     		mov	r1, r6
 2539 0166 2846     		mov	r0, r5
 2540              		.loc 1 397 0
 2541 0168 0193     		str	r3, [sp, #4]
 2542              		.loc 1 398 0
 2543 016a FFF7FEFF 		bl	buffer_get_float32_auto
 2544              	.LVL252:
 2545              		.loc 1 399 0
 2546 016e 3146     		mov	r1, r6
 2547 0170 2846     		mov	r0, r5
 2548              		.loc 1 398 0
 2549 0172 84ED160A 		vstr.32	s0, [r4, #88]
 2550              		.loc 1 399 0
 2551 0176 FFF7FEFF 		bl	buffer_get_float32_auto
 2552              	.LVL253:
 2553              		.loc 1 400 0
 2554 017a 3146     		mov	r1, r6
 2555 017c 2846     		mov	r0, r5
 2556              		.loc 1 399 0
 2557 017e 84ED170A 		vstr.32	s0, [r4, #92]
 2558              		.loc 1 400 0
 2559 0182 FFF7FEFF 		bl	buffer_get_float32_auto
 2560              	.LVL254:
 2561              		.loc 1 401 0
 2562 0186 3146     		mov	r1, r6
 2563 0188 2846     		mov	r0, r5
 2564              		.loc 1 400 0
 2565 018a 84ED180A 		vstr.32	s0, [r4, #96]
ARM GAS  /tmp/ccOR9P9P.s 			page 46


 2566              		.loc 1 401 0
 2567 018e FFF7FEFF 		bl	buffer_get_float32_auto
 2568              	.LVL255:
 2569              		.loc 1 402 0
 2570 0192 3146     		mov	r1, r6
 2571 0194 2846     		mov	r0, r5
 2572              		.loc 1 401 0
 2573 0196 84ED190A 		vstr.32	s0, [r4, #100]
 2574              		.loc 1 402 0
 2575 019a FFF7FEFF 		bl	buffer_get_float32_auto
 2576              	.LVL256:
 2577              		.loc 1 403 0
 2578 019e 3146     		mov	r1, r6
 2579 01a0 2846     		mov	r0, r5
 2580              		.loc 1 402 0
 2581 01a2 84ED1A0A 		vstr.32	s0, [r4, #104]
 2582              		.loc 1 403 0
 2583 01a6 FFF7FEFF 		bl	buffer_get_float32_auto
 2584              	.LVL257:
 2585              		.loc 1 404 0
 2586 01aa 019B     		ldr	r3, [sp, #4]
 2587              		.loc 1 403 0
 2588 01ac 84ED1B0A 		vstr.32	s0, [r4, #108]
 2589              		.loc 1 404 0
 2590 01b0 E95C     		ldrb	r1, [r5, r3]	@ zero_extendqisi2
 2591 01b2 C91B     		subs	r1, r1, r7
 2592              		.loc 1 405 0
 2593 01b4 05EB0302 		add	r2, r5, r3
 2594              		.loc 1 404 0
 2595 01b8 18BF     		it	ne
 2596 01ba 0121     		movne	r1, #1
 2597 01bc 84F87010 		strb	r1, [r4, #112]
 2598              		.loc 1 405 0
 2599 01c0 5178     		ldrb	r1, [r2, #1]	@ zero_extendqisi2
 2600 01c2 C91B     		subs	r1, r1, r7
 2601 01c4 18BF     		it	ne
 2602 01c6 0121     		movne	r1, #1
 2603 01c8 84F87110 		strb	r1, [r4, #113]
 2604              		.loc 1 406 0
 2605 01cc 9178     		ldrb	r1, [r2, #2]	@ zero_extendqisi2
 2606 01ce C91B     		subs	r1, r1, r7
 2607 01d0 18BF     		it	ne
 2608 01d2 0121     		movne	r1, #1
 2609 01d4 84F87210 		strb	r1, [r4, #114]
 2610              		.loc 1 407 0
 2611 01d8 D178     		ldrb	r1, [r2, #3]	@ zero_extendqisi2
 2612 01da C91B     		subs	r1, r1, r7
 2613 01dc 18BF     		it	ne
 2614 01de 0121     		movne	r1, #1
 2615 01e0 84F87310 		strb	r1, [r4, #115]
 2616              		.loc 1 408 0
 2617 01e4 1179     		ldrb	r1, [r2, #4]	@ zero_extendqisi2
 2618 01e6 C91B     		subs	r1, r1, r7
 2619 01e8 18BF     		it	ne
 2620 01ea 0121     		movne	r1, #1
 2621 01ec 84F87410 		strb	r1, [r4, #116]
 2622              		.loc 1 409 0
ARM GAS  /tmp/ccOR9P9P.s 			page 47


 2623 01f0 5279     		ldrb	r2, [r2, #5]	@ zero_extendqisi2
 2624 01f2 D21B     		subs	r2, r2, r7
 2625 01f4 18BF     		it	ne
 2626 01f6 0122     		movne	r2, #1
 2627 01f8 0633     		adds	r3, r3, #6
 2628 01fa 84F87520 		strb	r2, [r4, #117]
 2629              		.loc 1 410 0
 2630 01fe 3146     		mov	r1, r6
 2631 0200 2846     		mov	r0, r5
 2632              		.loc 1 409 0
 2633 0202 0193     		str	r3, [sp, #4]
 2634              		.loc 1 410 0
 2635 0204 FFF7FEFF 		bl	buffer_get_float32_auto
 2636              	.LVL258:
 2637              		.loc 1 411 0
 2638 0208 3146     		mov	r1, r6
 2639 020a 2846     		mov	r0, r5
 2640              		.loc 1 410 0
 2641 020c 84ED1E0A 		vstr.32	s0, [r4, #120]
 2642              		.loc 1 411 0
 2643 0210 FFF7FEFF 		bl	buffer_get_float32_auto
 2644              	.LVL259:
 2645              		.loc 1 412 0
 2646 0214 019B     		ldr	r3, [sp, #4]
 2647              		.loc 1 411 0
 2648 0216 84ED1F0A 		vstr.32	s0, [r4, #124]
 2649              		.loc 1 412 0
 2650 021a EA5C     		ldrb	r2, [r5, r3]	@ zero_extendqisi2
 2651 021c 84F88020 		strb	r2, [r4, #128]
 2652 0220 0133     		adds	r3, r3, #1
 2653              		.loc 1 413 0
 2654 0222 3146     		mov	r1, r6
 2655 0224 2846     		mov	r0, r5
 2656              		.loc 1 412 0
 2657 0226 0193     		str	r3, [sp, #4]
 2658              		.loc 1 413 0
 2659 0228 FFF7FEFF 		bl	buffer_get_float32_auto
 2660              	.LVL260:
 2661              		.loc 1 414 0
 2662 022c 3146     		mov	r1, r6
 2663 022e 2846     		mov	r0, r5
 2664              		.loc 1 413 0
 2665 0230 84ED210A 		vstr.32	s0, [r4, #132]
 2666              		.loc 1 414 0
 2667 0234 FFF7FEFF 		bl	buffer_get_float32_auto
 2668              	.LVL261:
 2669              		.loc 1 415 0
 2670 0238 019B     		ldr	r3, [sp, #4]
 2671              		.loc 1 414 0
 2672 023a 84ED220A 		vstr.32	s0, [r4, #136]
 2673              		.loc 1 415 0
 2674 023e EA5C     		ldrb	r2, [r5, r3]	@ zero_extendqisi2
 2675 0240 D21B     		subs	r2, r2, r7
 2676              		.loc 1 416 0
 2677 0242 05EB0301 		add	r1, r5, r3
 2678              		.loc 1 415 0
 2679 0246 18BF     		it	ne
ARM GAS  /tmp/ccOR9P9P.s 			page 48


 2680 0248 0122     		movne	r2, #1
 2681 024a 84F88C20 		strb	r2, [r4, #140]
 2682              		.loc 1 416 0
 2683 024e 4A78     		ldrb	r2, [r1, #1]	@ zero_extendqisi2
 2684 0250 D21B     		subs	r2, r2, r7
 2685 0252 18BF     		it	ne
 2686 0254 0122     		movne	r2, #1
 2687 0256 84F88D20 		strb	r2, [r4, #141]
 2688 025a 0233     		adds	r3, r3, #2
 2689              		.loc 1 417 0
 2690 025c 3146     		mov	r1, r6
 2691 025e 2846     		mov	r0, r5
 2692              		.loc 1 416 0
 2693 0260 0193     		str	r3, [sp, #4]
 2694              		.loc 1 417 0
 2695 0262 FFF7FEFF 		bl	buffer_get_float32_auto
 2696              	.LVL262:
 2697              		.loc 1 418 0
 2698 0266 3146     		mov	r1, r6
 2699              		.loc 1 417 0
 2700 0268 84ED240A 		vstr.32	s0, [r4, #144]
 2701              		.loc 1 418 0
 2702 026c 2846     		mov	r0, r5
 2703 026e FFF7FEFF 		bl	buffer_get_uint16
 2704              	.LVL263:
 2705              		.loc 1 419 0
 2706 0272 3146     		mov	r1, r6
 2707              		.loc 1 418 0
 2708 0274 C4F89400 		str	r0, [r4, #148]
 2709              		.loc 1 419 0
 2710 0278 2846     		mov	r0, r5
 2711 027a FFF7FEFF 		bl	buffer_get_uint32
 2712              	.LVL264:
 2713              		.loc 1 420 0
 2714 027e 019B     		ldr	r3, [sp, #4]
 2715              		.loc 1 419 0
 2716 0280 C4F89800 		str	r0, [r4, #152]
 2717              		.loc 1 420 0
 2718 0284 EA5C     		ldrb	r2, [r5, r3]	@ zero_extendqisi2
 2719 0286 84F89C20 		strb	r2, [r4, #156]
 2720 028a 0133     		adds	r3, r3, #1
 2721              		.loc 1 421 0
 2722 028c 3146     		mov	r1, r6
 2723 028e 2846     		mov	r0, r5
 2724              		.loc 1 420 0
 2725 0290 0193     		str	r3, [sp, #4]
 2726              		.loc 1 421 0
 2727 0292 FFF7FEFF 		bl	buffer_get_float32_auto
 2728              	.LVL265:
 2729              		.loc 1 422 0
 2730 0296 3146     		mov	r1, r6
 2731 0298 2846     		mov	r0, r5
 2732              		.loc 1 421 0
 2733 029a 84ED280A 		vstr.32	s0, [r4, #160]
 2734              		.loc 1 422 0
 2735 029e FFF7FEFF 		bl	buffer_get_float32_auto
 2736              	.LVL266:
ARM GAS  /tmp/ccOR9P9P.s 			page 49


 2737              		.loc 1 423 0
 2738 02a2 3146     		mov	r1, r6
 2739 02a4 2846     		mov	r0, r5
 2740              		.loc 1 422 0
 2741 02a6 84ED290A 		vstr.32	s0, [r4, #164]
 2742              		.loc 1 423 0
 2743 02aa FFF7FEFF 		bl	buffer_get_float32_auto
 2744              	.LVL267:
 2745              		.loc 1 424 0
 2746 02ae 3146     		mov	r1, r6
 2747 02b0 2846     		mov	r0, r5
 2748              		.loc 1 423 0
 2749 02b2 84ED2A0A 		vstr.32	s0, [r4, #168]
 2750              		.loc 1 424 0
 2751 02b6 FFF7FEFF 		bl	buffer_get_float32_auto
 2752              	.LVL268:
 2753              		.loc 1 425 0
 2754 02ba 3146     		mov	r1, r6
 2755 02bc 2846     		mov	r0, r5
 2756              		.loc 1 424 0
 2757 02be 84ED2B0A 		vstr.32	s0, [r4, #172]
 2758              		.loc 1 425 0
 2759 02c2 FFF7FEFF 		bl	buffer_get_float32_auto
 2760              	.LVL269:
 2761              		.loc 1 426 0
 2762 02c6 3146     		mov	r1, r6
 2763 02c8 2846     		mov	r0, r5
 2764              		.loc 1 425 0
 2765 02ca 84ED2C0A 		vstr.32	s0, [r4, #176]
 2766              		.loc 1 426 0
 2767 02ce FFF7FEFF 		bl	buffer_get_float32_auto
 2768              	.LVL270:
 2769              		.loc 1 427 0
 2770 02d2 019B     		ldr	r3, [sp, #4]
 2771              		.loc 1 426 0
 2772 02d4 84ED2D0A 		vstr.32	s0, [r4, #180]
 2773              		.loc 1 427 0
 2774 02d8 EA5C     		ldrb	r2, [r5, r3]	@ zero_extendqisi2
 2775 02da 84F8B820 		strb	r2, [r4, #184]
 2776              		.loc 1 428 0
 2777 02de E818     		adds	r0, r5, r3
 2778              		.loc 1 430 0
 2779 02e0 3146     		mov	r1, r6
 2780              		.loc 1 428 0
 2781 02e2 4278     		ldrb	r2, [r0, #1]	@ zero_extendqisi2
 2782 02e4 D21B     		subs	r2, r2, r7
 2783 02e6 18BF     		it	ne
 2784 02e8 0122     		movne	r2, #1
 2785 02ea 84F8B920 		strb	r2, [r4, #185]
 2786              		.loc 1 429 0
 2787 02ee 8278     		ldrb	r2, [r0, #2]	@ zero_extendqisi2
 2788 02f0 D21B     		subs	r2, r2, r7
 2789 02f2 18BF     		it	ne
 2790 02f4 0122     		movne	r2, #1
 2791 02f6 0333     		adds	r3, r3, #3
 2792 02f8 84F8BA20 		strb	r2, [r4, #186]
 2793              		.loc 1 430 0
ARM GAS  /tmp/ccOR9P9P.s 			page 50


 2794 02fc 2846     		mov	r0, r5
 2795              		.loc 1 429 0
 2796 02fe 0193     		str	r3, [sp, #4]
 2797              		.loc 1 430 0
 2798 0300 FFF7FEFF 		bl	buffer_get_float32_auto
 2799              	.LVL271:
 2800              		.loc 1 431 0
 2801 0304 019B     		ldr	r3, [sp, #4]
 2802              		.loc 1 430 0
 2803 0306 84ED2F0A 		vstr.32	s0, [r4, #188]
 2804              		.loc 1 431 0
 2805 030a EA5C     		ldrb	r2, [r5, r3]	@ zero_extendqisi2
 2806 030c 84F8C020 		strb	r2, [r4, #192]
 2807              		.loc 1 432 0
 2808 0310 1D44     		add	r5, r5, r3
 2809              	.LVL272:
 2810              		.loc 1 442 0
 2811 0312 0120     		movs	r0, #1
 2812              		.loc 1 432 0
 2813 0314 6B78     		ldrb	r3, [r5, #1]	@ zero_extendqisi2
 2814 0316 84F8C130 		strb	r3, [r4, #193]
 2815              		.loc 1 433 0
 2816 031a AB78     		ldrb	r3, [r5, #2]	@ zero_extendqisi2
 2817 031c 84F8C230 		strb	r3, [r4, #194]
 2818              		.loc 1 434 0
 2819 0320 EB78     		ldrb	r3, [r5, #3]	@ zero_extendqisi2
 2820 0322 84F8C330 		strb	r3, [r4, #195]
 2821              		.loc 1 435 0
 2822 0326 2B79     		ldrb	r3, [r5, #4]	@ zero_extendqisi2
 2823 0328 84F8C430 		strb	r3, [r4, #196]
 2824              		.loc 1 436 0
 2825 032c 6B79     		ldrb	r3, [r5, #5]	@ zero_extendqisi2
 2826 032e 84F8C530 		strb	r3, [r4, #197]
 2827              		.loc 1 437 0
 2828 0332 AB79     		ldrb	r3, [r5, #6]	@ zero_extendqisi2
 2829 0334 84F8C630 		strb	r3, [r4, #198]
 2830              		.loc 1 438 0
 2831 0338 EB79     		ldrb	r3, [r5, #7]	@ zero_extendqisi2
 2832 033a 84F8C730 		strb	r3, [r4, #199]
 2833              		.loc 1 439 0
 2834 033e 2B7A     		ldrb	r3, [r5, #8]	@ zero_extendqisi2
 2835 0340 84F8C830 		strb	r3, [r4, #200]
 2836              		.loc 1 440 0
 2837 0344 6B7A     		ldrb	r3, [r5, #9]	@ zero_extendqisi2
 2838 0346 DB1B     		subs	r3, r3, r7
 2839 0348 18BF     		it	ne
 2840 034a 0123     		movne	r3, #1
 2841 034c 84F8C930 		strb	r3, [r4, #201]
 2842              		.loc 1 443 0
 2843 0350 03B0     		add	sp, sp, #12
 2844              		.cfi_def_cfa_offset 20
 2845              		@ sp needed
 2846 0352 F0BD     		pop	{r4, r5, r6, r7, pc}
 2847              		.cfi_endproc
 2848              	.LFE222:
 2849              		.size	confgenerator_deserialize_appconf, .-confgenerator_deserialize_appconf
 2850              		.section	.text.confgenerator_set_defaults_mcconf,"ax",%progbits
ARM GAS  /tmp/ccOR9P9P.s 			page 51


 2851              		.align	1
 2852              		.p2align 4,,15
 2853              		.global	confgenerator_set_defaults_mcconf
 2854              		.syntax unified
 2855              		.thumb
 2856              		.thumb_func
 2857              		.fpu fpv4-sp-d16
 2858              		.type	confgenerator_set_defaults_mcconf, %function
 2859              	confgenerator_set_defaults_mcconf:
 2860              	.LFB223:
 2861              		.loc 1 445 0
 2862              		.cfi_startproc
 2863              		@ args = 0, pretend = 0, frame = 0
 2864              		@ frame_needed = 0, uses_anonymous_args = 0
 2865              	.LVL273:
 2866 0000 2DE9F041 		push	{r4, r5, r6, r7, r8, lr}
 2867              		.cfi_def_cfa_offset 24
 2868              		.cfi_offset 4, -24
 2869              		.cfi_offset 5, -20
 2870              		.cfi_offset 6, -16
 2871              		.cfi_offset 7, -12
 2872              		.cfi_offset 8, -8
 2873              		.cfi_offset 14, -4
 2874              		.loc 1 450 0
 2875 0004 9749     		ldr	r1, .L27
 2876              		.loc 1 452 0
 2877 0006 984A     		ldr	r2, .L27+4
 2878              		.loc 1 457 0
 2879 0008 984B     		ldr	r3, .L27+8
 2880              		.loc 1 459 0
 2881 000a 994C     		ldr	r4, .L27+12
 2882              		.loc 1 455 0
 2883 000c 994E     		ldr	r6, .L27+16
 2884              		.loc 1 458 0
 2885 000e 9A4D     		ldr	r5, .L27+20
 2886              		.loc 1 450 0
 2887 0010 4160     		str	r1, [r0, #4]	@ float
 2888              		.loc 1 452 0
 2889 0012 C260     		str	r2, [r0, #12]	@ float
 2890              		.loc 1 448 0
 2891 0014 0221     		movs	r1, #2
 2892              		.loc 1 469 0
 2893 0016 994A     		ldr	r2, .L27+24
 2894              		.loc 1 457 0
 2895 0018 0362     		str	r3, [r0, #32]	@ float
 2896              		.loc 1 459 0
 2897 001a 8462     		str	r4, [r0, #40]	@ float
 2898              		.loc 1 472 0
 2899 001c 984B     		ldr	r3, .L27+28
 2900              		.loc 1 451 0
 2901 001e 994C     		ldr	r4, .L27+32
 2902              		.loc 1 456 0
 2903 0020 994F     		ldr	r7, .L27+36
 2904              		.loc 1 448 0
 2905 0022 8170     		strb	r1, [r0, #2]
 2906              		.loc 1 455 0
 2907 0024 8661     		str	r6, [r0, #24]	@ float
ARM GAS  /tmp/ccOR9P9P.s 			page 52


 2908              		.loc 1 461 0
 2909 0026 9949     		ldr	r1, .L27+40
 2910              		.loc 1 470 0
 2911 0028 994E     		ldr	r6, .L27+44
 2912              		.loc 1 458 0
 2913 002a 4562     		str	r5, [r0, #36]	@ float
 2914              		.loc 1 469 0
 2915 002c 0265     		str	r2, [r0, #80]	@ float
 2916              		.loc 1 473 0
 2917 002e 994D     		ldr	r5, .L27+48
 2918              		.loc 1 465 0
 2919 0030 994A     		ldr	r2, .L27+52
 2920              		.loc 1 472 0
 2921 0032 C365     		str	r3, [r0, #92]	@ float
 2922              		.loc 1 451 0
 2923 0034 8460     		str	r4, [r0, #8]	@ float
 2924              		.loc 1 476 0
 2925 0036 994B     		ldr	r3, .L27+56
 2926              		.loc 1 453 0
 2927 0038 0461     		str	r4, [r0, #16]	@ float
 2928              		.loc 1 460 0
 2929 003a 4FF08244 		mov	r4, #1090519040
 2930              		.loc 1 456 0
 2931 003e C761     		str	r7, [r0, #28]	@ float
 2932              		.loc 1 461 0
 2933 0040 0163     		str	r1, [r0, #48]	@ float
 2934              		.loc 1 471 0
 2935 0042 974F     		ldr	r7, .L27+60
 2936              		.loc 1 454 0
 2937 0044 9749     		ldr	r1, .L27+64
 2938              		.loc 1 470 0
 2939 0046 4665     		str	r6, [r0, #84]	@ float
 2940              		.loc 1 473 0
 2941 0048 0566     		str	r5, [r0, #96]	@ float
 2942              		.loc 1 466 0
 2943 004a 974E     		ldr	r6, .L27+68
 2944              		.loc 1 476 0
 2945 004c C0F88430 		str	r3, [r0, #132]
 2946              		.loc 1 446 0
 2947 0050 0125     		movs	r5, #1
 2948              		.loc 1 447 0
 2949 0052 0023     		movs	r3, #0
 2950              		.loc 1 460 0
 2951 0054 C462     		str	r4, [r0, #44]	@ float
 2952              		.loc 1 463 0
 2953 0056 8463     		str	r4, [r0, #56]	@ float
 2954              		.loc 1 465 0
 2955 0058 0264     		str	r2, [r0, #64]	@ float
 2956              		.loc 1 462 0
 2957 005a 944C     		ldr	r4, .L27+72
 2958              		.loc 1 467 0
 2959 005c 8264     		str	r2, [r0, #72]	@ float
 2960              		.loc 1 474 0
 2961 005e 4FF07E52 		mov	r2, #1065353216
 2962              		.loc 1 471 0
 2963 0062 8765     		str	r7, [r0, #88]	@ float
 2964              		.loc 1 446 0
ARM GAS  /tmp/ccOR9P9P.s 			page 53


 2965 0064 0570     		strb	r5, [r0]
 2966              		.loc 1 464 0
 2967 0066 80F83C50 		strb	r5, [r0, #60]
 2968              		.loc 1 447 0
 2969 006a 4370     		strb	r3, [r0, #1]
 2970              		.loc 1 449 0
 2971 006c C370     		strb	r3, [r0, #3]
 2972              		.loc 1 496 0
 2973 006e 80F8C030 		strb	r3, [r0, #192]
 2974              		.loc 1 454 0
 2975 0072 4161     		str	r1, [r0, #20]	@ float
 2976              		.loc 1 462 0
 2977 0074 4463     		str	r4, [r0, #52]	@ float
 2978              		.loc 1 466 0
 2979 0076 4664     		str	r6, [r0, #68]	@ float
 2980              		.loc 1 468 0
 2981 0078 C664     		str	r6, [r0, #76]	@ float
 2982              		.loc 1 474 0
 2983 007a 4266     		str	r2, [r0, #100]	@ float
 2984              		.loc 1 475 0
 2985 007c 8266     		str	r2, [r0, #104]	@ float
 2986              		.loc 1 514 0
 2987 007e C0F80011 		str	r1, [r0, #256]	@ float
 2988              		.loc 1 477 0
 2989 0082 8A49     		ldr	r1, .L27+72
 2990              		.loc 1 476 0
 2991 0084 8A4E     		ldr	r6, .L27+76
 2992              		.loc 1 477 0
 2993 0086 C0F88C10 		str	r1, [r0, #140]
 2994              		.loc 1 478 0
 2995 008a 01F1AC71 		add	r1, r1, #22544384
 2996              		.loc 1 476 0
 2997 008e C0F88860 		str	r6, [r0, #136]
 2998              		.loc 1 478 0
 2999 0092 C0F89010 		str	r1, [r0, #144]
 3000              		.loc 1 480 0
 3001 0096 754E     		ldr	r6, .L27+8
 3002 0098 8649     		ldr	r1, .L27+80
 3003              		.loc 1 482 0
 3004 009a 874F     		ldr	r7, .L27+84
 3005              		.loc 1 490 0
 3006 009c DFF88C82 		ldr	r8, .L27+200
 3007              		.loc 1 512 0
 3008 00a0 C0F8F840 		str	r4, [r0, #248]	@ float
 3009              		.loc 1 480 0
 3010 00a4 C0E92561 		strd	r6, r1, [r0, #148]
 3011              		.loc 1 482 0
 3012 00a8 8449     		ldr	r1, .L27+88
 3013              		.loc 1 492 0
 3014 00aa 854E     		ldr	r6, .L27+92
 3015              		.loc 1 507 0
 3016 00ac 854C     		ldr	r4, .L27+96
 3017              		.loc 1 505 0
 3018 00ae DFF818E2 		ldr	lr, .L27+100
 3019              		.loc 1 506 0
 3020 00b2 DFF87CC2 		ldr	ip, .L27+204
 3021              		.loc 1 507 0
ARM GAS  /tmp/ccOR9P9P.s 			page 54


 3022 00b6 C0F8DC40 		str	r4, [r0, #220]	@ float
 3023              		.loc 1 482 0
 3024 00ba C0E92771 		strd	r7, r1, [r0, #156]
 3025              		.loc 1 490 0
 3026 00be 8249     		ldr	r1, .L27+100
 3027              		.loc 1 508 0
 3028 00c0 824F     		ldr	r7, .L27+104
 3029              		.loc 1 511 0
 3030 00c2 834C     		ldr	r4, .L27+108
 3031              		.loc 1 508 0
 3032 00c4 C0F8E070 		str	r7, [r0, #224]	@ float
 3033              		.loc 1 490 0
 3034 00c8 C0E92981 		strd	r8, r1, [r0, #164]
 3035              		.loc 1 492 0
 3036 00cc 8149     		ldr	r1, .L27+112
 3037              		.loc 1 513 0
 3038 00ce 824F     		ldr	r7, .L27+116
 3039              		.loc 1 499 0
 3040 00d0 C0F8CC20 		str	r2, [r0, #204]	@ float
 3041              		.loc 1 492 0
 3042 00d4 C0E92B61 		strd	r6, r1, [r0, #172]
 3043              		.loc 1 493 0
 3044 00d8 8049     		ldr	r1, .L27+120
 3045 00da C0F8B410 		str	r1, [r0, #180]
 3046              		.loc 1 494 0
 3047 00de 01F17741 		add	r1, r1, #-150994944
 3048 00e2 01F5F221 		add	r1, r1, #495616
 3049 00e6 01F20A71 		addw	r1, r1, #1802
 3050 00ea C0F8B810 		str	r1, [r0, #184]
 3051              		.loc 1 495 0
 3052 00ee 7C49     		ldr	r1, .L27+124
 3053 00f0 C0F8BC10 		str	r1, [r0, #188]
 3054              		.loc 1 509 0
 3055 00f4 7B4E     		ldr	r6, .L27+128
 3056              		.loc 1 498 0
 3057 00f6 7C49     		ldr	r1, .L27+132
 3058 00f8 C0F8C410 		str	r1, [r0, #196]	@ float
 3059              		.loc 1 509 0
 3060 00fc C0F8E460 		str	r6, [r0, #228]	@ float
 3061              		.loc 1 510 0
 3062 0100 7A49     		ldr	r1, .L27+136
 3063              		.loc 1 501 0
 3064 0102 7B4E     		ldr	r6, .L27+140
 3065              		.loc 1 510 0
 3066 0104 C0F8E810 		str	r1, [r0, #232]	@ float
 3067              		.loc 1 501 0
 3068 0108 C0F8C860 		str	r6, [r0, #200]	@ float
 3069              		.loc 1 515 0
 3070 010c 7949     		ldr	r1, .L27+144
 3071              		.loc 1 502 0
 3072 010e C0F8D060 		str	r6, [r0, #208]	@ float
 3073              		.loc 1 503 0
 3074 0112 4FF07C56 		mov	r6, #1056964608
 3075              		.loc 1 500 0
 3076 0116 C0F8D420 		str	r2, [r0, #212]	@ float
 3077              		.loc 1 504 0
 3078 011a 80F81431 		strb	r3, [r0, #276]
ARM GAS  /tmp/ccOR9P9P.s 			page 55


 3079              		.loc 1 505 0
 3080 011e C0F8F0E0 		str	lr, [r0, #240]	@ float
 3081              		.loc 1 506 0
 3082 0122 C0F8F4C0 		str	ip, [r0, #244]	@ float
 3083              		.loc 1 511 0
 3084 0126 C0F8EC40 		str	r4, [r0, #236]	@ float
 3085              		.loc 1 513 0
 3086 012a C0F8FC70 		str	r7, [r0, #252]	@ float
 3087              		.loc 1 503 0
 3088 012e C0F8D860 		str	r6, [r0, #216]	@ float
 3089              		.loc 1 515 0
 3090 0132 C0F80411 		str	r1, [r0, #260]	@ float
 3091              		.loc 1 516 0
 3092 0136 C0F80811 		str	r1, [r0, #264]	@ float
 3093              		.loc 1 549 0
 3094 013a C0F87421 		str	r2, [r0, #372]	@ float
 3095              		.loc 1 532 0
 3096 013e 6E4A     		ldr	r2, .L27+148
 3097 0140 C0F83021 		str	r2, [r0, #304]	@ float
 3098              		.loc 1 517 0
 3099 0144 0024     		movs	r4, #0
 3100              		.loc 1 534 0
 3101 0146 C822     		movs	r2, #200
 3102              		.loc 1 538 0
 3103 0148 624F     		ldr	r7, .L27+112
 3104              		.loc 1 517 0
 3105 014a C0F80C41 		str	r4, [r0, #268]	@ float
 3106              		.loc 1 518 0
 3107 014e C0F81041 		str	r4, [r0, #272]	@ float
 3108              		.loc 1 530 0
 3109 0152 C0F82841 		str	r4, [r0, #296]	@ float
 3110              		.loc 1 544 0
 3111 0156 80F86051 		strb	r5, [r0, #352]
 3112              		.loc 1 546 0
 3113 015a C0F86841 		str	r4, [r0, #360]	@ float
 3114              		.loc 1 541 0
 3115 015e 674D     		ldr	r5, .L27+152
 3116              		.loc 1 543 0
 3117 0160 674C     		ldr	r4, .L27+156
 3118              		.loc 1 534 0
 3119 0162 C0F83821 		str	r2, [r0, #312]
 3120              		.loc 1 547 0
 3121 0166 674A     		ldr	r2, .L27+160
 3122              		.loc 1 527 0
 3123 0168 DFF8C8C1 		ldr	ip, .L27+208
 3124              		.loc 1 538 0
 3125 016c C0F84871 		str	r7, [r0, #328]	@ float
 3126              		.loc 1 541 0
 3127 0170 C0F85451 		str	r5, [r0, #340]	@ float
 3128              		.loc 1 537 0
 3129 0174 524F     		ldr	r7, .L27+92
 3130              		.loc 1 539 0
 3131 0176 644D     		ldr	r5, .L27+164
 3132              		.loc 1 543 0
 3133 0178 C0F85C41 		str	r4, [r0, #348]	@ float
 3134              		.loc 1 547 0
 3135 017c C0F86C21 		str	r2, [r0, #364]	@ float
ARM GAS  /tmp/ccOR9P9P.s 			page 56


 3136              		.loc 1 542 0
 3137 0180 624C     		ldr	r4, .L27+168
 3138              		.loc 1 528 0
 3139 0182 80F82431 		strb	r3, [r0, #292]
 3140              		.loc 1 519 0
 3141 0186 FF22     		movs	r2, #255
 3142              		.loc 1 529 0
 3143 0188 80F82531 		strb	r3, [r0, #293]
 3144              		.loc 1 531 0
 3145 018c 80F82C31 		strb	r3, [r0, #300]
 3146              		.loc 1 533 0
 3147 0190 C0F83411 		str	r1, [r0, #308]	@ float
 3148              		.loc 1 535 0
 3149 0194 C0F83C31 		str	r3, [r0, #316]
 3150              		.loc 1 536 0
 3151 0198 C0F84011 		str	r1, [r0, #320]	@ float
 3152              		.loc 1 527 0
 3153 019c C0F820C1 		str	ip, [r0, #288]	@ float
 3154              		.loc 1 519 0
 3155 01a0 80F81521 		strb	r2, [r0, #277]
 3156              		.loc 1 520 0
 3157 01a4 80F81621 		strb	r2, [r0, #278]
 3158              		.loc 1 521 0
 3159 01a8 80F81721 		strb	r2, [r0, #279]
 3160              		.loc 1 522 0
 3161 01ac 80F81821 		strb	r2, [r0, #280]
 3162              		.loc 1 523 0
 3163 01b0 80F81921 		strb	r2, [r0, #281]
 3164              		.loc 1 524 0
 3165 01b4 80F81A21 		strb	r2, [r0, #282]
 3166              		.loc 1 525 0
 3167 01b8 80F81B21 		strb	r2, [r0, #283]
 3168              		.loc 1 526 0
 3169 01bc 80F81C21 		strb	r2, [r0, #284]
 3170              		.loc 1 537 0
 3171 01c0 C0F84471 		str	r7, [r0, #324]	@ float
 3172              		.loc 1 545 0
 3173 01c4 C0F86471 		str	r7, [r0, #356]	@ float
 3174              		.loc 1 539 0
 3175 01c8 C0F84C51 		str	r5, [r0, #332]	@ float
 3176              		.loc 1 540 0
 3177 01cc C0F85051 		str	r5, [r0, #336]	@ float
 3178              		.loc 1 542 0
 3179 01d0 C0F85841 		str	r4, [r0, #344]	@ float
 3180              		.loc 1 548 0
 3181 01d4 C0F87041 		str	r4, [r0, #368]	@ float
 3182              		.loc 1 558 0
 3183 01d8 80F89831 		strb	r3, [r0, #408]
 3184              		.loc 1 559 0
 3185 01dc 80F89931 		strb	r3, [r0, #409]
 3186              		.loc 1 560 0
 3187 01e0 80F89A31 		strb	r3, [r0, #410]
 3188              		.loc 1 566 0
 3189 01e4 80F8B031 		strb	r3, [r0, #432]
 3190              		.loc 1 570 0
 3191 01e8 80F8BC31 		strb	r3, [r0, #444]
 3192              		.loc 1 554 0
ARM GAS  /tmp/ccOR9P9P.s 			page 57


 3193 01ec 4FF4FA73 		mov	r3, #500
 3194              		.loc 1 550 0
 3195 01f0 DFF844C1 		ldr	ip, .L27+212
 3196              		.loc 1 555 0
 3197 01f4 464D     		ldr	r5, .L27+172
 3198              		.loc 1 562 0
 3199 01f6 474A     		ldr	r2, .L27+176
 3200              		.loc 1 554 0
 3201 01f8 C0F88831 		str	r3, [r0, #392]
 3202              		.loc 1 557 0
 3203 01fc 4FF40054 		mov	r4, #8192
 3204              		.loc 1 561 0
 3205 0200 1023     		movs	r3, #16
 3206              		.loc 1 552 0
 3207 0202 DFF83881 		ldr	r8, .L27+216
 3208              		.loc 1 553 0
 3209 0206 DFF838E1 		ldr	lr, .L27+220
 3210              		.loc 1 550 0
 3211 020a C0F878C1 		str	ip, [r0, #376]	@ float
 3212              		.loc 1 551 0
 3213 020e C0F87C11 		str	r1, [r0, #380]	@ float
 3214              		.loc 1 563 0
 3215 0212 DFF830C1 		ldr	ip, .L27+224
 3216              		.loc 1 556 0
 3217 0216 C0F89061 		str	r6, [r0, #400]	@ float
 3218              		.loc 1 564 0
 3219 021a 3F4F     		ldr	r7, .L27+180
 3220              		.loc 1 565 0
 3221 021c 3F4E     		ldr	r6, .L27+184
 3222              		.loc 1 569 0
 3223 021e 4049     		ldr	r1, .L27+188
 3224              		.loc 1 555 0
 3225 0220 C0F88C51 		str	r5, [r0, #396]	@ float
 3226              		.loc 1 557 0
 3227 0224 C0F89441 		str	r4, [r0, #404]
 3228              		.loc 1 567 0
 3229 0228 0E25     		movs	r5, #14
 3230              		.loc 1 561 0
 3231 022a C0F89C31 		str	r3, [r0, #412]
 3232              		.loc 1 568 0
 3233 022e 3D4C     		ldr	r4, .L27+192
 3234              		.loc 1 562 0
 3235 0230 C0F8A021 		str	r2, [r0, #416]	@ float
 3236              		.loc 1 572 0
 3237 0234 3C4B     		ldr	r3, .L27+196
 3238              		.loc 1 552 0
 3239 0236 C0F88081 		str	r8, [r0, #384]	@ float
 3240              		.loc 1 571 0
 3241 023a 0322     		movs	r2, #3
 3242              		.loc 1 553 0
 3243 023c C0F884E1 		str	lr, [r0, #388]	@ float
 3244              		.loc 1 563 0
 3245 0240 C0F8A4C1 		str	ip, [r0, #420]	@ float
 3246              		.loc 1 564 0
 3247 0244 C0F8A871 		str	r7, [r0, #424]	@ float
 3248              		.loc 1 565 0
 3249 0248 C0F8AC61 		str	r6, [r0, #428]	@ float
ARM GAS  /tmp/ccOR9P9P.s 			page 58


 3250              		.loc 1 567 0
 3251 024c 80F8B151 		strb	r5, [r0, #433]
 3252              		.loc 1 568 0
 3253 0250 C0F8B441 		str	r4, [r0, #436]	@ float
 3254              		.loc 1 569 0
 3255 0254 C0F8B811 		str	r1, [r0, #440]	@ float
 3256              		.loc 1 571 0
 3257 0258 C0F8C021 		str	r2, [r0, #448]
 3258              		.loc 1 572 0
 3259 025c C0F8C431 		str	r3, [r0, #452]	@ float
 3260              		.loc 1 573 0
 3261 0260 BDE8F081 		pop	{r4, r5, r6, r7, r8, pc}
 3262              	.L28:
 3263              		.align	2
 3264              	.L27:
 3265 0264 00007042 		.word	1114636288
 3266 0268 0000C642 		.word	1120272384
 3267 026c CDCC4C3F 		.word	1061997773
 3268 0270 0080BB44 		.word	1153138688
 3269 0274 0050C3C7 		.word	-943501312
 3270 0278 00009643 		.word	1133903872
 3271 027c 9A99193E 		.word	1041865114
 3272 0280 001BB749 		.word	1236736768
 3273 0284 000070C2 		.word	-1032847360
 3274 0288 0050C347 		.word	1203982336
 3275 028c 00006442 		.word	1113849856
 3276 0290 0AD7A33B 		.word	1000593162
 3277 0294 001BB7C9 		.word	-910746880
 3278 0298 0000AA42 		.word	1118437376
 3279 029c 00001643 		.word	1125515264
 3280 02a0 3333733F 		.word	1064514355
 3281 02a4 0000C843 		.word	1137180672
 3282 02a8 0000C842 		.word	1120403456
 3283 02ac 00002041 		.word	1092616192
 3284 02b0 00808944 		.word	1149861888
 3285 02b4 00409C47 		.word	1201422336
 3286 02b8 00001644 		.word	1142292480
 3287 02bc FF010302 		.word	33751551
 3288 02c0 8FC2F53C 		.word	1022739087
 3289 02c4 8BE1EA36 		.word	921362827
 3290 02c8 0000FA44 		.word	1157234688
 3291 02cc 8FC2753C 		.word	1014350479
 3292 02d0 9A99993E 		.word	1050253722
 3293 02d4 00004842 		.word	1112014848
 3294 02d8 00004843 		.word	1128792064
 3295 02dc 00409C46 		.word	1184645120
 3296 02e0 00003443 		.word	1127481344
 3297 02e4 2E90203B 		.word	991989806
 3298 02e8 0000E040 		.word	1088421888
 3299 02ec 50A9AB4C 		.word	1286318416
 3300 02f0 3333D33F 		.word	1070805811
 3301 02f4 CDCCCC3D 		.word	1036831949
 3302 02f8 0000C841 		.word	1103626240
 3303 02fc 17B7D138 		.word	953267991
 3304 0300 00006144 		.word	1147207680
 3305 0304 17B7D139 		.word	970045207
 3306 0308 6F12833B 		.word	998445679
ARM GAS  /tmp/ccOR9P9P.s 			page 59


 3307 030c CDCC4C3E 		.word	1045220557
 3308 0310 0AD7A33C 		.word	1017370378
 3309 0314 00803B45 		.word	1161527296
 3310 0318 0050C346 		.word	1187205120
 3311 031c 00405345 		.word	1163083776
 3312 0320 E7FBA93D 		.word	1034550247
 3313 0324 00004040 		.word	1077936128
 3314 0328 0000C040 		.word	1086324736
 3315 032c 050604FF 		.word	-16513531
 3316 0330 0060EA46 		.word	1189765120
 3317 0334 00401C45 		.word	1159479296
 3318 0338 0AD7233C 		.word	1008981770
 3319 033c 99BB963B 		.word	999734169
 3320 0340 0AD7233D 		.word	1025758986
 3321 0344 00B80847 		.word	1191753728
 3322              		.cfi_endproc
 3323              	.LFE223:
 3324              		.size	confgenerator_set_defaults_mcconf, .-confgenerator_set_defaults_mcconf
 3325              		.section	.text.confgenerator_set_defaults_appconf,"ax",%progbits
 3326              		.align	1
 3327              		.p2align 4,,15
 3328              		.global	confgenerator_set_defaults_appconf
 3329              		.syntax unified
 3330              		.thumb
 3331              		.thumb_func
 3332              		.fpu fpv4-sp-d16
 3333              		.type	confgenerator_set_defaults_appconf, %function
 3334              	confgenerator_set_defaults_appconf:
 3335              	.LFB224:
 3336              		.loc 1 575 0
 3337              		.cfi_startproc
 3338              		@ args = 0, pretend = 0, frame = 0
 3339              		@ frame_needed = 0, uses_anonymous_args = 0
 3340              	.LVL274:
 3341 0000 2DE9F047 		push	{r4, r5, r6, r7, r8, r9, r10, lr}
 3342              		.cfi_def_cfa_offset 32
 3343              		.cfi_offset 4, -32
 3344              		.cfi_offset 5, -28
 3345              		.cfi_offset 6, -24
 3346              		.cfi_offset 7, -20
 3347              		.cfi_offset 8, -16
 3348              		.cfi_offset 9, -12
 3349              		.cfi_offset 10, -8
 3350              		.cfi_offset 14, -4
 3351              		.loc 1 575 0
 3352 0004 0446     		mov	r4, r0
 3353              		.loc 1 576 0
 3354 0006 FFF7FEFF 		bl	hw_id_from_uuid
 3355              	.LVL275:
 3356              		.loc 1 592 0
 3357 000a 4FF07F59 		mov	r9, #1069547520
 3358              		.loc 1 588 0
 3359 000e 484A     		ldr	r2, .L31
 3360              		.loc 1 576 0
 3361 0010 2070     		strb	r0, [r4]
 3362              		.loc 1 577 0
 3363 0012 4FF47A73 		mov	r3, #1000
ARM GAS  /tmp/ccOR9P9P.s 			page 60


 3364              		.loc 1 580 0
 3365 0016 3220     		movs	r0, #50
 3366              		.loc 1 590 0
 3367 0018 4FF07E5E 		mov	lr, #1065353216
 3368              		.loc 1 592 0
 3369 001c C4F83090 		str	r9, [r4, #48]	@ float
 3370              		.loc 1 591 0
 3371 0020 4FF08049 		mov	r9, #1073741824
 3372              		.loc 1 578 0
 3373 0024 0021     		movs	r1, #0
 3374              		.loc 1 602 0
 3375 0026 434D     		ldr	r5, .L31+4
 3376              		.loc 1 589 0
 3377 0028 DFF814C1 		ldr	ip, .L31+16
 3378              		.loc 1 598 0
 3379 002c 424E     		ldr	r6, .L31+8
 3380              		.loc 1 599 0
 3381 002e DFF81481 		ldr	r8, .L31+20
 3382              		.loc 1 605 0
 3383 0032 424F     		ldr	r7, .L31+12
 3384              		.loc 1 577 0
 3385 0034 6360     		str	r3, [r4, #4]
 3386              		.loc 1 580 0
 3387 0036 2061     		str	r0, [r4, #16]
 3388              		.loc 1 579 0
 3389 0038 0023     		movs	r3, #0
 3390              		.loc 1 581 0
 3391 003a 0220     		movs	r0, #2
 3392              		.loc 1 588 0
 3393 003c 2262     		str	r2, [r4, #32]	@ float
 3394              		.loc 1 590 0
 3395 003e C4F828E0 		str	lr, [r4, #40]	@ float
 3396              		.loc 1 583 0
 3397 0042 0122     		movs	r2, #1
 3398              		.loc 1 586 0
 3399 0044 4FF0030E 		mov	lr, #3
 3400              		.loc 1 591 0
 3401 0048 C4F82C90 		str	r9, [r4, #44]	@ float
 3402              		.loc 1 607 0
 3403 004c C4F86490 		str	r9, [r4, #100]	@ float
 3404              		.loc 1 606 0
 3405 0050 DFF8F490 		ldr	r9, .L31+24
 3406              		.loc 1 599 0
 3407 0054 C4F84880 		str	r8, [r4, #72]	@ float
 3408              		.loc 1 606 0
 3409 0058 C4F86090 		str	r9, [r4, #96]	@ float
 3410              		.loc 1 641 0
 3411 005c DFF8ECA0 		ldr	r10, .L31+28
 3412              		.loc 1 578 0
 3413 0060 A160     		str	r1, [r4, #8]	@ float
 3414              		.loc 1 595 0
 3415 0062 A163     		str	r1, [r4, #56]	@ float
 3416              		.loc 1 596 0
 3417 0064 E163     		str	r1, [r4, #60]	@ float
 3418              		.loc 1 579 0
 3419 0066 2373     		strb	r3, [r4, #12]
 3420              		.loc 1 582 0
ARM GAS  /tmp/ccOR9P9P.s 			page 61


 3421 0068 6375     		strb	r3, [r4, #21]
 3422              		.loc 1 584 0
 3423 006a E375     		strb	r3, [r4, #23]
 3424              		.loc 1 585 0
 3425 006c 2376     		strb	r3, [r4, #24]
 3426              		.loc 1 587 0
 3427 006e 2377     		strb	r3, [r4, #28]
 3428              		.loc 1 601 0
 3429 0070 84F84D30 		strb	r3, [r4, #77]
 3430              		.loc 1 603 0
 3431 0074 84F85430 		strb	r3, [r4, #84]
 3432              		.loc 1 581 0
 3433 0078 2075     		strb	r0, [r4, #20]
 3434              		.loc 1 597 0
 3435 007a 84F84000 		strb	r0, [r4, #64]
 3436              		.loc 1 583 0
 3437 007e A275     		strb	r2, [r4, #22]
 3438              		.loc 1 593 0
 3439 0080 84F83420 		strb	r2, [r4, #52]
 3440              		.loc 1 594 0
 3441 0084 84F83520 		strb	r2, [r4, #53]
 3442              		.loc 1 600 0
 3443 0088 84F84C20 		strb	r2, [r4, #76]
 3444              		.loc 1 586 0
 3445 008c 84F819E0 		strb	lr, [r4, #25]
 3446              		.loc 1 589 0
 3447 0090 C4F824C0 		str	ip, [r4, #36]	@ float
 3448              		.loc 1 604 0
 3449 0094 C4F858C0 		str	ip, [r4, #88]	@ float
 3450              		.loc 1 598 0
 3451 0098 6664     		str	r6, [r4, #68]	@ float
 3452              		.loc 1 602 0
 3453 009a 2565     		str	r5, [r4, #80]	@ float
 3454              		.loc 1 605 0
 3455 009c E765     		str	r7, [r4, #92]	@ float
 3456              		.loc 1 608 0
 3457 009e A766     		str	r7, [r4, #104]	@ float
 3458              		.loc 1 609 0
 3459 00a0 C4F86C90 		str	r9, [r4, #108]	@ float
 3460              		.loc 1 620 0
 3461 00a4 C4F88880 		str	r8, [r4, #136]	@ float
 3462              		.loc 1 624 0
 3463 00a8 4FF4FA79 		mov	r9, #500
 3464              		.loc 1 625 0
 3465 00ac 4FF4E138 		mov	r8, #115200
 3466              		.loc 1 610 0
 3467 00b0 84F87020 		strb	r2, [r4, #112]
 3468              		.loc 1 611 0
 3469 00b4 84F87120 		strb	r2, [r4, #113]
 3470              		.loc 1 612 0
 3471 00b8 84F87230 		strb	r3, [r4, #114]
 3472              		.loc 1 613 0
 3473 00bc 84F87330 		strb	r3, [r4, #115]
 3474              		.loc 1 614 0
 3475 00c0 84F87430 		strb	r3, [r4, #116]
 3476              		.loc 1 615 0
 3477 00c4 84F87530 		strb	r3, [r4, #117]
ARM GAS  /tmp/ccOR9P9P.s 			page 62


 3478              		.loc 1 616 0
 3479 00c8 A167     		str	r1, [r4, #120]	@ float
 3480              		.loc 1 617 0
 3481 00ca E167     		str	r1, [r4, #124]	@ float
 3482              		.loc 1 618 0
 3483 00cc 84F88000 		strb	r0, [r4, #128]
 3484              		.loc 1 619 0
 3485 00d0 C4F88460 		str	r6, [r4, #132]	@ float
 3486              		.loc 1 621 0
 3487 00d4 84F88C20 		strb	r2, [r4, #140]
 3488              		.loc 1 622 0
 3489 00d8 84F88D30 		strb	r3, [r4, #141]
 3490              		.loc 1 623 0
 3491 00dc C4F89050 		str	r5, [r4, #144]	@ float
 3492              		.loc 1 626 0
 3493 00e0 84F89C20 		strb	r2, [r4, #156]
 3494              		.loc 1 627 0
 3495 00e4 C4F8A0C0 		str	ip, [r4, #160]	@ float
 3496              		.loc 1 628 0
 3497 00e8 C4F8A470 		str	r7, [r4, #164]	@ float
 3498              		.loc 1 629 0
 3499 00ec C4F8A860 		str	r6, [r4, #168]	@ float
 3500              		.loc 1 630 0
 3501 00f0 C4F8AC50 		str	r5, [r4, #172]	@ float
 3502              		.loc 1 631 0
 3503 00f4 C4F8B010 		str	r1, [r4, #176]	@ float
 3504              		.loc 1 632 0
 3505 00f8 C4F8B410 		str	r1, [r4, #180]	@ float
 3506              		.loc 1 633 0
 3507 00fc 84F8B800 		strb	r0, [r4, #184]
 3508              		.loc 1 634 0
 3509 0100 84F8B920 		strb	r2, [r4, #185]
 3510              		.loc 1 635 0
 3511 0104 84F8BA30 		strb	r3, [r4, #186]
 3512              		.loc 1 636 0
 3513 0108 C4F8BC50 		str	r5, [r4, #188]	@ float
 3514              		.loc 1 637 0
 3515 010c 84F8C020 		strb	r2, [r4, #192]
 3516              		.loc 1 638 0
 3517 0110 84F8C1E0 		strb	lr, [r4, #193]
 3518              		.loc 1 639 0
 3519 0114 84F8C220 		strb	r2, [r4, #194]
 3520              		.loc 1 640 0
 3521 0118 84F8C330 		strb	r3, [r4, #195]
 3522              		.loc 1 625 0
 3523 011c C4E92598 		strd	r9, r8, [r4, #148]
 3524              		.loc 1 641 0
 3525 0120 C4F8C4A0 		str	r10, [r4, #196]
 3526              		.loc 1 644 0
 3527 0124 84F8C830 		strb	r3, [r4, #200]
 3528              		.loc 1 646 0
 3529 0128 84F8C920 		strb	r2, [r4, #201]
 3530              		.loc 1 647 0
 3531 012c BDE8F087 		pop	{r4, r5, r6, r7, r8, r9, r10, pc}
 3532              	.LVL276:
 3533              	.L32:
 3534              		.align	2
ARM GAS  /tmp/ccOR9P9P.s 			page 63


 3535              	.L31:
 3536 0130 00606A46 		.word	1181376512
 3537 0134 00803B45 		.word	1161527296
 3538 0138 9A99993E 		.word	1050253722
 3539 013c 6666663F 		.word	1063675494
 3540 0140 9A99193E 		.word	1041865114
 3541 0144 CDCCCC3D 		.word	1036831949
 3542 0148 00004040 		.word	1077936128
 3543 014c 034CC6C7 		.word	-943305725
 3544              		.cfi_endproc
 3545              	.LFE224:
 3546              		.size	confgenerator_set_defaults_appconf, .-confgenerator_set_defaults_appconf
 3547              		.text
 3548              	.Letext0:
 3549              		.file 2 "/usr/arm-none-eabi/include/machine/_default_types.h"
 3550              		.file 3 "/usr/arm-none-eabi/include/sys/_stdint.h"
 3551              		.file 4 "ChibiOS_3.0.2/os/rt/ports/ARMCMx/compilers/GCC/chtypes.h"
 3552              		.file 5 "ChibiOS_3.0.2/os/rt/include/chsystypes.h"
 3553              		.file 6 "ChibiOS_3.0.2/os/rt/include/chschd.h"
 3554              		.file 7 "ChibiOS_3.0.2/os/ext/CMSIS/include/core_cm4.h"
 3555              		.file 8 "ChibiOS_3.0.2/os/ext/CMSIS/ST/system_stm32f4xx.h"
 3556              		.file 9 "ChibiOS_3.0.2/os/rt/ports/ARMCMx/chcore.h"
 3557              		.file 10 "ChibiOS_3.0.2/os/rt/ports/ARMCMx/chcore_v7m.h"
 3558              		.file 11 "ChibiOS_3.0.2/os/rt/include/chtm.h"
 3559              		.file 12 "ChibiOS_3.0.2/os/rt/include/chsem.h"
 3560              		.file 13 "ChibiOS_3.0.2/os/rt/include/chmtx.h"
 3561              		.file 14 "ChibiOS_3.0.2/os/rt/include/chregistry.h"
 3562              		.file 15 "datatypes.h"
 3563              		.file 16 "conf_general.h"
 3564              		.file 17 "hwconf/hw.h"
 3565              		.file 18 "buffer.h"
 3566              		.section	.debug_info,"",%progbits
 3567              	.Ldebug_info0:
 3568 0000 53330000 		.4byte	0x3353
 3569 0004 0400     		.2byte	0x4
 3570 0006 00000000 		.4byte	.Ldebug_abbrev0
 3571 000a 04       		.byte	0x4
 3572 000b 01       		.uleb128 0x1
 3573 000c 29070000 		.4byte	.LASF453
 3574 0010 0C       		.byte	0xc
 3575 0011 76190000 		.4byte	.LASF454
 3576 0015 B00C0000 		.4byte	.LASF455
 3577 0019 00000000 		.4byte	.Ldebug_ranges0+0
 3578 001d 00000000 		.4byte	0
 3579 0021 00000000 		.4byte	.Ldebug_line0
 3580 0025 02       		.uleb128 0x2
 3581 0026 F4110000 		.4byte	.LASF0
 3582 002a 02       		.byte	0x2
 3583 002b 29       		.byte	0x29
 3584 002c 30000000 		.4byte	0x30
 3585 0030 03       		.uleb128 0x3
 3586 0031 01       		.byte	0x1
 3587 0032 06       		.byte	0x6
 3588 0033 601A0000 		.4byte	.LASF2
 3589 0037 02       		.uleb128 0x2
 3590 0038 4A150000 		.4byte	.LASF1
 3591 003c 02       		.byte	0x2
ARM GAS  /tmp/ccOR9P9P.s 			page 64


 3592 003d 2B       		.byte	0x2b
 3593 003e 42000000 		.4byte	0x42
 3594 0042 03       		.uleb128 0x3
 3595 0043 01       		.byte	0x1
 3596 0044 08       		.byte	0x8
 3597 0045 F3170000 		.4byte	.LASF3
 3598 0049 03       		.uleb128 0x3
 3599 004a 02       		.byte	0x2
 3600 004b 05       		.byte	0x5
 3601 004c 08030000 		.4byte	.LASF4
 3602 0050 02       		.uleb128 0x2
 3603 0051 2E090000 		.4byte	.LASF5
 3604 0055 02       		.byte	0x2
 3605 0056 39       		.byte	0x39
 3606 0057 5B000000 		.4byte	0x5b
 3607 005b 03       		.uleb128 0x3
 3608 005c 02       		.byte	0x2
 3609 005d 07       		.byte	0x7
 3610 005e 4C120000 		.4byte	.LASF6
 3611 0062 02       		.uleb128 0x2
 3612 0063 5D020000 		.4byte	.LASF7
 3613 0067 02       		.byte	0x2
 3614 0068 4D       		.byte	0x4d
 3615 0069 6D000000 		.4byte	0x6d
 3616 006d 03       		.uleb128 0x3
 3617 006e 04       		.byte	0x4
 3618 006f 05       		.byte	0x5
 3619 0070 10000000 		.4byte	.LASF8
 3620 0074 02       		.uleb128 0x2
 3621 0075 1F180000 		.4byte	.LASF9
 3622 0079 02       		.byte	0x2
 3623 007a 4F       		.byte	0x4f
 3624 007b 7F000000 		.4byte	0x7f
 3625 007f 03       		.uleb128 0x3
 3626 0080 04       		.byte	0x4
 3627 0081 07       		.byte	0x7
 3628 0082 8C160000 		.4byte	.LASF10
 3629 0086 03       		.uleb128 0x3
 3630 0087 08       		.byte	0x8
 3631 0088 05       		.byte	0x5
 3632 0089 AE0D0000 		.4byte	.LASF11
 3633 008d 02       		.uleb128 0x2
 3634 008e 580B0000 		.4byte	.LASF12
 3635 0092 02       		.byte	0x2
 3636 0093 69       		.byte	0x69
 3637 0094 98000000 		.4byte	0x98
 3638 0098 03       		.uleb128 0x3
 3639 0099 08       		.byte	0x8
 3640 009a 07       		.byte	0x7
 3641 009b 6B080000 		.4byte	.LASF13
 3642 009f 04       		.uleb128 0x4
 3643 00a0 04       		.byte	0x4
 3644 00a1 05       		.byte	0x5
 3645 00a2 696E7400 		.ascii	"int\000"
 3646 00a6 03       		.uleb128 0x3
 3647 00a7 04       		.byte	0x4
 3648 00a8 07       		.byte	0x7
ARM GAS  /tmp/ccOR9P9P.s 			page 65


 3649 00a9 39030000 		.4byte	.LASF14
 3650 00ad 02       		.uleb128 0x2
 3651 00ae F1050000 		.4byte	.LASF15
 3652 00b2 03       		.byte	0x3
 3653 00b3 14       		.byte	0x14
 3654 00b4 25000000 		.4byte	0x25
 3655 00b8 02       		.uleb128 0x2
 3656 00b9 250D0000 		.4byte	.LASF16
 3657 00bd 03       		.byte	0x3
 3658 00be 18       		.byte	0x18
 3659 00bf 37000000 		.4byte	0x37
 3660 00c3 05       		.uleb128 0x5
 3661 00c4 B8000000 		.4byte	0xb8
 3662 00c8 02       		.uleb128 0x2
 3663 00c9 83120000 		.4byte	.LASF17
 3664 00cd 03       		.byte	0x3
 3665 00ce 24       		.byte	0x24
 3666 00cf 50000000 		.4byte	0x50
 3667 00d3 02       		.uleb128 0x2
 3668 00d4 F4160000 		.4byte	.LASF18
 3669 00d8 03       		.byte	0x3
 3670 00d9 2C       		.byte	0x2c
 3671 00da 62000000 		.4byte	0x62
 3672 00de 06       		.uleb128 0x6
 3673 00df D3000000 		.4byte	0xd3
 3674 00e3 02       		.uleb128 0x2
 3675 00e4 E8050000 		.4byte	.LASF19
 3676 00e8 03       		.byte	0x3
 3677 00e9 30       		.byte	0x30
 3678 00ea 74000000 		.4byte	0x74
 3679 00ee 02       		.uleb128 0x2
 3680 00ef 90140000 		.4byte	.LASF20
 3681 00f3 03       		.byte	0x3
 3682 00f4 3C       		.byte	0x3c
 3683 00f5 8D000000 		.4byte	0x8d
 3684 00f9 02       		.uleb128 0x2
 3685 00fa DC120000 		.4byte	.LASF21
 3686 00fe 04       		.byte	0x4
 3687 00ff 45       		.byte	0x45
 3688 0100 E3000000 		.4byte	0xe3
 3689 0104 02       		.uleb128 0x2
 3690 0105 FD110000 		.4byte	.LASF22
 3691 0109 04       		.byte	0x4
 3692 010a 48       		.byte	0x48
 3693 010b B8000000 		.4byte	0xb8
 3694 010f 02       		.uleb128 0x2
 3695 0110 630D0000 		.4byte	.LASF23
 3696 0114 04       		.byte	0x4
 3697 0115 49       		.byte	0x49
 3698 0116 B8000000 		.4byte	0xb8
 3699 011a 02       		.uleb128 0x2
 3700 011b 7B160000 		.4byte	.LASF24
 3701 011f 04       		.byte	0x4
 3702 0120 4A       		.byte	0x4a
 3703 0121 B8000000 		.4byte	0xb8
 3704 0125 02       		.uleb128 0x2
 3705 0126 82110000 		.4byte	.LASF25
ARM GAS  /tmp/ccOR9P9P.s 			page 66


 3706 012a 04       		.byte	0x4
 3707 012b 4B       		.byte	0x4b
 3708 012c B8000000 		.4byte	0xb8
 3709 0130 02       		.uleb128 0x2
 3710 0131 E6060000 		.4byte	.LASF26
 3711 0135 04       		.byte	0x4
 3712 0136 4C       		.byte	0x4c
 3713 0137 E3000000 		.4byte	0xe3
 3714 013b 02       		.uleb128 0x2
 3715 013c 04100000 		.4byte	.LASF27
 3716 0140 04       		.byte	0x4
 3717 0141 4D       		.byte	0x4d
 3718 0142 D3000000 		.4byte	0xd3
 3719 0146 02       		.uleb128 0x2
 3720 0147 47060000 		.4byte	.LASF28
 3721 014b 04       		.byte	0x4
 3722 014c 4F       		.byte	0x4f
 3723 014d E3000000 		.4byte	0xe3
 3724 0151 02       		.uleb128 0x2
 3725 0152 39090000 		.4byte	.LASF29
 3726 0156 04       		.byte	0x4
 3727 0157 51       		.byte	0x51
 3728 0158 D3000000 		.4byte	0xd3
 3729 015c 02       		.uleb128 0x2
 3730 015d 43010000 		.4byte	.LASF30
 3731 0161 05       		.byte	0x5
 3732 0162 33       		.byte	0x33
 3733 0163 E3000000 		.4byte	0xe3
 3734 0167 06       		.uleb128 0x6
 3735 0168 5C010000 		.4byte	0x15c
 3736 016c 02       		.uleb128 0x2
 3737 016d 1C0A0000 		.4byte	.LASF31
 3738 0171 05       		.byte	0x5
 3739 0172 3F       		.byte	0x3f
 3740 0173 77010000 		.4byte	0x177
 3741 0177 07       		.uleb128 0x7
 3742 0178 6D0E0000 		.4byte	.LASF53
 3743 017c 48       		.byte	0x48
 3744 017d 06       		.byte	0x6
 3745 017e C2       		.byte	0xc2
 3746 017f 7C020000 		.4byte	0x27c
 3747 0183 08       		.uleb128 0x8
 3748 0184 89140000 		.4byte	.LASF32
 3749 0188 06       		.byte	0x6
 3750 0189 C3       		.byte	0xc3
 3751 018a 87020000 		.4byte	0x287
 3752 018e 00       		.byte	0
 3753 018f 08       		.uleb128 0x8
 3754 0190 74160000 		.4byte	.LASF33
 3755 0194 06       		.byte	0x6
 3756 0195 C5       		.byte	0xc5
 3757 0196 87020000 		.4byte	0x287
 3758 019a 04       		.byte	0x4
 3759 019b 08       		.uleb128 0x8
 3760 019c CE000000 		.4byte	.LASF34
 3761 01a0 06       		.byte	0x6
 3762 01a1 C7       		.byte	0xc7
ARM GAS  /tmp/ccOR9P9P.s 			page 67


 3763 01a2 30010000 		.4byte	0x130
 3764 01a6 08       		.byte	0x8
 3765 01a7 08       		.uleb128 0x8
 3766 01a8 99140000 		.4byte	.LASF35
 3767 01ac 06       		.byte	0x6
 3768 01ad C8       		.byte	0xc8
 3769 01ae C7040000 		.4byte	0x4c7
 3770 01b2 0C       		.byte	0xc
 3771 01b3 08       		.uleb128 0x8
 3772 01b4 801C0000 		.4byte	.LASF36
 3773 01b8 06       		.byte	0x6
 3774 01b9 CA       		.byte	0xca
 3775 01ba 87020000 		.4byte	0x287
 3776 01be 10       		.byte	0x10
 3777 01bf 08       		.uleb128 0x8
 3778 01c0 CF0D0000 		.4byte	.LASF37
 3779 01c4 06       		.byte	0x6
 3780 01c5 CB       		.byte	0xcb
 3781 01c6 87020000 		.4byte	0x287
 3782 01ca 14       		.byte	0x14
 3783 01cb 08       		.uleb128 0x8
 3784 01cc 6D120000 		.4byte	.LASF38
 3785 01d0 06       		.byte	0x6
 3786 01d1 D2       		.byte	0xd2
 3787 01d2 0C070000 		.4byte	0x70c
 3788 01d6 18       		.byte	0x18
 3789 01d7 08       		.uleb128 0x8
 3790 01d8 D70D0000 		.4byte	.LASF39
 3791 01dc 06       		.byte	0x6
 3792 01dd DD       		.byte	0xdd
 3793 01de 0F010000 		.4byte	0x10f
 3794 01e2 1C       		.byte	0x1c
 3795 01e3 08       		.uleb128 0x8
 3796 01e4 84100000 		.4byte	.LASF40
 3797 01e8 06       		.byte	0x6
 3798 01e9 E1       		.byte	0xe1
 3799 01ea 04010000 		.4byte	0x104
 3800 01ee 1D       		.byte	0x1d
 3801 01ef 08       		.uleb128 0x8
 3802 01f0 F31A0000 		.4byte	.LASF41
 3803 01f4 06       		.byte	0x6
 3804 01f5 E6       		.byte	0xe6
 3805 01f6 1A010000 		.4byte	0x11a
 3806 01fa 1E       		.byte	0x1e
 3807 01fb 08       		.uleb128 0x8
 3808 01fc 16190000 		.4byte	.LASF42
 3809 0200 06       		.byte	0x6
 3810 0201 EC       		.byte	0xec
 3811 0202 25010000 		.4byte	0x125
 3812 0206 1F       		.byte	0x1f
 3813 0207 08       		.uleb128 0x8
 3814 0208 9E000000 		.4byte	.LASF43
 3815 020c 06       		.byte	0x6
 3816 020d F3       		.byte	0xf3
 3817 020e 67010000 		.4byte	0x167
 3818 0212 20       		.byte	0x20
 3819 0213 09       		.uleb128 0x9
ARM GAS  /tmp/ccOR9P9P.s 			page 68


 3820 0214 705F7500 		.ascii	"p_u\000"
 3821 0218 06       		.byte	0x6
 3822 0219 3101     		.2byte	0x131
 3823 021b 47060000 		.4byte	0x647
 3824 021f 24       		.byte	0x24
 3825 0220 0A       		.uleb128 0xa
 3826 0221 3E020000 		.4byte	.LASF44
 3827 0225 06       		.byte	0x6
 3828 0226 3601     		.2byte	0x136
 3829 0228 8D020000 		.4byte	0x28d
 3830 022c 28       		.byte	0x28
 3831 022d 0A       		.uleb128 0xa
 3832 022e 9B010000 		.4byte	.LASF45
 3833 0232 06       		.byte	0x6
 3834 0233 3C01     		.2byte	0x13c
 3835 0235 B1020000 		.4byte	0x2b1
 3836 0239 2C       		.byte	0x2c
 3837 023a 0A       		.uleb128 0xa
 3838 023b EE110000 		.4byte	.LASF46
 3839 023f 06       		.byte	0x6
 3840 0240 4001     		.2byte	0x140
 3841 0242 3B010000 		.4byte	0x13b
 3842 0246 34       		.byte	0x34
 3843 0247 0A       		.uleb128 0xa
 3844 0248 E4130000 		.4byte	.LASF47
 3845 024c 06       		.byte	0x6
 3846 024d 4601     		.2byte	0x146
 3847 024f 46010000 		.4byte	0x146
 3848 0253 38       		.byte	0x38
 3849 0254 0A       		.uleb128 0xa
 3850 0255 480E0000 		.4byte	.LASF48
 3851 0259 06       		.byte	0x6
 3852 025a 4D01     		.2byte	0x14d
 3853 025c 06070000 		.4byte	0x706
 3854 0260 3C       		.byte	0x3c
 3855 0261 0A       		.uleb128 0xa
 3856 0262 0A100000 		.4byte	.LASF49
 3857 0266 06       		.byte	0x6
 3858 0267 5101     		.2byte	0x151
 3859 0269 30010000 		.4byte	0x130
 3860 026d 40       		.byte	0x40
 3861 026e 0A       		.uleb128 0xa
 3862 026f 400E0000 		.4byte	.LASF50
 3863 0273 06       		.byte	0x6
 3864 0274 5801     		.2byte	0x158
 3865 0276 64030000 		.4byte	0x364
 3866 027a 44       		.byte	0x44
 3867 027b 00       		.byte	0
 3868 027c 02       		.uleb128 0x2
 3869 027d 9D120000 		.4byte	.LASF51
 3870 0281 05       		.byte	0x5
 3871 0282 44       		.byte	0x44
 3872 0283 87020000 		.4byte	0x287
 3873 0287 0B       		.uleb128 0xb
 3874 0288 04       		.byte	0x4
 3875 0289 6C010000 		.4byte	0x16c
 3876 028d 02       		.uleb128 0x2
ARM GAS  /tmp/ccOR9P9P.s 			page 69


 3877 028e FE010000 		.4byte	.LASF52
 3878 0292 05       		.byte	0x5
 3879 0293 49       		.byte	0x49
 3880 0294 98020000 		.4byte	0x298
 3881 0298 07       		.uleb128 0x7
 3882 0299 00000000 		.4byte	.LASF54
 3883 029d 04       		.byte	0x4
 3884 029e 06       		.byte	0x6
 3885 029f B0       		.byte	0xb0
 3886 02a0 B1020000 		.4byte	0x2b1
 3887 02a4 08       		.uleb128 0x8
 3888 02a5 89140000 		.4byte	.LASF32
 3889 02a9 06       		.byte	0x6
 3890 02aa B1       		.byte	0xb1
 3891 02ab 87020000 		.4byte	0x287
 3892 02af 00       		.byte	0
 3893 02b0 00       		.byte	0
 3894 02b1 02       		.uleb128 0x2
 3895 02b2 D1090000 		.4byte	.LASF55
 3896 02b6 05       		.byte	0x5
 3897 02b7 50       		.byte	0x50
 3898 02b8 BC020000 		.4byte	0x2bc
 3899 02bc 07       		.uleb128 0x7
 3900 02bd 190F0000 		.4byte	.LASF56
 3901 02c1 08       		.byte	0x8
 3902 02c2 06       		.byte	0x6
 3903 02c3 B7       		.byte	0xb7
 3904 02c4 E1020000 		.4byte	0x2e1
 3905 02c8 08       		.uleb128 0x8
 3906 02c9 89140000 		.4byte	.LASF32
 3907 02cd 06       		.byte	0x6
 3908 02ce B8       		.byte	0xb8
 3909 02cf 87020000 		.4byte	0x287
 3910 02d3 00       		.byte	0
 3911 02d4 08       		.uleb128 0x8
 3912 02d5 74160000 		.4byte	.LASF33
 3913 02d9 06       		.byte	0x6
 3914 02da B9       		.byte	0xb9
 3915 02db 87020000 		.4byte	0x287
 3916 02df 04       		.byte	0x4
 3917 02e0 00       		.byte	0
 3918 02e1 02       		.uleb128 0x2
 3919 02e2 C6160000 		.4byte	.LASF57
 3920 02e6 05       		.byte	0x5
 3921 02e7 57       		.byte	0x57
 3922 02e8 EC020000 		.4byte	0x2ec
 3923 02ec 0C       		.uleb128 0xc
 3924 02ed 1D040000 		.4byte	.LASF58
 3925 02f1 1C       		.byte	0x1c
 3926 02f2 06       		.byte	0x6
 3927 02f3 9001     		.2byte	0x190
 3928 02f5 48030000 		.4byte	0x348
 3929 02f9 0A       		.uleb128 0xa
 3930 02fa FD0D0000 		.4byte	.LASF59
 3931 02fe 06       		.byte	0x6
 3932 02ff 9101     		.2byte	0x191
 3933 0301 B1020000 		.4byte	0x2b1
ARM GAS  /tmp/ccOR9P9P.s 			page 70


 3934 0305 00       		.byte	0
 3935 0306 0A       		.uleb128 0xa
 3936 0307 53060000 		.4byte	.LASF60
 3937 030b 06       		.byte	0x6
 3938 030c 9201     		.2byte	0x192
 3939 030e 30010000 		.4byte	0x130
 3940 0312 08       		.byte	0x8
 3941 0313 0A       		.uleb128 0xa
 3942 0314 BD1A0000 		.4byte	.LASF61
 3943 0318 06       		.byte	0x6
 3944 0319 9401     		.2byte	0x194
 3945 031b C7040000 		.4byte	0x4c7
 3946 031f 0C       		.byte	0xc
 3947 0320 0A       		.uleb128 0xa
 3948 0321 2D0D0000 		.4byte	.LASF62
 3949 0325 06       		.byte	0x6
 3950 0326 9701     		.2byte	0x197
 3951 0328 87020000 		.4byte	0x287
 3952 032c 10       		.byte	0x10
 3953 032d 0A       		.uleb128 0xa
 3954 032e 8C110000 		.4byte	.LASF63
 3955 0332 06       		.byte	0x6
 3956 0333 9801     		.2byte	0x198
 3957 0335 87020000 		.4byte	0x287
 3958 0339 14       		.byte	0x14
 3959 033a 0A       		.uleb128 0xa
 3960 033b C8130000 		.4byte	.LASF64
 3961 033f 06       		.byte	0x6
 3962 0340 9B01     		.2byte	0x19b
 3963 0342 87020000 		.4byte	0x287
 3964 0346 18       		.byte	0x18
 3965 0347 00       		.byte	0
 3966 0348 02       		.uleb128 0x2
 3967 0349 AC040000 		.4byte	.LASF65
 3968 034d 05       		.byte	0x5
 3969 034e 5C       		.byte	0x5c
 3970 034f 53030000 		.4byte	0x353
 3971 0353 0B       		.uleb128 0xb
 3972 0354 04       		.byte	0x4
 3973 0355 59030000 		.4byte	0x359
 3974 0359 0D       		.uleb128 0xd
 3975 035a 64030000 		.4byte	0x364
 3976 035e 0E       		.uleb128 0xe
 3977 035f 64030000 		.4byte	0x364
 3978 0363 00       		.byte	0
 3979 0364 0F       		.uleb128 0xf
 3980 0365 04       		.byte	0x4
 3981 0366 02       		.uleb128 0x2
 3982 0367 9E100000 		.4byte	.LASF66
 3983 036b 05       		.byte	0x5
 3984 036c 61       		.byte	0x61
 3985 036d 71030000 		.4byte	0x371
 3986 0371 0C       		.uleb128 0xc
 3987 0372 11090000 		.4byte	.LASF67
 3988 0376 14       		.byte	0x14
 3989 0377 06       		.byte	0x6
 3990 0378 6B01     		.2byte	0x16b
ARM GAS  /tmp/ccOR9P9P.s 			page 71


 3991 037a C0030000 		.4byte	0x3c0
 3992 037e 0A       		.uleb128 0xa
 3993 037f 95190000 		.4byte	.LASF68
 3994 0383 06       		.byte	0x6
 3995 0384 6C01     		.2byte	0x16c
 3996 0386 23070000 		.4byte	0x723
 3997 038a 00       		.byte	0
 3998 038b 0A       		.uleb128 0xa
 3999 038c 3F1B0000 		.4byte	.LASF69
 4000 0390 06       		.byte	0x6
 4001 0391 6D01     		.2byte	0x16d
 4002 0393 23070000 		.4byte	0x723
 4003 0397 04       		.byte	0x4
 4004 0398 0A       		.uleb128 0xa
 4005 0399 D40C0000 		.4byte	.LASF70
 4006 039d 06       		.byte	0x6
 4007 039e 6E01     		.2byte	0x16e
 4008 03a0 5C010000 		.4byte	0x15c
 4009 03a4 08       		.byte	0x8
 4010 03a5 0A       		.uleb128 0xa
 4011 03a6 2D1B0000 		.4byte	.LASF71
 4012 03aa 06       		.byte	0x6
 4013 03ab 6F01     		.2byte	0x16f
 4014 03ad 48030000 		.4byte	0x348
 4015 03b1 0C       		.byte	0xc
 4016 03b2 0A       		.uleb128 0xa
 4017 03b3 70060000 		.4byte	.LASF72
 4018 03b7 06       		.byte	0x6
 4019 03b8 7101     		.2byte	0x171
 4020 03ba 64030000 		.4byte	0x364
 4021 03be 10       		.byte	0x10
 4022 03bf 00       		.byte	0
 4023 03c0 02       		.uleb128 0x2
 4024 03c1 39180000 		.4byte	.LASF73
 4025 03c5 05       		.byte	0x5
 4026 03c6 66       		.byte	0x66
 4027 03c7 CB030000 		.4byte	0x3cb
 4028 03cb 0C       		.uleb128 0xc
 4029 03cc F4090000 		.4byte	.LASF74
 4030 03d0 10       		.byte	0x10
 4031 03d1 06       		.byte	0x6
 4032 03d2 7B01     		.2byte	0x17b
 4033 03d4 0D040000 		.4byte	0x40d
 4034 03d8 0A       		.uleb128 0xa
 4035 03d9 95190000 		.4byte	.LASF68
 4036 03dd 06       		.byte	0x6
 4037 03de 7C01     		.2byte	0x17c
 4038 03e0 23070000 		.4byte	0x723
 4039 03e4 00       		.byte	0
 4040 03e5 0A       		.uleb128 0xa
 4041 03e6 3F1B0000 		.4byte	.LASF69
 4042 03ea 06       		.byte	0x6
 4043 03eb 7E01     		.2byte	0x17e
 4044 03ed 23070000 		.4byte	0x723
 4045 03f1 04       		.byte	0x4
 4046 03f2 0A       		.uleb128 0xa
 4047 03f3 D40C0000 		.4byte	.LASF70
ARM GAS  /tmp/ccOR9P9P.s 			page 72


 4048 03f7 06       		.byte	0x6
 4049 03f8 8001     		.2byte	0x180
 4050 03fa 5C010000 		.4byte	0x15c
 4051 03fe 08       		.byte	0x8
 4052 03ff 0A       		.uleb128 0xa
 4053 0400 7D010000 		.4byte	.LASF75
 4054 0404 06       		.byte	0x6
 4055 0405 8201     		.2byte	0x182
 4056 0407 67010000 		.4byte	0x167
 4057 040b 0C       		.byte	0xc
 4058 040c 00       		.byte	0
 4059 040d 02       		.uleb128 0x2
 4060 040e BF0E0000 		.4byte	.LASF76
 4061 0412 05       		.byte	0x5
 4062 0413 6B       		.byte	0x6b
 4063 0414 18040000 		.4byte	0x418
 4064 0418 0C       		.uleb128 0xc
 4065 0419 DE040000 		.4byte	.LASF77
 4066 041d 04       		.byte	0x4
 4067 041e 06       		.byte	0x6
 4068 041f A201     		.2byte	0x1a2
 4069 0421 33040000 		.4byte	0x433
 4070 0425 0A       		.uleb128 0xa
 4071 0426 64180000 		.4byte	.LASF78
 4072 042a 06       		.byte	0x6
 4073 042b AA01     		.2byte	0x1aa
 4074 042d 12070000 		.4byte	0x712
 4075 0431 00       		.byte	0
 4076 0432 00       		.byte	0
 4077 0433 02       		.uleb128 0x2
 4078 0434 BF190000 		.4byte	.LASF79
 4079 0438 05       		.byte	0x5
 4080 0439 70       		.byte	0x70
 4081 043a 3E040000 		.4byte	0x43e
 4082 043e 10       		.uleb128 0x10
 4083 043f 51140000 		.4byte	.LASF80
 4084 0443 5802     		.2byte	0x258
 4085 0445 06       		.byte	0x6
 4086 0446 C201     		.2byte	0x1c2
 4087 0448 9A040000 		.4byte	0x49a
 4088 044c 0A       		.uleb128 0xa
 4089 044d B4140000 		.4byte	.LASF81
 4090 0451 06       		.byte	0x6
 4091 0452 C601     		.2byte	0x1c6
 4092 0454 E1020000 		.4byte	0x2e1
 4093 0458 00       		.byte	0
 4094 0459 0A       		.uleb128 0xa
 4095 045a FB020000 		.4byte	.LASF82
 4096 045e 06       		.byte	0x6
 4097 045f CA01     		.2byte	0x1ca
 4098 0461 C0030000 		.4byte	0x3c0
 4099 0465 1C       		.byte	0x1c
 4100 0466 09       		.uleb128 0x9
 4101 0467 64626700 		.ascii	"dbg\000"
 4102 046b 06       		.byte	0x6
 4103 046c CE01     		.2byte	0x1ce
 4104 046e 0D040000 		.4byte	0x40d
ARM GAS  /tmp/ccOR9P9P.s 			page 73


 4105 0472 2C       		.byte	0x2c
 4106 0473 0A       		.uleb128 0xa
 4107 0474 2D120000 		.4byte	.LASF83
 4108 0478 06       		.byte	0x6
 4109 0479 D201     		.2byte	0x1d2
 4110 047b 6C010000 		.4byte	0x16c
 4111 047f 30       		.byte	0x30
 4112 0480 09       		.uleb128 0x9
 4113 0481 746D00   		.ascii	"tm\000"
 4114 0484 06       		.byte	0x6
 4115 0485 D701     		.2byte	0x1d7
 4116 0487 3C060000 		.4byte	0x63c
 4117 048b 78       		.byte	0x78
 4118 048c 0A       		.uleb128 0xa
 4119 048d FC160000 		.4byte	.LASF84
 4120 0491 06       		.byte	0x6
 4121 0492 E301     		.2byte	0x1e3
 4122 0494 29070000 		.4byte	0x729
 4123 0498 80       		.byte	0x80
 4124 0499 00       		.byte	0
 4125 049a 11       		.uleb128 0x11
 4126 049b 2B140000 		.4byte	.LASF85
 4127 049f 07       		.byte	0x7
 4128 04a0 A706     		.2byte	0x6a7
 4129 04a2 DE000000 		.4byte	0xde
 4130 04a6 12       		.uleb128 0x12
 4131 04a7 4F000000 		.4byte	.LASF86
 4132 04ab 08       		.byte	0x8
 4133 04ac 4C       		.byte	0x4c
 4134 04ad E3000000 		.4byte	0xe3
 4135 04b1 02       		.uleb128 0x2
 4136 04b2 C5000000 		.4byte	.LASF87
 4137 04b6 09       		.byte	0x9
 4138 04b7 65       		.byte	0x65
 4139 04b8 64030000 		.4byte	0x364
 4140 04bc 02       		.uleb128 0x2
 4141 04bd C31A0000 		.4byte	.LASF88
 4142 04c1 09       		.byte	0x9
 4143 04c2 6D       		.byte	0x6d
 4144 04c3 EE000000 		.4byte	0xee
 4145 04c7 07       		.uleb128 0x7
 4146 04c8 2B100000 		.4byte	.LASF89
 4147 04cc 04       		.byte	0x4
 4148 04cd 09       		.byte	0x9
 4149 04ce 89       		.byte	0x89
 4150 04cf E0040000 		.4byte	0x4e0
 4151 04d3 13       		.uleb128 0x13
 4152 04d4 72313300 		.ascii	"r13\000"
 4153 04d8 09       		.byte	0x9
 4154 04d9 8A       		.byte	0x8a
 4155 04da 21060000 		.4byte	0x621
 4156 04de 00       		.byte	0
 4157 04df 00       		.byte	0
 4158 04e0 07       		.uleb128 0x7
 4159 04e1 03140000 		.4byte	.LASF90
 4160 04e5 64       		.byte	0x64
 4161 04e6 0A       		.byte	0xa
ARM GAS  /tmp/ccOR9P9P.s 			page 74


 4162 04e7 F4       		.byte	0xf4
 4163 04e8 21060000 		.4byte	0x621
 4164 04ec 13       		.uleb128 0x13
 4165 04ed 73313600 		.ascii	"s16\000"
 4166 04f1 0A       		.byte	0xa
 4167 04f2 F6       		.byte	0xf6
 4168 04f3 B1040000 		.4byte	0x4b1
 4169 04f7 00       		.byte	0
 4170 04f8 13       		.uleb128 0x13
 4171 04f9 73313700 		.ascii	"s17\000"
 4172 04fd 0A       		.byte	0xa
 4173 04fe F7       		.byte	0xf7
 4174 04ff B1040000 		.4byte	0x4b1
 4175 0503 04       		.byte	0x4
 4176 0504 13       		.uleb128 0x13
 4177 0505 73313800 		.ascii	"s18\000"
 4178 0509 0A       		.byte	0xa
 4179 050a F8       		.byte	0xf8
 4180 050b B1040000 		.4byte	0x4b1
 4181 050f 08       		.byte	0x8
 4182 0510 13       		.uleb128 0x13
 4183 0511 73313900 		.ascii	"s19\000"
 4184 0515 0A       		.byte	0xa
 4185 0516 F9       		.byte	0xf9
 4186 0517 B1040000 		.4byte	0x4b1
 4187 051b 0C       		.byte	0xc
 4188 051c 13       		.uleb128 0x13
 4189 051d 73323000 		.ascii	"s20\000"
 4190 0521 0A       		.byte	0xa
 4191 0522 FA       		.byte	0xfa
 4192 0523 B1040000 		.4byte	0x4b1
 4193 0527 10       		.byte	0x10
 4194 0528 13       		.uleb128 0x13
 4195 0529 73323100 		.ascii	"s21\000"
 4196 052d 0A       		.byte	0xa
 4197 052e FB       		.byte	0xfb
 4198 052f B1040000 		.4byte	0x4b1
 4199 0533 14       		.byte	0x14
 4200 0534 13       		.uleb128 0x13
 4201 0535 73323200 		.ascii	"s22\000"
 4202 0539 0A       		.byte	0xa
 4203 053a FC       		.byte	0xfc
 4204 053b B1040000 		.4byte	0x4b1
 4205 053f 18       		.byte	0x18
 4206 0540 13       		.uleb128 0x13
 4207 0541 73323300 		.ascii	"s23\000"
 4208 0545 0A       		.byte	0xa
 4209 0546 FD       		.byte	0xfd
 4210 0547 B1040000 		.4byte	0x4b1
 4211 054b 1C       		.byte	0x1c
 4212 054c 13       		.uleb128 0x13
 4213 054d 73323400 		.ascii	"s24\000"
 4214 0551 0A       		.byte	0xa
 4215 0552 FE       		.byte	0xfe
 4216 0553 B1040000 		.4byte	0x4b1
 4217 0557 20       		.byte	0x20
 4218 0558 13       		.uleb128 0x13
ARM GAS  /tmp/ccOR9P9P.s 			page 75


 4219 0559 73323500 		.ascii	"s25\000"
 4220 055d 0A       		.byte	0xa
 4221 055e FF       		.byte	0xff
 4222 055f B1040000 		.4byte	0x4b1
 4223 0563 24       		.byte	0x24
 4224 0564 09       		.uleb128 0x9
 4225 0565 73323600 		.ascii	"s26\000"
 4226 0569 0A       		.byte	0xa
 4227 056a 0001     		.2byte	0x100
 4228 056c B1040000 		.4byte	0x4b1
 4229 0570 28       		.byte	0x28
 4230 0571 09       		.uleb128 0x9
 4231 0572 73323700 		.ascii	"s27\000"
 4232 0576 0A       		.byte	0xa
 4233 0577 0101     		.2byte	0x101
 4234 0579 B1040000 		.4byte	0x4b1
 4235 057d 2C       		.byte	0x2c
 4236 057e 09       		.uleb128 0x9
 4237 057f 73323800 		.ascii	"s28\000"
 4238 0583 0A       		.byte	0xa
 4239 0584 0201     		.2byte	0x102
 4240 0586 B1040000 		.4byte	0x4b1
 4241 058a 30       		.byte	0x30
 4242 058b 09       		.uleb128 0x9
 4243 058c 73323900 		.ascii	"s29\000"
 4244 0590 0A       		.byte	0xa
 4245 0591 0301     		.2byte	0x103
 4246 0593 B1040000 		.4byte	0x4b1
 4247 0597 34       		.byte	0x34
 4248 0598 09       		.uleb128 0x9
 4249 0599 73333000 		.ascii	"s30\000"
 4250 059d 0A       		.byte	0xa
 4251 059e 0401     		.2byte	0x104
 4252 05a0 B1040000 		.4byte	0x4b1
 4253 05a4 38       		.byte	0x38
 4254 05a5 09       		.uleb128 0x9
 4255 05a6 73333100 		.ascii	"s31\000"
 4256 05aa 0A       		.byte	0xa
 4257 05ab 0501     		.2byte	0x105
 4258 05ad B1040000 		.4byte	0x4b1
 4259 05b1 3C       		.byte	0x3c
 4260 05b2 09       		.uleb128 0x9
 4261 05b3 723400   		.ascii	"r4\000"
 4262 05b6 0A       		.byte	0xa
 4263 05b7 0701     		.2byte	0x107
 4264 05b9 B1040000 		.4byte	0x4b1
 4265 05bd 40       		.byte	0x40
 4266 05be 09       		.uleb128 0x9
 4267 05bf 723500   		.ascii	"r5\000"
 4268 05c2 0A       		.byte	0xa
 4269 05c3 0801     		.2byte	0x108
 4270 05c5 B1040000 		.4byte	0x4b1
 4271 05c9 44       		.byte	0x44
 4272 05ca 09       		.uleb128 0x9
 4273 05cb 723600   		.ascii	"r6\000"
 4274 05ce 0A       		.byte	0xa
 4275 05cf 0901     		.2byte	0x109
ARM GAS  /tmp/ccOR9P9P.s 			page 76


 4276 05d1 B1040000 		.4byte	0x4b1
 4277 05d5 48       		.byte	0x48
 4278 05d6 09       		.uleb128 0x9
 4279 05d7 723700   		.ascii	"r7\000"
 4280 05da 0A       		.byte	0xa
 4281 05db 0A01     		.2byte	0x10a
 4282 05dd B1040000 		.4byte	0x4b1
 4283 05e1 4C       		.byte	0x4c
 4284 05e2 09       		.uleb128 0x9
 4285 05e3 723800   		.ascii	"r8\000"
 4286 05e6 0A       		.byte	0xa
 4287 05e7 0B01     		.2byte	0x10b
 4288 05e9 B1040000 		.4byte	0x4b1
 4289 05ed 50       		.byte	0x50
 4290 05ee 09       		.uleb128 0x9
 4291 05ef 723900   		.ascii	"r9\000"
 4292 05f2 0A       		.byte	0xa
 4293 05f3 0C01     		.2byte	0x10c
 4294 05f5 B1040000 		.4byte	0x4b1
 4295 05f9 54       		.byte	0x54
 4296 05fa 09       		.uleb128 0x9
 4297 05fb 72313000 		.ascii	"r10\000"
 4298 05ff 0A       		.byte	0xa
 4299 0600 0D01     		.2byte	0x10d
 4300 0602 B1040000 		.4byte	0x4b1
 4301 0606 58       		.byte	0x58
 4302 0607 09       		.uleb128 0x9
 4303 0608 72313100 		.ascii	"r11\000"
 4304 060c 0A       		.byte	0xa
 4305 060d 0E01     		.2byte	0x10e
 4306 060f B1040000 		.4byte	0x4b1
 4307 0613 5C       		.byte	0x5c
 4308 0614 09       		.uleb128 0x9
 4309 0615 6C7200   		.ascii	"lr\000"
 4310 0618 0A       		.byte	0xa
 4311 0619 0F01     		.2byte	0x10f
 4312 061b B1040000 		.4byte	0x4b1
 4313 061f 60       		.byte	0x60
 4314 0620 00       		.byte	0
 4315 0621 0B       		.uleb128 0xb
 4316 0622 04       		.byte	0x4
 4317 0623 E0040000 		.4byte	0x4e0
 4318 0627 14       		.uleb128 0x14
 4319 0628 04       		.byte	0x4
 4320 0629 0B       		.byte	0xb
 4321 062a 38       		.byte	0x38
 4322 062b 3C060000 		.4byte	0x63c
 4323 062f 08       		.uleb128 0x8
 4324 0630 960A0000 		.4byte	.LASF91
 4325 0634 0B       		.byte	0xb
 4326 0635 3C       		.byte	0x3c
 4327 0636 F9000000 		.4byte	0xf9
 4328 063a 00       		.byte	0
 4329 063b 00       		.byte	0
 4330 063c 02       		.uleb128 0x2
 4331 063d 8D000000 		.4byte	.LASF92
 4332 0641 0B       		.byte	0xb
ARM GAS  /tmp/ccOR9P9P.s 			page 77


 4333 0642 3D       		.byte	0x3d
 4334 0643 27060000 		.4byte	0x627
 4335 0647 15       		.uleb128 0x15
 4336 0648 04       		.byte	0x4
 4337 0649 06       		.byte	0x6
 4338 064a FA       		.byte	0xfa
 4339 064b A4060000 		.4byte	0x6a4
 4340 064f 16       		.uleb128 0x16
 4341 0650 730A0000 		.4byte	.LASF93
 4342 0654 06       		.byte	0x6
 4343 0655 0101     		.2byte	0x101
 4344 0657 3B010000 		.4byte	0x13b
 4345 065b 16       		.uleb128 0x16
 4346 065c 461C0000 		.4byte	.LASF94
 4347 0660 06       		.byte	0x6
 4348 0661 0801     		.2byte	0x108
 4349 0663 3B010000 		.4byte	0x13b
 4350 0667 16       		.uleb128 0x16
 4351 0668 EC020000 		.4byte	.LASF95
 4352 066c 06       		.byte	0x6
 4353 066d 0F01     		.2byte	0x10f
 4354 066f 64030000 		.4byte	0x364
 4355 0673 16       		.uleb128 0x16
 4356 0674 F11B0000 		.4byte	.LASF96
 4357 0678 06       		.byte	0x6
 4358 0679 1601     		.2byte	0x116
 4359 067b A4060000 		.4byte	0x6a4
 4360 067f 16       		.uleb128 0x16
 4361 0680 27170000 		.4byte	.LASF97
 4362 0684 06       		.byte	0x6
 4363 0685 1E01     		.2byte	0x11e
 4364 0687 CF060000 		.4byte	0x6cf
 4365 068b 16       		.uleb128 0x16
 4366 068c F71B0000 		.4byte	.LASF98
 4367 0690 06       		.byte	0x6
 4368 0691 2701     		.2byte	0x127
 4369 0693 06070000 		.4byte	0x706
 4370 0697 16       		.uleb128 0x16
 4371 0698 8D030000 		.4byte	.LASF99
 4372 069c 06       		.byte	0x6
 4373 069d 2F01     		.2byte	0x12f
 4374 069f 46010000 		.4byte	0x146
 4375 06a3 00       		.byte	0
 4376 06a4 0B       		.uleb128 0xb
 4377 06a5 04       		.byte	0x4
 4378 06a6 7C020000 		.4byte	0x27c
 4379 06aa 07       		.uleb128 0x7
 4380 06ab CC060000 		.4byte	.LASF100
 4381 06af 0C       		.byte	0xc
 4382 06b0 0C       		.byte	0xc
 4383 06b1 34       		.byte	0x34
 4384 06b2 CF060000 		.4byte	0x6cf
 4385 06b6 08       		.uleb128 0x8
 4386 06b7 75010000 		.4byte	.LASF101
 4387 06bb 0C       		.byte	0xc
 4388 06bc 35       		.byte	0x35
 4389 06bd B1020000 		.4byte	0x2b1
ARM GAS  /tmp/ccOR9P9P.s 			page 78


 4390 06c1 00       		.byte	0
 4391 06c2 08       		.uleb128 0x8
 4392 06c3 17050000 		.4byte	.LASF102
 4393 06c7 0C       		.byte	0xc
 4394 06c8 37       		.byte	0x37
 4395 06c9 51010000 		.4byte	0x151
 4396 06cd 08       		.byte	0x8
 4397 06ce 00       		.byte	0
 4398 06cf 0B       		.uleb128 0xb
 4399 06d0 04       		.byte	0x4
 4400 06d1 AA060000 		.4byte	0x6aa
 4401 06d5 07       		.uleb128 0x7
 4402 06d6 420B0000 		.4byte	.LASF103
 4403 06da 10       		.byte	0x10
 4404 06db 0D       		.byte	0xd
 4405 06dc 39       		.byte	0x39
 4406 06dd 06070000 		.4byte	0x706
 4407 06e1 08       		.uleb128 0x8
 4408 06e2 EF130000 		.4byte	.LASF104
 4409 06e6 0D       		.byte	0xd
 4410 06e7 3A       		.byte	0x3a
 4411 06e8 B1020000 		.4byte	0x2b1
 4412 06ec 00       		.byte	0
 4413 06ed 08       		.uleb128 0x8
 4414 06ee 5B140000 		.4byte	.LASF105
 4415 06f2 0D       		.byte	0xd
 4416 06f3 3C       		.byte	0x3c
 4417 06f4 87020000 		.4byte	0x287
 4418 06f8 08       		.byte	0x8
 4419 06f9 08       		.uleb128 0x8
 4420 06fa 481A0000 		.4byte	.LASF106
 4421 06fe 0D       		.byte	0xd
 4422 06ff 3E       		.byte	0x3e
 4423 0700 5B080000 		.4byte	0x85b
 4424 0704 0C       		.byte	0xc
 4425 0705 00       		.byte	0
 4426 0706 0B       		.uleb128 0xb
 4427 0707 04       		.byte	0x4
 4428 0708 D5060000 		.4byte	0x6d5
 4429 070c 0B       		.uleb128 0xb
 4430 070d 04       		.byte	0x4
 4431 070e 1E070000 		.4byte	0x71e
 4432 0712 06       		.uleb128 0x6
 4433 0713 0C070000 		.4byte	0x70c
 4434 0717 03       		.uleb128 0x3
 4435 0718 01       		.byte	0x1
 4436 0719 08       		.byte	0x8
 4437 071a C0000000 		.4byte	.LASF107
 4438 071e 05       		.uleb128 0x5
 4439 071f 17070000 		.4byte	0x717
 4440 0723 0B       		.uleb128 0xb
 4441 0724 04       		.byte	0x4
 4442 0725 66030000 		.4byte	0x366
 4443 0729 17       		.uleb128 0x17
 4444 072a BC040000 		.4byte	0x4bc
 4445 072e 39070000 		.4byte	0x739
 4446 0732 18       		.uleb128 0x18
ARM GAS  /tmp/ccOR9P9P.s 			page 79


 4447 0733 A6000000 		.4byte	0xa6
 4448 0737 3A       		.byte	0x3a
 4449 0738 00       		.byte	0
 4450 0739 19       		.uleb128 0x19
 4451 073a 636800   		.ascii	"ch\000"
 4452 073d 06       		.byte	0x6
 4453 073e 0902     		.2byte	0x209
 4454 0740 33040000 		.4byte	0x433
 4455 0744 14       		.uleb128 0x14
 4456 0745 16       		.byte	0x16
 4457 0746 0E       		.byte	0xe
 4458 0747 34       		.byte	0x34
 4459 0748 25080000 		.4byte	0x825
 4460 074c 08       		.uleb128 0x8
 4461 074d D6150000 		.4byte	.LASF108
 4462 0751 0E       		.byte	0xe
 4463 0752 35       		.byte	0x35
 4464 0753 25080000 		.4byte	0x825
 4465 0757 00       		.byte	0
 4466 0758 08       		.uleb128 0x8
 4467 0759 51110000 		.4byte	.LASF109
 4468 075d 0E       		.byte	0xe
 4469 075e 36       		.byte	0x36
 4470 075f B8000000 		.4byte	0xb8
 4471 0763 04       		.byte	0x4
 4472 0764 08       		.uleb128 0x8
 4473 0765 25120000 		.4byte	.LASF110
 4474 0769 0E       		.byte	0xe
 4475 076a 37       		.byte	0x37
 4476 076b B8000000 		.4byte	0xb8
 4477 076f 05       		.byte	0x5
 4478 0770 08       		.uleb128 0x8
 4479 0771 8E130000 		.4byte	.LASF111
 4480 0775 0E       		.byte	0xe
 4481 0776 38       		.byte	0x38
 4482 0777 C8000000 		.4byte	0xc8
 4483 077b 06       		.byte	0x6
 4484 077c 08       		.uleb128 0x8
 4485 077d F5030000 		.4byte	.LASF112
 4486 0781 0E       		.byte	0xe
 4487 0782 39       		.byte	0x39
 4488 0783 B8000000 		.4byte	0xb8
 4489 0787 08       		.byte	0x8
 4490 0788 08       		.uleb128 0x8
 4491 0789 09060000 		.4byte	.LASF113
 4492 078d 0E       		.byte	0xe
 4493 078e 3A       		.byte	0x3a
 4494 078f B8000000 		.4byte	0xb8
 4495 0793 09       		.byte	0x9
 4496 0794 08       		.uleb128 0x8
 4497 0795 091B0000 		.4byte	.LASF114
 4498 0799 0E       		.byte	0xe
 4499 079a 3B       		.byte	0x3b
 4500 079b B8000000 		.4byte	0xb8
 4501 079f 0A       		.byte	0xa
 4502 07a0 08       		.uleb128 0x8
 4503 07a1 3E150000 		.4byte	.LASF115
ARM GAS  /tmp/ccOR9P9P.s 			page 80


 4504 07a5 0E       		.byte	0xe
 4505 07a6 3C       		.byte	0x3c
 4506 07a7 B8000000 		.4byte	0xb8
 4507 07ab 0B       		.byte	0xb
 4508 07ac 08       		.uleb128 0x8
 4509 07ad 330C0000 		.4byte	.LASF116
 4510 07b1 0E       		.byte	0xe
 4511 07b2 3D       		.byte	0x3d
 4512 07b3 B8000000 		.4byte	0xb8
 4513 07b7 0C       		.byte	0xc
 4514 07b8 08       		.uleb128 0x8
 4515 07b9 6C1A0000 		.4byte	.LASF117
 4516 07bd 0E       		.byte	0xe
 4517 07be 3E       		.byte	0x3e
 4518 07bf B8000000 		.4byte	0xb8
 4519 07c3 0D       		.byte	0xd
 4520 07c4 08       		.uleb128 0x8
 4521 07c5 5B010000 		.4byte	.LASF118
 4522 07c9 0E       		.byte	0xe
 4523 07ca 3F       		.byte	0x3f
 4524 07cb B8000000 		.4byte	0xb8
 4525 07cf 0E       		.byte	0xe
 4526 07d0 08       		.uleb128 0x8
 4527 07d1 71020000 		.4byte	.LASF119
 4528 07d5 0E       		.byte	0xe
 4529 07d6 40       		.byte	0x40
 4530 07d7 B8000000 		.4byte	0xb8
 4531 07db 0F       		.byte	0xf
 4532 07dc 08       		.uleb128 0x8
 4533 07dd 3E0C0000 		.4byte	.LASF120
 4534 07e1 0E       		.byte	0xe
 4535 07e2 41       		.byte	0x41
 4536 07e3 B8000000 		.4byte	0xb8
 4537 07e7 10       		.byte	0x10
 4538 07e8 08       		.uleb128 0x8
 4539 07e9 68010000 		.4byte	.LASF121
 4540 07ed 0E       		.byte	0xe
 4541 07ee 43       		.byte	0x43
 4542 07ef B8000000 		.4byte	0xb8
 4543 07f3 11       		.byte	0x11
 4544 07f4 08       		.uleb128 0x8
 4545 07f5 15150000 		.4byte	.LASF122
 4546 07f9 0E       		.byte	0xe
 4547 07fa 44       		.byte	0x44
 4548 07fb B8000000 		.4byte	0xb8
 4549 07ff 12       		.byte	0x12
 4550 0800 08       		.uleb128 0x8
 4551 0801 BA100000 		.4byte	.LASF123
 4552 0805 0E       		.byte	0xe
 4553 0806 45       		.byte	0x45
 4554 0807 B8000000 		.4byte	0xb8
 4555 080b 13       		.byte	0x13
 4556 080c 08       		.uleb128 0x8
 4557 080d AA0A0000 		.4byte	.LASF124
 4558 0811 0E       		.byte	0xe
 4559 0812 46       		.byte	0x46
 4560 0813 B8000000 		.4byte	0xb8
ARM GAS  /tmp/ccOR9P9P.s 			page 81


 4561 0817 14       		.byte	0x14
 4562 0818 08       		.uleb128 0x8
 4563 0819 09150000 		.4byte	.LASF125
 4564 081d 0E       		.byte	0xe
 4565 081e 48       		.byte	0x48
 4566 081f B8000000 		.4byte	0xb8
 4567 0823 15       		.byte	0x15
 4568 0824 00       		.byte	0
 4569 0825 17       		.uleb128 0x17
 4570 0826 17070000 		.4byte	0x717
 4571 082a 35080000 		.4byte	0x835
 4572 082e 18       		.uleb128 0x18
 4573 082f A6000000 		.4byte	0xa6
 4574 0833 03       		.byte	0x3
 4575 0834 00       		.byte	0
 4576 0835 02       		.uleb128 0x2
 4577 0836 C1120000 		.4byte	.LASF126
 4578 083a 0E       		.byte	0xe
 4579 083b 49       		.byte	0x49
 4580 083c 44070000 		.4byte	0x744
 4581 0840 05       		.uleb128 0x5
 4582 0841 35080000 		.4byte	0x835
 4583 0845 12       		.uleb128 0x12
 4584 0846 241B0000 		.4byte	.LASF127
 4585 084a 0E       		.byte	0xe
 4586 084b 6E       		.byte	0x6e
 4587 084c 40080000 		.4byte	0x840
 4588 0850 02       		.uleb128 0x2
 4589 0851 93170000 		.4byte	.LASF128
 4590 0855 0D       		.byte	0xd
 4591 0856 34       		.byte	0x34
 4592 0857 D5060000 		.4byte	0x6d5
 4593 085b 0B       		.uleb128 0xb
 4594 085c 04       		.byte	0x4
 4595 085d 50080000 		.4byte	0x850
 4596 0861 0B       		.uleb128 0xb
 4597 0862 04       		.byte	0x4
 4598 0863 B8000000 		.4byte	0xb8
 4599 0867 0B       		.uleb128 0xb
 4600 0868 04       		.byte	0x4
 4601 0869 C3000000 		.4byte	0xc3
 4602 086d 1A       		.uleb128 0x1a
 4603 086e 07       		.byte	0x7
 4604 086f 01       		.byte	0x1
 4605 0870 42000000 		.4byte	0x42
 4606 0874 0F       		.byte	0xf
 4607 0875 23       		.byte	0x23
 4608 0876 8D080000 		.4byte	0x88d
 4609 087a 1B       		.uleb128 0x1b
 4610 087b 821A0000 		.4byte	.LASF129
 4611 087f 00       		.byte	0
 4612 0880 1B       		.uleb128 0x1b
 4613 0881 7D020000 		.4byte	.LASF130
 4614 0885 01       		.byte	0x1
 4615 0886 1B       		.uleb128 0x1b
 4616 0887 0B0A0000 		.4byte	.LASF131
 4617 088b 02       		.byte	0x2
ARM GAS  /tmp/ccOR9P9P.s 			page 82


 4618 088c 00       		.byte	0
 4619 088d 02       		.uleb128 0x2
 4620 088e DC050000 		.4byte	.LASF132
 4621 0892 0F       		.byte	0xf
 4622 0893 27       		.byte	0x27
 4623 0894 6D080000 		.4byte	0x86d
 4624 0898 1A       		.uleb128 0x1a
 4625 0899 07       		.byte	0x7
 4626 089a 01       		.byte	0x1
 4627 089b 42000000 		.4byte	0x42
 4628 089f 0F       		.byte	0xf
 4629 08a0 29       		.byte	0x29
 4630 08a1 B2080000 		.4byte	0x8b2
 4631 08a5 1B       		.uleb128 0x1b
 4632 08a6 A3110000 		.4byte	.LASF133
 4633 08aa 00       		.byte	0
 4634 08ab 1B       		.uleb128 0x1b
 4635 08ac 230C0000 		.4byte	.LASF134
 4636 08b0 01       		.byte	0x1
 4637 08b1 00       		.byte	0
 4638 08b2 02       		.uleb128 0x2
 4639 08b3 D30A0000 		.4byte	.LASF135
 4640 08b7 0F       		.byte	0xf
 4641 08b8 2C       		.byte	0x2c
 4642 08b9 98080000 		.4byte	0x898
 4643 08bd 1A       		.uleb128 0x1a
 4644 08be 07       		.byte	0x7
 4645 08bf 01       		.byte	0x1
 4646 08c0 42000000 		.4byte	0x42
 4647 08c4 0F       		.byte	0xf
 4648 08c5 2E       		.byte	0x2e
 4649 08c6 DD080000 		.4byte	0x8dd
 4650 08ca 1B       		.uleb128 0x1b
 4651 08cb 4F130000 		.4byte	.LASF136
 4652 08cf 00       		.byte	0
 4653 08d0 1B       		.uleb128 0x1b
 4654 08d1 64100000 		.4byte	.LASF137
 4655 08d5 01       		.byte	0x1
 4656 08d6 1B       		.uleb128 0x1b
 4657 08d7 DF190000 		.4byte	.LASF138
 4658 08db 02       		.byte	0x2
 4659 08dc 00       		.byte	0
 4660 08dd 02       		.uleb128 0x2
 4661 08de A10C0000 		.4byte	.LASF139
 4662 08e2 0F       		.byte	0xf
 4663 08e3 32       		.byte	0x32
 4664 08e4 BD080000 		.4byte	0x8bd
 4665 08e8 1A       		.uleb128 0x1a
 4666 08e9 07       		.byte	0x7
 4667 08ea 01       		.byte	0x1
 4668 08eb 42000000 		.4byte	0x42
 4669 08ef 0F       		.byte	0xf
 4670 08f0 34       		.byte	0x34
 4671 08f1 08090000 		.4byte	0x908
 4672 08f5 1B       		.uleb128 0x1b
 4673 08f6 63170000 		.4byte	.LASF140
 4674 08fa 00       		.byte	0
ARM GAS  /tmp/ccOR9P9P.s 			page 83


 4675 08fb 1B       		.uleb128 0x1b
 4676 08fc DD180000 		.4byte	.LASF141
 4677 0900 01       		.byte	0x1
 4678 0901 1B       		.uleb128 0x1b
 4679 0902 9D190000 		.4byte	.LASF142
 4680 0906 02       		.byte	0x2
 4681 0907 00       		.byte	0
 4682 0908 02       		.uleb128 0x2
 4683 0909 88010000 		.4byte	.LASF143
 4684 090d 0F       		.byte	0xf
 4685 090e 38       		.byte	0x38
 4686 090f E8080000 		.4byte	0x8e8
 4687 0913 1A       		.uleb128 0x1a
 4688 0914 07       		.byte	0x7
 4689 0915 01       		.byte	0x1
 4690 0916 42000000 		.4byte	0x42
 4691 091a 0F       		.byte	0xf
 4692 091b 3B       		.byte	0x3b
 4693 091c 39090000 		.4byte	0x939
 4694 0920 1B       		.uleb128 0x1b
 4695 0921 880B0000 		.4byte	.LASF144
 4696 0925 00       		.byte	0
 4697 0926 1B       		.uleb128 0x1b
 4698 0927 471B0000 		.4byte	.LASF145
 4699 092b 01       		.byte	0x1
 4700 092c 1B       		.uleb128 0x1b
 4701 092d DC030000 		.4byte	.LASF146
 4702 0931 02       		.byte	0x2
 4703 0932 1B       		.uleb128 0x1b
 4704 0933 31190000 		.4byte	.LASF147
 4705 0937 03       		.byte	0x3
 4706 0938 00       		.byte	0
 4707 0939 02       		.uleb128 0x2
 4708 093a D9060000 		.4byte	.LASF148
 4709 093e 0F       		.byte	0xf
 4710 093f 40       		.byte	0x40
 4711 0940 13090000 		.4byte	0x913
 4712 0944 1A       		.uleb128 0x1a
 4713 0945 07       		.byte	0x7
 4714 0946 01       		.byte	0x1
 4715 0947 42000000 		.4byte	0x42
 4716 094b 0F       		.byte	0xf
 4717 094c 4A       		.byte	0x4a
 4718 094d 6A090000 		.4byte	0x96a
 4719 0951 1B       		.uleb128 0x1b
 4720 0952 7D000000 		.4byte	.LASF149
 4721 0956 00       		.byte	0
 4722 0957 1B       		.uleb128 0x1b
 4723 0958 B1090000 		.4byte	.LASF150
 4724 095c 01       		.byte	0x1
 4725 095d 1B       		.uleb128 0x1b
 4726 095e FA1A0000 		.4byte	.LASF151
 4727 0962 02       		.byte	0x2
 4728 0963 1B       		.uleb128 0x1b
 4729 0964 7C0C0000 		.4byte	.LASF152
 4730 0968 03       		.byte	0x3
 4731 0969 00       		.byte	0
ARM GAS  /tmp/ccOR9P9P.s 			page 84


 4732 096a 02       		.uleb128 0x2
 4733 096b 30020000 		.4byte	.LASF153
 4734 096f 0F       		.byte	0xf
 4735 0970 4F       		.byte	0x4f
 4736 0971 44090000 		.4byte	0x944
 4737 0975 1A       		.uleb128 0x1a
 4738 0976 07       		.byte	0x7
 4739 0977 01       		.byte	0x1
 4740 0978 42000000 		.4byte	0x42
 4741 097c 0F       		.byte	0xf
 4742 097d 7B       		.byte	0x7b
 4743 097e A1090000 		.4byte	0x9a1
 4744 0982 1B       		.uleb128 0x1b
 4745 0983 B7110000 		.4byte	.LASF154
 4746 0987 00       		.byte	0
 4747 0988 1B       		.uleb128 0x1b
 4748 0989 9F140000 		.4byte	.LASF155
 4749 098d 01       		.byte	0x1
 4750 098e 1B       		.uleb128 0x1b
 4751 098f 890F0000 		.4byte	.LASF156
 4752 0993 02       		.byte	0x2
 4753 0994 1B       		.uleb128 0x1b
 4754 0995 F7080000 		.4byte	.LASF157
 4755 0999 03       		.byte	0x3
 4756 099a 1B       		.uleb128 0x1b
 4757 099b EE060000 		.4byte	.LASF158
 4758 099f 04       		.byte	0x4
 4759 09a0 00       		.byte	0
 4760 09a1 02       		.uleb128 0x2
 4761 09a2 E4150000 		.4byte	.LASF159
 4762 09a6 0F       		.byte	0xf
 4763 09a7 81       		.byte	0x81
 4764 09a8 75090000 		.4byte	0x975
 4765 09ac 03       		.uleb128 0x3
 4766 09ad 04       		.byte	0x4
 4767 09ae 04       		.byte	0x4
 4768 09af 98060000 		.4byte	.LASF160
 4769 09b3 1A       		.uleb128 0x1a
 4770 09b4 07       		.byte	0x7
 4771 09b5 01       		.byte	0x1
 4772 09b6 42000000 		.4byte	0x42
 4773 09ba 0F       		.byte	0xf
 4774 09bb 8D       		.byte	0x8d
 4775 09bc D9090000 		.4byte	0x9d9
 4776 09c0 1B       		.uleb128 0x1b
 4777 09c1 53100000 		.4byte	.LASF161
 4778 09c5 00       		.byte	0
 4779 09c6 1B       		.uleb128 0x1b
 4780 09c7 31160000 		.4byte	.LASF162
 4781 09cb 01       		.byte	0x1
 4782 09cc 1B       		.uleb128 0x1b
 4783 09cd 0D020000 		.4byte	.LASF163
 4784 09d1 02       		.byte	0x2
 4785 09d2 1B       		.uleb128 0x1b
 4786 09d3 CB190000 		.4byte	.LASF164
 4787 09d7 03       		.byte	0x3
 4788 09d8 00       		.byte	0
ARM GAS  /tmp/ccOR9P9P.s 			page 85


 4789 09d9 02       		.uleb128 0x2
 4790 09da 090F0000 		.4byte	.LASF165
 4791 09de 0F       		.byte	0xf
 4792 09df 92       		.byte	0x92
 4793 09e0 B3090000 		.4byte	0x9b3
 4794 09e4 1A       		.uleb128 0x1a
 4795 09e5 07       		.byte	0x7
 4796 09e6 01       		.byte	0x1
 4797 09e7 42000000 		.4byte	0x42
 4798 09eb 0F       		.byte	0xf
 4799 09ec 9F       		.byte	0x9f
 4800 09ed 0A0A0000 		.4byte	0xa0a
 4801 09f1 1B       		.uleb128 0x1b
 4802 09f2 4D010000 		.4byte	.LASF166
 4803 09f6 00       		.byte	0
 4804 09f7 1B       		.uleb128 0x1b
 4805 09f8 3E0F0000 		.4byte	.LASF167
 4806 09fc 01       		.byte	0x1
 4807 09fd 1B       		.uleb128 0x1b
 4808 09fe DD160000 		.4byte	.LASF168
 4809 0a02 02       		.byte	0x2
 4810 0a03 1B       		.uleb128 0x1b
 4811 0a04 8A0A0000 		.4byte	.LASF169
 4812 0a08 03       		.byte	0x3
 4813 0a09 00       		.byte	0
 4814 0a0a 02       		.uleb128 0x2
 4815 0a0b 99130000 		.4byte	.LASF170
 4816 0a0f 0F       		.byte	0xf
 4817 0a10 A4       		.byte	0xa4
 4818 0a11 E4090000 		.4byte	0x9e4
 4819 0a15 1A       		.uleb128 0x1a
 4820 0a16 07       		.byte	0x7
 4821 0a17 01       		.byte	0x1
 4822 0a18 42000000 		.4byte	0x42
 4823 0a1c 0F       		.byte	0xf
 4824 0a1d A6       		.byte	0xa6
 4825 0a1e 350A0000 		.4byte	0xa35
 4826 0a22 1B       		.uleb128 0x1b
 4827 0a23 22150000 		.4byte	.LASF171
 4828 0a27 00       		.byte	0
 4829 0a28 1B       		.uleb128 0x1b
 4830 0a29 00040000 		.4byte	.LASF172
 4831 0a2d 01       		.byte	0x1
 4832 0a2e 1B       		.uleb128 0x1b
 4833 0a2f 0C0C0000 		.4byte	.LASF173
 4834 0a33 02       		.byte	0x2
 4835 0a34 00       		.byte	0
 4836 0a35 02       		.uleb128 0x2
 4837 0a36 77060000 		.4byte	.LASF174
 4838 0a3a 0F       		.byte	0xf
 4839 0a3b AA       		.byte	0xaa
 4840 0a3c 150A0000 		.4byte	0xa15
 4841 0a40 1C       		.uleb128 0x1c
 4842 0a41 C801     		.2byte	0x1c8
 4843 0a43 0F       		.byte	0xf
 4844 0a44 AC       		.byte	0xac
 4845 0a45 3D100000 		.4byte	0x103d
ARM GAS  /tmp/ccOR9P9P.s 			page 86


 4846 0a49 08       		.uleb128 0x8
 4847 0a4a 191C0000 		.4byte	.LASF175
 4848 0a4e 0F       		.byte	0xf
 4849 0a4f AE       		.byte	0xae
 4850 0a50 8D080000 		.4byte	0x88d
 4851 0a54 00       		.byte	0
 4852 0a55 08       		.uleb128 0x8
 4853 0a56 351B0000 		.4byte	.LASF176
 4854 0a5a 0F       		.byte	0xf
 4855 0a5b AF       		.byte	0xaf
 4856 0a5c B2080000 		.4byte	0x8b2
 4857 0a60 01       		.byte	0x1
 4858 0a61 08       		.uleb128 0x8
 4859 0a62 EC080000 		.4byte	.LASF177
 4860 0a66 0F       		.byte	0xf
 4861 0a67 B0       		.byte	0xb0
 4862 0a68 6A090000 		.4byte	0x96a
 4863 0a6c 02       		.byte	0x2
 4864 0a6d 08       		.uleb128 0x8
 4865 0a6e 24020000 		.4byte	.LASF178
 4866 0a72 0F       		.byte	0xf
 4867 0a73 B1       		.byte	0xb1
 4868 0a74 DD080000 		.4byte	0x8dd
 4869 0a78 03       		.byte	0x3
 4870 0a79 08       		.uleb128 0x8
 4871 0a7a 8A150000 		.4byte	.LASF179
 4872 0a7e 0F       		.byte	0xf
 4873 0a7f B3       		.byte	0xb3
 4874 0a80 AC090000 		.4byte	0x9ac
 4875 0a84 04       		.byte	0x4
 4876 0a85 08       		.uleb128 0x8
 4877 0a86 3F090000 		.4byte	.LASF180
 4878 0a8a 0F       		.byte	0xf
 4879 0a8b B4       		.byte	0xb4
 4880 0a8c AC090000 		.4byte	0x9ac
 4881 0a90 08       		.byte	0x8
 4882 0a91 08       		.uleb128 0x8
 4883 0a92 520D0000 		.4byte	.LASF181
 4884 0a96 0F       		.byte	0xf
 4885 0a97 B5       		.byte	0xb5
 4886 0a98 AC090000 		.4byte	0x9ac
 4887 0a9c 0C       		.byte	0xc
 4888 0a9d 08       		.uleb128 0x8
 4889 0a9e CB030000 		.4byte	.LASF182
 4890 0aa2 0F       		.byte	0xf
 4891 0aa3 B6       		.byte	0xb6
 4892 0aa4 AC090000 		.4byte	0x9ac
 4893 0aa8 10       		.byte	0x10
 4894 0aa9 08       		.uleb128 0x8
 4895 0aaa D2130000 		.4byte	.LASF183
 4896 0aae 0F       		.byte	0xf
 4897 0aaf B7       		.byte	0xb7
 4898 0ab0 AC090000 		.4byte	0x9ac
 4899 0ab4 14       		.byte	0x14
 4900 0ab5 08       		.uleb128 0x8
 4901 0ab6 66130000 		.4byte	.LASF184
 4902 0aba 0F       		.byte	0xf
ARM GAS  /tmp/ccOR9P9P.s 			page 87


 4903 0abb B8       		.byte	0xb8
 4904 0abc AC090000 		.4byte	0x9ac
 4905 0ac0 18       		.byte	0x18
 4906 0ac1 08       		.uleb128 0x8
 4907 0ac2 180E0000 		.4byte	.LASF185
 4908 0ac6 0F       		.byte	0xf
 4909 0ac7 B9       		.byte	0xb9
 4910 0ac8 AC090000 		.4byte	0x9ac
 4911 0acc 1C       		.byte	0x1c
 4912 0acd 08       		.uleb128 0x8
 4913 0ace 94030000 		.4byte	.LASF186
 4914 0ad2 0F       		.byte	0xf
 4915 0ad3 BA       		.byte	0xba
 4916 0ad4 AC090000 		.4byte	0x9ac
 4917 0ad8 20       		.byte	0x20
 4918 0ad9 08       		.uleb128 0x8
 4919 0ada D31C0000 		.4byte	.LASF187
 4920 0ade 0F       		.byte	0xf
 4921 0adf BB       		.byte	0xbb
 4922 0ae0 AC090000 		.4byte	0x9ac
 4923 0ae4 24       		.byte	0x24
 4924 0ae5 08       		.uleb128 0x8
 4925 0ae6 C40F0000 		.4byte	.LASF188
 4926 0aea 0F       		.byte	0xf
 4927 0aeb BC       		.byte	0xbc
 4928 0aec AC090000 		.4byte	0x9ac
 4929 0af0 28       		.byte	0x28
 4930 0af1 08       		.uleb128 0x8
 4931 0af2 53020000 		.4byte	.LASF189
 4932 0af6 0F       		.byte	0xf
 4933 0af7 BD       		.byte	0xbd
 4934 0af8 AC090000 		.4byte	0x9ac
 4935 0afc 2C       		.byte	0x2c
 4936 0afd 08       		.uleb128 0x8
 4937 0afe 4B170000 		.4byte	.LASF190
 4938 0b02 0F       		.byte	0xf
 4939 0b03 BE       		.byte	0xbe
 4940 0b04 AC090000 		.4byte	0x9ac
 4941 0b08 30       		.byte	0x30
 4942 0b09 08       		.uleb128 0x8
 4943 0b0a 84060000 		.4byte	.LASF191
 4944 0b0e 0F       		.byte	0xf
 4945 0b0f BF       		.byte	0xbf
 4946 0b10 AC090000 		.4byte	0x9ac
 4947 0b14 34       		.byte	0x34
 4948 0b15 08       		.uleb128 0x8
 4949 0b16 E90B0000 		.4byte	.LASF192
 4950 0b1a 0F       		.byte	0xf
 4951 0b1b C0       		.byte	0xc0
 4952 0b1c AC090000 		.4byte	0x9ac
 4953 0b20 38       		.byte	0x38
 4954 0b21 08       		.uleb128 0x8
 4955 0b22 1D050000 		.4byte	.LASF193
 4956 0b26 0F       		.byte	0xf
 4957 0b27 C1       		.byte	0xc1
 4958 0b28 3D100000 		.4byte	0x103d
 4959 0b2c 3C       		.byte	0x3c
ARM GAS  /tmp/ccOR9P9P.s 			page 88


 4960 0b2d 08       		.uleb128 0x8
 4961 0b2e DF0D0000 		.4byte	.LASF194
 4962 0b32 0F       		.byte	0xf
 4963 0b33 C2       		.byte	0xc2
 4964 0b34 AC090000 		.4byte	0x9ac
 4965 0b38 40       		.byte	0x40
 4966 0b39 08       		.uleb128 0x8
 4967 0b3a 0B170000 		.4byte	.LASF195
 4968 0b3e 0F       		.byte	0xf
 4969 0b3f C3       		.byte	0xc3
 4970 0b40 AC090000 		.4byte	0x9ac
 4971 0b44 44       		.byte	0x44
 4972 0b45 08       		.uleb128 0x8
 4973 0b46 E51C0000 		.4byte	.LASF196
 4974 0b4a 0F       		.byte	0xf
 4975 0b4b C4       		.byte	0xc4
 4976 0b4c AC090000 		.4byte	0x9ac
 4977 0b50 48       		.byte	0x48
 4978 0b51 08       		.uleb128 0x8
 4979 0b52 C20A0000 		.4byte	.LASF197
 4980 0b56 0F       		.byte	0xf
 4981 0b57 C5       		.byte	0xc5
 4982 0b58 AC090000 		.4byte	0x9ac
 4983 0b5c 4C       		.byte	0x4c
 4984 0b5d 08       		.uleb128 0x8
 4985 0b5e 09010000 		.4byte	.LASF198
 4986 0b62 0F       		.byte	0xf
 4987 0b63 C6       		.byte	0xc6
 4988 0b64 AC090000 		.4byte	0x9ac
 4989 0b68 50       		.byte	0x50
 4990 0b69 08       		.uleb128 0x8
 4991 0b6a 3D040000 		.4byte	.LASF199
 4992 0b6e 0F       		.byte	0xf
 4993 0b6f C7       		.byte	0xc7
 4994 0b70 AC090000 		.4byte	0x9ac
 4995 0b74 54       		.byte	0x54
 4996 0b75 08       		.uleb128 0x8
 4997 0b76 A7020000 		.4byte	.LASF200
 4998 0b7a 0F       		.byte	0xf
 4999 0b7b C8       		.byte	0xc8
 5000 0b7c AC090000 		.4byte	0x9ac
 5001 0b80 58       		.byte	0x58
 5002 0b81 08       		.uleb128 0x8
 5003 0b82 A2130000 		.4byte	.LASF201
 5004 0b86 0F       		.byte	0xf
 5005 0b87 C9       		.byte	0xc9
 5006 0b88 AC090000 		.4byte	0x9ac
 5007 0b8c 5C       		.byte	0x5c
 5008 0b8d 08       		.uleb128 0x8
 5009 0b8e AB1B0000 		.4byte	.LASF202
 5010 0b92 0F       		.byte	0xf
 5011 0b93 CA       		.byte	0xca
 5012 0b94 AC090000 		.4byte	0x9ac
 5013 0b98 60       		.byte	0x60
 5014 0b99 08       		.uleb128 0x8
 5015 0b9a D90F0000 		.4byte	.LASF203
 5016 0b9e 0F       		.byte	0xf
ARM GAS  /tmp/ccOR9P9P.s 			page 89


 5017 0b9f CB       		.byte	0xcb
 5018 0ba0 AC090000 		.4byte	0x9ac
 5019 0ba4 64       		.byte	0x64
 5020 0ba5 08       		.uleb128 0x8
 5021 0ba6 4B190000 		.4byte	.LASF204
 5022 0baa 0F       		.byte	0xf
 5023 0bab CC       		.byte	0xcc
 5024 0bac AC090000 		.4byte	0x9ac
 5025 0bb0 68       		.byte	0x68
 5026 0bb1 08       		.uleb128 0x8
 5027 0bb2 640A0000 		.4byte	.LASF205
 5028 0bb6 0F       		.byte	0xf
 5029 0bb7 CE       		.byte	0xce
 5030 0bb8 AC090000 		.4byte	0x9ac
 5031 0bbc 6C       		.byte	0x6c
 5032 0bbd 08       		.uleb128 0x8
 5033 0bbe 2A180000 		.4byte	.LASF206
 5034 0bc2 0F       		.byte	0xf
 5035 0bc3 CF       		.byte	0xcf
 5036 0bc4 AC090000 		.4byte	0x9ac
 5037 0bc8 70       		.byte	0x70
 5038 0bc9 08       		.uleb128 0x8
 5039 0bca 4C0F0000 		.4byte	.LASF207
 5040 0bce 0F       		.byte	0xf
 5041 0bcf D0       		.byte	0xd0
 5042 0bd0 AC090000 		.4byte	0x9ac
 5043 0bd4 74       		.byte	0x74
 5044 0bd5 08       		.uleb128 0x8
 5045 0bd6 E60A0000 		.4byte	.LASF208
 5046 0bda 0F       		.byte	0xf
 5047 0bdb D1       		.byte	0xd1
 5048 0bdc AC090000 		.4byte	0x9ac
 5049 0be0 78       		.byte	0x78
 5050 0be1 08       		.uleb128 0x8
 5051 0be2 2B110000 		.4byte	.LASF209
 5052 0be6 0F       		.byte	0xf
 5053 0be7 D2       		.byte	0xd2
 5054 0be8 AC090000 		.4byte	0x9ac
 5055 0bec 7C       		.byte	0x7c
 5056 0bed 08       		.uleb128 0x8
 5057 0bee 0C0D0000 		.4byte	.LASF210
 5058 0bf2 0F       		.byte	0xf
 5059 0bf3 D3       		.byte	0xd3
 5060 0bf4 AC090000 		.4byte	0x9ac
 5061 0bf8 80       		.byte	0x80
 5062 0bf9 08       		.uleb128 0x8
 5063 0bfa 4D090000 		.4byte	.LASF211
 5064 0bfe 0F       		.byte	0xf
 5065 0bff D5       		.byte	0xd5
 5066 0c00 AC090000 		.4byte	0x9ac
 5067 0c04 84       		.byte	0x84
 5068 0c05 08       		.uleb128 0x8
 5069 0c06 0F140000 		.4byte	.LASF212
 5070 0c0a 0F       		.byte	0xf
 5071 0c0b D6       		.byte	0xd6
 5072 0c0c AC090000 		.4byte	0x9ac
 5073 0c10 88       		.byte	0x88
ARM GAS  /tmp/ccOR9P9P.s 			page 90


 5074 0c11 08       		.uleb128 0x8
 5075 0c12 241A0000 		.4byte	.LASF213
 5076 0c16 0F       		.byte	0xf
 5077 0c17 D7       		.byte	0xd7
 5078 0c18 AC090000 		.4byte	0x9ac
 5079 0c1c 8C       		.byte	0x8c
 5080 0c1d 08       		.uleb128 0x8
 5081 0c1e 4B160000 		.4byte	.LASF214
 5082 0c22 0F       		.byte	0xf
 5083 0c23 D8       		.byte	0xd8
 5084 0c24 AC090000 		.4byte	0x9ac
 5085 0c28 90       		.byte	0x90
 5086 0c29 08       		.uleb128 0x8
 5087 0c2a A6160000 		.4byte	.LASF215
 5088 0c2e 0F       		.byte	0xf
 5089 0c2f D9       		.byte	0xd9
 5090 0c30 AC090000 		.4byte	0x9ac
 5091 0c34 94       		.byte	0x94
 5092 0c35 08       		.uleb128 0x8
 5093 0c36 C9180000 		.4byte	.LASF216
 5094 0c3a 0F       		.byte	0xf
 5095 0c3b DA       		.byte	0xda
 5096 0c3c AC090000 		.4byte	0x9ac
 5097 0c40 98       		.byte	0x98
 5098 0c41 08       		.uleb128 0x8
 5099 0c42 4D080000 		.4byte	.LASF217
 5100 0c46 0F       		.byte	0xf
 5101 0c47 DB       		.byte	0xdb
 5102 0c48 AC090000 		.4byte	0x9ac
 5103 0c4c 9C       		.byte	0x9c
 5104 0c4d 08       		.uleb128 0x8
 5105 0c4e 60080000 		.4byte	.LASF218
 5106 0c52 0F       		.byte	0xf
 5107 0c53 DD       		.byte	0xdd
 5108 0c54 44100000 		.4byte	0x1044
 5109 0c58 A0       		.byte	0xa0
 5110 0c59 08       		.uleb128 0x8
 5111 0c5a 9D0A0000 		.4byte	.LASF219
 5112 0c5e 0F       		.byte	0xf
 5113 0c5f DE       		.byte	0xde
 5114 0c60 AC090000 		.4byte	0x9ac
 5115 0c64 A8       		.byte	0xa8
 5116 0c65 08       		.uleb128 0x8
 5117 0c66 A7050000 		.4byte	.LASF220
 5118 0c6a 0F       		.byte	0xf
 5119 0c6b E0       		.byte	0xe0
 5120 0c6c AC090000 		.4byte	0x9ac
 5121 0c70 AC       		.byte	0xac
 5122 0c71 08       		.uleb128 0x8
 5123 0c72 87050000 		.4byte	.LASF221
 5124 0c76 0F       		.byte	0xf
 5125 0c77 E1       		.byte	0xe1
 5126 0c78 AC090000 		.4byte	0x9ac
 5127 0c7c B0       		.byte	0xb0
 5128 0c7d 08       		.uleb128 0x8
 5129 0c7e A90B0000 		.4byte	.LASF222
 5130 0c82 0F       		.byte	0xf
ARM GAS  /tmp/ccOR9P9P.s 			page 91


 5131 0c83 E2       		.byte	0xe2
 5132 0c84 AC090000 		.4byte	0x9ac
 5133 0c88 B4       		.byte	0xb4
 5134 0c89 08       		.uleb128 0x8
 5135 0c8a 67020000 		.4byte	.LASF223
 5136 0c8e 0F       		.byte	0xf
 5137 0c8f E3       		.byte	0xe3
 5138 0c90 AC090000 		.4byte	0x9ac
 5139 0c94 B8       		.byte	0xb8
 5140 0c95 08       		.uleb128 0x8
 5141 0c96 CE0E0000 		.4byte	.LASF224
 5142 0c9a 0F       		.byte	0xf
 5143 0c9b E4       		.byte	0xe4
 5144 0c9c AC090000 		.4byte	0x9ac
 5145 0ca0 BC       		.byte	0xbc
 5146 0ca1 08       		.uleb128 0x8
 5147 0ca2 3D0D0000 		.4byte	.LASF225
 5148 0ca6 0F       		.byte	0xf
 5149 0ca7 E5       		.byte	0xe5
 5150 0ca8 3D100000 		.4byte	0x103d
 5151 0cac C0       		.byte	0xc0
 5152 0cad 08       		.uleb128 0x8
 5153 0cae 8C100000 		.4byte	.LASF226
 5154 0cb2 0F       		.byte	0xf
 5155 0cb3 E6       		.byte	0xe6
 5156 0cb4 AC090000 		.4byte	0x9ac
 5157 0cb8 C4       		.byte	0xc4
 5158 0cb9 08       		.uleb128 0x8
 5159 0cba 15060000 		.4byte	.LASF227
 5160 0cbe 0F       		.byte	0xf
 5161 0cbf E7       		.byte	0xe7
 5162 0cc0 AC090000 		.4byte	0x9ac
 5163 0cc4 C8       		.byte	0xc8
 5164 0cc5 08       		.uleb128 0x8
 5165 0cc6 4F180000 		.4byte	.LASF228
 5166 0cca 0F       		.byte	0xf
 5167 0ccb E8       		.byte	0xe8
 5168 0ccc AC090000 		.4byte	0x9ac
 5169 0cd0 CC       		.byte	0xcc
 5170 0cd1 08       		.uleb128 0x8
 5171 0cd2 A41C0000 		.4byte	.LASF229
 5172 0cd6 0F       		.byte	0xf
 5173 0cd7 E9       		.byte	0xe9
 5174 0cd8 AC090000 		.4byte	0x9ac
 5175 0cdc D0       		.byte	0xd0
 5176 0cdd 08       		.uleb128 0x8
 5177 0cde F70C0000 		.4byte	.LASF230
 5178 0ce2 0F       		.byte	0xf
 5179 0ce3 EA       		.byte	0xea
 5180 0ce4 AC090000 		.4byte	0x9ac
 5181 0ce8 D4       		.byte	0xd4
 5182 0ce9 08       		.uleb128 0x8
 5183 0cea 06070000 		.4byte	.LASF231
 5184 0cee 0F       		.byte	0xf
 5185 0cef EB       		.byte	0xeb
 5186 0cf0 AC090000 		.4byte	0x9ac
 5187 0cf4 D8       		.byte	0xd8
ARM GAS  /tmp/ccOR9P9P.s 			page 92


 5188 0cf5 08       		.uleb128 0x8
 5189 0cf6 AE100000 		.4byte	.LASF232
 5190 0cfa 0F       		.byte	0xf
 5191 0cfb EC       		.byte	0xec
 5192 0cfc AC090000 		.4byte	0x9ac
 5193 0d00 DC       		.byte	0xdc
 5194 0d01 08       		.uleb128 0x8
 5195 0d02 DE100000 		.4byte	.LASF233
 5196 0d06 0F       		.byte	0xf
 5197 0d07 ED       		.byte	0xed
 5198 0d08 AC090000 		.4byte	0x9ac
 5199 0d0c E0       		.byte	0xe0
 5200 0d0d 08       		.uleb128 0x8
 5201 0d0e 12130000 		.4byte	.LASF234
 5202 0d12 0F       		.byte	0xf
 5203 0d13 EE       		.byte	0xee
 5204 0d14 AC090000 		.4byte	0x9ac
 5205 0d18 E4       		.byte	0xe4
 5206 0d19 08       		.uleb128 0x8
 5207 0d1a D8010000 		.4byte	.LASF235
 5208 0d1e 0F       		.byte	0xf
 5209 0d1f EF       		.byte	0xef
 5210 0d20 AC090000 		.4byte	0x9ac
 5211 0d24 E8       		.byte	0xe8
 5212 0d25 08       		.uleb128 0x8
 5213 0d26 38000000 		.4byte	.LASF236
 5214 0d2a 0F       		.byte	0xf
 5215 0d2b F0       		.byte	0xf0
 5216 0d2c AC090000 		.4byte	0x9ac
 5217 0d30 EC       		.byte	0xec
 5218 0d31 08       		.uleb128 0x8
 5219 0d32 79100000 		.4byte	.LASF237
 5220 0d36 0F       		.byte	0xf
 5221 0d37 F1       		.byte	0xf1
 5222 0d38 AC090000 		.4byte	0x9ac
 5223 0d3c F0       		.byte	0xf0
 5224 0d3d 08       		.uleb128 0x8
 5225 0d3e 33100000 		.4byte	.LASF238
 5226 0d42 0F       		.byte	0xf
 5227 0d43 F2       		.byte	0xf2
 5228 0d44 AC090000 		.4byte	0x9ac
 5229 0d48 F4       		.byte	0xf4
 5230 0d49 08       		.uleb128 0x8
 5231 0d4a BC020000 		.4byte	.LASF239
 5232 0d4e 0F       		.byte	0xf
 5233 0d4f F3       		.byte	0xf3
 5234 0d50 AC090000 		.4byte	0x9ac
 5235 0d54 F8       		.byte	0xf8
 5236 0d55 08       		.uleb128 0x8
 5237 0d56 92020000 		.4byte	.LASF240
 5238 0d5a 0F       		.byte	0xf
 5239 0d5b F4       		.byte	0xf4
 5240 0d5c AC090000 		.4byte	0x9ac
 5241 0d60 FC       		.byte	0xfc
 5242 0d61 1D       		.uleb128 0x1d
 5243 0d62 F5150000 		.4byte	.LASF241
 5244 0d66 0F       		.byte	0xf
ARM GAS  /tmp/ccOR9P9P.s 			page 93


 5245 0d67 F5       		.byte	0xf5
 5246 0d68 AC090000 		.4byte	0x9ac
 5247 0d6c 0001     		.2byte	0x100
 5248 0d6e 1D       		.uleb128 0x1d
 5249 0d6f BE080000 		.4byte	.LASF242
 5250 0d73 0F       		.byte	0xf
 5251 0d74 F6       		.byte	0xf6
 5252 0d75 AC090000 		.4byte	0x9ac
 5253 0d79 0401     		.2byte	0x104
 5254 0d7b 1D       		.uleb128 0x1d
 5255 0d7c 72050000 		.4byte	.LASF243
 5256 0d80 0F       		.byte	0xf
 5257 0d81 F7       		.byte	0xf7
 5258 0d82 AC090000 		.4byte	0x9ac
 5259 0d86 0801     		.2byte	0x108
 5260 0d88 1D       		.uleb128 0x1d
 5261 0d89 EC120000 		.4byte	.LASF244
 5262 0d8d 0F       		.byte	0xf
 5263 0d8e F8       		.byte	0xf8
 5264 0d8f AC090000 		.4byte	0x9ac
 5265 0d93 0C01     		.2byte	0x10c
 5266 0d95 1D       		.uleb128 0x1d
 5267 0d96 C6100000 		.4byte	.LASF245
 5268 0d9a 0F       		.byte	0xf
 5269 0d9b F9       		.byte	0xf9
 5270 0d9c AC090000 		.4byte	0x9ac
 5271 0da0 1001     		.2byte	0x110
 5272 0da2 1D       		.uleb128 0x1d
 5273 0da3 990B0000 		.4byte	.LASF246
 5274 0da7 0F       		.byte	0xf
 5275 0da8 FA       		.byte	0xfa
 5276 0da9 08090000 		.4byte	0x908
 5277 0dad 1401     		.2byte	0x114
 5278 0daf 1D       		.uleb128 0x1d
 5279 0db0 74120000 		.4byte	.LASF247
 5280 0db4 0F       		.byte	0xf
 5281 0db5 FB       		.byte	0xfb
 5282 0db6 54100000 		.4byte	0x1054
 5283 0dba 1501     		.2byte	0x115
 5284 0dbc 1D       		.uleb128 0x1d
 5285 0dbd F7130000 		.4byte	.LASF248
 5286 0dc1 0F       		.byte	0xf
 5287 0dc2 FC       		.byte	0xfc
 5288 0dc3 AC090000 		.4byte	0x9ac
 5289 0dc7 2001     		.2byte	0x120
 5290 0dc9 1D       		.uleb128 0x1d
 5291 0dca BE170000 		.4byte	.LASF249
 5292 0dce 0F       		.byte	0xf
 5293 0dcf FD       		.byte	0xfd
 5294 0dd0 3D100000 		.4byte	0x103d
 5295 0dd4 2401     		.2byte	0x124
 5296 0dd6 1D       		.uleb128 0x1d
 5297 0dd7 BE150000 		.4byte	.LASF250
 5298 0ddb 0F       		.byte	0xf
 5299 0ddc FE       		.byte	0xfe
 5300 0ddd 3D100000 		.4byte	0x103d
 5301 0de1 2501     		.2byte	0x125
ARM GAS  /tmp/ccOR9P9P.s 			page 94


 5302 0de3 1D       		.uleb128 0x1d
 5303 0de4 B2190000 		.4byte	.LASF251
 5304 0de8 0F       		.byte	0xf
 5305 0de9 FF       		.byte	0xff
 5306 0dea AC090000 		.4byte	0x9ac
 5307 0dee 2801     		.2byte	0x128
 5308 0df0 1E       		.uleb128 0x1e
 5309 0df1 871B0000 		.4byte	.LASF252
 5310 0df5 0F       		.byte	0xf
 5311 0df6 0001     		.2byte	0x100
 5312 0df8 3D100000 		.4byte	0x103d
 5313 0dfc 2C01     		.2byte	0x12c
 5314 0dfe 1E       		.uleb128 0x1e
 5315 0dff BB1C0000 		.4byte	.LASF253
 5316 0e03 0F       		.byte	0xf
 5317 0e04 0101     		.2byte	0x101
 5318 0e06 AC090000 		.4byte	0x9ac
 5319 0e0a 3001     		.2byte	0x130
 5320 0e0c 1E       		.uleb128 0x1e
 5321 0e0d 6E180000 		.4byte	.LASF254
 5322 0e11 0F       		.byte	0xf
 5323 0e12 0201     		.2byte	0x102
 5324 0e14 AC090000 		.4byte	0x9ac
 5325 0e18 3401     		.2byte	0x134
 5326 0e1a 1E       		.uleb128 0x1e
 5327 0e1b 2B0B0000 		.4byte	.LASF255
 5328 0e1f 0F       		.byte	0xf
 5329 0e20 0401     		.2byte	0x104
 5330 0e22 9F000000 		.4byte	0x9f
 5331 0e26 3801     		.2byte	0x138
 5332 0e28 1E       		.uleb128 0x1e
 5333 0e29 5E050000 		.4byte	.LASF256
 5334 0e2d 0F       		.byte	0xf
 5335 0e2e 0501     		.2byte	0x105
 5336 0e30 9F000000 		.4byte	0x9f
 5337 0e34 3C01     		.2byte	0x13c
 5338 0e36 1E       		.uleb128 0x1e
 5339 0e37 250A0000 		.4byte	.LASF257
 5340 0e3b 0F       		.byte	0xf
 5341 0e3c 0601     		.2byte	0x106
 5342 0e3e AC090000 		.4byte	0x9ac
 5343 0e42 4001     		.2byte	0x140
 5344 0e44 1E       		.uleb128 0x1e
 5345 0e45 54150000 		.4byte	.LASF258
 5346 0e49 0F       		.byte	0xf
 5347 0e4a 0701     		.2byte	0x107
 5348 0e4c AC090000 		.4byte	0x9ac
 5349 0e50 4401     		.2byte	0x144
 5350 0e52 1E       		.uleb128 0x1e
 5351 0e53 19000000 		.4byte	.LASF259
 5352 0e57 0F       		.byte	0xf
 5353 0e58 0801     		.2byte	0x108
 5354 0e5a AC090000 		.4byte	0x9ac
 5355 0e5e 4801     		.2byte	0x148
 5356 0e60 1E       		.uleb128 0x1e
 5357 0e61 DB1A0000 		.4byte	.LASF260
 5358 0e65 0F       		.byte	0xf
ARM GAS  /tmp/ccOR9P9P.s 			page 95


 5359 0e66 0A01     		.2byte	0x10a
 5360 0e68 AC090000 		.4byte	0x9ac
 5361 0e6c 4C01     		.2byte	0x14c
 5362 0e6e 1E       		.uleb128 0x1e
 5363 0e6f 46130000 		.4byte	.LASF261
 5364 0e73 0F       		.byte	0xf
 5365 0e74 0B01     		.2byte	0x10b
 5366 0e76 AC090000 		.4byte	0x9ac
 5367 0e7a 5001     		.2byte	0x150
 5368 0e7c 1E       		.uleb128 0x1e
 5369 0e7d 791A0000 		.4byte	.LASF262
 5370 0e81 0F       		.byte	0xf
 5371 0e82 0C01     		.2byte	0x10c
 5372 0e84 AC090000 		.4byte	0x9ac
 5373 0e88 5401     		.2byte	0x154
 5374 0e8a 1E       		.uleb128 0x1e
 5375 0e8b A6010000 		.4byte	.LASF263
 5376 0e8f 0F       		.byte	0xf
 5377 0e90 0D01     		.2byte	0x10d
 5378 0e92 AC090000 		.4byte	0x9ac
 5379 0e96 5801     		.2byte	0x158
 5380 0e98 1E       		.uleb128 0x1e
 5381 0e99 86190000 		.4byte	.LASF264
 5382 0e9d 0F       		.byte	0xf
 5383 0e9e 0E01     		.2byte	0x10e
 5384 0ea0 AC090000 		.4byte	0x9ac
 5385 0ea4 5C01     		.2byte	0x15c
 5386 0ea6 1E       		.uleb128 0x1e
 5387 0ea7 EA010000 		.4byte	.LASF265
 5388 0eab 0F       		.byte	0xf
 5389 0eac 0F01     		.2byte	0x10f
 5390 0eae 3D100000 		.4byte	0x103d
 5391 0eb2 6001     		.2byte	0x160
 5392 0eb4 1E       		.uleb128 0x1e
 5393 0eb5 EB160000 		.4byte	.LASF266
 5394 0eb9 0F       		.byte	0xf
 5395 0eba 1101     		.2byte	0x111
 5396 0ebc AC090000 		.4byte	0x9ac
 5397 0ec0 6401     		.2byte	0x164
 5398 0ec2 1E       		.uleb128 0x1e
 5399 0ec3 BD160000 		.4byte	.LASF267
 5400 0ec7 0F       		.byte	0xf
 5401 0ec8 1201     		.2byte	0x112
 5402 0eca AC090000 		.4byte	0x9ac
 5403 0ece 6801     		.2byte	0x168
 5404 0ed0 1E       		.uleb128 0x1e
 5405 0ed1 83160000 		.4byte	.LASF268
 5406 0ed5 0F       		.byte	0xf
 5407 0ed6 1301     		.2byte	0x113
 5408 0ed8 AC090000 		.4byte	0x9ac
 5409 0edc 6C01     		.2byte	0x16c
 5410 0ede 1E       		.uleb128 0x1e
 5411 0edf 7A0A0000 		.4byte	.LASF269
 5412 0ee3 0F       		.byte	0xf
 5413 0ee4 1401     		.2byte	0x114
 5414 0ee6 AC090000 		.4byte	0x9ac
 5415 0eea 7001     		.2byte	0x170
ARM GAS  /tmp/ccOR9P9P.s 			page 96


 5416 0eec 1E       		.uleb128 0x1e
 5417 0eed 0B1C0000 		.4byte	.LASF270
 5418 0ef1 0F       		.byte	0xf
 5419 0ef2 1501     		.2byte	0x115
 5420 0ef4 AC090000 		.4byte	0x9ac
 5421 0ef8 7401     		.2byte	0x174
 5422 0efa 1E       		.uleb128 0x1e
 5423 0efb 630B0000 		.4byte	.LASF271
 5424 0eff 0F       		.byte	0xf
 5425 0f00 1701     		.2byte	0x117
 5426 0f02 AC090000 		.4byte	0x9ac
 5427 0f06 7801     		.2byte	0x178
 5428 0f08 1E       		.uleb128 0x1e
 5429 0f09 1C0B0000 		.4byte	.LASF272
 5430 0f0d 0F       		.byte	0xf
 5431 0f0e 1801     		.2byte	0x118
 5432 0f10 AC090000 		.4byte	0x9ac
 5433 0f14 7C01     		.2byte	0x17c
 5434 0f16 1E       		.uleb128 0x1e
 5435 0f17 350D0000 		.4byte	.LASF273
 5436 0f1b 0F       		.byte	0xf
 5437 0f1c 1901     		.2byte	0x119
 5438 0f1e AC090000 		.4byte	0x9ac
 5439 0f22 8001     		.2byte	0x180
 5440 0f24 1E       		.uleb128 0x1e
 5441 0f25 FB0B0000 		.4byte	.LASF274
 5442 0f29 0F       		.byte	0xf
 5443 0f2a 1A01     		.2byte	0x11a
 5444 0f2c AC090000 		.4byte	0x9ac
 5445 0f30 8401     		.2byte	0x184
 5446 0f32 1E       		.uleb128 0x1e
 5447 0f33 3E100000 		.4byte	.LASF275
 5448 0f37 0F       		.byte	0xf
 5449 0f38 1C01     		.2byte	0x11c
 5450 0f3a D3000000 		.4byte	0xd3
 5451 0f3e 8801     		.2byte	0x188
 5452 0f40 1E       		.uleb128 0x1e
 5453 0f41 96050000 		.4byte	.LASF276
 5454 0f45 0F       		.byte	0xf
 5455 0f46 1D01     		.2byte	0x11d
 5456 0f48 AC090000 		.4byte	0x9ac
 5457 0f4c 8C01     		.2byte	0x18c
 5458 0f4e 1E       		.uleb128 0x1e
 5459 0f4f 0D1A0000 		.4byte	.LASF277
 5460 0f53 0F       		.byte	0xf
 5461 0f54 1E01     		.2byte	0x11e
 5462 0f56 AC090000 		.4byte	0x9ac
 5463 0f5a 9001     		.2byte	0x190
 5464 0f5c 1E       		.uleb128 0x1e
 5465 0f5d EA100000 		.4byte	.LASF278
 5466 0f61 0F       		.byte	0xf
 5467 0f62 1F01     		.2byte	0x11f
 5468 0f64 E3000000 		.4byte	0xe3
 5469 0f68 9401     		.2byte	0x194
 5470 0f6a 1E       		.uleb128 0x1e
 5471 0f6b 090B0000 		.4byte	.LASF279
 5472 0f6f 0F       		.byte	0xf
ARM GAS  /tmp/ccOR9P9P.s 			page 97


 5473 0f70 2001     		.2byte	0x120
 5474 0f72 A1090000 		.4byte	0x9a1
 5475 0f76 9801     		.2byte	0x198
 5476 0f78 1E       		.uleb128 0x1e
 5477 0f79 C5010000 		.4byte	.LASF280
 5478 0f7d 0F       		.byte	0xf
 5479 0f7e 2101     		.2byte	0x121
 5480 0f80 3D100000 		.4byte	0x103d
 5481 0f84 9901     		.2byte	0x199
 5482 0f86 1E       		.uleb128 0x1e
 5483 0f87 2B040000 		.4byte	.LASF281
 5484 0f8b 0F       		.byte	0xf
 5485 0f8c 2201     		.2byte	0x122
 5486 0f8e D9090000 		.4byte	0x9d9
 5487 0f92 9A01     		.2byte	0x19a
 5488 0f94 1E       		.uleb128 0x1e
 5489 0f95 1A010000 		.4byte	.LASF282
 5490 0f99 0F       		.byte	0xf
 5491 0f9a 2301     		.2byte	0x123
 5492 0f9c 9F000000 		.4byte	0x9f
 5493 0fa0 9C01     		.2byte	0x19c
 5494 0fa2 1E       		.uleb128 0x1e
 5495 0fa3 AE150000 		.4byte	.LASF283
 5496 0fa7 0F       		.byte	0xf
 5497 0fa8 2401     		.2byte	0x124
 5498 0faa AC090000 		.4byte	0x9ac
 5499 0fae A001     		.2byte	0x1a0
 5500 0fb0 1E       		.uleb128 0x1e
 5501 0fb1 82080000 		.4byte	.LASF284
 5502 0fb5 0F       		.byte	0xf
 5503 0fb6 2501     		.2byte	0x125
 5504 0fb8 AC090000 		.4byte	0x9ac
 5505 0fbc A401     		.2byte	0x1a4
 5506 0fbe 1E       		.uleb128 0x1e
 5507 0fbf F2000000 		.4byte	.LASF285
 5508 0fc3 0F       		.byte	0xf
 5509 0fc4 2601     		.2byte	0x126
 5510 0fc6 AC090000 		.4byte	0x9ac
 5511 0fca A801     		.2byte	0x1a8
 5512 0fcc 1E       		.uleb128 0x1e
 5513 0fcd 601B0000 		.4byte	.LASF286
 5514 0fd1 0F       		.byte	0xf
 5515 0fd2 2701     		.2byte	0x127
 5516 0fd4 AC090000 		.4byte	0x9ac
 5517 0fd8 AC01     		.2byte	0x1ac
 5518 0fda 1E       		.uleb128 0x1e
 5519 0fdb 790B0000 		.4byte	.LASF287
 5520 0fdf 0F       		.byte	0xf
 5521 0fe0 2801     		.2byte	0x128
 5522 0fe2 39090000 		.4byte	0x939
 5523 0fe6 B001     		.2byte	0x1b0
 5524 0fe8 1E       		.uleb128 0x1e
 5525 0fe9 B8060000 		.4byte	.LASF288
 5526 0fed 0F       		.byte	0xf
 5527 0fee 2A01     		.2byte	0x12a
 5528 0ff0 B8000000 		.4byte	0xb8
 5529 0ff4 B101     		.2byte	0x1b1
ARM GAS  /tmp/ccOR9P9P.s 			page 98


 5530 0ff6 1E       		.uleb128 0x1e
 5531 0ff7 320E0000 		.4byte	.LASF289
 5532 0ffb 0F       		.byte	0xf
 5533 0ffc 2B01     		.2byte	0x12b
 5534 0ffe AC090000 		.4byte	0x9ac
 5535 1002 B401     		.2byte	0x1b4
 5536 1004 1E       		.uleb128 0x1e
 5537 1005 78150000 		.4byte	.LASF290
 5538 1009 0F       		.byte	0xf
 5539 100a 2C01     		.2byte	0x12c
 5540 100c AC090000 		.4byte	0x9ac
 5541 1010 B801     		.2byte	0x1b8
 5542 1012 1E       		.uleb128 0x1e
 5543 1013 59090000 		.4byte	.LASF291
 5544 1017 0F       		.byte	0xf
 5545 1018 2D01     		.2byte	0x12d
 5546 101a 350A0000 		.4byte	0xa35
 5547 101e BC01     		.2byte	0x1bc
 5548 1020 1E       		.uleb128 0x1e
 5549 1021 B0120000 		.4byte	.LASF292
 5550 1025 0F       		.byte	0xf
 5551 1026 2E01     		.2byte	0x12e
 5552 1028 9F000000 		.4byte	0x9f
 5553 102c C001     		.2byte	0x1c0
 5554 102e 1E       		.uleb128 0x1e
 5555 102f 9B170000 		.4byte	.LASF293
 5556 1033 0F       		.byte	0xf
 5557 1034 2F01     		.2byte	0x12f
 5558 1036 AC090000 		.4byte	0x9ac
 5559 103a C401     		.2byte	0x1c4
 5560 103c 00       		.byte	0
 5561 103d 03       		.uleb128 0x3
 5562 103e 01       		.byte	0x1
 5563 103f 02       		.byte	0x2
 5564 1040 E00A0000 		.4byte	.LASF294
 5565 1044 17       		.uleb128 0x17
 5566 1045 AD000000 		.4byte	0xad
 5567 1049 54100000 		.4byte	0x1054
 5568 104d 18       		.uleb128 0x18
 5569 104e A6000000 		.4byte	0xa6
 5570 1052 07       		.byte	0x7
 5571 1053 00       		.byte	0
 5572 1054 17       		.uleb128 0x17
 5573 1055 B8000000 		.4byte	0xb8
 5574 1059 64100000 		.4byte	0x1064
 5575 105d 18       		.uleb128 0x18
 5576 105e A6000000 		.4byte	0xa6
 5577 1062 07       		.byte	0x7
 5578 1063 00       		.byte	0
 5579 1064 1F       		.uleb128 0x1f
 5580 1065 4F1A0000 		.4byte	.LASF295
 5581 1069 0F       		.byte	0xf
 5582 106a 3001     		.2byte	0x130
 5583 106c 400A0000 		.4byte	0xa40
 5584 1070 05       		.uleb128 0x5
 5585 1071 64100000 		.4byte	0x1064
 5586 1075 20       		.uleb128 0x20
ARM GAS  /tmp/ccOR9P9P.s 			page 99


 5587 1076 07       		.byte	0x7
 5588 1077 01       		.byte	0x1
 5589 1078 42000000 		.4byte	0x42
 5590 107c 0F       		.byte	0xf
 5591 107d 3301     		.2byte	0x133
 5592 107f BA100000 		.4byte	0x10ba
 5593 1083 1B       		.uleb128 0x1b
 5594 1084 640E0000 		.4byte	.LASF296
 5595 1088 00       		.byte	0
 5596 1089 1B       		.uleb128 0x1b
 5597 108a 6B040000 		.4byte	.LASF297
 5598 108e 01       		.byte	0x1
 5599 108f 1B       		.uleb128 0x1b
 5600 1090 DD0C0000 		.4byte	.LASF298
 5601 1094 02       		.byte	0x2
 5602 1095 1B       		.uleb128 0x1b
 5603 1096 B90A0000 		.4byte	.LASF299
 5604 109a 03       		.byte	0x3
 5605 109b 1B       		.uleb128 0x1b
 5606 109c CE1A0000 		.4byte	.LASF300
 5607 10a0 04       		.byte	0x4
 5608 10a1 1B       		.uleb128 0x1b
 5609 10a2 FC140000 		.4byte	.LASF301
 5610 10a6 05       		.byte	0x5
 5611 10a7 1B       		.uleb128 0x1b
 5612 10a8 45140000 		.4byte	.LASF302
 5613 10ac 06       		.byte	0x6
 5614 10ad 1B       		.uleb128 0x1b
 5615 10ae 010F0000 		.4byte	.LASF303
 5616 10b2 07       		.byte	0x7
 5617 10b3 1B       		.uleb128 0x1b
 5618 10b4 48020000 		.4byte	.LASF304
 5619 10b8 08       		.byte	0x8
 5620 10b9 00       		.byte	0
 5621 10ba 1F       		.uleb128 0x1f
 5622 10bb 9E060000 		.4byte	.LASF305
 5623 10bf 0F       		.byte	0xf
 5624 10c0 3D01     		.2byte	0x13d
 5625 10c2 75100000 		.4byte	0x1075
 5626 10c6 20       		.uleb128 0x20
 5627 10c7 07       		.byte	0x7
 5628 10c8 01       		.byte	0x1
 5629 10c9 42000000 		.4byte	0x42
 5630 10cd 0F       		.byte	0xf
 5631 10ce 4001     		.2byte	0x140
 5632 10d0 E7100000 		.4byte	0x10e7
 5633 10d4 1B       		.uleb128 0x1b
 5634 10d5 F00D0000 		.4byte	.LASF306
 5635 10d9 00       		.byte	0
 5636 10da 1B       		.uleb128 0x1b
 5637 10db B20B0000 		.4byte	.LASF307
 5638 10df 01       		.byte	0x1
 5639 10e0 1B       		.uleb128 0x1b
 5640 10e1 FE1B0000 		.4byte	.LASF308
 5641 10e5 02       		.byte	0x2
 5642 10e6 00       		.byte	0
 5643 10e7 1F       		.uleb128 0x1f
ARM GAS  /tmp/ccOR9P9P.s 			page 100


 5644 10e8 D01B0000 		.4byte	.LASF309
 5645 10ec 0F       		.byte	0xf
 5646 10ed 4401     		.2byte	0x144
 5647 10ef C6100000 		.4byte	0x10c6
 5648 10f3 20       		.uleb128 0x20
 5649 10f4 07       		.byte	0x7
 5650 10f5 01       		.byte	0x1
 5651 10f6 42000000 		.4byte	0x42
 5652 10fa 0F       		.byte	0xf
 5653 10fb 4701     		.2byte	0x147
 5654 10fd 32110000 		.4byte	0x1132
 5655 1101 1B       		.uleb128 0x1b
 5656 1102 050E0000 		.4byte	.LASF310
 5657 1106 00       		.byte	0
 5658 1107 1B       		.uleb128 0x1b
 5659 1108 B6050000 		.4byte	.LASF311
 5660 110c 01       		.byte	0x1
 5661 110d 1B       		.uleb128 0x1b
 5662 110e 71030000 		.4byte	.LASF312
 5663 1112 02       		.byte	0x2
 5664 1113 1B       		.uleb128 0x1b
 5665 1114 8C0D0000 		.4byte	.LASF313
 5666 1118 03       		.byte	0x3
 5667 1119 1B       		.uleb128 0x1b
 5668 111a 770E0000 		.4byte	.LASF314
 5669 111e 04       		.byte	0x4
 5670 111f 1B       		.uleb128 0x1b
 5671 1120 D3080000 		.4byte	.LASF315
 5672 1124 05       		.byte	0x5
 5673 1125 1B       		.uleb128 0x1b
 5674 1126 641C0000 		.4byte	.LASF316
 5675 112a 06       		.byte	0x6
 5676 112b 1B       		.uleb128 0x1b
 5677 112c 3E0A0000 		.4byte	.LASF317
 5678 1130 07       		.byte	0x7
 5679 1131 00       		.byte	0
 5680 1132 1F       		.uleb128 0x1f
 5681 1133 221C0000 		.4byte	.LASF318
 5682 1137 0F       		.byte	0xf
 5683 1138 5001     		.2byte	0x150
 5684 113a F3100000 		.4byte	0x10f3
 5685 113e 21       		.uleb128 0x21
 5686 113f 38       		.byte	0x38
 5687 1140 0F       		.byte	0xf
 5688 1141 5201     		.2byte	0x152
 5689 1143 17120000 		.4byte	0x1217
 5690 1147 0A       		.uleb128 0xa
 5691 1148 D3160000 		.4byte	.LASF319
 5692 114c 0F       		.byte	0xf
 5693 114d 5301     		.2byte	0x153
 5694 114f 32110000 		.4byte	0x1132
 5695 1153 00       		.byte	0
 5696 1154 0A       		.uleb128 0xa
 5697 1155 C70C0000 		.4byte	.LASF320
 5698 1159 0F       		.byte	0xf
 5699 115a 5401     		.2byte	0x154
 5700 115c AC090000 		.4byte	0x9ac
ARM GAS  /tmp/ccOR9P9P.s 			page 101


 5701 1160 04       		.byte	0x4
 5702 1161 0A       		.uleb128 0xa
 5703 1162 C7060000 		.4byte	.LASF321
 5704 1166 0F       		.byte	0xf
 5705 1167 5501     		.2byte	0x155
 5706 1169 AC090000 		.4byte	0x9ac
 5707 116d 08       		.byte	0x8
 5708 116e 0A       		.uleb128 0xa
 5709 116f 82130000 		.4byte	.LASF322
 5710 1173 0F       		.byte	0xf
 5711 1174 5601     		.2byte	0x156
 5712 1176 AC090000 		.4byte	0x9ac
 5713 117a 0C       		.byte	0xc
 5714 117b 0A       		.uleb128 0xa
 5715 117c 5E0F0000 		.4byte	.LASF323
 5716 1180 0F       		.byte	0xf
 5717 1181 5701     		.2byte	0x157
 5718 1183 AC090000 		.4byte	0x9ac
 5719 1187 10       		.byte	0x10
 5720 1188 0A       		.uleb128 0xa
 5721 1189 7F0D0000 		.4byte	.LASF324
 5722 118d 0F       		.byte	0xf
 5723 118e 5801     		.2byte	0x158
 5724 1190 AC090000 		.4byte	0x9ac
 5725 1194 14       		.byte	0x14
 5726 1195 0A       		.uleb128 0xa
 5727 1196 39060000 		.4byte	.LASF325
 5728 119a 0F       		.byte	0xf
 5729 119b 5901     		.2byte	0x159
 5730 119d 3D100000 		.4byte	0x103d
 5731 11a1 18       		.byte	0x18
 5732 11a2 0A       		.uleb128 0xa
 5733 11a3 B3080000 		.4byte	.LASF326
 5734 11a7 0F       		.byte	0xf
 5735 11a8 5A01     		.2byte	0x15a
 5736 11aa 3D100000 		.4byte	0x103d
 5737 11ae 19       		.byte	0x19
 5738 11af 0A       		.uleb128 0xa
 5739 11b0 44110000 		.4byte	.LASF327
 5740 11b4 0F       		.byte	0xf
 5741 11b5 5B01     		.2byte	0x15b
 5742 11b7 AC090000 		.4byte	0x9ac
 5743 11bb 1C       		.byte	0x1c
 5744 11bc 0A       		.uleb128 0xa
 5745 11bd 6C0D0000 		.4byte	.LASF328
 5746 11c1 0F       		.byte	0xf
 5747 11c2 5C01     		.2byte	0x15c
 5748 11c4 AC090000 		.4byte	0x9ac
 5749 11c8 20       		.byte	0x20
 5750 11c9 0A       		.uleb128 0xa
 5751 11ca A6060000 		.4byte	.LASF329
 5752 11ce 0F       		.byte	0xf
 5753 11cf 5D01     		.2byte	0x15d
 5754 11d1 E7100000 		.4byte	0x10e7
 5755 11d5 24       		.byte	0x24
 5756 11d6 0A       		.uleb128 0xa
 5757 11d7 560A0000 		.4byte	.LASF330
ARM GAS  /tmp/ccOR9P9P.s 			page 102


 5758 11db 0F       		.byte	0xf
 5759 11dc 5E01     		.2byte	0x15e
 5760 11de AC090000 		.4byte	0x9ac
 5761 11e2 28       		.byte	0x28
 5762 11e3 0A       		.uleb128 0xa
 5763 11e4 DB0B0000 		.4byte	.LASF331
 5764 11e8 0F       		.byte	0xf
 5765 11e9 5F01     		.2byte	0x15f
 5766 11eb AC090000 		.4byte	0x9ac
 5767 11ef 2C       		.byte	0x2c
 5768 11f0 0A       		.uleb128 0xa
 5769 11f1 B2020000 		.4byte	.LASF332
 5770 11f5 0F       		.byte	0xf
 5771 11f6 6001     		.2byte	0x160
 5772 11f8 3D100000 		.4byte	0x103d
 5773 11fc 30       		.byte	0x30
 5774 11fd 09       		.uleb128 0x9
 5775 11fe 746300   		.ascii	"tc\000"
 5776 1201 0F       		.byte	0xf
 5777 1202 6101     		.2byte	0x161
 5778 1204 3D100000 		.4byte	0x103d
 5779 1208 31       		.byte	0x31
 5780 1209 0A       		.uleb128 0xa
 5781 120a 13180000 		.4byte	.LASF333
 5782 120e 0F       		.byte	0xf
 5783 120f 6201     		.2byte	0x162
 5784 1211 AC090000 		.4byte	0x9ac
 5785 1215 34       		.byte	0x34
 5786 1216 00       		.byte	0
 5787 1217 1F       		.uleb128 0x1f
 5788 1218 E3110000 		.4byte	.LASF334
 5789 121c 0F       		.byte	0xf
 5790 121d 6301     		.2byte	0x163
 5791 121f 3E110000 		.4byte	0x113e
 5792 1223 20       		.uleb128 0x20
 5793 1224 07       		.byte	0x7
 5794 1225 01       		.byte	0x1
 5795 1226 42000000 		.4byte	0x42
 5796 122a 0F       		.byte	0xf
 5797 122b 6601     		.2byte	0x166
 5798 122d 8C120000 		.4byte	0x128c
 5799 1231 1B       		.uleb128 0x1b
 5800 1232 331C0000 		.4byte	.LASF335
 5801 1236 00       		.byte	0
 5802 1237 1B       		.uleb128 0x1b
 5803 1238 0F120000 		.4byte	.LASF336
 5804 123c 01       		.byte	0x1
 5805 123d 1B       		.uleb128 0x1b
 5806 123e FB100000 		.4byte	.LASF337
 5807 1242 02       		.byte	0x2
 5808 1243 1B       		.uleb128 0x1b
 5809 1244 680F0000 		.4byte	.LASF338
 5810 1248 03       		.byte	0x3
 5811 1249 1B       		.uleb128 0x1b
 5812 124a 06160000 		.4byte	.LASF339
 5813 124e 04       		.byte	0x4
 5814 124f 1B       		.uleb128 0x1b
ARM GAS  /tmp/ccOR9P9P.s 			page 103


 5815 1250 30050000 		.4byte	.LASF340
 5816 1254 05       		.byte	0x5
 5817 1255 1B       		.uleb128 0x1b
 5818 1256 B5040000 		.4byte	.LASF341
 5819 125a 06       		.byte	0x6
 5820 125b 1B       		.uleb128 0x1b
 5821 125c EE040000 		.4byte	.LASF342
 5822 1260 07       		.byte	0x7
 5823 1261 1B       		.uleb128 0x1b
 5824 1262 63140000 		.4byte	.LASF343
 5825 1266 08       		.byte	0x8
 5826 1267 1B       		.uleb128 0x1b
 5827 1268 59110000 		.4byte	.LASF344
 5828 126c 09       		.byte	0x9
 5829 126d 1B       		.uleb128 0x1b
 5830 126e 5F000000 		.4byte	.LASF345
 5831 1272 0A       		.byte	0xa
 5832 1273 1B       		.uleb128 0x1b
 5833 1274 9F1A0000 		.4byte	.LASF346
 5834 1278 0B       		.byte	0xb
 5835 1279 1B       		.uleb128 0x1b
 5836 127a 520E0000 		.4byte	.LASF347
 5837 127e 0C       		.byte	0xc
 5838 127f 1B       		.uleb128 0x1b
 5839 1280 29130000 		.4byte	.LASF348
 5840 1284 0D       		.byte	0xd
 5841 1285 1B       		.uleb128 0x1b
 5842 1286 2E170000 		.4byte	.LASF349
 5843 128a 0E       		.byte	0xe
 5844 128b 00       		.byte	0
 5845 128c 1F       		.uleb128 0x1f
 5846 128d F8050000 		.4byte	.LASF350
 5847 1291 0F       		.byte	0xf
 5848 1292 7601     		.2byte	0x176
 5849 1294 23120000 		.4byte	0x1223
 5850 1298 21       		.uleb128 0x21
 5851 1299 44       		.byte	0x44
 5852 129a 0F       		.byte	0xf
 5853 129b 7801     		.2byte	0x178
 5854 129d BF130000 		.4byte	0x13bf
 5855 12a1 0A       		.uleb128 0xa
 5856 12a2 D3160000 		.4byte	.LASF319
 5857 12a6 0F       		.byte	0xf
 5858 12a7 7901     		.2byte	0x179
 5859 12a9 8C120000 		.4byte	0x128c
 5860 12ad 00       		.byte	0
 5861 12ae 0A       		.uleb128 0xa
 5862 12af C7060000 		.4byte	.LASF321
 5863 12b3 0F       		.byte	0xf
 5864 12b4 7A01     		.2byte	0x17a
 5865 12b6 AC090000 		.4byte	0x9ac
 5866 12ba 04       		.byte	0x4
 5867 12bb 0A       		.uleb128 0xa
 5868 12bc C20B0000 		.4byte	.LASF351
 5869 12c0 0F       		.byte	0xf
 5870 12c1 7B01     		.2byte	0x17b
 5871 12c3 AC090000 		.4byte	0x9ac
ARM GAS  /tmp/ccOR9P9P.s 			page 104


 5872 12c7 08       		.byte	0x8
 5873 12c8 0A       		.uleb128 0xa
 5874 12c9 22090000 		.4byte	.LASF352
 5875 12cd 0F       		.byte	0xf
 5876 12ce 7C01     		.2byte	0x17c
 5877 12d0 AC090000 		.4byte	0x9ac
 5878 12d4 0C       		.byte	0xc
 5879 12d5 0A       		.uleb128 0xa
 5880 12d6 B6010000 		.4byte	.LASF353
 5881 12da 0F       		.byte	0xf
 5882 12db 7D01     		.2byte	0x17d
 5883 12dd AC090000 		.4byte	0x9ac
 5884 12e1 10       		.byte	0x10
 5885 12e2 0A       		.uleb128 0xa
 5886 12e3 230E0000 		.4byte	.LASF354
 5887 12e7 0F       		.byte	0xf
 5888 12e8 7E01     		.2byte	0x17e
 5889 12ea AC090000 		.4byte	0x9ac
 5890 12ee 14       		.byte	0x14
 5891 12ef 0A       		.uleb128 0xa
 5892 12f0 1A170000 		.4byte	.LASF355
 5893 12f4 0F       		.byte	0xf
 5894 12f5 7F01     		.2byte	0x17f
 5895 12f7 AC090000 		.4byte	0x9ac
 5896 12fb 18       		.byte	0x18
 5897 12fc 0A       		.uleb128 0xa
 5898 12fd BE180000 		.4byte	.LASF356
 5899 1301 0F       		.byte	0xf
 5900 1302 8001     		.2byte	0x180
 5901 1304 3D100000 		.4byte	0x103d
 5902 1308 1C       		.byte	0x1c
 5903 1309 0A       		.uleb128 0xa
 5904 130a B3080000 		.4byte	.LASF326
 5905 130e 0F       		.byte	0xf
 5906 130f 8101     		.2byte	0x181
 5907 1311 3D100000 		.4byte	0x103d
 5908 1315 1D       		.byte	0x1d
 5909 1316 0A       		.uleb128 0xa
 5910 1317 E1090000 		.4byte	.LASF357
 5911 131b 0F       		.byte	0xf
 5912 131c 8201     		.2byte	0x182
 5913 131e 3D100000 		.4byte	0x103d
 5914 1322 1E       		.byte	0x1e
 5915 1323 0A       		.uleb128 0xa
 5916 1324 2A0F0000 		.4byte	.LASF358
 5917 1328 0F       		.byte	0xf
 5918 1329 8301     		.2byte	0x183
 5919 132b 3D100000 		.4byte	0x103d
 5920 132f 1F       		.byte	0x1f
 5921 1330 0A       		.uleb128 0xa
 5922 1331 8C120000 		.4byte	.LASF359
 5923 1335 0F       		.byte	0xf
 5924 1336 8401     		.2byte	0x184
 5925 1338 3D100000 		.4byte	0x103d
 5926 133c 20       		.byte	0x20
 5927 133d 0A       		.uleb128 0xa
 5928 133e 92080000 		.4byte	.LASF360
ARM GAS  /tmp/ccOR9P9P.s 			page 105


 5929 1342 0F       		.byte	0xf
 5930 1343 8501     		.2byte	0x185
 5931 1345 3D100000 		.4byte	0x103d
 5932 1349 21       		.byte	0x21
 5933 134a 0A       		.uleb128 0xa
 5934 134b 44110000 		.4byte	.LASF327
 5935 134f 0F       		.byte	0xf
 5936 1350 8601     		.2byte	0x186
 5937 1352 AC090000 		.4byte	0x9ac
 5938 1356 24       		.byte	0x24
 5939 1357 0A       		.uleb128 0xa
 5940 1358 6C0D0000 		.4byte	.LASF328
 5941 135c 0F       		.byte	0xf
 5942 135d 8701     		.2byte	0x187
 5943 135f AC090000 		.4byte	0x9ac
 5944 1363 28       		.byte	0x28
 5945 1364 0A       		.uleb128 0xa
 5946 1365 A6060000 		.4byte	.LASF329
 5947 1369 0F       		.byte	0xf
 5948 136a 8801     		.2byte	0x188
 5949 136c E7100000 		.4byte	0x10e7
 5950 1370 2C       		.byte	0x2c
 5951 1371 0A       		.uleb128 0xa
 5952 1372 560A0000 		.4byte	.LASF330
 5953 1376 0F       		.byte	0xf
 5954 1377 8901     		.2byte	0x189
 5955 1379 AC090000 		.4byte	0x9ac
 5956 137d 30       		.byte	0x30
 5957 137e 0A       		.uleb128 0xa
 5958 137f DB0B0000 		.4byte	.LASF331
 5959 1383 0F       		.byte	0xf
 5960 1384 8A01     		.2byte	0x18a
 5961 1386 AC090000 		.4byte	0x9ac
 5962 138a 34       		.byte	0x34
 5963 138b 0A       		.uleb128 0xa
 5964 138c B2020000 		.4byte	.LASF332
 5965 1390 0F       		.byte	0xf
 5966 1391 8B01     		.2byte	0x18b
 5967 1393 3D100000 		.4byte	0x103d
 5968 1397 38       		.byte	0x38
 5969 1398 09       		.uleb128 0x9
 5970 1399 746300   		.ascii	"tc\000"
 5971 139c 0F       		.byte	0xf
 5972 139d 8C01     		.2byte	0x18c
 5973 139f 3D100000 		.4byte	0x103d
 5974 13a3 39       		.byte	0x39
 5975 13a4 0A       		.uleb128 0xa
 5976 13a5 13180000 		.4byte	.LASF333
 5977 13a9 0F       		.byte	0xf
 5978 13aa 8D01     		.2byte	0x18d
 5979 13ac AC090000 		.4byte	0x9ac
 5980 13b0 3C       		.byte	0x3c
 5981 13b1 0A       		.uleb128 0xa
 5982 13b2 1C110000 		.4byte	.LASF361
 5983 13b6 0F       		.byte	0xf
 5984 13b7 8E01     		.2byte	0x18e
 5985 13b9 E3000000 		.4byte	0xe3
ARM GAS  /tmp/ccOR9P9P.s 			page 106


 5986 13bd 40       		.byte	0x40
 5987 13be 00       		.byte	0
 5988 13bf 1F       		.uleb128 0x1f
 5989 13c0 991C0000 		.4byte	.LASF362
 5990 13c4 0F       		.byte	0xf
 5991 13c5 8F01     		.2byte	0x18f
 5992 13c7 98120000 		.4byte	0x1298
 5993 13cb 20       		.uleb128 0x20
 5994 13cc 07       		.byte	0x7
 5995 13cd 01       		.byte	0x1
 5996 13ce 42000000 		.4byte	0x42
 5997 13d2 0F       		.byte	0xf
 5998 13d3 9201     		.2byte	0x192
 5999 13d5 EC130000 		.4byte	0x13ec
 6000 13d9 1B       		.uleb128 0x1b
 6001 13da DD1B0000 		.4byte	.LASF363
 6002 13de 00       		.byte	0
 6003 13df 1B       		.uleb128 0x1b
 6004 13e0 ED0F0000 		.4byte	.LASF364
 6005 13e4 01       		.byte	0x1
 6006 13e5 1B       		.uleb128 0x1b
 6007 13e6 D5000000 		.4byte	.LASF365
 6008 13ea 02       		.byte	0x2
 6009 13eb 00       		.byte	0
 6010 13ec 1F       		.uleb128 0x1f
 6011 13ed BF090000 		.4byte	.LASF366
 6012 13f1 0F       		.byte	0xf
 6013 13f2 9601     		.2byte	0x196
 6014 13f4 CB130000 		.4byte	0x13cb
 6015 13f8 21       		.uleb128 0x21
 6016 13f9 24       		.byte	0x24
 6017 13fa 0F       		.byte	0xf
 6018 13fb 9801     		.2byte	0x198
 6019 13fd 90140000 		.4byte	0x1490
 6020 1401 0A       		.uleb128 0xa
 6021 1402 D3160000 		.4byte	.LASF319
 6022 1406 0F       		.byte	0xf
 6023 1407 9901     		.2byte	0x199
 6024 1409 EC130000 		.4byte	0x13ec
 6025 140d 00       		.byte	0
 6026 140e 0A       		.uleb128 0xa
 6027 140f C7060000 		.4byte	.LASF321
 6028 1413 0F       		.byte	0xf
 6029 1414 9A01     		.2byte	0x19a
 6030 1416 AC090000 		.4byte	0x9ac
 6031 141a 04       		.byte	0x4
 6032 141b 0A       		.uleb128 0xa
 6033 141c 560A0000 		.4byte	.LASF330
 6034 1420 0F       		.byte	0xf
 6035 1421 9B01     		.2byte	0x19b
 6036 1423 AC090000 		.4byte	0x9ac
 6037 1427 08       		.byte	0x8
 6038 1428 0A       		.uleb128 0xa
 6039 1429 DB0B0000 		.4byte	.LASF331
 6040 142d 0F       		.byte	0xf
 6041 142e 9C01     		.2byte	0x19c
 6042 1430 AC090000 		.4byte	0x9ac
ARM GAS  /tmp/ccOR9P9P.s 			page 107


 6043 1434 0C       		.byte	0xc
 6044 1435 0A       		.uleb128 0xa
 6045 1436 5F190000 		.4byte	.LASF367
 6046 143a 0F       		.byte	0xf
 6047 143b 9D01     		.2byte	0x19d
 6048 143d AC090000 		.4byte	0x9ac
 6049 1441 10       		.byte	0x10
 6050 1442 0A       		.uleb128 0xa
 6051 1443 44110000 		.4byte	.LASF327
 6052 1447 0F       		.byte	0xf
 6053 1448 9E01     		.2byte	0x19e
 6054 144a AC090000 		.4byte	0x9ac
 6055 144e 14       		.byte	0x14
 6056 144f 0A       		.uleb128 0xa
 6057 1450 6C0D0000 		.4byte	.LASF328
 6058 1454 0F       		.byte	0xf
 6059 1455 9F01     		.2byte	0x19f
 6060 1457 AC090000 		.4byte	0x9ac
 6061 145b 18       		.byte	0x18
 6062 145c 0A       		.uleb128 0xa
 6063 145d A6060000 		.4byte	.LASF329
 6064 1461 0F       		.byte	0xf
 6065 1462 A001     		.2byte	0x1a0
 6066 1464 E7100000 		.4byte	0x10e7
 6067 1468 1C       		.byte	0x1c
 6068 1469 0A       		.uleb128 0xa
 6069 146a B2020000 		.4byte	.LASF332
 6070 146e 0F       		.byte	0xf
 6071 146f A101     		.2byte	0x1a1
 6072 1471 3D100000 		.4byte	0x103d
 6073 1475 1D       		.byte	0x1d
 6074 1476 09       		.uleb128 0x9
 6075 1477 746300   		.ascii	"tc\000"
 6076 147a 0F       		.byte	0xf
 6077 147b A201     		.2byte	0x1a2
 6078 147d 3D100000 		.4byte	0x103d
 6079 1481 1E       		.byte	0x1e
 6080 1482 0A       		.uleb128 0xa
 6081 1483 13180000 		.4byte	.LASF333
 6082 1487 0F       		.byte	0xf
 6083 1488 A301     		.2byte	0x1a3
 6084 148a AC090000 		.4byte	0x9ac
 6085 148e 20       		.byte	0x20
 6086 148f 00       		.byte	0
 6087 1490 1F       		.uleb128 0x1f
 6088 1491 0A190000 		.4byte	.LASF368
 6089 1495 0F       		.byte	0xf
 6090 1496 A401     		.2byte	0x1a4
 6091 1498 F8130000 		.4byte	0x13f8
 6092 149c 20       		.uleb128 0x20
 6093 149d 07       		.byte	0x7
 6094 149e 01       		.byte	0x1
 6095 149f 42000000 		.4byte	0x42
 6096 14a3 0F       		.byte	0xf
 6097 14a4 A701     		.2byte	0x1a7
 6098 14a6 BD140000 		.4byte	0x14bd
 6099 14aa 1B       		.uleb128 0x1b
ARM GAS  /tmp/ccOR9P9P.s 			page 108


 6100 14ab 8A0E0000 		.4byte	.LASF369
 6101 14af 00       		.byte	0
 6102 14b0 1B       		.uleb128 0x1b
 6103 14b1 C31B0000 		.4byte	.LASF370
 6104 14b5 01       		.byte	0x1
 6105 14b6 1B       		.uleb128 0x1b
 6106 14b7 CF170000 		.4byte	.LASF371
 6107 14bb 02       		.byte	0x2
 6108 14bc 00       		.byte	0
 6109 14bd 1F       		.uleb128 0x1f
 6110 14be 761C0000 		.4byte	.LASF372
 6111 14c2 0F       		.byte	0xf
 6112 14c3 AB01     		.2byte	0x1ab
 6113 14c5 9C140000 		.4byte	0x149c
 6114 14c9 20       		.uleb128 0x20
 6115 14ca 07       		.byte	0x7
 6116 14cb 01       		.byte	0x1
 6117 14cc 42000000 		.4byte	0x42
 6118 14d0 0F       		.byte	0xf
 6119 14d1 AD01     		.2byte	0x1ad
 6120 14d3 F6140000 		.4byte	0x14f6
 6121 14d7 1B       		.uleb128 0x1b
 6122 14d8 28030000 		.4byte	.LASF373
 6123 14dc 00       		.byte	0
 6124 14dd 1B       		.uleb128 0x1b
 6125 14de 71130000 		.4byte	.LASF374
 6126 14e2 01       		.byte	0x1
 6127 14e3 1B       		.uleb128 0x1b
 6128 14e4 02130000 		.4byte	.LASF375
 6129 14e8 02       		.byte	0x2
 6130 14e9 1B       		.uleb128 0x1b
 6131 14ea E41A0000 		.4byte	.LASF376
 6132 14ee 03       		.byte	0x3
 6133 14ef 1B       		.uleb128 0x1b
 6134 14f0 620C0000 		.4byte	.LASF377
 6135 14f4 04       		.byte	0x4
 6136 14f5 00       		.byte	0
 6137 14f6 1F       		.uleb128 0x1f
 6138 14f7 05120000 		.4byte	.LASF378
 6139 14fb 0F       		.byte	0xf
 6140 14fc B301     		.2byte	0x1b3
 6141 14fe C9140000 		.4byte	0x14c9
 6142 1502 20       		.uleb128 0x20
 6143 1503 07       		.byte	0x7
 6144 1504 01       		.byte	0x1
 6145 1505 42000000 		.4byte	0x42
 6146 1509 0F       		.byte	0xf
 6147 150a BB01     		.2byte	0x1bb
 6148 150c 23150000 		.4byte	0x1523
 6149 1510 1B       		.uleb128 0x1b
 6150 1511 CB120000 		.4byte	.LASF379
 6151 1515 00       		.byte	0
 6152 1516 1B       		.uleb128 0x1b
 6153 1517 69090000 		.4byte	.LASF380
 6154 151b 01       		.byte	0x1
 6155 151c 1B       		.uleb128 0x1b
 6156 151d D1020000 		.4byte	.LASF381
ARM GAS  /tmp/ccOR9P9P.s 			page 109


 6157 1521 02       		.byte	0x2
 6158 1522 00       		.byte	0
 6159 1523 1F       		.uleb128 0x1f
 6160 1524 F3020000 		.4byte	.LASF382
 6161 1528 0F       		.byte	0xf
 6162 1529 BF01     		.2byte	0x1bf
 6163 152b 02150000 		.4byte	0x1502
 6164 152f 20       		.uleb128 0x20
 6165 1530 07       		.byte	0x7
 6166 1531 01       		.byte	0x1
 6167 1532 42000000 		.4byte	0x42
 6168 1536 0F       		.byte	0xf
 6169 1537 C101     		.2byte	0x1c1
 6170 1539 9E150000 		.4byte	0x159e
 6171 153d 1B       		.uleb128 0x1b
 6172 153e 63150000 		.4byte	.LASF383
 6173 1542 00       		.byte	0
 6174 1543 1B       		.uleb128 0x1b
 6175 1544 7E170000 		.4byte	.LASF384
 6176 1548 01       		.byte	0x1
 6177 1549 1B       		.uleb128 0x1b
 6178 154a A9170000 		.4byte	.LASF385
 6179 154e 02       		.byte	0x2
 6180 154f 1B       		.uleb128 0x1b
 6181 1550 AA000000 		.4byte	.LASF386
 6182 1554 03       		.byte	0x3
 6183 1555 1B       		.uleb128 0x1b
 6184 1556 951B0000 		.4byte	.LASF387
 6185 155a 04       		.byte	0x4
 6186 155b 1B       		.uleb128 0x1b
 6187 155c 6C110000 		.4byte	.LASF388
 6188 1560 05       		.byte	0x5
 6189 1561 1B       		.uleb128 0x1b
 6190 1562 98150000 		.4byte	.LASF389
 6191 1566 06       		.byte	0x6
 6192 1567 1B       		.uleb128 0x1b
 6193 1568 711B0000 		.4byte	.LASF390
 6194 156c 07       		.byte	0x7
 6195 156d 1B       		.uleb128 0x1b
 6196 156e A1030000 		.4byte	.LASF391
 6197 1572 08       		.byte	0x8
 6198 1573 1B       		.uleb128 0x1b
 6199 1574 5A060000 		.4byte	.LASF392
 6200 1578 09       		.byte	0x9
 6201 1579 1B       		.uleb128 0x1b
 6202 157a 8B0C0000 		.4byte	.LASF393
 6203 157e 0A       		.byte	0xa
 6204 157f 1B       		.uleb128 0x1b
 6205 1580 CD110000 		.4byte	.LASF394
 6206 1584 0B       		.byte	0xb
 6207 1585 1B       		.uleb128 0x1b
 6208 1586 5E160000 		.4byte	.LASF395
 6209 158a 0C       		.byte	0xc
 6210 158b 1B       		.uleb128 0x1b
 6211 158c A8180000 		.4byte	.LASF396
 6212 1590 0D       		.byte	0xd
 6213 1591 1B       		.uleb128 0x1b
ARM GAS  /tmp/ccOR9P9P.s 			page 110


 6214 1592 15100000 		.4byte	.LASF397
 6215 1596 0E       		.byte	0xe
 6216 1597 1B       		.uleb128 0x1b
 6217 1598 12030000 		.4byte	.LASF398
 6218 159c 0F       		.byte	0xf
 6219 159d 00       		.byte	0
 6220 159e 1F       		.uleb128 0x1f
 6221 159f A4080000 		.4byte	.LASF399
 6222 15a3 0F       		.byte	0xf
 6223 15a4 D201     		.2byte	0x1d2
 6224 15a6 2F150000 		.4byte	0x152f
 6225 15aa 21       		.uleb128 0x21
 6226 15ab 0A       		.byte	0xa
 6227 15ac 0F       		.byte	0xf
 6228 15ad D401     		.2byte	0x1d4
 6229 15af 1C160000 		.4byte	0x161c
 6230 15b3 0A       		.uleb128 0xa
 6231 15b4 02030000 		.4byte	.LASF400
 6232 15b8 0F       		.byte	0xf
 6233 15b9 D501     		.2byte	0x1d5
 6234 15bb BD140000 		.4byte	0x14bd
 6235 15bf 00       		.byte	0
 6236 15c0 0A       		.uleb128 0xa
 6237 15c1 FF190000 		.4byte	.LASF401
 6238 15c5 0F       		.byte	0xf
 6239 15c6 D601     		.2byte	0x1d6
 6240 15c8 F6140000 		.4byte	0x14f6
 6241 15cc 01       		.byte	0x1
 6242 15cd 0A       		.uleb128 0xa
 6243 15ce 68030000 		.4byte	.LASF402
 6244 15d2 0F       		.byte	0xf
 6245 15d3 D701     		.2byte	0x1d7
 6246 15d5 23150000 		.4byte	0x1523
 6247 15d9 02       		.byte	0x2
 6248 15da 0A       		.uleb128 0xa
 6249 15db 700C0000 		.4byte	.LASF403
 6250 15df 0F       		.byte	0xf
 6251 15e0 D801     		.2byte	0x1d8
 6252 15e2 9E150000 		.4byte	0x159e
 6253 15e6 03       		.byte	0x3
 6254 15e7 0A       		.uleb128 0xa
 6255 15e8 051A0000 		.4byte	.LASF404
 6256 15ec 0F       		.byte	0xf
 6257 15ed D901     		.2byte	0x1d9
 6258 15ef 42000000 		.4byte	0x42
 6259 15f3 04       		.byte	0x4
 6260 15f4 0A       		.uleb128 0xa
 6261 15f5 E4120000 		.4byte	.LASF405
 6262 15f9 0F       		.byte	0xf
 6263 15fa DA01     		.2byte	0x1da
 6264 15fc 42000000 		.4byte	0x42
 6265 1600 05       		.byte	0x5
 6266 1601 0A       		.uleb128 0xa
 6267 1602 9E160000 		.4byte	.LASF406
 6268 1606 0F       		.byte	0xf
 6269 1607 DB01     		.2byte	0x1db
 6270 1609 1C160000 		.4byte	0x161c
ARM GAS  /tmp/ccOR9P9P.s 			page 111


 6271 160d 06       		.byte	0x6
 6272 160e 0A       		.uleb128 0xa
 6273 160f F2190000 		.4byte	.LASF407
 6274 1613 0F       		.byte	0xf
 6275 1614 DC01     		.2byte	0x1dc
 6276 1616 3D100000 		.4byte	0x103d
 6277 161a 09       		.byte	0x9
 6278 161b 00       		.byte	0
 6279 161c 17       		.uleb128 0x17
 6280 161d 42000000 		.4byte	0x42
 6281 1621 2C160000 		.4byte	0x162c
 6282 1625 18       		.uleb128 0x18
 6283 1626 A6000000 		.4byte	0xa6
 6284 162a 02       		.byte	0x2
 6285 162b 00       		.byte	0
 6286 162c 1F       		.uleb128 0x1f
 6287 162d 74090000 		.4byte	.LASF408
 6288 1631 0F       		.byte	0xf
 6289 1632 DD01     		.2byte	0x1dd
 6290 1634 AA150000 		.4byte	0x15aa
 6291 1638 20       		.uleb128 0x20
 6292 1639 07       		.byte	0x7
 6293 163a 01       		.byte	0x1
 6294 163b 42000000 		.4byte	0x42
 6295 163f 0F       		.byte	0xf
 6296 1640 E001     		.2byte	0x1e0
 6297 1642 65160000 		.4byte	0x1665
 6298 1646 1B       		.uleb128 0x1b
 6299 1647 B7030000 		.4byte	.LASF409
 6300 164b 00       		.byte	0
 6301 164c 1B       		.uleb128 0x1b
 6302 164d B61B0000 		.4byte	.LASF410
 6303 1651 01       		.byte	0x1
 6304 1652 1B       		.uleb128 0x1b
 6305 1653 94110000 		.4byte	.LASF411
 6306 1657 02       		.byte	0x2
 6307 1658 1B       		.uleb128 0x1b
 6308 1659 2B010000 		.4byte	.LASF412
 6309 165d 03       		.byte	0x3
 6310 165e 1B       		.uleb128 0x1b
 6311 165f BC0D0000 		.4byte	.LASF413
 6312 1663 04       		.byte	0x4
 6313 1664 00       		.byte	0
 6314 1665 1F       		.uleb128 0x1f
 6315 1666 CC050000 		.4byte	.LASF414
 6316 166a 0F       		.byte	0xf
 6317 166b E601     		.2byte	0x1e6
 6318 166d 38160000 		.4byte	0x1638
 6319 1671 21       		.uleb128 0x21
 6320 1672 CC       		.byte	0xcc
 6321 1673 0F       		.byte	0xf
 6322 1674 E801     		.2byte	0x1e8
 6323 1676 4B170000 		.4byte	0x174b
 6324 167a 0A       		.uleb128 0xa
 6325 167b 990E0000 		.4byte	.LASF415
 6326 167f 0F       		.byte	0xf
 6327 1680 EA01     		.2byte	0x1ea
ARM GAS  /tmp/ccOR9P9P.s 			page 112


 6328 1682 B8000000 		.4byte	0xb8
 6329 1686 00       		.byte	0
 6330 1687 0A       		.uleb128 0xa
 6331 1688 4B0B0000 		.4byte	.LASF416
 6332 168c 0F       		.byte	0xf
 6333 168d EB01     		.2byte	0x1eb
 6334 168f E3000000 		.4byte	0xe3
 6335 1693 04       		.byte	0x4
 6336 1694 0A       		.uleb128 0xa
 6337 1695 89090000 		.4byte	.LASF417
 6338 1699 0F       		.byte	0xf
 6339 169a EC01     		.2byte	0x1ec
 6340 169c AC090000 		.4byte	0x9ac
 6341 16a0 08       		.byte	0x8
 6342 16a1 0A       		.uleb128 0xa
 6343 16a2 28000000 		.4byte	.LASF418
 6344 16a6 0F       		.byte	0xf
 6345 16a7 ED01     		.2byte	0x1ed
 6346 16a9 65160000 		.4byte	0x1665
 6347 16ad 0C       		.byte	0xc
 6348 16ae 0A       		.uleb128 0xa
 6349 16af A70E0000 		.4byte	.LASF419
 6350 16b3 0F       		.byte	0xf
 6351 16b4 EE01     		.2byte	0x1ee
 6352 16b6 E3000000 		.4byte	0xe3
 6353 16ba 10       		.byte	0x10
 6354 16bb 0A       		.uleb128 0xa
 6355 16bc CC140000 		.4byte	.LASF420
 6356 16c0 0F       		.byte	0xf
 6357 16c1 EF01     		.2byte	0x1ef
 6358 16c3 0A0A0000 		.4byte	0xa0a
 6359 16c7 14       		.byte	0x14
 6360 16c8 0A       		.uleb128 0xa
 6361 16c9 FC000000 		.4byte	.LASF421
 6362 16cd 0F       		.byte	0xf
 6363 16ce F001     		.2byte	0x1f0
 6364 16d0 3D100000 		.4byte	0x103d
 6365 16d4 15       		.byte	0x15
 6366 16d5 0A       		.uleb128 0xa
 6367 16d6 DC170000 		.4byte	.LASF422
 6368 16da 0F       		.byte	0xf
 6369 16db F101     		.2byte	0x1f1
 6370 16dd 3D100000 		.4byte	0x103d
 6371 16e1 16       		.byte	0x16
 6372 16e2 0A       		.uleb128 0xa
 6373 16e3 55170000 		.4byte	.LASF423
 6374 16e7 0F       		.byte	0xf
 6375 16e8 F401     		.2byte	0x1f4
 6376 16ea 3D100000 		.4byte	0x103d
 6377 16ee 17       		.byte	0x17
 6378 16ef 0A       		.uleb128 0xa
 6379 16f0 F80A0000 		.4byte	.LASF424
 6380 16f4 0F       		.byte	0xf
 6381 16f5 F501     		.2byte	0x1f5
 6382 16f7 B8000000 		.4byte	0xb8
 6383 16fb 18       		.byte	0x18
 6384 16fc 0A       		.uleb128 0xa
ARM GAS  /tmp/ccOR9P9P.s 			page 113


 6385 16fd D00B0000 		.4byte	.LASF425
 6386 1701 0F       		.byte	0xf
 6387 1702 F801     		.2byte	0x1f8
 6388 1704 BA100000 		.4byte	0x10ba
 6389 1708 19       		.byte	0x19
 6390 1709 0A       		.uleb128 0xa
 6391 170a 38140000 		.4byte	.LASF426
 6392 170e 0F       		.byte	0xf
 6393 170f FB01     		.2byte	0x1fb
 6394 1711 17120000 		.4byte	0x1217
 6395 1715 1C       		.byte	0x1c
 6396 1716 0A       		.uleb128 0xa
 6397 1717 171B0000 		.4byte	.LASF427
 6398 171b 0F       		.byte	0xf
 6399 171c FE01     		.2byte	0x1fe
 6400 171e BF130000 		.4byte	0x13bf
 6401 1722 54       		.byte	0x54
 6402 1723 0A       		.uleb128 0xa
 6403 1724 01180000 		.4byte	.LASF428
 6404 1728 0F       		.byte	0xf
 6405 1729 0102     		.2byte	0x201
 6406 172b E3000000 		.4byte	0xe3
 6407 172f 98       		.byte	0x98
 6408 1730 0A       		.uleb128 0xa
 6409 1731 5F120000 		.4byte	.LASF429
 6410 1735 0F       		.byte	0xf
 6411 1736 0402     		.2byte	0x204
 6412 1738 90140000 		.4byte	0x1490
 6413 173c 9C       		.byte	0x9c
 6414 173d 0A       		.uleb128 0xa
 6415 173e 2C060000 		.4byte	.LASF430
 6416 1742 0F       		.byte	0xf
 6417 1743 0702     		.2byte	0x207
 6418 1745 2C160000 		.4byte	0x162c
 6419 1749 C0       		.byte	0xc0
 6420 174a 00       		.byte	0
 6421 174b 1F       		.uleb128 0x1f
 6422 174c BA140000 		.4byte	.LASF431
 6423 1750 0F       		.byte	0xf
 6424 1751 0802     		.2byte	0x208
 6425 1753 71160000 		.4byte	0x1671
 6426 1757 05       		.uleb128 0x5
 6427 1758 4B170000 		.4byte	0x174b
 6428 175c 12       		.uleb128 0x12
 6429 175d 8B040000 		.4byte	.LASF432
 6430 1761 10       		.byte	0x10
 6431 1762 EA       		.byte	0xea
 6432 1763 3D100000 		.4byte	0x103d
 6433 1767 22       		.uleb128 0x22
 6434 1768 48040000 		.4byte	.LASF433
 6435 176c 01       		.byte	0x1
 6436 176d 3F02     		.2byte	0x23f
 6437 176f 00000000 		.4byte	.LFB224
 6438 1773 50010000 		.4byte	.LFE224-.LFB224
 6439 1777 01       		.uleb128 0x1
 6440 1778 9C       		.byte	0x9c
 6441 1779 97170000 		.4byte	0x1797
ARM GAS  /tmp/ccOR9P9P.s 			page 114


 6442 177d 23       		.uleb128 0x23
 6443 177e A5000000 		.4byte	.LASF435
 6444 1782 01       		.byte	0x1
 6445 1783 3F02     		.2byte	0x23f
 6446 1785 97170000 		.4byte	0x1797
 6447 1789 00000000 		.4byte	.LLST10
 6448 178d 24       		.uleb128 0x24
 6449 178e 0A000000 		.4byte	.LVL275
 6450 1792 DD320000 		.4byte	0x32dd
 6451 1796 00       		.byte	0
 6452 1797 0B       		.uleb128 0xb
 6453 1798 04       		.byte	0x4
 6454 1799 4B170000 		.4byte	0x174b
 6455 179d 22       		.uleb128 0x22
 6456 179e 46030000 		.4byte	.LASF434
 6457 17a2 01       		.byte	0x1
 6458 17a3 BD01     		.2byte	0x1bd
 6459 17a5 00000000 		.4byte	.LFB223
 6460 17a9 48030000 		.4byte	.LFE223-.LFB223
 6461 17ad 01       		.uleb128 0x1
 6462 17ae 9C       		.byte	0x9c
 6463 17af C2170000 		.4byte	0x17c2
 6464 17b3 25       		.uleb128 0x25
 6465 17b4 A5000000 		.4byte	.LASF435
 6466 17b8 01       		.byte	0x1
 6467 17b9 BD01     		.2byte	0x1bd
 6468 17bb C2170000 		.4byte	0x17c2
 6469 17bf 01       		.uleb128 0x1
 6470 17c0 50       		.byte	0x50
 6471 17c1 00       		.byte	0
 6472 17c2 0B       		.uleb128 0xb
 6473 17c3 04       		.byte	0x4
 6474 17c4 64100000 		.4byte	0x1064
 6475 17c8 26       		.uleb128 0x26
 6476 17c9 DA140000 		.4byte	.LASF438
 6477 17cd 01       		.byte	0x1
 6478 17ce 6A01     		.2byte	0x16a
 6479 17d0 3D100000 		.4byte	0x103d
 6480 17d4 00000000 		.4byte	.LFB222
 6481 17d8 54030000 		.4byte	.LFE222-.LFB222
 6482 17dc 01       		.uleb128 0x1
 6483 17dd 9C       		.byte	0x9c
 6484 17de 921B0000 		.4byte	0x1b92
 6485 17e2 23       		.uleb128 0x23
 6486 17e3 3C010000 		.4byte	.LASF436
 6487 17e7 01       		.byte	0x1
 6488 17e8 6A01     		.2byte	0x16a
 6489 17ea 67080000 		.4byte	0x867
 6490 17ee 2C000000 		.4byte	.LLST7
 6491 17f2 23       		.uleb128 0x23
 6492 17f3 A5000000 		.4byte	.LASF435
 6493 17f7 01       		.byte	0x1
 6494 17f8 6A01     		.2byte	0x16a
 6495 17fa 97170000 		.4byte	0x1797
 6496 17fe 71000000 		.4byte	.LLST8
 6497 1802 27       		.uleb128 0x27
 6498 1803 696E6400 		.ascii	"ind\000"
ARM GAS  /tmp/ccOR9P9P.s 			page 115


 6499 1807 01       		.byte	0x1
 6500 1808 6B01     		.2byte	0x16b
 6501 180a D3000000 		.4byte	0xd3
 6502 180e 02       		.uleb128 0x2
 6503 180f 91       		.byte	0x91
 6504 1810 64       		.sleb128 -28
 6505 1811 28       		.uleb128 0x28
 6506 1812 7F090000 		.4byte	.LASF437
 6507 1816 01       		.byte	0x1
 6508 1817 6D01     		.2byte	0x16d
 6509 1819 E3000000 		.4byte	0xe3
 6510 181d A8000000 		.4byte	.LLST9
 6511 1821 29       		.uleb128 0x29
 6512 1822 16000000 		.4byte	.LVL234
 6513 1826 E8320000 		.4byte	0x32e8
 6514 182a 3B180000 		.4byte	0x183b
 6515 182e 2A       		.uleb128 0x2a
 6516 182f 01       		.uleb128 0x1
 6517 1830 50       		.byte	0x50
 6518 1831 02       		.uleb128 0x2
 6519 1832 75       		.byte	0x75
 6520 1833 00       		.sleb128 0
 6521 1834 2A       		.uleb128 0x2a
 6522 1835 01       		.uleb128 0x1
 6523 1836 51       		.byte	0x51
 6524 1837 02       		.uleb128 0x2
 6525 1838 76       		.byte	0x76
 6526 1839 00       		.sleb128 0
 6527 183a 00       		.byte	0
 6528 183b 29       		.uleb128 0x29
 6529 183c 3A000000 		.4byte	.LVL239
 6530 1840 E8320000 		.4byte	0x32e8
 6531 1844 55180000 		.4byte	0x1855
 6532 1848 2A       		.uleb128 0x2a
 6533 1849 01       		.uleb128 0x1
 6534 184a 50       		.byte	0x50
 6535 184b 02       		.uleb128 0x2
 6536 184c 75       		.byte	0x75
 6537 184d 00       		.sleb128 0
 6538 184e 2A       		.uleb128 0x2a
 6539 184f 01       		.uleb128 0x1
 6540 1850 51       		.byte	0x51
 6541 1851 02       		.uleb128 0x2
 6542 1852 76       		.byte	0x76
 6543 1853 00       		.sleb128 0
 6544 1854 00       		.byte	0
 6545 1855 29       		.uleb128 0x29
 6546 1856 44000000 		.4byte	.LVL240
 6547 185a F3320000 		.4byte	0x32f3
 6548 185e 6F180000 		.4byte	0x186f
 6549 1862 2A       		.uleb128 0x2a
 6550 1863 01       		.uleb128 0x1
 6551 1864 50       		.byte	0x50
 6552 1865 02       		.uleb128 0x2
 6553 1866 75       		.byte	0x75
 6554 1867 00       		.sleb128 0
 6555 1868 2A       		.uleb128 0x2a
ARM GAS  /tmp/ccOR9P9P.s 			page 116


 6556 1869 01       		.uleb128 0x1
 6557 186a 51       		.byte	0x51
 6558 186b 02       		.uleb128 0x2
 6559 186c 76       		.byte	0x76
 6560 186d 00       		.sleb128 0
 6561 186e 00       		.byte	0
 6562 186f 29       		.uleb128 0x29
 6563 1870 5A000000 		.4byte	.LVL241
 6564 1874 FE320000 		.4byte	0x32fe
 6565 1878 89180000 		.4byte	0x1889
 6566 187c 2A       		.uleb128 0x2a
 6567 187d 01       		.uleb128 0x1
 6568 187e 50       		.byte	0x50
 6569 187f 02       		.uleb128 0x2
 6570 1880 75       		.byte	0x75
 6571 1881 00       		.sleb128 0
 6572 1882 2A       		.uleb128 0x2a
 6573 1883 01       		.uleb128 0x1
 6574 1884 51       		.byte	0x51
 6575 1885 02       		.uleb128 0x2
 6576 1886 76       		.byte	0x76
 6577 1887 00       		.sleb128 0
 6578 1888 00       		.byte	0
 6579 1889 29       		.uleb128 0x29
 6580 188a 9A000000 		.4byte	.LVL242
 6581 188e F3320000 		.4byte	0x32f3
 6582 1892 A3180000 		.4byte	0x18a3
 6583 1896 2A       		.uleb128 0x2a
 6584 1897 01       		.uleb128 0x1
 6585 1898 50       		.byte	0x50
 6586 1899 02       		.uleb128 0x2
 6587 189a 75       		.byte	0x75
 6588 189b 00       		.sleb128 0
 6589 189c 2A       		.uleb128 0x2a
 6590 189d 01       		.uleb128 0x1
 6591 189e 51       		.byte	0x51
 6592 189f 02       		.uleb128 0x2
 6593 18a0 76       		.byte	0x76
 6594 18a1 00       		.sleb128 0
 6595 18a2 00       		.byte	0
 6596 18a3 29       		.uleb128 0x29
 6597 18a4 A6000000 		.4byte	.LVL243
 6598 18a8 F3320000 		.4byte	0x32f3
 6599 18ac BD180000 		.4byte	0x18bd
 6600 18b0 2A       		.uleb128 0x2a
 6601 18b1 01       		.uleb128 0x1
 6602 18b2 50       		.byte	0x50
 6603 18b3 02       		.uleb128 0x2
 6604 18b4 75       		.byte	0x75
 6605 18b5 00       		.sleb128 0
 6606 18b6 2A       		.uleb128 0x2a
 6607 18b7 01       		.uleb128 0x1
 6608 18b8 51       		.byte	0x51
 6609 18b9 02       		.uleb128 0x2
 6610 18ba 76       		.byte	0x76
 6611 18bb 00       		.sleb128 0
 6612 18bc 00       		.byte	0
ARM GAS  /tmp/ccOR9P9P.s 			page 117


 6613 18bd 29       		.uleb128 0x29
 6614 18be B2000000 		.4byte	.LVL244
 6615 18c2 F3320000 		.4byte	0x32f3
 6616 18c6 D7180000 		.4byte	0x18d7
 6617 18ca 2A       		.uleb128 0x2a
 6618 18cb 01       		.uleb128 0x1
 6619 18cc 50       		.byte	0x50
 6620 18cd 02       		.uleb128 0x2
 6621 18ce 75       		.byte	0x75
 6622 18cf 00       		.sleb128 0
 6623 18d0 2A       		.uleb128 0x2a
 6624 18d1 01       		.uleb128 0x1
 6625 18d2 51       		.byte	0x51
 6626 18d3 02       		.uleb128 0x2
 6627 18d4 76       		.byte	0x76
 6628 18d5 00       		.sleb128 0
 6629 18d6 00       		.byte	0
 6630 18d7 29       		.uleb128 0x29
 6631 18d8 BE000000 		.4byte	.LVL245
 6632 18dc F3320000 		.4byte	0x32f3
 6633 18e0 F1180000 		.4byte	0x18f1
 6634 18e4 2A       		.uleb128 0x2a
 6635 18e5 01       		.uleb128 0x1
 6636 18e6 50       		.byte	0x50
 6637 18e7 02       		.uleb128 0x2
 6638 18e8 75       		.byte	0x75
 6639 18e9 00       		.sleb128 0
 6640 18ea 2A       		.uleb128 0x2a
 6641 18eb 01       		.uleb128 0x1
 6642 18ec 51       		.byte	0x51
 6643 18ed 02       		.uleb128 0x2
 6644 18ee 76       		.byte	0x76
 6645 18ef 00       		.sleb128 0
 6646 18f0 00       		.byte	0
 6647 18f1 29       		.uleb128 0x29
 6648 18f2 CA000000 		.4byte	.LVL246
 6649 18f6 F3320000 		.4byte	0x32f3
 6650 18fa 0B190000 		.4byte	0x190b
 6651 18fe 2A       		.uleb128 0x2a
 6652 18ff 01       		.uleb128 0x1
 6653 1900 50       		.byte	0x50
 6654 1901 02       		.uleb128 0x2
 6655 1902 75       		.byte	0x75
 6656 1903 00       		.sleb128 0
 6657 1904 2A       		.uleb128 0x2a
 6658 1905 01       		.uleb128 0x1
 6659 1906 51       		.byte	0x51
 6660 1907 02       		.uleb128 0x2
 6661 1908 76       		.byte	0x76
 6662 1909 00       		.sleb128 0
 6663 190a 00       		.byte	0
 6664 190b 29       		.uleb128 0x29
 6665 190c F8000000 		.4byte	.LVL247
 6666 1910 F3320000 		.4byte	0x32f3
 6667 1914 25190000 		.4byte	0x1925
 6668 1918 2A       		.uleb128 0x2a
 6669 1919 01       		.uleb128 0x1
ARM GAS  /tmp/ccOR9P9P.s 			page 118


 6670 191a 50       		.byte	0x50
 6671 191b 02       		.uleb128 0x2
 6672 191c 75       		.byte	0x75
 6673 191d 00       		.sleb128 0
 6674 191e 2A       		.uleb128 0x2a
 6675 191f 01       		.uleb128 0x1
 6676 1920 51       		.byte	0x51
 6677 1921 02       		.uleb128 0x2
 6678 1922 76       		.byte	0x76
 6679 1923 00       		.sleb128 0
 6680 1924 00       		.byte	0
 6681 1925 29       		.uleb128 0x29
 6682 1926 04010000 		.4byte	.LVL248
 6683 192a F3320000 		.4byte	0x32f3
 6684 192e 3F190000 		.4byte	0x193f
 6685 1932 2A       		.uleb128 0x2a
 6686 1933 01       		.uleb128 0x1
 6687 1934 50       		.byte	0x50
 6688 1935 02       		.uleb128 0x2
 6689 1936 75       		.byte	0x75
 6690 1937 00       		.sleb128 0
 6691 1938 2A       		.uleb128 0x2a
 6692 1939 01       		.uleb128 0x1
 6693 193a 51       		.byte	0x51
 6694 193b 02       		.uleb128 0x2
 6695 193c 76       		.byte	0x76
 6696 193d 00       		.sleb128 0
 6697 193e 00       		.byte	0
 6698 193f 29       		.uleb128 0x29
 6699 1940 1C010000 		.4byte	.LVL249
 6700 1944 F3320000 		.4byte	0x32f3
 6701 1948 59190000 		.4byte	0x1959
 6702 194c 2A       		.uleb128 0x2a
 6703 194d 01       		.uleb128 0x1
 6704 194e 50       		.byte	0x50
 6705 194f 02       		.uleb128 0x2
 6706 1950 75       		.byte	0x75
 6707 1951 00       		.sleb128 0
 6708 1952 2A       		.uleb128 0x2a
 6709 1953 01       		.uleb128 0x1
 6710 1954 51       		.byte	0x51
 6711 1955 02       		.uleb128 0x2
 6712 1956 76       		.byte	0x76
 6713 1957 00       		.sleb128 0
 6714 1958 00       		.byte	0
 6715 1959 29       		.uleb128 0x29
 6716 195a 28010000 		.4byte	.LVL250
 6717 195e F3320000 		.4byte	0x32f3
 6718 1962 73190000 		.4byte	0x1973
 6719 1966 2A       		.uleb128 0x2a
 6720 1967 01       		.uleb128 0x1
 6721 1968 50       		.byte	0x50
 6722 1969 02       		.uleb128 0x2
 6723 196a 75       		.byte	0x75
 6724 196b 00       		.sleb128 0
 6725 196c 2A       		.uleb128 0x2a
 6726 196d 01       		.uleb128 0x1
ARM GAS  /tmp/ccOR9P9P.s 			page 119


 6727 196e 51       		.byte	0x51
 6728 196f 02       		.uleb128 0x2
 6729 1970 76       		.byte	0x76
 6730 1971 00       		.sleb128 0
 6731 1972 00       		.byte	0
 6732 1973 29       		.uleb128 0x29
 6733 1974 56010000 		.4byte	.LVL251
 6734 1978 F3320000 		.4byte	0x32f3
 6735 197c 8D190000 		.4byte	0x198d
 6736 1980 2A       		.uleb128 0x2a
 6737 1981 01       		.uleb128 0x1
 6738 1982 50       		.byte	0x50
 6739 1983 02       		.uleb128 0x2
 6740 1984 75       		.byte	0x75
 6741 1985 00       		.sleb128 0
 6742 1986 2A       		.uleb128 0x2a
 6743 1987 01       		.uleb128 0x1
 6744 1988 51       		.byte	0x51
 6745 1989 02       		.uleb128 0x2
 6746 198a 76       		.byte	0x76
 6747 198b 00       		.sleb128 0
 6748 198c 00       		.byte	0
 6749 198d 29       		.uleb128 0x29
 6750 198e 6E010000 		.4byte	.LVL252
 6751 1992 F3320000 		.4byte	0x32f3
 6752 1996 A7190000 		.4byte	0x19a7
 6753 199a 2A       		.uleb128 0x2a
 6754 199b 01       		.uleb128 0x1
 6755 199c 50       		.byte	0x50
 6756 199d 02       		.uleb128 0x2
 6757 199e 75       		.byte	0x75
 6758 199f 00       		.sleb128 0
 6759 19a0 2A       		.uleb128 0x2a
 6760 19a1 01       		.uleb128 0x1
 6761 19a2 51       		.byte	0x51
 6762 19a3 02       		.uleb128 0x2
 6763 19a4 76       		.byte	0x76
 6764 19a5 00       		.sleb128 0
 6765 19a6 00       		.byte	0
 6766 19a7 29       		.uleb128 0x29
 6767 19a8 7A010000 		.4byte	.LVL253
 6768 19ac F3320000 		.4byte	0x32f3
 6769 19b0 C1190000 		.4byte	0x19c1
 6770 19b4 2A       		.uleb128 0x2a
 6771 19b5 01       		.uleb128 0x1
 6772 19b6 50       		.byte	0x50
 6773 19b7 02       		.uleb128 0x2
 6774 19b8 75       		.byte	0x75
 6775 19b9 00       		.sleb128 0
 6776 19ba 2A       		.uleb128 0x2a
 6777 19bb 01       		.uleb128 0x1
 6778 19bc 51       		.byte	0x51
 6779 19bd 02       		.uleb128 0x2
 6780 19be 76       		.byte	0x76
 6781 19bf 00       		.sleb128 0
 6782 19c0 00       		.byte	0
 6783 19c1 29       		.uleb128 0x29
ARM GAS  /tmp/ccOR9P9P.s 			page 120


 6784 19c2 86010000 		.4byte	.LVL254
 6785 19c6 F3320000 		.4byte	0x32f3
 6786 19ca DB190000 		.4byte	0x19db
 6787 19ce 2A       		.uleb128 0x2a
 6788 19cf 01       		.uleb128 0x1
 6789 19d0 50       		.byte	0x50
 6790 19d1 02       		.uleb128 0x2
 6791 19d2 75       		.byte	0x75
 6792 19d3 00       		.sleb128 0
 6793 19d4 2A       		.uleb128 0x2a
 6794 19d5 01       		.uleb128 0x1
 6795 19d6 51       		.byte	0x51
 6796 19d7 02       		.uleb128 0x2
 6797 19d8 76       		.byte	0x76
 6798 19d9 00       		.sleb128 0
 6799 19da 00       		.byte	0
 6800 19db 29       		.uleb128 0x29
 6801 19dc 92010000 		.4byte	.LVL255
 6802 19e0 F3320000 		.4byte	0x32f3
 6803 19e4 F5190000 		.4byte	0x19f5
 6804 19e8 2A       		.uleb128 0x2a
 6805 19e9 01       		.uleb128 0x1
 6806 19ea 50       		.byte	0x50
 6807 19eb 02       		.uleb128 0x2
 6808 19ec 75       		.byte	0x75
 6809 19ed 00       		.sleb128 0
 6810 19ee 2A       		.uleb128 0x2a
 6811 19ef 01       		.uleb128 0x1
 6812 19f0 51       		.byte	0x51
 6813 19f1 02       		.uleb128 0x2
 6814 19f2 76       		.byte	0x76
 6815 19f3 00       		.sleb128 0
 6816 19f4 00       		.byte	0
 6817 19f5 29       		.uleb128 0x29
 6818 19f6 9E010000 		.4byte	.LVL256
 6819 19fa F3320000 		.4byte	0x32f3
 6820 19fe 0F1A0000 		.4byte	0x1a0f
 6821 1a02 2A       		.uleb128 0x2a
 6822 1a03 01       		.uleb128 0x1
 6823 1a04 50       		.byte	0x50
 6824 1a05 02       		.uleb128 0x2
 6825 1a06 75       		.byte	0x75
 6826 1a07 00       		.sleb128 0
 6827 1a08 2A       		.uleb128 0x2a
 6828 1a09 01       		.uleb128 0x1
 6829 1a0a 51       		.byte	0x51
 6830 1a0b 02       		.uleb128 0x2
 6831 1a0c 76       		.byte	0x76
 6832 1a0d 00       		.sleb128 0
 6833 1a0e 00       		.byte	0
 6834 1a0f 29       		.uleb128 0x29
 6835 1a10 AA010000 		.4byte	.LVL257
 6836 1a14 F3320000 		.4byte	0x32f3
 6837 1a18 291A0000 		.4byte	0x1a29
 6838 1a1c 2A       		.uleb128 0x2a
 6839 1a1d 01       		.uleb128 0x1
 6840 1a1e 50       		.byte	0x50
ARM GAS  /tmp/ccOR9P9P.s 			page 121


 6841 1a1f 02       		.uleb128 0x2
 6842 1a20 75       		.byte	0x75
 6843 1a21 00       		.sleb128 0
 6844 1a22 2A       		.uleb128 0x2a
 6845 1a23 01       		.uleb128 0x1
 6846 1a24 51       		.byte	0x51
 6847 1a25 02       		.uleb128 0x2
 6848 1a26 76       		.byte	0x76
 6849 1a27 00       		.sleb128 0
 6850 1a28 00       		.byte	0
 6851 1a29 29       		.uleb128 0x29
 6852 1a2a 08020000 		.4byte	.LVL258
 6853 1a2e F3320000 		.4byte	0x32f3
 6854 1a32 431A0000 		.4byte	0x1a43
 6855 1a36 2A       		.uleb128 0x2a
 6856 1a37 01       		.uleb128 0x1
 6857 1a38 50       		.byte	0x50
 6858 1a39 02       		.uleb128 0x2
 6859 1a3a 75       		.byte	0x75
 6860 1a3b 00       		.sleb128 0
 6861 1a3c 2A       		.uleb128 0x2a
 6862 1a3d 01       		.uleb128 0x1
 6863 1a3e 51       		.byte	0x51
 6864 1a3f 02       		.uleb128 0x2
 6865 1a40 76       		.byte	0x76
 6866 1a41 00       		.sleb128 0
 6867 1a42 00       		.byte	0
 6868 1a43 29       		.uleb128 0x29
 6869 1a44 14020000 		.4byte	.LVL259
 6870 1a48 F3320000 		.4byte	0x32f3
 6871 1a4c 5D1A0000 		.4byte	0x1a5d
 6872 1a50 2A       		.uleb128 0x2a
 6873 1a51 01       		.uleb128 0x1
 6874 1a52 50       		.byte	0x50
 6875 1a53 02       		.uleb128 0x2
 6876 1a54 75       		.byte	0x75
 6877 1a55 00       		.sleb128 0
 6878 1a56 2A       		.uleb128 0x2a
 6879 1a57 01       		.uleb128 0x1
 6880 1a58 51       		.byte	0x51
 6881 1a59 02       		.uleb128 0x2
 6882 1a5a 76       		.byte	0x76
 6883 1a5b 00       		.sleb128 0
 6884 1a5c 00       		.byte	0
 6885 1a5d 29       		.uleb128 0x29
 6886 1a5e 2C020000 		.4byte	.LVL260
 6887 1a62 F3320000 		.4byte	0x32f3
 6888 1a66 771A0000 		.4byte	0x1a77
 6889 1a6a 2A       		.uleb128 0x2a
 6890 1a6b 01       		.uleb128 0x1
 6891 1a6c 50       		.byte	0x50
 6892 1a6d 02       		.uleb128 0x2
 6893 1a6e 75       		.byte	0x75
 6894 1a6f 00       		.sleb128 0
 6895 1a70 2A       		.uleb128 0x2a
 6896 1a71 01       		.uleb128 0x1
 6897 1a72 51       		.byte	0x51
ARM GAS  /tmp/ccOR9P9P.s 			page 122


 6898 1a73 02       		.uleb128 0x2
 6899 1a74 76       		.byte	0x76
 6900 1a75 00       		.sleb128 0
 6901 1a76 00       		.byte	0
 6902 1a77 29       		.uleb128 0x29
 6903 1a78 38020000 		.4byte	.LVL261
 6904 1a7c F3320000 		.4byte	0x32f3
 6905 1a80 911A0000 		.4byte	0x1a91
 6906 1a84 2A       		.uleb128 0x2a
 6907 1a85 01       		.uleb128 0x1
 6908 1a86 50       		.byte	0x50
 6909 1a87 02       		.uleb128 0x2
 6910 1a88 75       		.byte	0x75
 6911 1a89 00       		.sleb128 0
 6912 1a8a 2A       		.uleb128 0x2a
 6913 1a8b 01       		.uleb128 0x1
 6914 1a8c 51       		.byte	0x51
 6915 1a8d 02       		.uleb128 0x2
 6916 1a8e 76       		.byte	0x76
 6917 1a8f 00       		.sleb128 0
 6918 1a90 00       		.byte	0
 6919 1a91 29       		.uleb128 0x29
 6920 1a92 66020000 		.4byte	.LVL262
 6921 1a96 F3320000 		.4byte	0x32f3
 6922 1a9a AB1A0000 		.4byte	0x1aab
 6923 1a9e 2A       		.uleb128 0x2a
 6924 1a9f 01       		.uleb128 0x1
 6925 1aa0 50       		.byte	0x50
 6926 1aa1 02       		.uleb128 0x2
 6927 1aa2 75       		.byte	0x75
 6928 1aa3 00       		.sleb128 0
 6929 1aa4 2A       		.uleb128 0x2a
 6930 1aa5 01       		.uleb128 0x1
 6931 1aa6 51       		.byte	0x51
 6932 1aa7 02       		.uleb128 0x2
 6933 1aa8 76       		.byte	0x76
 6934 1aa9 00       		.sleb128 0
 6935 1aaa 00       		.byte	0
 6936 1aab 29       		.uleb128 0x29
 6937 1aac 72020000 		.4byte	.LVL263
 6938 1ab0 FE320000 		.4byte	0x32fe
 6939 1ab4 C51A0000 		.4byte	0x1ac5
 6940 1ab8 2A       		.uleb128 0x2a
 6941 1ab9 01       		.uleb128 0x1
 6942 1aba 50       		.byte	0x50
 6943 1abb 02       		.uleb128 0x2
 6944 1abc 75       		.byte	0x75
 6945 1abd 00       		.sleb128 0
 6946 1abe 2A       		.uleb128 0x2a
 6947 1abf 01       		.uleb128 0x1
 6948 1ac0 51       		.byte	0x51
 6949 1ac1 02       		.uleb128 0x2
 6950 1ac2 76       		.byte	0x76
 6951 1ac3 00       		.sleb128 0
 6952 1ac4 00       		.byte	0
 6953 1ac5 29       		.uleb128 0x29
 6954 1ac6 7E020000 		.4byte	.LVL264
ARM GAS  /tmp/ccOR9P9P.s 			page 123


 6955 1aca E8320000 		.4byte	0x32e8
 6956 1ace DF1A0000 		.4byte	0x1adf
 6957 1ad2 2A       		.uleb128 0x2a
 6958 1ad3 01       		.uleb128 0x1
 6959 1ad4 50       		.byte	0x50
 6960 1ad5 02       		.uleb128 0x2
 6961 1ad6 75       		.byte	0x75
 6962 1ad7 00       		.sleb128 0
 6963 1ad8 2A       		.uleb128 0x2a
 6964 1ad9 01       		.uleb128 0x1
 6965 1ada 51       		.byte	0x51
 6966 1adb 02       		.uleb128 0x2
 6967 1adc 76       		.byte	0x76
 6968 1add 00       		.sleb128 0
 6969 1ade 00       		.byte	0
 6970 1adf 29       		.uleb128 0x29
 6971 1ae0 96020000 		.4byte	.LVL265
 6972 1ae4 F3320000 		.4byte	0x32f3
 6973 1ae8 F91A0000 		.4byte	0x1af9
 6974 1aec 2A       		.uleb128 0x2a
 6975 1aed 01       		.uleb128 0x1
 6976 1aee 50       		.byte	0x50
 6977 1aef 02       		.uleb128 0x2
 6978 1af0 75       		.byte	0x75
 6979 1af1 00       		.sleb128 0
 6980 1af2 2A       		.uleb128 0x2a
 6981 1af3 01       		.uleb128 0x1
 6982 1af4 51       		.byte	0x51
 6983 1af5 02       		.uleb128 0x2
 6984 1af6 76       		.byte	0x76
 6985 1af7 00       		.sleb128 0
 6986 1af8 00       		.byte	0
 6987 1af9 29       		.uleb128 0x29
 6988 1afa A2020000 		.4byte	.LVL266
 6989 1afe F3320000 		.4byte	0x32f3
 6990 1b02 131B0000 		.4byte	0x1b13
 6991 1b06 2A       		.uleb128 0x2a
 6992 1b07 01       		.uleb128 0x1
 6993 1b08 50       		.byte	0x50
 6994 1b09 02       		.uleb128 0x2
 6995 1b0a 75       		.byte	0x75
 6996 1b0b 00       		.sleb128 0
 6997 1b0c 2A       		.uleb128 0x2a
 6998 1b0d 01       		.uleb128 0x1
 6999 1b0e 51       		.byte	0x51
 7000 1b0f 02       		.uleb128 0x2
 7001 1b10 76       		.byte	0x76
 7002 1b11 00       		.sleb128 0
 7003 1b12 00       		.byte	0
 7004 1b13 29       		.uleb128 0x29
 7005 1b14 AE020000 		.4byte	.LVL267
 7006 1b18 F3320000 		.4byte	0x32f3
 7007 1b1c 2D1B0000 		.4byte	0x1b2d
 7008 1b20 2A       		.uleb128 0x2a
 7009 1b21 01       		.uleb128 0x1
 7010 1b22 50       		.byte	0x50
 7011 1b23 02       		.uleb128 0x2
ARM GAS  /tmp/ccOR9P9P.s 			page 124


 7012 1b24 75       		.byte	0x75
 7013 1b25 00       		.sleb128 0
 7014 1b26 2A       		.uleb128 0x2a
 7015 1b27 01       		.uleb128 0x1
 7016 1b28 51       		.byte	0x51
 7017 1b29 02       		.uleb128 0x2
 7018 1b2a 76       		.byte	0x76
 7019 1b2b 00       		.sleb128 0
 7020 1b2c 00       		.byte	0
 7021 1b2d 29       		.uleb128 0x29
 7022 1b2e BA020000 		.4byte	.LVL268
 7023 1b32 F3320000 		.4byte	0x32f3
 7024 1b36 471B0000 		.4byte	0x1b47
 7025 1b3a 2A       		.uleb128 0x2a
 7026 1b3b 01       		.uleb128 0x1
 7027 1b3c 50       		.byte	0x50
 7028 1b3d 02       		.uleb128 0x2
 7029 1b3e 75       		.byte	0x75
 7030 1b3f 00       		.sleb128 0
 7031 1b40 2A       		.uleb128 0x2a
 7032 1b41 01       		.uleb128 0x1
 7033 1b42 51       		.byte	0x51
 7034 1b43 02       		.uleb128 0x2
 7035 1b44 76       		.byte	0x76
 7036 1b45 00       		.sleb128 0
 7037 1b46 00       		.byte	0
 7038 1b47 29       		.uleb128 0x29
 7039 1b48 C6020000 		.4byte	.LVL269
 7040 1b4c F3320000 		.4byte	0x32f3
 7041 1b50 611B0000 		.4byte	0x1b61
 7042 1b54 2A       		.uleb128 0x2a
 7043 1b55 01       		.uleb128 0x1
 7044 1b56 50       		.byte	0x50
 7045 1b57 02       		.uleb128 0x2
 7046 1b58 75       		.byte	0x75
 7047 1b59 00       		.sleb128 0
 7048 1b5a 2A       		.uleb128 0x2a
 7049 1b5b 01       		.uleb128 0x1
 7050 1b5c 51       		.byte	0x51
 7051 1b5d 02       		.uleb128 0x2
 7052 1b5e 76       		.byte	0x76
 7053 1b5f 00       		.sleb128 0
 7054 1b60 00       		.byte	0
 7055 1b61 29       		.uleb128 0x29
 7056 1b62 D2020000 		.4byte	.LVL270
 7057 1b66 F3320000 		.4byte	0x32f3
 7058 1b6a 7B1B0000 		.4byte	0x1b7b
 7059 1b6e 2A       		.uleb128 0x2a
 7060 1b6f 01       		.uleb128 0x1
 7061 1b70 50       		.byte	0x50
 7062 1b71 02       		.uleb128 0x2
 7063 1b72 75       		.byte	0x75
 7064 1b73 00       		.sleb128 0
 7065 1b74 2A       		.uleb128 0x2a
 7066 1b75 01       		.uleb128 0x1
 7067 1b76 51       		.byte	0x51
 7068 1b77 02       		.uleb128 0x2
ARM GAS  /tmp/ccOR9P9P.s 			page 125


 7069 1b78 76       		.byte	0x76
 7070 1b79 00       		.sleb128 0
 7071 1b7a 00       		.byte	0
 7072 1b7b 2B       		.uleb128 0x2b
 7073 1b7c 04030000 		.4byte	.LVL271
 7074 1b80 F3320000 		.4byte	0x32f3
 7075 1b84 2A       		.uleb128 0x2a
 7076 1b85 01       		.uleb128 0x1
 7077 1b86 50       		.byte	0x50
 7078 1b87 02       		.uleb128 0x2
 7079 1b88 75       		.byte	0x75
 7080 1b89 00       		.sleb128 0
 7081 1b8a 2A       		.uleb128 0x2a
 7082 1b8b 01       		.uleb128 0x1
 7083 1b8c 51       		.byte	0x51
 7084 1b8d 02       		.uleb128 0x2
 7085 1b8e 76       		.byte	0x76
 7086 1b8f 00       		.sleb128 0
 7087 1b90 00       		.byte	0
 7088 1b91 00       		.byte	0
 7089 1b92 2C       		.uleb128 0x2c
 7090 1b93 87180000 		.4byte	.LASF439
 7091 1b97 01       		.byte	0x1
 7092 1b98 DF       		.byte	0xdf
 7093 1b99 3D100000 		.4byte	0x103d
 7094 1b9d 00000000 		.4byte	.LFB221
 7095 1ba1 CA050000 		.4byte	.LFE221-.LFB221
 7096 1ba5 01       		.uleb128 0x1
 7097 1ba6 9C       		.byte	0x9c
 7098 1ba7 55250000 		.4byte	0x2555
 7099 1bab 2D       		.uleb128 0x2d
 7100 1bac 3C010000 		.4byte	.LASF436
 7101 1bb0 01       		.byte	0x1
 7102 1bb1 DF       		.byte	0xdf
 7103 1bb2 67080000 		.4byte	0x867
 7104 1bb6 C6000000 		.4byte	.LLST4
 7105 1bba 2D       		.uleb128 0x2d
 7106 1bbb A5000000 		.4byte	.LASF435
 7107 1bbf 01       		.byte	0x1
 7108 1bc0 DF       		.byte	0xdf
 7109 1bc1 C2170000 		.4byte	0x17c2
 7110 1bc5 FD000000 		.4byte	.LLST5
 7111 1bc9 2E       		.uleb128 0x2e
 7112 1bca 696E6400 		.ascii	"ind\000"
 7113 1bce 01       		.byte	0x1
 7114 1bcf E0       		.byte	0xe0
 7115 1bd0 D3000000 		.4byte	0xd3
 7116 1bd4 02       		.uleb128 0x2
 7117 1bd5 91       		.byte	0x91
 7118 1bd6 64       		.sleb128 -28
 7119 1bd7 2F       		.uleb128 0x2f
 7120 1bd8 7F090000 		.4byte	.LASF437
 7121 1bdc 01       		.byte	0x1
 7122 1bdd E2       		.byte	0xe2
 7123 1bde E3000000 		.4byte	0xe3
 7124 1be2 34010000 		.4byte	.LLST6
 7125 1be6 29       		.uleb128 0x29
ARM GAS  /tmp/ccOR9P9P.s 			page 126


 7126 1be7 16000000 		.4byte	.LVL135
 7127 1beb E8320000 		.4byte	0x32e8
 7128 1bef 001C0000 		.4byte	0x1c00
 7129 1bf3 2A       		.uleb128 0x2a
 7130 1bf4 01       		.uleb128 0x1
 7131 1bf5 50       		.byte	0x50
 7132 1bf6 02       		.uleb128 0x2
 7133 1bf7 75       		.byte	0x75
 7134 1bf8 00       		.sleb128 0
 7135 1bf9 2A       		.uleb128 0x2a
 7136 1bfa 01       		.uleb128 0x1
 7137 1bfb 51       		.byte	0x51
 7138 1bfc 02       		.uleb128 0x2
 7139 1bfd 76       		.byte	0x76
 7140 1bfe 00       		.sleb128 0
 7141 1bff 00       		.byte	0
 7142 1c00 29       		.uleb128 0x29
 7143 1c01 48000000 		.4byte	.LVL140
 7144 1c05 F3320000 		.4byte	0x32f3
 7145 1c09 1A1C0000 		.4byte	0x1c1a
 7146 1c0d 2A       		.uleb128 0x2a
 7147 1c0e 01       		.uleb128 0x1
 7148 1c0f 50       		.byte	0x50
 7149 1c10 02       		.uleb128 0x2
 7150 1c11 75       		.byte	0x75
 7151 1c12 00       		.sleb128 0
 7152 1c13 2A       		.uleb128 0x2a
 7153 1c14 01       		.uleb128 0x1
 7154 1c15 51       		.byte	0x51
 7155 1c16 02       		.uleb128 0x2
 7156 1c17 76       		.byte	0x76
 7157 1c18 00       		.sleb128 0
 7158 1c19 00       		.byte	0
 7159 1c1a 29       		.uleb128 0x29
 7160 1c1b 54000000 		.4byte	.LVL141
 7161 1c1f F3320000 		.4byte	0x32f3
 7162 1c23 341C0000 		.4byte	0x1c34
 7163 1c27 2A       		.uleb128 0x2a
 7164 1c28 01       		.uleb128 0x1
 7165 1c29 50       		.byte	0x50
 7166 1c2a 02       		.uleb128 0x2
 7167 1c2b 75       		.byte	0x75
 7168 1c2c 00       		.sleb128 0
 7169 1c2d 2A       		.uleb128 0x2a
 7170 1c2e 01       		.uleb128 0x1
 7171 1c2f 51       		.byte	0x51
 7172 1c30 02       		.uleb128 0x2
 7173 1c31 76       		.byte	0x76
 7174 1c32 00       		.sleb128 0
 7175 1c33 00       		.byte	0
 7176 1c34 29       		.uleb128 0x29
 7177 1c35 60000000 		.4byte	.LVL142
 7178 1c39 F3320000 		.4byte	0x32f3
 7179 1c3d 4E1C0000 		.4byte	0x1c4e
 7180 1c41 2A       		.uleb128 0x2a
 7181 1c42 01       		.uleb128 0x1
 7182 1c43 50       		.byte	0x50
ARM GAS  /tmp/ccOR9P9P.s 			page 127


 7183 1c44 02       		.uleb128 0x2
 7184 1c45 75       		.byte	0x75
 7185 1c46 00       		.sleb128 0
 7186 1c47 2A       		.uleb128 0x2a
 7187 1c48 01       		.uleb128 0x1
 7188 1c49 51       		.byte	0x51
 7189 1c4a 02       		.uleb128 0x2
 7190 1c4b 76       		.byte	0x76
 7191 1c4c 00       		.sleb128 0
 7192 1c4d 00       		.byte	0
 7193 1c4e 29       		.uleb128 0x29
 7194 1c4f 6C000000 		.4byte	.LVL143
 7195 1c53 F3320000 		.4byte	0x32f3
 7196 1c57 681C0000 		.4byte	0x1c68
 7197 1c5b 2A       		.uleb128 0x2a
 7198 1c5c 01       		.uleb128 0x1
 7199 1c5d 50       		.byte	0x50
 7200 1c5e 02       		.uleb128 0x2
 7201 1c5f 75       		.byte	0x75
 7202 1c60 00       		.sleb128 0
 7203 1c61 2A       		.uleb128 0x2a
 7204 1c62 01       		.uleb128 0x1
 7205 1c63 51       		.byte	0x51
 7206 1c64 02       		.uleb128 0x2
 7207 1c65 76       		.byte	0x76
 7208 1c66 00       		.sleb128 0
 7209 1c67 00       		.byte	0
 7210 1c68 29       		.uleb128 0x29
 7211 1c69 78000000 		.4byte	.LVL144
 7212 1c6d F3320000 		.4byte	0x32f3
 7213 1c71 821C0000 		.4byte	0x1c82
 7214 1c75 2A       		.uleb128 0x2a
 7215 1c76 01       		.uleb128 0x1
 7216 1c77 50       		.byte	0x50
 7217 1c78 02       		.uleb128 0x2
 7218 1c79 75       		.byte	0x75
 7219 1c7a 00       		.sleb128 0
 7220 1c7b 2A       		.uleb128 0x2a
 7221 1c7c 01       		.uleb128 0x1
 7222 1c7d 51       		.byte	0x51
 7223 1c7e 02       		.uleb128 0x2
 7224 1c7f 76       		.byte	0x76
 7225 1c80 00       		.sleb128 0
 7226 1c81 00       		.byte	0
 7227 1c82 29       		.uleb128 0x29
 7228 1c83 84000000 		.4byte	.LVL145
 7229 1c87 F3320000 		.4byte	0x32f3
 7230 1c8b 9C1C0000 		.4byte	0x1c9c
 7231 1c8f 2A       		.uleb128 0x2a
 7232 1c90 01       		.uleb128 0x1
 7233 1c91 50       		.byte	0x50
 7234 1c92 02       		.uleb128 0x2
 7235 1c93 75       		.byte	0x75
 7236 1c94 00       		.sleb128 0
 7237 1c95 2A       		.uleb128 0x2a
 7238 1c96 01       		.uleb128 0x1
 7239 1c97 51       		.byte	0x51
ARM GAS  /tmp/ccOR9P9P.s 			page 128


 7240 1c98 02       		.uleb128 0x2
 7241 1c99 76       		.byte	0x76
 7242 1c9a 00       		.sleb128 0
 7243 1c9b 00       		.byte	0
 7244 1c9c 29       		.uleb128 0x29
 7245 1c9d 90000000 		.4byte	.LVL146
 7246 1ca1 F3320000 		.4byte	0x32f3
 7247 1ca5 B61C0000 		.4byte	0x1cb6
 7248 1ca9 2A       		.uleb128 0x2a
 7249 1caa 01       		.uleb128 0x1
 7250 1cab 50       		.byte	0x50
 7251 1cac 02       		.uleb128 0x2
 7252 1cad 75       		.byte	0x75
 7253 1cae 00       		.sleb128 0
 7254 1caf 2A       		.uleb128 0x2a
 7255 1cb0 01       		.uleb128 0x1
 7256 1cb1 51       		.byte	0x51
 7257 1cb2 02       		.uleb128 0x2
 7258 1cb3 76       		.byte	0x76
 7259 1cb4 00       		.sleb128 0
 7260 1cb5 00       		.byte	0
 7261 1cb6 29       		.uleb128 0x29
 7262 1cb7 9C000000 		.4byte	.LVL147
 7263 1cbb F3320000 		.4byte	0x32f3
 7264 1cbf D01C0000 		.4byte	0x1cd0
 7265 1cc3 2A       		.uleb128 0x2a
 7266 1cc4 01       		.uleb128 0x1
 7267 1cc5 50       		.byte	0x50
 7268 1cc6 02       		.uleb128 0x2
 7269 1cc7 75       		.byte	0x75
 7270 1cc8 00       		.sleb128 0
 7271 1cc9 2A       		.uleb128 0x2a
 7272 1cca 01       		.uleb128 0x1
 7273 1ccb 51       		.byte	0x51
 7274 1ccc 02       		.uleb128 0x2
 7275 1ccd 76       		.byte	0x76
 7276 1cce 00       		.sleb128 0
 7277 1ccf 00       		.byte	0
 7278 1cd0 29       		.uleb128 0x29
 7279 1cd1 A8000000 		.4byte	.LVL148
 7280 1cd5 F3320000 		.4byte	0x32f3
 7281 1cd9 EA1C0000 		.4byte	0x1cea
 7282 1cdd 2A       		.uleb128 0x2a
 7283 1cde 01       		.uleb128 0x1
 7284 1cdf 50       		.byte	0x50
 7285 1ce0 02       		.uleb128 0x2
 7286 1ce1 75       		.byte	0x75
 7287 1ce2 00       		.sleb128 0
 7288 1ce3 2A       		.uleb128 0x2a
 7289 1ce4 01       		.uleb128 0x1
 7290 1ce5 51       		.byte	0x51
 7291 1ce6 02       		.uleb128 0x2
 7292 1ce7 76       		.byte	0x76
 7293 1ce8 00       		.sleb128 0
 7294 1ce9 00       		.byte	0
 7295 1cea 29       		.uleb128 0x29
 7296 1ceb B4000000 		.4byte	.LVL149
ARM GAS  /tmp/ccOR9P9P.s 			page 129


 7297 1cef F3320000 		.4byte	0x32f3
 7298 1cf3 041D0000 		.4byte	0x1d04
 7299 1cf7 2A       		.uleb128 0x2a
 7300 1cf8 01       		.uleb128 0x1
 7301 1cf9 50       		.byte	0x50
 7302 1cfa 02       		.uleb128 0x2
 7303 1cfb 75       		.byte	0x75
 7304 1cfc 00       		.sleb128 0
 7305 1cfd 2A       		.uleb128 0x2a
 7306 1cfe 01       		.uleb128 0x1
 7307 1cff 51       		.byte	0x51
 7308 1d00 02       		.uleb128 0x2
 7309 1d01 76       		.byte	0x76
 7310 1d02 00       		.sleb128 0
 7311 1d03 00       		.byte	0
 7312 1d04 29       		.uleb128 0x29
 7313 1d05 C0000000 		.4byte	.LVL150
 7314 1d09 F3320000 		.4byte	0x32f3
 7315 1d0d 1E1D0000 		.4byte	0x1d1e
 7316 1d11 2A       		.uleb128 0x2a
 7317 1d12 01       		.uleb128 0x1
 7318 1d13 50       		.byte	0x50
 7319 1d14 02       		.uleb128 0x2
 7320 1d15 75       		.byte	0x75
 7321 1d16 00       		.sleb128 0
 7322 1d17 2A       		.uleb128 0x2a
 7323 1d18 01       		.uleb128 0x1
 7324 1d19 51       		.byte	0x51
 7325 1d1a 02       		.uleb128 0x2
 7326 1d1b 76       		.byte	0x76
 7327 1d1c 00       		.sleb128 0
 7328 1d1d 00       		.byte	0
 7329 1d1e 29       		.uleb128 0x29
 7330 1d1f CC000000 		.4byte	.LVL151
 7331 1d23 F3320000 		.4byte	0x32f3
 7332 1d27 381D0000 		.4byte	0x1d38
 7333 1d2b 2A       		.uleb128 0x2a
 7334 1d2c 01       		.uleb128 0x1
 7335 1d2d 50       		.byte	0x50
 7336 1d2e 02       		.uleb128 0x2
 7337 1d2f 75       		.byte	0x75
 7338 1d30 00       		.sleb128 0
 7339 1d31 2A       		.uleb128 0x2a
 7340 1d32 01       		.uleb128 0x1
 7341 1d33 51       		.byte	0x51
 7342 1d34 02       		.uleb128 0x2
 7343 1d35 76       		.byte	0x76
 7344 1d36 00       		.sleb128 0
 7345 1d37 00       		.byte	0
 7346 1d38 29       		.uleb128 0x29
 7347 1d39 D8000000 		.4byte	.LVL152
 7348 1d3d F3320000 		.4byte	0x32f3
 7349 1d41 521D0000 		.4byte	0x1d52
 7350 1d45 2A       		.uleb128 0x2a
 7351 1d46 01       		.uleb128 0x1
 7352 1d47 50       		.byte	0x50
 7353 1d48 02       		.uleb128 0x2
ARM GAS  /tmp/ccOR9P9P.s 			page 130


 7354 1d49 75       		.byte	0x75
 7355 1d4a 00       		.sleb128 0
 7356 1d4b 2A       		.uleb128 0x2a
 7357 1d4c 01       		.uleb128 0x1
 7358 1d4d 51       		.byte	0x51
 7359 1d4e 02       		.uleb128 0x2
 7360 1d4f 76       		.byte	0x76
 7361 1d50 00       		.sleb128 0
 7362 1d51 00       		.byte	0
 7363 1d52 29       		.uleb128 0x29
 7364 1d53 E4000000 		.4byte	.LVL153
 7365 1d57 F3320000 		.4byte	0x32f3
 7366 1d5b 6C1D0000 		.4byte	0x1d6c
 7367 1d5f 2A       		.uleb128 0x2a
 7368 1d60 01       		.uleb128 0x1
 7369 1d61 50       		.byte	0x50
 7370 1d62 02       		.uleb128 0x2
 7371 1d63 75       		.byte	0x75
 7372 1d64 00       		.sleb128 0
 7373 1d65 2A       		.uleb128 0x2a
 7374 1d66 01       		.uleb128 0x1
 7375 1d67 51       		.byte	0x51
 7376 1d68 02       		.uleb128 0x2
 7377 1d69 76       		.byte	0x76
 7378 1d6a 00       		.sleb128 0
 7379 1d6b 00       		.byte	0
 7380 1d6c 29       		.uleb128 0x29
 7381 1d6d 02010000 		.4byte	.LVL154
 7382 1d71 F3320000 		.4byte	0x32f3
 7383 1d75 861D0000 		.4byte	0x1d86
 7384 1d79 2A       		.uleb128 0x2a
 7385 1d7a 01       		.uleb128 0x1
 7386 1d7b 50       		.byte	0x50
 7387 1d7c 02       		.uleb128 0x2
 7388 1d7d 75       		.byte	0x75
 7389 1d7e 00       		.sleb128 0
 7390 1d7f 2A       		.uleb128 0x2a
 7391 1d80 01       		.uleb128 0x1
 7392 1d81 51       		.byte	0x51
 7393 1d82 02       		.uleb128 0x2
 7394 1d83 76       		.byte	0x76
 7395 1d84 00       		.sleb128 0
 7396 1d85 00       		.byte	0
 7397 1d86 29       		.uleb128 0x29
 7398 1d87 0E010000 		.4byte	.LVL155
 7399 1d8b F3320000 		.4byte	0x32f3
 7400 1d8f A01D0000 		.4byte	0x1da0
 7401 1d93 2A       		.uleb128 0x2a
 7402 1d94 01       		.uleb128 0x1
 7403 1d95 50       		.byte	0x50
 7404 1d96 02       		.uleb128 0x2
 7405 1d97 75       		.byte	0x75
 7406 1d98 00       		.sleb128 0
 7407 1d99 2A       		.uleb128 0x2a
 7408 1d9a 01       		.uleb128 0x1
 7409 1d9b 51       		.byte	0x51
 7410 1d9c 02       		.uleb128 0x2
ARM GAS  /tmp/ccOR9P9P.s 			page 131


 7411 1d9d 76       		.byte	0x76
 7412 1d9e 00       		.sleb128 0
 7413 1d9f 00       		.byte	0
 7414 1da0 29       		.uleb128 0x29
 7415 1da1 1A010000 		.4byte	.LVL156
 7416 1da5 F3320000 		.4byte	0x32f3
 7417 1da9 BA1D0000 		.4byte	0x1dba
 7418 1dad 2A       		.uleb128 0x2a
 7419 1dae 01       		.uleb128 0x1
 7420 1daf 50       		.byte	0x50
 7421 1db0 02       		.uleb128 0x2
 7422 1db1 75       		.byte	0x75
 7423 1db2 00       		.sleb128 0
 7424 1db3 2A       		.uleb128 0x2a
 7425 1db4 01       		.uleb128 0x1
 7426 1db5 51       		.byte	0x51
 7427 1db6 02       		.uleb128 0x2
 7428 1db7 76       		.byte	0x76
 7429 1db8 00       		.sleb128 0
 7430 1db9 00       		.byte	0
 7431 1dba 29       		.uleb128 0x29
 7432 1dbb 26010000 		.4byte	.LVL157
 7433 1dbf F3320000 		.4byte	0x32f3
 7434 1dc3 D41D0000 		.4byte	0x1dd4
 7435 1dc7 2A       		.uleb128 0x2a
 7436 1dc8 01       		.uleb128 0x1
 7437 1dc9 50       		.byte	0x50
 7438 1dca 02       		.uleb128 0x2
 7439 1dcb 75       		.byte	0x75
 7440 1dcc 00       		.sleb128 0
 7441 1dcd 2A       		.uleb128 0x2a
 7442 1dce 01       		.uleb128 0x1
 7443 1dcf 51       		.byte	0x51
 7444 1dd0 02       		.uleb128 0x2
 7445 1dd1 76       		.byte	0x76
 7446 1dd2 00       		.sleb128 0
 7447 1dd3 00       		.byte	0
 7448 1dd4 29       		.uleb128 0x29
 7449 1dd5 32010000 		.4byte	.LVL158
 7450 1dd9 F3320000 		.4byte	0x32f3
 7451 1ddd EE1D0000 		.4byte	0x1dee
 7452 1de1 2A       		.uleb128 0x2a
 7453 1de2 01       		.uleb128 0x1
 7454 1de3 50       		.byte	0x50
 7455 1de4 02       		.uleb128 0x2
 7456 1de5 75       		.byte	0x75
 7457 1de6 00       		.sleb128 0
 7458 1de7 2A       		.uleb128 0x2a
 7459 1de8 01       		.uleb128 0x1
 7460 1de9 51       		.byte	0x51
 7461 1dea 02       		.uleb128 0x2
 7462 1deb 76       		.byte	0x76
 7463 1dec 00       		.sleb128 0
 7464 1ded 00       		.byte	0
 7465 1dee 29       		.uleb128 0x29
 7466 1def 3E010000 		.4byte	.LVL159
 7467 1df3 F3320000 		.4byte	0x32f3
ARM GAS  /tmp/ccOR9P9P.s 			page 132


 7468 1df7 081E0000 		.4byte	0x1e08
 7469 1dfb 2A       		.uleb128 0x2a
 7470 1dfc 01       		.uleb128 0x1
 7471 1dfd 50       		.byte	0x50
 7472 1dfe 02       		.uleb128 0x2
 7473 1dff 75       		.byte	0x75
 7474 1e00 00       		.sleb128 0
 7475 1e01 2A       		.uleb128 0x2a
 7476 1e02 01       		.uleb128 0x1
 7477 1e03 51       		.byte	0x51
 7478 1e04 02       		.uleb128 0x2
 7479 1e05 76       		.byte	0x76
 7480 1e06 00       		.sleb128 0
 7481 1e07 00       		.byte	0
 7482 1e08 29       		.uleb128 0x29
 7483 1e09 4A010000 		.4byte	.LVL160
 7484 1e0d F3320000 		.4byte	0x32f3
 7485 1e11 221E0000 		.4byte	0x1e22
 7486 1e15 2A       		.uleb128 0x2a
 7487 1e16 01       		.uleb128 0x1
 7488 1e17 50       		.byte	0x50
 7489 1e18 02       		.uleb128 0x2
 7490 1e19 75       		.byte	0x75
 7491 1e1a 00       		.sleb128 0
 7492 1e1b 2A       		.uleb128 0x2a
 7493 1e1c 01       		.uleb128 0x1
 7494 1e1d 51       		.byte	0x51
 7495 1e1e 02       		.uleb128 0x2
 7496 1e1f 76       		.byte	0x76
 7497 1e20 00       		.sleb128 0
 7498 1e21 00       		.byte	0
 7499 1e22 29       		.uleb128 0x29
 7500 1e23 56010000 		.4byte	.LVL161
 7501 1e27 F3320000 		.4byte	0x32f3
 7502 1e2b 3C1E0000 		.4byte	0x1e3c
 7503 1e2f 2A       		.uleb128 0x2a
 7504 1e30 01       		.uleb128 0x1
 7505 1e31 50       		.byte	0x50
 7506 1e32 02       		.uleb128 0x2
 7507 1e33 75       		.byte	0x75
 7508 1e34 00       		.sleb128 0
 7509 1e35 2A       		.uleb128 0x2a
 7510 1e36 01       		.uleb128 0x1
 7511 1e37 51       		.byte	0x51
 7512 1e38 02       		.uleb128 0x2
 7513 1e39 76       		.byte	0x76
 7514 1e3a 00       		.sleb128 0
 7515 1e3b 00       		.byte	0
 7516 1e3c 29       		.uleb128 0x29
 7517 1e3d 62010000 		.4byte	.LVL162
 7518 1e41 F3320000 		.4byte	0x32f3
 7519 1e45 561E0000 		.4byte	0x1e56
 7520 1e49 2A       		.uleb128 0x2a
 7521 1e4a 01       		.uleb128 0x1
 7522 1e4b 50       		.byte	0x50
 7523 1e4c 02       		.uleb128 0x2
 7524 1e4d 75       		.byte	0x75
ARM GAS  /tmp/ccOR9P9P.s 			page 133


 7525 1e4e 00       		.sleb128 0
 7526 1e4f 2A       		.uleb128 0x2a
 7527 1e50 01       		.uleb128 0x1
 7528 1e51 51       		.byte	0x51
 7529 1e52 02       		.uleb128 0x2
 7530 1e53 76       		.byte	0x76
 7531 1e54 00       		.sleb128 0
 7532 1e55 00       		.byte	0
 7533 1e56 29       		.uleb128 0x29
 7534 1e57 6E010000 		.4byte	.LVL163
 7535 1e5b F3320000 		.4byte	0x32f3
 7536 1e5f 701E0000 		.4byte	0x1e70
 7537 1e63 2A       		.uleb128 0x2a
 7538 1e64 01       		.uleb128 0x1
 7539 1e65 50       		.byte	0x50
 7540 1e66 02       		.uleb128 0x2
 7541 1e67 75       		.byte	0x75
 7542 1e68 00       		.sleb128 0
 7543 1e69 2A       		.uleb128 0x2a
 7544 1e6a 01       		.uleb128 0x1
 7545 1e6b 51       		.byte	0x51
 7546 1e6c 02       		.uleb128 0x2
 7547 1e6d 76       		.byte	0x76
 7548 1e6e 00       		.sleb128 0
 7549 1e6f 00       		.byte	0
 7550 1e70 29       		.uleb128 0x29
 7551 1e71 7A010000 		.4byte	.LVL164
 7552 1e75 F3320000 		.4byte	0x32f3
 7553 1e79 8A1E0000 		.4byte	0x1e8a
 7554 1e7d 2A       		.uleb128 0x2a
 7555 1e7e 01       		.uleb128 0x1
 7556 1e7f 50       		.byte	0x50
 7557 1e80 02       		.uleb128 0x2
 7558 1e81 75       		.byte	0x75
 7559 1e82 00       		.sleb128 0
 7560 1e83 2A       		.uleb128 0x2a
 7561 1e84 01       		.uleb128 0x1
 7562 1e85 51       		.byte	0x51
 7563 1e86 02       		.uleb128 0x2
 7564 1e87 76       		.byte	0x76
 7565 1e88 00       		.sleb128 0
 7566 1e89 00       		.byte	0
 7567 1e8a 29       		.uleb128 0x29
 7568 1e8b 86010000 		.4byte	.LVL165
 7569 1e8f F3320000 		.4byte	0x32f3
 7570 1e93 A41E0000 		.4byte	0x1ea4
 7571 1e97 2A       		.uleb128 0x2a
 7572 1e98 01       		.uleb128 0x1
 7573 1e99 50       		.byte	0x50
 7574 1e9a 02       		.uleb128 0x2
 7575 1e9b 75       		.byte	0x75
 7576 1e9c 00       		.sleb128 0
 7577 1e9d 2A       		.uleb128 0x2a
 7578 1e9e 01       		.uleb128 0x1
 7579 1e9f 51       		.byte	0x51
 7580 1ea0 02       		.uleb128 0x2
 7581 1ea1 76       		.byte	0x76
ARM GAS  /tmp/ccOR9P9P.s 			page 134


 7582 1ea2 00       		.sleb128 0
 7583 1ea3 00       		.byte	0
 7584 1ea4 29       		.uleb128 0x29
 7585 1ea5 92010000 		.4byte	.LVL166
 7586 1ea9 F3320000 		.4byte	0x32f3
 7587 1ead BE1E0000 		.4byte	0x1ebe
 7588 1eb1 2A       		.uleb128 0x2a
 7589 1eb2 01       		.uleb128 0x1
 7590 1eb3 50       		.byte	0x50
 7591 1eb4 02       		.uleb128 0x2
 7592 1eb5 75       		.byte	0x75
 7593 1eb6 00       		.sleb128 0
 7594 1eb7 2A       		.uleb128 0x2a
 7595 1eb8 01       		.uleb128 0x1
 7596 1eb9 51       		.byte	0x51
 7597 1eba 02       		.uleb128 0x2
 7598 1ebb 76       		.byte	0x76
 7599 1ebc 00       		.sleb128 0
 7600 1ebd 00       		.byte	0
 7601 1ebe 29       		.uleb128 0x29
 7602 1ebf 9E010000 		.4byte	.LVL167
 7603 1ec3 F3320000 		.4byte	0x32f3
 7604 1ec7 D81E0000 		.4byte	0x1ed8
 7605 1ecb 2A       		.uleb128 0x2a
 7606 1ecc 01       		.uleb128 0x1
 7607 1ecd 50       		.byte	0x50
 7608 1ece 02       		.uleb128 0x2
 7609 1ecf 75       		.byte	0x75
 7610 1ed0 00       		.sleb128 0
 7611 1ed1 2A       		.uleb128 0x2a
 7612 1ed2 01       		.uleb128 0x1
 7613 1ed3 51       		.byte	0x51
 7614 1ed4 02       		.uleb128 0x2
 7615 1ed5 76       		.byte	0x76
 7616 1ed6 00       		.sleb128 0
 7617 1ed7 00       		.byte	0
 7618 1ed8 29       		.uleb128 0x29
 7619 1ed9 AA010000 		.4byte	.LVL168
 7620 1edd F3320000 		.4byte	0x32f3
 7621 1ee1 F21E0000 		.4byte	0x1ef2
 7622 1ee5 2A       		.uleb128 0x2a
 7623 1ee6 01       		.uleb128 0x1
 7624 1ee7 50       		.byte	0x50
 7625 1ee8 02       		.uleb128 0x2
 7626 1ee9 75       		.byte	0x75
 7627 1eea 00       		.sleb128 0
 7628 1eeb 2A       		.uleb128 0x2a
 7629 1eec 01       		.uleb128 0x1
 7630 1eed 51       		.byte	0x51
 7631 1eee 02       		.uleb128 0x2
 7632 1eef 76       		.byte	0x76
 7633 1ef0 00       		.sleb128 0
 7634 1ef1 00       		.byte	0
 7635 1ef2 29       		.uleb128 0x29
 7636 1ef3 B6010000 		.4byte	.LVL169
 7637 1ef7 F3320000 		.4byte	0x32f3
 7638 1efb 0C1F0000 		.4byte	0x1f0c
ARM GAS  /tmp/ccOR9P9P.s 			page 135


 7639 1eff 2A       		.uleb128 0x2a
 7640 1f00 01       		.uleb128 0x1
 7641 1f01 50       		.byte	0x50
 7642 1f02 02       		.uleb128 0x2
 7643 1f03 75       		.byte	0x75
 7644 1f04 00       		.sleb128 0
 7645 1f05 2A       		.uleb128 0x2a
 7646 1f06 01       		.uleb128 0x1
 7647 1f07 51       		.byte	0x51
 7648 1f08 02       		.uleb128 0x2
 7649 1f09 76       		.byte	0x76
 7650 1f0a 00       		.sleb128 0
 7651 1f0b 00       		.byte	0
 7652 1f0c 29       		.uleb128 0x29
 7653 1f0d C2010000 		.4byte	.LVL170
 7654 1f11 F3320000 		.4byte	0x32f3
 7655 1f15 261F0000 		.4byte	0x1f26
 7656 1f19 2A       		.uleb128 0x2a
 7657 1f1a 01       		.uleb128 0x1
 7658 1f1b 50       		.byte	0x50
 7659 1f1c 02       		.uleb128 0x2
 7660 1f1d 75       		.byte	0x75
 7661 1f1e 00       		.sleb128 0
 7662 1f1f 2A       		.uleb128 0x2a
 7663 1f20 01       		.uleb128 0x1
 7664 1f21 51       		.byte	0x51
 7665 1f22 02       		.uleb128 0x2
 7666 1f23 76       		.byte	0x76
 7667 1f24 00       		.sleb128 0
 7668 1f25 00       		.byte	0
 7669 1f26 29       		.uleb128 0x29
 7670 1f27 CE010000 		.4byte	.LVL171
 7671 1f2b F3320000 		.4byte	0x32f3
 7672 1f2f 401F0000 		.4byte	0x1f40
 7673 1f33 2A       		.uleb128 0x2a
 7674 1f34 01       		.uleb128 0x1
 7675 1f35 50       		.byte	0x50
 7676 1f36 02       		.uleb128 0x2
 7677 1f37 75       		.byte	0x75
 7678 1f38 00       		.sleb128 0
 7679 1f39 2A       		.uleb128 0x2a
 7680 1f3a 01       		.uleb128 0x1
 7681 1f3b 51       		.byte	0x51
 7682 1f3c 02       		.uleb128 0x2
 7683 1f3d 76       		.byte	0x76
 7684 1f3e 00       		.sleb128 0
 7685 1f3f 00       		.byte	0
 7686 1f40 29       		.uleb128 0x29
 7687 1f41 12020000 		.4byte	.LVL172
 7688 1f45 F3320000 		.4byte	0x32f3
 7689 1f49 5A1F0000 		.4byte	0x1f5a
 7690 1f4d 2A       		.uleb128 0x2a
 7691 1f4e 01       		.uleb128 0x1
 7692 1f4f 50       		.byte	0x50
 7693 1f50 02       		.uleb128 0x2
 7694 1f51 75       		.byte	0x75
 7695 1f52 00       		.sleb128 0
ARM GAS  /tmp/ccOR9P9P.s 			page 136


 7696 1f53 2A       		.uleb128 0x2a
 7697 1f54 01       		.uleb128 0x1
 7698 1f55 51       		.byte	0x51
 7699 1f56 02       		.uleb128 0x2
 7700 1f57 76       		.byte	0x76
 7701 1f58 00       		.sleb128 0
 7702 1f59 00       		.byte	0
 7703 1f5a 29       		.uleb128 0x29
 7704 1f5b 1E020000 		.4byte	.LVL173
 7705 1f5f F3320000 		.4byte	0x32f3
 7706 1f63 741F0000 		.4byte	0x1f74
 7707 1f67 2A       		.uleb128 0x2a
 7708 1f68 01       		.uleb128 0x1
 7709 1f69 50       		.byte	0x50
 7710 1f6a 02       		.uleb128 0x2
 7711 1f6b 75       		.byte	0x75
 7712 1f6c 00       		.sleb128 0
 7713 1f6d 2A       		.uleb128 0x2a
 7714 1f6e 01       		.uleb128 0x1
 7715 1f6f 51       		.byte	0x51
 7716 1f70 02       		.uleb128 0x2
 7717 1f71 76       		.byte	0x76
 7718 1f72 00       		.sleb128 0
 7719 1f73 00       		.byte	0
 7720 1f74 29       		.uleb128 0x29
 7721 1f75 2A020000 		.4byte	.LVL174
 7722 1f79 F3320000 		.4byte	0x32f3
 7723 1f7d 8E1F0000 		.4byte	0x1f8e
 7724 1f81 2A       		.uleb128 0x2a
 7725 1f82 01       		.uleb128 0x1
 7726 1f83 50       		.byte	0x50
 7727 1f84 02       		.uleb128 0x2
 7728 1f85 75       		.byte	0x75
 7729 1f86 00       		.sleb128 0
 7730 1f87 2A       		.uleb128 0x2a
 7731 1f88 01       		.uleb128 0x1
 7732 1f89 51       		.byte	0x51
 7733 1f8a 02       		.uleb128 0x2
 7734 1f8b 76       		.byte	0x76
 7735 1f8c 00       		.sleb128 0
 7736 1f8d 00       		.byte	0
 7737 1f8e 29       		.uleb128 0x29
 7738 1f8f 36020000 		.4byte	.LVL175
 7739 1f93 F3320000 		.4byte	0x32f3
 7740 1f97 A81F0000 		.4byte	0x1fa8
 7741 1f9b 2A       		.uleb128 0x2a
 7742 1f9c 01       		.uleb128 0x1
 7743 1f9d 50       		.byte	0x50
 7744 1f9e 02       		.uleb128 0x2
 7745 1f9f 75       		.byte	0x75
 7746 1fa0 00       		.sleb128 0
 7747 1fa1 2A       		.uleb128 0x2a
 7748 1fa2 01       		.uleb128 0x1
 7749 1fa3 51       		.byte	0x51
 7750 1fa4 02       		.uleb128 0x2
 7751 1fa5 76       		.byte	0x76
 7752 1fa6 00       		.sleb128 0
ARM GAS  /tmp/ccOR9P9P.s 			page 137


 7753 1fa7 00       		.byte	0
 7754 1fa8 29       		.uleb128 0x29
 7755 1fa9 42020000 		.4byte	.LVL176
 7756 1fad F3320000 		.4byte	0x32f3
 7757 1fb1 C21F0000 		.4byte	0x1fc2
 7758 1fb5 2A       		.uleb128 0x2a
 7759 1fb6 01       		.uleb128 0x1
 7760 1fb7 50       		.byte	0x50
 7761 1fb8 02       		.uleb128 0x2
 7762 1fb9 75       		.byte	0x75
 7763 1fba 00       		.sleb128 0
 7764 1fbb 2A       		.uleb128 0x2a
 7765 1fbc 01       		.uleb128 0x1
 7766 1fbd 51       		.byte	0x51
 7767 1fbe 02       		.uleb128 0x2
 7768 1fbf 76       		.byte	0x76
 7769 1fc0 00       		.sleb128 0
 7770 1fc1 00       		.byte	0
 7771 1fc2 29       		.uleb128 0x29
 7772 1fc3 60020000 		.4byte	.LVL177
 7773 1fc7 F3320000 		.4byte	0x32f3
 7774 1fcb DC1F0000 		.4byte	0x1fdc
 7775 1fcf 2A       		.uleb128 0x2a
 7776 1fd0 01       		.uleb128 0x1
 7777 1fd1 50       		.byte	0x50
 7778 1fd2 02       		.uleb128 0x2
 7779 1fd3 75       		.byte	0x75
 7780 1fd4 00       		.sleb128 0
 7781 1fd5 2A       		.uleb128 0x2a
 7782 1fd6 01       		.uleb128 0x1
 7783 1fd7 51       		.byte	0x51
 7784 1fd8 02       		.uleb128 0x2
 7785 1fd9 76       		.byte	0x76
 7786 1fda 00       		.sleb128 0
 7787 1fdb 00       		.byte	0
 7788 1fdc 29       		.uleb128 0x29
 7789 1fdd 6C020000 		.4byte	.LVL178
 7790 1fe1 F3320000 		.4byte	0x32f3
 7791 1fe5 F61F0000 		.4byte	0x1ff6
 7792 1fe9 2A       		.uleb128 0x2a
 7793 1fea 01       		.uleb128 0x1
 7794 1feb 50       		.byte	0x50
 7795 1fec 02       		.uleb128 0x2
 7796 1fed 75       		.byte	0x75
 7797 1fee 00       		.sleb128 0
 7798 1fef 2A       		.uleb128 0x2a
 7799 1ff0 01       		.uleb128 0x1
 7800 1ff1 51       		.byte	0x51
 7801 1ff2 02       		.uleb128 0x2
 7802 1ff3 76       		.byte	0x76
 7803 1ff4 00       		.sleb128 0
 7804 1ff5 00       		.byte	0
 7805 1ff6 29       		.uleb128 0x29
 7806 1ff7 78020000 		.4byte	.LVL179
 7807 1ffb F3320000 		.4byte	0x32f3
 7808 1fff 10200000 		.4byte	0x2010
 7809 2003 2A       		.uleb128 0x2a
ARM GAS  /tmp/ccOR9P9P.s 			page 138


 7810 2004 01       		.uleb128 0x1
 7811 2005 50       		.byte	0x50
 7812 2006 02       		.uleb128 0x2
 7813 2007 75       		.byte	0x75
 7814 2008 00       		.sleb128 0
 7815 2009 2A       		.uleb128 0x2a
 7816 200a 01       		.uleb128 0x1
 7817 200b 51       		.byte	0x51
 7818 200c 02       		.uleb128 0x2
 7819 200d 76       		.byte	0x76
 7820 200e 00       		.sleb128 0
 7821 200f 00       		.byte	0
 7822 2010 29       		.uleb128 0x29
 7823 2011 84020000 		.4byte	.LVL180
 7824 2015 F3320000 		.4byte	0x32f3
 7825 2019 2A200000 		.4byte	0x202a
 7826 201d 2A       		.uleb128 0x2a
 7827 201e 01       		.uleb128 0x1
 7828 201f 50       		.byte	0x50
 7829 2020 02       		.uleb128 0x2
 7830 2021 75       		.byte	0x75
 7831 2022 00       		.sleb128 0
 7832 2023 2A       		.uleb128 0x2a
 7833 2024 01       		.uleb128 0x1
 7834 2025 51       		.byte	0x51
 7835 2026 02       		.uleb128 0x2
 7836 2027 76       		.byte	0x76
 7837 2028 00       		.sleb128 0
 7838 2029 00       		.byte	0
 7839 202a 29       		.uleb128 0x29
 7840 202b 90020000 		.4byte	.LVL181
 7841 202f F3320000 		.4byte	0x32f3
 7842 2033 44200000 		.4byte	0x2044
 7843 2037 2A       		.uleb128 0x2a
 7844 2038 01       		.uleb128 0x1
 7845 2039 50       		.byte	0x50
 7846 203a 02       		.uleb128 0x2
 7847 203b 75       		.byte	0x75
 7848 203c 00       		.sleb128 0
 7849 203d 2A       		.uleb128 0x2a
 7850 203e 01       		.uleb128 0x1
 7851 203f 51       		.byte	0x51
 7852 2040 02       		.uleb128 0x2
 7853 2041 76       		.byte	0x76
 7854 2042 00       		.sleb128 0
 7855 2043 00       		.byte	0
 7856 2044 29       		.uleb128 0x29
 7857 2045 9C020000 		.4byte	.LVL182
 7858 2049 F3320000 		.4byte	0x32f3
 7859 204d 5E200000 		.4byte	0x205e
 7860 2051 2A       		.uleb128 0x2a
 7861 2052 01       		.uleb128 0x1
 7862 2053 50       		.byte	0x50
 7863 2054 02       		.uleb128 0x2
 7864 2055 75       		.byte	0x75
 7865 2056 00       		.sleb128 0
 7866 2057 2A       		.uleb128 0x2a
ARM GAS  /tmp/ccOR9P9P.s 			page 139


 7867 2058 01       		.uleb128 0x1
 7868 2059 51       		.byte	0x51
 7869 205a 02       		.uleb128 0x2
 7870 205b 76       		.byte	0x76
 7871 205c 00       		.sleb128 0
 7872 205d 00       		.byte	0
 7873 205e 29       		.uleb128 0x29
 7874 205f A8020000 		.4byte	.LVL183
 7875 2063 F3320000 		.4byte	0x32f3
 7876 2067 78200000 		.4byte	0x2078
 7877 206b 2A       		.uleb128 0x2a
 7878 206c 01       		.uleb128 0x1
 7879 206d 50       		.byte	0x50
 7880 206e 02       		.uleb128 0x2
 7881 206f 75       		.byte	0x75
 7882 2070 00       		.sleb128 0
 7883 2071 2A       		.uleb128 0x2a
 7884 2072 01       		.uleb128 0x1
 7885 2073 51       		.byte	0x51
 7886 2074 02       		.uleb128 0x2
 7887 2075 76       		.byte	0x76
 7888 2076 00       		.sleb128 0
 7889 2077 00       		.byte	0
 7890 2078 29       		.uleb128 0x29
 7891 2079 C0020000 		.4byte	.LVL184
 7892 207d F3320000 		.4byte	0x32f3
 7893 2081 92200000 		.4byte	0x2092
 7894 2085 2A       		.uleb128 0x2a
 7895 2086 01       		.uleb128 0x1
 7896 2087 50       		.byte	0x50
 7897 2088 02       		.uleb128 0x2
 7898 2089 75       		.byte	0x75
 7899 208a 00       		.sleb128 0
 7900 208b 2A       		.uleb128 0x2a
 7901 208c 01       		.uleb128 0x1
 7902 208d 51       		.byte	0x51
 7903 208e 02       		.uleb128 0x2
 7904 208f 76       		.byte	0x76
 7905 2090 00       		.sleb128 0
 7906 2091 00       		.byte	0
 7907 2092 29       		.uleb128 0x29
 7908 2093 CC020000 		.4byte	.LVL185
 7909 2097 F3320000 		.4byte	0x32f3
 7910 209b AC200000 		.4byte	0x20ac
 7911 209f 2A       		.uleb128 0x2a
 7912 20a0 01       		.uleb128 0x1
 7913 20a1 50       		.byte	0x50
 7914 20a2 02       		.uleb128 0x2
 7915 20a3 75       		.byte	0x75
 7916 20a4 00       		.sleb128 0
 7917 20a5 2A       		.uleb128 0x2a
 7918 20a6 01       		.uleb128 0x1
 7919 20a7 51       		.byte	0x51
 7920 20a8 02       		.uleb128 0x2
 7921 20a9 76       		.byte	0x76
 7922 20aa 00       		.sleb128 0
 7923 20ab 00       		.byte	0
ARM GAS  /tmp/ccOR9P9P.s 			page 140


 7924 20ac 29       		.uleb128 0x29
 7925 20ad D8020000 		.4byte	.LVL186
 7926 20b1 F3320000 		.4byte	0x32f3
 7927 20b5 C6200000 		.4byte	0x20c6
 7928 20b9 2A       		.uleb128 0x2a
 7929 20ba 01       		.uleb128 0x1
 7930 20bb 50       		.byte	0x50
 7931 20bc 02       		.uleb128 0x2
 7932 20bd 75       		.byte	0x75
 7933 20be 00       		.sleb128 0
 7934 20bf 2A       		.uleb128 0x2a
 7935 20c0 01       		.uleb128 0x1
 7936 20c1 51       		.byte	0x51
 7937 20c2 02       		.uleb128 0x2
 7938 20c3 76       		.byte	0x76
 7939 20c4 00       		.sleb128 0
 7940 20c5 00       		.byte	0
 7941 20c6 29       		.uleb128 0x29
 7942 20c7 E4020000 		.4byte	.LVL187
 7943 20cb F3320000 		.4byte	0x32f3
 7944 20cf E0200000 		.4byte	0x20e0
 7945 20d3 2A       		.uleb128 0x2a
 7946 20d4 01       		.uleb128 0x1
 7947 20d5 50       		.byte	0x50
 7948 20d6 02       		.uleb128 0x2
 7949 20d7 75       		.byte	0x75
 7950 20d8 00       		.sleb128 0
 7951 20d9 2A       		.uleb128 0x2a
 7952 20da 01       		.uleb128 0x1
 7953 20db 51       		.byte	0x51
 7954 20dc 02       		.uleb128 0x2
 7955 20dd 76       		.byte	0x76
 7956 20de 00       		.sleb128 0
 7957 20df 00       		.byte	0
 7958 20e0 29       		.uleb128 0x29
 7959 20e1 F0020000 		.4byte	.LVL188
 7960 20e5 F3320000 		.4byte	0x32f3
 7961 20e9 FA200000 		.4byte	0x20fa
 7962 20ed 2A       		.uleb128 0x2a
 7963 20ee 01       		.uleb128 0x1
 7964 20ef 50       		.byte	0x50
 7965 20f0 02       		.uleb128 0x2
 7966 20f1 75       		.byte	0x75
 7967 20f2 00       		.sleb128 0
 7968 20f3 2A       		.uleb128 0x2a
 7969 20f4 01       		.uleb128 0x1
 7970 20f5 51       		.byte	0x51
 7971 20f6 02       		.uleb128 0x2
 7972 20f7 76       		.byte	0x76
 7973 20f8 00       		.sleb128 0
 7974 20f9 00       		.byte	0
 7975 20fa 29       		.uleb128 0x29
 7976 20fb FC020000 		.4byte	.LVL189
 7977 20ff F3320000 		.4byte	0x32f3
 7978 2103 14210000 		.4byte	0x2114
 7979 2107 2A       		.uleb128 0x2a
 7980 2108 01       		.uleb128 0x1
ARM GAS  /tmp/ccOR9P9P.s 			page 141


 7981 2109 50       		.byte	0x50
 7982 210a 02       		.uleb128 0x2
 7983 210b 75       		.byte	0x75
 7984 210c 00       		.sleb128 0
 7985 210d 2A       		.uleb128 0x2a
 7986 210e 01       		.uleb128 0x1
 7987 210f 51       		.byte	0x51
 7988 2110 02       		.uleb128 0x2
 7989 2111 76       		.byte	0x76
 7990 2112 00       		.sleb128 0
 7991 2113 00       		.byte	0
 7992 2114 29       		.uleb128 0x29
 7993 2115 08030000 		.4byte	.LVL190
 7994 2119 F3320000 		.4byte	0x32f3
 7995 211d 2E210000 		.4byte	0x212e
 7996 2121 2A       		.uleb128 0x2a
 7997 2122 01       		.uleb128 0x1
 7998 2123 50       		.byte	0x50
 7999 2124 02       		.uleb128 0x2
 8000 2125 75       		.byte	0x75
 8001 2126 00       		.sleb128 0
 8002 2127 2A       		.uleb128 0x2a
 8003 2128 01       		.uleb128 0x1
 8004 2129 51       		.byte	0x51
 8005 212a 02       		.uleb128 0x2
 8006 212b 76       		.byte	0x76
 8007 212c 00       		.sleb128 0
 8008 212d 00       		.byte	0
 8009 212e 29       		.uleb128 0x29
 8010 212f 14030000 		.4byte	.LVL191
 8011 2133 F3320000 		.4byte	0x32f3
 8012 2137 48210000 		.4byte	0x2148
 8013 213b 2A       		.uleb128 0x2a
 8014 213c 01       		.uleb128 0x1
 8015 213d 50       		.byte	0x50
 8016 213e 02       		.uleb128 0x2
 8017 213f 75       		.byte	0x75
 8018 2140 00       		.sleb128 0
 8019 2141 2A       		.uleb128 0x2a
 8020 2142 01       		.uleb128 0x1
 8021 2143 51       		.byte	0x51
 8022 2144 02       		.uleb128 0x2
 8023 2145 76       		.byte	0x76
 8024 2146 00       		.sleb128 0
 8025 2147 00       		.byte	0
 8026 2148 29       		.uleb128 0x29
 8027 2149 20030000 		.4byte	.LVL192
 8028 214d F3320000 		.4byte	0x32f3
 8029 2151 62210000 		.4byte	0x2162
 8030 2155 2A       		.uleb128 0x2a
 8031 2156 01       		.uleb128 0x1
 8032 2157 50       		.byte	0x50
 8033 2158 02       		.uleb128 0x2
 8034 2159 75       		.byte	0x75
 8035 215a 00       		.sleb128 0
 8036 215b 2A       		.uleb128 0x2a
 8037 215c 01       		.uleb128 0x1
ARM GAS  /tmp/ccOR9P9P.s 			page 142


 8038 215d 51       		.byte	0x51
 8039 215e 02       		.uleb128 0x2
 8040 215f 76       		.byte	0x76
 8041 2160 00       		.sleb128 0
 8042 2161 00       		.byte	0
 8043 2162 29       		.uleb128 0x29
 8044 2163 2C030000 		.4byte	.LVL193
 8045 2167 F3320000 		.4byte	0x32f3
 8046 216b 7C210000 		.4byte	0x217c
 8047 216f 2A       		.uleb128 0x2a
 8048 2170 01       		.uleb128 0x1
 8049 2171 50       		.byte	0x50
 8050 2172 02       		.uleb128 0x2
 8051 2173 75       		.byte	0x75
 8052 2174 00       		.sleb128 0
 8053 2175 2A       		.uleb128 0x2a
 8054 2176 01       		.uleb128 0x1
 8055 2177 51       		.byte	0x51
 8056 2178 02       		.uleb128 0x2
 8057 2179 76       		.byte	0x76
 8058 217a 00       		.sleb128 0
 8059 217b 00       		.byte	0
 8060 217c 29       		.uleb128 0x29
 8061 217d 38030000 		.4byte	.LVL194
 8062 2181 F3320000 		.4byte	0x32f3
 8063 2185 96210000 		.4byte	0x2196
 8064 2189 2A       		.uleb128 0x2a
 8065 218a 01       		.uleb128 0x1
 8066 218b 50       		.byte	0x50
 8067 218c 02       		.uleb128 0x2
 8068 218d 75       		.byte	0x75
 8069 218e 00       		.sleb128 0
 8070 218f 2A       		.uleb128 0x2a
 8071 2190 01       		.uleb128 0x1
 8072 2191 51       		.byte	0x51
 8073 2192 02       		.uleb128 0x2
 8074 2193 76       		.byte	0x76
 8075 2194 00       		.sleb128 0
 8076 2195 00       		.byte	0
 8077 2196 29       		.uleb128 0x29
 8078 2197 44030000 		.4byte	.LVL195
 8079 219b F3320000 		.4byte	0x32f3
 8080 219f B0210000 		.4byte	0x21b0
 8081 21a3 2A       		.uleb128 0x2a
 8082 21a4 01       		.uleb128 0x1
 8083 21a5 50       		.byte	0x50
 8084 21a6 02       		.uleb128 0x2
 8085 21a7 75       		.byte	0x75
 8086 21a8 00       		.sleb128 0
 8087 21a9 2A       		.uleb128 0x2a
 8088 21aa 01       		.uleb128 0x1
 8089 21ab 51       		.byte	0x51
 8090 21ac 02       		.uleb128 0x2
 8091 21ad 76       		.byte	0x76
 8092 21ae 00       		.sleb128 0
 8093 21af 00       		.byte	0
 8094 21b0 29       		.uleb128 0x29
ARM GAS  /tmp/ccOR9P9P.s 			page 143


 8095 21b1 50030000 		.4byte	.LVL196
 8096 21b5 F3320000 		.4byte	0x32f3
 8097 21b9 CA210000 		.4byte	0x21ca
 8098 21bd 2A       		.uleb128 0x2a
 8099 21be 01       		.uleb128 0x1
 8100 21bf 50       		.byte	0x50
 8101 21c0 02       		.uleb128 0x2
 8102 21c1 75       		.byte	0x75
 8103 21c2 00       		.sleb128 0
 8104 21c3 2A       		.uleb128 0x2a
 8105 21c4 01       		.uleb128 0x1
 8106 21c5 51       		.byte	0x51
 8107 21c6 02       		.uleb128 0x2
 8108 21c7 76       		.byte	0x76
 8109 21c8 00       		.sleb128 0
 8110 21c9 00       		.byte	0
 8111 21ca 29       		.uleb128 0x29
 8112 21cb 5C030000 		.4byte	.LVL197
 8113 21cf F3320000 		.4byte	0x32f3
 8114 21d3 E4210000 		.4byte	0x21e4
 8115 21d7 2A       		.uleb128 0x2a
 8116 21d8 01       		.uleb128 0x1
 8117 21d9 50       		.byte	0x50
 8118 21da 02       		.uleb128 0x2
 8119 21db 75       		.byte	0x75
 8120 21dc 00       		.sleb128 0
 8121 21dd 2A       		.uleb128 0x2a
 8122 21de 01       		.uleb128 0x1
 8123 21df 51       		.byte	0x51
 8124 21e0 02       		.uleb128 0x2
 8125 21e1 76       		.byte	0x76
 8126 21e2 00       		.sleb128 0
 8127 21e3 00       		.byte	0
 8128 21e4 29       		.uleb128 0x29
 8129 21e5 A0030000 		.4byte	.LVL198
 8130 21e9 F3320000 		.4byte	0x32f3
 8131 21ed FE210000 		.4byte	0x21fe
 8132 21f1 2A       		.uleb128 0x2a
 8133 21f2 01       		.uleb128 0x1
 8134 21f3 50       		.byte	0x50
 8135 21f4 02       		.uleb128 0x2
 8136 21f5 75       		.byte	0x75
 8137 21f6 00       		.sleb128 0
 8138 21f7 2A       		.uleb128 0x2a
 8139 21f8 01       		.uleb128 0x1
 8140 21f9 51       		.byte	0x51
 8141 21fa 02       		.uleb128 0x2
 8142 21fb 76       		.byte	0x76
 8143 21fc 00       		.sleb128 0
 8144 21fd 00       		.byte	0
 8145 21fe 29       		.uleb128 0x29
 8146 21ff CE030000 		.4byte	.LVL199
 8147 2203 F3320000 		.4byte	0x32f3
 8148 2207 18220000 		.4byte	0x2218
 8149 220b 2A       		.uleb128 0x2a
 8150 220c 01       		.uleb128 0x1
 8151 220d 50       		.byte	0x50
ARM GAS  /tmp/ccOR9P9P.s 			page 144


 8152 220e 02       		.uleb128 0x2
 8153 220f 75       		.byte	0x75
 8154 2210 00       		.sleb128 0
 8155 2211 2A       		.uleb128 0x2a
 8156 2212 01       		.uleb128 0x1
 8157 2213 51       		.byte	0x51
 8158 2214 02       		.uleb128 0x2
 8159 2215 76       		.byte	0x76
 8160 2216 00       		.sleb128 0
 8161 2217 00       		.byte	0
 8162 2218 29       		.uleb128 0x29
 8163 2219 EC030000 		.4byte	.LVL200
 8164 221d F3320000 		.4byte	0x32f3
 8165 2221 32220000 		.4byte	0x2232
 8166 2225 2A       		.uleb128 0x2a
 8167 2226 01       		.uleb128 0x1
 8168 2227 50       		.byte	0x50
 8169 2228 02       		.uleb128 0x2
 8170 2229 75       		.byte	0x75
 8171 222a 00       		.sleb128 0
 8172 222b 2A       		.uleb128 0x2a
 8173 222c 01       		.uleb128 0x1
 8174 222d 51       		.byte	0x51
 8175 222e 02       		.uleb128 0x2
 8176 222f 76       		.byte	0x76
 8177 2230 00       		.sleb128 0
 8178 2231 00       		.byte	0
 8179 2232 29       		.uleb128 0x29
 8180 2233 F8030000 		.4byte	.LVL201
 8181 2237 F3320000 		.4byte	0x32f3
 8182 223b 4C220000 		.4byte	0x224c
 8183 223f 2A       		.uleb128 0x2a
 8184 2240 01       		.uleb128 0x1
 8185 2241 50       		.byte	0x50
 8186 2242 02       		.uleb128 0x2
 8187 2243 75       		.byte	0x75
 8188 2244 00       		.sleb128 0
 8189 2245 2A       		.uleb128 0x2a
 8190 2246 01       		.uleb128 0x1
 8191 2247 51       		.byte	0x51
 8192 2248 02       		.uleb128 0x2
 8193 2249 76       		.byte	0x76
 8194 224a 00       		.sleb128 0
 8195 224b 00       		.byte	0
 8196 224c 29       		.uleb128 0x29
 8197 224d 04040000 		.4byte	.LVL202
 8198 2251 09330000 		.4byte	0x3309
 8199 2255 66220000 		.4byte	0x2266
 8200 2259 2A       		.uleb128 0x2a
 8201 225a 01       		.uleb128 0x1
 8202 225b 50       		.byte	0x50
 8203 225c 02       		.uleb128 0x2
 8204 225d 75       		.byte	0x75
 8205 225e 00       		.sleb128 0
 8206 225f 2A       		.uleb128 0x2a
 8207 2260 01       		.uleb128 0x1
 8208 2261 51       		.byte	0x51
ARM GAS  /tmp/ccOR9P9P.s 			page 145


 8209 2262 02       		.uleb128 0x2
 8210 2263 76       		.byte	0x76
 8211 2264 00       		.sleb128 0
 8212 2265 00       		.byte	0
 8213 2266 29       		.uleb128 0x29
 8214 2267 10040000 		.4byte	.LVL203
 8215 226b 09330000 		.4byte	0x3309
 8216 226f 80220000 		.4byte	0x2280
 8217 2273 2A       		.uleb128 0x2a
 8218 2274 01       		.uleb128 0x1
 8219 2275 50       		.byte	0x50
 8220 2276 02       		.uleb128 0x2
 8221 2277 75       		.byte	0x75
 8222 2278 00       		.sleb128 0
 8223 2279 2A       		.uleb128 0x2a
 8224 227a 01       		.uleb128 0x1
 8225 227b 51       		.byte	0x51
 8226 227c 02       		.uleb128 0x2
 8227 227d 76       		.byte	0x76
 8228 227e 00       		.sleb128 0
 8229 227f 00       		.byte	0
 8230 2280 29       		.uleb128 0x29
 8231 2281 1C040000 		.4byte	.LVL204
 8232 2285 F3320000 		.4byte	0x32f3
 8233 2289 9A220000 		.4byte	0x229a
 8234 228d 2A       		.uleb128 0x2a
 8235 228e 01       		.uleb128 0x1
 8236 228f 50       		.byte	0x50
 8237 2290 02       		.uleb128 0x2
 8238 2291 75       		.byte	0x75
 8239 2292 00       		.sleb128 0
 8240 2293 2A       		.uleb128 0x2a
 8241 2294 01       		.uleb128 0x1
 8242 2295 51       		.byte	0x51
 8243 2296 02       		.uleb128 0x2
 8244 2297 76       		.byte	0x76
 8245 2298 00       		.sleb128 0
 8246 2299 00       		.byte	0
 8247 229a 29       		.uleb128 0x29
 8248 229b 28040000 		.4byte	.LVL205
 8249 229f F3320000 		.4byte	0x32f3
 8250 22a3 B4220000 		.4byte	0x22b4
 8251 22a7 2A       		.uleb128 0x2a
 8252 22a8 01       		.uleb128 0x1
 8253 22a9 50       		.byte	0x50
 8254 22aa 02       		.uleb128 0x2
 8255 22ab 75       		.byte	0x75
 8256 22ac 00       		.sleb128 0
 8257 22ad 2A       		.uleb128 0x2a
 8258 22ae 01       		.uleb128 0x1
 8259 22af 51       		.byte	0x51
 8260 22b0 02       		.uleb128 0x2
 8261 22b1 76       		.byte	0x76
 8262 22b2 00       		.sleb128 0
 8263 22b3 00       		.byte	0
 8264 22b4 29       		.uleb128 0x29
 8265 22b5 34040000 		.4byte	.LVL206
ARM GAS  /tmp/ccOR9P9P.s 			page 146


 8266 22b9 F3320000 		.4byte	0x32f3
 8267 22bd CE220000 		.4byte	0x22ce
 8268 22c1 2A       		.uleb128 0x2a
 8269 22c2 01       		.uleb128 0x1
 8270 22c3 50       		.byte	0x50
 8271 22c4 02       		.uleb128 0x2
 8272 22c5 75       		.byte	0x75
 8273 22c6 00       		.sleb128 0
 8274 22c7 2A       		.uleb128 0x2a
 8275 22c8 01       		.uleb128 0x1
 8276 22c9 51       		.byte	0x51
 8277 22ca 02       		.uleb128 0x2
 8278 22cb 76       		.byte	0x76
 8279 22cc 00       		.sleb128 0
 8280 22cd 00       		.byte	0
 8281 22ce 29       		.uleb128 0x29
 8282 22cf 40040000 		.4byte	.LVL207
 8283 22d3 F3320000 		.4byte	0x32f3
 8284 22d7 E8220000 		.4byte	0x22e8
 8285 22db 2A       		.uleb128 0x2a
 8286 22dc 01       		.uleb128 0x1
 8287 22dd 50       		.byte	0x50
 8288 22de 02       		.uleb128 0x2
 8289 22df 75       		.byte	0x75
 8290 22e0 00       		.sleb128 0
 8291 22e1 2A       		.uleb128 0x2a
 8292 22e2 01       		.uleb128 0x1
 8293 22e3 51       		.byte	0x51
 8294 22e4 02       		.uleb128 0x2
 8295 22e5 76       		.byte	0x76
 8296 22e6 00       		.sleb128 0
 8297 22e7 00       		.byte	0
 8298 22e8 29       		.uleb128 0x29
 8299 22e9 4C040000 		.4byte	.LVL208
 8300 22ed F3320000 		.4byte	0x32f3
 8301 22f1 02230000 		.4byte	0x2302
 8302 22f5 2A       		.uleb128 0x2a
 8303 22f6 01       		.uleb128 0x1
 8304 22f7 50       		.byte	0x50
 8305 22f8 02       		.uleb128 0x2
 8306 22f9 75       		.byte	0x75
 8307 22fa 00       		.sleb128 0
 8308 22fb 2A       		.uleb128 0x2a
 8309 22fc 01       		.uleb128 0x1
 8310 22fd 51       		.byte	0x51
 8311 22fe 02       		.uleb128 0x2
 8312 22ff 76       		.byte	0x76
 8313 2300 00       		.sleb128 0
 8314 2301 00       		.byte	0
 8315 2302 29       		.uleb128 0x29
 8316 2303 58040000 		.4byte	.LVL209
 8317 2307 F3320000 		.4byte	0x32f3
 8318 230b 1C230000 		.4byte	0x231c
 8319 230f 2A       		.uleb128 0x2a
 8320 2310 01       		.uleb128 0x1
 8321 2311 50       		.byte	0x50
 8322 2312 02       		.uleb128 0x2
ARM GAS  /tmp/ccOR9P9P.s 			page 147


 8323 2313 75       		.byte	0x75
 8324 2314 00       		.sleb128 0
 8325 2315 2A       		.uleb128 0x2a
 8326 2316 01       		.uleb128 0x1
 8327 2317 51       		.byte	0x51
 8328 2318 02       		.uleb128 0x2
 8329 2319 76       		.byte	0x76
 8330 231a 00       		.sleb128 0
 8331 231b 00       		.byte	0
 8332 231c 29       		.uleb128 0x29
 8333 231d 64040000 		.4byte	.LVL210
 8334 2321 F3320000 		.4byte	0x32f3
 8335 2325 36230000 		.4byte	0x2336
 8336 2329 2A       		.uleb128 0x2a
 8337 232a 01       		.uleb128 0x1
 8338 232b 50       		.byte	0x50
 8339 232c 02       		.uleb128 0x2
 8340 232d 75       		.byte	0x75
 8341 232e 00       		.sleb128 0
 8342 232f 2A       		.uleb128 0x2a
 8343 2330 01       		.uleb128 0x1
 8344 2331 51       		.byte	0x51
 8345 2332 02       		.uleb128 0x2
 8346 2333 76       		.byte	0x76
 8347 2334 00       		.sleb128 0
 8348 2335 00       		.byte	0
 8349 2336 29       		.uleb128 0x29
 8350 2337 70040000 		.4byte	.LVL211
 8351 233b F3320000 		.4byte	0x32f3
 8352 233f 50230000 		.4byte	0x2350
 8353 2343 2A       		.uleb128 0x2a
 8354 2344 01       		.uleb128 0x1
 8355 2345 50       		.byte	0x50
 8356 2346 02       		.uleb128 0x2
 8357 2347 75       		.byte	0x75
 8358 2348 00       		.sleb128 0
 8359 2349 2A       		.uleb128 0x2a
 8360 234a 01       		.uleb128 0x1
 8361 234b 51       		.byte	0x51
 8362 234c 02       		.uleb128 0x2
 8363 234d 76       		.byte	0x76
 8364 234e 00       		.sleb128 0
 8365 234f 00       		.byte	0
 8366 2350 29       		.uleb128 0x29
 8367 2351 8E040000 		.4byte	.LVL212
 8368 2355 F3320000 		.4byte	0x32f3
 8369 2359 6A230000 		.4byte	0x236a
 8370 235d 2A       		.uleb128 0x2a
 8371 235e 01       		.uleb128 0x1
 8372 235f 50       		.byte	0x50
 8373 2360 02       		.uleb128 0x2
 8374 2361 75       		.byte	0x75
 8375 2362 00       		.sleb128 0
 8376 2363 2A       		.uleb128 0x2a
 8377 2364 01       		.uleb128 0x1
 8378 2365 51       		.byte	0x51
 8379 2366 02       		.uleb128 0x2
ARM GAS  /tmp/ccOR9P9P.s 			page 148


 8380 2367 76       		.byte	0x76
 8381 2368 00       		.sleb128 0
 8382 2369 00       		.byte	0
 8383 236a 29       		.uleb128 0x29
 8384 236b 9A040000 		.4byte	.LVL213
 8385 236f F3320000 		.4byte	0x32f3
 8386 2373 84230000 		.4byte	0x2384
 8387 2377 2A       		.uleb128 0x2a
 8388 2378 01       		.uleb128 0x1
 8389 2379 50       		.byte	0x50
 8390 237a 02       		.uleb128 0x2
 8391 237b 75       		.byte	0x75
 8392 237c 00       		.sleb128 0
 8393 237d 2A       		.uleb128 0x2a
 8394 237e 01       		.uleb128 0x1
 8395 237f 51       		.byte	0x51
 8396 2380 02       		.uleb128 0x2
 8397 2381 76       		.byte	0x76
 8398 2382 00       		.sleb128 0
 8399 2383 00       		.byte	0
 8400 2384 29       		.uleb128 0x29
 8401 2385 A6040000 		.4byte	.LVL214
 8402 2389 F3320000 		.4byte	0x32f3
 8403 238d 9E230000 		.4byte	0x239e
 8404 2391 2A       		.uleb128 0x2a
 8405 2392 01       		.uleb128 0x1
 8406 2393 50       		.byte	0x50
 8407 2394 02       		.uleb128 0x2
 8408 2395 75       		.byte	0x75
 8409 2396 00       		.sleb128 0
 8410 2397 2A       		.uleb128 0x2a
 8411 2398 01       		.uleb128 0x1
 8412 2399 51       		.byte	0x51
 8413 239a 02       		.uleb128 0x2
 8414 239b 76       		.byte	0x76
 8415 239c 00       		.sleb128 0
 8416 239d 00       		.byte	0
 8417 239e 29       		.uleb128 0x29
 8418 239f B2040000 		.4byte	.LVL215
 8419 23a3 F3320000 		.4byte	0x32f3
 8420 23a7 B8230000 		.4byte	0x23b8
 8421 23ab 2A       		.uleb128 0x2a
 8422 23ac 01       		.uleb128 0x1
 8423 23ad 50       		.byte	0x50
 8424 23ae 02       		.uleb128 0x2
 8425 23af 75       		.byte	0x75
 8426 23b0 00       		.sleb128 0
 8427 23b1 2A       		.uleb128 0x2a
 8428 23b2 01       		.uleb128 0x1
 8429 23b3 51       		.byte	0x51
 8430 23b4 02       		.uleb128 0x2
 8431 23b5 76       		.byte	0x76
 8432 23b6 00       		.sleb128 0
 8433 23b7 00       		.byte	0
 8434 23b8 29       		.uleb128 0x29
 8435 23b9 BE040000 		.4byte	.LVL216
 8436 23bd F3320000 		.4byte	0x32f3
ARM GAS  /tmp/ccOR9P9P.s 			page 149


 8437 23c1 D2230000 		.4byte	0x23d2
 8438 23c5 2A       		.uleb128 0x2a
 8439 23c6 01       		.uleb128 0x1
 8440 23c7 50       		.byte	0x50
 8441 23c8 02       		.uleb128 0x2
 8442 23c9 75       		.byte	0x75
 8443 23ca 00       		.sleb128 0
 8444 23cb 2A       		.uleb128 0x2a
 8445 23cc 01       		.uleb128 0x1
 8446 23cd 51       		.byte	0x51
 8447 23ce 02       		.uleb128 0x2
 8448 23cf 76       		.byte	0x76
 8449 23d0 00       		.sleb128 0
 8450 23d1 00       		.byte	0
 8451 23d2 29       		.uleb128 0x29
 8452 23d3 CA040000 		.4byte	.LVL217
 8453 23d7 F3320000 		.4byte	0x32f3
 8454 23db EC230000 		.4byte	0x23ec
 8455 23df 2A       		.uleb128 0x2a
 8456 23e0 01       		.uleb128 0x1
 8457 23e1 50       		.byte	0x50
 8458 23e2 02       		.uleb128 0x2
 8459 23e3 75       		.byte	0x75
 8460 23e4 00       		.sleb128 0
 8461 23e5 2A       		.uleb128 0x2a
 8462 23e6 01       		.uleb128 0x1
 8463 23e7 51       		.byte	0x51
 8464 23e8 02       		.uleb128 0x2
 8465 23e9 76       		.byte	0x76
 8466 23ea 00       		.sleb128 0
 8467 23eb 00       		.byte	0
 8468 23ec 29       		.uleb128 0x29
 8469 23ed D6040000 		.4byte	.LVL218
 8470 23f1 F3320000 		.4byte	0x32f3
 8471 23f5 06240000 		.4byte	0x2406
 8472 23f9 2A       		.uleb128 0x2a
 8473 23fa 01       		.uleb128 0x1
 8474 23fb 50       		.byte	0x50
 8475 23fc 02       		.uleb128 0x2
 8476 23fd 75       		.byte	0x75
 8477 23fe 00       		.sleb128 0
 8478 23ff 2A       		.uleb128 0x2a
 8479 2400 01       		.uleb128 0x1
 8480 2401 51       		.byte	0x51
 8481 2402 02       		.uleb128 0x2
 8482 2403 76       		.byte	0x76
 8483 2404 00       		.sleb128 0
 8484 2405 00       		.byte	0
 8485 2406 29       		.uleb128 0x29
 8486 2407 E2040000 		.4byte	.LVL219
 8487 240b F3320000 		.4byte	0x32f3
 8488 240f 20240000 		.4byte	0x2420
 8489 2413 2A       		.uleb128 0x2a
 8490 2414 01       		.uleb128 0x1
 8491 2415 50       		.byte	0x50
 8492 2416 02       		.uleb128 0x2
 8493 2417 75       		.byte	0x75
ARM GAS  /tmp/ccOR9P9P.s 			page 150


 8494 2418 00       		.sleb128 0
 8495 2419 2A       		.uleb128 0x2a
 8496 241a 01       		.uleb128 0x1
 8497 241b 51       		.byte	0x51
 8498 241c 02       		.uleb128 0x2
 8499 241d 76       		.byte	0x76
 8500 241e 00       		.sleb128 0
 8501 241f 00       		.byte	0
 8502 2420 29       		.uleb128 0x29
 8503 2421 EE040000 		.4byte	.LVL220
 8504 2425 F3320000 		.4byte	0x32f3
 8505 2429 3A240000 		.4byte	0x243a
 8506 242d 2A       		.uleb128 0x2a
 8507 242e 01       		.uleb128 0x1
 8508 242f 50       		.byte	0x50
 8509 2430 02       		.uleb128 0x2
 8510 2431 75       		.byte	0x75
 8511 2432 00       		.sleb128 0
 8512 2433 2A       		.uleb128 0x2a
 8513 2434 01       		.uleb128 0x1
 8514 2435 51       		.byte	0x51
 8515 2436 02       		.uleb128 0x2
 8516 2437 76       		.byte	0x76
 8517 2438 00       		.sleb128 0
 8518 2439 00       		.byte	0
 8519 243a 29       		.uleb128 0x29
 8520 243b FA040000 		.4byte	.LVL221
 8521 243f 14330000 		.4byte	0x3314
 8522 2443 54240000 		.4byte	0x2454
 8523 2447 2A       		.uleb128 0x2a
 8524 2448 01       		.uleb128 0x1
 8525 2449 50       		.byte	0x50
 8526 244a 02       		.uleb128 0x2
 8527 244b 75       		.byte	0x75
 8528 244c 00       		.sleb128 0
 8529 244d 2A       		.uleb128 0x2a
 8530 244e 01       		.uleb128 0x1
 8531 244f 51       		.byte	0x51
 8532 2450 02       		.uleb128 0x2
 8533 2451 76       		.byte	0x76
 8534 2452 00       		.sleb128 0
 8535 2453 00       		.byte	0
 8536 2454 29       		.uleb128 0x29
 8537 2455 06050000 		.4byte	.LVL222
 8538 2459 F3320000 		.4byte	0x32f3
 8539 245d 6E240000 		.4byte	0x246e
 8540 2461 2A       		.uleb128 0x2a
 8541 2462 01       		.uleb128 0x1
 8542 2463 50       		.byte	0x50
 8543 2464 02       		.uleb128 0x2
 8544 2465 75       		.byte	0x75
 8545 2466 00       		.sleb128 0
 8546 2467 2A       		.uleb128 0x2a
 8547 2468 01       		.uleb128 0x1
 8548 2469 51       		.byte	0x51
 8549 246a 02       		.uleb128 0x2
 8550 246b 76       		.byte	0x76
ARM GAS  /tmp/ccOR9P9P.s 			page 151


 8551 246c 00       		.sleb128 0
 8552 246d 00       		.byte	0
 8553 246e 29       		.uleb128 0x29
 8554 246f 12050000 		.4byte	.LVL223
 8555 2473 F3320000 		.4byte	0x32f3
 8556 2477 88240000 		.4byte	0x2488
 8557 247b 2A       		.uleb128 0x2a
 8558 247c 01       		.uleb128 0x1
 8559 247d 50       		.byte	0x50
 8560 247e 02       		.uleb128 0x2
 8561 247f 75       		.byte	0x75
 8562 2480 00       		.sleb128 0
 8563 2481 2A       		.uleb128 0x2a
 8564 2482 01       		.uleb128 0x1
 8565 2483 51       		.byte	0x51
 8566 2484 02       		.uleb128 0x2
 8567 2485 76       		.byte	0x76
 8568 2486 00       		.sleb128 0
 8569 2487 00       		.byte	0
 8570 2488 29       		.uleb128 0x29
 8571 2489 1E050000 		.4byte	.LVL224
 8572 248d E8320000 		.4byte	0x32e8
 8573 2491 A2240000 		.4byte	0x24a2
 8574 2495 2A       		.uleb128 0x2a
 8575 2496 01       		.uleb128 0x1
 8576 2497 50       		.byte	0x50
 8577 2498 02       		.uleb128 0x2
 8578 2499 75       		.byte	0x75
 8579 249a 00       		.sleb128 0
 8580 249b 2A       		.uleb128 0x2a
 8581 249c 01       		.uleb128 0x1
 8582 249d 51       		.byte	0x51
 8583 249e 02       		.uleb128 0x2
 8584 249f 76       		.byte	0x76
 8585 24a0 00       		.sleb128 0
 8586 24a1 00       		.byte	0
 8587 24a2 29       		.uleb128 0x29
 8588 24a3 50050000 		.4byte	.LVL225
 8589 24a7 F3320000 		.4byte	0x32f3
 8590 24ab BC240000 		.4byte	0x24bc
 8591 24af 2A       		.uleb128 0x2a
 8592 24b0 01       		.uleb128 0x1
 8593 24b1 50       		.byte	0x50
 8594 24b2 02       		.uleb128 0x2
 8595 24b3 75       		.byte	0x75
 8596 24b4 00       		.sleb128 0
 8597 24b5 2A       		.uleb128 0x2a
 8598 24b6 01       		.uleb128 0x1
 8599 24b7 51       		.byte	0x51
 8600 24b8 02       		.uleb128 0x2
 8601 24b9 76       		.byte	0x76
 8602 24ba 00       		.sleb128 0
 8603 24bb 00       		.byte	0
 8604 24bc 29       		.uleb128 0x29
 8605 24bd 5C050000 		.4byte	.LVL226
 8606 24c1 F3320000 		.4byte	0x32f3
 8607 24c5 D6240000 		.4byte	0x24d6
ARM GAS  /tmp/ccOR9P9P.s 			page 152


 8608 24c9 2A       		.uleb128 0x2a
 8609 24ca 01       		.uleb128 0x1
 8610 24cb 50       		.byte	0x50
 8611 24cc 02       		.uleb128 0x2
 8612 24cd 75       		.byte	0x75
 8613 24ce 00       		.sleb128 0
 8614 24cf 2A       		.uleb128 0x2a
 8615 24d0 01       		.uleb128 0x1
 8616 24d1 51       		.byte	0x51
 8617 24d2 02       		.uleb128 0x2
 8618 24d3 76       		.byte	0x76
 8619 24d4 00       		.sleb128 0
 8620 24d5 00       		.byte	0
 8621 24d6 29       		.uleb128 0x29
 8622 24d7 68050000 		.4byte	.LVL227
 8623 24db F3320000 		.4byte	0x32f3
 8624 24df F0240000 		.4byte	0x24f0
 8625 24e3 2A       		.uleb128 0x2a
 8626 24e4 01       		.uleb128 0x1
 8627 24e5 50       		.byte	0x50
 8628 24e6 02       		.uleb128 0x2
 8629 24e7 75       		.byte	0x75
 8630 24e8 00       		.sleb128 0
 8631 24e9 2A       		.uleb128 0x2a
 8632 24ea 01       		.uleb128 0x1
 8633 24eb 51       		.byte	0x51
 8634 24ec 02       		.uleb128 0x2
 8635 24ed 76       		.byte	0x76
 8636 24ee 00       		.sleb128 0
 8637 24ef 00       		.byte	0
 8638 24f0 29       		.uleb128 0x29
 8639 24f1 74050000 		.4byte	.LVL228
 8640 24f5 F3320000 		.4byte	0x32f3
 8641 24f9 0A250000 		.4byte	0x250a
 8642 24fd 2A       		.uleb128 0x2a
 8643 24fe 01       		.uleb128 0x1
 8644 24ff 50       		.byte	0x50
 8645 2500 02       		.uleb128 0x2
 8646 2501 75       		.byte	0x75
 8647 2502 00       		.sleb128 0
 8648 2503 2A       		.uleb128 0x2a
 8649 2504 01       		.uleb128 0x1
 8650 2505 51       		.byte	0x51
 8651 2506 02       		.uleb128 0x2
 8652 2507 76       		.byte	0x76
 8653 2508 00       		.sleb128 0
 8654 2509 00       		.byte	0
 8655 250a 29       		.uleb128 0x29
 8656 250b 94050000 		.4byte	.LVL229
 8657 250f F3320000 		.4byte	0x32f3
 8658 2513 24250000 		.4byte	0x2524
 8659 2517 2A       		.uleb128 0x2a
 8660 2518 01       		.uleb128 0x1
 8661 2519 50       		.byte	0x50
 8662 251a 02       		.uleb128 0x2
 8663 251b 75       		.byte	0x75
 8664 251c 00       		.sleb128 0
ARM GAS  /tmp/ccOR9P9P.s 			page 153


 8665 251d 2A       		.uleb128 0x2a
 8666 251e 01       		.uleb128 0x1
 8667 251f 51       		.byte	0x51
 8668 2520 02       		.uleb128 0x2
 8669 2521 76       		.byte	0x76
 8670 2522 00       		.sleb128 0
 8671 2523 00       		.byte	0
 8672 2524 29       		.uleb128 0x29
 8673 2525 A0050000 		.4byte	.LVL230
 8674 2529 F3320000 		.4byte	0x32f3
 8675 252d 3E250000 		.4byte	0x253e
 8676 2531 2A       		.uleb128 0x2a
 8677 2532 01       		.uleb128 0x1
 8678 2533 50       		.byte	0x50
 8679 2534 02       		.uleb128 0x2
 8680 2535 75       		.byte	0x75
 8681 2536 00       		.sleb128 0
 8682 2537 2A       		.uleb128 0x2a
 8683 2538 01       		.uleb128 0x1
 8684 2539 51       		.byte	0x51
 8685 253a 02       		.uleb128 0x2
 8686 253b 76       		.byte	0x76
 8687 253c 00       		.sleb128 0
 8688 253d 00       		.byte	0
 8689 253e 2B       		.uleb128 0x2b
 8690 253f C0050000 		.4byte	.LVL231
 8691 2543 F3320000 		.4byte	0x32f3
 8692 2547 2A       		.uleb128 0x2a
 8693 2548 01       		.uleb128 0x1
 8694 2549 50       		.byte	0x50
 8695 254a 02       		.uleb128 0x2
 8696 254b 75       		.byte	0x75
 8697 254c 00       		.sleb128 0
 8698 254d 2A       		.uleb128 0x2a
 8699 254e 01       		.uleb128 0x1
 8700 254f 51       		.byte	0x51
 8701 2550 02       		.uleb128 0x2
 8702 2551 76       		.byte	0x76
 8703 2552 00       		.sleb128 0
 8704 2553 00       		.byte	0
 8705 2554 00       		.byte	0
 8706 2555 2C       		.uleb128 0x2c
 8707 2556 E10E0000 		.4byte	.LASF440
 8708 255a 01       		.byte	0x1
 8709 255b 8F       		.byte	0x8f
 8710 255c D3000000 		.4byte	0xd3
 8711 2560 00000000 		.4byte	.LFB220
 8712 2564 D4020000 		.4byte	.LFE220-.LFB220
 8713 2568 01       		.uleb128 0x1
 8714 2569 9C       		.byte	0x9c
 8715 256a 14290000 		.4byte	0x2914
 8716 256e 2D       		.uleb128 0x2d
 8717 256f 3C010000 		.4byte	.LASF436
 8718 2573 01       		.byte	0x1
 8719 2574 8F       		.byte	0x8f
 8720 2575 61080000 		.4byte	0x861
 8721 2579 52010000 		.4byte	.LLST2
ARM GAS  /tmp/ccOR9P9P.s 			page 154


 8722 257d 2D       		.uleb128 0x2d
 8723 257e A5000000 		.4byte	.LASF435
 8724 2582 01       		.byte	0x1
 8725 2583 8F       		.byte	0x8f
 8726 2584 14290000 		.4byte	0x2914
 8727 2588 7E010000 		.4byte	.LLST3
 8728 258c 2E       		.uleb128 0x2e
 8729 258d 696E6400 		.ascii	"ind\000"
 8730 2591 01       		.byte	0x1
 8731 2592 90       		.byte	0x90
 8732 2593 D3000000 		.4byte	0xd3
 8733 2597 02       		.uleb128 0x2
 8734 2598 91       		.byte	0x91
 8735 2599 6C       		.sleb128 -20
 8736 259a 29       		.uleb128 0x29
 8737 259b 18000000 		.4byte	.LVL97
 8738 259f 1F330000 		.4byte	0x331f
 8739 25a3 BD250000 		.4byte	0x25bd
 8740 25a7 2A       		.uleb128 0x2a
 8741 25a8 01       		.uleb128 0x1
 8742 25a9 50       		.byte	0x50
 8743 25aa 02       		.uleb128 0x2
 8744 25ab 75       		.byte	0x75
 8745 25ac 00       		.sleb128 0
 8746 25ad 2A       		.uleb128 0x2a
 8747 25ae 01       		.uleb128 0x1
 8748 25af 51       		.byte	0x51
 8749 25b0 05       		.uleb128 0x5
 8750 25b1 0C       		.byte	0xc
 8751 25b2 C530382B 		.4byte	0x2b3830c5
 8752 25b6 2A       		.uleb128 0x2a
 8753 25b7 01       		.uleb128 0x1
 8754 25b8 52       		.byte	0x52
 8755 25b9 02       		.uleb128 0x2
 8756 25ba 76       		.byte	0x76
 8757 25bb 00       		.sleb128 0
 8758 25bc 00       		.byte	0
 8759 25bd 29       		.uleb128 0x29
 8760 25be 2C000000 		.4byte	.LVL98
 8761 25c2 1F330000 		.4byte	0x331f
 8762 25c6 D7250000 		.4byte	0x25d7
 8763 25ca 2A       		.uleb128 0x2a
 8764 25cb 01       		.uleb128 0x1
 8765 25cc 50       		.byte	0x50
 8766 25cd 02       		.uleb128 0x2
 8767 25ce 75       		.byte	0x75
 8768 25cf 00       		.sleb128 0
 8769 25d0 2A       		.uleb128 0x2a
 8770 25d1 01       		.uleb128 0x1
 8771 25d2 52       		.byte	0x52
 8772 25d3 02       		.uleb128 0x2
 8773 25d4 76       		.byte	0x76
 8774 25d5 00       		.sleb128 0
 8775 25d6 00       		.byte	0
 8776 25d7 29       		.uleb128 0x29
 8777 25d8 38000000 		.4byte	.LVL99
 8778 25dc 2A330000 		.4byte	0x332a
ARM GAS  /tmp/ccOR9P9P.s 			page 155


 8779 25e0 F1250000 		.4byte	0x25f1
 8780 25e4 2A       		.uleb128 0x2a
 8781 25e5 01       		.uleb128 0x1
 8782 25e6 50       		.byte	0x50
 8783 25e7 02       		.uleb128 0x2
 8784 25e8 75       		.byte	0x75
 8785 25e9 00       		.sleb128 0
 8786 25ea 2A       		.uleb128 0x2a
 8787 25eb 01       		.uleb128 0x1
 8788 25ec 51       		.byte	0x51
 8789 25ed 02       		.uleb128 0x2
 8790 25ee 76       		.byte	0x76
 8791 25ef 00       		.sleb128 0
 8792 25f0 00       		.byte	0
 8793 25f1 29       		.uleb128 0x29
 8794 25f2 4C000000 		.4byte	.LVL100
 8795 25f6 35330000 		.4byte	0x3335
 8796 25fa 0B260000 		.4byte	0x260b
 8797 25fe 2A       		.uleb128 0x2a
 8798 25ff 01       		.uleb128 0x1
 8799 2600 50       		.byte	0x50
 8800 2601 02       		.uleb128 0x2
 8801 2602 75       		.byte	0x75
 8802 2603 00       		.sleb128 0
 8803 2604 2A       		.uleb128 0x2a
 8804 2605 01       		.uleb128 0x1
 8805 2606 52       		.byte	0x52
 8806 2607 02       		.uleb128 0x2
 8807 2608 76       		.byte	0x76
 8808 2609 00       		.sleb128 0
 8809 260a 00       		.byte	0
 8810 260b 29       		.uleb128 0x29
 8811 260c 7C000000 		.4byte	.LVL101
 8812 2610 2A330000 		.4byte	0x332a
 8813 2614 25260000 		.4byte	0x2625
 8814 2618 2A       		.uleb128 0x2a
 8815 2619 01       		.uleb128 0x1
 8816 261a 50       		.byte	0x50
 8817 261b 02       		.uleb128 0x2
 8818 261c 75       		.byte	0x75
 8819 261d 00       		.sleb128 0
 8820 261e 2A       		.uleb128 0x2a
 8821 261f 01       		.uleb128 0x1
 8822 2620 51       		.byte	0x51
 8823 2621 02       		.uleb128 0x2
 8824 2622 76       		.byte	0x76
 8825 2623 00       		.sleb128 0
 8826 2624 00       		.byte	0
 8827 2625 29       		.uleb128 0x29
 8828 2626 88000000 		.4byte	.LVL102
 8829 262a 2A330000 		.4byte	0x332a
 8830 262e 3F260000 		.4byte	0x263f
 8831 2632 2A       		.uleb128 0x2a
 8832 2633 01       		.uleb128 0x1
 8833 2634 50       		.byte	0x50
 8834 2635 02       		.uleb128 0x2
 8835 2636 75       		.byte	0x75
ARM GAS  /tmp/ccOR9P9P.s 			page 156


 8836 2637 00       		.sleb128 0
 8837 2638 2A       		.uleb128 0x2a
 8838 2639 01       		.uleb128 0x1
 8839 263a 51       		.byte	0x51
 8840 263b 02       		.uleb128 0x2
 8841 263c 76       		.byte	0x76
 8842 263d 00       		.sleb128 0
 8843 263e 00       		.byte	0
 8844 263f 29       		.uleb128 0x29
 8845 2640 94000000 		.4byte	.LVL103
 8846 2644 2A330000 		.4byte	0x332a
 8847 2648 59260000 		.4byte	0x2659
 8848 264c 2A       		.uleb128 0x2a
 8849 264d 01       		.uleb128 0x1
 8850 264e 50       		.byte	0x50
 8851 264f 02       		.uleb128 0x2
 8852 2650 75       		.byte	0x75
 8853 2651 00       		.sleb128 0
 8854 2652 2A       		.uleb128 0x2a
 8855 2653 01       		.uleb128 0x1
 8856 2654 51       		.byte	0x51
 8857 2655 02       		.uleb128 0x2
 8858 2656 76       		.byte	0x76
 8859 2657 00       		.sleb128 0
 8860 2658 00       		.byte	0
 8861 2659 29       		.uleb128 0x29
 8862 265a A0000000 		.4byte	.LVL104
 8863 265e 2A330000 		.4byte	0x332a
 8864 2662 73260000 		.4byte	0x2673
 8865 2666 2A       		.uleb128 0x2a
 8866 2667 01       		.uleb128 0x1
 8867 2668 50       		.byte	0x50
 8868 2669 02       		.uleb128 0x2
 8869 266a 75       		.byte	0x75
 8870 266b 00       		.sleb128 0
 8871 266c 2A       		.uleb128 0x2a
 8872 266d 01       		.uleb128 0x1
 8873 266e 51       		.byte	0x51
 8874 266f 02       		.uleb128 0x2
 8875 2670 76       		.byte	0x76
 8876 2671 00       		.sleb128 0
 8877 2672 00       		.byte	0
 8878 2673 29       		.uleb128 0x29
 8879 2674 AC000000 		.4byte	.LVL105
 8880 2678 2A330000 		.4byte	0x332a
 8881 267c 8D260000 		.4byte	0x268d
 8882 2680 2A       		.uleb128 0x2a
 8883 2681 01       		.uleb128 0x1
 8884 2682 50       		.byte	0x50
 8885 2683 02       		.uleb128 0x2
 8886 2684 75       		.byte	0x75
 8887 2685 00       		.sleb128 0
 8888 2686 2A       		.uleb128 0x2a
 8889 2687 01       		.uleb128 0x1
 8890 2688 51       		.byte	0x51
 8891 2689 02       		.uleb128 0x2
 8892 268a 76       		.byte	0x76
ARM GAS  /tmp/ccOR9P9P.s 			page 157


 8893 268b 00       		.sleb128 0
 8894 268c 00       		.byte	0
 8895 268d 29       		.uleb128 0x29
 8896 268e CC000000 		.4byte	.LVL106
 8897 2692 2A330000 		.4byte	0x332a
 8898 2696 A7260000 		.4byte	0x26a7
 8899 269a 2A       		.uleb128 0x2a
 8900 269b 01       		.uleb128 0x1
 8901 269c 50       		.byte	0x50
 8902 269d 02       		.uleb128 0x2
 8903 269e 75       		.byte	0x75
 8904 269f 00       		.sleb128 0
 8905 26a0 2A       		.uleb128 0x2a
 8906 26a1 01       		.uleb128 0x1
 8907 26a2 51       		.byte	0x51
 8908 26a3 02       		.uleb128 0x2
 8909 26a4 76       		.byte	0x76
 8910 26a5 00       		.sleb128 0
 8911 26a6 00       		.byte	0
 8912 26a7 29       		.uleb128 0x29
 8913 26a8 D8000000 		.4byte	.LVL107
 8914 26ac 2A330000 		.4byte	0x332a
 8915 26b0 C1260000 		.4byte	0x26c1
 8916 26b4 2A       		.uleb128 0x2a
 8917 26b5 01       		.uleb128 0x1
 8918 26b6 50       		.byte	0x50
 8919 26b7 02       		.uleb128 0x2
 8920 26b8 75       		.byte	0x75
 8921 26b9 00       		.sleb128 0
 8922 26ba 2A       		.uleb128 0x2a
 8923 26bb 01       		.uleb128 0x1
 8924 26bc 51       		.byte	0x51
 8925 26bd 02       		.uleb128 0x2
 8926 26be 76       		.byte	0x76
 8927 26bf 00       		.sleb128 0
 8928 26c0 00       		.byte	0
 8929 26c1 29       		.uleb128 0x29
 8930 26c2 F0000000 		.4byte	.LVL108
 8931 26c6 2A330000 		.4byte	0x332a
 8932 26ca DB260000 		.4byte	0x26db
 8933 26ce 2A       		.uleb128 0x2a
 8934 26cf 01       		.uleb128 0x1
 8935 26d0 50       		.byte	0x50
 8936 26d1 02       		.uleb128 0x2
 8937 26d2 75       		.byte	0x75
 8938 26d3 00       		.sleb128 0
 8939 26d4 2A       		.uleb128 0x2a
 8940 26d5 01       		.uleb128 0x1
 8941 26d6 51       		.byte	0x51
 8942 26d7 02       		.uleb128 0x2
 8943 26d8 76       		.byte	0x76
 8944 26d9 00       		.sleb128 0
 8945 26da 00       		.byte	0
 8946 26db 29       		.uleb128 0x29
 8947 26dc FC000000 		.4byte	.LVL109
 8948 26e0 2A330000 		.4byte	0x332a
 8949 26e4 F5260000 		.4byte	0x26f5
ARM GAS  /tmp/ccOR9P9P.s 			page 158


 8950 26e8 2A       		.uleb128 0x2a
 8951 26e9 01       		.uleb128 0x1
 8952 26ea 50       		.byte	0x50
 8953 26eb 02       		.uleb128 0x2
 8954 26ec 75       		.byte	0x75
 8955 26ed 00       		.sleb128 0
 8956 26ee 2A       		.uleb128 0x2a
 8957 26ef 01       		.uleb128 0x1
 8958 26f0 51       		.byte	0x51
 8959 26f1 02       		.uleb128 0x2
 8960 26f2 76       		.byte	0x76
 8961 26f3 00       		.sleb128 0
 8962 26f4 00       		.byte	0
 8963 26f5 29       		.uleb128 0x29
 8964 26f6 1C010000 		.4byte	.LVL110
 8965 26fa 2A330000 		.4byte	0x332a
 8966 26fe 0F270000 		.4byte	0x270f
 8967 2702 2A       		.uleb128 0x2a
 8968 2703 01       		.uleb128 0x1
 8969 2704 50       		.byte	0x50
 8970 2705 02       		.uleb128 0x2
 8971 2706 75       		.byte	0x75
 8972 2707 00       		.sleb128 0
 8973 2708 2A       		.uleb128 0x2a
 8974 2709 01       		.uleb128 0x1
 8975 270a 51       		.byte	0x51
 8976 270b 02       		.uleb128 0x2
 8977 270c 76       		.byte	0x76
 8978 270d 00       		.sleb128 0
 8979 270e 00       		.byte	0
 8980 270f 29       		.uleb128 0x29
 8981 2710 34010000 		.4byte	.LVL111
 8982 2714 2A330000 		.4byte	0x332a
 8983 2718 29270000 		.4byte	0x2729
 8984 271c 2A       		.uleb128 0x2a
 8985 271d 01       		.uleb128 0x1
 8986 271e 50       		.byte	0x50
 8987 271f 02       		.uleb128 0x2
 8988 2720 75       		.byte	0x75
 8989 2721 00       		.sleb128 0
 8990 2722 2A       		.uleb128 0x2a
 8991 2723 01       		.uleb128 0x1
 8992 2724 51       		.byte	0x51
 8993 2725 02       		.uleb128 0x2
 8994 2726 76       		.byte	0x76
 8995 2727 00       		.sleb128 0
 8996 2728 00       		.byte	0
 8997 2729 29       		.uleb128 0x29
 8998 272a 40010000 		.4byte	.LVL112
 8999 272e 2A330000 		.4byte	0x332a
 9000 2732 43270000 		.4byte	0x2743
 9001 2736 2A       		.uleb128 0x2a
 9002 2737 01       		.uleb128 0x1
 9003 2738 50       		.byte	0x50
 9004 2739 02       		.uleb128 0x2
 9005 273a 75       		.byte	0x75
 9006 273b 00       		.sleb128 0
ARM GAS  /tmp/ccOR9P9P.s 			page 159


 9007 273c 2A       		.uleb128 0x2a
 9008 273d 01       		.uleb128 0x1
 9009 273e 51       		.byte	0x51
 9010 273f 02       		.uleb128 0x2
 9011 2740 76       		.byte	0x76
 9012 2741 00       		.sleb128 0
 9013 2742 00       		.byte	0
 9014 2743 29       		.uleb128 0x29
 9015 2744 4C010000 		.4byte	.LVL113
 9016 2748 2A330000 		.4byte	0x332a
 9017 274c 5D270000 		.4byte	0x275d
 9018 2750 2A       		.uleb128 0x2a
 9019 2751 01       		.uleb128 0x1
 9020 2752 50       		.byte	0x50
 9021 2753 02       		.uleb128 0x2
 9022 2754 75       		.byte	0x75
 9023 2755 00       		.sleb128 0
 9024 2756 2A       		.uleb128 0x2a
 9025 2757 01       		.uleb128 0x1
 9026 2758 51       		.byte	0x51
 9027 2759 02       		.uleb128 0x2
 9028 275a 76       		.byte	0x76
 9029 275b 00       		.sleb128 0
 9030 275c 00       		.byte	0
 9031 275d 29       		.uleb128 0x29
 9032 275e 58010000 		.4byte	.LVL114
 9033 2762 2A330000 		.4byte	0x332a
 9034 2766 77270000 		.4byte	0x2777
 9035 276a 2A       		.uleb128 0x2a
 9036 276b 01       		.uleb128 0x1
 9037 276c 50       		.byte	0x50
 9038 276d 02       		.uleb128 0x2
 9039 276e 75       		.byte	0x75
 9040 276f 00       		.sleb128 0
 9041 2770 2A       		.uleb128 0x2a
 9042 2771 01       		.uleb128 0x1
 9043 2772 51       		.byte	0x51
 9044 2773 02       		.uleb128 0x2
 9045 2774 76       		.byte	0x76
 9046 2775 00       		.sleb128 0
 9047 2776 00       		.byte	0
 9048 2777 29       		.uleb128 0x29
 9049 2778 64010000 		.4byte	.LVL115
 9050 277c 2A330000 		.4byte	0x332a
 9051 2780 91270000 		.4byte	0x2791
 9052 2784 2A       		.uleb128 0x2a
 9053 2785 01       		.uleb128 0x1
 9054 2786 50       		.byte	0x50
 9055 2787 02       		.uleb128 0x2
 9056 2788 75       		.byte	0x75
 9057 2789 00       		.sleb128 0
 9058 278a 2A       		.uleb128 0x2a
 9059 278b 01       		.uleb128 0x1
 9060 278c 51       		.byte	0x51
 9061 278d 02       		.uleb128 0x2
 9062 278e 76       		.byte	0x76
 9063 278f 00       		.sleb128 0
ARM GAS  /tmp/ccOR9P9P.s 			page 160


 9064 2790 00       		.byte	0
 9065 2791 29       		.uleb128 0x29
 9066 2792 70010000 		.4byte	.LVL116
 9067 2796 2A330000 		.4byte	0x332a
 9068 279a AB270000 		.4byte	0x27ab
 9069 279e 2A       		.uleb128 0x2a
 9070 279f 01       		.uleb128 0x1
 9071 27a0 50       		.byte	0x50
 9072 27a1 02       		.uleb128 0x2
 9073 27a2 75       		.byte	0x75
 9074 27a3 00       		.sleb128 0
 9075 27a4 2A       		.uleb128 0x2a
 9076 27a5 01       		.uleb128 0x1
 9077 27a6 51       		.byte	0x51
 9078 27a7 02       		.uleb128 0x2
 9079 27a8 76       		.byte	0x76
 9080 27a9 00       		.sleb128 0
 9081 27aa 00       		.byte	0
 9082 27ab 29       		.uleb128 0x29
 9083 27ac A8010000 		.4byte	.LVL117
 9084 27b0 2A330000 		.4byte	0x332a
 9085 27b4 C5270000 		.4byte	0x27c5
 9086 27b8 2A       		.uleb128 0x2a
 9087 27b9 01       		.uleb128 0x1
 9088 27ba 50       		.byte	0x50
 9089 27bb 02       		.uleb128 0x2
 9090 27bc 75       		.byte	0x75
 9091 27bd 00       		.sleb128 0
 9092 27be 2A       		.uleb128 0x2a
 9093 27bf 01       		.uleb128 0x1
 9094 27c0 51       		.byte	0x51
 9095 27c1 02       		.uleb128 0x2
 9096 27c2 76       		.byte	0x76
 9097 27c3 00       		.sleb128 0
 9098 27c4 00       		.byte	0
 9099 27c5 29       		.uleb128 0x29
 9100 27c6 B4010000 		.4byte	.LVL118
 9101 27ca 2A330000 		.4byte	0x332a
 9102 27ce DF270000 		.4byte	0x27df
 9103 27d2 2A       		.uleb128 0x2a
 9104 27d3 01       		.uleb128 0x1
 9105 27d4 50       		.byte	0x50
 9106 27d5 02       		.uleb128 0x2
 9107 27d6 75       		.byte	0x75
 9108 27d7 00       		.sleb128 0
 9109 27d8 2A       		.uleb128 0x2a
 9110 27d9 01       		.uleb128 0x1
 9111 27da 51       		.byte	0x51
 9112 27db 02       		.uleb128 0x2
 9113 27dc 76       		.byte	0x76
 9114 27dd 00       		.sleb128 0
 9115 27de 00       		.byte	0
 9116 27df 29       		.uleb128 0x29
 9117 27e0 CC010000 		.4byte	.LVL119
 9118 27e4 2A330000 		.4byte	0x332a
 9119 27e8 F9270000 		.4byte	0x27f9
 9120 27ec 2A       		.uleb128 0x2a
ARM GAS  /tmp/ccOR9P9P.s 			page 161


 9121 27ed 01       		.uleb128 0x1
 9122 27ee 50       		.byte	0x50
 9123 27ef 02       		.uleb128 0x2
 9124 27f0 75       		.byte	0x75
 9125 27f1 00       		.sleb128 0
 9126 27f2 2A       		.uleb128 0x2a
 9127 27f3 01       		.uleb128 0x1
 9128 27f4 51       		.byte	0x51
 9129 27f5 02       		.uleb128 0x2
 9130 27f6 76       		.byte	0x76
 9131 27f7 00       		.sleb128 0
 9132 27f8 00       		.byte	0
 9133 27f9 29       		.uleb128 0x29
 9134 27fa D8010000 		.4byte	.LVL120
 9135 27fe 2A330000 		.4byte	0x332a
 9136 2802 13280000 		.4byte	0x2813
 9137 2806 2A       		.uleb128 0x2a
 9138 2807 01       		.uleb128 0x1
 9139 2808 50       		.byte	0x50
 9140 2809 02       		.uleb128 0x2
 9141 280a 75       		.byte	0x75
 9142 280b 00       		.sleb128 0
 9143 280c 2A       		.uleb128 0x2a
 9144 280d 01       		.uleb128 0x1
 9145 280e 51       		.byte	0x51
 9146 280f 02       		.uleb128 0x2
 9147 2810 76       		.byte	0x76
 9148 2811 00       		.sleb128 0
 9149 2812 00       		.byte	0
 9150 2813 29       		.uleb128 0x29
 9151 2814 F8010000 		.4byte	.LVL121
 9152 2818 2A330000 		.4byte	0x332a
 9153 281c 2D280000 		.4byte	0x282d
 9154 2820 2A       		.uleb128 0x2a
 9155 2821 01       		.uleb128 0x1
 9156 2822 50       		.byte	0x50
 9157 2823 02       		.uleb128 0x2
 9158 2824 75       		.byte	0x75
 9159 2825 00       		.sleb128 0
 9160 2826 2A       		.uleb128 0x2a
 9161 2827 01       		.uleb128 0x1
 9162 2828 51       		.byte	0x51
 9163 2829 02       		.uleb128 0x2
 9164 282a 76       		.byte	0x76
 9165 282b 00       		.sleb128 0
 9166 282c 00       		.byte	0
 9167 282d 29       		.uleb128 0x29
 9168 282e 04020000 		.4byte	.LVL122
 9169 2832 35330000 		.4byte	0x3335
 9170 2836 47280000 		.4byte	0x2847
 9171 283a 2A       		.uleb128 0x2a
 9172 283b 01       		.uleb128 0x1
 9173 283c 50       		.byte	0x50
 9174 283d 02       		.uleb128 0x2
 9175 283e 75       		.byte	0x75
 9176 283f 00       		.sleb128 0
 9177 2840 2A       		.uleb128 0x2a
ARM GAS  /tmp/ccOR9P9P.s 			page 162


 9178 2841 01       		.uleb128 0x1
 9179 2842 52       		.byte	0x52
 9180 2843 02       		.uleb128 0x2
 9181 2844 76       		.byte	0x76
 9182 2845 00       		.sleb128 0
 9183 2846 00       		.byte	0
 9184 2847 29       		.uleb128 0x29
 9185 2848 10020000 		.4byte	.LVL123
 9186 284c 1F330000 		.4byte	0x331f
 9187 2850 61280000 		.4byte	0x2861
 9188 2854 2A       		.uleb128 0x2a
 9189 2855 01       		.uleb128 0x1
 9190 2856 50       		.byte	0x50
 9191 2857 02       		.uleb128 0x2
 9192 2858 75       		.byte	0x75
 9193 2859 00       		.sleb128 0
 9194 285a 2A       		.uleb128 0x2a
 9195 285b 01       		.uleb128 0x1
 9196 285c 52       		.byte	0x52
 9197 285d 02       		.uleb128 0x2
 9198 285e 76       		.byte	0x76
 9199 285f 00       		.sleb128 0
 9200 2860 00       		.byte	0
 9201 2861 29       		.uleb128 0x29
 9202 2862 28020000 		.4byte	.LVL124
 9203 2866 2A330000 		.4byte	0x332a
 9204 286a 7B280000 		.4byte	0x287b
 9205 286e 2A       		.uleb128 0x2a
 9206 286f 01       		.uleb128 0x1
 9207 2870 50       		.byte	0x50
 9208 2871 02       		.uleb128 0x2
 9209 2872 75       		.byte	0x75
 9210 2873 00       		.sleb128 0
 9211 2874 2A       		.uleb128 0x2a
 9212 2875 01       		.uleb128 0x1
 9213 2876 51       		.byte	0x51
 9214 2877 02       		.uleb128 0x2
 9215 2878 76       		.byte	0x76
 9216 2879 00       		.sleb128 0
 9217 287a 00       		.byte	0
 9218 287b 29       		.uleb128 0x29
 9219 287c 34020000 		.4byte	.LVL125
 9220 2880 2A330000 		.4byte	0x332a
 9221 2884 95280000 		.4byte	0x2895
 9222 2888 2A       		.uleb128 0x2a
 9223 2889 01       		.uleb128 0x1
 9224 288a 50       		.byte	0x50
 9225 288b 02       		.uleb128 0x2
 9226 288c 75       		.byte	0x75
 9227 288d 00       		.sleb128 0
 9228 288e 2A       		.uleb128 0x2a
 9229 288f 01       		.uleb128 0x1
 9230 2890 51       		.byte	0x51
 9231 2891 02       		.uleb128 0x2
 9232 2892 76       		.byte	0x76
 9233 2893 00       		.sleb128 0
 9234 2894 00       		.byte	0
ARM GAS  /tmp/ccOR9P9P.s 			page 163


 9235 2895 29       		.uleb128 0x29
 9236 2896 40020000 		.4byte	.LVL126
 9237 289a 2A330000 		.4byte	0x332a
 9238 289e AF280000 		.4byte	0x28af
 9239 28a2 2A       		.uleb128 0x2a
 9240 28a3 01       		.uleb128 0x1
 9241 28a4 50       		.byte	0x50
 9242 28a5 02       		.uleb128 0x2
 9243 28a6 75       		.byte	0x75
 9244 28a7 00       		.sleb128 0
 9245 28a8 2A       		.uleb128 0x2a
 9246 28a9 01       		.uleb128 0x1
 9247 28aa 51       		.byte	0x51
 9248 28ab 02       		.uleb128 0x2
 9249 28ac 76       		.byte	0x76
 9250 28ad 00       		.sleb128 0
 9251 28ae 00       		.byte	0
 9252 28af 29       		.uleb128 0x29
 9253 28b0 4C020000 		.4byte	.LVL127
 9254 28b4 2A330000 		.4byte	0x332a
 9255 28b8 C9280000 		.4byte	0x28c9
 9256 28bc 2A       		.uleb128 0x2a
 9257 28bd 01       		.uleb128 0x1
 9258 28be 50       		.byte	0x50
 9259 28bf 02       		.uleb128 0x2
 9260 28c0 75       		.byte	0x75
 9261 28c1 00       		.sleb128 0
 9262 28c2 2A       		.uleb128 0x2a
 9263 28c3 01       		.uleb128 0x1
 9264 28c4 51       		.byte	0x51
 9265 28c5 02       		.uleb128 0x2
 9266 28c6 76       		.byte	0x76
 9267 28c7 00       		.sleb128 0
 9268 28c8 00       		.byte	0
 9269 28c9 29       		.uleb128 0x29
 9270 28ca 58020000 		.4byte	.LVL128
 9271 28ce 2A330000 		.4byte	0x332a
 9272 28d2 E3280000 		.4byte	0x28e3
 9273 28d6 2A       		.uleb128 0x2a
 9274 28d7 01       		.uleb128 0x1
 9275 28d8 50       		.byte	0x50
 9276 28d9 02       		.uleb128 0x2
 9277 28da 75       		.byte	0x75
 9278 28db 00       		.sleb128 0
 9279 28dc 2A       		.uleb128 0x2a
 9280 28dd 01       		.uleb128 0x1
 9281 28de 51       		.byte	0x51
 9282 28df 02       		.uleb128 0x2
 9283 28e0 76       		.byte	0x76
 9284 28e1 00       		.sleb128 0
 9285 28e2 00       		.byte	0
 9286 28e3 29       		.uleb128 0x29
 9287 28e4 64020000 		.4byte	.LVL129
 9288 28e8 2A330000 		.4byte	0x332a
 9289 28ec FD280000 		.4byte	0x28fd
 9290 28f0 2A       		.uleb128 0x2a
 9291 28f1 01       		.uleb128 0x1
ARM GAS  /tmp/ccOR9P9P.s 			page 164


 9292 28f2 50       		.byte	0x50
 9293 28f3 02       		.uleb128 0x2
 9294 28f4 75       		.byte	0x75
 9295 28f5 00       		.sleb128 0
 9296 28f6 2A       		.uleb128 0x2a
 9297 28f7 01       		.uleb128 0x1
 9298 28f8 51       		.byte	0x51
 9299 28f9 02       		.uleb128 0x2
 9300 28fa 76       		.byte	0x76
 9301 28fb 00       		.sleb128 0
 9302 28fc 00       		.byte	0
 9303 28fd 2B       		.uleb128 0x2b
 9304 28fe 8A020000 		.4byte	.LVL130
 9305 2902 2A330000 		.4byte	0x332a
 9306 2906 2A       		.uleb128 0x2a
 9307 2907 01       		.uleb128 0x1
 9308 2908 50       		.byte	0x50
 9309 2909 02       		.uleb128 0x2
 9310 290a 75       		.byte	0x75
 9311 290b 00       		.sleb128 0
 9312 290c 2A       		.uleb128 0x2a
 9313 290d 01       		.uleb128 0x1
 9314 290e 51       		.byte	0x51
 9315 290f 02       		.uleb128 0x2
 9316 2910 76       		.byte	0x76
 9317 2911 00       		.sleb128 0
 9318 2912 00       		.byte	0
 9319 2913 00       		.byte	0
 9320 2914 0B       		.uleb128 0xb
 9321 2915 04       		.byte	0x4
 9322 2916 57170000 		.4byte	0x1757
 9323 291a 2C       		.uleb128 0x2c
 9324 291b A50F0000 		.4byte	.LASF441
 9325 291f 01       		.byte	0x1
 9326 2920 07       		.byte	0x7
 9327 2921 D3000000 		.4byte	0xd3
 9328 2925 00000000 		.4byte	.LFB219
 9329 2929 94050000 		.4byte	.LFE219-.LFB219
 9330 292d 01       		.uleb128 0x1
 9331 292e 9C       		.byte	0x9c
 9332 292f D7320000 		.4byte	0x32d7
 9333 2933 2D       		.uleb128 0x2d
 9334 2934 3C010000 		.4byte	.LASF436
 9335 2938 01       		.byte	0x1
 9336 2939 07       		.byte	0x7
 9337 293a 61080000 		.4byte	0x861
 9338 293e AA010000 		.4byte	.LLST0
 9339 2942 2D       		.uleb128 0x2d
 9340 2943 A5000000 		.4byte	.LASF435
 9341 2947 01       		.byte	0x1
 9342 2948 07       		.byte	0x7
 9343 2949 D7320000 		.4byte	0x32d7
 9344 294d C8010000 		.4byte	.LLST1
 9345 2951 2E       		.uleb128 0x2e
 9346 2952 696E6400 		.ascii	"ind\000"
 9347 2956 01       		.byte	0x1
 9348 2957 08       		.byte	0x8
ARM GAS  /tmp/ccOR9P9P.s 			page 165


 9349 2958 D3000000 		.4byte	0xd3
 9350 295c 02       		.uleb128 0x2
 9351 295d 91       		.byte	0x91
 9352 295e 6C       		.sleb128 -20
 9353 295f 29       		.uleb128 0x29
 9354 2960 18000000 		.4byte	.LVL2
 9355 2964 1F330000 		.4byte	0x331f
 9356 2968 82290000 		.4byte	0x2982
 9357 296c 2A       		.uleb128 0x2a
 9358 296d 01       		.uleb128 0x1
 9359 296e 50       		.byte	0x50
 9360 296f 02       		.uleb128 0x2
 9361 2970 75       		.byte	0x75
 9362 2971 00       		.sleb128 0
 9363 2972 2A       		.uleb128 0x2a
 9364 2973 01       		.uleb128 0x1
 9365 2974 51       		.byte	0x51
 9366 2975 05       		.uleb128 0x5
 9367 2976 0C       		.byte	0xc
 9368 2977 36E6FF1D 		.4byte	0x1dffe636
 9369 297b 2A       		.uleb128 0x2a
 9370 297c 01       		.uleb128 0x1
 9371 297d 52       		.byte	0x52
 9372 297e 02       		.uleb128 0x2
 9373 297f 76       		.byte	0x76
 9374 2980 00       		.sleb128 0
 9375 2981 00       		.byte	0
 9376 2982 29       		.uleb128 0x29
 9377 2983 3C000000 		.4byte	.LVL3
 9378 2987 2A330000 		.4byte	0x332a
 9379 298b 9C290000 		.4byte	0x299c
 9380 298f 2A       		.uleb128 0x2a
 9381 2990 01       		.uleb128 0x1
 9382 2991 50       		.byte	0x50
 9383 2992 02       		.uleb128 0x2
 9384 2993 75       		.byte	0x75
 9385 2994 00       		.sleb128 0
 9386 2995 2A       		.uleb128 0x2a
 9387 2996 01       		.uleb128 0x1
 9388 2997 51       		.byte	0x51
 9389 2998 02       		.uleb128 0x2
 9390 2999 76       		.byte	0x76
 9391 299a 00       		.sleb128 0
 9392 299b 00       		.byte	0
 9393 299c 29       		.uleb128 0x29
 9394 299d 48000000 		.4byte	.LVL4
 9395 29a1 2A330000 		.4byte	0x332a
 9396 29a5 B6290000 		.4byte	0x29b6
 9397 29a9 2A       		.uleb128 0x2a
 9398 29aa 01       		.uleb128 0x1
 9399 29ab 50       		.byte	0x50
 9400 29ac 02       		.uleb128 0x2
 9401 29ad 75       		.byte	0x75
 9402 29ae 00       		.sleb128 0
 9403 29af 2A       		.uleb128 0x2a
 9404 29b0 01       		.uleb128 0x1
 9405 29b1 51       		.byte	0x51
ARM GAS  /tmp/ccOR9P9P.s 			page 166


 9406 29b2 02       		.uleb128 0x2
 9407 29b3 76       		.byte	0x76
 9408 29b4 00       		.sleb128 0
 9409 29b5 00       		.byte	0
 9410 29b6 29       		.uleb128 0x29
 9411 29b7 54000000 		.4byte	.LVL5
 9412 29bb 2A330000 		.4byte	0x332a
 9413 29bf D0290000 		.4byte	0x29d0
 9414 29c3 2A       		.uleb128 0x2a
 9415 29c4 01       		.uleb128 0x1
 9416 29c5 50       		.byte	0x50
 9417 29c6 02       		.uleb128 0x2
 9418 29c7 75       		.byte	0x75
 9419 29c8 00       		.sleb128 0
 9420 29c9 2A       		.uleb128 0x2a
 9421 29ca 01       		.uleb128 0x1
 9422 29cb 51       		.byte	0x51
 9423 29cc 02       		.uleb128 0x2
 9424 29cd 76       		.byte	0x76
 9425 29ce 00       		.sleb128 0
 9426 29cf 00       		.byte	0
 9427 29d0 29       		.uleb128 0x29
 9428 29d1 60000000 		.4byte	.LVL6
 9429 29d5 2A330000 		.4byte	0x332a
 9430 29d9 EA290000 		.4byte	0x29ea
 9431 29dd 2A       		.uleb128 0x2a
 9432 29de 01       		.uleb128 0x1
 9433 29df 50       		.byte	0x50
 9434 29e0 02       		.uleb128 0x2
 9435 29e1 75       		.byte	0x75
 9436 29e2 00       		.sleb128 0
 9437 29e3 2A       		.uleb128 0x2a
 9438 29e4 01       		.uleb128 0x1
 9439 29e5 51       		.byte	0x51
 9440 29e6 02       		.uleb128 0x2
 9441 29e7 76       		.byte	0x76
 9442 29e8 00       		.sleb128 0
 9443 29e9 00       		.byte	0
 9444 29ea 29       		.uleb128 0x29
 9445 29eb 6C000000 		.4byte	.LVL7
 9446 29ef 2A330000 		.4byte	0x332a
 9447 29f3 042A0000 		.4byte	0x2a04
 9448 29f7 2A       		.uleb128 0x2a
 9449 29f8 01       		.uleb128 0x1
 9450 29f9 50       		.byte	0x50
 9451 29fa 02       		.uleb128 0x2
 9452 29fb 75       		.byte	0x75
 9453 29fc 00       		.sleb128 0
 9454 29fd 2A       		.uleb128 0x2a
 9455 29fe 01       		.uleb128 0x1
 9456 29ff 51       		.byte	0x51
 9457 2a00 02       		.uleb128 0x2
 9458 2a01 76       		.byte	0x76
 9459 2a02 00       		.sleb128 0
 9460 2a03 00       		.byte	0
 9461 2a04 29       		.uleb128 0x29
 9462 2a05 78000000 		.4byte	.LVL8
ARM GAS  /tmp/ccOR9P9P.s 			page 167


 9463 2a09 2A330000 		.4byte	0x332a
 9464 2a0d 1E2A0000 		.4byte	0x2a1e
 9465 2a11 2A       		.uleb128 0x2a
 9466 2a12 01       		.uleb128 0x1
 9467 2a13 50       		.byte	0x50
 9468 2a14 02       		.uleb128 0x2
 9469 2a15 75       		.byte	0x75
 9470 2a16 00       		.sleb128 0
 9471 2a17 2A       		.uleb128 0x2a
 9472 2a18 01       		.uleb128 0x1
 9473 2a19 51       		.byte	0x51
 9474 2a1a 02       		.uleb128 0x2
 9475 2a1b 76       		.byte	0x76
 9476 2a1c 00       		.sleb128 0
 9477 2a1d 00       		.byte	0
 9478 2a1e 29       		.uleb128 0x29
 9479 2a1f 84000000 		.4byte	.LVL9
 9480 2a23 2A330000 		.4byte	0x332a
 9481 2a27 382A0000 		.4byte	0x2a38
 9482 2a2b 2A       		.uleb128 0x2a
 9483 2a2c 01       		.uleb128 0x1
 9484 2a2d 50       		.byte	0x50
 9485 2a2e 02       		.uleb128 0x2
 9486 2a2f 75       		.byte	0x75
 9487 2a30 00       		.sleb128 0
 9488 2a31 2A       		.uleb128 0x2a
 9489 2a32 01       		.uleb128 0x1
 9490 2a33 51       		.byte	0x51
 9491 2a34 02       		.uleb128 0x2
 9492 2a35 76       		.byte	0x76
 9493 2a36 00       		.sleb128 0
 9494 2a37 00       		.byte	0
 9495 2a38 29       		.uleb128 0x29
 9496 2a39 90000000 		.4byte	.LVL10
 9497 2a3d 2A330000 		.4byte	0x332a
 9498 2a41 522A0000 		.4byte	0x2a52
 9499 2a45 2A       		.uleb128 0x2a
 9500 2a46 01       		.uleb128 0x1
 9501 2a47 50       		.byte	0x50
 9502 2a48 02       		.uleb128 0x2
 9503 2a49 75       		.byte	0x75
 9504 2a4a 00       		.sleb128 0
 9505 2a4b 2A       		.uleb128 0x2a
 9506 2a4c 01       		.uleb128 0x1
 9507 2a4d 51       		.byte	0x51
 9508 2a4e 02       		.uleb128 0x2
 9509 2a4f 76       		.byte	0x76
 9510 2a50 00       		.sleb128 0
 9511 2a51 00       		.byte	0
 9512 2a52 29       		.uleb128 0x29
 9513 2a53 9C000000 		.4byte	.LVL11
 9514 2a57 2A330000 		.4byte	0x332a
 9515 2a5b 6C2A0000 		.4byte	0x2a6c
 9516 2a5f 2A       		.uleb128 0x2a
 9517 2a60 01       		.uleb128 0x1
 9518 2a61 50       		.byte	0x50
 9519 2a62 02       		.uleb128 0x2
ARM GAS  /tmp/ccOR9P9P.s 			page 168


 9520 2a63 75       		.byte	0x75
 9521 2a64 00       		.sleb128 0
 9522 2a65 2A       		.uleb128 0x2a
 9523 2a66 01       		.uleb128 0x1
 9524 2a67 51       		.byte	0x51
 9525 2a68 02       		.uleb128 0x2
 9526 2a69 76       		.byte	0x76
 9527 2a6a 00       		.sleb128 0
 9528 2a6b 00       		.byte	0
 9529 2a6c 29       		.uleb128 0x29
 9530 2a6d A8000000 		.4byte	.LVL12
 9531 2a71 2A330000 		.4byte	0x332a
 9532 2a75 862A0000 		.4byte	0x2a86
 9533 2a79 2A       		.uleb128 0x2a
 9534 2a7a 01       		.uleb128 0x1
 9535 2a7b 50       		.byte	0x50
 9536 2a7c 02       		.uleb128 0x2
 9537 2a7d 75       		.byte	0x75
 9538 2a7e 00       		.sleb128 0
 9539 2a7f 2A       		.uleb128 0x2a
 9540 2a80 01       		.uleb128 0x1
 9541 2a81 51       		.byte	0x51
 9542 2a82 02       		.uleb128 0x2
 9543 2a83 76       		.byte	0x76
 9544 2a84 00       		.sleb128 0
 9545 2a85 00       		.byte	0
 9546 2a86 29       		.uleb128 0x29
 9547 2a87 B4000000 		.4byte	.LVL13
 9548 2a8b 2A330000 		.4byte	0x332a
 9549 2a8f A02A0000 		.4byte	0x2aa0
 9550 2a93 2A       		.uleb128 0x2a
 9551 2a94 01       		.uleb128 0x1
 9552 2a95 50       		.byte	0x50
 9553 2a96 02       		.uleb128 0x2
 9554 2a97 75       		.byte	0x75
 9555 2a98 00       		.sleb128 0
 9556 2a99 2A       		.uleb128 0x2a
 9557 2a9a 01       		.uleb128 0x1
 9558 2a9b 51       		.byte	0x51
 9559 2a9c 02       		.uleb128 0x2
 9560 2a9d 76       		.byte	0x76
 9561 2a9e 00       		.sleb128 0
 9562 2a9f 00       		.byte	0
 9563 2aa0 29       		.uleb128 0x29
 9564 2aa1 C0000000 		.4byte	.LVL14
 9565 2aa5 2A330000 		.4byte	0x332a
 9566 2aa9 BA2A0000 		.4byte	0x2aba
 9567 2aad 2A       		.uleb128 0x2a
 9568 2aae 01       		.uleb128 0x1
 9569 2aaf 50       		.byte	0x50
 9570 2ab0 02       		.uleb128 0x2
 9571 2ab1 75       		.byte	0x75
 9572 2ab2 00       		.sleb128 0
 9573 2ab3 2A       		.uleb128 0x2a
 9574 2ab4 01       		.uleb128 0x1
 9575 2ab5 51       		.byte	0x51
 9576 2ab6 02       		.uleb128 0x2
ARM GAS  /tmp/ccOR9P9P.s 			page 169


 9577 2ab7 76       		.byte	0x76
 9578 2ab8 00       		.sleb128 0
 9579 2ab9 00       		.byte	0
 9580 2aba 29       		.uleb128 0x29
 9581 2abb CC000000 		.4byte	.LVL15
 9582 2abf 2A330000 		.4byte	0x332a
 9583 2ac3 D42A0000 		.4byte	0x2ad4
 9584 2ac7 2A       		.uleb128 0x2a
 9585 2ac8 01       		.uleb128 0x1
 9586 2ac9 50       		.byte	0x50
 9587 2aca 02       		.uleb128 0x2
 9588 2acb 75       		.byte	0x75
 9589 2acc 00       		.sleb128 0
 9590 2acd 2A       		.uleb128 0x2a
 9591 2ace 01       		.uleb128 0x1
 9592 2acf 51       		.byte	0x51
 9593 2ad0 02       		.uleb128 0x2
 9594 2ad1 76       		.byte	0x76
 9595 2ad2 00       		.sleb128 0
 9596 2ad3 00       		.byte	0
 9597 2ad4 29       		.uleb128 0x29
 9598 2ad5 D8000000 		.4byte	.LVL16
 9599 2ad9 2A330000 		.4byte	0x332a
 9600 2add EE2A0000 		.4byte	0x2aee
 9601 2ae1 2A       		.uleb128 0x2a
 9602 2ae2 01       		.uleb128 0x1
 9603 2ae3 50       		.byte	0x50
 9604 2ae4 02       		.uleb128 0x2
 9605 2ae5 75       		.byte	0x75
 9606 2ae6 00       		.sleb128 0
 9607 2ae7 2A       		.uleb128 0x2a
 9608 2ae8 01       		.uleb128 0x1
 9609 2ae9 51       		.byte	0x51
 9610 2aea 02       		.uleb128 0x2
 9611 2aeb 76       		.byte	0x76
 9612 2aec 00       		.sleb128 0
 9613 2aed 00       		.byte	0
 9614 2aee 29       		.uleb128 0x29
 9615 2aef F0000000 		.4byte	.LVL17
 9616 2af3 2A330000 		.4byte	0x332a
 9617 2af7 082B0000 		.4byte	0x2b08
 9618 2afb 2A       		.uleb128 0x2a
 9619 2afc 01       		.uleb128 0x1
 9620 2afd 50       		.byte	0x50
 9621 2afe 02       		.uleb128 0x2
 9622 2aff 75       		.byte	0x75
 9623 2b00 00       		.sleb128 0
 9624 2b01 2A       		.uleb128 0x2a
 9625 2b02 01       		.uleb128 0x1
 9626 2b03 51       		.byte	0x51
 9627 2b04 02       		.uleb128 0x2
 9628 2b05 76       		.byte	0x76
 9629 2b06 00       		.sleb128 0
 9630 2b07 00       		.byte	0
 9631 2b08 29       		.uleb128 0x29
 9632 2b09 FC000000 		.4byte	.LVL18
 9633 2b0d 2A330000 		.4byte	0x332a
ARM GAS  /tmp/ccOR9P9P.s 			page 170


 9634 2b11 222B0000 		.4byte	0x2b22
 9635 2b15 2A       		.uleb128 0x2a
 9636 2b16 01       		.uleb128 0x1
 9637 2b17 50       		.byte	0x50
 9638 2b18 02       		.uleb128 0x2
 9639 2b19 75       		.byte	0x75
 9640 2b1a 00       		.sleb128 0
 9641 2b1b 2A       		.uleb128 0x2a
 9642 2b1c 01       		.uleb128 0x1
 9643 2b1d 51       		.byte	0x51
 9644 2b1e 02       		.uleb128 0x2
 9645 2b1f 76       		.byte	0x76
 9646 2b20 00       		.sleb128 0
 9647 2b21 00       		.byte	0
 9648 2b22 29       		.uleb128 0x29
 9649 2b23 08010000 		.4byte	.LVL19
 9650 2b27 2A330000 		.4byte	0x332a
 9651 2b2b 3C2B0000 		.4byte	0x2b3c
 9652 2b2f 2A       		.uleb128 0x2a
 9653 2b30 01       		.uleb128 0x1
 9654 2b31 50       		.byte	0x50
 9655 2b32 02       		.uleb128 0x2
 9656 2b33 75       		.byte	0x75
 9657 2b34 00       		.sleb128 0
 9658 2b35 2A       		.uleb128 0x2a
 9659 2b36 01       		.uleb128 0x1
 9660 2b37 51       		.byte	0x51
 9661 2b38 02       		.uleb128 0x2
 9662 2b39 76       		.byte	0x76
 9663 2b3a 00       		.sleb128 0
 9664 2b3b 00       		.byte	0
 9665 2b3c 29       		.uleb128 0x29
 9666 2b3d 14010000 		.4byte	.LVL20
 9667 2b41 2A330000 		.4byte	0x332a
 9668 2b45 562B0000 		.4byte	0x2b56
 9669 2b49 2A       		.uleb128 0x2a
 9670 2b4a 01       		.uleb128 0x1
 9671 2b4b 50       		.byte	0x50
 9672 2b4c 02       		.uleb128 0x2
 9673 2b4d 75       		.byte	0x75
 9674 2b4e 00       		.sleb128 0
 9675 2b4f 2A       		.uleb128 0x2a
 9676 2b50 01       		.uleb128 0x1
 9677 2b51 51       		.byte	0x51
 9678 2b52 02       		.uleb128 0x2
 9679 2b53 76       		.byte	0x76
 9680 2b54 00       		.sleb128 0
 9681 2b55 00       		.byte	0
 9682 2b56 29       		.uleb128 0x29
 9683 2b57 20010000 		.4byte	.LVL21
 9684 2b5b 2A330000 		.4byte	0x332a
 9685 2b5f 702B0000 		.4byte	0x2b70
 9686 2b63 2A       		.uleb128 0x2a
 9687 2b64 01       		.uleb128 0x1
 9688 2b65 50       		.byte	0x50
 9689 2b66 02       		.uleb128 0x2
 9690 2b67 75       		.byte	0x75
ARM GAS  /tmp/ccOR9P9P.s 			page 171


 9691 2b68 00       		.sleb128 0
 9692 2b69 2A       		.uleb128 0x2a
 9693 2b6a 01       		.uleb128 0x1
 9694 2b6b 51       		.byte	0x51
 9695 2b6c 02       		.uleb128 0x2
 9696 2b6d 76       		.byte	0x76
 9697 2b6e 00       		.sleb128 0
 9698 2b6f 00       		.byte	0
 9699 2b70 29       		.uleb128 0x29
 9700 2b71 2C010000 		.4byte	.LVL22
 9701 2b75 2A330000 		.4byte	0x332a
 9702 2b79 8A2B0000 		.4byte	0x2b8a
 9703 2b7d 2A       		.uleb128 0x2a
 9704 2b7e 01       		.uleb128 0x1
 9705 2b7f 50       		.byte	0x50
 9706 2b80 02       		.uleb128 0x2
 9707 2b81 75       		.byte	0x75
 9708 2b82 00       		.sleb128 0
 9709 2b83 2A       		.uleb128 0x2a
 9710 2b84 01       		.uleb128 0x1
 9711 2b85 51       		.byte	0x51
 9712 2b86 02       		.uleb128 0x2
 9713 2b87 76       		.byte	0x76
 9714 2b88 00       		.sleb128 0
 9715 2b89 00       		.byte	0
 9716 2b8a 29       		.uleb128 0x29
 9717 2b8b 38010000 		.4byte	.LVL23
 9718 2b8f 2A330000 		.4byte	0x332a
 9719 2b93 A42B0000 		.4byte	0x2ba4
 9720 2b97 2A       		.uleb128 0x2a
 9721 2b98 01       		.uleb128 0x1
 9722 2b99 50       		.byte	0x50
 9723 2b9a 02       		.uleb128 0x2
 9724 2b9b 75       		.byte	0x75
 9725 2b9c 00       		.sleb128 0
 9726 2b9d 2A       		.uleb128 0x2a
 9727 2b9e 01       		.uleb128 0x1
 9728 2b9f 51       		.byte	0x51
 9729 2ba0 02       		.uleb128 0x2
 9730 2ba1 76       		.byte	0x76
 9731 2ba2 00       		.sleb128 0
 9732 2ba3 00       		.byte	0
 9733 2ba4 29       		.uleb128 0x29
 9734 2ba5 44010000 		.4byte	.LVL24
 9735 2ba9 2A330000 		.4byte	0x332a
 9736 2bad BE2B0000 		.4byte	0x2bbe
 9737 2bb1 2A       		.uleb128 0x2a
 9738 2bb2 01       		.uleb128 0x1
 9739 2bb3 50       		.byte	0x50
 9740 2bb4 02       		.uleb128 0x2
 9741 2bb5 75       		.byte	0x75
 9742 2bb6 00       		.sleb128 0
 9743 2bb7 2A       		.uleb128 0x2a
 9744 2bb8 01       		.uleb128 0x1
 9745 2bb9 51       		.byte	0x51
 9746 2bba 02       		.uleb128 0x2
 9747 2bbb 76       		.byte	0x76
ARM GAS  /tmp/ccOR9P9P.s 			page 172


 9748 2bbc 00       		.sleb128 0
 9749 2bbd 00       		.byte	0
 9750 2bbe 29       		.uleb128 0x29
 9751 2bbf 50010000 		.4byte	.LVL25
 9752 2bc3 2A330000 		.4byte	0x332a
 9753 2bc7 D82B0000 		.4byte	0x2bd8
 9754 2bcb 2A       		.uleb128 0x2a
 9755 2bcc 01       		.uleb128 0x1
 9756 2bcd 50       		.byte	0x50
 9757 2bce 02       		.uleb128 0x2
 9758 2bcf 75       		.byte	0x75
 9759 2bd0 00       		.sleb128 0
 9760 2bd1 2A       		.uleb128 0x2a
 9761 2bd2 01       		.uleb128 0x1
 9762 2bd3 51       		.byte	0x51
 9763 2bd4 02       		.uleb128 0x2
 9764 2bd5 76       		.byte	0x76
 9765 2bd6 00       		.sleb128 0
 9766 2bd7 00       		.byte	0
 9767 2bd8 29       		.uleb128 0x29
 9768 2bd9 5C010000 		.4byte	.LVL26
 9769 2bdd 2A330000 		.4byte	0x332a
 9770 2be1 F22B0000 		.4byte	0x2bf2
 9771 2be5 2A       		.uleb128 0x2a
 9772 2be6 01       		.uleb128 0x1
 9773 2be7 50       		.byte	0x50
 9774 2be8 02       		.uleb128 0x2
 9775 2be9 75       		.byte	0x75
 9776 2bea 00       		.sleb128 0
 9777 2beb 2A       		.uleb128 0x2a
 9778 2bec 01       		.uleb128 0x1
 9779 2bed 51       		.byte	0x51
 9780 2bee 02       		.uleb128 0x2
 9781 2bef 76       		.byte	0x76
 9782 2bf0 00       		.sleb128 0
 9783 2bf1 00       		.byte	0
 9784 2bf2 29       		.uleb128 0x29
 9785 2bf3 68010000 		.4byte	.LVL27
 9786 2bf7 2A330000 		.4byte	0x332a
 9787 2bfb 0C2C0000 		.4byte	0x2c0c
 9788 2bff 2A       		.uleb128 0x2a
 9789 2c00 01       		.uleb128 0x1
 9790 2c01 50       		.byte	0x50
 9791 2c02 02       		.uleb128 0x2
 9792 2c03 75       		.byte	0x75
 9793 2c04 00       		.sleb128 0
 9794 2c05 2A       		.uleb128 0x2a
 9795 2c06 01       		.uleb128 0x1
 9796 2c07 51       		.byte	0x51
 9797 2c08 02       		.uleb128 0x2
 9798 2c09 76       		.byte	0x76
 9799 2c0a 00       		.sleb128 0
 9800 2c0b 00       		.byte	0
 9801 2c0c 29       		.uleb128 0x29
 9802 2c0d 74010000 		.4byte	.LVL28
 9803 2c11 2A330000 		.4byte	0x332a
 9804 2c15 262C0000 		.4byte	0x2c26
ARM GAS  /tmp/ccOR9P9P.s 			page 173


 9805 2c19 2A       		.uleb128 0x2a
 9806 2c1a 01       		.uleb128 0x1
 9807 2c1b 50       		.byte	0x50
 9808 2c1c 02       		.uleb128 0x2
 9809 2c1d 75       		.byte	0x75
 9810 2c1e 00       		.sleb128 0
 9811 2c1f 2A       		.uleb128 0x2a
 9812 2c20 01       		.uleb128 0x1
 9813 2c21 51       		.byte	0x51
 9814 2c22 02       		.uleb128 0x2
 9815 2c23 76       		.byte	0x76
 9816 2c24 00       		.sleb128 0
 9817 2c25 00       		.byte	0
 9818 2c26 29       		.uleb128 0x29
 9819 2c27 80010000 		.4byte	.LVL29
 9820 2c2b 2A330000 		.4byte	0x332a
 9821 2c2f 402C0000 		.4byte	0x2c40
 9822 2c33 2A       		.uleb128 0x2a
 9823 2c34 01       		.uleb128 0x1
 9824 2c35 50       		.byte	0x50
 9825 2c36 02       		.uleb128 0x2
 9826 2c37 75       		.byte	0x75
 9827 2c38 00       		.sleb128 0
 9828 2c39 2A       		.uleb128 0x2a
 9829 2c3a 01       		.uleb128 0x1
 9830 2c3b 51       		.byte	0x51
 9831 2c3c 02       		.uleb128 0x2
 9832 2c3d 76       		.byte	0x76
 9833 2c3e 00       		.sleb128 0
 9834 2c3f 00       		.byte	0
 9835 2c40 29       		.uleb128 0x29
 9836 2c41 8C010000 		.4byte	.LVL30
 9837 2c45 2A330000 		.4byte	0x332a
 9838 2c49 5A2C0000 		.4byte	0x2c5a
 9839 2c4d 2A       		.uleb128 0x2a
 9840 2c4e 01       		.uleb128 0x1
 9841 2c4f 50       		.byte	0x50
 9842 2c50 02       		.uleb128 0x2
 9843 2c51 75       		.byte	0x75
 9844 2c52 00       		.sleb128 0
 9845 2c53 2A       		.uleb128 0x2a
 9846 2c54 01       		.uleb128 0x1
 9847 2c55 51       		.byte	0x51
 9848 2c56 02       		.uleb128 0x2
 9849 2c57 76       		.byte	0x76
 9850 2c58 00       		.sleb128 0
 9851 2c59 00       		.byte	0
 9852 2c5a 29       		.uleb128 0x29
 9853 2c5b 98010000 		.4byte	.LVL31
 9854 2c5f 2A330000 		.4byte	0x332a
 9855 2c63 742C0000 		.4byte	0x2c74
 9856 2c67 2A       		.uleb128 0x2a
 9857 2c68 01       		.uleb128 0x1
 9858 2c69 50       		.byte	0x50
 9859 2c6a 02       		.uleb128 0x2
 9860 2c6b 75       		.byte	0x75
 9861 2c6c 00       		.sleb128 0
ARM GAS  /tmp/ccOR9P9P.s 			page 174


 9862 2c6d 2A       		.uleb128 0x2a
 9863 2c6e 01       		.uleb128 0x1
 9864 2c6f 51       		.byte	0x51
 9865 2c70 02       		.uleb128 0x2
 9866 2c71 76       		.byte	0x76
 9867 2c72 00       		.sleb128 0
 9868 2c73 00       		.byte	0
 9869 2c74 29       		.uleb128 0x29
 9870 2c75 A4010000 		.4byte	.LVL32
 9871 2c79 2A330000 		.4byte	0x332a
 9872 2c7d 8E2C0000 		.4byte	0x2c8e
 9873 2c81 2A       		.uleb128 0x2a
 9874 2c82 01       		.uleb128 0x1
 9875 2c83 50       		.byte	0x50
 9876 2c84 02       		.uleb128 0x2
 9877 2c85 75       		.byte	0x75
 9878 2c86 00       		.sleb128 0
 9879 2c87 2A       		.uleb128 0x2a
 9880 2c88 01       		.uleb128 0x1
 9881 2c89 51       		.byte	0x51
 9882 2c8a 02       		.uleb128 0x2
 9883 2c8b 76       		.byte	0x76
 9884 2c8c 00       		.sleb128 0
 9885 2c8d 00       		.byte	0
 9886 2c8e 29       		.uleb128 0x29
 9887 2c8f B0010000 		.4byte	.LVL33
 9888 2c93 2A330000 		.4byte	0x332a
 9889 2c97 A82C0000 		.4byte	0x2ca8
 9890 2c9b 2A       		.uleb128 0x2a
 9891 2c9c 01       		.uleb128 0x1
 9892 2c9d 50       		.byte	0x50
 9893 2c9e 02       		.uleb128 0x2
 9894 2c9f 75       		.byte	0x75
 9895 2ca0 00       		.sleb128 0
 9896 2ca1 2A       		.uleb128 0x2a
 9897 2ca2 01       		.uleb128 0x1
 9898 2ca3 51       		.byte	0x51
 9899 2ca4 02       		.uleb128 0x2
 9900 2ca5 76       		.byte	0x76
 9901 2ca6 00       		.sleb128 0
 9902 2ca7 00       		.byte	0
 9903 2ca8 29       		.uleb128 0x29
 9904 2ca9 BC010000 		.4byte	.LVL34
 9905 2cad 2A330000 		.4byte	0x332a
 9906 2cb1 C22C0000 		.4byte	0x2cc2
 9907 2cb5 2A       		.uleb128 0x2a
 9908 2cb6 01       		.uleb128 0x1
 9909 2cb7 50       		.byte	0x50
 9910 2cb8 02       		.uleb128 0x2
 9911 2cb9 75       		.byte	0x75
 9912 2cba 00       		.sleb128 0
 9913 2cbb 2A       		.uleb128 0x2a
 9914 2cbc 01       		.uleb128 0x1
 9915 2cbd 51       		.byte	0x51
 9916 2cbe 02       		.uleb128 0x2
 9917 2cbf 76       		.byte	0x76
 9918 2cc0 00       		.sleb128 0
ARM GAS  /tmp/ccOR9P9P.s 			page 175


 9919 2cc1 00       		.byte	0
 9920 2cc2 29       		.uleb128 0x29
 9921 2cc3 00020000 		.4byte	.LVL35
 9922 2cc7 2A330000 		.4byte	0x332a
 9923 2ccb DC2C0000 		.4byte	0x2cdc
 9924 2ccf 2A       		.uleb128 0x2a
 9925 2cd0 01       		.uleb128 0x1
 9926 2cd1 50       		.byte	0x50
 9927 2cd2 02       		.uleb128 0x2
 9928 2cd3 75       		.byte	0x75
 9929 2cd4 00       		.sleb128 0
 9930 2cd5 2A       		.uleb128 0x2a
 9931 2cd6 01       		.uleb128 0x1
 9932 2cd7 51       		.byte	0x51
 9933 2cd8 02       		.uleb128 0x2
 9934 2cd9 76       		.byte	0x76
 9935 2cda 00       		.sleb128 0
 9936 2cdb 00       		.byte	0
 9937 2cdc 29       		.uleb128 0x29
 9938 2cdd 0C020000 		.4byte	.LVL36
 9939 2ce1 2A330000 		.4byte	0x332a
 9940 2ce5 F62C0000 		.4byte	0x2cf6
 9941 2ce9 2A       		.uleb128 0x2a
 9942 2cea 01       		.uleb128 0x1
 9943 2ceb 50       		.byte	0x50
 9944 2cec 02       		.uleb128 0x2
 9945 2ced 75       		.byte	0x75
 9946 2cee 00       		.sleb128 0
 9947 2cef 2A       		.uleb128 0x2a
 9948 2cf0 01       		.uleb128 0x1
 9949 2cf1 51       		.byte	0x51
 9950 2cf2 02       		.uleb128 0x2
 9951 2cf3 76       		.byte	0x76
 9952 2cf4 00       		.sleb128 0
 9953 2cf5 00       		.byte	0
 9954 2cf6 29       		.uleb128 0x29
 9955 2cf7 18020000 		.4byte	.LVL37
 9956 2cfb 2A330000 		.4byte	0x332a
 9957 2cff 102D0000 		.4byte	0x2d10
 9958 2d03 2A       		.uleb128 0x2a
 9959 2d04 01       		.uleb128 0x1
 9960 2d05 50       		.byte	0x50
 9961 2d06 02       		.uleb128 0x2
 9962 2d07 75       		.byte	0x75
 9963 2d08 00       		.sleb128 0
 9964 2d09 2A       		.uleb128 0x2a
 9965 2d0a 01       		.uleb128 0x1
 9966 2d0b 51       		.byte	0x51
 9967 2d0c 02       		.uleb128 0x2
 9968 2d0d 76       		.byte	0x76
 9969 2d0e 00       		.sleb128 0
 9970 2d0f 00       		.byte	0
 9971 2d10 29       		.uleb128 0x29
 9972 2d11 24020000 		.4byte	.LVL38
 9973 2d15 2A330000 		.4byte	0x332a
 9974 2d19 2A2D0000 		.4byte	0x2d2a
 9975 2d1d 2A       		.uleb128 0x2a
ARM GAS  /tmp/ccOR9P9P.s 			page 176


 9976 2d1e 01       		.uleb128 0x1
 9977 2d1f 50       		.byte	0x50
 9978 2d20 02       		.uleb128 0x2
 9979 2d21 75       		.byte	0x75
 9980 2d22 00       		.sleb128 0
 9981 2d23 2A       		.uleb128 0x2a
 9982 2d24 01       		.uleb128 0x1
 9983 2d25 51       		.byte	0x51
 9984 2d26 02       		.uleb128 0x2
 9985 2d27 76       		.byte	0x76
 9986 2d28 00       		.sleb128 0
 9987 2d29 00       		.byte	0
 9988 2d2a 29       		.uleb128 0x29
 9989 2d2b 30020000 		.4byte	.LVL39
 9990 2d2f 2A330000 		.4byte	0x332a
 9991 2d33 442D0000 		.4byte	0x2d44
 9992 2d37 2A       		.uleb128 0x2a
 9993 2d38 01       		.uleb128 0x1
 9994 2d39 50       		.byte	0x50
 9995 2d3a 02       		.uleb128 0x2
 9996 2d3b 75       		.byte	0x75
 9997 2d3c 00       		.sleb128 0
 9998 2d3d 2A       		.uleb128 0x2a
 9999 2d3e 01       		.uleb128 0x1
 10000 2d3f 51       		.byte	0x51
 10001 2d40 02       		.uleb128 0x2
 10002 2d41 76       		.byte	0x76
 10003 2d42 00       		.sleb128 0
 10004 2d43 00       		.byte	0
 10005 2d44 29       		.uleb128 0x29
 10006 2d45 48020000 		.4byte	.LVL40
 10007 2d49 2A330000 		.4byte	0x332a
 10008 2d4d 5E2D0000 		.4byte	0x2d5e
 10009 2d51 2A       		.uleb128 0x2a
 10010 2d52 01       		.uleb128 0x1
 10011 2d53 50       		.byte	0x50
 10012 2d54 02       		.uleb128 0x2
 10013 2d55 75       		.byte	0x75
 10014 2d56 00       		.sleb128 0
 10015 2d57 2A       		.uleb128 0x2a
 10016 2d58 01       		.uleb128 0x1
 10017 2d59 51       		.byte	0x51
 10018 2d5a 02       		.uleb128 0x2
 10019 2d5b 76       		.byte	0x76
 10020 2d5c 00       		.sleb128 0
 10021 2d5d 00       		.byte	0
 10022 2d5e 29       		.uleb128 0x29
 10023 2d5f 54020000 		.4byte	.LVL41
 10024 2d63 2A330000 		.4byte	0x332a
 10025 2d67 782D0000 		.4byte	0x2d78
 10026 2d6b 2A       		.uleb128 0x2a
 10027 2d6c 01       		.uleb128 0x1
 10028 2d6d 50       		.byte	0x50
 10029 2d6e 02       		.uleb128 0x2
 10030 2d6f 75       		.byte	0x75
 10031 2d70 00       		.sleb128 0
 10032 2d71 2A       		.uleb128 0x2a
ARM GAS  /tmp/ccOR9P9P.s 			page 177


 10033 2d72 01       		.uleb128 0x1
 10034 2d73 51       		.byte	0x51
 10035 2d74 02       		.uleb128 0x2
 10036 2d75 76       		.byte	0x76
 10037 2d76 00       		.sleb128 0
 10038 2d77 00       		.byte	0
 10039 2d78 29       		.uleb128 0x29
 10040 2d79 60020000 		.4byte	.LVL42
 10041 2d7d 2A330000 		.4byte	0x332a
 10042 2d81 922D0000 		.4byte	0x2d92
 10043 2d85 2A       		.uleb128 0x2a
 10044 2d86 01       		.uleb128 0x1
 10045 2d87 50       		.byte	0x50
 10046 2d88 02       		.uleb128 0x2
 10047 2d89 75       		.byte	0x75
 10048 2d8a 00       		.sleb128 0
 10049 2d8b 2A       		.uleb128 0x2a
 10050 2d8c 01       		.uleb128 0x1
 10051 2d8d 51       		.byte	0x51
 10052 2d8e 02       		.uleb128 0x2
 10053 2d8f 76       		.byte	0x76
 10054 2d90 00       		.sleb128 0
 10055 2d91 00       		.byte	0
 10056 2d92 29       		.uleb128 0x29
 10057 2d93 6C020000 		.4byte	.LVL43
 10058 2d97 2A330000 		.4byte	0x332a
 10059 2d9b AC2D0000 		.4byte	0x2dac
 10060 2d9f 2A       		.uleb128 0x2a
 10061 2da0 01       		.uleb128 0x1
 10062 2da1 50       		.byte	0x50
 10063 2da2 02       		.uleb128 0x2
 10064 2da3 75       		.byte	0x75
 10065 2da4 00       		.sleb128 0
 10066 2da5 2A       		.uleb128 0x2a
 10067 2da6 01       		.uleb128 0x1
 10068 2da7 51       		.byte	0x51
 10069 2da8 02       		.uleb128 0x2
 10070 2da9 76       		.byte	0x76
 10071 2daa 00       		.sleb128 0
 10072 2dab 00       		.byte	0
 10073 2dac 29       		.uleb128 0x29
 10074 2dad 78020000 		.4byte	.LVL44
 10075 2db1 2A330000 		.4byte	0x332a
 10076 2db5 C62D0000 		.4byte	0x2dc6
 10077 2db9 2A       		.uleb128 0x2a
 10078 2dba 01       		.uleb128 0x1
 10079 2dbb 50       		.byte	0x50
 10080 2dbc 02       		.uleb128 0x2
 10081 2dbd 75       		.byte	0x75
 10082 2dbe 00       		.sleb128 0
 10083 2dbf 2A       		.uleb128 0x2a
 10084 2dc0 01       		.uleb128 0x1
 10085 2dc1 51       		.byte	0x51
 10086 2dc2 02       		.uleb128 0x2
 10087 2dc3 76       		.byte	0x76
 10088 2dc4 00       		.sleb128 0
 10089 2dc5 00       		.byte	0
ARM GAS  /tmp/ccOR9P9P.s 			page 178


 10090 2dc6 29       		.uleb128 0x29
 10091 2dc7 84020000 		.4byte	.LVL45
 10092 2dcb 2A330000 		.4byte	0x332a
 10093 2dcf E02D0000 		.4byte	0x2de0
 10094 2dd3 2A       		.uleb128 0x2a
 10095 2dd4 01       		.uleb128 0x1
 10096 2dd5 50       		.byte	0x50
 10097 2dd6 02       		.uleb128 0x2
 10098 2dd7 75       		.byte	0x75
 10099 2dd8 00       		.sleb128 0
 10100 2dd9 2A       		.uleb128 0x2a
 10101 2dda 01       		.uleb128 0x1
 10102 2ddb 51       		.byte	0x51
 10103 2ddc 02       		.uleb128 0x2
 10104 2ddd 76       		.byte	0x76
 10105 2dde 00       		.sleb128 0
 10106 2ddf 00       		.byte	0
 10107 2de0 29       		.uleb128 0x29
 10108 2de1 90020000 		.4byte	.LVL46
 10109 2de5 2A330000 		.4byte	0x332a
 10110 2de9 FA2D0000 		.4byte	0x2dfa
 10111 2ded 2A       		.uleb128 0x2a
 10112 2dee 01       		.uleb128 0x1
 10113 2def 50       		.byte	0x50
 10114 2df0 02       		.uleb128 0x2
 10115 2df1 75       		.byte	0x75
 10116 2df2 00       		.sleb128 0
 10117 2df3 2A       		.uleb128 0x2a
 10118 2df4 01       		.uleb128 0x1
 10119 2df5 51       		.byte	0x51
 10120 2df6 02       		.uleb128 0x2
 10121 2df7 76       		.byte	0x76
 10122 2df8 00       		.sleb128 0
 10123 2df9 00       		.byte	0
 10124 2dfa 29       		.uleb128 0x29
 10125 2dfb A8020000 		.4byte	.LVL47
 10126 2dff 2A330000 		.4byte	0x332a
 10127 2e03 142E0000 		.4byte	0x2e14
 10128 2e07 2A       		.uleb128 0x2a
 10129 2e08 01       		.uleb128 0x1
 10130 2e09 50       		.byte	0x50
 10131 2e0a 02       		.uleb128 0x2
 10132 2e0b 75       		.byte	0x75
 10133 2e0c 00       		.sleb128 0
 10134 2e0d 2A       		.uleb128 0x2a
 10135 2e0e 01       		.uleb128 0x1
 10136 2e0f 51       		.byte	0x51
 10137 2e10 02       		.uleb128 0x2
 10138 2e11 76       		.byte	0x76
 10139 2e12 00       		.sleb128 0
 10140 2e13 00       		.byte	0
 10141 2e14 29       		.uleb128 0x29
 10142 2e15 B4020000 		.4byte	.LVL48
 10143 2e19 2A330000 		.4byte	0x332a
 10144 2e1d 2E2E0000 		.4byte	0x2e2e
 10145 2e21 2A       		.uleb128 0x2a
 10146 2e22 01       		.uleb128 0x1
ARM GAS  /tmp/ccOR9P9P.s 			page 179


 10147 2e23 50       		.byte	0x50
 10148 2e24 02       		.uleb128 0x2
 10149 2e25 75       		.byte	0x75
 10150 2e26 00       		.sleb128 0
 10151 2e27 2A       		.uleb128 0x2a
 10152 2e28 01       		.uleb128 0x1
 10153 2e29 51       		.byte	0x51
 10154 2e2a 02       		.uleb128 0x2
 10155 2e2b 76       		.byte	0x76
 10156 2e2c 00       		.sleb128 0
 10157 2e2d 00       		.byte	0
 10158 2e2e 29       		.uleb128 0x29
 10159 2e2f C0020000 		.4byte	.LVL49
 10160 2e33 2A330000 		.4byte	0x332a
 10161 2e37 482E0000 		.4byte	0x2e48
 10162 2e3b 2A       		.uleb128 0x2a
 10163 2e3c 01       		.uleb128 0x1
 10164 2e3d 50       		.byte	0x50
 10165 2e3e 02       		.uleb128 0x2
 10166 2e3f 75       		.byte	0x75
 10167 2e40 00       		.sleb128 0
 10168 2e41 2A       		.uleb128 0x2a
 10169 2e42 01       		.uleb128 0x1
 10170 2e43 51       		.byte	0x51
 10171 2e44 02       		.uleb128 0x2
 10172 2e45 76       		.byte	0x76
 10173 2e46 00       		.sleb128 0
 10174 2e47 00       		.byte	0
 10175 2e48 29       		.uleb128 0x29
 10176 2e49 CC020000 		.4byte	.LVL50
 10177 2e4d 2A330000 		.4byte	0x332a
 10178 2e51 622E0000 		.4byte	0x2e62
 10179 2e55 2A       		.uleb128 0x2a
 10180 2e56 01       		.uleb128 0x1
 10181 2e57 50       		.byte	0x50
 10182 2e58 02       		.uleb128 0x2
 10183 2e59 75       		.byte	0x75
 10184 2e5a 00       		.sleb128 0
 10185 2e5b 2A       		.uleb128 0x2a
 10186 2e5c 01       		.uleb128 0x1
 10187 2e5d 51       		.byte	0x51
 10188 2e5e 02       		.uleb128 0x2
 10189 2e5f 76       		.byte	0x76
 10190 2e60 00       		.sleb128 0
 10191 2e61 00       		.byte	0
 10192 2e62 29       		.uleb128 0x29
 10193 2e63 D8020000 		.4byte	.LVL51
 10194 2e67 2A330000 		.4byte	0x332a
 10195 2e6b 7C2E0000 		.4byte	0x2e7c
 10196 2e6f 2A       		.uleb128 0x2a
 10197 2e70 01       		.uleb128 0x1
 10198 2e71 50       		.byte	0x50
 10199 2e72 02       		.uleb128 0x2
 10200 2e73 75       		.byte	0x75
 10201 2e74 00       		.sleb128 0
 10202 2e75 2A       		.uleb128 0x2a
 10203 2e76 01       		.uleb128 0x1
ARM GAS  /tmp/ccOR9P9P.s 			page 180


 10204 2e77 51       		.byte	0x51
 10205 2e78 02       		.uleb128 0x2
 10206 2e79 76       		.byte	0x76
 10207 2e7a 00       		.sleb128 0
 10208 2e7b 00       		.byte	0
 10209 2e7c 29       		.uleb128 0x29
 10210 2e7d E4020000 		.4byte	.LVL52
 10211 2e81 2A330000 		.4byte	0x332a
 10212 2e85 962E0000 		.4byte	0x2e96
 10213 2e89 2A       		.uleb128 0x2a
 10214 2e8a 01       		.uleb128 0x1
 10215 2e8b 50       		.byte	0x50
 10216 2e8c 02       		.uleb128 0x2
 10217 2e8d 75       		.byte	0x75
 10218 2e8e 00       		.sleb128 0
 10219 2e8f 2A       		.uleb128 0x2a
 10220 2e90 01       		.uleb128 0x1
 10221 2e91 51       		.byte	0x51
 10222 2e92 02       		.uleb128 0x2
 10223 2e93 76       		.byte	0x76
 10224 2e94 00       		.sleb128 0
 10225 2e95 00       		.byte	0
 10226 2e96 29       		.uleb128 0x29
 10227 2e97 F0020000 		.4byte	.LVL53
 10228 2e9b 2A330000 		.4byte	0x332a
 10229 2e9f B02E0000 		.4byte	0x2eb0
 10230 2ea3 2A       		.uleb128 0x2a
 10231 2ea4 01       		.uleb128 0x1
 10232 2ea5 50       		.byte	0x50
 10233 2ea6 02       		.uleb128 0x2
 10234 2ea7 75       		.byte	0x75
 10235 2ea8 00       		.sleb128 0
 10236 2ea9 2A       		.uleb128 0x2a
 10237 2eaa 01       		.uleb128 0x1
 10238 2eab 51       		.byte	0x51
 10239 2eac 02       		.uleb128 0x2
 10240 2ead 76       		.byte	0x76
 10241 2eae 00       		.sleb128 0
 10242 2eaf 00       		.byte	0
 10243 2eb0 29       		.uleb128 0x29
 10244 2eb1 FC020000 		.4byte	.LVL54
 10245 2eb5 2A330000 		.4byte	0x332a
 10246 2eb9 CA2E0000 		.4byte	0x2eca
 10247 2ebd 2A       		.uleb128 0x2a
 10248 2ebe 01       		.uleb128 0x1
 10249 2ebf 50       		.byte	0x50
 10250 2ec0 02       		.uleb128 0x2
 10251 2ec1 75       		.byte	0x75
 10252 2ec2 00       		.sleb128 0
 10253 2ec3 2A       		.uleb128 0x2a
 10254 2ec4 01       		.uleb128 0x1
 10255 2ec5 51       		.byte	0x51
 10256 2ec6 02       		.uleb128 0x2
 10257 2ec7 76       		.byte	0x76
 10258 2ec8 00       		.sleb128 0
 10259 2ec9 00       		.byte	0
 10260 2eca 29       		.uleb128 0x29
ARM GAS  /tmp/ccOR9P9P.s 			page 181


 10261 2ecb 08030000 		.4byte	.LVL55
 10262 2ecf 2A330000 		.4byte	0x332a
 10263 2ed3 E42E0000 		.4byte	0x2ee4
 10264 2ed7 2A       		.uleb128 0x2a
 10265 2ed8 01       		.uleb128 0x1
 10266 2ed9 50       		.byte	0x50
 10267 2eda 02       		.uleb128 0x2
 10268 2edb 75       		.byte	0x75
 10269 2edc 00       		.sleb128 0
 10270 2edd 2A       		.uleb128 0x2a
 10271 2ede 01       		.uleb128 0x1
 10272 2edf 51       		.byte	0x51
 10273 2ee0 02       		.uleb128 0x2
 10274 2ee1 76       		.byte	0x76
 10275 2ee2 00       		.sleb128 0
 10276 2ee3 00       		.byte	0
 10277 2ee4 29       		.uleb128 0x29
 10278 2ee5 14030000 		.4byte	.LVL56
 10279 2ee9 2A330000 		.4byte	0x332a
 10280 2eed FE2E0000 		.4byte	0x2efe
 10281 2ef1 2A       		.uleb128 0x2a
 10282 2ef2 01       		.uleb128 0x1
 10283 2ef3 50       		.byte	0x50
 10284 2ef4 02       		.uleb128 0x2
 10285 2ef5 75       		.byte	0x75
 10286 2ef6 00       		.sleb128 0
 10287 2ef7 2A       		.uleb128 0x2a
 10288 2ef8 01       		.uleb128 0x1
 10289 2ef9 51       		.byte	0x51
 10290 2efa 02       		.uleb128 0x2
 10291 2efb 76       		.byte	0x76
 10292 2efc 00       		.sleb128 0
 10293 2efd 00       		.byte	0
 10294 2efe 29       		.uleb128 0x29
 10295 2eff 20030000 		.4byte	.LVL57
 10296 2f03 2A330000 		.4byte	0x332a
 10297 2f07 182F0000 		.4byte	0x2f18
 10298 2f0b 2A       		.uleb128 0x2a
 10299 2f0c 01       		.uleb128 0x1
 10300 2f0d 50       		.byte	0x50
 10301 2f0e 02       		.uleb128 0x2
 10302 2f0f 75       		.byte	0x75
 10303 2f10 00       		.sleb128 0
 10304 2f11 2A       		.uleb128 0x2a
 10305 2f12 01       		.uleb128 0x1
 10306 2f13 51       		.byte	0x51
 10307 2f14 02       		.uleb128 0x2
 10308 2f15 76       		.byte	0x76
 10309 2f16 00       		.sleb128 0
 10310 2f17 00       		.byte	0
 10311 2f18 29       		.uleb128 0x29
 10312 2f19 2C030000 		.4byte	.LVL58
 10313 2f1d 2A330000 		.4byte	0x332a
 10314 2f21 322F0000 		.4byte	0x2f32
 10315 2f25 2A       		.uleb128 0x2a
 10316 2f26 01       		.uleb128 0x1
 10317 2f27 50       		.byte	0x50
ARM GAS  /tmp/ccOR9P9P.s 			page 182


 10318 2f28 02       		.uleb128 0x2
 10319 2f29 75       		.byte	0x75
 10320 2f2a 00       		.sleb128 0
 10321 2f2b 2A       		.uleb128 0x2a
 10322 2f2c 01       		.uleb128 0x1
 10323 2f2d 51       		.byte	0x51
 10324 2f2e 02       		.uleb128 0x2
 10325 2f2f 76       		.byte	0x76
 10326 2f30 00       		.sleb128 0
 10327 2f31 00       		.byte	0
 10328 2f32 29       		.uleb128 0x29
 10329 2f33 38030000 		.4byte	.LVL59
 10330 2f37 2A330000 		.4byte	0x332a
 10331 2f3b 4C2F0000 		.4byte	0x2f4c
 10332 2f3f 2A       		.uleb128 0x2a
 10333 2f40 01       		.uleb128 0x1
 10334 2f41 50       		.byte	0x50
 10335 2f42 02       		.uleb128 0x2
 10336 2f43 75       		.byte	0x75
 10337 2f44 00       		.sleb128 0
 10338 2f45 2A       		.uleb128 0x2a
 10339 2f46 01       		.uleb128 0x1
 10340 2f47 51       		.byte	0x51
 10341 2f48 02       		.uleb128 0x2
 10342 2f49 76       		.byte	0x76
 10343 2f4a 00       		.sleb128 0
 10344 2f4b 00       		.byte	0
 10345 2f4c 29       		.uleb128 0x29
 10346 2f4d 44030000 		.4byte	.LVL60
 10347 2f51 2A330000 		.4byte	0x332a
 10348 2f55 662F0000 		.4byte	0x2f66
 10349 2f59 2A       		.uleb128 0x2a
 10350 2f5a 01       		.uleb128 0x1
 10351 2f5b 50       		.byte	0x50
 10352 2f5c 02       		.uleb128 0x2
 10353 2f5d 75       		.byte	0x75
 10354 2f5e 00       		.sleb128 0
 10355 2f5f 2A       		.uleb128 0x2a
 10356 2f60 01       		.uleb128 0x1
 10357 2f61 51       		.byte	0x51
 10358 2f62 02       		.uleb128 0x2
 10359 2f63 76       		.byte	0x76
 10360 2f64 00       		.sleb128 0
 10361 2f65 00       		.byte	0
 10362 2f66 29       		.uleb128 0x29
 10363 2f67 88030000 		.4byte	.LVL61
 10364 2f6b 2A330000 		.4byte	0x332a
 10365 2f6f 802F0000 		.4byte	0x2f80
 10366 2f73 2A       		.uleb128 0x2a
 10367 2f74 01       		.uleb128 0x1
 10368 2f75 50       		.byte	0x50
 10369 2f76 02       		.uleb128 0x2
 10370 2f77 75       		.byte	0x75
 10371 2f78 00       		.sleb128 0
 10372 2f79 2A       		.uleb128 0x2a
 10373 2f7a 01       		.uleb128 0x1
 10374 2f7b 51       		.byte	0x51
ARM GAS  /tmp/ccOR9P9P.s 			page 183


 10375 2f7c 02       		.uleb128 0x2
 10376 2f7d 76       		.byte	0x76
 10377 2f7e 00       		.sleb128 0
 10378 2f7f 00       		.byte	0
 10379 2f80 29       		.uleb128 0x29
 10380 2f81 A8030000 		.4byte	.LVL62
 10381 2f85 2A330000 		.4byte	0x332a
 10382 2f89 9A2F0000 		.4byte	0x2f9a
 10383 2f8d 2A       		.uleb128 0x2a
 10384 2f8e 01       		.uleb128 0x1
 10385 2f8f 50       		.byte	0x50
 10386 2f90 02       		.uleb128 0x2
 10387 2f91 75       		.byte	0x75
 10388 2f92 00       		.sleb128 0
 10389 2f93 2A       		.uleb128 0x2a
 10390 2f94 01       		.uleb128 0x1
 10391 2f95 51       		.byte	0x51
 10392 2f96 02       		.uleb128 0x2
 10393 2f97 76       		.byte	0x76
 10394 2f98 00       		.sleb128 0
 10395 2f99 00       		.byte	0
 10396 2f9a 29       		.uleb128 0x29
 10397 2f9b C0030000 		.4byte	.LVL63
 10398 2f9f 2A330000 		.4byte	0x332a
 10399 2fa3 B42F0000 		.4byte	0x2fb4
 10400 2fa7 2A       		.uleb128 0x2a
 10401 2fa8 01       		.uleb128 0x1
 10402 2fa9 50       		.byte	0x50
 10403 2faa 02       		.uleb128 0x2
 10404 2fab 75       		.byte	0x75
 10405 2fac 00       		.sleb128 0
 10406 2fad 2A       		.uleb128 0x2a
 10407 2fae 01       		.uleb128 0x1
 10408 2faf 51       		.byte	0x51
 10409 2fb0 02       		.uleb128 0x2
 10410 2fb1 76       		.byte	0x76
 10411 2fb2 00       		.sleb128 0
 10412 2fb3 00       		.byte	0
 10413 2fb4 29       		.uleb128 0x29
 10414 2fb5 CC030000 		.4byte	.LVL64
 10415 2fb9 2A330000 		.4byte	0x332a
 10416 2fbd CE2F0000 		.4byte	0x2fce
 10417 2fc1 2A       		.uleb128 0x2a
 10418 2fc2 01       		.uleb128 0x1
 10419 2fc3 50       		.byte	0x50
 10420 2fc4 02       		.uleb128 0x2
 10421 2fc5 75       		.byte	0x75
 10422 2fc6 00       		.sleb128 0
 10423 2fc7 2A       		.uleb128 0x2a
 10424 2fc8 01       		.uleb128 0x1
 10425 2fc9 51       		.byte	0x51
 10426 2fca 02       		.uleb128 0x2
 10427 2fcb 76       		.byte	0x76
 10428 2fcc 00       		.sleb128 0
 10429 2fcd 00       		.byte	0
 10430 2fce 29       		.uleb128 0x29
 10431 2fcf D8030000 		.4byte	.LVL65
ARM GAS  /tmp/ccOR9P9P.s 			page 184


 10432 2fd3 40330000 		.4byte	0x3340
 10433 2fd7 E82F0000 		.4byte	0x2fe8
 10434 2fdb 2A       		.uleb128 0x2a
 10435 2fdc 01       		.uleb128 0x1
 10436 2fdd 50       		.byte	0x50
 10437 2fde 02       		.uleb128 0x2
 10438 2fdf 75       		.byte	0x75
 10439 2fe0 00       		.sleb128 0
 10440 2fe1 2A       		.uleb128 0x2a
 10441 2fe2 01       		.uleb128 0x1
 10442 2fe3 52       		.byte	0x52
 10443 2fe4 02       		.uleb128 0x2
 10444 2fe5 76       		.byte	0x76
 10445 2fe6 00       		.sleb128 0
 10446 2fe7 00       		.byte	0
 10447 2fe8 29       		.uleb128 0x29
 10448 2fe9 EA030000 		.4byte	.LVL66
 10449 2fed 40330000 		.4byte	0x3340
 10450 2ff1 02300000 		.4byte	0x3002
 10451 2ff5 2A       		.uleb128 0x2a
 10452 2ff6 01       		.uleb128 0x1
 10453 2ff7 50       		.byte	0x50
 10454 2ff8 02       		.uleb128 0x2
 10455 2ff9 75       		.byte	0x75
 10456 2ffa 00       		.sleb128 0
 10457 2ffb 2A       		.uleb128 0x2a
 10458 2ffc 01       		.uleb128 0x1
 10459 2ffd 52       		.byte	0x52
 10460 2ffe 02       		.uleb128 0x2
 10461 2fff 76       		.byte	0x76
 10462 3000 00       		.sleb128 0
 10463 3001 00       		.byte	0
 10464 3002 29       		.uleb128 0x29
 10465 3003 F6030000 		.4byte	.LVL67
 10466 3007 2A330000 		.4byte	0x332a
 10467 300b 1C300000 		.4byte	0x301c
 10468 300f 2A       		.uleb128 0x2a
 10469 3010 01       		.uleb128 0x1
 10470 3011 50       		.byte	0x50
 10471 3012 02       		.uleb128 0x2
 10472 3013 75       		.byte	0x75
 10473 3014 00       		.sleb128 0
 10474 3015 2A       		.uleb128 0x2a
 10475 3016 01       		.uleb128 0x1
 10476 3017 51       		.byte	0x51
 10477 3018 02       		.uleb128 0x2
 10478 3019 76       		.byte	0x76
 10479 301a 00       		.sleb128 0
 10480 301b 00       		.byte	0
 10481 301c 29       		.uleb128 0x29
 10482 301d 02040000 		.4byte	.LVL68
 10483 3021 2A330000 		.4byte	0x332a
 10484 3025 36300000 		.4byte	0x3036
 10485 3029 2A       		.uleb128 0x2a
 10486 302a 01       		.uleb128 0x1
 10487 302b 50       		.byte	0x50
 10488 302c 02       		.uleb128 0x2
ARM GAS  /tmp/ccOR9P9P.s 			page 185


 10489 302d 75       		.byte	0x75
 10490 302e 00       		.sleb128 0
 10491 302f 2A       		.uleb128 0x2a
 10492 3030 01       		.uleb128 0x1
 10493 3031 51       		.byte	0x51
 10494 3032 02       		.uleb128 0x2
 10495 3033 76       		.byte	0x76
 10496 3034 00       		.sleb128 0
 10497 3035 00       		.byte	0
 10498 3036 29       		.uleb128 0x29
 10499 3037 0E040000 		.4byte	.LVL69
 10500 303b 2A330000 		.4byte	0x332a
 10501 303f 50300000 		.4byte	0x3050
 10502 3043 2A       		.uleb128 0x2a
 10503 3044 01       		.uleb128 0x1
 10504 3045 50       		.byte	0x50
 10505 3046 02       		.uleb128 0x2
 10506 3047 75       		.byte	0x75
 10507 3048 00       		.sleb128 0
 10508 3049 2A       		.uleb128 0x2a
 10509 304a 01       		.uleb128 0x1
 10510 304b 51       		.byte	0x51
 10511 304c 02       		.uleb128 0x2
 10512 304d 76       		.byte	0x76
 10513 304e 00       		.sleb128 0
 10514 304f 00       		.byte	0
 10515 3050 29       		.uleb128 0x29
 10516 3051 1A040000 		.4byte	.LVL70
 10517 3055 2A330000 		.4byte	0x332a
 10518 3059 6A300000 		.4byte	0x306a
 10519 305d 2A       		.uleb128 0x2a
 10520 305e 01       		.uleb128 0x1
 10521 305f 50       		.byte	0x50
 10522 3060 02       		.uleb128 0x2
 10523 3061 75       		.byte	0x75
 10524 3062 00       		.sleb128 0
 10525 3063 2A       		.uleb128 0x2a
 10526 3064 01       		.uleb128 0x1
 10527 3065 51       		.byte	0x51
 10528 3066 02       		.uleb128 0x2
 10529 3067 76       		.byte	0x76
 10530 3068 00       		.sleb128 0
 10531 3069 00       		.byte	0
 10532 306a 29       		.uleb128 0x29
 10533 306b 26040000 		.4byte	.LVL71
 10534 306f 2A330000 		.4byte	0x332a
 10535 3073 84300000 		.4byte	0x3084
 10536 3077 2A       		.uleb128 0x2a
 10537 3078 01       		.uleb128 0x1
 10538 3079 50       		.byte	0x50
 10539 307a 02       		.uleb128 0x2
 10540 307b 75       		.byte	0x75
 10541 307c 00       		.sleb128 0
 10542 307d 2A       		.uleb128 0x2a
 10543 307e 01       		.uleb128 0x1
 10544 307f 51       		.byte	0x51
 10545 3080 02       		.uleb128 0x2
ARM GAS  /tmp/ccOR9P9P.s 			page 186


 10546 3081 76       		.byte	0x76
 10547 3082 00       		.sleb128 0
 10548 3083 00       		.byte	0
 10549 3084 29       		.uleb128 0x29
 10550 3085 32040000 		.4byte	.LVL72
 10551 3089 2A330000 		.4byte	0x332a
 10552 308d 9E300000 		.4byte	0x309e
 10553 3091 2A       		.uleb128 0x2a
 10554 3092 01       		.uleb128 0x1
 10555 3093 50       		.byte	0x50
 10556 3094 02       		.uleb128 0x2
 10557 3095 75       		.byte	0x75
 10558 3096 00       		.sleb128 0
 10559 3097 2A       		.uleb128 0x2a
 10560 3098 01       		.uleb128 0x1
 10561 3099 51       		.byte	0x51
 10562 309a 02       		.uleb128 0x2
 10563 309b 76       		.byte	0x76
 10564 309c 00       		.sleb128 0
 10565 309d 00       		.byte	0
 10566 309e 29       		.uleb128 0x29
 10567 309f 3E040000 		.4byte	.LVL73
 10568 30a3 2A330000 		.4byte	0x332a
 10569 30a7 B8300000 		.4byte	0x30b8
 10570 30ab 2A       		.uleb128 0x2a
 10571 30ac 01       		.uleb128 0x1
 10572 30ad 50       		.byte	0x50
 10573 30ae 02       		.uleb128 0x2
 10574 30af 75       		.byte	0x75
 10575 30b0 00       		.sleb128 0
 10576 30b1 2A       		.uleb128 0x2a
 10577 30b2 01       		.uleb128 0x1
 10578 30b3 51       		.byte	0x51
 10579 30b4 02       		.uleb128 0x2
 10580 30b5 76       		.byte	0x76
 10581 30b6 00       		.sleb128 0
 10582 30b7 00       		.byte	0
 10583 30b8 29       		.uleb128 0x29
 10584 30b9 4A040000 		.4byte	.LVL74
 10585 30bd 2A330000 		.4byte	0x332a
 10586 30c1 D2300000 		.4byte	0x30d2
 10587 30c5 2A       		.uleb128 0x2a
 10588 30c6 01       		.uleb128 0x1
 10589 30c7 50       		.byte	0x50
 10590 30c8 02       		.uleb128 0x2
 10591 30c9 75       		.byte	0x75
 10592 30ca 00       		.sleb128 0
 10593 30cb 2A       		.uleb128 0x2a
 10594 30cc 01       		.uleb128 0x1
 10595 30cd 51       		.byte	0x51
 10596 30ce 02       		.uleb128 0x2
 10597 30cf 76       		.byte	0x76
 10598 30d0 00       		.sleb128 0
 10599 30d1 00       		.byte	0
 10600 30d2 29       		.uleb128 0x29
 10601 30d3 62040000 		.4byte	.LVL75
 10602 30d7 2A330000 		.4byte	0x332a
ARM GAS  /tmp/ccOR9P9P.s 			page 187


 10603 30db EC300000 		.4byte	0x30ec
 10604 30df 2A       		.uleb128 0x2a
 10605 30e0 01       		.uleb128 0x1
 10606 30e1 50       		.byte	0x50
 10607 30e2 02       		.uleb128 0x2
 10608 30e3 75       		.byte	0x75
 10609 30e4 00       		.sleb128 0
 10610 30e5 2A       		.uleb128 0x2a
 10611 30e6 01       		.uleb128 0x1
 10612 30e7 51       		.byte	0x51
 10613 30e8 02       		.uleb128 0x2
 10614 30e9 76       		.byte	0x76
 10615 30ea 00       		.sleb128 0
 10616 30eb 00       		.byte	0
 10617 30ec 29       		.uleb128 0x29
 10618 30ed 6E040000 		.4byte	.LVL76
 10619 30f1 2A330000 		.4byte	0x332a
 10620 30f5 06310000 		.4byte	0x3106
 10621 30f9 2A       		.uleb128 0x2a
 10622 30fa 01       		.uleb128 0x1
 10623 30fb 50       		.byte	0x50
 10624 30fc 02       		.uleb128 0x2
 10625 30fd 75       		.byte	0x75
 10626 30fe 00       		.sleb128 0
 10627 30ff 2A       		.uleb128 0x2a
 10628 3100 01       		.uleb128 0x1
 10629 3101 51       		.byte	0x51
 10630 3102 02       		.uleb128 0x2
 10631 3103 76       		.byte	0x76
 10632 3104 00       		.sleb128 0
 10633 3105 00       		.byte	0
 10634 3106 29       		.uleb128 0x29
 10635 3107 7A040000 		.4byte	.LVL77
 10636 310b 2A330000 		.4byte	0x332a
 10637 310f 20310000 		.4byte	0x3120
 10638 3113 2A       		.uleb128 0x2a
 10639 3114 01       		.uleb128 0x1
 10640 3115 50       		.byte	0x50
 10641 3116 02       		.uleb128 0x2
 10642 3117 75       		.byte	0x75
 10643 3118 00       		.sleb128 0
 10644 3119 2A       		.uleb128 0x2a
 10645 311a 01       		.uleb128 0x1
 10646 311b 51       		.byte	0x51
 10647 311c 02       		.uleb128 0x2
 10648 311d 76       		.byte	0x76
 10649 311e 00       		.sleb128 0
 10650 311f 00       		.byte	0
 10651 3120 29       		.uleb128 0x29
 10652 3121 86040000 		.4byte	.LVL78
 10653 3125 2A330000 		.4byte	0x332a
 10654 3129 3A310000 		.4byte	0x313a
 10655 312d 2A       		.uleb128 0x2a
 10656 312e 01       		.uleb128 0x1
 10657 312f 50       		.byte	0x50
 10658 3130 02       		.uleb128 0x2
 10659 3131 75       		.byte	0x75
ARM GAS  /tmp/ccOR9P9P.s 			page 188


 10660 3132 00       		.sleb128 0
 10661 3133 2A       		.uleb128 0x2a
 10662 3134 01       		.uleb128 0x1
 10663 3135 51       		.byte	0x51
 10664 3136 02       		.uleb128 0x2
 10665 3137 76       		.byte	0x76
 10666 3138 00       		.sleb128 0
 10667 3139 00       		.byte	0
 10668 313a 29       		.uleb128 0x29
 10669 313b 92040000 		.4byte	.LVL79
 10670 313f 2A330000 		.4byte	0x332a
 10671 3143 54310000 		.4byte	0x3154
 10672 3147 2A       		.uleb128 0x2a
 10673 3148 01       		.uleb128 0x1
 10674 3149 50       		.byte	0x50
 10675 314a 02       		.uleb128 0x2
 10676 314b 75       		.byte	0x75
 10677 314c 00       		.sleb128 0
 10678 314d 2A       		.uleb128 0x2a
 10679 314e 01       		.uleb128 0x1
 10680 314f 51       		.byte	0x51
 10681 3150 02       		.uleb128 0x2
 10682 3151 76       		.byte	0x76
 10683 3152 00       		.sleb128 0
 10684 3153 00       		.byte	0
 10685 3154 29       		.uleb128 0x29
 10686 3155 9E040000 		.4byte	.LVL80
 10687 3159 2A330000 		.4byte	0x332a
 10688 315d 6E310000 		.4byte	0x316e
 10689 3161 2A       		.uleb128 0x2a
 10690 3162 01       		.uleb128 0x1
 10691 3163 50       		.byte	0x50
 10692 3164 02       		.uleb128 0x2
 10693 3165 75       		.byte	0x75
 10694 3166 00       		.sleb128 0
 10695 3167 2A       		.uleb128 0x2a
 10696 3168 01       		.uleb128 0x1
 10697 3169 51       		.byte	0x51
 10698 316a 02       		.uleb128 0x2
 10699 316b 76       		.byte	0x76
 10700 316c 00       		.sleb128 0
 10701 316d 00       		.byte	0
 10702 316e 29       		.uleb128 0x29
 10703 316f AA040000 		.4byte	.LVL81
 10704 3173 2A330000 		.4byte	0x332a
 10705 3177 88310000 		.4byte	0x3188
 10706 317b 2A       		.uleb128 0x2a
 10707 317c 01       		.uleb128 0x1
 10708 317d 50       		.byte	0x50
 10709 317e 02       		.uleb128 0x2
 10710 317f 75       		.byte	0x75
 10711 3180 00       		.sleb128 0
 10712 3181 2A       		.uleb128 0x2a
 10713 3182 01       		.uleb128 0x1
 10714 3183 51       		.byte	0x51
 10715 3184 02       		.uleb128 0x2
 10716 3185 76       		.byte	0x76
ARM GAS  /tmp/ccOR9P9P.s 			page 189


 10717 3186 00       		.sleb128 0
 10718 3187 00       		.byte	0
 10719 3188 29       		.uleb128 0x29
 10720 3189 B6040000 		.4byte	.LVL82
 10721 318d 2A330000 		.4byte	0x332a
 10722 3191 A2310000 		.4byte	0x31a2
 10723 3195 2A       		.uleb128 0x2a
 10724 3196 01       		.uleb128 0x1
 10725 3197 50       		.byte	0x50
 10726 3198 02       		.uleb128 0x2
 10727 3199 75       		.byte	0x75
 10728 319a 00       		.sleb128 0
 10729 319b 2A       		.uleb128 0x2a
 10730 319c 01       		.uleb128 0x1
 10731 319d 51       		.byte	0x51
 10732 319e 02       		.uleb128 0x2
 10733 319f 76       		.byte	0x76
 10734 31a0 00       		.sleb128 0
 10735 31a1 00       		.byte	0
 10736 31a2 29       		.uleb128 0x29
 10737 31a3 C2040000 		.4byte	.LVL83
 10738 31a7 2A330000 		.4byte	0x332a
 10739 31ab BC310000 		.4byte	0x31bc
 10740 31af 2A       		.uleb128 0x2a
 10741 31b0 01       		.uleb128 0x1
 10742 31b1 50       		.byte	0x50
 10743 31b2 02       		.uleb128 0x2
 10744 31b3 75       		.byte	0x75
 10745 31b4 00       		.sleb128 0
 10746 31b5 2A       		.uleb128 0x2a
 10747 31b6 01       		.uleb128 0x1
 10748 31b7 51       		.byte	0x51
 10749 31b8 02       		.uleb128 0x2
 10750 31b9 76       		.byte	0x76
 10751 31ba 00       		.sleb128 0
 10752 31bb 00       		.byte	0
 10753 31bc 29       		.uleb128 0x29
 10754 31bd CE040000 		.4byte	.LVL84
 10755 31c1 4B330000 		.4byte	0x334b
 10756 31c5 D6310000 		.4byte	0x31d6
 10757 31c9 2A       		.uleb128 0x2a
 10758 31ca 01       		.uleb128 0x1
 10759 31cb 50       		.byte	0x50
 10760 31cc 02       		.uleb128 0x2
 10761 31cd 75       		.byte	0x75
 10762 31ce 00       		.sleb128 0
 10763 31cf 2A       		.uleb128 0x2a
 10764 31d0 01       		.uleb128 0x1
 10765 31d1 52       		.byte	0x52
 10766 31d2 02       		.uleb128 0x2
 10767 31d3 76       		.byte	0x76
 10768 31d4 00       		.sleb128 0
 10769 31d5 00       		.byte	0
 10770 31d6 29       		.uleb128 0x29
 10771 31d7 DA040000 		.4byte	.LVL85
 10772 31db 2A330000 		.4byte	0x332a
 10773 31df F0310000 		.4byte	0x31f0
ARM GAS  /tmp/ccOR9P9P.s 			page 190


 10774 31e3 2A       		.uleb128 0x2a
 10775 31e4 01       		.uleb128 0x1
 10776 31e5 50       		.byte	0x50
 10777 31e6 02       		.uleb128 0x2
 10778 31e7 75       		.byte	0x75
 10779 31e8 00       		.sleb128 0
 10780 31e9 2A       		.uleb128 0x2a
 10781 31ea 01       		.uleb128 0x1
 10782 31eb 51       		.byte	0x51
 10783 31ec 02       		.uleb128 0x2
 10784 31ed 76       		.byte	0x76
 10785 31ee 00       		.sleb128 0
 10786 31ef 00       		.byte	0
 10787 31f0 29       		.uleb128 0x29
 10788 31f1 E6040000 		.4byte	.LVL86
 10789 31f5 2A330000 		.4byte	0x332a
 10790 31f9 0A320000 		.4byte	0x320a
 10791 31fd 2A       		.uleb128 0x2a
 10792 31fe 01       		.uleb128 0x1
 10793 31ff 50       		.byte	0x50
 10794 3200 02       		.uleb128 0x2
 10795 3201 75       		.byte	0x75
 10796 3202 00       		.sleb128 0
 10797 3203 2A       		.uleb128 0x2a
 10798 3204 01       		.uleb128 0x1
 10799 3205 51       		.byte	0x51
 10800 3206 02       		.uleb128 0x2
 10801 3207 76       		.byte	0x76
 10802 3208 00       		.sleb128 0
 10803 3209 00       		.byte	0
 10804 320a 29       		.uleb128 0x29
 10805 320b F2040000 		.4byte	.LVL87
 10806 320f 1F330000 		.4byte	0x331f
 10807 3213 24320000 		.4byte	0x3224
 10808 3217 2A       		.uleb128 0x2a
 10809 3218 01       		.uleb128 0x1
 10810 3219 50       		.byte	0x50
 10811 321a 02       		.uleb128 0x2
 10812 321b 75       		.byte	0x75
 10813 321c 00       		.sleb128 0
 10814 321d 2A       		.uleb128 0x2a
 10815 321e 01       		.uleb128 0x1
 10816 321f 52       		.byte	0x52
 10817 3220 02       		.uleb128 0x2
 10818 3221 76       		.byte	0x76
 10819 3222 00       		.sleb128 0
 10820 3223 00       		.byte	0
 10821 3224 29       		.uleb128 0x29
 10822 3225 1E050000 		.4byte	.LVL88
 10823 3229 2A330000 		.4byte	0x332a
 10824 322d 3E320000 		.4byte	0x323e
 10825 3231 2A       		.uleb128 0x2a
 10826 3232 01       		.uleb128 0x1
 10827 3233 50       		.byte	0x50
 10828 3234 02       		.uleb128 0x2
 10829 3235 75       		.byte	0x75
 10830 3236 00       		.sleb128 0
ARM GAS  /tmp/ccOR9P9P.s 			page 191


 10831 3237 2A       		.uleb128 0x2a
 10832 3238 01       		.uleb128 0x1
 10833 3239 51       		.byte	0x51
 10834 323a 02       		.uleb128 0x2
 10835 323b 76       		.byte	0x76
 10836 323c 00       		.sleb128 0
 10837 323d 00       		.byte	0
 10838 323e 29       		.uleb128 0x29
 10839 323f 2A050000 		.4byte	.LVL89
 10840 3243 2A330000 		.4byte	0x332a
 10841 3247 58320000 		.4byte	0x3258
 10842 324b 2A       		.uleb128 0x2a
 10843 324c 01       		.uleb128 0x1
 10844 324d 50       		.byte	0x50
 10845 324e 02       		.uleb128 0x2
 10846 324f 75       		.byte	0x75
 10847 3250 00       		.sleb128 0
 10848 3251 2A       		.uleb128 0x2a
 10849 3252 01       		.uleb128 0x1
 10850 3253 51       		.byte	0x51
 10851 3254 02       		.uleb128 0x2
 10852 3255 76       		.byte	0x76
 10853 3256 00       		.sleb128 0
 10854 3257 00       		.byte	0
 10855 3258 29       		.uleb128 0x29
 10856 3259 36050000 		.4byte	.LVL90
 10857 325d 2A330000 		.4byte	0x332a
 10858 3261 72320000 		.4byte	0x3272
 10859 3265 2A       		.uleb128 0x2a
 10860 3266 01       		.uleb128 0x1
 10861 3267 50       		.byte	0x50
 10862 3268 02       		.uleb128 0x2
 10863 3269 75       		.byte	0x75
 10864 326a 00       		.sleb128 0
 10865 326b 2A       		.uleb128 0x2a
 10866 326c 01       		.uleb128 0x1
 10867 326d 51       		.byte	0x51
 10868 326e 02       		.uleb128 0x2
 10869 326f 76       		.byte	0x76
 10870 3270 00       		.sleb128 0
 10871 3271 00       		.byte	0
 10872 3272 29       		.uleb128 0x29
 10873 3273 42050000 		.4byte	.LVL91
 10874 3277 2A330000 		.4byte	0x332a
 10875 327b 8C320000 		.4byte	0x328c
 10876 327f 2A       		.uleb128 0x2a
 10877 3280 01       		.uleb128 0x1
 10878 3281 50       		.byte	0x50
 10879 3282 02       		.uleb128 0x2
 10880 3283 75       		.byte	0x75
 10881 3284 00       		.sleb128 0
 10882 3285 2A       		.uleb128 0x2a
 10883 3286 01       		.uleb128 0x1
 10884 3287 51       		.byte	0x51
 10885 3288 02       		.uleb128 0x2
 10886 3289 76       		.byte	0x76
 10887 328a 00       		.sleb128 0
ARM GAS  /tmp/ccOR9P9P.s 			page 192


 10888 328b 00       		.byte	0
 10889 328c 29       		.uleb128 0x29
 10890 328d 62050000 		.4byte	.LVL92
 10891 3291 2A330000 		.4byte	0x332a
 10892 3295 A6320000 		.4byte	0x32a6
 10893 3299 2A       		.uleb128 0x2a
 10894 329a 01       		.uleb128 0x1
 10895 329b 50       		.byte	0x50
 10896 329c 02       		.uleb128 0x2
 10897 329d 75       		.byte	0x75
 10898 329e 00       		.sleb128 0
 10899 329f 2A       		.uleb128 0x2a
 10900 32a0 01       		.uleb128 0x1
 10901 32a1 51       		.byte	0x51
 10902 32a2 02       		.uleb128 0x2
 10903 32a3 76       		.byte	0x76
 10904 32a4 00       		.sleb128 0
 10905 32a5 00       		.byte	0
 10906 32a6 29       		.uleb128 0x29
 10907 32a7 6E050000 		.4byte	.LVL93
 10908 32ab 2A330000 		.4byte	0x332a
 10909 32af C0320000 		.4byte	0x32c0
 10910 32b3 2A       		.uleb128 0x2a
 10911 32b4 01       		.uleb128 0x1
 10912 32b5 50       		.byte	0x50
 10913 32b6 02       		.uleb128 0x2
 10914 32b7 75       		.byte	0x75
 10915 32b8 00       		.sleb128 0
 10916 32b9 2A       		.uleb128 0x2a
 10917 32ba 01       		.uleb128 0x1
 10918 32bb 51       		.byte	0x51
 10919 32bc 02       		.uleb128 0x2
 10920 32bd 76       		.byte	0x76
 10921 32be 00       		.sleb128 0
 10922 32bf 00       		.byte	0
 10923 32c0 2B       		.uleb128 0x2b
 10924 32c1 8E050000 		.4byte	.LVL94
 10925 32c5 2A330000 		.4byte	0x332a
 10926 32c9 2A       		.uleb128 0x2a
 10927 32ca 01       		.uleb128 0x1
 10928 32cb 50       		.byte	0x50
 10929 32cc 02       		.uleb128 0x2
 10930 32cd 75       		.byte	0x75
 10931 32ce 00       		.sleb128 0
 10932 32cf 2A       		.uleb128 0x2a
 10933 32d0 01       		.uleb128 0x1
 10934 32d1 51       		.byte	0x51
 10935 32d2 02       		.uleb128 0x2
 10936 32d3 76       		.byte	0x76
 10937 32d4 00       		.sleb128 0
 10938 32d5 00       		.byte	0
 10939 32d6 00       		.byte	0
 10940 32d7 0B       		.uleb128 0xb
 10941 32d8 04       		.byte	0x4
 10942 32d9 70100000 		.4byte	0x1070
 10943 32dd 30       		.uleb128 0x30
 10944 32de DC020000 		.4byte	.LASF442
ARM GAS  /tmp/ccOR9P9P.s 			page 193


 10945 32e2 DC020000 		.4byte	.LASF442
 10946 32e6 11       		.byte	0x11
 10947 32e7 C4       		.byte	0xc4
 10948 32e8 30       		.uleb128 0x30
 10949 32e9 E50C0000 		.4byte	.LASF443
 10950 32ed E50C0000 		.4byte	.LASF443
 10951 32f1 12       		.byte	0x12
 10952 32f2 23       		.byte	0x23
 10953 32f3 30       		.uleb128 0x30
 10954 32f4 73040000 		.4byte	.LASF444
 10955 32f8 73040000 		.4byte	.LASF444
 10956 32fc 12       		.byte	0x12
 10957 32fd 26       		.byte	0x26
 10958 32fe 30       		.uleb128 0x30
 10959 32ff 9F090000 		.4byte	.LASF445
 10960 3303 9F090000 		.4byte	.LASF445
 10961 3307 12       		.byte	0x12
 10962 3308 21       		.byte	0x21
 10963 3309 30       		.uleb128 0x30
 10964 330a 20190000 		.4byte	.LASF446
 10965 330e 20190000 		.4byte	.LASF446
 10966 3312 12       		.byte	0x12
 10967 3313 20       		.byte	0x20
 10968 3314 30       		.uleb128 0x30
 10969 3315 881C0000 		.4byte	.LASF447
 10970 3319 881C0000 		.4byte	.LASF447
 10971 331d 12       		.byte	0x12
 10972 331e 22       		.byte	0x22
 10973 331f 30       		.uleb128 0x30
 10974 3320 4F1C0000 		.4byte	.LASF448
 10975 3324 4F1C0000 		.4byte	.LASF448
 10976 3328 12       		.byte	0x12
 10977 3329 1C       		.byte	0x1c
 10978 332a 30       		.uleb128 0x30
 10979 332b AD130000 		.4byte	.LASF449
 10980 332f AD130000 		.4byte	.LASF449
 10981 3333 12       		.byte	0x12
 10982 3334 1F       		.byte	0x1f
 10983 3335 30       		.uleb128 0x30
 10984 3336 F5180000 		.4byte	.LASF450
 10985 333a F5180000 		.4byte	.LASF450
 10986 333e 12       		.byte	0x12
 10987 333f 1A       		.byte	0x1a
 10988 3340 30       		.uleb128 0x30
 10989 3341 4E0C0000 		.4byte	.LASF451
 10990 3345 4E0C0000 		.4byte	.LASF451
 10991 3349 12       		.byte	0x12
 10992 334a 19       		.byte	0x19
 10993 334b 30       		.uleb128 0x30
 10994 334c 38120000 		.4byte	.LASF452
 10995 3350 38120000 		.4byte	.LASF452
 10996 3354 12       		.byte	0x12
 10997 3355 1B       		.byte	0x1b
 10998 3356 00       		.byte	0
 10999              		.section	.debug_abbrev,"",%progbits
 11000              	.Ldebug_abbrev0:
 11001 0000 01       		.uleb128 0x1
ARM GAS  /tmp/ccOR9P9P.s 			page 194


 11002 0001 11       		.uleb128 0x11
 11003 0002 01       		.byte	0x1
 11004 0003 25       		.uleb128 0x25
 11005 0004 0E       		.uleb128 0xe
 11006 0005 13       		.uleb128 0x13
 11007 0006 0B       		.uleb128 0xb
 11008 0007 03       		.uleb128 0x3
 11009 0008 0E       		.uleb128 0xe
 11010 0009 1B       		.uleb128 0x1b
 11011 000a 0E       		.uleb128 0xe
 11012 000b 55       		.uleb128 0x55
 11013 000c 17       		.uleb128 0x17
 11014 000d 11       		.uleb128 0x11
 11015 000e 01       		.uleb128 0x1
 11016 000f 10       		.uleb128 0x10
 11017 0010 17       		.uleb128 0x17
 11018 0011 00       		.byte	0
 11019 0012 00       		.byte	0
 11020 0013 02       		.uleb128 0x2
 11021 0014 16       		.uleb128 0x16
 11022 0015 00       		.byte	0
 11023 0016 03       		.uleb128 0x3
 11024 0017 0E       		.uleb128 0xe
 11025 0018 3A       		.uleb128 0x3a
 11026 0019 0B       		.uleb128 0xb
 11027 001a 3B       		.uleb128 0x3b
 11028 001b 0B       		.uleb128 0xb
 11029 001c 49       		.uleb128 0x49
 11030 001d 13       		.uleb128 0x13
 11031 001e 00       		.byte	0
 11032 001f 00       		.byte	0
 11033 0020 03       		.uleb128 0x3
 11034 0021 24       		.uleb128 0x24
 11035 0022 00       		.byte	0
 11036 0023 0B       		.uleb128 0xb
 11037 0024 0B       		.uleb128 0xb
 11038 0025 3E       		.uleb128 0x3e
 11039 0026 0B       		.uleb128 0xb
 11040 0027 03       		.uleb128 0x3
 11041 0028 0E       		.uleb128 0xe
 11042 0029 00       		.byte	0
 11043 002a 00       		.byte	0
 11044 002b 04       		.uleb128 0x4
 11045 002c 24       		.uleb128 0x24
 11046 002d 00       		.byte	0
 11047 002e 0B       		.uleb128 0xb
 11048 002f 0B       		.uleb128 0xb
 11049 0030 3E       		.uleb128 0x3e
 11050 0031 0B       		.uleb128 0xb
 11051 0032 03       		.uleb128 0x3
 11052 0033 08       		.uleb128 0x8
 11053 0034 00       		.byte	0
 11054 0035 00       		.byte	0
 11055 0036 05       		.uleb128 0x5
 11056 0037 26       		.uleb128 0x26
 11057 0038 00       		.byte	0
 11058 0039 49       		.uleb128 0x49
ARM GAS  /tmp/ccOR9P9P.s 			page 195


 11059 003a 13       		.uleb128 0x13
 11060 003b 00       		.byte	0
 11061 003c 00       		.byte	0
 11062 003d 06       		.uleb128 0x6
 11063 003e 35       		.uleb128 0x35
 11064 003f 00       		.byte	0
 11065 0040 49       		.uleb128 0x49
 11066 0041 13       		.uleb128 0x13
 11067 0042 00       		.byte	0
 11068 0043 00       		.byte	0
 11069 0044 07       		.uleb128 0x7
 11070 0045 13       		.uleb128 0x13
 11071 0046 01       		.byte	0x1
 11072 0047 03       		.uleb128 0x3
 11073 0048 0E       		.uleb128 0xe
 11074 0049 0B       		.uleb128 0xb
 11075 004a 0B       		.uleb128 0xb
 11076 004b 3A       		.uleb128 0x3a
 11077 004c 0B       		.uleb128 0xb
 11078 004d 3B       		.uleb128 0x3b
 11079 004e 0B       		.uleb128 0xb
 11080 004f 01       		.uleb128 0x1
 11081 0050 13       		.uleb128 0x13
 11082 0051 00       		.byte	0
 11083 0052 00       		.byte	0
 11084 0053 08       		.uleb128 0x8
 11085 0054 0D       		.uleb128 0xd
 11086 0055 00       		.byte	0
 11087 0056 03       		.uleb128 0x3
 11088 0057 0E       		.uleb128 0xe
 11089 0058 3A       		.uleb128 0x3a
 11090 0059 0B       		.uleb128 0xb
 11091 005a 3B       		.uleb128 0x3b
 11092 005b 0B       		.uleb128 0xb
 11093 005c 49       		.uleb128 0x49
 11094 005d 13       		.uleb128 0x13
 11095 005e 38       		.uleb128 0x38
 11096 005f 0B       		.uleb128 0xb
 11097 0060 00       		.byte	0
 11098 0061 00       		.byte	0
 11099 0062 09       		.uleb128 0x9
 11100 0063 0D       		.uleb128 0xd
 11101 0064 00       		.byte	0
 11102 0065 03       		.uleb128 0x3
 11103 0066 08       		.uleb128 0x8
 11104 0067 3A       		.uleb128 0x3a
 11105 0068 0B       		.uleb128 0xb
 11106 0069 3B       		.uleb128 0x3b
 11107 006a 05       		.uleb128 0x5
 11108 006b 49       		.uleb128 0x49
 11109 006c 13       		.uleb128 0x13
 11110 006d 38       		.uleb128 0x38
 11111 006e 0B       		.uleb128 0xb
 11112 006f 00       		.byte	0
 11113 0070 00       		.byte	0
 11114 0071 0A       		.uleb128 0xa
 11115 0072 0D       		.uleb128 0xd
ARM GAS  /tmp/ccOR9P9P.s 			page 196


 11116 0073 00       		.byte	0
 11117 0074 03       		.uleb128 0x3
 11118 0075 0E       		.uleb128 0xe
 11119 0076 3A       		.uleb128 0x3a
 11120 0077 0B       		.uleb128 0xb
 11121 0078 3B       		.uleb128 0x3b
 11122 0079 05       		.uleb128 0x5
 11123 007a 49       		.uleb128 0x49
 11124 007b 13       		.uleb128 0x13
 11125 007c 38       		.uleb128 0x38
 11126 007d 0B       		.uleb128 0xb
 11127 007e 00       		.byte	0
 11128 007f 00       		.byte	0
 11129 0080 0B       		.uleb128 0xb
 11130 0081 0F       		.uleb128 0xf
 11131 0082 00       		.byte	0
 11132 0083 0B       		.uleb128 0xb
 11133 0084 0B       		.uleb128 0xb
 11134 0085 49       		.uleb128 0x49
 11135 0086 13       		.uleb128 0x13
 11136 0087 00       		.byte	0
 11137 0088 00       		.byte	0
 11138 0089 0C       		.uleb128 0xc
 11139 008a 13       		.uleb128 0x13
 11140 008b 01       		.byte	0x1
 11141 008c 03       		.uleb128 0x3
 11142 008d 0E       		.uleb128 0xe
 11143 008e 0B       		.uleb128 0xb
 11144 008f 0B       		.uleb128 0xb
 11145 0090 3A       		.uleb128 0x3a
 11146 0091 0B       		.uleb128 0xb
 11147 0092 3B       		.uleb128 0x3b
 11148 0093 05       		.uleb128 0x5
 11149 0094 01       		.uleb128 0x1
 11150 0095 13       		.uleb128 0x13
 11151 0096 00       		.byte	0
 11152 0097 00       		.byte	0
 11153 0098 0D       		.uleb128 0xd
 11154 0099 15       		.uleb128 0x15
 11155 009a 01       		.byte	0x1
 11156 009b 27       		.uleb128 0x27
 11157 009c 19       		.uleb128 0x19
 11158 009d 01       		.uleb128 0x1
 11159 009e 13       		.uleb128 0x13
 11160 009f 00       		.byte	0
 11161 00a0 00       		.byte	0
 11162 00a1 0E       		.uleb128 0xe
 11163 00a2 05       		.uleb128 0x5
 11164 00a3 00       		.byte	0
 11165 00a4 49       		.uleb128 0x49
 11166 00a5 13       		.uleb128 0x13
 11167 00a6 00       		.byte	0
 11168 00a7 00       		.byte	0
 11169 00a8 0F       		.uleb128 0xf
 11170 00a9 0F       		.uleb128 0xf
 11171 00aa 00       		.byte	0
 11172 00ab 0B       		.uleb128 0xb
ARM GAS  /tmp/ccOR9P9P.s 			page 197


 11173 00ac 0B       		.uleb128 0xb
 11174 00ad 00       		.byte	0
 11175 00ae 00       		.byte	0
 11176 00af 10       		.uleb128 0x10
 11177 00b0 13       		.uleb128 0x13
 11178 00b1 01       		.byte	0x1
 11179 00b2 03       		.uleb128 0x3
 11180 00b3 0E       		.uleb128 0xe
 11181 00b4 0B       		.uleb128 0xb
 11182 00b5 05       		.uleb128 0x5
 11183 00b6 3A       		.uleb128 0x3a
 11184 00b7 0B       		.uleb128 0xb
 11185 00b8 3B       		.uleb128 0x3b
 11186 00b9 05       		.uleb128 0x5
 11187 00ba 01       		.uleb128 0x1
 11188 00bb 13       		.uleb128 0x13
 11189 00bc 00       		.byte	0
 11190 00bd 00       		.byte	0
 11191 00be 11       		.uleb128 0x11
 11192 00bf 34       		.uleb128 0x34
 11193 00c0 00       		.byte	0
 11194 00c1 03       		.uleb128 0x3
 11195 00c2 0E       		.uleb128 0xe
 11196 00c3 3A       		.uleb128 0x3a
 11197 00c4 0B       		.uleb128 0xb
 11198 00c5 3B       		.uleb128 0x3b
 11199 00c6 05       		.uleb128 0x5
 11200 00c7 49       		.uleb128 0x49
 11201 00c8 13       		.uleb128 0x13
 11202 00c9 3F       		.uleb128 0x3f
 11203 00ca 19       		.uleb128 0x19
 11204 00cb 3C       		.uleb128 0x3c
 11205 00cc 19       		.uleb128 0x19
 11206 00cd 00       		.byte	0
 11207 00ce 00       		.byte	0
 11208 00cf 12       		.uleb128 0x12
 11209 00d0 34       		.uleb128 0x34
 11210 00d1 00       		.byte	0
 11211 00d2 03       		.uleb128 0x3
 11212 00d3 0E       		.uleb128 0xe
 11213 00d4 3A       		.uleb128 0x3a
 11214 00d5 0B       		.uleb128 0xb
 11215 00d6 3B       		.uleb128 0x3b
 11216 00d7 0B       		.uleb128 0xb
 11217 00d8 49       		.uleb128 0x49
 11218 00d9 13       		.uleb128 0x13
 11219 00da 3F       		.uleb128 0x3f
 11220 00db 19       		.uleb128 0x19
 11221 00dc 3C       		.uleb128 0x3c
 11222 00dd 19       		.uleb128 0x19
 11223 00de 00       		.byte	0
 11224 00df 00       		.byte	0
 11225 00e0 13       		.uleb128 0x13
 11226 00e1 0D       		.uleb128 0xd
 11227 00e2 00       		.byte	0
 11228 00e3 03       		.uleb128 0x3
 11229 00e4 08       		.uleb128 0x8
ARM GAS  /tmp/ccOR9P9P.s 			page 198


 11230 00e5 3A       		.uleb128 0x3a
 11231 00e6 0B       		.uleb128 0xb
 11232 00e7 3B       		.uleb128 0x3b
 11233 00e8 0B       		.uleb128 0xb
 11234 00e9 49       		.uleb128 0x49
 11235 00ea 13       		.uleb128 0x13
 11236 00eb 38       		.uleb128 0x38
 11237 00ec 0B       		.uleb128 0xb
 11238 00ed 00       		.byte	0
 11239 00ee 00       		.byte	0
 11240 00ef 14       		.uleb128 0x14
 11241 00f0 13       		.uleb128 0x13
 11242 00f1 01       		.byte	0x1
 11243 00f2 0B       		.uleb128 0xb
 11244 00f3 0B       		.uleb128 0xb
 11245 00f4 3A       		.uleb128 0x3a
 11246 00f5 0B       		.uleb128 0xb
 11247 00f6 3B       		.uleb128 0x3b
 11248 00f7 0B       		.uleb128 0xb
 11249 00f8 01       		.uleb128 0x1
 11250 00f9 13       		.uleb128 0x13
 11251 00fa 00       		.byte	0
 11252 00fb 00       		.byte	0
 11253 00fc 15       		.uleb128 0x15
 11254 00fd 17       		.uleb128 0x17
 11255 00fe 01       		.byte	0x1
 11256 00ff 0B       		.uleb128 0xb
 11257 0100 0B       		.uleb128 0xb
 11258 0101 3A       		.uleb128 0x3a
 11259 0102 0B       		.uleb128 0xb
 11260 0103 3B       		.uleb128 0x3b
 11261 0104 0B       		.uleb128 0xb
 11262 0105 01       		.uleb128 0x1
 11263 0106 13       		.uleb128 0x13
 11264 0107 00       		.byte	0
 11265 0108 00       		.byte	0
 11266 0109 16       		.uleb128 0x16
 11267 010a 0D       		.uleb128 0xd
 11268 010b 00       		.byte	0
 11269 010c 03       		.uleb128 0x3
 11270 010d 0E       		.uleb128 0xe
 11271 010e 3A       		.uleb128 0x3a
 11272 010f 0B       		.uleb128 0xb
 11273 0110 3B       		.uleb128 0x3b
 11274 0111 05       		.uleb128 0x5
 11275 0112 49       		.uleb128 0x49
 11276 0113 13       		.uleb128 0x13
 11277 0114 00       		.byte	0
 11278 0115 00       		.byte	0
 11279 0116 17       		.uleb128 0x17
 11280 0117 01       		.uleb128 0x1
 11281 0118 01       		.byte	0x1
 11282 0119 49       		.uleb128 0x49
 11283 011a 13       		.uleb128 0x13
 11284 011b 01       		.uleb128 0x1
 11285 011c 13       		.uleb128 0x13
 11286 011d 00       		.byte	0
ARM GAS  /tmp/ccOR9P9P.s 			page 199


 11287 011e 00       		.byte	0
 11288 011f 18       		.uleb128 0x18
 11289 0120 21       		.uleb128 0x21
 11290 0121 00       		.byte	0
 11291 0122 49       		.uleb128 0x49
 11292 0123 13       		.uleb128 0x13
 11293 0124 2F       		.uleb128 0x2f
 11294 0125 0B       		.uleb128 0xb
 11295 0126 00       		.byte	0
 11296 0127 00       		.byte	0
 11297 0128 19       		.uleb128 0x19
 11298 0129 34       		.uleb128 0x34
 11299 012a 00       		.byte	0
 11300 012b 03       		.uleb128 0x3
 11301 012c 08       		.uleb128 0x8
 11302 012d 3A       		.uleb128 0x3a
 11303 012e 0B       		.uleb128 0xb
 11304 012f 3B       		.uleb128 0x3b
 11305 0130 05       		.uleb128 0x5
 11306 0131 49       		.uleb128 0x49
 11307 0132 13       		.uleb128 0x13
 11308 0133 3F       		.uleb128 0x3f
 11309 0134 19       		.uleb128 0x19
 11310 0135 3C       		.uleb128 0x3c
 11311 0136 19       		.uleb128 0x19
 11312 0137 00       		.byte	0
 11313 0138 00       		.byte	0
 11314 0139 1A       		.uleb128 0x1a
 11315 013a 04       		.uleb128 0x4
 11316 013b 01       		.byte	0x1
 11317 013c 3E       		.uleb128 0x3e
 11318 013d 0B       		.uleb128 0xb
 11319 013e 0B       		.uleb128 0xb
 11320 013f 0B       		.uleb128 0xb
 11321 0140 49       		.uleb128 0x49
 11322 0141 13       		.uleb128 0x13
 11323 0142 3A       		.uleb128 0x3a
 11324 0143 0B       		.uleb128 0xb
 11325 0144 3B       		.uleb128 0x3b
 11326 0145 0B       		.uleb128 0xb
 11327 0146 01       		.uleb128 0x1
 11328 0147 13       		.uleb128 0x13
 11329 0148 00       		.byte	0
 11330 0149 00       		.byte	0
 11331 014a 1B       		.uleb128 0x1b
 11332 014b 28       		.uleb128 0x28
 11333 014c 00       		.byte	0
 11334 014d 03       		.uleb128 0x3
 11335 014e 0E       		.uleb128 0xe
 11336 014f 1C       		.uleb128 0x1c
 11337 0150 0B       		.uleb128 0xb
 11338 0151 00       		.byte	0
 11339 0152 00       		.byte	0
 11340 0153 1C       		.uleb128 0x1c
 11341 0154 13       		.uleb128 0x13
 11342 0155 01       		.byte	0x1
 11343 0156 0B       		.uleb128 0xb
ARM GAS  /tmp/ccOR9P9P.s 			page 200


 11344 0157 05       		.uleb128 0x5
 11345 0158 3A       		.uleb128 0x3a
 11346 0159 0B       		.uleb128 0xb
 11347 015a 3B       		.uleb128 0x3b
 11348 015b 0B       		.uleb128 0xb
 11349 015c 01       		.uleb128 0x1
 11350 015d 13       		.uleb128 0x13
 11351 015e 00       		.byte	0
 11352 015f 00       		.byte	0
 11353 0160 1D       		.uleb128 0x1d
 11354 0161 0D       		.uleb128 0xd
 11355 0162 00       		.byte	0
 11356 0163 03       		.uleb128 0x3
 11357 0164 0E       		.uleb128 0xe
 11358 0165 3A       		.uleb128 0x3a
 11359 0166 0B       		.uleb128 0xb
 11360 0167 3B       		.uleb128 0x3b
 11361 0168 0B       		.uleb128 0xb
 11362 0169 49       		.uleb128 0x49
 11363 016a 13       		.uleb128 0x13
 11364 016b 38       		.uleb128 0x38
 11365 016c 05       		.uleb128 0x5
 11366 016d 00       		.byte	0
 11367 016e 00       		.byte	0
 11368 016f 1E       		.uleb128 0x1e
 11369 0170 0D       		.uleb128 0xd
 11370 0171 00       		.byte	0
 11371 0172 03       		.uleb128 0x3
 11372 0173 0E       		.uleb128 0xe
 11373 0174 3A       		.uleb128 0x3a
 11374 0175 0B       		.uleb128 0xb
 11375 0176 3B       		.uleb128 0x3b
 11376 0177 05       		.uleb128 0x5
 11377 0178 49       		.uleb128 0x49
 11378 0179 13       		.uleb128 0x13
 11379 017a 38       		.uleb128 0x38
 11380 017b 05       		.uleb128 0x5
 11381 017c 00       		.byte	0
 11382 017d 00       		.byte	0
 11383 017e 1F       		.uleb128 0x1f
 11384 017f 16       		.uleb128 0x16
 11385 0180 00       		.byte	0
 11386 0181 03       		.uleb128 0x3
 11387 0182 0E       		.uleb128 0xe
 11388 0183 3A       		.uleb128 0x3a
 11389 0184 0B       		.uleb128 0xb
 11390 0185 3B       		.uleb128 0x3b
 11391 0186 05       		.uleb128 0x5
 11392 0187 49       		.uleb128 0x49
 11393 0188 13       		.uleb128 0x13
 11394 0189 00       		.byte	0
 11395 018a 00       		.byte	0
 11396 018b 20       		.uleb128 0x20
 11397 018c 04       		.uleb128 0x4
 11398 018d 01       		.byte	0x1
 11399 018e 3E       		.uleb128 0x3e
 11400 018f 0B       		.uleb128 0xb
ARM GAS  /tmp/ccOR9P9P.s 			page 201


 11401 0190 0B       		.uleb128 0xb
 11402 0191 0B       		.uleb128 0xb
 11403 0192 49       		.uleb128 0x49
 11404 0193 13       		.uleb128 0x13
 11405 0194 3A       		.uleb128 0x3a
 11406 0195 0B       		.uleb128 0xb
 11407 0196 3B       		.uleb128 0x3b
 11408 0197 05       		.uleb128 0x5
 11409 0198 01       		.uleb128 0x1
 11410 0199 13       		.uleb128 0x13
 11411 019a 00       		.byte	0
 11412 019b 00       		.byte	0
 11413 019c 21       		.uleb128 0x21
 11414 019d 13       		.uleb128 0x13
 11415 019e 01       		.byte	0x1
 11416 019f 0B       		.uleb128 0xb
 11417 01a0 0B       		.uleb128 0xb
 11418 01a1 3A       		.uleb128 0x3a
 11419 01a2 0B       		.uleb128 0xb
 11420 01a3 3B       		.uleb128 0x3b
 11421 01a4 05       		.uleb128 0x5
 11422 01a5 01       		.uleb128 0x1
 11423 01a6 13       		.uleb128 0x13
 11424 01a7 00       		.byte	0
 11425 01a8 00       		.byte	0
 11426 01a9 22       		.uleb128 0x22
 11427 01aa 2E       		.uleb128 0x2e
 11428 01ab 01       		.byte	0x1
 11429 01ac 3F       		.uleb128 0x3f
 11430 01ad 19       		.uleb128 0x19
 11431 01ae 03       		.uleb128 0x3
 11432 01af 0E       		.uleb128 0xe
 11433 01b0 3A       		.uleb128 0x3a
 11434 01b1 0B       		.uleb128 0xb
 11435 01b2 3B       		.uleb128 0x3b
 11436 01b3 05       		.uleb128 0x5
 11437 01b4 27       		.uleb128 0x27
 11438 01b5 19       		.uleb128 0x19
 11439 01b6 11       		.uleb128 0x11
 11440 01b7 01       		.uleb128 0x1
 11441 01b8 12       		.uleb128 0x12
 11442 01b9 06       		.uleb128 0x6
 11443 01ba 40       		.uleb128 0x40
 11444 01bb 18       		.uleb128 0x18
 11445 01bc 9742     		.uleb128 0x2117
 11446 01be 19       		.uleb128 0x19
 11447 01bf 01       		.uleb128 0x1
 11448 01c0 13       		.uleb128 0x13
 11449 01c1 00       		.byte	0
 11450 01c2 00       		.byte	0
 11451 01c3 23       		.uleb128 0x23
 11452 01c4 05       		.uleb128 0x5
 11453 01c5 00       		.byte	0
 11454 01c6 03       		.uleb128 0x3
 11455 01c7 0E       		.uleb128 0xe
 11456 01c8 3A       		.uleb128 0x3a
 11457 01c9 0B       		.uleb128 0xb
ARM GAS  /tmp/ccOR9P9P.s 			page 202


 11458 01ca 3B       		.uleb128 0x3b
 11459 01cb 05       		.uleb128 0x5
 11460 01cc 49       		.uleb128 0x49
 11461 01cd 13       		.uleb128 0x13
 11462 01ce 02       		.uleb128 0x2
 11463 01cf 17       		.uleb128 0x17
 11464 01d0 00       		.byte	0
 11465 01d1 00       		.byte	0
 11466 01d2 24       		.uleb128 0x24
 11467 01d3 898201   		.uleb128 0x4109
 11468 01d6 00       		.byte	0
 11469 01d7 11       		.uleb128 0x11
 11470 01d8 01       		.uleb128 0x1
 11471 01d9 31       		.uleb128 0x31
 11472 01da 13       		.uleb128 0x13
 11473 01db 00       		.byte	0
 11474 01dc 00       		.byte	0
 11475 01dd 25       		.uleb128 0x25
 11476 01de 05       		.uleb128 0x5
 11477 01df 00       		.byte	0
 11478 01e0 03       		.uleb128 0x3
 11479 01e1 0E       		.uleb128 0xe
 11480 01e2 3A       		.uleb128 0x3a
 11481 01e3 0B       		.uleb128 0xb
 11482 01e4 3B       		.uleb128 0x3b
 11483 01e5 05       		.uleb128 0x5
 11484 01e6 49       		.uleb128 0x49
 11485 01e7 13       		.uleb128 0x13
 11486 01e8 02       		.uleb128 0x2
 11487 01e9 18       		.uleb128 0x18
 11488 01ea 00       		.byte	0
 11489 01eb 00       		.byte	0
 11490 01ec 26       		.uleb128 0x26
 11491 01ed 2E       		.uleb128 0x2e
 11492 01ee 01       		.byte	0x1
 11493 01ef 3F       		.uleb128 0x3f
 11494 01f0 19       		.uleb128 0x19
 11495 01f1 03       		.uleb128 0x3
 11496 01f2 0E       		.uleb128 0xe
 11497 01f3 3A       		.uleb128 0x3a
 11498 01f4 0B       		.uleb128 0xb
 11499 01f5 3B       		.uleb128 0x3b
 11500 01f6 05       		.uleb128 0x5
 11501 01f7 27       		.uleb128 0x27
 11502 01f8 19       		.uleb128 0x19
 11503 01f9 49       		.uleb128 0x49
 11504 01fa 13       		.uleb128 0x13
 11505 01fb 11       		.uleb128 0x11
 11506 01fc 01       		.uleb128 0x1
 11507 01fd 12       		.uleb128 0x12
 11508 01fe 06       		.uleb128 0x6
 11509 01ff 40       		.uleb128 0x40
 11510 0200 18       		.uleb128 0x18
 11511 0201 9742     		.uleb128 0x2117
 11512 0203 19       		.uleb128 0x19
 11513 0204 01       		.uleb128 0x1
 11514 0205 13       		.uleb128 0x13
ARM GAS  /tmp/ccOR9P9P.s 			page 203


 11515 0206 00       		.byte	0
 11516 0207 00       		.byte	0
 11517 0208 27       		.uleb128 0x27
 11518 0209 34       		.uleb128 0x34
 11519 020a 00       		.byte	0
 11520 020b 03       		.uleb128 0x3
 11521 020c 08       		.uleb128 0x8
 11522 020d 3A       		.uleb128 0x3a
 11523 020e 0B       		.uleb128 0xb
 11524 020f 3B       		.uleb128 0x3b
 11525 0210 05       		.uleb128 0x5
 11526 0211 49       		.uleb128 0x49
 11527 0212 13       		.uleb128 0x13
 11528 0213 02       		.uleb128 0x2
 11529 0214 18       		.uleb128 0x18
 11530 0215 00       		.byte	0
 11531 0216 00       		.byte	0
 11532 0217 28       		.uleb128 0x28
 11533 0218 34       		.uleb128 0x34
 11534 0219 00       		.byte	0
 11535 021a 03       		.uleb128 0x3
 11536 021b 0E       		.uleb128 0xe
 11537 021c 3A       		.uleb128 0x3a
 11538 021d 0B       		.uleb128 0xb
 11539 021e 3B       		.uleb128 0x3b
 11540 021f 05       		.uleb128 0x5
 11541 0220 49       		.uleb128 0x49
 11542 0221 13       		.uleb128 0x13
 11543 0222 02       		.uleb128 0x2
 11544 0223 17       		.uleb128 0x17
 11545 0224 00       		.byte	0
 11546 0225 00       		.byte	0
 11547 0226 29       		.uleb128 0x29
 11548 0227 898201   		.uleb128 0x4109
 11549 022a 01       		.byte	0x1
 11550 022b 11       		.uleb128 0x11
 11551 022c 01       		.uleb128 0x1
 11552 022d 31       		.uleb128 0x31
 11553 022e 13       		.uleb128 0x13
 11554 022f 01       		.uleb128 0x1
 11555 0230 13       		.uleb128 0x13
 11556 0231 00       		.byte	0
 11557 0232 00       		.byte	0
 11558 0233 2A       		.uleb128 0x2a
 11559 0234 8A8201   		.uleb128 0x410a
 11560 0237 00       		.byte	0
 11561 0238 02       		.uleb128 0x2
 11562 0239 18       		.uleb128 0x18
 11563 023a 9142     		.uleb128 0x2111
 11564 023c 18       		.uleb128 0x18
 11565 023d 00       		.byte	0
 11566 023e 00       		.byte	0
 11567 023f 2B       		.uleb128 0x2b
 11568 0240 898201   		.uleb128 0x4109
 11569 0243 01       		.byte	0x1
 11570 0244 11       		.uleb128 0x11
 11571 0245 01       		.uleb128 0x1
ARM GAS  /tmp/ccOR9P9P.s 			page 204


 11572 0246 31       		.uleb128 0x31
 11573 0247 13       		.uleb128 0x13
 11574 0248 00       		.byte	0
 11575 0249 00       		.byte	0
 11576 024a 2C       		.uleb128 0x2c
 11577 024b 2E       		.uleb128 0x2e
 11578 024c 01       		.byte	0x1
 11579 024d 3F       		.uleb128 0x3f
 11580 024e 19       		.uleb128 0x19
 11581 024f 03       		.uleb128 0x3
 11582 0250 0E       		.uleb128 0xe
 11583 0251 3A       		.uleb128 0x3a
 11584 0252 0B       		.uleb128 0xb
 11585 0253 3B       		.uleb128 0x3b
 11586 0254 0B       		.uleb128 0xb
 11587 0255 27       		.uleb128 0x27
 11588 0256 19       		.uleb128 0x19
 11589 0257 49       		.uleb128 0x49
 11590 0258 13       		.uleb128 0x13
 11591 0259 11       		.uleb128 0x11
 11592 025a 01       		.uleb128 0x1
 11593 025b 12       		.uleb128 0x12
 11594 025c 06       		.uleb128 0x6
 11595 025d 40       		.uleb128 0x40
 11596 025e 18       		.uleb128 0x18
 11597 025f 9742     		.uleb128 0x2117
 11598 0261 19       		.uleb128 0x19
 11599 0262 01       		.uleb128 0x1
 11600 0263 13       		.uleb128 0x13
 11601 0264 00       		.byte	0
 11602 0265 00       		.byte	0
 11603 0266 2D       		.uleb128 0x2d
 11604 0267 05       		.uleb128 0x5
 11605 0268 00       		.byte	0
 11606 0269 03       		.uleb128 0x3
 11607 026a 0E       		.uleb128 0xe
 11608 026b 3A       		.uleb128 0x3a
 11609 026c 0B       		.uleb128 0xb
 11610 026d 3B       		.uleb128 0x3b
 11611 026e 0B       		.uleb128 0xb
 11612 026f 49       		.uleb128 0x49
 11613 0270 13       		.uleb128 0x13
 11614 0271 02       		.uleb128 0x2
 11615 0272 17       		.uleb128 0x17
 11616 0273 00       		.byte	0
 11617 0274 00       		.byte	0
 11618 0275 2E       		.uleb128 0x2e
 11619 0276 34       		.uleb128 0x34
 11620 0277 00       		.byte	0
 11621 0278 03       		.uleb128 0x3
 11622 0279 08       		.uleb128 0x8
 11623 027a 3A       		.uleb128 0x3a
 11624 027b 0B       		.uleb128 0xb
 11625 027c 3B       		.uleb128 0x3b
 11626 027d 0B       		.uleb128 0xb
 11627 027e 49       		.uleb128 0x49
 11628 027f 13       		.uleb128 0x13
ARM GAS  /tmp/ccOR9P9P.s 			page 205


 11629 0280 02       		.uleb128 0x2
 11630 0281 18       		.uleb128 0x18
 11631 0282 00       		.byte	0
 11632 0283 00       		.byte	0
 11633 0284 2F       		.uleb128 0x2f
 11634 0285 34       		.uleb128 0x34
 11635 0286 00       		.byte	0
 11636 0287 03       		.uleb128 0x3
 11637 0288 0E       		.uleb128 0xe
 11638 0289 3A       		.uleb128 0x3a
 11639 028a 0B       		.uleb128 0xb
 11640 028b 3B       		.uleb128 0x3b
 11641 028c 0B       		.uleb128 0xb
 11642 028d 49       		.uleb128 0x49
 11643 028e 13       		.uleb128 0x13
 11644 028f 02       		.uleb128 0x2
 11645 0290 17       		.uleb128 0x17
 11646 0291 00       		.byte	0
 11647 0292 00       		.byte	0
 11648 0293 30       		.uleb128 0x30
 11649 0294 2E       		.uleb128 0x2e
 11650 0295 00       		.byte	0
 11651 0296 3F       		.uleb128 0x3f
 11652 0297 19       		.uleb128 0x19
 11653 0298 3C       		.uleb128 0x3c
 11654 0299 19       		.uleb128 0x19
 11655 029a 6E       		.uleb128 0x6e
 11656 029b 0E       		.uleb128 0xe
 11657 029c 03       		.uleb128 0x3
 11658 029d 0E       		.uleb128 0xe
 11659 029e 3A       		.uleb128 0x3a
 11660 029f 0B       		.uleb128 0xb
 11661 02a0 3B       		.uleb128 0x3b
 11662 02a1 0B       		.uleb128 0xb
 11663 02a2 00       		.byte	0
 11664 02a3 00       		.byte	0
 11665 02a4 00       		.byte	0
 11666              		.section	.debug_loc,"",%progbits
 11667              	.Ldebug_loc0:
 11668              	.LLST10:
 11669 0000 00000000 		.4byte	.LVL274
 11670 0004 09000000 		.4byte	.LVL275-1
 11671 0008 0100     		.2byte	0x1
 11672 000a 50       		.byte	0x50
 11673 000b 09000000 		.4byte	.LVL275-1
 11674 000f 30010000 		.4byte	.LVL276
 11675 0013 0100     		.2byte	0x1
 11676 0015 54       		.byte	0x54
 11677 0016 30010000 		.4byte	.LVL276
 11678 001a 50010000 		.4byte	.LFE224
 11679 001e 0400     		.2byte	0x4
 11680 0020 F3       		.byte	0xf3
 11681 0021 01       		.uleb128 0x1
 11682 0022 50       		.byte	0x50
 11683 0023 9F       		.byte	0x9f
 11684 0024 00000000 		.4byte	0
 11685 0028 00000000 		.4byte	0
ARM GAS  /tmp/ccOR9P9P.s 			page 206


 11686              	.LLST7:
 11687 002c 00000000 		.4byte	.LVL232
 11688 0030 15000000 		.4byte	.LVL234-1
 11689 0034 0100     		.2byte	0x1
 11690 0036 50       		.byte	0x50
 11691 0037 15000000 		.4byte	.LVL234-1
 11692 003b 22000000 		.4byte	.LVL236
 11693 003f 0100     		.2byte	0x1
 11694 0041 55       		.byte	0x55
 11695 0042 22000000 		.4byte	.LVL236
 11696 0046 28000000 		.4byte	.LVL237
 11697 004a 0400     		.2byte	0x4
 11698 004c F3       		.byte	0xf3
 11699 004d 01       		.uleb128 0x1
 11700 004e 50       		.byte	0x50
 11701 004f 9F       		.byte	0x9f
 11702 0050 28000000 		.4byte	.LVL237
 11703 0054 12030000 		.4byte	.LVL272
 11704 0058 0100     		.2byte	0x1
 11705 005a 55       		.byte	0x55
 11706 005b 12030000 		.4byte	.LVL272
 11707 005f 54030000 		.4byte	.LFE222
 11708 0063 0400     		.2byte	0x4
 11709 0065 F3       		.byte	0xf3
 11710 0066 01       		.uleb128 0x1
 11711 0067 50       		.byte	0x50
 11712 0068 9F       		.byte	0x9f
 11713 0069 00000000 		.4byte	0
 11714 006d 00000000 		.4byte	0
 11715              	.LLST8:
 11716 0071 00000000 		.4byte	.LVL232
 11717 0075 10000000 		.4byte	.LVL233
 11718 0079 0100     		.2byte	0x1
 11719 007b 51       		.byte	0x51
 11720 007c 10000000 		.4byte	.LVL233
 11721 0080 22000000 		.4byte	.LVL236
 11722 0084 0100     		.2byte	0x1
 11723 0086 54       		.byte	0x54
 11724 0087 22000000 		.4byte	.LVL236
 11725 008b 28000000 		.4byte	.LVL237
 11726 008f 0400     		.2byte	0x4
 11727 0091 F3       		.byte	0xf3
 11728 0092 01       		.uleb128 0x1
 11729 0093 51       		.byte	0x51
 11730 0094 9F       		.byte	0x9f
 11731 0095 28000000 		.4byte	.LVL237
 11732 0099 54030000 		.4byte	.LFE222
 11733 009d 0100     		.2byte	0x1
 11734 009f 54       		.byte	0x54
 11735 00a0 00000000 		.4byte	0
 11736 00a4 00000000 		.4byte	0
 11737              	.LLST9:
 11738 00a8 16000000 		.4byte	.LVL234
 11739 00ac 1E000000 		.4byte	.LVL235
 11740 00b0 0100     		.2byte	0x1
 11741 00b2 50       		.byte	0x50
 11742 00b3 28000000 		.4byte	.LVL237
ARM GAS  /tmp/ccOR9P9P.s 			page 207


 11743 00b7 34000000 		.4byte	.LVL238
 11744 00bb 0100     		.2byte	0x1
 11745 00bd 50       		.byte	0x50
 11746 00be 00000000 		.4byte	0
 11747 00c2 00000000 		.4byte	0
 11748              	.LLST4:
 11749 00c6 00000000 		.4byte	.LVL133
 11750 00ca 15000000 		.4byte	.LVL135-1
 11751 00ce 0100     		.2byte	0x1
 11752 00d0 50       		.byte	0x50
 11753 00d1 15000000 		.4byte	.LVL135-1
 11754 00d5 22000000 		.4byte	.LVL137
 11755 00d9 0100     		.2byte	0x1
 11756 00db 55       		.byte	0x55
 11757 00dc 22000000 		.4byte	.LVL137
 11758 00e0 28000000 		.4byte	.LVL138
 11759 00e4 0400     		.2byte	0x4
 11760 00e6 F3       		.byte	0xf3
 11761 00e7 01       		.uleb128 0x1
 11762 00e8 50       		.byte	0x50
 11763 00e9 9F       		.byte	0x9f
 11764 00ea 28000000 		.4byte	.LVL138
 11765 00ee CA050000 		.4byte	.LFE221
 11766 00f2 0100     		.2byte	0x1
 11767 00f4 55       		.byte	0x55
 11768 00f5 00000000 		.4byte	0
 11769 00f9 00000000 		.4byte	0
 11770              	.LLST5:
 11771 00fd 00000000 		.4byte	.LVL133
 11772 0101 10000000 		.4byte	.LVL134
 11773 0105 0100     		.2byte	0x1
 11774 0107 51       		.byte	0x51
 11775 0108 10000000 		.4byte	.LVL134
 11776 010c 22000000 		.4byte	.LVL137
 11777 0110 0100     		.2byte	0x1
 11778 0112 54       		.byte	0x54
 11779 0113 22000000 		.4byte	.LVL137
 11780 0117 28000000 		.4byte	.LVL138
 11781 011b 0400     		.2byte	0x4
 11782 011d F3       		.byte	0xf3
 11783 011e 01       		.uleb128 0x1
 11784 011f 51       		.byte	0x51
 11785 0120 9F       		.byte	0x9f
 11786 0121 28000000 		.4byte	.LVL138
 11787 0125 CA050000 		.4byte	.LFE221
 11788 0129 0100     		.2byte	0x1
 11789 012b 54       		.byte	0x54
 11790 012c 00000000 		.4byte	0
 11791 0130 00000000 		.4byte	0
 11792              	.LLST6:
 11793 0134 16000000 		.4byte	.LVL135
 11794 0138 1E000000 		.4byte	.LVL136
 11795 013c 0100     		.2byte	0x1
 11796 013e 50       		.byte	0x50
 11797 013f 28000000 		.4byte	.LVL138
 11798 0143 32000000 		.4byte	.LVL139
 11799 0147 0100     		.2byte	0x1
ARM GAS  /tmp/ccOR9P9P.s 			page 208


 11800 0149 50       		.byte	0x50
 11801 014a 00000000 		.4byte	0
 11802 014e 00000000 		.4byte	0
 11803              	.LLST2:
 11804 0152 00000000 		.4byte	.LVL95
 11805 0156 17000000 		.4byte	.LVL97-1
 11806 015a 0100     		.2byte	0x1
 11807 015c 50       		.byte	0x50
 11808 015d 17000000 		.4byte	.LVL97-1
 11809 0161 94020000 		.4byte	.LVL131
 11810 0165 0100     		.2byte	0x1
 11811 0167 55       		.byte	0x55
 11812 0168 94020000 		.4byte	.LVL131
 11813 016c D4020000 		.4byte	.LFE220
 11814 0170 0400     		.2byte	0x4
 11815 0172 F3       		.byte	0xf3
 11816 0173 01       		.uleb128 0x1
 11817 0174 50       		.byte	0x50
 11818 0175 9F       		.byte	0x9f
 11819 0176 00000000 		.4byte	0
 11820 017a 00000000 		.4byte	0
 11821              	.LLST3:
 11822 017e 00000000 		.4byte	.LVL95
 11823 0182 12000000 		.4byte	.LVL96
 11824 0186 0100     		.2byte	0x1
 11825 0188 51       		.byte	0x51
 11826 0189 12000000 		.4byte	.LVL96
 11827 018d D0020000 		.4byte	.LVL132
 11828 0191 0100     		.2byte	0x1
 11829 0193 54       		.byte	0x54
 11830 0194 D0020000 		.4byte	.LVL132
 11831 0198 D4020000 		.4byte	.LFE220
 11832 019c 0400     		.2byte	0x4
 11833 019e F3       		.byte	0xf3
 11834 019f 01       		.uleb128 0x1
 11835 01a0 51       		.byte	0x51
 11836 01a1 9F       		.byte	0x9f
 11837 01a2 00000000 		.4byte	0
 11838 01a6 00000000 		.4byte	0
 11839              	.LLST0:
 11840 01aa 00000000 		.4byte	.LVL0
 11841 01ae 17000000 		.4byte	.LVL2-1
 11842 01b2 0100     		.2byte	0x1
 11843 01b4 50       		.byte	0x50
 11844 01b5 17000000 		.4byte	.LVL2-1
 11845 01b9 94050000 		.4byte	.LFE219
 11846 01bd 0100     		.2byte	0x1
 11847 01bf 55       		.byte	0x55
 11848 01c0 00000000 		.4byte	0
 11849 01c4 00000000 		.4byte	0
 11850              	.LLST1:
 11851 01c8 00000000 		.4byte	.LVL0
 11852 01cc 12000000 		.4byte	.LVL1
 11853 01d0 0100     		.2byte	0x1
 11854 01d2 51       		.byte	0x51
 11855 01d3 12000000 		.4byte	.LVL1
 11856 01d7 94050000 		.4byte	.LFE219
ARM GAS  /tmp/ccOR9P9P.s 			page 209


 11857 01db 0100     		.2byte	0x1
 11858 01dd 54       		.byte	0x54
 11859 01de 00000000 		.4byte	0
 11860 01e2 00000000 		.4byte	0
 11861              		.section	.debug_aranges,"",%progbits
 11862 0000 44000000 		.4byte	0x44
 11863 0004 0200     		.2byte	0x2
 11864 0006 00000000 		.4byte	.Ldebug_info0
 11865 000a 04       		.byte	0x4
 11866 000b 00       		.byte	0
 11867 000c 0000     		.2byte	0
 11868 000e 0000     		.2byte	0
 11869 0010 00000000 		.4byte	.LFB219
 11870 0014 94050000 		.4byte	.LFE219-.LFB219
 11871 0018 00000000 		.4byte	.LFB220
 11872 001c D4020000 		.4byte	.LFE220-.LFB220
 11873 0020 00000000 		.4byte	.LFB221
 11874 0024 CA050000 		.4byte	.LFE221-.LFB221
 11875 0028 00000000 		.4byte	.LFB222
 11876 002c 54030000 		.4byte	.LFE222-.LFB222
 11877 0030 00000000 		.4byte	.LFB223
 11878 0034 48030000 		.4byte	.LFE223-.LFB223
 11879 0038 00000000 		.4byte	.LFB224
 11880 003c 50010000 		.4byte	.LFE224-.LFB224
 11881 0040 00000000 		.4byte	0
 11882 0044 00000000 		.4byte	0
 11883              		.section	.debug_ranges,"",%progbits
 11884              	.Ldebug_ranges0:
 11885 0000 00000000 		.4byte	.LFB219
 11886 0004 94050000 		.4byte	.LFE219
 11887 0008 00000000 		.4byte	.LFB220
 11888 000c D4020000 		.4byte	.LFE220
 11889 0010 00000000 		.4byte	.LFB221
 11890 0014 CA050000 		.4byte	.LFE221
 11891 0018 00000000 		.4byte	.LFB222
 11892 001c 54030000 		.4byte	.LFE222
 11893 0020 00000000 		.4byte	.LFB223
 11894 0024 48030000 		.4byte	.LFE223
 11895 0028 00000000 		.4byte	.LFB224
 11896 002c 50010000 		.4byte	.LFE224
 11897 0030 00000000 		.4byte	0
 11898 0034 00000000 		.4byte	0
 11899              		.section	.debug_line,"",%progbits
 11900              	.Ldebug_line0:
 11901 0000 A6070000 		.section	.debug_str,"MS",%progbits,1
 11901      02000B02 
 11901      00000201 
 11901      FB0E0D00 
 11901      01010101 
 11902              	.LASF54:
 11903 0000 63685F74 		.ascii	"ch_threads_list\000"
 11903      68726561 
 11903      64735F6C 
 11903      69737400 
 11904              	.LASF8:
 11905 0010 6C6F6E67 		.ascii	"long int\000"
 11905      20696E74 
ARM GAS  /tmp/ccOR9P9P.s 			page 210


 11905      00
 11906              	.LASF259:
 11907 0019 6770645F 		.ascii	"gpd_current_ki\000"
 11907      63757272 
 11907      656E745F 
 11907      6B6900
 11908              	.LASF418:
 11909 0028 73656E64 		.ascii	"send_can_status\000"
 11909      5F63616E 
 11909      5F737461 
 11909      74757300 
 11910              	.LASF236:
 11911 0038 666F635F 		.ascii	"foc_observer_gain_slow\000"
 11911      6F627365 
 11911      72766572 
 11911      5F676169 
 11911      6E5F736C 
 11912              	.LASF86:
 11913 004f 53797374 		.ascii	"SystemCoreClock\000"
 11913      656D436F 
 11913      7265436C 
 11913      6F636B00 
 11914              	.LASF345:
 11915 005f 4144435F 		.ascii	"ADC_CTRL_TYPE_DUTY_REV_CENTER\000"
 11915      4354524C 
 11915      5F545950 
 11915      455F4455 
 11915      54595F52 
 11916              	.LASF149:
 11917 007d 4D4F544F 		.ascii	"MOTOR_TYPE_BLDC\000"
 11917      525F5459 
 11917      50455F42 
 11917      4C444300 
 11918              	.LASF92:
 11919 008d 746D5F63 		.ascii	"tm_calibration_t\000"
 11919      616C6962 
 11919      72617469 
 11919      6F6E5F74 
 11919      00
 11920              	.LASF43:
 11921 009e 705F7469 		.ascii	"p_time\000"
 11921      6D6500
 11922              	.LASF435:
 11923 00a5 636F6E66 		.ascii	"conf\000"
 11923      00
 11924              	.LASF386:
 11925 00aa 4E52465F 		.ascii	"NRF_RETR_DELAY_1000US\000"
 11925      52455452 
 11925      5F44454C 
 11925      41595F31 
 11925      30303055 
 11926              	.LASF107:
 11927 00c0 63686172 		.ascii	"char\000"
 11927      00
 11928              	.LASF87:
 11929 00c5 72656761 		.ascii	"regarm_t\000"
 11929      726D5F74 
ARM GAS  /tmp/ccOR9P9P.s 			page 211


 11929      00
 11930              	.LASF34:
 11931 00ce 705F7072 		.ascii	"p_prio\000"
 11931      696F00
 11932              	.LASF365:
 11933 00d5 4348554B 		.ascii	"CHUK_CTRL_TYPE_CURRENT_NOREV\000"
 11933      5F435452 
 11933      4C5F5459 
 11933      50455F43 
 11933      55525245 
 11934              	.LASF285:
 11935 00f2 6D5F6463 		.ascii	"m_dc_f_sw\000"
 11935      5F665F73 
 11935      7700
 11936              	.LASF421:
 11937 00fc 70616972 		.ascii	"pairing_done\000"
 11937      696E675F 
 11937      646F6E65 
 11937      00
 11938              	.LASF198:
 11939 0109 6C5F7465 		.ascii	"l_temp_accel_dec\000"
 11939      6D705F61 
 11939      6363656C 
 11939      5F646563 
 11939      00
 11940              	.LASF282:
 11941 011a 6D5F6472 		.ascii	"m_drv8301_oc_adj\000"
 11941      76383330 
 11941      315F6F63 
 11941      5F61646A 
 11941      00
 11942              	.LASF412:
 11943 012b 43414E5F 		.ascii	"CAN_STATUS_1_2_3\000"
 11943      53544154 
 11943      55535F31 
 11943      5F325F33 
 11943      00
 11944              	.LASF436:
 11945 013c 62756666 		.ascii	"buffer\000"
 11945      657200
 11946              	.LASF30:
 11947 0143 73797374 		.ascii	"systime_t\000"
 11947      696D655F 
 11947      7400
 11948              	.LASF166:
 11949 014d 43414E5F 		.ascii	"CAN_BAUD_125K\000"
 11949      42415544 
 11949      5F313235 
 11949      4B00
 11950              	.LASF118:
 11951 015b 63665F6F 		.ascii	"cf_off_older\000"
 11951      66665F6F 
 11951      6C646572 
 11951      00
 11952              	.LASF121:
 11953 0168 63665F6F 		.ascii	"cf_off_state\000"
 11953      66665F73 
ARM GAS  /tmp/ccOR9P9P.s 			page 212


 11953      74617465 
 11953      00
 11954              	.LASF101:
 11955 0175 735F7175 		.ascii	"s_queue\000"
 11955      65756500 
 11956              	.LASF75:
 11957 017d 76745F73 		.ascii	"vt_systime\000"
 11957      79737469 
 11957      6D6500
 11958              	.LASF143:
 11959 0188 6D635F66 		.ascii	"mc_foc_sensor_mode\000"
 11959      6F635F73 
 11959      656E736F 
 11959      725F6D6F 
 11959      646500
 11960              	.LASF45:
 11961 019b 705F6D73 		.ascii	"p_msgqueue\000"
 11961      67717565 
 11961      756500
 11962              	.LASF263:
 11963 01a6 735F7069 		.ascii	"s_pid_kd_filter\000"
 11963      645F6B64 
 11963      5F66696C 
 11963      74657200 
 11964              	.LASF353:
 11965 01b6 766F6C74 		.ascii	"voltage_center\000"
 11965      6167655F 
 11965      63656E74 
 11965      657200
 11966              	.LASF280:
 11967 01c5 6D5F696E 		.ascii	"m_invert_direction\000"
 11967      76657274 
 11967      5F646972 
 11967      65637469 
 11967      6F6E00
 11968              	.LASF235:
 11969 01d8 666F635F 		.ascii	"foc_observer_gain\000"
 11969      6F627365 
 11969      72766572 
 11969      5F676169 
 11969      6E00
 11970              	.LASF265:
 11971 01ea 735F7069 		.ascii	"s_pid_allow_braking\000"
 11971      645F616C 
 11971      6C6F775F 
 11971      6272616B 
 11971      696E6700 
 11972              	.LASF52:
 11973 01fe 74687265 		.ascii	"threads_list_t\000"
 11973      6164735F 
 11973      6C697374 
 11973      5F7400
 11974              	.LASF163:
 11975 020d 44525638 		.ascii	"DRV8301_OC_REPORT_ONLY\000"
 11975      3330315F 
 11975      4F435F52 
 11975      45504F52 
ARM GAS  /tmp/ccOR9P9P.s 			page 213


 11975      545F4F4E 
 11976              	.LASF178:
 11977 0224 73656E73 		.ascii	"sensor_mode\000"
 11977      6F725F6D 
 11977      6F646500 
 11978              	.LASF153:
 11979 0230 6D635F6D 		.ascii	"mc_motor_type\000"
 11979      6F746F72 
 11979      5F747970 
 11979      6500
 11980              	.LASF44:
 11981 023e 705F7761 		.ascii	"p_waiting\000"
 11981      6974696E 
 11981      6700
 11982              	.LASF304:
 11983 0248 4150505F 		.ascii	"APP_CUSTOM\000"
 11983      43555354 
 11983      4F4D00
 11984              	.LASF189:
 11985 0253 6C5F6D69 		.ascii	"l_min_vin\000"
 11985      6E5F7669 
 11985      6E00
 11986              	.LASF7:
 11987 025d 5F5F696E 		.ascii	"__int32_t\000"
 11987      7433325F 
 11987      7400
 11988              	.LASF223:
 11989 0267 666F635F 		.ascii	"foc_dt_us\000"
 11989      64745F75 
 11989      7300
 11990              	.LASF119:
 11991 0271 63665F6F 		.ascii	"cf_off_name\000"
 11991      66665F6E 
 11991      616D6500 
 11992              	.LASF130:
 11993 027d 50574D5F 		.ascii	"PWM_MODE_SYNCHRONOUS\000"
 11993      4D4F4445 
 11993      5F53594E 
 11993      4348524F 
 11993      4E4F5553 
 11994              	.LASF240:
 11995 0292 666F635F 		.ascii	"foc_duty_dowmramp_ki\000"
 11995      64757479 
 11995      5F646F77 
 11995      6D72616D 
 11995      705F6B69 
 11996              	.LASF200:
 11997 02a7 6C5F6D61 		.ascii	"l_max_duty\000"
 11997      785F6475 
 11997      747900
 11998              	.LASF332:
 11999 02b2 6D756C74 		.ascii	"multi_esc\000"
 11999      695F6573 
 11999      6300
 12000              	.LASF239:
 12001 02bc 666F635F 		.ascii	"foc_duty_dowmramp_kp\000"
 12001      64757479 
ARM GAS  /tmp/ccOR9P9P.s 			page 214


 12001      5F646F77 
 12001      6D72616D 
 12001      705F6B70 
 12002              	.LASF381:
 12003 02d1 4E52465F 		.ascii	"NRF_CRC_2B\000"
 12003      4352435F 
 12003      324200
 12004              	.LASF442:
 12005 02dc 68775F69 		.ascii	"hw_id_from_uuid\000"
 12005      645F6672 
 12005      6F6D5F75 
 12005      75696400 
 12006              	.LASF95:
 12007 02ec 77746F62 		.ascii	"wtobjp\000"
 12007      6A7000
 12008              	.LASF382:
 12009 02f3 4E52465F 		.ascii	"NRF_CRC\000"
 12009      43524300 
 12010              	.LASF82:
 12011 02fb 76746C69 		.ascii	"vtlist\000"
 12011      737400
 12012              	.LASF400:
 12013 0302 73706565 		.ascii	"speed\000"
 12013      6400
 12014              	.LASF4:
 12015 0308 73686F72 		.ascii	"short int\000"
 12015      7420696E 
 12015      7400
 12016              	.LASF398:
 12017 0312 4E52465F 		.ascii	"NRF_RETR_DELAY_4000US\000"
 12017      52455452 
 12017      5F44454C 
 12017      41595F34 
 12017      30303055 
 12018              	.LASF373:
 12019 0328 4E52465F 		.ascii	"NRF_POWER_M18DBM\000"
 12019      504F5745 
 12019      525F4D31 
 12019      3844424D 
 12019      00
 12020              	.LASF14:
 12021 0339 756E7369 		.ascii	"unsigned int\000"
 12021      676E6564 
 12021      20696E74 
 12021      00
 12022              	.LASF434:
 12023 0346 636F6E66 		.ascii	"confgenerator_set_defaults_mcconf\000"
 12023      67656E65 
 12023      7261746F 
 12023      725F7365 
 12023      745F6465 
 12024              	.LASF402:
 12025 0368 6372635F 		.ascii	"crc_type\000"
 12025      74797065 
 12025      00
 12026              	.LASF312:
 12027 0371 50504D5F 		.ascii	"PPM_CTRL_TYPE_CURRENT_NOREV\000"
ARM GAS  /tmp/ccOR9P9P.s 			page 215


 12027      4354524C 
 12027      5F545950 
 12027      455F4355 
 12027      5252454E 
 12028              	.LASF99:
 12029 038d 65776D61 		.ascii	"ewmask\000"
 12029      736B00
 12030              	.LASF186:
 12031 0394 6C5F6572 		.ascii	"l_erpm_start\000"
 12031      706D5F73 
 12031      74617274 
 12031      00
 12032              	.LASF391:
 12033 03a1 4E52465F 		.ascii	"NRF_RETR_DELAY_2250US\000"
 12033      52455452 
 12033      5F44454C 
 12033      41595F32 
 12033      32353055 
 12034              	.LASF409:
 12035 03b7 43414E5F 		.ascii	"CAN_STATUS_DISABLED\000"
 12035      53544154 
 12035      55535F44 
 12035      49534142 
 12035      4C454400 
 12036              	.LASF182:
 12037 03cb 6C5F696E 		.ascii	"l_in_current_min\000"
 12037      5F637572 
 12037      72656E74 
 12037      5F6D696E 
 12037      00
 12038              	.LASF146:
 12039 03dc 4F55545F 		.ascii	"OUT_AUX_MODE_ON_AFTER_5S\000"
 12039      4155585F 
 12039      4D4F4445 
 12039      5F4F4E5F 
 12039      41465445 
 12040              	.LASF112:
 12041 03f5 63685F70 		.ascii	"ch_ptrsize\000"
 12041      74727369 
 12041      7A6500
 12042              	.LASF172:
 12043 0400 42415454 		.ascii	"BATTERY_TYPE_LIIRON_2_6__3_6\000"
 12043      4552595F 
 12043      54595045 
 12043      5F4C4949 
 12043      524F4E5F 
 12044              	.LASF58:
 12045 041d 63685F72 		.ascii	"ch_ready_list\000"
 12045      65616479 
 12045      5F6C6973 
 12045      7400
 12046              	.LASF281:
 12047 042b 6D5F6472 		.ascii	"m_drv8301_oc_mode\000"
 12047      76383330 
 12047      315F6F63 
 12047      5F6D6F64 
 12047      6500
ARM GAS  /tmp/ccOR9P9P.s 			page 216


 12048              	.LASF199:
 12049 043d 6C5F6D69 		.ascii	"l_min_duty\000"
 12049      6E5F6475 
 12049      747900
 12050              	.LASF433:
 12051 0448 636F6E66 		.ascii	"confgenerator_set_defaults_appconf\000"
 12051      67656E65 
 12051      7261746F 
 12051      725F7365 
 12051      745F6465 
 12052              	.LASF297:
 12053 046b 4150505F 		.ascii	"APP_PPM\000"
 12053      50504D00 
 12054              	.LASF444:
 12055 0473 62756666 		.ascii	"buffer_get_float32_auto\000"
 12055      65725F67 
 12055      65745F66 
 12055      6C6F6174 
 12055      33325F61 
 12056              	.LASF432:
 12057 048b 636F6E66 		.ascii	"conf_general_permanent_nrf_found\000"
 12057      5F67656E 
 12057      6572616C 
 12057      5F706572 
 12057      6D616E65 
 12058              	.LASF65:
 12059 04ac 76746675 		.ascii	"vtfunc_t\000"
 12059      6E635F74 
 12059      00
 12060              	.LASF341:
 12061 04b5 4144435F 		.ascii	"ADC_CTRL_TYPE_CURRENT_NOREV_BRAKE_CENTER\000"
 12061      4354524C 
 12061      5F545950 
 12061      455F4355 
 12061      5252454E 
 12062              	.LASF77:
 12063 04de 63685F73 		.ascii	"ch_system_debug\000"
 12063      79737465 
 12063      6D5F6465 
 12063      62756700 
 12064              	.LASF342:
 12065 04ee 4144435F 		.ascii	"ADC_CTRL_TYPE_CURRENT_NOREV_BRAKE_BUTTON\000"
 12065      4354524C 
 12065      5F545950 
 12065      455F4355 
 12065      5252454E 
 12066              	.LASF102:
 12067 0517 735F636E 		.ascii	"s_cnt\000"
 12067      7400
 12068              	.LASF193:
 12069 051d 6C5F736C 		.ascii	"l_slow_abs_current\000"
 12069      6F775F61 
 12069      62735F63 
 12069      75727265 
 12069      6E7400
 12070              	.LASF340:
 12071 0530 4144435F 		.ascii	"ADC_CTRL_TYPE_CURRENT_REV_BUTTON_BRAKE_CENTER\000"
ARM GAS  /tmp/ccOR9P9P.s 			page 217


 12071      4354524C 
 12071      5F545950 
 12071      455F4355 
 12071      5252454E 
 12072              	.LASF256:
 12073 055e 6770645F 		.ascii	"gpd_buffer_interpol\000"
 12073      62756666 
 12073      65725F69 
 12073      6E746572 
 12073      706F6C00 
 12074              	.LASF243:
 12075 0572 666F635F 		.ascii	"foc_sl_openloop_time\000"
 12075      736C5F6F 
 12075      70656E6C 
 12075      6F6F705F 
 12075      74696D65 
 12076              	.LASF221:
 12077 0587 666F635F 		.ascii	"foc_current_ki\000"
 12077      63757272 
 12077      656E745F 
 12077      6B6900
 12078              	.LASF276:
 12079 0596 6D5F6475 		.ascii	"m_duty_ramp_step\000"
 12079      74795F72 
 12079      616D705F 
 12079      73746570 
 12079      00
 12080              	.LASF220:
 12081 05a7 666F635F 		.ascii	"foc_current_kp\000"
 12081      63757272 
 12081      656E745F 
 12081      6B7000
 12082              	.LASF311:
 12083 05b6 50504D5F 		.ascii	"PPM_CTRL_TYPE_CURRENT\000"
 12083      4354524C 
 12083      5F545950 
 12083      455F4355 
 12083      5252454E 
 12084              	.LASF414:
 12085 05cc 43414E5F 		.ascii	"CAN_STATUS_MODE\000"
 12085      53544154 
 12085      55535F4D 
 12085      4F444500 
 12086              	.LASF132:
 12087 05dc 6D635F70 		.ascii	"mc_pwm_mode\000"
 12087      776D5F6D 
 12087      6F646500 
 12088              	.LASF19:
 12089 05e8 75696E74 		.ascii	"uint32_t\000"
 12089      33325F74 
 12089      00
 12090              	.LASF15:
 12091 05f1 696E7438 		.ascii	"int8_t\000"
 12091      5F7400
 12092              	.LASF350:
 12093 05f8 6164635F 		.ascii	"adc_control_type\000"
 12093      636F6E74 
ARM GAS  /tmp/ccOR9P9P.s 			page 218


 12093      726F6C5F 
 12093      74797065 
 12093      00
 12094              	.LASF113:
 12095 0609 63685F74 		.ascii	"ch_timesize\000"
 12095      696D6573 
 12095      697A6500 
 12096              	.LASF227:
 12097 0615 666F635F 		.ascii	"foc_encoder_sin_offset\000"
 12097      656E636F 
 12097      6465725F 
 12097      73696E5F 
 12097      6F666673 
 12098              	.LASF430:
 12099 062c 6170705F 		.ascii	"app_nrf_conf\000"
 12099      6E72665F 
 12099      636F6E66 
 12099      00
 12100              	.LASF325:
 12101 0639 6D656469 		.ascii	"median_filter\000"
 12101      616E5F66 
 12101      696C7465 
 12101      7200
 12102              	.LASF28:
 12103 0647 6576656E 		.ascii	"eventmask_t\000"
 12103      746D6173 
 12103      6B5F7400 
 12104              	.LASF60:
 12105 0653 725F7072 		.ascii	"r_prio\000"
 12105      696F00
 12106              	.LASF392:
 12107 065a 4E52465F 		.ascii	"NRF_RETR_DELAY_2500US\000"
 12107      52455452 
 12107      5F44454C 
 12107      41595F32 
 12107      35303055 
 12108              	.LASF72:
 12109 0670 76745F70 		.ascii	"vt_par\000"
 12109      617200
 12110              	.LASF174:
 12111 0677 42415454 		.ascii	"BATTERY_TYPE\000"
 12111      4552595F 
 12111      54595045 
 12111      00
 12112              	.LASF191:
 12113 0684 6C5F6261 		.ascii	"l_battery_cut_start\000"
 12113      74746572 
 12113      795F6375 
 12113      745F7374 
 12113      61727400 
 12114              	.LASF160:
 12115 0698 666C6F61 		.ascii	"float\000"
 12115      7400
 12116              	.LASF305:
 12117 069e 6170705F 		.ascii	"app_use\000"
 12117      75736500 
 12118              	.LASF329:
ARM GAS  /tmp/ccOR9P9P.s 			page 219


 12119 06a6 7468726F 		.ascii	"throttle_exp_mode\000"
 12119      74746C65 
 12119      5F657870 
 12119      5F6D6F64 
 12119      6500
 12120              	.LASF288:
 12121 06b8 73695F6D 		.ascii	"si_motor_poles\000"
 12121      6F746F72 
 12121      5F706F6C 
 12121      657300
 12122              	.LASF321:
 12123 06c7 68797374 		.ascii	"hyst\000"
 12123      00
 12124              	.LASF100:
 12125 06cc 63685F73 		.ascii	"ch_semaphore\000"
 12125      656D6170 
 12125      686F7265 
 12125      00
 12126              	.LASF148:
 12127 06d9 6F75745F 		.ascii	"out_aux_mode\000"
 12127      6175785F 
 12127      6D6F6465 
 12127      00
 12128              	.LASF26:
 12129 06e6 74707269 		.ascii	"tprio_t\000"
 12129      6F5F7400 
 12130              	.LASF158:
 12131 06ee 53454E53 		.ascii	"SENSOR_PORT_MODE_SINCOS\000"
 12131      4F525F50 
 12131      4F52545F 
 12131      4D4F4445 
 12131      5F53494E 
 12132              	.LASF231:
 12133 0706 666F635F 		.ascii	"foc_encoder_sincos_filter_constant\000"
 12133      656E636F 
 12133      6465725F 
 12133      73696E63 
 12133      6F735F66 
 12134              	.LASF453:
 12135 0729 474E5520 		.ascii	"GNU C99 7.3.1 20180622 (release) [ARM/embedded-7-br"
 12135      43393920 
 12135      372E332E 
 12135      31203230 
 12135      31383036 
 12136 075c 616E6368 		.ascii	"anch revision 261907] -mcpu=cortex-m4 -mfloat-abi=h"
 12136      20726576 
 12136      6973696F 
 12136      6E203236 
 12136      31393037 
 12137 078f 61726420 		.ascii	"ard -mfpu=fpv4-sp-d16 -mno-thumb-interwork -mthumb "
 12137      2D6D6670 
 12137      753D6670 
 12137      76342D73 
 12137      702D6431 
 12138 07c2 2D676764 		.ascii	"-ggdb -O2 -std=gnu99 -fomit-frame-pointer -falign-f"
 12138      62202D4F 
 12138      32202D73 
ARM GAS  /tmp/ccOR9P9P.s 			page 220


 12138      74643D67 
 12138      6E753939 
 12139 07f5 756E6374 		.ascii	"unctions=16 -ffunction-sections -fdata-sections -fn"
 12139      696F6E73 
 12139      3D313620 
 12139      2D666675 
 12139      6E637469 
 12140 0828 6F2D636F 		.ascii	"o-common -fsingle-precision-constant\000"
 12140      6D6D6F6E 
 12140      202D6673 
 12140      696E676C 
 12140      652D7072 
 12141              	.LASF217:
 12142 084d 736C5F62 		.ascii	"sl_bemf_coupling_k\000"
 12142      656D665F 
 12142      636F7570 
 12142      6C696E67 
 12142      5F6B00
 12143              	.LASF218:
 12144 0860 68616C6C 		.ascii	"hall_table\000"
 12144      5F746162 
 12144      6C6500
 12145              	.LASF13:
 12146 086b 6C6F6E67 		.ascii	"long long unsigned int\000"
 12146      206C6F6E 
 12146      6720756E 
 12146      7369676E 
 12146      65642069 
 12147              	.LASF284:
 12148 0882 6D5F626C 		.ascii	"m_bldc_f_sw_max\000"
 12148      64635F66 
 12148      5F73775F 
 12148      6D617800 
 12149              	.LASF360:
 12150 0892 766F6C74 		.ascii	"voltage2_inverted\000"
 12150      61676532 
 12150      5F696E76 
 12150      65727465 
 12150      6400
 12151              	.LASF399:
 12152 08a4 4E52465F 		.ascii	"NRF_RETR_DELAY\000"
 12152      52455452 
 12152      5F44454C 
 12152      415900
 12153              	.LASF326:
 12154 08b3 73616665 		.ascii	"safe_start\000"
 12154      5F737461 
 12154      727400
 12155              	.LASF242:
 12156 08be 666F635F 		.ascii	"foc_sl_openloop_hyst\000"
 12156      736C5F6F 
 12156      70656E6C 
 12156      6F6F705F 
 12156      68797374 
 12157              	.LASF315:
 12158 08d3 50504D5F 		.ascii	"PPM_CTRL_TYPE_DUTY_NOREV\000"
 12158      4354524C 
ARM GAS  /tmp/ccOR9P9P.s 			page 221


 12158      5F545950 
 12158      455F4455 
 12158      54595F4E 
 12159              	.LASF177:
 12160 08ec 6D6F746F 		.ascii	"motor_type\000"
 12160      725F7479 
 12160      706500
 12161              	.LASF157:
 12162 08f7 53454E53 		.ascii	"SENSOR_PORT_MODE_AD2S1205\000"
 12162      4F525F50 
 12162      4F52545F 
 12162      4D4F4445 
 12162      5F414432 
 12163              	.LASF67:
 12164 0911 63685F76 		.ascii	"ch_virtual_timer\000"
 12164      69727475 
 12164      616C5F74 
 12164      696D6572 
 12164      00
 12165              	.LASF352:
 12166 0922 766F6C74 		.ascii	"voltage_end\000"
 12166      6167655F 
 12166      656E6400 
 12167              	.LASF5:
 12168 092e 5F5F7569 		.ascii	"__uint16_t\000"
 12168      6E743136 
 12168      5F7400
 12169              	.LASF29:
 12170 0939 636E745F 		.ascii	"cnt_t\000"
 12170      7400
 12171              	.LASF180:
 12172 093f 6C5F6375 		.ascii	"l_current_min\000"
 12172      7272656E 
 12172      745F6D69 
 12172      6E00
 12173              	.LASF211:
 12174 094d 736C5F6D 		.ascii	"sl_min_erpm\000"
 12174      696E5F65 
 12174      72706D00 
 12175              	.LASF291:
 12176 0959 73695F62 		.ascii	"si_battery_type\000"
 12176      61747465 
 12176      72795F74 
 12176      79706500 
 12177              	.LASF380:
 12178 0969 4E52465F 		.ascii	"NRF_CRC_1B\000"
 12178      4352435F 
 12178      314200
 12179              	.LASF408:
 12180 0974 6E72665F 		.ascii	"nrf_config\000"
 12180      636F6E66 
 12180      696700
 12181              	.LASF437:
 12182 097f 7369676E 		.ascii	"signature\000"
 12182      61747572 
 12182      6500
 12183              	.LASF417:
ARM GAS  /tmp/ccOR9P9P.s 			page 222


 12184 0989 74696D65 		.ascii	"timeout_brake_current\000"
 12184      6F75745F 
 12184      6272616B 
 12184      655F6375 
 12184      7272656E 
 12185              	.LASF445:
 12186 099f 62756666 		.ascii	"buffer_get_uint16\000"
 12186      65725F67 
 12186      65745F75 
 12186      696E7431 
 12186      3600
 12187              	.LASF150:
 12188 09b1 4D4F544F 		.ascii	"MOTOR_TYPE_DC\000"
 12188      525F5459 
 12188      50455F44 
 12188      4300
 12189              	.LASF366:
 12190 09bf 6368756B 		.ascii	"chuk_control_type\000"
 12190      5F636F6E 
 12190      74726F6C 
 12190      5F747970 
 12190      6500
 12191              	.LASF55:
 12192 09d1 74687265 		.ascii	"threads_queue_t\000"
 12192      6164735F 
 12192      71756575 
 12192      655F7400 
 12193              	.LASF357:
 12194 09e1 63635F62 		.ascii	"cc_button_inverted\000"
 12194      7574746F 
 12194      6E5F696E 
 12194      76657274 
 12194      656400
 12195              	.LASF74:
 12196 09f4 63685F76 		.ascii	"ch_virtual_timers_list\000"
 12196      69727475 
 12196      616C5F74 
 12196      696D6572 
 12196      735F6C69 
 12197              	.LASF131:
 12198 0a0b 50574D5F 		.ascii	"PWM_MODE_BIPOLAR\000"
 12198      4D4F4445 
 12198      5F424950 
 12198      4F4C4152 
 12198      00
 12199              	.LASF31:
 12200 0a1c 74687265 		.ascii	"thread_t\000"
 12200      61645F74 
 12200      00
 12201              	.LASF257:
 12202 0a25 6770645F 		.ascii	"gpd_current_filter_const\000"
 12202      63757272 
 12202      656E745F 
 12202      66696C74 
 12202      65725F63 
 12203              	.LASF317:
 12204 0a3e 50504D5F 		.ascii	"PPM_CTRL_TYPE_PID_NOREV\000"
ARM GAS  /tmp/ccOR9P9P.s 			page 223


 12204      4354524C 
 12204      5F545950 
 12204      455F5049 
 12204      445F4E4F 
 12205              	.LASF330:
 12206 0a56 72616D70 		.ascii	"ramp_time_pos\000"
 12206      5F74696D 
 12206      655F706F 
 12206      7300
 12207              	.LASF205:
 12208 0a64 6C6F5F63 		.ascii	"lo_current_max\000"
 12208      75727265 
 12208      6E745F6D 
 12208      617800
 12209              	.LASF93:
 12210 0a73 7264796D 		.ascii	"rdymsg\000"
 12210      736700
 12211              	.LASF269:
 12212 0a7a 705F7069 		.ascii	"p_pid_kd_filter\000"
 12212      645F6B64 
 12212      5F66696C 
 12212      74657200 
 12213              	.LASF169:
 12214 0a8a 43414E5F 		.ascii	"CAN_BAUD_1M\000"
 12214      42415544 
 12214      5F314D00 
 12215              	.LASF91:
 12216 0a96 6F666673 		.ascii	"offset\000"
 12216      657400
 12217              	.LASF219:
 12218 0a9d 68616C6C 		.ascii	"hall_sl_erpm\000"
 12218      5F736C5F 
 12218      6572706D 
 12218      00
 12219              	.LASF124:
 12220 0aaa 63665F6F 		.ascii	"cf_off_preempt\000"
 12220      66665F70 
 12220      7265656D 
 12220      707400
 12221              	.LASF299:
 12222 0ab9 4150505F 		.ascii	"APP_UART\000"
 12222      55415254 
 12222      00
 12223              	.LASF197:
 12224 0ac2 6C5F7465 		.ascii	"l_temp_motor_end\000"
 12224      6D705F6D 
 12224      6F746F72 
 12224      5F656E64 
 12224      00
 12225              	.LASF135:
 12226 0ad3 6D635F63 		.ascii	"mc_comm_mode\000"
 12226      6F6D6D5F 
 12226      6D6F6465 
 12226      00
 12227              	.LASF294:
 12228 0ae0 5F426F6F 		.ascii	"_Bool\000"
 12228      6C00
ARM GAS  /tmp/ccOR9P9P.s 			page 224


 12229              	.LASF208:
 12230 0ae6 6C6F5F69 		.ascii	"lo_in_current_min\000"
 12230      6E5F6375 
 12230      7272656E 
 12230      745F6D69 
 12230      6E00
 12231              	.LASF424:
 12232 0af8 75617663 		.ascii	"uavcan_esc_index\000"
 12232      616E5F65 
 12232      73635F69 
 12232      6E646578 
 12232      00
 12233              	.LASF279:
 12234 0b09 6D5F7365 		.ascii	"m_sensor_port_mode\000"
 12234      6E736F72 
 12234      5F706F72 
 12234      745F6D6F 
 12234      646500
 12235              	.LASF272:
 12236 0b1c 63635F6D 		.ascii	"cc_min_current\000"
 12236      696E5F63 
 12236      75727265 
 12236      6E7400
 12237              	.LASF255:
 12238 0b2b 6770645F 		.ascii	"gpd_buffer_notify_left\000"
 12238      62756666 
 12238      65725F6E 
 12238      6F746966 
 12238      795F6C65 
 12239              	.LASF103:
 12240 0b42 63685F6D 		.ascii	"ch_mutex\000"
 12240      75746578 
 12240      00
 12241              	.LASF416:
 12242 0b4b 74696D65 		.ascii	"timeout_msec\000"
 12242      6F75745F 
 12242      6D736563 
 12242      00
 12243              	.LASF12:
 12244 0b58 5F5F7569 		.ascii	"__uint64_t\000"
 12244      6E743634 
 12244      5F7400
 12245              	.LASF271:
 12246 0b63 63635F73 		.ascii	"cc_startup_boost_duty\000"
 12246      74617274 
 12246      75705F62 
 12246      6F6F7374 
 12246      5F647574 
 12247              	.LASF287:
 12248 0b79 6D5F6F75 		.ascii	"m_out_aux_mode\000"
 12248      745F6175 
 12248      785F6D6F 
 12248      646500
 12249              	.LASF144:
 12250 0b88 4F55545F 		.ascii	"OUT_AUX_MODE_OFF\000"
 12250      4155585F 
 12250      4D4F4445 
ARM GAS  /tmp/ccOR9P9P.s 			page 225


 12250      5F4F4646 
 12250      00
 12251              	.LASF246:
 12252 0b99 666F635F 		.ascii	"foc_sensor_mode\000"
 12252      73656E73 
 12252      6F725F6D 
 12252      6F646500 
 12253              	.LASF222:
 12254 0ba9 666F635F 		.ascii	"foc_f_sw\000"
 12254      665F7377 
 12254      00
 12255              	.LASF307:
 12256 0bb2 5448525F 		.ascii	"THR_EXP_NATURAL\000"
 12256      4558505F 
 12256      4E415455 
 12256      52414C00 
 12257              	.LASF351:
 12258 0bc2 766F6C74 		.ascii	"voltage_start\000"
 12258      6167655F 
 12258      73746172 
 12258      7400
 12259              	.LASF425:
 12260 0bd0 6170705F 		.ascii	"app_to_use\000"
 12260      746F5F75 
 12260      736500
 12261              	.LASF331:
 12262 0bdb 72616D70 		.ascii	"ramp_time_neg\000"
 12262      5F74696D 
 12262      655F6E65 
 12262      6700
 12263              	.LASF192:
 12264 0be9 6C5F6261 		.ascii	"l_battery_cut_end\000"
 12264      74746572 
 12264      795F6375 
 12264      745F656E 
 12264      6400
 12265              	.LASF274:
 12266 0bfb 63635F72 		.ascii	"cc_ramp_step_max\000"
 12266      616D705F 
 12266      73746570 
 12266      5F6D6178 
 12266      00
 12267              	.LASF173:
 12268 0c0c 42415454 		.ascii	"BATTERY_TYPE_LEAD_ACID\000"
 12268      4552595F 
 12268      54595045 
 12268      5F4C4541 
 12268      445F4143 
 12269              	.LASF134:
 12270 0c23 434F4D4D 		.ascii	"COMM_MODE_DELAY\000"
 12270      5F4D4F44 
 12270      455F4445 
 12270      4C415900 
 12271              	.LASF116:
 12272 0c33 63665F6F 		.ascii	"cf_off_ctx\000"
 12272      66665F63 
 12272      747800
ARM GAS  /tmp/ccOR9P9P.s 			page 226


 12273              	.LASF120:
 12274 0c3e 63665F6F 		.ascii	"cf_off_stklimit\000"
 12274      66665F73 
 12274      746B6C69 
 12274      6D697400 
 12275              	.LASF451:
 12276 0c4e 62756666 		.ascii	"buffer_append_int16\000"
 12276      65725F61 
 12276      7070656E 
 12276      645F696E 
 12276      74313600 
 12277              	.LASF377:
 12278 0c62 4E52465F 		.ascii	"NRF_POWER_OFF\000"
 12278      504F5745 
 12278      525F4F46 
 12278      4600
 12279              	.LASF403:
 12280 0c70 72657472 		.ascii	"retry_delay\000"
 12280      795F6465 
 12280      6C617900 
 12281              	.LASF152:
 12282 0c7c 4D4F544F 		.ascii	"MOTOR_TYPE_GPD\000"
 12282      525F5459 
 12282      50455F47 
 12282      504400
 12283              	.LASF393:
 12284 0c8b 4E52465F 		.ascii	"NRF_RETR_DELAY_2750US\000"
 12284      52455452 
 12284      5F44454C 
 12284      41595F32 
 12284      37353055 
 12285              	.LASF139:
 12286 0ca1 6D635F73 		.ascii	"mc_sensor_mode\000"
 12286      656E736F 
 12286      725F6D6F 
 12286      646500
 12287              	.LASF455:
 12288 0cb0 2F686F6D 		.ascii	"/home/patrick/git_bldc\000"
 12288      652F7061 
 12288      74726963 
 12288      6B2F6769 
 12288      745F626C 
 12289              	.LASF320:
 12290 0cc7 7069645F 		.ascii	"pid_max_erpm\000"
 12290      6D61785F 
 12290      6572706D 
 12290      00
 12291              	.LASF70:
 12292 0cd4 76745F64 		.ascii	"vt_delta\000"
 12292      656C7461 
 12292      00
 12293              	.LASF298:
 12294 0cdd 4150505F 		.ascii	"APP_ADC\000"
 12294      41444300 
 12295              	.LASF443:
 12296 0ce5 62756666 		.ascii	"buffer_get_uint32\000"
 12296      65725F67 
ARM GAS  /tmp/ccOR9P9P.s 			page 227


 12296      65745F75 
 12296      696E7433 
 12296      3200
 12297              	.LASF230:
 12298 0cf7 666F635F 		.ascii	"foc_encoder_cos_gain\000"
 12298      656E636F 
 12298      6465725F 
 12298      636F735F 
 12298      6761696E 
 12299              	.LASF210:
 12300 0d0c 6C6F5F63 		.ascii	"lo_current_motor_min_now\000"
 12300      75727265 
 12300      6E745F6D 
 12300      6F746F72 
 12300      5F6D696E 
 12301              	.LASF16:
 12302 0d25 75696E74 		.ascii	"uint8_t\000"
 12302      385F7400 
 12303              	.LASF62:
 12304 0d2d 725F6E65 		.ascii	"r_newer\000"
 12304      77657200 
 12305              	.LASF273:
 12306 0d35 63635F67 		.ascii	"cc_gain\000"
 12306      61696E00 
 12307              	.LASF225:
 12308 0d3d 666F635F 		.ascii	"foc_encoder_inverted\000"
 12308      656E636F 
 12308      6465725F 
 12308      696E7665 
 12308      72746564 
 12309              	.LASF181:
 12310 0d52 6C5F696E 		.ascii	"l_in_current_max\000"
 12310      5F637572 
 12310      72656E74 
 12310      5F6D6178 
 12310      00
 12311              	.LASF23:
 12312 0d63 74737461 		.ascii	"tstate_t\000"
 12312      74655F74 
 12312      00
 12313              	.LASF328:
 12314 0d6c 7468726F 		.ascii	"throttle_exp_brake\000"
 12314      74746C65 
 12314      5F657870 
 12314      5F627261 
 12314      6B6500
 12315              	.LASF324:
 12316 0d7f 70756C73 		.ascii	"pulse_center\000"
 12316      655F6365 
 12316      6E746572 
 12316      00
 12317              	.LASF313:
 12318 0d8c 50504D5F 		.ascii	"PPM_CTRL_TYPE_CURRENT_NOREV_BRAKE\000"
 12318      4354524C 
 12318      5F545950 
 12318      455F4355 
 12318      5252454E 
ARM GAS  /tmp/ccOR9P9P.s 			page 228


 12319              	.LASF11:
 12320 0dae 6C6F6E67 		.ascii	"long long int\000"
 12320      206C6F6E 
 12320      6720696E 
 12320      7400
 12321              	.LASF413:
 12322 0dbc 43414E5F 		.ascii	"CAN_STATUS_1_2_3_4\000"
 12322      53544154 
 12322      55535F31 
 12322      5F325F33 
 12322      5F3400
 12323              	.LASF37:
 12324 0dcf 705F6F6C 		.ascii	"p_older\000"
 12324      64657200 
 12325              	.LASF39:
 12326 0dd7 705F7374 		.ascii	"p_state\000"
 12326      61746500 
 12327              	.LASF194:
 12328 0ddf 6C5F7465 		.ascii	"l_temp_fet_start\000"
 12328      6D705F66 
 12328      65745F73 
 12328      74617274 
 12328      00
 12329              	.LASF306:
 12330 0df0 5448525F 		.ascii	"THR_EXP_EXPO\000"
 12330      4558505F 
 12330      4558504F 
 12330      00
 12331              	.LASF59:
 12332 0dfd 725F7175 		.ascii	"r_queue\000"
 12332      65756500 
 12333              	.LASF310:
 12334 0e05 50504D5F 		.ascii	"PPM_CTRL_TYPE_NONE\000"
 12334      4354524C 
 12334      5F545950 
 12334      455F4E4F 
 12334      4E4500
 12335              	.LASF185:
 12336 0e18 6C5F6D61 		.ascii	"l_max_erpm\000"
 12336      785F6572 
 12336      706D00
 12337              	.LASF354:
 12338 0e23 766F6C74 		.ascii	"voltage2_start\000"
 12338      61676532 
 12338      5F737461 
 12338      727400
 12339              	.LASF289:
 12340 0e32 73695F67 		.ascii	"si_gear_ratio\000"
 12340      6561725F 
 12340      72617469 
 12340      6F00
 12341              	.LASF50:
 12342 0e40 705F6D70 		.ascii	"p_mpool\000"
 12342      6F6F6C00 
 12343              	.LASF48:
 12344 0e48 705F6D74 		.ascii	"p_mtxlist\000"
 12344      786C6973 
ARM GAS  /tmp/ccOR9P9P.s 			page 229


 12344      7400
 12345              	.LASF347:
 12346 0e52 4144435F 		.ascii	"ADC_CTRL_TYPE_PID\000"
 12346      4354524C 
 12346      5F545950 
 12346      455F5049 
 12346      4400
 12347              	.LASF296:
 12348 0e64 4150505F 		.ascii	"APP_NONE\000"
 12348      4E4F4E45 
 12348      00
 12349              	.LASF53:
 12350 0e6d 63685F74 		.ascii	"ch_thread\000"
 12350      68726561 
 12350      6400
 12351              	.LASF314:
 12352 0e77 50504D5F 		.ascii	"PPM_CTRL_TYPE_DUTY\000"
 12352      4354524C 
 12352      5F545950 
 12352      455F4455 
 12352      545900
 12353              	.LASF369:
 12354 0e8a 4E52465F 		.ascii	"NRF_SPEED_250K\000"
 12354      53504545 
 12354      445F3235 
 12354      304B00
 12355              	.LASF415:
 12356 0e99 636F6E74 		.ascii	"controller_id\000"
 12356      726F6C6C 
 12356      65725F69 
 12356      6400
 12357              	.LASF419:
 12358 0ea7 73656E64 		.ascii	"send_can_status_rate_hz\000"
 12358      5F63616E 
 12358      5F737461 
 12358      7475735F 
 12358      72617465 
 12359              	.LASF76:
 12360 0ebf 73797374 		.ascii	"system_debug_t\000"
 12360      656D5F64 
 12360      65627567 
 12360      5F7400
 12361              	.LASF224:
 12362 0ece 666F635F 		.ascii	"foc_encoder_offset\000"
 12362      656E636F 
 12362      6465725F 
 12362      6F666673 
 12362      657400
 12363              	.LASF440:
 12364 0ee1 636F6E66 		.ascii	"confgenerator_serialize_appconf\000"
 12364      67656E65 
 12364      7261746F 
 12364      725F7365 
 12364      7269616C 
 12365              	.LASF303:
 12366 0f01 4150505F 		.ascii	"APP_NRF\000"
 12366      4E524600 
ARM GAS  /tmp/ccOR9P9P.s 			page 230


 12367              	.LASF165:
 12368 0f09 64727638 		.ascii	"drv8301_oc_mode\000"
 12368      3330315F 
 12368      6F635F6D 
 12368      6F646500 
 12369              	.LASF56:
 12370 0f19 63685F74 		.ascii	"ch_threads_queue\000"
 12370      68726561 
 12370      64735F71 
 12370      75657565 
 12370      00
 12371              	.LASF358:
 12372 0f2a 7265765F 		.ascii	"rev_button_inverted\000"
 12372      62757474 
 12372      6F6E5F69 
 12372      6E766572 
 12372      74656400 
 12373              	.LASF167:
 12374 0f3e 43414E5F 		.ascii	"CAN_BAUD_250K\000"
 12374      42415544 
 12374      5F323530 
 12374      4B00
 12375              	.LASF207:
 12376 0f4c 6C6F5F69 		.ascii	"lo_in_current_max\000"
 12376      6E5F6375 
 12376      7272656E 
 12376      745F6D61 
 12376      7800
 12377              	.LASF323:
 12378 0f5e 70756C73 		.ascii	"pulse_end\000"
 12378      655F656E 
 12378      6400
 12379              	.LASF338:
 12380 0f68 4144435F 		.ascii	"ADC_CTRL_TYPE_CURRENT_REV_BUTTON\000"
 12380      4354524C 
 12380      5F545950 
 12380      455F4355 
 12380      5252454E 
 12381              	.LASF156:
 12382 0f89 53454E53 		.ascii	"SENSOR_PORT_MODE_AS5047_SPI\000"
 12382      4F525F50 
 12382      4F52545F 
 12382      4D4F4445 
 12382      5F415335 
 12383              	.LASF441:
 12384 0fa5 636F6E66 		.ascii	"confgenerator_serialize_mcconf\000"
 12384      67656E65 
 12384      7261746F 
 12384      725F7365 
 12384      7269616C 
 12385              	.LASF188:
 12386 0fc4 6C5F6D61 		.ascii	"l_max_erpm_fbrake_cc\000"
 12386      785F6572 
 12386      706D5F66 
 12386      6272616B 
 12386      655F6363 
 12387              	.LASF203:
ARM GAS  /tmp/ccOR9P9P.s 			page 231


 12388 0fd9 6C5F6375 		.ascii	"l_current_max_scale\000"
 12388      7272656E 
 12388      745F6D61 
 12388      785F7363 
 12388      616C6500 
 12389              	.LASF364:
 12390 0fed 4348554B 		.ascii	"CHUK_CTRL_TYPE_CURRENT\000"
 12390      5F435452 
 12390      4C5F5459 
 12390      50455F43 
 12390      55525245 
 12391              	.LASF27:
 12392 1004 6D73675F 		.ascii	"msg_t\000"
 12392      7400
 12393              	.LASF49:
 12394 100a 705F7265 		.ascii	"p_realprio\000"
 12394      616C7072 
 12394      696F00
 12395              	.LASF397:
 12396 1015 4E52465F 		.ascii	"NRF_RETR_DELAY_3750US\000"
 12396      52455452 
 12396      5F44454C 
 12396      41595F33 
 12396      37353055 
 12397              	.LASF89:
 12398 102b 636F6E74 		.ascii	"context\000"
 12398      65787400 
 12399              	.LASF238:
 12400 1033 666F635F 		.ascii	"foc_pll_ki\000"
 12400      706C6C5F 
 12400      6B6900
 12401              	.LASF275:
 12402 103e 6D5F6661 		.ascii	"m_fault_stop_time_ms\000"
 12402      756C745F 
 12402      73746F70 
 12402      5F74696D 
 12402      655F6D73 
 12403              	.LASF161:
 12404 1053 44525638 		.ascii	"DRV8301_OC_LIMIT\000"
 12404      3330315F 
 12404      4F435F4C 
 12404      494D4954 
 12404      00
 12405              	.LASF137:
 12406 1064 53454E53 		.ascii	"SENSOR_MODE_SENSORED\000"
 12406      4F525F4D 
 12406      4F44455F 
 12406      53454E53 
 12406      4F524544 
 12407              	.LASF237:
 12408 1079 666F635F 		.ascii	"foc_pll_kp\000"
 12408      706C6C5F 
 12408      6B7000
 12409              	.LASF40:
 12410 1084 705F666C 		.ascii	"p_flags\000"
 12410      61677300 
 12411              	.LASF226:
ARM GAS  /tmp/ccOR9P9P.s 			page 232


 12412 108c 666F635F 		.ascii	"foc_encoder_ratio\000"
 12412      656E636F 
 12412      6465725F 
 12412      72617469 
 12412      6F00
 12413              	.LASF66:
 12414 109e 76697274 		.ascii	"virtual_timer_t\000"
 12414      75616C5F 
 12414      74696D65 
 12414      725F7400 
 12415              	.LASF232:
 12416 10ae 666F635F 		.ascii	"foc_motor_l\000"
 12416      6D6F746F 
 12416      725F6C00 
 12417              	.LASF123:
 12418 10ba 63665F6F 		.ascii	"cf_off_refs\000"
 12418      66665F72 
 12418      65667300 
 12419              	.LASF245:
 12420 10c6 666F635F 		.ascii	"foc_sl_d_current_factor\000"
 12420      736C5F64 
 12420      5F637572 
 12420      72656E74 
 12420      5F666163 
 12421              	.LASF233:
 12422 10de 666F635F 		.ascii	"foc_motor_r\000"
 12422      6D6F746F 
 12422      725F7200 
 12423              	.LASF278:
 12424 10ea 6D5F656E 		.ascii	"m_encoder_counts\000"
 12424      636F6465 
 12424      725F636F 
 12424      756E7473 
 12424      00
 12425              	.LASF337:
 12426 10fb 4144435F 		.ascii	"ADC_CTRL_TYPE_CURRENT_REV_CENTER\000"
 12426      4354524C 
 12426      5F545950 
 12426      455F4355 
 12426      5252454E 
 12427              	.LASF361:
 12428 111c 75706461 		.ascii	"update_rate_hz\000"
 12428      74655F72 
 12428      6174655F 
 12428      687A00
 12429              	.LASF209:
 12430 112b 6C6F5F63 		.ascii	"lo_current_motor_max_now\000"
 12430      75727265 
 12430      6E745F6D 
 12430      6F746F72 
 12430      5F6D6178 
 12431              	.LASF327:
 12432 1144 7468726F 		.ascii	"throttle_exp\000"
 12432      74746C65 
 12432      5F657870 
 12432      00
 12433              	.LASF109:
ARM GAS  /tmp/ccOR9P9P.s 			page 233


 12434 1151 63685F7A 		.ascii	"ch_zero\000"
 12434      65726F00 
 12435              	.LASF344:
 12436 1159 4144435F 		.ascii	"ADC_CTRL_TYPE_DUTY\000"
 12436      4354524C 
 12436      5F545950 
 12436      455F4455 
 12436      545900
 12437              	.LASF388:
 12438 116c 4E52465F 		.ascii	"NRF_RETR_DELAY_1500US\000"
 12438      52455452 
 12438      5F44454C 
 12438      41595F31 
 12438      35303055 
 12439              	.LASF25:
 12440 1182 74736C69 		.ascii	"tslices_t\000"
 12440      6365735F 
 12440      7400
 12441              	.LASF63:
 12442 118c 725F6F6C 		.ascii	"r_older\000"
 12442      64657200 
 12443              	.LASF411:
 12444 1194 43414E5F 		.ascii	"CAN_STATUS_1_2\000"
 12444      53544154 
 12444      55535F31 
 12444      5F3200
 12445              	.LASF133:
 12446 11a3 434F4D4D 		.ascii	"COMM_MODE_INTEGRATE\000"
 12446      5F4D4F44 
 12446      455F494E 
 12446      54454752 
 12446      41544500 
 12447              	.LASF154:
 12448 11b7 53454E53 		.ascii	"SENSOR_PORT_MODE_HALL\000"
 12448      4F525F50 
 12448      4F52545F 
 12448      4D4F4445 
 12448      5F48414C 
 12449              	.LASF394:
 12450 11cd 4E52465F 		.ascii	"NRF_RETR_DELAY_3000US\000"
 12450      52455452 
 12450      5F44454C 
 12450      41595F33 
 12450      30303055 
 12451              	.LASF334:
 12452 11e3 70706D5F 		.ascii	"ppm_config\000"
 12452      636F6E66 
 12452      696700
 12453              	.LASF46:
 12454 11ee 705F6D73 		.ascii	"p_msg\000"
 12454      6700
 12455              	.LASF0:
 12456 11f4 5F5F696E 		.ascii	"__int8_t\000"
 12456      74385F74 
 12456      00
 12457              	.LASF22:
 12458 11fd 746D6F64 		.ascii	"tmode_t\000"
ARM GAS  /tmp/ccOR9P9P.s 			page 234


 12458      655F7400 
 12459              	.LASF378:
 12460 1205 4E52465F 		.ascii	"NRF_POWER\000"
 12460      504F5745 
 12460      5200
 12461              	.LASF336:
 12462 120f 4144435F 		.ascii	"ADC_CTRL_TYPE_CURRENT\000"
 12462      4354524C 
 12462      5F545950 
 12462      455F4355 
 12462      5252454E 
 12463              	.LASF110:
 12464 1225 63685F73 		.ascii	"ch_size\000"
 12464      697A6500 
 12465              	.LASF83:
 12466 122d 6D61696E 		.ascii	"mainthread\000"
 12466      74687265 
 12466      616400
 12467              	.LASF452:
 12468 1238 62756666 		.ascii	"buffer_append_int32\000"
 12468      65725F61 
 12468      7070656E 
 12468      645F696E 
 12468      74333200 
 12469              	.LASF6:
 12470 124c 73686F72 		.ascii	"short unsigned int\000"
 12470      7420756E 
 12470      7369676E 
 12470      65642069 
 12470      6E7400
 12471              	.LASF429:
 12472 125f 6170705F 		.ascii	"app_chuk_conf\000"
 12472      6368756B 
 12472      5F636F6E 
 12472      6600
 12473              	.LASF38:
 12474 126d 705F6E61 		.ascii	"p_name\000"
 12474      6D6500
 12475              	.LASF247:
 12476 1274 666F635F 		.ascii	"foc_hall_table\000"
 12476      68616C6C 
 12476      5F746162 
 12476      6C6500
 12477              	.LASF17:
 12478 1283 75696E74 		.ascii	"uint16_t\000"
 12478      31365F74 
 12478      00
 12479              	.LASF359:
 12480 128c 766F6C74 		.ascii	"voltage_inverted\000"
 12480      6167655F 
 12480      696E7665 
 12480      72746564 
 12480      00
 12481              	.LASF51:
 12482 129d 74687265 		.ascii	"thread_reference_t\000"
 12482      61645F72 
 12482      65666572 
ARM GAS  /tmp/ccOR9P9P.s 			page 235


 12482      656E6365 
 12482      5F7400
 12483              	.LASF292:
 12484 12b0 73695F62 		.ascii	"si_battery_cells\000"
 12484      61747465 
 12484      72795F63 
 12484      656C6C73 
 12484      00
 12485              	.LASF126:
 12486 12c1 63686465 		.ascii	"chdebug_t\000"
 12486      6275675F 
 12486      7400
 12487              	.LASF379:
 12488 12cb 4E52465F 		.ascii	"NRF_CRC_DISABLED\000"
 12488      4352435F 
 12488      44495341 
 12488      424C4544 
 12488      00
 12489              	.LASF21:
 12490 12dc 7274636E 		.ascii	"rtcnt_t\000"
 12490      745F7400 
 12491              	.LASF405:
 12492 12e4 6368616E 		.ascii	"channel\000"
 12492      6E656C00 
 12493              	.LASF244:
 12494 12ec 666F635F 		.ascii	"foc_sl_d_current_duty\000"
 12494      736C5F64 
 12494      5F637572 
 12494      72656E74 
 12494      5F647574 
 12495              	.LASF375:
 12496 1302 4E52465F 		.ascii	"NRF_POWER_M6DBM\000"
 12496      504F5745 
 12496      525F4D36 
 12496      44424D00 
 12497              	.LASF234:
 12498 1312 666F635F 		.ascii	"foc_motor_flux_linkage\000"
 12498      6D6F746F 
 12498      725F666C 
 12498      75785F6C 
 12498      696E6B61 
 12499              	.LASF348:
 12500 1329 4144435F 		.ascii	"ADC_CTRL_TYPE_PID_REV_CENTER\000"
 12500      4354524C 
 12500      5F545950 
 12500      455F5049 
 12500      445F5245 
 12501              	.LASF261:
 12502 1346 735F7069 		.ascii	"s_pid_ki\000"
 12502      645F6B69 
 12502      00
 12503              	.LASF136:
 12504 134f 53454E53 		.ascii	"SENSOR_MODE_SENSORLESS\000"
 12504      4F525F4D 
 12504      4F44455F 
 12504      53454E53 
 12504      4F524C45 
ARM GAS  /tmp/ccOR9P9P.s 			page 236


 12505              	.LASF184:
 12506 1366 6C5F6D69 		.ascii	"l_min_erpm\000"
 12506      6E5F6572 
 12506      706D00
 12507              	.LASF374:
 12508 1371 4E52465F 		.ascii	"NRF_POWER_M12DBM\000"
 12508      504F5745 
 12508      525F4D31 
 12508      3244424D 
 12508      00
 12509              	.LASF322:
 12510 1382 70756C73 		.ascii	"pulse_start\000"
 12510      655F7374 
 12510      61727400 
 12511              	.LASF111:
 12512 138e 63685F76 		.ascii	"ch_version\000"
 12512      65727369 
 12512      6F6E00
 12513              	.LASF170:
 12514 1399 43414E5F 		.ascii	"CAN_BAUD\000"
 12514      42415544 
 12514      00
 12515              	.LASF201:
 12516 13a2 6C5F7761 		.ascii	"l_watt_max\000"
 12516      74745F6D 
 12516      617800
 12517              	.LASF449:
 12518 13ad 62756666 		.ascii	"buffer_append_float32_auto\000"
 12518      65725F61 
 12518      7070656E 
 12518      645F666C 
 12518      6F617433 
 12519              	.LASF64:
 12520 13c8 725F6375 		.ascii	"r_current\000"
 12520      7272656E 
 12520      7400
 12521              	.LASF183:
 12522 13d2 6C5F6162 		.ascii	"l_abs_current_max\000"
 12522      735F6375 
 12522      7272656E 
 12522      745F6D61 
 12522      7800
 12523              	.LASF47:
 12524 13e4 705F6570 		.ascii	"p_epending\000"
 12524      656E6469 
 12524      6E6700
 12525              	.LASF104:
 12526 13ef 6D5F7175 		.ascii	"m_queue\000"
 12526      65756500 
 12527              	.LASF248:
 12528 13f7 666F635F 		.ascii	"foc_sl_erpm\000"
 12528      736C5F65 
 12528      72706D00 
 12529              	.LASF90:
 12530 1403 706F7274 		.ascii	"port_intctx\000"
 12530      5F696E74 
 12530      63747800 
ARM GAS  /tmp/ccOR9P9P.s 			page 237


 12531              	.LASF212:
 12532 140f 736C5F6D 		.ascii	"sl_min_erpm_cycle_int_limit\000"
 12532      696E5F65 
 12532      72706D5F 
 12532      6379636C 
 12532      655F696E 
 12533              	.LASF85:
 12534 142b 49544D5F 		.ascii	"ITM_RxBuffer\000"
 12534      52784275 
 12534      66666572 
 12534      00
 12535              	.LASF426:
 12536 1438 6170705F 		.ascii	"app_ppm_conf\000"
 12536      70706D5F 
 12536      636F6E66 
 12536      00
 12537              	.LASF302:
 12538 1445 4150505F 		.ascii	"APP_NUNCHUK\000"
 12538      4E554E43 
 12538      48554B00 
 12539              	.LASF80:
 12540 1451 63685F73 		.ascii	"ch_system\000"
 12540      79737465 
 12540      6D00
 12541              	.LASF105:
 12542 145b 6D5F6F77 		.ascii	"m_owner\000"
 12542      6E657200 
 12543              	.LASF343:
 12544 1463 4144435F 		.ascii	"ADC_CTRL_TYPE_CURRENT_NOREV_BRAKE_ADC\000"
 12544      4354524C 
 12544      5F545950 
 12544      455F4355 
 12544      5252454E 
 12545              	.LASF32:
 12546 1489 705F6E65 		.ascii	"p_next\000"
 12546      787400
 12547              	.LASF20:
 12548 1490 75696E74 		.ascii	"uint64_t\000"
 12548      36345F74 
 12548      00
 12549              	.LASF35:
 12550 1499 705F6374 		.ascii	"p_ctx\000"
 12550      7800
 12551              	.LASF155:
 12552 149f 53454E53 		.ascii	"SENSOR_PORT_MODE_ABI\000"
 12552      4F525F50 
 12552      4F52545F 
 12552      4D4F4445 
 12552      5F414249 
 12553              	.LASF81:
 12554 14b4 726C6973 		.ascii	"rlist\000"
 12554      7400
 12555              	.LASF431:
 12556 14ba 6170705F 		.ascii	"app_configuration\000"
 12556      636F6E66 
 12556      69677572 
 12556      6174696F 
ARM GAS  /tmp/ccOR9P9P.s 			page 238


 12556      6E00
 12557              	.LASF420:
 12558 14cc 63616E5F 		.ascii	"can_baud_rate\000"
 12558      62617564 
 12558      5F726174 
 12558      6500
 12559              	.LASF438:
 12560 14da 636F6E66 		.ascii	"confgenerator_deserialize_appconf\000"
 12560      67656E65 
 12560      7261746F 
 12560      725F6465 
 12560      73657269 
 12561              	.LASF301:
 12562 14fc 4150505F 		.ascii	"APP_ADC_UART\000"
 12562      4144435F 
 12562      55415254 
 12562      00
 12563              	.LASF125:
 12564 1509 63665F6F 		.ascii	"cf_off_time\000"
 12564      66665F74 
 12564      696D6500 
 12565              	.LASF122:
 12566 1515 63665F6F 		.ascii	"cf_off_flags\000"
 12566      66665F66 
 12566      6C616773 
 12566      00
 12567              	.LASF171:
 12568 1522 42415454 		.ascii	"BATTERY_TYPE_LIION_3_0__4_2\000"
 12568      4552595F 
 12568      54595045 
 12568      5F4C4949 
 12568      4F4E5F33 
 12569              	.LASF115:
 12570 153e 63665F6F 		.ascii	"cf_off_prio\000"
 12570      66665F70 
 12570      72696F00 
 12571              	.LASF1:
 12572 154a 5F5F7569 		.ascii	"__uint8_t\000"
 12572      6E74385F 
 12572      7400
 12573              	.LASF258:
 12574 1554 6770645F 		.ascii	"gpd_current_kp\000"
 12574      63757272 
 12574      656E745F 
 12574      6B7000
 12575              	.LASF383:
 12576 1563 4E52465F 		.ascii	"NRF_RETR_DELAY_250US\000"
 12576      52455452 
 12576      5F44454C 
 12576      41595F32 
 12576      35305553 
 12577              	.LASF290:
 12578 1578 73695F77 		.ascii	"si_wheel_diameter\000"
 12578      6865656C 
 12578      5F646961 
 12578      6D657465 
 12578      7200
ARM GAS  /tmp/ccOR9P9P.s 			page 239


 12579              	.LASF179:
 12580 158a 6C5F6375 		.ascii	"l_current_max\000"
 12580      7272656E 
 12580      745F6D61 
 12580      7800
 12581              	.LASF389:
 12582 1598 4E52465F 		.ascii	"NRF_RETR_DELAY_1750US\000"
 12582      52455452 
 12582      5F44454C 
 12582      41595F31 
 12582      37353055 
 12583              	.LASF283:
 12584 15ae 6D5F626C 		.ascii	"m_bldc_f_sw_min\000"
 12584      64635F66 
 12584      5F73775F 
 12584      6D696E00 
 12585              	.LASF250:
 12586 15be 666F635F 		.ascii	"foc_sample_high_current\000"
 12586      73616D70 
 12586      6C655F68 
 12586      6967685F 
 12586      63757272 
 12587              	.LASF108:
 12588 15d6 63685F69 		.ascii	"ch_identifier\000"
 12588      64656E74 
 12588      69666965 
 12588      7200
 12589              	.LASF159:
 12590 15e4 73656E73 		.ascii	"sensor_port_mode\000"
 12590      6F725F70 
 12590      6F72745F 
 12590      6D6F6465 
 12590      00
 12591              	.LASF241:
 12592 15f5 666F635F 		.ascii	"foc_openloop_rpm\000"
 12592      6F70656E 
 12592      6C6F6F70 
 12592      5F72706D 
 12592      00
 12593              	.LASF339:
 12594 1606 4144435F 		.ascii	"ADC_CTRL_TYPE_CURRENT_REV_BUTTON_BRAKE_ADC\000"
 12594      4354524C 
 12594      5F545950 
 12594      455F4355 
 12594      5252454E 
 12595              	.LASF162:
 12596 1631 44525638 		.ascii	"DRV8301_OC_LATCH_SHUTDOWN\000"
 12596      3330315F 
 12596      4F435F4C 
 12596      41544348 
 12596      5F534855 
 12597              	.LASF214:
 12598 164b 736C5F63 		.ascii	"sl_cycle_int_limit\000"
 12598      79636C65 
 12598      5F696E74 
 12598      5F6C696D 
 12598      697400
ARM GAS  /tmp/ccOR9P9P.s 			page 240


 12599              	.LASF395:
 12600 165e 4E52465F 		.ascii	"NRF_RETR_DELAY_3250US\000"
 12600      52455452 
 12600      5F44454C 
 12600      41595F33 
 12600      32353055 
 12601              	.LASF33:
 12602 1674 705F7072 		.ascii	"p_prev\000"
 12602      657600
 12603              	.LASF24:
 12604 167b 74726566 		.ascii	"trefs_t\000"
 12604      735F7400 
 12605              	.LASF268:
 12606 1683 705F7069 		.ascii	"p_pid_kd\000"
 12606      645F6B64 
 12606      00
 12607              	.LASF10:
 12608 168c 6C6F6E67 		.ascii	"long unsigned int\000"
 12608      20756E73 
 12608      69676E65 
 12608      6420696E 
 12608      7400
 12609              	.LASF406:
 12610 169e 61646472 		.ascii	"address\000"
 12610      65737300 
 12611              	.LASF215:
 12612 16a6 736C5F70 		.ascii	"sl_phase_advance_at_br\000"
 12612      68617365 
 12612      5F616476 
 12612      616E6365 
 12612      5F61745F 
 12613              	.LASF267:
 12614 16bd 705F7069 		.ascii	"p_pid_ki\000"
 12614      645F6B69 
 12614      00
 12615              	.LASF57:
 12616 16c6 72656164 		.ascii	"ready_list_t\000"
 12616      795F6C69 
 12616      73745F74 
 12616      00
 12617              	.LASF319:
 12618 16d3 6374726C 		.ascii	"ctrl_type\000"
 12618      5F747970 
 12618      6500
 12619              	.LASF168:
 12620 16dd 43414E5F 		.ascii	"CAN_BAUD_500K\000"
 12620      42415544 
 12620      5F353030 
 12620      4B00
 12621              	.LASF266:
 12622 16eb 705F7069 		.ascii	"p_pid_kp\000"
 12622      645F6B70 
 12622      00
 12623              	.LASF18:
 12624 16f4 696E7433 		.ascii	"int32_t\000"
 12624      325F7400 
 12625              	.LASF84:
ARM GAS  /tmp/ccOR9P9P.s 			page 241


 12626 16fc 69646C65 		.ascii	"idle_thread_wa\000"
 12626      5F746872 
 12626      6561645F 
 12626      776100
 12627              	.LASF195:
 12628 170b 6C5F7465 		.ascii	"l_temp_fet_end\000"
 12628      6D705F66 
 12628      65745F65 
 12628      6E6400
 12629              	.LASF355:
 12630 171a 766F6C74 		.ascii	"voltage2_end\000"
 12630      61676532 
 12630      5F656E64 
 12630      00
 12631              	.LASF97:
 12632 1727 77747365 		.ascii	"wtsemp\000"
 12632      6D7000
 12633              	.LASF349:
 12634 172e 4144435F 		.ascii	"ADC_CTRL_TYPE_PID_REV_BUTTON\000"
 12634      4354524C 
 12634      5F545950 
 12634      455F5049 
 12634      445F5245 
 12635              	.LASF190:
 12636 174b 6C5F6D61 		.ascii	"l_max_vin\000"
 12636      785F7669 
 12636      6E00
 12637              	.LASF423:
 12638 1755 75617663 		.ascii	"uavcan_enable\000"
 12638      616E5F65 
 12638      6E61626C 
 12638      6500
 12639              	.LASF140:
 12640 1763 464F435F 		.ascii	"FOC_SENSOR_MODE_SENSORLESS\000"
 12640      53454E53 
 12640      4F525F4D 
 12640      4F44455F 
 12640      53454E53 
 12641              	.LASF384:
 12642 177e 4E52465F 		.ascii	"NRF_RETR_DELAY_500US\000"
 12642      52455452 
 12642      5F44454C 
 12642      41595F35 
 12642      30305553 
 12643              	.LASF128:
 12644 1793 6D757465 		.ascii	"mutex_t\000"
 12644      785F7400 
 12645              	.LASF293:
 12646 179b 73695F62 		.ascii	"si_battery_ah\000"
 12646      61747465 
 12646      72795F61 
 12646      6800
 12647              	.LASF385:
 12648 17a9 4E52465F 		.ascii	"NRF_RETR_DELAY_750US\000"
 12648      52455452 
 12648      5F44454C 
 12648      41595F37 
ARM GAS  /tmp/ccOR9P9P.s 			page 242


 12648      35305553 
 12649              	.LASF249:
 12650 17be 666F635F 		.ascii	"foc_sample_v0_v7\000"
 12650      73616D70 
 12650      6C655F76 
 12650      305F7637 
 12650      00
 12651              	.LASF371:
 12652 17cf 4E52465F 		.ascii	"NRF_SPEED_2M\000"
 12652      53504545 
 12652      445F324D 
 12652      00
 12653              	.LASF422:
 12654 17dc 7065726D 		.ascii	"permanent_uart_enabled\000"
 12654      616E656E 
 12654      745F7561 
 12654      72745F65 
 12654      6E61626C 
 12655              	.LASF3:
 12656 17f3 756E7369 		.ascii	"unsigned char\000"
 12656      676E6564 
 12656      20636861 
 12656      7200
 12657              	.LASF428:
 12658 1801 6170705F 		.ascii	"app_uart_baudrate\000"
 12658      75617274 
 12658      5F626175 
 12658      64726174 
 12658      6500
 12659              	.LASF333:
 12660 1813 74635F6D 		.ascii	"tc_max_diff\000"
 12660      61785F64 
 12660      69666600 
 12661              	.LASF9:
 12662 181f 5F5F7569 		.ascii	"__uint32_t\000"
 12662      6E743332 
 12662      5F7400
 12663              	.LASF206:
 12664 182a 6C6F5F63 		.ascii	"lo_current_min\000"
 12664      75727265 
 12664      6E745F6D 
 12664      696E00
 12665              	.LASF73:
 12666 1839 76697274 		.ascii	"virtual_timers_list_t\000"
 12666      75616C5F 
 12666      74696D65 
 12666      72735F6C 
 12666      6973745F 
 12667              	.LASF228:
 12668 184f 666F635F 		.ascii	"foc_encoder_sin_gain\000"
 12668      656E636F 
 12668      6465725F 
 12668      73696E5F 
 12668      6761696E 
 12669              	.LASF78:
 12670 1864 70616E69 		.ascii	"panic_msg\000"
 12670      635F6D73 
ARM GAS  /tmp/ccOR9P9P.s 			page 243


 12670      6700
 12671              	.LASF254:
 12672 186e 666F635F 		.ascii	"foc_current_filter_const\000"
 12672      63757272 
 12672      656E745F 
 12672      66696C74 
 12672      65725F63 
 12673              	.LASF439:
 12674 1887 636F6E66 		.ascii	"confgenerator_deserialize_mcconf\000"
 12674      67656E65 
 12674      7261746F 
 12674      725F6465 
 12674      73657269 
 12675              	.LASF396:
 12676 18a8 4E52465F 		.ascii	"NRF_RETR_DELAY_3500US\000"
 12676      52455452 
 12676      5F44454C 
 12676      41595F33 
 12676      35303055 
 12677              	.LASF356:
 12678 18be 7573655F 		.ascii	"use_filter\000"
 12678      66696C74 
 12678      657200
 12679              	.LASF216:
 12680 18c9 736C5F63 		.ascii	"sl_cycle_int_rpm_br\000"
 12680      79636C65 
 12680      5F696E74 
 12680      5F72706D 
 12680      5F627200 
 12681              	.LASF141:
 12682 18dd 464F435F 		.ascii	"FOC_SENSOR_MODE_ENCODER\000"
 12682      53454E53 
 12682      4F525F4D 
 12682      4F44455F 
 12682      454E434F 
 12683              	.LASF450:
 12684 18f5 62756666 		.ascii	"buffer_append_uint16\000"
 12684      65725F61 
 12684      7070656E 
 12684      645F7569 
 12684      6E743136 
 12685              	.LASF368:
 12686 190a 6368756B 		.ascii	"chuk_config\000"
 12686      5F636F6E 
 12686      66696700 
 12687              	.LASF42:
 12688 1916 705F7072 		.ascii	"p_preempt\000"
 12688      65656D70 
 12688      7400
 12689              	.LASF446:
 12690 1920 62756666 		.ascii	"buffer_get_int16\000"
 12690      65725F67 
 12690      65745F69 
 12690      6E743136 
 12690      00
 12691              	.LASF147:
 12692 1931 4F55545F 		.ascii	"OUT_AUX_MODE_ON_AFTER_10S\000"
ARM GAS  /tmp/ccOR9P9P.s 			page 244


 12692      4155585F 
 12692      4D4F4445 
 12692      5F4F4E5F 
 12692      41465445 
 12693              	.LASF204:
 12694 194b 6C5F6375 		.ascii	"l_current_min_scale\000"
 12694      7272656E 
 12694      745F6D69 
 12694      6E5F7363 
 12694      616C6500 
 12695              	.LASF367:
 12696 195f 73746963 		.ascii	"stick_erpm_per_s_in_cc\000"
 12696      6B5F6572 
 12696      706D5F70 
 12696      65725F73 
 12696      5F696E5F 
 12697              	.LASF454:
 12698 1976 636F6E66 		.ascii	"confgenerator.c\000"
 12698      67656E65 
 12698      7261746F 
 12698      722E6300 
 12699              	.LASF264:
 12700 1986 735F7069 		.ascii	"s_pid_min_erpm\000"
 12700      645F6D69 
 12700      6E5F6572 
 12700      706D00
 12701              	.LASF68:
 12702 1995 76745F6E 		.ascii	"vt_next\000"
 12702      65787400 
 12703              	.LASF142:
 12704 199d 464F435F 		.ascii	"FOC_SENSOR_MODE_HALL\000"
 12704      53454E53 
 12704      4F525F4D 
 12704      4F44455F 
 12704      48414C4C 
 12705              	.LASF251:
 12706 19b2 666F635F 		.ascii	"foc_sat_comp\000"
 12706      7361745F 
 12706      636F6D70 
 12706      00
 12707              	.LASF79:
 12708 19bf 63685F73 		.ascii	"ch_system_t\000"
 12708      79737465 
 12708      6D5F7400 
 12709              	.LASF164:
 12710 19cb 44525638 		.ascii	"DRV8301_OC_DISABLED\000"
 12710      3330315F 
 12710      4F435F44 
 12710      49534142 
 12710      4C454400 
 12711              	.LASF138:
 12712 19df 53454E53 		.ascii	"SENSOR_MODE_HYBRID\000"
 12712      4F525F4D 
 12712      4F44455F 
 12712      48594252 
 12712      494400
 12713              	.LASF407:
ARM GAS  /tmp/ccOR9P9P.s 			page 245


 12714 19f2 73656E64 		.ascii	"send_crc_ack\000"
 12714      5F637263 
 12714      5F61636B 
 12714      00
 12715              	.LASF401:
 12716 19ff 706F7765 		.ascii	"power\000"
 12716      7200
 12717              	.LASF404:
 12718 1a05 72657472 		.ascii	"retries\000"
 12718      69657300 
 12719              	.LASF277:
 12720 1a0d 6D5F6375 		.ascii	"m_current_backoff_gain\000"
 12720      7272656E 
 12720      745F6261 
 12720      636B6F66 
 12720      665F6761 
 12721              	.LASF213:
 12722 1a24 736C5F6D 		.ascii	"sl_max_fullbreak_current_dir_change\000"
 12722      61785F66 
 12722      756C6C62 
 12722      7265616B 
 12722      5F637572 
 12723              	.LASF106:
 12724 1a48 6D5F6E65 		.ascii	"m_next\000"
 12724      787400
 12725              	.LASF295:
 12726 1a4f 6D635F63 		.ascii	"mc_configuration\000"
 12726      6F6E6669 
 12726      67757261 
 12726      74696F6E 
 12726      00
 12727              	.LASF2:
 12728 1a60 7369676E 		.ascii	"signed char\000"
 12728      65642063 
 12728      68617200 
 12729              	.LASF117:
 12730 1a6c 63665F6F 		.ascii	"cf_off_newer\000"
 12730      66665F6E 
 12730      65776572 
 12730      00
 12731              	.LASF262:
 12732 1a79 735F7069 		.ascii	"s_pid_kd\000"
 12732      645F6B64 
 12732      00
 12733              	.LASF129:
 12734 1a82 50574D5F 		.ascii	"PWM_MODE_NONSYNCHRONOUS_HISW\000"
 12734      4D4F4445 
 12734      5F4E4F4E 
 12734      53594E43 
 12734      48524F4E 
 12735              	.LASF346:
 12736 1a9f 4144435F 		.ascii	"ADC_CTRL_TYPE_DUTY_REV_BUTTON\000"
 12736      4354524C 
 12736      5F545950 
 12736      455F4455 
 12736      54595F52 
 12737              	.LASF61:
ARM GAS  /tmp/ccOR9P9P.s 			page 246


 12738 1abd 725F6374 		.ascii	"r_ctx\000"
 12738      7800
 12739              	.LASF88:
 12740 1ac3 73746B61 		.ascii	"stkalign_t\000"
 12740      6C69676E 
 12740      5F7400
 12741              	.LASF300:
 12742 1ace 4150505F 		.ascii	"APP_PPM_UART\000"
 12742      50504D5F 
 12742      55415254 
 12742      00
 12743              	.LASF260:
 12744 1adb 735F7069 		.ascii	"s_pid_kp\000"
 12744      645F6B70 
 12744      00
 12745              	.LASF376:
 12746 1ae4 4E52465F 		.ascii	"NRF_POWER_0DBM\000"
 12746      504F5745 
 12746      525F3044 
 12746      424D00
 12747              	.LASF41:
 12748 1af3 705F7265 		.ascii	"p_refs\000"
 12748      667300
 12749              	.LASF151:
 12750 1afa 4D4F544F 		.ascii	"MOTOR_TYPE_FOC\000"
 12750      525F5459 
 12750      50455F46 
 12750      4F4300
 12751              	.LASF114:
 12752 1b09 63685F74 		.ascii	"ch_threadsize\000"
 12752      68726561 
 12752      6473697A 
 12752      6500
 12753              	.LASF427:
 12754 1b17 6170705F 		.ascii	"app_adc_conf\000"
 12754      6164635F 
 12754      636F6E66 
 12754      00
 12755              	.LASF127:
 12756 1b24 63685F64 		.ascii	"ch_debug\000"
 12756      65627567 
 12756      00
 12757              	.LASF71:
 12758 1b2d 76745F66 		.ascii	"vt_func\000"
 12758      756E6300 
 12759              	.LASF176:
 12760 1b35 636F6D6D 		.ascii	"comm_mode\000"
 12760      5F6D6F64 
 12760      6500
 12761              	.LASF69:
 12762 1b3f 76745F70 		.ascii	"vt_prev\000"
 12762      72657600 
 12763              	.LASF145:
 12764 1b47 4F55545F 		.ascii	"OUT_AUX_MODE_ON_AFTER_2S\000"
 12764      4155585F 
 12764      4D4F4445 
 12764      5F4F4E5F 
ARM GAS  /tmp/ccOR9P9P.s 			page 247


 12764      41465445 
 12765              	.LASF286:
 12766 1b60 6D5F6E74 		.ascii	"m_ntc_motor_beta\000"
 12766      635F6D6F 
 12766      746F725F 
 12766      62657461 
 12766      00
 12767              	.LASF390:
 12768 1b71 4E52465F 		.ascii	"NRF_RETR_DELAY_2000US\000"
 12768      52455452 
 12768      5F44454C 
 12768      41595F32 
 12768      30303055 
 12769              	.LASF252:
 12770 1b87 666F635F 		.ascii	"foc_temp_comp\000"
 12770      74656D70 
 12770      5F636F6D 
 12770      7000
 12771              	.LASF387:
 12772 1b95 4E52465F 		.ascii	"NRF_RETR_DELAY_1250US\000"
 12772      52455452 
 12772      5F44454C 
 12772      41595F31 
 12772      32353055 
 12773              	.LASF202:
 12774 1bab 6C5F7761 		.ascii	"l_watt_min\000"
 12774      74745F6D 
 12774      696E00
 12775              	.LASF410:
 12776 1bb6 43414E5F 		.ascii	"CAN_STATUS_1\000"
 12776      53544154 
 12776      55535F31 
 12776      00
 12777              	.LASF370:
 12778 1bc3 4E52465F 		.ascii	"NRF_SPEED_1M\000"
 12778      53504545 
 12778      445F314D 
 12778      00
 12779              	.LASF309:
 12780 1bd0 7468725F 		.ascii	"thr_exp_mode\000"
 12780      6578705F 
 12780      6D6F6465 
 12780      00
 12781              	.LASF363:
 12782 1bdd 4348554B 		.ascii	"CHUK_CTRL_TYPE_NONE\000"
 12782      5F435452 
 12782      4C5F5459 
 12782      50455F4E 
 12782      4F4E4500 
 12783              	.LASF96:
 12784 1bf1 77747472 		.ascii	"wttrp\000"
 12784      7000
 12785              	.LASF98:
 12786 1bf7 77746D74 		.ascii	"wtmtxp\000"
 12786      787000
 12787              	.LASF308:
 12788 1bfe 5448525F 		.ascii	"THR_EXP_POLY\000"
ARM GAS  /tmp/ccOR9P9P.s 			page 248


 12788      4558505F 
 12788      504F4C59 
 12788      00
 12789              	.LASF270:
 12790 1c0b 705F7069 		.ascii	"p_pid_ang_div\000"
 12790      645F616E 
 12790      675F6469 
 12790      7600
 12791              	.LASF175:
 12792 1c19 70776D5F 		.ascii	"pwm_mode\000"
 12792      6D6F6465 
 12792      00
 12793              	.LASF318:
 12794 1c22 70706D5F 		.ascii	"ppm_control_type\000"
 12794      636F6E74 
 12794      726F6C5F 
 12794      74797065 
 12794      00
 12795              	.LASF335:
 12796 1c33 4144435F 		.ascii	"ADC_CTRL_TYPE_NONE\000"
 12796      4354524C 
 12796      5F545950 
 12796      455F4E4F 
 12796      4E4500
 12797              	.LASF94:
 12798 1c46 65786974 		.ascii	"exitcode\000"
 12798      636F6465 
 12798      00
 12799              	.LASF448:
 12800 1c4f 62756666 		.ascii	"buffer_append_uint32\000"
 12800      65725F61 
 12800      7070656E 
 12800      645F7569 
 12800      6E743332 
 12801              	.LASF316:
 12802 1c64 50504D5F 		.ascii	"PPM_CTRL_TYPE_PID\000"
 12802      4354524C 
 12802      5F545950 
 12802      455F5049 
 12802      4400
 12803              	.LASF372:
 12804 1c76 4E52465F 		.ascii	"NRF_SPEED\000"
 12804      53504545 
 12804      4400
 12805              	.LASF36:
 12806 1c80 705F6E65 		.ascii	"p_newer\000"
 12806      77657200 
 12807              	.LASF447:
 12808 1c88 62756666 		.ascii	"buffer_get_int32\000"
 12808      65725F67 
 12808      65745F69 
 12808      6E743332 
 12808      00
 12809              	.LASF362:
 12810 1c99 6164635F 		.ascii	"adc_config\000"
 12810      636F6E66 
 12810      696700
ARM GAS  /tmp/ccOR9P9P.s 			page 249


 12811              	.LASF229:
 12812 1ca4 666F635F 		.ascii	"foc_encoder_cos_offset\000"
 12812      656E636F 
 12812      6465725F 
 12812      636F735F 
 12812      6F666673 
 12813              	.LASF253:
 12814 1cbb 666F635F 		.ascii	"foc_temp_comp_base_temp\000"
 12814      74656D70 
 12814      5F636F6D 
 12814      705F6261 
 12814      73655F74 
 12815              	.LASF187:
 12816 1cd3 6C5F6D61 		.ascii	"l_max_erpm_fbrake\000"
 12816      785F6572 
 12816      706D5F66 
 12816      6272616B 
 12816      6500
 12817              	.LASF196:
 12818 1ce5 6C5F7465 		.ascii	"l_temp_motor_start\000"
 12818      6D705F6D 
 12818      6F746F72 
 12818      5F737461 
 12818      727400
 12819              		.ident	"GCC: (GNU Tools for Arm Embedded Processors 7-2018-q3-update) 7.3.1 20180622 (release) [AR
ARM GAS  /tmp/ccOR9P9P.s 			page 250


DEFINED SYMBOLS
                            *ABS*:0000000000000000 confgenerator.c
     /tmp/ccOR9P9P.s:18     .text.confgenerator_serialize_mcconf:0000000000000000 $t
     /tmp/ccOR9P9P.s:26     .text.confgenerator_serialize_mcconf:0000000000000000 confgenerator_serialize_mcconf
     /tmp/ccOR9P9P.s:572    .text.confgenerator_serialize_mcconf:00000000000003e0 $d
     /tmp/ccOR9P9P.s:574    .text.confgenerator_serialize_mcconf:00000000000003e4 $t
     /tmp/ccOR9P9P.s:807    .text.confgenerator_serialize_appconf:0000000000000000 $t
     /tmp/ccOR9P9P.s:815    .text.confgenerator_serialize_appconf:0000000000000000 confgenerator_serialize_appconf
     /tmp/ccOR9P9P.s:1248   .text.confgenerator_serialize_appconf:00000000000002d0 $d
     /tmp/ccOR9P9P.s:1253   .text.confgenerator_deserialize_mcconf:0000000000000000 $t
     /tmp/ccOR9P9P.s:1261   .text.confgenerator_deserialize_mcconf:0000000000000000 confgenerator_deserialize_mcconf
     /tmp/ccOR9P9P.s:1308   .text.confgenerator_deserialize_mcconf:0000000000000024 $d
     /tmp/ccOR9P9P.s:1313   .text.confgenerator_deserialize_mcconf:0000000000000028 $t
     /tmp/ccOR9P9P.s:2266   .text.confgenerator_deserialize_appconf:0000000000000000 $t
     /tmp/ccOR9P9P.s:2274   .text.confgenerator_deserialize_appconf:0000000000000000 confgenerator_deserialize_appconf
     /tmp/ccOR9P9P.s:2321   .text.confgenerator_deserialize_appconf:0000000000000024 $d
     /tmp/ccOR9P9P.s:2326   .text.confgenerator_deserialize_appconf:0000000000000028 $t
     /tmp/ccOR9P9P.s:2851   .text.confgenerator_set_defaults_mcconf:0000000000000000 $t
     /tmp/ccOR9P9P.s:2859   .text.confgenerator_set_defaults_mcconf:0000000000000000 confgenerator_set_defaults_mcconf
     /tmp/ccOR9P9P.s:3265   .text.confgenerator_set_defaults_mcconf:0000000000000264 $d
     /tmp/ccOR9P9P.s:3326   .text.confgenerator_set_defaults_appconf:0000000000000000 $t
     /tmp/ccOR9P9P.s:3334   .text.confgenerator_set_defaults_appconf:0000000000000000 confgenerator_set_defaults_appconf
     /tmp/ccOR9P9P.s:3536   .text.confgenerator_set_defaults_appconf:0000000000000130 $d

UNDEFINED SYMBOLS
buffer_append_uint32
buffer_append_float32_auto
buffer_append_int16
buffer_append_int32
buffer_append_uint16
buffer_get_uint32
buffer_get_float32_auto
buffer_get_int16
buffer_get_int32
buffer_get_uint16
hw_id_from_uuid
