ARM GAS  /tmp/ccOR9P9P.s 			page 1


   1              		.cpu cortex-m4
   2              		.eabi_attribute 27, 1
   3              		.eabi_attribute 28, 1
   4              		.eabi_attribute 20, 1
   5              		.eabi_attribute 21, 1
   6              		.eabi_attribute 23, 3
   7              		.eabi_attribute 24, 1
   8              		.eabi_attribute 25, 1
   9              		.eabi_attribute 26, 1
  10              		.eabi_attribute 30, 2
  11              		.eabi_attribute 34, 1
  12              		.eabi_attribute 18, 4
  13              		.file	"confgenerator.c"
  14              		.text
  15              	.Ltext0:
  16              		.cfi_sections	.debug_frame
  17              		.section	.text.confgenerator_serialize_mcconf,"ax",%progbits
  18              		.align	1
  19              		.p2align 4,,15
  20              		.global	confgenerator_serialize_mcconf
  21              		.syntax unified
  22              		.thumb
  23              		.thumb_func
  24              		.fpu fpv4-sp-d16
  25              		.type	confgenerator_serialize_mcconf, %function
  26              	confgenerator_serialize_mcconf:
  27              	.LFB219:
  28              		.file 1 "confgenerator.c"
  29              		.loc 1 7 0
  30              		.cfi_startproc
  31              		@ args = 0, pretend = 0, frame = 8
  32              		@ frame_needed = 0, uses_anonymous_args = 0
  33              	.LVL0:
  34 0000 70B5     		push	{r4, r5, r6, lr}
  35              		.cfi_def_cfa_offset 16
  36              		.cfi_offset 4, -16
  37              		.cfi_offset 5, -12
  38              		.cfi_offset 6, -8
  39              		.cfi_offset 14, -4
  40 0002 82B0     		sub	sp, sp, #8
  41              		.cfi_def_cfa_offset 24
  42              		.loc 1 8 0
  43 0004 02AE     		add	r6, sp, #8
  44 0006 0023     		movs	r3, #0
  45 0008 46F8043D 		str	r3, [r6, #-4]!
  46              		.loc 1 7 0
  47 000c 0C46     		mov	r4, r1
  48              		.loc 1 10 0
  49 000e 3246     		mov	r2, r6
  50 0010 F349     		ldr	r1, .L4
  51              	.LVL1:
  52              		.loc 1 7 0
  53 0012 0546     		mov	r5, r0
  54              		.loc 1 10 0
  55 0014 FFF7FEFF 		bl	buffer_append_uint32
  56              	.LVL2:
  57              		.loc 1 12 0
ARM GAS  /tmp/ccOR9P9P.s 			page 2


  58 0018 019B     		ldr	r3, [sp, #4]
  59 001a 2278     		ldrb	r2, [r4]	@ zero_extendqisi2
  60 001c EA54     		strb	r2, [r5, r3]
  61              		.loc 1 13 0
  62 001e EA18     		adds	r2, r5, r3
  63 0020 6178     		ldrb	r1, [r4, #1]	@ zero_extendqisi2
  64 0022 5170     		strb	r1, [r2, #1]
  65              		.loc 1 14 0
  66 0024 A178     		ldrb	r1, [r4, #2]	@ zero_extendqisi2
  67 0026 9170     		strb	r1, [r2, #2]
  68              		.loc 1 15 0
  69 0028 E178     		ldrb	r1, [r4, #3]	@ zero_extendqisi2
  70 002a D170     		strb	r1, [r2, #3]
  71 002c 0433     		adds	r3, r3, #4
  72              		.loc 1 16 0
  73 002e 94ED010A 		vldr.32	s0, [r4, #4]
  74              		.loc 1 15 0
  75 0032 0193     		str	r3, [sp, #4]
  76              		.loc 1 16 0
  77 0034 3146     		mov	r1, r6
  78 0036 2846     		mov	r0, r5
  79 0038 FFF7FEFF 		bl	buffer_append_float32_auto
  80              	.LVL3:
  81              		.loc 1 17 0
  82 003c 3146     		mov	r1, r6
  83 003e 94ED020A 		vldr.32	s0, [r4, #8]
  84 0042 2846     		mov	r0, r5
  85 0044 FFF7FEFF 		bl	buffer_append_float32_auto
  86              	.LVL4:
  87              		.loc 1 18 0
  88 0048 3146     		mov	r1, r6
  89 004a 94ED030A 		vldr.32	s0, [r4, #12]
  90 004e 2846     		mov	r0, r5
  91 0050 FFF7FEFF 		bl	buffer_append_float32_auto
  92              	.LVL5:
  93              		.loc 1 19 0
  94 0054 3146     		mov	r1, r6
  95 0056 94ED040A 		vldr.32	s0, [r4, #16]
  96 005a 2846     		mov	r0, r5
  97 005c FFF7FEFF 		bl	buffer_append_float32_auto
  98              	.LVL6:
  99              		.loc 1 20 0
 100 0060 3146     		mov	r1, r6
 101 0062 94ED050A 		vldr.32	s0, [r4, #20]
 102 0066 2846     		mov	r0, r5
 103 0068 FFF7FEFF 		bl	buffer_append_float32_auto
 104              	.LVL7:
 105              		.loc 1 21 0
 106 006c 3146     		mov	r1, r6
 107 006e 94ED060A 		vldr.32	s0, [r4, #24]
 108 0072 2846     		mov	r0, r5
 109 0074 FFF7FEFF 		bl	buffer_append_float32_auto
 110              	.LVL8:
 111              		.loc 1 22 0
 112 0078 3146     		mov	r1, r6
 113 007a 94ED070A 		vldr.32	s0, [r4, #28]
 114 007e 2846     		mov	r0, r5
ARM GAS  /tmp/ccOR9P9P.s 			page 3


 115 0080 FFF7FEFF 		bl	buffer_append_float32_auto
 116              	.LVL9:
 117              		.loc 1 23 0
 118 0084 3146     		mov	r1, r6
 119 0086 94ED080A 		vldr.32	s0, [r4, #32]
 120 008a 2846     		mov	r0, r5
 121 008c FFF7FEFF 		bl	buffer_append_float32_auto
 122              	.LVL10:
 123              		.loc 1 24 0
 124 0090 3146     		mov	r1, r6
 125 0092 94ED090A 		vldr.32	s0, [r4, #36]
 126 0096 2846     		mov	r0, r5
 127 0098 FFF7FEFF 		bl	buffer_append_float32_auto
 128              	.LVL11:
 129              		.loc 1 25 0
 130 009c 3146     		mov	r1, r6
 131 009e 94ED0A0A 		vldr.32	s0, [r4, #40]
 132 00a2 2846     		mov	r0, r5
 133 00a4 FFF7FEFF 		bl	buffer_append_float32_auto
 134              	.LVL12:
 135              		.loc 1 26 0
 136 00a8 3146     		mov	r1, r6
 137 00aa 94ED0B0A 		vldr.32	s0, [r4, #44]
 138 00ae 2846     		mov	r0, r5
 139 00b0 FFF7FEFF 		bl	buffer_append_float32_auto
 140              	.LVL13:
 141              		.loc 1 27 0
 142 00b4 3146     		mov	r1, r6
 143 00b6 94ED0C0A 		vldr.32	s0, [r4, #48]
 144 00ba 2846     		mov	r0, r5
 145 00bc FFF7FEFF 		bl	buffer_append_float32_auto
 146              	.LVL14:
 147              		.loc 1 28 0
 148 00c0 3146     		mov	r1, r6
 149 00c2 94ED0D0A 		vldr.32	s0, [r4, #52]
 150 00c6 2846     		mov	r0, r5
 151 00c8 FFF7FEFF 		bl	buffer_append_float32_auto
 152              	.LVL15:
 153              		.loc 1 29 0
 154 00cc 3146     		mov	r1, r6
 155 00ce 94ED0E0A 		vldr.32	s0, [r4, #56]
 156 00d2 2846     		mov	r0, r5
 157 00d4 FFF7FEFF 		bl	buffer_append_float32_auto
 158              	.LVL16:
 159              		.loc 1 30 0
 160 00d8 019B     		ldr	r3, [sp, #4]
 161 00da 94F83C20 		ldrb	r2, [r4, #60]	@ zero_extendqisi2
 162 00de EA54     		strb	r2, [r5, r3]
 163              		.loc 1 31 0
 164 00e0 3146     		mov	r1, r6
 165              		.loc 1 30 0
 166 00e2 0133     		adds	r3, r3, #1
 167              		.loc 1 31 0
 168 00e4 94ED100A 		vldr.32	s0, [r4, #64]
 169              		.loc 1 30 0
 170 00e8 0193     		str	r3, [sp, #4]
 171              		.loc 1 31 0
ARM GAS  /tmp/ccOR9P9P.s 			page 4


 172 00ea 2846     		mov	r0, r5
 173 00ec FFF7FEFF 		bl	buffer_append_float32_auto
 174              	.LVL17:
 175              		.loc 1 32 0
 176 00f0 3146     		mov	r1, r6
 177 00f2 94ED110A 		vldr.32	s0, [r4, #68]
 178 00f6 2846     		mov	r0, r5
 179 00f8 FFF7FEFF 		bl	buffer_append_float32_auto
 180              	.LVL18:
 181              		.loc 1 33 0
 182 00fc 3146     		mov	r1, r6
 183 00fe 94ED120A 		vldr.32	s0, [r4, #72]
 184 0102 2846     		mov	r0, r5
 185 0104 FFF7FEFF 		bl	buffer_append_float32_auto
 186              	.LVL19:
 187              		.loc 1 34 0
 188 0108 3146     		mov	r1, r6
 189 010a 94ED130A 		vldr.32	s0, [r4, #76]
 190 010e 2846     		mov	r0, r5
 191 0110 FFF7FEFF 		bl	buffer_append_float32_auto
 192              	.LVL20:
 193              		.loc 1 35 0
 194 0114 3146     		mov	r1, r6
 195 0116 94ED140A 		vldr.32	s0, [r4, #80]
 196 011a 2846     		mov	r0, r5
 197 011c FFF7FEFF 		bl	buffer_append_float32_auto
 198              	.LVL21:
 199              		.loc 1 36 0
 200 0120 3146     		mov	r1, r6
 201 0122 94ED150A 		vldr.32	s0, [r4, #84]
 202 0126 2846     		mov	r0, r5
 203 0128 FFF7FEFF 		bl	buffer_append_float32_auto
 204              	.LVL22:
 205              		.loc 1 37 0
 206 012c 3146     		mov	r1, r6
 207 012e 94ED160A 		vldr.32	s0, [r4, #88]
 208 0132 2846     		mov	r0, r5
 209 0134 FFF7FEFF 		bl	buffer_append_float32_auto
 210              	.LVL23:
 211              		.loc 1 38 0
 212 0138 3146     		mov	r1, r6
 213 013a 94ED170A 		vldr.32	s0, [r4, #92]
 214 013e 2846     		mov	r0, r5
 215 0140 FFF7FEFF 		bl	buffer_append_float32_auto
 216              	.LVL24:
 217              		.loc 1 39 0
 218 0144 3146     		mov	r1, r6
 219 0146 94ED180A 		vldr.32	s0, [r4, #96]
 220 014a 2846     		mov	r0, r5
 221 014c FFF7FEFF 		bl	buffer_append_float32_auto
 222              	.LVL25:
 223              		.loc 1 40 0
 224 0150 3146     		mov	r1, r6
 225 0152 94ED190A 		vldr.32	s0, [r4, #100]
 226 0156 2846     		mov	r0, r5
 227 0158 FFF7FEFF 		bl	buffer_append_float32_auto
 228              	.LVL26:
ARM GAS  /tmp/ccOR9P9P.s 			page 5


 229              		.loc 1 41 0
 230 015c 3146     		mov	r1, r6
 231 015e 94ED1A0A 		vldr.32	s0, [r4, #104]
 232 0162 2846     		mov	r0, r5
 233 0164 FFF7FEFF 		bl	buffer_append_float32_auto
 234              	.LVL27:
 235              		.loc 1 42 0
 236 0168 3146     		mov	r1, r6
 237 016a 94ED210A 		vldr.32	s0, [r4, #132]
 238 016e 2846     		mov	r0, r5
 239 0170 FFF7FEFF 		bl	buffer_append_float32_auto
 240              	.LVL28:
 241              		.loc 1 43 0
 242 0174 3146     		mov	r1, r6
 243 0176 94ED220A 		vldr.32	s0, [r4, #136]
 244 017a 2846     		mov	r0, r5
 245 017c FFF7FEFF 		bl	buffer_append_float32_auto
 246              	.LVL29:
 247              		.loc 1 44 0
 248 0180 3146     		mov	r1, r6
 249 0182 94ED230A 		vldr.32	s0, [r4, #140]
 250 0186 2846     		mov	r0, r5
 251 0188 FFF7FEFF 		bl	buffer_append_float32_auto
 252              	.LVL30:
 253              		.loc 1 45 0
 254 018c 3146     		mov	r1, r6
 255 018e 94ED240A 		vldr.32	s0, [r4, #144]
 256 0192 2846     		mov	r0, r5
 257 0194 FFF7FEFF 		bl	buffer_append_float32_auto
 258              	.LVL31:
 259              		.loc 1 46 0
 260 0198 3146     		mov	r1, r6
 261 019a 94ED250A 		vldr.32	s0, [r4, #148]
 262 019e 2846     		mov	r0, r5
 263 01a0 FFF7FEFF 		bl	buffer_append_float32_auto
 264              	.LVL32:
 265              		.loc 1 47 0
 266 01a4 3146     		mov	r1, r6
 267 01a6 94ED260A 		vldr.32	s0, [r4, #152]
 268 01aa 2846     		mov	r0, r5
 269 01ac FFF7FEFF 		bl	buffer_append_float32_auto
 270              	.LVL33:
 271              		.loc 1 48 0
 272 01b0 3146     		mov	r1, r6
 273 01b2 94ED270A 		vldr.32	s0, [r4, #156]
 274 01b6 2846     		mov	r0, r5
 275 01b8 FFF7FEFF 		bl	buffer_append_float32_auto
 276              	.LVL34:
 277              		.loc 1 49 0
 278 01bc 019A     		ldr	r2, [sp, #4]
 279 01be 94F8A030 		ldrb	r3, [r4, #160]	@ zero_extendqisi2
 280 01c2 AB54     		strb	r3, [r5, r2]
 281              		.loc 1 50 0
 282 01c4 AB18     		adds	r3, r5, r2
 283 01c6 94F8A110 		ldrb	r1, [r4, #161]	@ zero_extendqisi2
 284 01ca 5970     		strb	r1, [r3, #1]
 285              		.loc 1 51 0
ARM GAS  /tmp/ccOR9P9P.s 			page 6


 286 01cc 94F8A210 		ldrb	r1, [r4, #162]	@ zero_extendqisi2
 287 01d0 9970     		strb	r1, [r3, #2]
 288              		.loc 1 52 0
 289 01d2 94F8A310 		ldrb	r1, [r4, #163]	@ zero_extendqisi2
 290 01d6 D970     		strb	r1, [r3, #3]
 291              		.loc 1 53 0
 292 01d8 94F8A410 		ldrb	r1, [r4, #164]	@ zero_extendqisi2
 293 01dc 1971     		strb	r1, [r3, #4]
 294              		.loc 1 54 0
 295 01de 94F8A510 		ldrb	r1, [r4, #165]	@ zero_extendqisi2
 296 01e2 5971     		strb	r1, [r3, #5]
 297              		.loc 1 55 0
 298 01e4 94F8A610 		ldrb	r1, [r4, #166]	@ zero_extendqisi2
 299 01e8 9971     		strb	r1, [r3, #6]
 300              		.loc 1 56 0
 301 01ea 94F9A710 		ldrsb	r1, [r4, #167]
 302 01ee D971     		strb	r1, [r3, #7]
 303 01f0 0832     		adds	r2, r2, #8
 304              		.loc 1 57 0
 305 01f2 94ED2A0A 		vldr.32	s0, [r4, #168]
 306              		.loc 1 56 0
 307 01f6 0192     		str	r2, [sp, #4]
 308              		.loc 1 57 0
 309 01f8 3146     		mov	r1, r6
 310 01fa 2846     		mov	r0, r5
 311 01fc FFF7FEFF 		bl	buffer_append_float32_auto
 312              	.LVL35:
 313              		.loc 1 58 0
 314 0200 3146     		mov	r1, r6
 315 0202 94ED2B0A 		vldr.32	s0, [r4, #172]
 316 0206 2846     		mov	r0, r5
 317 0208 FFF7FEFF 		bl	buffer_append_float32_auto
 318              	.LVL36:
 319              		.loc 1 59 0
 320 020c 3146     		mov	r1, r6
 321 020e 94ED2C0A 		vldr.32	s0, [r4, #176]
 322 0212 2846     		mov	r0, r5
 323 0214 FFF7FEFF 		bl	buffer_append_float32_auto
 324              	.LVL37:
 325              		.loc 1 60 0
 326 0218 3146     		mov	r1, r6
 327 021a 94ED2D0A 		vldr.32	s0, [r4, #180]
 328 021e 2846     		mov	r0, r5
 329 0220 FFF7FEFF 		bl	buffer_append_float32_auto
 330              	.LVL38:
 331              		.loc 1 61 0
 332 0224 3146     		mov	r1, r6
 333 0226 94ED2E0A 		vldr.32	s0, [r4, #184]
 334 022a 2846     		mov	r0, r5
 335 022c FFF7FEFF 		bl	buffer_append_float32_auto
 336              	.LVL39:
 337              		.loc 1 62 0
 338 0230 019B     		ldr	r3, [sp, #4]
 339 0232 94F8C020 		ldrb	r2, [r4, #192]	@ zero_extendqisi2
 340 0236 EA54     		strb	r2, [r5, r3]
 341              		.loc 1 63 0
 342 0238 3146     		mov	r1, r6
ARM GAS  /tmp/ccOR9P9P.s 			page 7


 343              		.loc 1 62 0
 344 023a 0133     		adds	r3, r3, #1
 345              		.loc 1 63 0
 346 023c 94ED2F0A 		vldr.32	s0, [r4, #188]
 347              		.loc 1 62 0
 348 0240 0193     		str	r3, [sp, #4]
 349              		.loc 1 63 0
 350 0242 2846     		mov	r0, r5
 351 0244 FFF7FEFF 		bl	buffer_append_float32_auto
 352              	.LVL40:
 353              		.loc 1 64 0
 354 0248 3146     		mov	r1, r6
 355 024a 94ED310A 		vldr.32	s0, [r4, #196]
 356 024e 2846     		mov	r0, r5
 357 0250 FFF7FEFF 		bl	buffer_append_float32_auto
 358              	.LVL41:
 359              		.loc 1 65 0
 360 0254 3146     		mov	r1, r6
 361 0256 94ED330A 		vldr.32	s0, [r4, #204]
 362 025a 2846     		mov	r0, r5
 363 025c FFF7FEFF 		bl	buffer_append_float32_auto
 364              	.LVL42:
 365              		.loc 1 66 0
 366 0260 3146     		mov	r1, r6
 367 0262 94ED350A 		vldr.32	s0, [r4, #212]
 368 0266 2846     		mov	r0, r5
 369 0268 FFF7FEFF 		bl	buffer_append_float32_auto
 370              	.LVL43:
 371              		.loc 1 67 0
 372 026c 3146     		mov	r1, r6
 373 026e 94ED320A 		vldr.32	s0, [r4, #200]
 374 0272 2846     		mov	r0, r5
 375 0274 FFF7FEFF 		bl	buffer_append_float32_auto
 376              	.LVL44:
 377              		.loc 1 68 0
 378 0278 3146     		mov	r1, r6
 379 027a 94ED340A 		vldr.32	s0, [r4, #208]
 380 027e 2846     		mov	r0, r5
 381 0280 FFF7FEFF 		bl	buffer_append_float32_auto
 382              	.LVL45:
 383              		.loc 1 69 0
 384 0284 3146     		mov	r1, r6
 385 0286 94ED360A 		vldr.32	s0, [r4, #216]
 386 028a 2846     		mov	r0, r5
 387 028c FFF7FEFF 		bl	buffer_append_float32_auto
 388              	.LVL46:
 389              		.loc 1 70 0
 390 0290 019B     		ldr	r3, [sp, #4]
 391 0292 94F81421 		ldrb	r2, [r4, #276]	@ zero_extendqisi2
 392 0296 EA54     		strb	r2, [r5, r3]
 393              		.loc 1 71 0
 394 0298 3146     		mov	r1, r6
 395              		.loc 1 70 0
 396 029a 0133     		adds	r3, r3, #1
 397              		.loc 1 71 0
 398 029c 94ED3C0A 		vldr.32	s0, [r4, #240]
 399              		.loc 1 70 0
ARM GAS  /tmp/ccOR9P9P.s 			page 8


 400 02a0 0193     		str	r3, [sp, #4]
 401              		.loc 1 71 0
 402 02a2 2846     		mov	r0, r5
 403 02a4 FFF7FEFF 		bl	buffer_append_float32_auto
 404              	.LVL47:
 405              		.loc 1 72 0
 406 02a8 3146     		mov	r1, r6
 407 02aa 94ED3D0A 		vldr.32	s0, [r4, #244]
 408 02ae 2846     		mov	r0, r5
 409 02b0 FFF7FEFF 		bl	buffer_append_float32_auto
 410              	.LVL48:
 411              		.loc 1 73 0
 412 02b4 3146     		mov	r1, r6
 413 02b6 94ED370A 		vldr.32	s0, [r4, #220]
 414 02ba 2846     		mov	r0, r5
 415 02bc FFF7FEFF 		bl	buffer_append_float32_auto
 416              	.LVL49:
 417              		.loc 1 74 0
 418 02c0 3146     		mov	r1, r6
 419 02c2 94ED380A 		vldr.32	s0, [r4, #224]
 420 02c6 2846     		mov	r0, r5
 421 02c8 FFF7FEFF 		bl	buffer_append_float32_auto
 422              	.LVL50:
 423              		.loc 1 75 0
 424 02cc 3146     		mov	r1, r6
 425 02ce 94ED390A 		vldr.32	s0, [r4, #228]
 426 02d2 2846     		mov	r0, r5
 427 02d4 FFF7FEFF 		bl	buffer_append_float32_auto
 428              	.LVL51:
 429              		.loc 1 76 0
 430 02d8 3146     		mov	r1, r6
 431 02da 94ED3A0A 		vldr.32	s0, [r4, #232]
 432 02de 2846     		mov	r0, r5
 433 02e0 FFF7FEFF 		bl	buffer_append_float32_auto
 434              	.LVL52:
 435              		.loc 1 77 0
 436 02e4 3146     		mov	r1, r6
 437 02e6 94ED3B0A 		vldr.32	s0, [r4, #236]
 438 02ea 2846     		mov	r0, r5
 439 02ec FFF7FEFF 		bl	buffer_append_float32_auto
 440              	.LVL53:
 441              		.loc 1 78 0
 442 02f0 3146     		mov	r1, r6
 443 02f2 94ED3E0A 		vldr.32	s0, [r4, #248]
 444 02f6 2846     		mov	r0, r5
 445 02f8 FFF7FEFF 		bl	buffer_append_float32_auto
 446              	.LVL54:
 447              		.loc 1 79 0
 448 02fc 3146     		mov	r1, r6
 449 02fe 94ED3F0A 		vldr.32	s0, [r4, #252]
 450 0302 2846     		mov	r0, r5
 451 0304 FFF7FEFF 		bl	buffer_append_float32_auto
 452              	.LVL55:
 453              		.loc 1 80 0
 454 0308 3146     		mov	r1, r6
 455 030a 94ED400A 		vldr.32	s0, [r4, #256]
 456 030e 2846     		mov	r0, r5
ARM GAS  /tmp/ccOR9P9P.s 			page 9


 457 0310 FFF7FEFF 		bl	buffer_append_float32_auto
 458              	.LVL56:
 459              		.loc 1 81 0
 460 0314 3146     		mov	r1, r6
 461 0316 94ED410A 		vldr.32	s0, [r4, #260]
 462 031a 2846     		mov	r0, r5
 463 031c FFF7FEFF 		bl	buffer_append_float32_auto
 464              	.LVL57:
 465              		.loc 1 82 0
 466 0320 3146     		mov	r1, r6
 467 0322 94ED420A 		vldr.32	s0, [r4, #264]
 468 0326 2846     		mov	r0, r5
 469 0328 FFF7FEFF 		bl	buffer_append_float32_auto
 470              	.LVL58:
 471              		.loc 1 83 0
 472 032c 3146     		mov	r1, r6
 473 032e 94ED430A 		vldr.32	s0, [r4, #268]
 474 0332 2846     		mov	r0, r5
 475 0334 FFF7FEFF 		bl	buffer_append_float32_auto
 476              	.LVL59:
 477              		.loc 1 84 0
 478 0338 3146     		mov	r1, r6
 479 033a 94ED440A 		vldr.32	s0, [r4, #272]
 480 033e 2846     		mov	r0, r5
 481 0340 FFF7FEFF 		bl	buffer_append_float32_auto
 482              	.LVL60:
 483              		.loc 1 85 0
 484 0344 019A     		ldr	r2, [sp, #4]
 485 0346 94F81531 		ldrb	r3, [r4, #277]	@ zero_extendqisi2
 486 034a AB54     		strb	r3, [r5, r2]
 487              		.loc 1 86 0
 488 034c AB18     		adds	r3, r5, r2
 489 034e 94F81611 		ldrb	r1, [r4, #278]	@ zero_extendqisi2
 490 0352 5970     		strb	r1, [r3, #1]
 491              		.loc 1 87 0
 492 0354 94F81711 		ldrb	r1, [r4, #279]	@ zero_extendqisi2
 493 0358 9970     		strb	r1, [r3, #2]
 494              		.loc 1 88 0
 495 035a 94F81811 		ldrb	r1, [r4, #280]	@ zero_extendqisi2
 496 035e D970     		strb	r1, [r3, #3]
 497              		.loc 1 89 0
 498 0360 94F81911 		ldrb	r1, [r4, #281]	@ zero_extendqisi2
 499 0364 1971     		strb	r1, [r3, #4]
 500              		.loc 1 90 0
 501 0366 94F81A11 		ldrb	r1, [r4, #282]	@ zero_extendqisi2
 502 036a 5971     		strb	r1, [r3, #5]
 503              		.loc 1 91 0
 504 036c 94F81B11 		ldrb	r1, [r4, #283]	@ zero_extendqisi2
 505 0370 9971     		strb	r1, [r3, #6]
 506              		.loc 1 92 0
 507 0372 94F81C11 		ldrb	r1, [r4, #284]	@ zero_extendqisi2
 508 0376 D971     		strb	r1, [r3, #7]
 509 0378 0832     		adds	r2, r2, #8
 510              		.loc 1 93 0
 511 037a 94ED480A 		vldr.32	s0, [r4, #288]
 512              		.loc 1 92 0
 513 037e 0192     		str	r2, [sp, #4]
ARM GAS  /tmp/ccOR9P9P.s 			page 10


 514              		.loc 1 93 0
 515 0380 3146     		mov	r1, r6
 516 0382 2846     		mov	r0, r5
 517 0384 FFF7FEFF 		bl	buffer_append_float32_auto
 518              	.LVL61:
 519              		.loc 1 94 0
 520 0388 019B     		ldr	r3, [sp, #4]
 521 038a 94F82421 		ldrb	r2, [r4, #292]	@ zero_extendqisi2
 522 038e EA54     		strb	r2, [r5, r3]
 523              		.loc 1 95 0
 524 0390 EA18     		adds	r2, r5, r3
 525 0392 94F82511 		ldrb	r1, [r4, #293]	@ zero_extendqisi2
 526 0396 5170     		strb	r1, [r2, #1]
 527 0398 0233     		adds	r3, r3, #2
 528              		.loc 1 96 0
 529 039a 94ED4A0A 		vldr.32	s0, [r4, #296]
 530              		.loc 1 95 0
 531 039e 0193     		str	r3, [sp, #4]
 532              		.loc 1 96 0
 533 03a0 3146     		mov	r1, r6
 534 03a2 2846     		mov	r0, r5
 535 03a4 FFF7FEFF 		bl	buffer_append_float32_auto
 536              	.LVL62:
 537              		.loc 1 97 0
 538 03a8 019B     		ldr	r3, [sp, #4]
 539 03aa 94F82C21 		ldrb	r2, [r4, #300]	@ zero_extendqisi2
 540 03ae EA54     		strb	r2, [r5, r3]
 541              		.loc 1 98 0
 542 03b0 3146     		mov	r1, r6
 543              		.loc 1 97 0
 544 03b2 0133     		adds	r3, r3, #1
 545              		.loc 1 98 0
 546 03b4 94ED4C0A 		vldr.32	s0, [r4, #304]
 547              		.loc 1 97 0
 548 03b8 0193     		str	r3, [sp, #4]
 549              		.loc 1 98 0
 550 03ba 2846     		mov	r0, r5
 551 03bc FFF7FEFF 		bl	buffer_append_float32_auto
 552              	.LVL63:
 553              		.loc 1 99 0
 554 03c0 94ED4D0A 		vldr.32	s0, [r4, #308]
 555 03c4 3146     		mov	r1, r6
 556 03c6 2846     		mov	r0, r5
 557 03c8 FFF7FEFF 		bl	buffer_append_float32_auto
 558              	.LVL64:
 559              		.loc 1 100 0
 560 03cc 3246     		mov	r2, r6
 561 03ce B4F93811 		ldrsh	r1, [r4, #312]
 562 03d2 2846     		mov	r0, r5
 563 03d4 FFF7FEFF 		bl	buffer_append_int16
 564              	.LVL65:
 565              		.loc 1 101 0
 566 03d8 3246     		mov	r2, r6
 567 03da B4F93C11 		ldrsh	r1, [r4, #316]
 568 03de 01E0     		b	.L5
 569              	.L6:
 570              		.align	2
ARM GAS  /tmp/ccOR9P9P.s 			page 11


 571              	.L4:
 572 03e0 36E6FF1D 		.word	503309878
 573              	.L5:
 574 03e4 2846     		mov	r0, r5
 575 03e6 FFF7FEFF 		bl	buffer_append_int16
 576              	.LVL66:
 577              		.loc 1 102 0
 578 03ea 3146     		mov	r1, r6
 579 03ec 94ED500A 		vldr.32	s0, [r4, #320]
 580 03f0 2846     		mov	r0, r5
 581 03f2 FFF7FEFF 		bl	buffer_append_float32_auto
 582              	.LVL67:
 583              		.loc 1 103 0
 584 03f6 3146     		mov	r1, r6
 585 03f8 94ED510A 		vldr.32	s0, [r4, #324]
 586 03fc 2846     		mov	r0, r5
 587 03fe FFF7FEFF 		bl	buffer_append_float32_auto
 588              	.LVL68:
 589              		.loc 1 104 0
 590 0402 3146     		mov	r1, r6
 591 0404 94ED520A 		vldr.32	s0, [r4, #328]
 592 0408 2846     		mov	r0, r5
 593 040a FFF7FEFF 		bl	buffer_append_float32_auto
 594              	.LVL69:
 595              		.loc 1 105 0
 596 040e 3146     		mov	r1, r6
 597 0410 94ED530A 		vldr.32	s0, [r4, #332]
 598 0414 2846     		mov	r0, r5
 599 0416 FFF7FEFF 		bl	buffer_append_float32_auto
 600              	.LVL70:
 601              		.loc 1 106 0
 602 041a 3146     		mov	r1, r6
 603 041c 94ED540A 		vldr.32	s0, [r4, #336]
 604 0420 2846     		mov	r0, r5
 605 0422 FFF7FEFF 		bl	buffer_append_float32_auto
 606              	.LVL71:
 607              		.loc 1 107 0
 608 0426 3146     		mov	r1, r6
 609 0428 94ED550A 		vldr.32	s0, [r4, #340]
 610 042c 2846     		mov	r0, r5
 611 042e FFF7FEFF 		bl	buffer_append_float32_auto
 612              	.LVL72:
 613              		.loc 1 108 0
 614 0432 3146     		mov	r1, r6
 615 0434 94ED560A 		vldr.32	s0, [r4, #344]
 616 0438 2846     		mov	r0, r5
 617 043a FFF7FEFF 		bl	buffer_append_float32_auto
 618              	.LVL73:
 619              		.loc 1 109 0
 620 043e 3146     		mov	r1, r6
 621 0440 94ED570A 		vldr.32	s0, [r4, #348]
 622 0444 2846     		mov	r0, r5
 623 0446 FFF7FEFF 		bl	buffer_append_float32_auto
 624              	.LVL74:
 625              		.loc 1 110 0
 626 044a 019B     		ldr	r3, [sp, #4]
 627 044c 94F86021 		ldrb	r2, [r4, #352]	@ zero_extendqisi2
ARM GAS  /tmp/ccOR9P9P.s 			page 12


 628 0450 EA54     		strb	r2, [r5, r3]
 629              		.loc 1 111 0
 630 0452 3146     		mov	r1, r6
 631              		.loc 1 110 0
 632 0454 0133     		adds	r3, r3, #1
 633              		.loc 1 111 0
 634 0456 94ED590A 		vldr.32	s0, [r4, #356]
 635              		.loc 1 110 0
 636 045a 0193     		str	r3, [sp, #4]
 637              		.loc 1 111 0
 638 045c 2846     		mov	r0, r5
 639 045e FFF7FEFF 		bl	buffer_append_float32_auto
 640              	.LVL75:
 641              		.loc 1 112 0
 642 0462 3146     		mov	r1, r6
 643 0464 94ED5A0A 		vldr.32	s0, [r4, #360]
 644 0468 2846     		mov	r0, r5
 645 046a FFF7FEFF 		bl	buffer_append_float32_auto
 646              	.LVL76:
 647              		.loc 1 113 0
 648 046e 3146     		mov	r1, r6
 649 0470 94ED5B0A 		vldr.32	s0, [r4, #364]
 650 0474 2846     		mov	r0, r5
 651 0476 FFF7FEFF 		bl	buffer_append_float32_auto
 652              	.LVL77:
 653              		.loc 1 114 0
 654 047a 3146     		mov	r1, r6
 655 047c 94ED5C0A 		vldr.32	s0, [r4, #368]
 656 0480 2846     		mov	r0, r5
 657 0482 FFF7FEFF 		bl	buffer_append_float32_auto
 658              	.LVL78:
 659              		.loc 1 115 0
 660 0486 3146     		mov	r1, r6
 661 0488 94ED5D0A 		vldr.32	s0, [r4, #372]
 662 048c 2846     		mov	r0, r5
 663 048e FFF7FEFF 		bl	buffer_append_float32_auto
 664              	.LVL79:
 665              		.loc 1 116 0
 666 0492 3146     		mov	r1, r6
 667 0494 94ED5E0A 		vldr.32	s0, [r4, #376]
 668 0498 2846     		mov	r0, r5
 669 049a FFF7FEFF 		bl	buffer_append_float32_auto
 670              	.LVL80:
 671              		.loc 1 117 0
 672 049e 3146     		mov	r1, r6
 673 04a0 94ED5F0A 		vldr.32	s0, [r4, #380]
 674 04a4 2846     		mov	r0, r5
 675 04a6 FFF7FEFF 		bl	buffer_append_float32_auto
 676              	.LVL81:
 677              		.loc 1 118 0
 678 04aa 3146     		mov	r1, r6
 679 04ac 94ED600A 		vldr.32	s0, [r4, #384]
 680 04b0 2846     		mov	r0, r5
 681 04b2 FFF7FEFF 		bl	buffer_append_float32_auto
 682              	.LVL82:
 683              		.loc 1 119 0
 684 04b6 94ED610A 		vldr.32	s0, [r4, #388]
ARM GAS  /tmp/ccOR9P9P.s 			page 13


 685 04ba 3146     		mov	r1, r6
 686 04bc 2846     		mov	r0, r5
 687 04be FFF7FEFF 		bl	buffer_append_float32_auto
 688              	.LVL83:
 689              		.loc 1 120 0
 690 04c2 3246     		mov	r2, r6
 691 04c4 D4F88811 		ldr	r1, [r4, #392]
 692 04c8 2846     		mov	r0, r5
 693 04ca FFF7FEFF 		bl	buffer_append_int32
 694              	.LVL84:
 695              		.loc 1 121 0
 696 04ce 3146     		mov	r1, r6
 697 04d0 94ED630A 		vldr.32	s0, [r4, #396]
 698 04d4 2846     		mov	r0, r5
 699 04d6 FFF7FEFF 		bl	buffer_append_float32_auto
 700              	.LVL85:
 701              		.loc 1 122 0
 702 04da 94ED640A 		vldr.32	s0, [r4, #400]
 703 04de 3146     		mov	r1, r6
 704 04e0 2846     		mov	r0, r5
 705 04e2 FFF7FEFF 		bl	buffer_append_float32_auto
 706              	.LVL86:
 707              		.loc 1 123 0
 708 04e6 3246     		mov	r2, r6
 709 04e8 D4F89411 		ldr	r1, [r4, #404]
 710 04ec 2846     		mov	r0, r5
 711 04ee FFF7FEFF 		bl	buffer_append_uint32
 712              	.LVL87:
 713              		.loc 1 124 0
 714 04f2 019B     		ldr	r3, [sp, #4]
 715 04f4 94F89821 		ldrb	r2, [r4, #408]	@ zero_extendqisi2
 716 04f8 EA54     		strb	r2, [r5, r3]
 717              		.loc 1 125 0
 718 04fa EA18     		adds	r2, r5, r3
 719 04fc 94F89911 		ldrb	r1, [r4, #409]	@ zero_extendqisi2
 720 0500 5170     		strb	r1, [r2, #1]
 721              		.loc 1 126 0
 722 0502 94F89A11 		ldrb	r1, [r4, #410]	@ zero_extendqisi2
 723 0506 9170     		strb	r1, [r2, #2]
 724              		.loc 1 127 0
 725 0508 D4F89C11 		ldr	r1, [r4, #412]
 726 050c D170     		strb	r1, [r2, #3]
 727 050e 0433     		adds	r3, r3, #4
 728              		.loc 1 128 0
 729 0510 94ED680A 		vldr.32	s0, [r4, #416]
 730              		.loc 1 127 0
 731 0514 0193     		str	r3, [sp, #4]
 732              		.loc 1 128 0
 733 0516 3146     		mov	r1, r6
 734 0518 2846     		mov	r0, r5
 735 051a FFF7FEFF 		bl	buffer_append_float32_auto
 736              	.LVL88:
 737              		.loc 1 129 0
 738 051e 3146     		mov	r1, r6
 739 0520 94ED690A 		vldr.32	s0, [r4, #420]
 740 0524 2846     		mov	r0, r5
 741 0526 FFF7FEFF 		bl	buffer_append_float32_auto
ARM GAS  /tmp/ccOR9P9P.s 			page 14


 742              	.LVL89:
 743              		.loc 1 130 0
 744 052a 3146     		mov	r1, r6
 745 052c 94ED6A0A 		vldr.32	s0, [r4, #424]
 746 0530 2846     		mov	r0, r5
 747 0532 FFF7FEFF 		bl	buffer_append_float32_auto
 748              	.LVL90:
 749              		.loc 1 131 0
 750 0536 3146     		mov	r1, r6
 751 0538 94ED6B0A 		vldr.32	s0, [r4, #428]
 752 053c 2846     		mov	r0, r5
 753 053e FFF7FEFF 		bl	buffer_append_float32_auto
 754              	.LVL91:
 755              		.loc 1 132 0
 756 0542 019B     		ldr	r3, [sp, #4]
 757 0544 94F8B021 		ldrb	r2, [r4, #432]	@ zero_extendqisi2
 758 0548 EA54     		strb	r2, [r5, r3]
 759              		.loc 1 133 0
 760 054a EA18     		adds	r2, r5, r3
 761 054c 94F8B111 		ldrb	r1, [r4, #433]	@ zero_extendqisi2
 762 0550 5170     		strb	r1, [r2, #1]
 763 0552 0233     		adds	r3, r3, #2
 764              		.loc 1 134 0
 765 0554 94ED6D0A 		vldr.32	s0, [r4, #436]
 766              		.loc 1 133 0
 767 0558 0193     		str	r3, [sp, #4]
 768              		.loc 1 134 0
 769 055a 3146     		mov	r1, r6
 770 055c 2846     		mov	r0, r5
 771 055e FFF7FEFF 		bl	buffer_append_float32_auto
 772              	.LVL92:
 773              		.loc 1 135 0
 774 0562 3146     		mov	r1, r6
 775 0564 94ED6E0A 		vldr.32	s0, [r4, #440]
 776 0568 2846     		mov	r0, r5
 777 056a FFF7FEFF 		bl	buffer_append_float32_auto
 778              	.LVL93:
 779              		.loc 1 136 0
 780 056e 019B     		ldr	r3, [sp, #4]
 781 0570 94F8BC21 		ldrb	r2, [r4, #444]	@ zero_extendqisi2
 782 0574 EA54     		strb	r2, [r5, r3]
 783              		.loc 1 137 0
 784 0576 EA18     		adds	r2, r5, r3
 785 0578 D4F8C011 		ldr	r1, [r4, #448]
 786 057c 5170     		strb	r1, [r2, #1]
 787 057e 0233     		adds	r3, r3, #2
 788              		.loc 1 138 0
 789 0580 2846     		mov	r0, r5
 790 0582 3146     		mov	r1, r6
 791 0584 94ED710A 		vldr.32	s0, [r4, #452]
 792              		.loc 1 137 0
 793 0588 0193     		str	r3, [sp, #4]
 794              		.loc 1 138 0
 795 058a FFF7FEFF 		bl	buffer_append_float32_auto
 796              	.LVL94:
 797              		.loc 1 141 0
 798 058e 0198     		ldr	r0, [sp, #4]
ARM GAS  /tmp/ccOR9P9P.s 			page 15


 799 0590 02B0     		add	sp, sp, #8
 800              		.cfi_def_cfa_offset 16
 801              		@ sp needed
 802 0592 70BD     		pop	{r4, r5, r6, pc}
 803              		.cfi_endproc
 804              	.LFE219:
 805              		.size	confgenerator_serialize_mcconf, .-confgenerator_serialize_mcconf
 806              		.section	.text.confgenerator_serialize_appconf,"ax",%progbits
 807              		.align	1
 808              		.p2align 4,,15
 809              		.global	confgenerator_serialize_appconf
 810              		.syntax unified
 811              		.thumb
 812              		.thumb_func
 813              		.fpu fpv4-sp-d16
 814              		.type	confgenerator_serialize_appconf, %function
 815              	confgenerator_serialize_appconf:
 816              	.LFB220:
 817              		.loc 1 143 0
 818              		.cfi_startproc
 819              		@ args = 0, pretend = 0, frame = 8
 820              		@ frame_needed = 0, uses_anonymous_args = 0
 821              	.LVL95:
 822 0000 70B5     		push	{r4, r5, r6, lr}
 823              		.cfi_def_cfa_offset 16
 824              		.cfi_offset 4, -16
 825              		.cfi_offset 5, -12
 826              		.cfi_offset 6, -8
 827              		.cfi_offset 14, -4
 828 0002 82B0     		sub	sp, sp, #8
 829              		.cfi_def_cfa_offset 24
 830              		.loc 1 144 0
 831 0004 02AE     		add	r6, sp, #8
 832 0006 0023     		movs	r3, #0
 833 0008 46F8043D 		str	r3, [r6, #-4]!
 834              		.loc 1 143 0
 835 000c 0C46     		mov	r4, r1
 836              		.loc 1 146 0
 837 000e 3246     		mov	r2, r6
 838 0010 AF49     		ldr	r1, .L9
 839              	.LVL96:
 840              		.loc 1 143 0
 841 0012 0546     		mov	r5, r0
 842              		.loc 1 146 0
 843 0014 FFF7FEFF 		bl	buffer_append_uint32
 844              	.LVL97:
 845              		.loc 1 148 0
 846 0018 019B     		ldr	r3, [sp, #4]
 847 001a 2278     		ldrb	r2, [r4]	@ zero_extendqisi2
 848 001c EA54     		strb	r2, [r5, r3]
 849              		.loc 1 149 0
 850 001e 2846     		mov	r0, r5
 851              		.loc 1 148 0
 852 0020 0133     		adds	r3, r3, #1
 853              		.loc 1 149 0
 854 0022 3246     		mov	r2, r6
 855 0024 6168     		ldr	r1, [r4, #4]
ARM GAS  /tmp/ccOR9P9P.s 			page 16


 856              		.loc 1 148 0
 857 0026 0193     		str	r3, [sp, #4]
 858              		.loc 1 149 0
 859 0028 FFF7FEFF 		bl	buffer_append_uint32
 860              	.LVL98:
 861              		.loc 1 150 0
 862 002c 94ED020A 		vldr.32	s0, [r4, #8]
 863 0030 3146     		mov	r1, r6
 864 0032 2846     		mov	r0, r5
 865 0034 FFF7FEFF 		bl	buffer_append_float32_auto
 866              	.LVL99:
 867              		.loc 1 151 0
 868 0038 019B     		ldr	r3, [sp, #4]
 869 003a 227B     		ldrb	r2, [r4, #12]	@ zero_extendqisi2
 870 003c EA54     		strb	r2, [r5, r3]
 871              		.loc 1 152 0
 872 003e 2846     		mov	r0, r5
 873              		.loc 1 151 0
 874 0040 0133     		adds	r3, r3, #1
 875              		.loc 1 152 0
 876 0042 218A     		ldrh	r1, [r4, #16]
 877              		.loc 1 151 0
 878 0044 0193     		str	r3, [sp, #4]
 879              		.loc 1 152 0
 880 0046 3246     		mov	r2, r6
 881 0048 FFF7FEFF 		bl	buffer_append_uint16
 882              	.LVL100:
 883              		.loc 1 153 0
 884 004c 019A     		ldr	r2, [sp, #4]
 885 004e 237D     		ldrb	r3, [r4, #20]	@ zero_extendqisi2
 886 0050 AB54     		strb	r3, [r5, r2]
 887              		.loc 1 154 0
 888 0052 AB18     		adds	r3, r5, r2
 889 0054 617D     		ldrb	r1, [r4, #21]	@ zero_extendqisi2
 890 0056 5970     		strb	r1, [r3, #1]
 891              		.loc 1 155 0
 892 0058 A17D     		ldrb	r1, [r4, #22]	@ zero_extendqisi2
 893 005a 9970     		strb	r1, [r3, #2]
 894              		.loc 1 156 0
 895 005c E17D     		ldrb	r1, [r4, #23]	@ zero_extendqisi2
 896 005e D970     		strb	r1, [r3, #3]
 897              		.loc 1 157 0
 898 0060 217E     		ldrb	r1, [r4, #24]	@ zero_extendqisi2
 899 0062 1971     		strb	r1, [r3, #4]
 900              		.loc 1 158 0
 901 0064 617E     		ldrb	r1, [r4, #25]	@ zero_extendqisi2
 902 0066 5971     		strb	r1, [r3, #5]
 903              		.loc 1 159 0
 904 0068 217F     		ldrb	r1, [r4, #28]	@ zero_extendqisi2
 905 006a 9971     		strb	r1, [r3, #6]
 906 006c 0732     		adds	r2, r2, #7
 907              		.loc 1 160 0
 908 006e 94ED080A 		vldr.32	s0, [r4, #32]
 909              		.loc 1 159 0
 910 0072 0192     		str	r2, [sp, #4]
 911              		.loc 1 160 0
 912 0074 3146     		mov	r1, r6
ARM GAS  /tmp/ccOR9P9P.s 			page 17


 913 0076 2846     		mov	r0, r5
 914 0078 FFF7FEFF 		bl	buffer_append_float32_auto
 915              	.LVL101:
 916              		.loc 1 161 0
 917 007c 3146     		mov	r1, r6
 918 007e 94ED090A 		vldr.32	s0, [r4, #36]
 919 0082 2846     		mov	r0, r5
 920 0084 FFF7FEFF 		bl	buffer_append_float32_auto
 921              	.LVL102:
 922              		.loc 1 162 0
 923 0088 3146     		mov	r1, r6
 924 008a 94ED0A0A 		vldr.32	s0, [r4, #40]
 925 008e 2846     		mov	r0, r5
 926 0090 FFF7FEFF 		bl	buffer_append_float32_auto
 927              	.LVL103:
 928              		.loc 1 163 0
 929 0094 3146     		mov	r1, r6
 930 0096 94ED0B0A 		vldr.32	s0, [r4, #44]
 931 009a 2846     		mov	r0, r5
 932 009c FFF7FEFF 		bl	buffer_append_float32_auto
 933              	.LVL104:
 934              		.loc 1 164 0
 935 00a0 3146     		mov	r1, r6
 936 00a2 94ED0C0A 		vldr.32	s0, [r4, #48]
 937 00a6 2846     		mov	r0, r5
 938 00a8 FFF7FEFF 		bl	buffer_append_float32_auto
 939              	.LVL105:
 940              		.loc 1 165 0
 941 00ac 019B     		ldr	r3, [sp, #4]
 942 00ae 94F83420 		ldrb	r2, [r4, #52]	@ zero_extendqisi2
 943 00b2 EA54     		strb	r2, [r5, r3]
 944              		.loc 1 166 0
 945 00b4 EA18     		adds	r2, r5, r3
 946 00b6 94F83510 		ldrb	r1, [r4, #53]	@ zero_extendqisi2
 947 00ba 5170     		strb	r1, [r2, #1]
 948 00bc 0233     		adds	r3, r3, #2
 949              		.loc 1 167 0
 950 00be 94ED0E0A 		vldr.32	s0, [r4, #56]
 951              		.loc 1 166 0
 952 00c2 0193     		str	r3, [sp, #4]
 953              		.loc 1 167 0
 954 00c4 3146     		mov	r1, r6
 955 00c6 2846     		mov	r0, r5
 956 00c8 FFF7FEFF 		bl	buffer_append_float32_auto
 957              	.LVL106:
 958              		.loc 1 168 0
 959 00cc 3146     		mov	r1, r6
 960 00ce 94ED0F0A 		vldr.32	s0, [r4, #60]
 961 00d2 2846     		mov	r0, r5
 962 00d4 FFF7FEFF 		bl	buffer_append_float32_auto
 963              	.LVL107:
 964              		.loc 1 169 0
 965 00d8 019B     		ldr	r3, [sp, #4]
 966 00da 94F84020 		ldrb	r2, [r4, #64]	@ zero_extendqisi2
 967 00de EA54     		strb	r2, [r5, r3]
 968              		.loc 1 170 0
 969 00e0 3146     		mov	r1, r6
ARM GAS  /tmp/ccOR9P9P.s 			page 18


 970              		.loc 1 169 0
 971 00e2 0133     		adds	r3, r3, #1
 972              		.loc 1 170 0
 973 00e4 94ED110A 		vldr.32	s0, [r4, #68]
 974              		.loc 1 169 0
 975 00e8 0193     		str	r3, [sp, #4]
 976              		.loc 1 170 0
 977 00ea 2846     		mov	r0, r5
 978 00ec FFF7FEFF 		bl	buffer_append_float32_auto
 979              	.LVL108:
 980              		.loc 1 171 0
 981 00f0 3146     		mov	r1, r6
 982 00f2 94ED120A 		vldr.32	s0, [r4, #72]
 983 00f6 2846     		mov	r0, r5
 984 00f8 FFF7FEFF 		bl	buffer_append_float32_auto
 985              	.LVL109:
 986              		.loc 1 172 0
 987 00fc 019B     		ldr	r3, [sp, #4]
 988 00fe 94F84C20 		ldrb	r2, [r4, #76]	@ zero_extendqisi2
 989 0102 EA54     		strb	r2, [r5, r3]
 990              		.loc 1 173 0
 991 0104 EA18     		adds	r2, r5, r3
 992 0106 94F84D10 		ldrb	r1, [r4, #77]	@ zero_extendqisi2
 993 010a 5170     		strb	r1, [r2, #1]
 994 010c 0233     		adds	r3, r3, #2
 995              		.loc 1 174 0
 996 010e 94ED140A 		vldr.32	s0, [r4, #80]
 997              		.loc 1 173 0
 998 0112 0193     		str	r3, [sp, #4]
 999              		.loc 1 174 0
 1000 0114 3146     		mov	r1, r6
 1001 0116 2846     		mov	r0, r5
 1002 0118 FFF7FEFF 		bl	buffer_append_float32_auto
 1003              	.LVL110:
 1004              		.loc 1 175 0
 1005 011c 019B     		ldr	r3, [sp, #4]
 1006 011e 94F85420 		ldrb	r2, [r4, #84]	@ zero_extendqisi2
 1007 0122 EA54     		strb	r2, [r5, r3]
 1008              		.loc 1 176 0
 1009 0124 3146     		mov	r1, r6
 1010              		.loc 1 175 0
 1011 0126 0133     		adds	r3, r3, #1
 1012              		.loc 1 176 0
 1013 0128 94ED160A 		vldr.32	s0, [r4, #88]
 1014              		.loc 1 175 0
 1015 012c 0193     		str	r3, [sp, #4]
 1016              		.loc 1 176 0
 1017 012e 2846     		mov	r0, r5
 1018 0130 FFF7FEFF 		bl	buffer_append_float32_auto
 1019              	.LVL111:
 1020              		.loc 1 177 0
 1021 0134 3146     		mov	r1, r6
 1022 0136 94ED170A 		vldr.32	s0, [r4, #92]
 1023 013a 2846     		mov	r0, r5
 1024 013c FFF7FEFF 		bl	buffer_append_float32_auto
 1025              	.LVL112:
 1026              		.loc 1 178 0
ARM GAS  /tmp/ccOR9P9P.s 			page 19


 1027 0140 3146     		mov	r1, r6
 1028 0142 94ED180A 		vldr.32	s0, [r4, #96]
 1029 0146 2846     		mov	r0, r5
 1030 0148 FFF7FEFF 		bl	buffer_append_float32_auto
 1031              	.LVL113:
 1032              		.loc 1 179 0
 1033 014c 3146     		mov	r1, r6
 1034 014e 94ED190A 		vldr.32	s0, [r4, #100]
 1035 0152 2846     		mov	r0, r5
 1036 0154 FFF7FEFF 		bl	buffer_append_float32_auto
 1037              	.LVL114:
 1038              		.loc 1 180 0
 1039 0158 3146     		mov	r1, r6
 1040 015a 94ED1A0A 		vldr.32	s0, [r4, #104]
 1041 015e 2846     		mov	r0, r5
 1042 0160 FFF7FEFF 		bl	buffer_append_float32_auto
 1043              	.LVL115:
 1044              		.loc 1 181 0
 1045 0164 3146     		mov	r1, r6
 1046 0166 94ED1B0A 		vldr.32	s0, [r4, #108]
 1047 016a 2846     		mov	r0, r5
 1048 016c FFF7FEFF 		bl	buffer_append_float32_auto
 1049              	.LVL116:
 1050              		.loc 1 182 0
 1051 0170 019B     		ldr	r3, [sp, #4]
 1052 0172 94F87020 		ldrb	r2, [r4, #112]	@ zero_extendqisi2
 1053 0176 EA54     		strb	r2, [r5, r3]
 1054              		.loc 1 183 0
 1055 0178 EA18     		adds	r2, r5, r3
 1056 017a 94F87110 		ldrb	r1, [r4, #113]	@ zero_extendqisi2
 1057 017e 5170     		strb	r1, [r2, #1]
 1058              		.loc 1 184 0
 1059 0180 94F87210 		ldrb	r1, [r4, #114]	@ zero_extendqisi2
 1060 0184 9170     		strb	r1, [r2, #2]
 1061              		.loc 1 185 0
 1062 0186 94F87310 		ldrb	r1, [r4, #115]	@ zero_extendqisi2
 1063 018a D170     		strb	r1, [r2, #3]
 1064              		.loc 1 186 0
 1065 018c 94F87410 		ldrb	r1, [r4, #116]	@ zero_extendqisi2
 1066 0190 1171     		strb	r1, [r2, #4]
 1067              		.loc 1 187 0
 1068 0192 94F87510 		ldrb	r1, [r4, #117]	@ zero_extendqisi2
 1069 0196 5171     		strb	r1, [r2, #5]
 1070 0198 0633     		adds	r3, r3, #6
 1071              		.loc 1 188 0
 1072 019a 94ED1E0A 		vldr.32	s0, [r4, #120]
 1073              		.loc 1 187 0
 1074 019e 0193     		str	r3, [sp, #4]
 1075              		.loc 1 188 0
 1076 01a0 3146     		mov	r1, r6
 1077 01a2 2846     		mov	r0, r5
 1078 01a4 FFF7FEFF 		bl	buffer_append_float32_auto
 1079              	.LVL117:
 1080              		.loc 1 189 0
 1081 01a8 3146     		mov	r1, r6
 1082 01aa 94ED1F0A 		vldr.32	s0, [r4, #124]
 1083 01ae 2846     		mov	r0, r5
ARM GAS  /tmp/ccOR9P9P.s 			page 20


 1084 01b0 FFF7FEFF 		bl	buffer_append_float32_auto
 1085              	.LVL118:
 1086              		.loc 1 190 0
 1087 01b4 019B     		ldr	r3, [sp, #4]
 1088 01b6 94F88020 		ldrb	r2, [r4, #128]	@ zero_extendqisi2
 1089 01ba EA54     		strb	r2, [r5, r3]
 1090              		.loc 1 191 0
 1091 01bc 3146     		mov	r1, r6
 1092              		.loc 1 190 0
 1093 01be 0133     		adds	r3, r3, #1
 1094              		.loc 1 191 0
 1095 01c0 94ED210A 		vldr.32	s0, [r4, #132]
 1096              		.loc 1 190 0
 1097 01c4 0193     		str	r3, [sp, #4]
 1098              		.loc 1 191 0
 1099 01c6 2846     		mov	r0, r5
 1100 01c8 FFF7FEFF 		bl	buffer_append_float32_auto
 1101              	.LVL119:
 1102              		.loc 1 192 0
 1103 01cc 3146     		mov	r1, r6
 1104 01ce 94ED220A 		vldr.32	s0, [r4, #136]
 1105 01d2 2846     		mov	r0, r5
 1106 01d4 FFF7FEFF 		bl	buffer_append_float32_auto
 1107              	.LVL120:
 1108              		.loc 1 193 0
 1109 01d8 019B     		ldr	r3, [sp, #4]
 1110 01da 94F88C20 		ldrb	r2, [r4, #140]	@ zero_extendqisi2
 1111 01de EA54     		strb	r2, [r5, r3]
 1112              		.loc 1 194 0
 1113 01e0 EA18     		adds	r2, r5, r3
 1114 01e2 94F88D10 		ldrb	r1, [r4, #141]	@ zero_extendqisi2
 1115 01e6 5170     		strb	r1, [r2, #1]
 1116 01e8 0233     		adds	r3, r3, #2
 1117              		.loc 1 195 0
 1118 01ea 94ED240A 		vldr.32	s0, [r4, #144]
 1119              		.loc 1 194 0
 1120 01ee 0193     		str	r3, [sp, #4]
 1121              		.loc 1 195 0
 1122 01f0 3146     		mov	r1, r6
 1123 01f2 2846     		mov	r0, r5
 1124 01f4 FFF7FEFF 		bl	buffer_append_float32_auto
 1125              	.LVL121:
 1126              		.loc 1 196 0
 1127 01f8 3246     		mov	r2, r6
 1128 01fa B4F89410 		ldrh	r1, [r4, #148]
 1129 01fe 2846     		mov	r0, r5
 1130 0200 FFF7FEFF 		bl	buffer_append_uint16
 1131              	.LVL122:
 1132              		.loc 1 197 0
 1133 0204 3246     		mov	r2, r6
 1134 0206 D4F89810 		ldr	r1, [r4, #152]
 1135 020a 2846     		mov	r0, r5
 1136 020c FFF7FEFF 		bl	buffer_append_uint32
 1137              	.LVL123:
 1138              		.loc 1 198 0
 1139 0210 019B     		ldr	r3, [sp, #4]
 1140 0212 94F89C20 		ldrb	r2, [r4, #156]	@ zero_extendqisi2
ARM GAS  /tmp/ccOR9P9P.s 			page 21


 1141 0216 EA54     		strb	r2, [r5, r3]
 1142              		.loc 1 199 0
 1143 0218 3146     		mov	r1, r6
 1144              		.loc 1 198 0
 1145 021a 0133     		adds	r3, r3, #1
 1146              		.loc 1 199 0
 1147 021c 94ED280A 		vldr.32	s0, [r4, #160]
 1148              		.loc 1 198 0
 1149 0220 0193     		str	r3, [sp, #4]
 1150              		.loc 1 199 0
 1151 0222 2846     		mov	r0, r5
 1152 0224 FFF7FEFF 		bl	buffer_append_float32_auto
 1153              	.LVL124:
 1154              		.loc 1 200 0
 1155 0228 3146     		mov	r1, r6
 1156 022a 94ED290A 		vldr.32	s0, [r4, #164]
 1157 022e 2846     		mov	r0, r5
 1158 0230 FFF7FEFF 		bl	buffer_append_float32_auto
 1159              	.LVL125:
 1160              		.loc 1 201 0
 1161 0234 3146     		mov	r1, r6
 1162 0236 94ED2A0A 		vldr.32	s0, [r4, #168]
 1163 023a 2846     		mov	r0, r5
 1164 023c FFF7FEFF 		bl	buffer_append_float32_auto
 1165              	.LVL126:
 1166              		.loc 1 202 0
 1167 0240 3146     		mov	r1, r6
 1168 0242 94ED2B0A 		vldr.32	s0, [r4, #172]
 1169 0246 2846     		mov	r0, r5
 1170 0248 FFF7FEFF 		bl	buffer_append_float32_auto
 1171              	.LVL127:
 1172              		.loc 1 203 0
 1173 024c 3146     		mov	r1, r6
 1174 024e 94ED2C0A 		vldr.32	s0, [r4, #176]
 1175 0252 2846     		mov	r0, r5
 1176 0254 FFF7FEFF 		bl	buffer_append_float32_auto
 1177              	.LVL128:
 1178              		.loc 1 204 0
 1179 0258 3146     		mov	r1, r6
 1180 025a 94ED2D0A 		vldr.32	s0, [r4, #180]
 1181 025e 2846     		mov	r0, r5
 1182 0260 FFF7FEFF 		bl	buffer_append_float32_auto
 1183              	.LVL129:
 1184              		.loc 1 205 0
 1185 0264 019B     		ldr	r3, [sp, #4]
 1186 0266 94F8B820 		ldrb	r2, [r4, #184]	@ zero_extendqisi2
 1187 026a EA54     		strb	r2, [r5, r3]
 1188              		.loc 1 206 0
 1189 026c EA18     		adds	r2, r5, r3
 1190 026e 94F8B910 		ldrb	r1, [r4, #185]	@ zero_extendqisi2
 1191 0272 5170     		strb	r1, [r2, #1]
 1192              		.loc 1 207 0
 1193 0274 94F8BA10 		ldrb	r1, [r4, #186]	@ zero_extendqisi2
 1194 0278 9170     		strb	r1, [r2, #2]
 1195 027a 0333     		adds	r3, r3, #3
 1196              		.loc 1 208 0
 1197 027c 2846     		mov	r0, r5
ARM GAS  /tmp/ccOR9P9P.s 			page 22


 1198 027e 3146     		mov	r1, r6
 1199 0280 94ED2F0A 		vldr.32	s0, [r4, #188]
 1200              		.loc 1 207 0
 1201 0284 0193     		str	r3, [sp, #4]
 1202              		.loc 1 208 0
 1203 0286 FFF7FEFF 		bl	buffer_append_float32_auto
 1204              	.LVL130:
 1205              		.loc 1 209 0
 1206 028a 0198     		ldr	r0, [sp, #4]
 1207 028c 94F8C030 		ldrb	r3, [r4, #192]	@ zero_extendqisi2
 1208 0290 2B54     		strb	r3, [r5, r0]
 1209              		.loc 1 210 0
 1210 0292 0544     		add	r5, r5, r0
 1211              	.LVL131:
 1212 0294 94F8C130 		ldrb	r3, [r4, #193]	@ zero_extendqisi2
 1213 0298 6B70     		strb	r3, [r5, #1]
 1214              		.loc 1 211 0
 1215 029a 94F8C230 		ldrb	r3, [r4, #194]	@ zero_extendqisi2
 1216 029e AB70     		strb	r3, [r5, #2]
 1217              		.loc 1 212 0
 1218 02a0 94F8C330 		ldrb	r3, [r4, #195]	@ zero_extendqisi2
 1219 02a4 EB70     		strb	r3, [r5, #3]
 1220              		.loc 1 213 0
 1221 02a6 94F8C430 		ldrb	r3, [r4, #196]	@ zero_extendqisi2
 1222 02aa 2B71     		strb	r3, [r5, #4]
 1223              		.loc 1 214 0
 1224 02ac 94F8C530 		ldrb	r3, [r4, #197]	@ zero_extendqisi2
 1225 02b0 6B71     		strb	r3, [r5, #5]
 1226              		.loc 1 215 0
 1227 02b2 94F8C630 		ldrb	r3, [r4, #198]	@ zero_extendqisi2
 1228 02b6 AB71     		strb	r3, [r5, #6]
 1229              		.loc 1 216 0
 1230 02b8 94F8C730 		ldrb	r3, [r4, #199]	@ zero_extendqisi2
 1231 02bc EB71     		strb	r3, [r5, #7]
 1232              		.loc 1 217 0
 1233 02be 94F8C830 		ldrb	r3, [r4, #200]	@ zero_extendqisi2
 1234 02c2 2B72     		strb	r3, [r5, #8]
 1235              		.loc 1 218 0
 1236 02c4 94F8C930 		ldrb	r3, [r4, #201]	@ zero_extendqisi2
 1237 02c8 6B72     		strb	r3, [r5, #9]
 1238              		.loc 1 221 0
 1239 02ca 0A30     		adds	r0, r0, #10
 1240 02cc 02B0     		add	sp, sp, #8
 1241              		.cfi_def_cfa_offset 16
 1242              		@ sp needed
 1243 02ce 70BD     		pop	{r4, r5, r6, pc}
 1244              	.LVL132:
 1245              	.L10:
 1246              		.align	2
 1247              	.L9:
 1248 02d0 C530382B 		.word	725102789
 1249              		.cfi_endproc
 1250              	.LFE220:
 1251              		.size	confgenerator_serialize_appconf, .-confgenerator_serialize_appconf
 1252              		.section	.text.confgenerator_deserialize_mcconf,"ax",%progbits
 1253              		.align	1
 1254              		.p2align 4,,15
ARM GAS  /tmp/ccOR9P9P.s 			page 23


 1255              		.global	confgenerator_deserialize_mcconf
 1256              		.syntax unified
 1257              		.thumb
 1258              		.thumb_func
 1259              		.fpu fpv4-sp-d16
 1260              		.type	confgenerator_deserialize_mcconf, %function
 1261              	confgenerator_deserialize_mcconf:
 1262              	.LFB221:
 1263              		.loc 1 223 0
 1264              		.cfi_startproc
 1265              		@ args = 0, pretend = 0, frame = 8
 1266              		@ frame_needed = 0, uses_anonymous_args = 0
 1267              	.LVL133:
 1268 0000 F0B5     		push	{r4, r5, r6, r7, lr}
 1269              		.cfi_def_cfa_offset 20
 1270              		.cfi_offset 4, -20
 1271              		.cfi_offset 5, -16
 1272              		.cfi_offset 6, -12
 1273              		.cfi_offset 7, -8
 1274              		.cfi_offset 14, -4
 1275 0002 83B0     		sub	sp, sp, #12
 1276              		.cfi_def_cfa_offset 32
 1277              		.loc 1 224 0
 1278 0004 02AE     		add	r6, sp, #8
 1279 0006 0027     		movs	r7, #0
 1280 0008 46F8047D 		str	r7, [r6, #-4]!
 1281              		.loc 1 223 0
 1282 000c 0C46     		mov	r4, r1
 1283              		.loc 1 226 0
 1284 000e 3146     		mov	r1, r6
 1285              	.LVL134:
 1286              		.loc 1 223 0
 1287 0010 0546     		mov	r5, r0
 1288              		.loc 1 226 0
 1289 0012 FFF7FEFF 		bl	buffer_get_uint32
 1290              	.LVL135:
 1291              		.loc 1 227 0
 1292 0016 034B     		ldr	r3, .L16
 1293 0018 9842     		cmp	r0, r3
 1294 001a 05D0     		beq	.L15
 1295              		.loc 1 228 0
 1296 001c 3846     		mov	r0, r7
 1297              	.LVL136:
 1298              		.loc 1 360 0
 1299 001e 03B0     		add	sp, sp, #12
 1300              		.cfi_remember_state
 1301              		.cfi_def_cfa_offset 20
 1302              		@ sp needed
 1303 0020 F0BD     		pop	{r4, r5, r6, r7, pc}
 1304              	.LVL137:
 1305              	.L17:
 1306 0022 00BF     		.align	2
 1307              	.L16:
 1308 0024 36E6FF1D 		.word	503309878
 1309              	.LVL138:
 1310              	.L15:
 1311              		.cfi_restore_state
ARM GAS  /tmp/ccOR9P9P.s 			page 24


 1312              		.loc 1 231 0
 1313 0028 019B     		ldr	r3, [sp, #4]
 1314 002a EA5C     		ldrb	r2, [r5, r3]	@ zero_extendqisi2
 1315 002c 2270     		strb	r2, [r4]
 1316              		.loc 1 232 0
 1317 002e EA18     		adds	r2, r5, r3
 1318              		.loc 1 235 0
 1319 0030 2846     		mov	r0, r5
 1320              	.LVL139:
 1321              		.loc 1 232 0
 1322 0032 5178     		ldrb	r1, [r2, #1]	@ zero_extendqisi2
 1323 0034 6170     		strb	r1, [r4, #1]
 1324              		.loc 1 233 0
 1325 0036 9178     		ldrb	r1, [r2, #2]	@ zero_extendqisi2
 1326 0038 A170     		strb	r1, [r4, #2]
 1327              		.loc 1 234 0
 1328 003a D278     		ldrb	r2, [r2, #3]	@ zero_extendqisi2
 1329 003c E270     		strb	r2, [r4, #3]
 1330 003e 0433     		adds	r3, r3, #4
 1331              		.loc 1 235 0
 1332 0040 3146     		mov	r1, r6
 1333              		.loc 1 234 0
 1334 0042 0193     		str	r3, [sp, #4]
 1335              		.loc 1 235 0
 1336 0044 FFF7FEFF 		bl	buffer_get_float32_auto
 1337              	.LVL140:
 1338              		.loc 1 236 0
 1339 0048 3146     		mov	r1, r6
 1340 004a 2846     		mov	r0, r5
 1341              		.loc 1 235 0
 1342 004c 84ED010A 		vstr.32	s0, [r4, #4]
 1343              		.loc 1 236 0
 1344 0050 FFF7FEFF 		bl	buffer_get_float32_auto
 1345              	.LVL141:
 1346              		.loc 1 237 0
 1347 0054 3146     		mov	r1, r6
 1348 0056 2846     		mov	r0, r5
 1349              		.loc 1 236 0
 1350 0058 84ED020A 		vstr.32	s0, [r4, #8]
 1351              		.loc 1 237 0
 1352 005c FFF7FEFF 		bl	buffer_get_float32_auto
 1353              	.LVL142:
 1354              		.loc 1 238 0
 1355 0060 3146     		mov	r1, r6
 1356 0062 2846     		mov	r0, r5
 1357              		.loc 1 237 0
 1358 0064 84ED030A 		vstr.32	s0, [r4, #12]
 1359              		.loc 1 238 0
 1360 0068 FFF7FEFF 		bl	buffer_get_float32_auto
 1361              	.LVL143:
 1362              		.loc 1 239 0
 1363 006c 3146     		mov	r1, r6
 1364 006e 2846     		mov	r0, r5
 1365              		.loc 1 238 0
 1366 0070 84ED040A 		vstr.32	s0, [r4, #16]
 1367              		.loc 1 239 0
 1368 0074 FFF7FEFF 		bl	buffer_get_float32_auto
ARM GAS  /tmp/ccOR9P9P.s 			page 25


 1369              	.LVL144:
 1370              		.loc 1 240 0
 1371 0078 3146     		mov	r1, r6
 1372 007a 2846     		mov	r0, r5
 1373              		.loc 1 239 0
 1374 007c 84ED050A 		vstr.32	s0, [r4, #20]
 1375              		.loc 1 240 0
 1376 0080 FFF7FEFF 		bl	buffer_get_float32_auto
 1377              	.LVL145:
 1378              		.loc 1 241 0
 1379 0084 3146     		mov	r1, r6
 1380 0086 2846     		mov	r0, r5
 1381              		.loc 1 240 0
 1382 0088 84ED060A 		vstr.32	s0, [r4, #24]
 1383              		.loc 1 241 0
 1384 008c FFF7FEFF 		bl	buffer_get_float32_auto
 1385              	.LVL146:
 1386              		.loc 1 242 0
 1387 0090 3146     		mov	r1, r6
 1388 0092 2846     		mov	r0, r5
 1389              		.loc 1 241 0
 1390 0094 84ED070A 		vstr.32	s0, [r4, #28]
 1391              		.loc 1 242 0
 1392 0098 FFF7FEFF 		bl	buffer_get_float32_auto
 1393              	.LVL147:
 1394              		.loc 1 243 0
 1395 009c 3146     		mov	r1, r6
 1396 009e 2846     		mov	r0, r5
 1397              		.loc 1 242 0
 1398 00a0 84ED080A 		vstr.32	s0, [r4, #32]
 1399              		.loc 1 243 0
 1400 00a4 FFF7FEFF 		bl	buffer_get_float32_auto
 1401              	.LVL148:
 1402              		.loc 1 244 0
 1403 00a8 3146     		mov	r1, r6
 1404 00aa 2846     		mov	r0, r5
 1405              		.loc 1 243 0
 1406 00ac 84ED090A 		vstr.32	s0, [r4, #36]
 1407              		.loc 1 244 0
 1408 00b0 FFF7FEFF 		bl	buffer_get_float32_auto
 1409              	.LVL149:
 1410              		.loc 1 245 0
 1411 00b4 3146     		mov	r1, r6
 1412 00b6 2846     		mov	r0, r5
 1413              		.loc 1 244 0
 1414 00b8 84ED0A0A 		vstr.32	s0, [r4, #40]
 1415              		.loc 1 245 0
 1416 00bc FFF7FEFF 		bl	buffer_get_float32_auto
 1417              	.LVL150:
 1418              		.loc 1 246 0
 1419 00c0 3146     		mov	r1, r6
 1420 00c2 2846     		mov	r0, r5
 1421              		.loc 1 245 0
 1422 00c4 84ED0B0A 		vstr.32	s0, [r4, #44]
 1423              		.loc 1 246 0
 1424 00c8 FFF7FEFF 		bl	buffer_get_float32_auto
 1425              	.LVL151:
ARM GAS  /tmp/ccOR9P9P.s 			page 26


 1426              		.loc 1 247 0
 1427 00cc 3146     		mov	r1, r6
 1428 00ce 2846     		mov	r0, r5
 1429              		.loc 1 246 0
 1430 00d0 84ED0C0A 		vstr.32	s0, [r4, #48]
 1431              		.loc 1 247 0
 1432 00d4 FFF7FEFF 		bl	buffer_get_float32_auto
 1433              	.LVL152:
 1434              		.loc 1 248 0
 1435 00d8 3146     		mov	r1, r6
 1436 00da 2846     		mov	r0, r5
 1437              		.loc 1 247 0
 1438 00dc 84ED0D0A 		vstr.32	s0, [r4, #52]
 1439              		.loc 1 248 0
 1440 00e0 FFF7FEFF 		bl	buffer_get_float32_auto
 1441              	.LVL153:
 1442              		.loc 1 249 0
 1443 00e4 019B     		ldr	r3, [sp, #4]
 1444              		.loc 1 248 0
 1445 00e6 84ED0E0A 		vstr.32	s0, [r4, #56]
 1446              		.loc 1 249 0
 1447 00ea EA5C     		ldrb	r2, [r5, r3]	@ zero_extendqisi2
 1448 00ec D21B     		subs	r2, r2, r7
 1449 00ee 18BF     		it	ne
 1450 00f0 0122     		movne	r2, #1
 1451 00f2 84F83C20 		strb	r2, [r4, #60]
 1452 00f6 0133     		adds	r3, r3, #1
 1453              		.loc 1 250 0
 1454 00f8 3146     		mov	r1, r6
 1455 00fa 2846     		mov	r0, r5
 1456              		.loc 1 249 0
 1457 00fc 0193     		str	r3, [sp, #4]
 1458              		.loc 1 250 0
 1459 00fe FFF7FEFF 		bl	buffer_get_float32_auto
 1460              	.LVL154:
 1461              		.loc 1 251 0
 1462 0102 3146     		mov	r1, r6
 1463 0104 2846     		mov	r0, r5
 1464              		.loc 1 250 0
 1465 0106 84ED100A 		vstr.32	s0, [r4, #64]
 1466              		.loc 1 251 0
 1467 010a FFF7FEFF 		bl	buffer_get_float32_auto
 1468              	.LVL155:
 1469              		.loc 1 252 0
 1470 010e 3146     		mov	r1, r6
 1471 0110 2846     		mov	r0, r5
 1472              		.loc 1 251 0
 1473 0112 84ED110A 		vstr.32	s0, [r4, #68]
 1474              		.loc 1 252 0
 1475 0116 FFF7FEFF 		bl	buffer_get_float32_auto
 1476              	.LVL156:
 1477              		.loc 1 253 0
 1478 011a 3146     		mov	r1, r6
 1479 011c 2846     		mov	r0, r5
 1480              		.loc 1 252 0
 1481 011e 84ED120A 		vstr.32	s0, [r4, #72]
 1482              		.loc 1 253 0
ARM GAS  /tmp/ccOR9P9P.s 			page 27


 1483 0122 FFF7FEFF 		bl	buffer_get_float32_auto
 1484              	.LVL157:
 1485              		.loc 1 254 0
 1486 0126 3146     		mov	r1, r6
 1487 0128 2846     		mov	r0, r5
 1488              		.loc 1 253 0
 1489 012a 84ED130A 		vstr.32	s0, [r4, #76]
 1490              		.loc 1 254 0
 1491 012e FFF7FEFF 		bl	buffer_get_float32_auto
 1492              	.LVL158:
 1493              		.loc 1 255 0
 1494 0132 3146     		mov	r1, r6
 1495 0134 2846     		mov	r0, r5
 1496              		.loc 1 254 0
 1497 0136 84ED140A 		vstr.32	s0, [r4, #80]
 1498              		.loc 1 255 0
 1499 013a FFF7FEFF 		bl	buffer_get_float32_auto
 1500              	.LVL159:
 1501              		.loc 1 256 0
 1502 013e 3146     		mov	r1, r6
 1503 0140 2846     		mov	r0, r5
 1504              		.loc 1 255 0
 1505 0142 84ED150A 		vstr.32	s0, [r4, #84]
 1506              		.loc 1 256 0
 1507 0146 FFF7FEFF 		bl	buffer_get_float32_auto
 1508              	.LVL160:
 1509              		.loc 1 257 0
 1510 014a 3146     		mov	r1, r6
 1511 014c 2846     		mov	r0, r5
 1512              		.loc 1 256 0
 1513 014e 84ED160A 		vstr.32	s0, [r4, #88]
 1514              		.loc 1 257 0
 1515 0152 FFF7FEFF 		bl	buffer_get_float32_auto
 1516              	.LVL161:
 1517              		.loc 1 258 0
 1518 0156 3146     		mov	r1, r6
 1519 0158 2846     		mov	r0, r5
 1520              		.loc 1 257 0
 1521 015a 84ED170A 		vstr.32	s0, [r4, #92]
 1522              		.loc 1 258 0
 1523 015e FFF7FEFF 		bl	buffer_get_float32_auto
 1524              	.LVL162:
 1525              		.loc 1 259 0
 1526 0162 3146     		mov	r1, r6
 1527 0164 2846     		mov	r0, r5
 1528              		.loc 1 258 0
 1529 0166 84ED180A 		vstr.32	s0, [r4, #96]
 1530              		.loc 1 259 0
 1531 016a FFF7FEFF 		bl	buffer_get_float32_auto
 1532              	.LVL163:
 1533              		.loc 1 260 0
 1534 016e 3146     		mov	r1, r6
 1535 0170 2846     		mov	r0, r5
 1536              		.loc 1 259 0
 1537 0172 84ED190A 		vstr.32	s0, [r4, #100]
 1538              		.loc 1 260 0
 1539 0176 FFF7FEFF 		bl	buffer_get_float32_auto
ARM GAS  /tmp/ccOR9P9P.s 			page 28


 1540              	.LVL164:
 1541              		.loc 1 261 0
 1542 017a 3146     		mov	r1, r6
 1543 017c 2846     		mov	r0, r5
 1544              		.loc 1 260 0
 1545 017e 84ED1A0A 		vstr.32	s0, [r4, #104]
 1546              		.loc 1 261 0
 1547 0182 FFF7FEFF 		bl	buffer_get_float32_auto
 1548              	.LVL165:
 1549              		.loc 1 262 0
 1550 0186 3146     		mov	r1, r6
 1551 0188 2846     		mov	r0, r5
 1552              		.loc 1 261 0
 1553 018a 84ED210A 		vstr.32	s0, [r4, #132]
 1554              		.loc 1 262 0
 1555 018e FFF7FEFF 		bl	buffer_get_float32_auto
 1556              	.LVL166:
 1557              		.loc 1 263 0
 1558 0192 3146     		mov	r1, r6
 1559 0194 2846     		mov	r0, r5
 1560              		.loc 1 262 0
 1561 0196 84ED220A 		vstr.32	s0, [r4, #136]
 1562              		.loc 1 263 0
 1563 019a FFF7FEFF 		bl	buffer_get_float32_auto
 1564              	.LVL167:
 1565              		.loc 1 264 0
 1566 019e 3146     		mov	r1, r6
 1567 01a0 2846     		mov	r0, r5
 1568              		.loc 1 263 0
 1569 01a2 84ED230A 		vstr.32	s0, [r4, #140]
 1570              		.loc 1 264 0
 1571 01a6 FFF7FEFF 		bl	buffer_get_float32_auto
 1572              	.LVL168:
 1573              		.loc 1 265 0
 1574 01aa 3146     		mov	r1, r6
 1575 01ac 2846     		mov	r0, r5
 1576              		.loc 1 264 0
 1577 01ae 84ED240A 		vstr.32	s0, [r4, #144]
 1578              		.loc 1 265 0
 1579 01b2 FFF7FEFF 		bl	buffer_get_float32_auto
 1580              	.LVL169:
 1581              		.loc 1 266 0
 1582 01b6 3146     		mov	r1, r6
 1583 01b8 2846     		mov	r0, r5
 1584              		.loc 1 265 0
 1585 01ba 84ED250A 		vstr.32	s0, [r4, #148]
 1586              		.loc 1 266 0
 1587 01be FFF7FEFF 		bl	buffer_get_float32_auto
 1588              	.LVL170:
 1589              		.loc 1 267 0
 1590 01c2 3146     		mov	r1, r6
 1591 01c4 2846     		mov	r0, r5
 1592              		.loc 1 266 0
 1593 01c6 84ED260A 		vstr.32	s0, [r4, #152]
 1594              		.loc 1 267 0
 1595 01ca FFF7FEFF 		bl	buffer_get_float32_auto
 1596              	.LVL171:
ARM GAS  /tmp/ccOR9P9P.s 			page 29


 1597              		.loc 1 268 0
 1598 01ce 019A     		ldr	r2, [sp, #4]
 1599              		.loc 1 267 0
 1600 01d0 84ED270A 		vstr.32	s0, [r4, #156]
 1601              		.loc 1 268 0
 1602 01d4 AB5C     		ldrb	r3, [r5, r2]	@ zero_extendqisi2
 1603 01d6 84F8A030 		strb	r3, [r4, #160]
 1604              		.loc 1 269 0
 1605 01da AB18     		adds	r3, r5, r2
 1606              		.loc 1 276 0
 1607 01dc 2846     		mov	r0, r5
 1608              		.loc 1 269 0
 1609 01de 5978     		ldrb	r1, [r3, #1]	@ zero_extendqisi2
 1610 01e0 84F8A110 		strb	r1, [r4, #161]
 1611              		.loc 1 270 0
 1612 01e4 9978     		ldrb	r1, [r3, #2]	@ zero_extendqisi2
 1613 01e6 84F8A210 		strb	r1, [r4, #162]
 1614              		.loc 1 271 0
 1615 01ea D978     		ldrb	r1, [r3, #3]	@ zero_extendqisi2
 1616 01ec 84F8A310 		strb	r1, [r4, #163]
 1617              		.loc 1 272 0
 1618 01f0 1979     		ldrb	r1, [r3, #4]	@ zero_extendqisi2
 1619 01f2 84F8A410 		strb	r1, [r4, #164]
 1620              		.loc 1 273 0
 1621 01f6 5979     		ldrb	r1, [r3, #5]	@ zero_extendqisi2
 1622 01f8 84F8A510 		strb	r1, [r4, #165]
 1623              		.loc 1 274 0
 1624 01fc 9979     		ldrb	r1, [r3, #6]	@ zero_extendqisi2
 1625 01fe 84F8A610 		strb	r1, [r4, #166]
 1626              		.loc 1 275 0
 1627 0202 DB79     		ldrb	r3, [r3, #7]	@ zero_extendqisi2
 1628 0204 84F8A730 		strb	r3, [r4, #167]
 1629 0208 0832     		adds	r2, r2, #8
 1630              		.loc 1 276 0
 1631 020a 3146     		mov	r1, r6
 1632              		.loc 1 275 0
 1633 020c 0192     		str	r2, [sp, #4]
 1634              		.loc 1 276 0
 1635 020e FFF7FEFF 		bl	buffer_get_float32_auto
 1636              	.LVL172:
 1637              		.loc 1 277 0
 1638 0212 3146     		mov	r1, r6
 1639 0214 2846     		mov	r0, r5
 1640              		.loc 1 276 0
 1641 0216 84ED2A0A 		vstr.32	s0, [r4, #168]
 1642              		.loc 1 277 0
 1643 021a FFF7FEFF 		bl	buffer_get_float32_auto
 1644              	.LVL173:
 1645              		.loc 1 278 0
 1646 021e 3146     		mov	r1, r6
 1647 0220 2846     		mov	r0, r5
 1648              		.loc 1 277 0
 1649 0222 84ED2B0A 		vstr.32	s0, [r4, #172]
 1650              		.loc 1 278 0
 1651 0226 FFF7FEFF 		bl	buffer_get_float32_auto
 1652              	.LVL174:
 1653              		.loc 1 279 0
ARM GAS  /tmp/ccOR9P9P.s 			page 30


 1654 022a 3146     		mov	r1, r6
 1655 022c 2846     		mov	r0, r5
 1656              		.loc 1 278 0
 1657 022e 84ED2C0A 		vstr.32	s0, [r4, #176]
 1658              		.loc 1 279 0
 1659 0232 FFF7FEFF 		bl	buffer_get_float32_auto
 1660              	.LVL175:
 1661              		.loc 1 280 0
 1662 0236 3146     		mov	r1, r6
 1663 0238 2846     		mov	r0, r5
 1664              		.loc 1 279 0
 1665 023a 84ED2D0A 		vstr.32	s0, [r4, #180]
 1666              		.loc 1 280 0
 1667 023e FFF7FEFF 		bl	buffer_get_float32_auto
 1668              	.LVL176:
 1669              		.loc 1 281 0
 1670 0242 019B     		ldr	r3, [sp, #4]
 1671              		.loc 1 280 0
 1672 0244 84ED2E0A 		vstr.32	s0, [r4, #184]
 1673              		.loc 1 281 0
 1674 0248 EA5C     		ldrb	r2, [r5, r3]	@ zero_extendqisi2
 1675 024a D21B     		subs	r2, r2, r7
 1676 024c 18BF     		it	ne
 1677 024e 0122     		movne	r2, #1
 1678 0250 84F8C020 		strb	r2, [r4, #192]
 1679 0254 0133     		adds	r3, r3, #1
 1680              		.loc 1 282 0
 1681 0256 3146     		mov	r1, r6
 1682 0258 2846     		mov	r0, r5
 1683              		.loc 1 281 0
 1684 025a 0193     		str	r3, [sp, #4]
 1685              		.loc 1 282 0
 1686 025c FFF7FEFF 		bl	buffer_get_float32_auto
 1687              	.LVL177:
 1688              		.loc 1 283 0
 1689 0260 3146     		mov	r1, r6
 1690 0262 2846     		mov	r0, r5
 1691              		.loc 1 282 0
 1692 0264 84ED2F0A 		vstr.32	s0, [r4, #188]
 1693              		.loc 1 283 0
 1694 0268 FFF7FEFF 		bl	buffer_get_float32_auto
 1695              	.LVL178:
 1696              		.loc 1 284 0
 1697 026c 3146     		mov	r1, r6
 1698 026e 2846     		mov	r0, r5
 1699              		.loc 1 283 0
 1700 0270 84ED310A 		vstr.32	s0, [r4, #196]
 1701              		.loc 1 284 0
 1702 0274 FFF7FEFF 		bl	buffer_get_float32_auto
 1703              	.LVL179:
 1704              		.loc 1 285 0
 1705 0278 3146     		mov	r1, r6
 1706 027a 2846     		mov	r0, r5
 1707              		.loc 1 284 0
 1708 027c 84ED330A 		vstr.32	s0, [r4, #204]
 1709              		.loc 1 285 0
 1710 0280 FFF7FEFF 		bl	buffer_get_float32_auto
ARM GAS  /tmp/ccOR9P9P.s 			page 31


 1711              	.LVL180:
 1712              		.loc 1 286 0
 1713 0284 3146     		mov	r1, r6
 1714 0286 2846     		mov	r0, r5
 1715              		.loc 1 285 0
 1716 0288 84ED350A 		vstr.32	s0, [r4, #212]
 1717              		.loc 1 286 0
 1718 028c FFF7FEFF 		bl	buffer_get_float32_auto
 1719              	.LVL181:
 1720              		.loc 1 287 0
 1721 0290 3146     		mov	r1, r6
 1722 0292 2846     		mov	r0, r5
 1723              		.loc 1 286 0
 1724 0294 84ED320A 		vstr.32	s0, [r4, #200]
 1725              		.loc 1 287 0
 1726 0298 FFF7FEFF 		bl	buffer_get_float32_auto
 1727              	.LVL182:
 1728              		.loc 1 288 0
 1729 029c 3146     		mov	r1, r6
 1730 029e 2846     		mov	r0, r5
 1731              		.loc 1 287 0
 1732 02a0 84ED340A 		vstr.32	s0, [r4, #208]
 1733              		.loc 1 288 0
 1734 02a4 FFF7FEFF 		bl	buffer_get_float32_auto
 1735              	.LVL183:
 1736              		.loc 1 289 0
 1737 02a8 019B     		ldr	r3, [sp, #4]
 1738              		.loc 1 288 0
 1739 02aa 84ED360A 		vstr.32	s0, [r4, #216]
 1740              		.loc 1 289 0
 1741 02ae EA5C     		ldrb	r2, [r5, r3]	@ zero_extendqisi2
 1742 02b0 84F81421 		strb	r2, [r4, #276]
 1743 02b4 0133     		adds	r3, r3, #1
 1744              		.loc 1 290 0
 1745 02b6 3146     		mov	r1, r6
 1746 02b8 2846     		mov	r0, r5
 1747              		.loc 1 289 0
 1748 02ba 0193     		str	r3, [sp, #4]
 1749              		.loc 1 290 0
 1750 02bc FFF7FEFF 		bl	buffer_get_float32_auto
 1751              	.LVL184:
 1752              		.loc 1 291 0
 1753 02c0 3146     		mov	r1, r6
 1754 02c2 2846     		mov	r0, r5
 1755              		.loc 1 290 0
 1756 02c4 84ED3C0A 		vstr.32	s0, [r4, #240]
 1757              		.loc 1 291 0
 1758 02c8 FFF7FEFF 		bl	buffer_get_float32_auto
 1759              	.LVL185:
 1760              		.loc 1 292 0
 1761 02cc 3146     		mov	r1, r6
 1762 02ce 2846     		mov	r0, r5
 1763              		.loc 1 291 0
 1764 02d0 84ED3D0A 		vstr.32	s0, [r4, #244]
 1765              		.loc 1 292 0
 1766 02d4 FFF7FEFF 		bl	buffer_get_float32_auto
 1767              	.LVL186:
ARM GAS  /tmp/ccOR9P9P.s 			page 32


 1768              		.loc 1 293 0
 1769 02d8 3146     		mov	r1, r6
 1770 02da 2846     		mov	r0, r5
 1771              		.loc 1 292 0
 1772 02dc 84ED370A 		vstr.32	s0, [r4, #220]
 1773              		.loc 1 293 0
 1774 02e0 FFF7FEFF 		bl	buffer_get_float32_auto
 1775              	.LVL187:
 1776              		.loc 1 294 0
 1777 02e4 3146     		mov	r1, r6
 1778 02e6 2846     		mov	r0, r5
 1779              		.loc 1 293 0
 1780 02e8 84ED380A 		vstr.32	s0, [r4, #224]
 1781              		.loc 1 294 0
 1782 02ec FFF7FEFF 		bl	buffer_get_float32_auto
 1783              	.LVL188:
 1784              		.loc 1 295 0
 1785 02f0 3146     		mov	r1, r6
 1786 02f2 2846     		mov	r0, r5
 1787              		.loc 1 294 0
 1788 02f4 84ED390A 		vstr.32	s0, [r4, #228]
 1789              		.loc 1 295 0
 1790 02f8 FFF7FEFF 		bl	buffer_get_float32_auto
 1791              	.LVL189:
 1792              		.loc 1 296 0
 1793 02fc 3146     		mov	r1, r6
 1794 02fe 2846     		mov	r0, r5
 1795              		.loc 1 295 0
 1796 0300 84ED3A0A 		vstr.32	s0, [r4, #232]
 1797              		.loc 1 296 0
 1798 0304 FFF7FEFF 		bl	buffer_get_float32_auto
 1799              	.LVL190:
 1800              		.loc 1 297 0
 1801 0308 3146     		mov	r1, r6
 1802 030a 2846     		mov	r0, r5
 1803              		.loc 1 296 0
 1804 030c 84ED3B0A 		vstr.32	s0, [r4, #236]
 1805              		.loc 1 297 0
 1806 0310 FFF7FEFF 		bl	buffer_get_float32_auto
 1807              	.LVL191:
 1808              		.loc 1 298 0
 1809 0314 3146     		mov	r1, r6
 1810 0316 2846     		mov	r0, r5
 1811              		.loc 1 297 0
 1812 0318 84ED3E0A 		vstr.32	s0, [r4, #248]
 1813              		.loc 1 298 0
 1814 031c FFF7FEFF 		bl	buffer_get_float32_auto
 1815              	.LVL192:
 1816              		.loc 1 299 0
 1817 0320 3146     		mov	r1, r6
 1818 0322 2846     		mov	r0, r5
 1819              		.loc 1 298 0
 1820 0324 84ED3F0A 		vstr.32	s0, [r4, #252]
 1821              		.loc 1 299 0
 1822 0328 FFF7FEFF 		bl	buffer_get_float32_auto
 1823              	.LVL193:
 1824              		.loc 1 300 0
ARM GAS  /tmp/ccOR9P9P.s 			page 33


 1825 032c 3146     		mov	r1, r6
 1826 032e 2846     		mov	r0, r5
 1827              		.loc 1 299 0
 1828 0330 84ED400A 		vstr.32	s0, [r4, #256]
 1829              		.loc 1 300 0
 1830 0334 FFF7FEFF 		bl	buffer_get_float32_auto
 1831              	.LVL194:
 1832              		.loc 1 301 0
 1833 0338 3146     		mov	r1, r6
 1834 033a 2846     		mov	r0, r5
 1835              		.loc 1 300 0
 1836 033c 84ED410A 		vstr.32	s0, [r4, #260]
 1837              		.loc 1 301 0
 1838 0340 FFF7FEFF 		bl	buffer_get_float32_auto
 1839              	.LVL195:
 1840              		.loc 1 302 0
 1841 0344 3146     		mov	r1, r6
 1842 0346 2846     		mov	r0, r5
 1843              		.loc 1 301 0
 1844 0348 84ED420A 		vstr.32	s0, [r4, #264]
 1845              		.loc 1 302 0
 1846 034c FFF7FEFF 		bl	buffer_get_float32_auto
 1847              	.LVL196:
 1848              		.loc 1 303 0
 1849 0350 3146     		mov	r1, r6
 1850 0352 2846     		mov	r0, r5
 1851              		.loc 1 302 0
 1852 0354 84ED430A 		vstr.32	s0, [r4, #268]
 1853              		.loc 1 303 0
 1854 0358 FFF7FEFF 		bl	buffer_get_float32_auto
 1855              	.LVL197:
 1856              		.loc 1 304 0
 1857 035c 019A     		ldr	r2, [sp, #4]
 1858              		.loc 1 303 0
 1859 035e 84ED440A 		vstr.32	s0, [r4, #272]
 1860              		.loc 1 304 0
 1861 0362 AB5C     		ldrb	r3, [r5, r2]	@ zero_extendqisi2
 1862 0364 84F81531 		strb	r3, [r4, #277]
 1863              		.loc 1 305 0
 1864 0368 AB18     		adds	r3, r5, r2
 1865              		.loc 1 312 0
 1866 036a 2846     		mov	r0, r5
 1867              		.loc 1 305 0
 1868 036c 5978     		ldrb	r1, [r3, #1]	@ zero_extendqisi2
 1869 036e 84F81611 		strb	r1, [r4, #278]
 1870              		.loc 1 306 0
 1871 0372 9978     		ldrb	r1, [r3, #2]	@ zero_extendqisi2
 1872 0374 84F81711 		strb	r1, [r4, #279]
 1873              		.loc 1 307 0
 1874 0378 D978     		ldrb	r1, [r3, #3]	@ zero_extendqisi2
 1875 037a 84F81811 		strb	r1, [r4, #280]
 1876              		.loc 1 308 0
 1877 037e 1979     		ldrb	r1, [r3, #4]	@ zero_extendqisi2
 1878 0380 84F81911 		strb	r1, [r4, #281]
 1879              		.loc 1 309 0
 1880 0384 5979     		ldrb	r1, [r3, #5]	@ zero_extendqisi2
 1881 0386 84F81A11 		strb	r1, [r4, #282]
ARM GAS  /tmp/ccOR9P9P.s 			page 34


 1882              		.loc 1 310 0
 1883 038a 9979     		ldrb	r1, [r3, #6]	@ zero_extendqisi2
 1884 038c 84F81B11 		strb	r1, [r4, #283]
 1885              		.loc 1 311 0
 1886 0390 DB79     		ldrb	r3, [r3, #7]	@ zero_extendqisi2
 1887 0392 84F81C31 		strb	r3, [r4, #284]
 1888 0396 0832     		adds	r2, r2, #8
 1889              		.loc 1 312 0
 1890 0398 3146     		mov	r1, r6
 1891              		.loc 1 311 0
 1892 039a 0192     		str	r2, [sp, #4]
 1893              		.loc 1 312 0
 1894 039c FFF7FEFF 		bl	buffer_get_float32_auto
 1895              	.LVL198:
 1896              		.loc 1 313 0
 1897 03a0 019B     		ldr	r3, [sp, #4]
 1898              		.loc 1 312 0
 1899 03a2 84ED480A 		vstr.32	s0, [r4, #288]
 1900              		.loc 1 313 0
 1901 03a6 EA5C     		ldrb	r2, [r5, r3]	@ zero_extendqisi2
 1902 03a8 D21B     		subs	r2, r2, r7
 1903              		.loc 1 314 0
 1904 03aa 05EB0301 		add	r1, r5, r3
 1905              		.loc 1 313 0
 1906 03ae 18BF     		it	ne
 1907 03b0 0122     		movne	r2, #1
 1908 03b2 84F82421 		strb	r2, [r4, #292]
 1909              		.loc 1 314 0
 1910 03b6 4A78     		ldrb	r2, [r1, #1]	@ zero_extendqisi2
 1911 03b8 D21B     		subs	r2, r2, r7
 1912 03ba 18BF     		it	ne
 1913 03bc 0122     		movne	r2, #1
 1914 03be 84F82521 		strb	r2, [r4, #293]
 1915 03c2 0233     		adds	r3, r3, #2
 1916              		.loc 1 315 0
 1917 03c4 3146     		mov	r1, r6
 1918 03c6 2846     		mov	r0, r5
 1919              		.loc 1 314 0
 1920 03c8 0193     		str	r3, [sp, #4]
 1921              		.loc 1 315 0
 1922 03ca FFF7FEFF 		bl	buffer_get_float32_auto
 1923              	.LVL199:
 1924              		.loc 1 316 0
 1925 03ce 019B     		ldr	r3, [sp, #4]
 1926              		.loc 1 315 0
 1927 03d0 84ED4A0A 		vstr.32	s0, [r4, #296]
 1928              		.loc 1 316 0
 1929 03d4 EA5C     		ldrb	r2, [r5, r3]	@ zero_extendqisi2
 1930 03d6 D21B     		subs	r2, r2, r7
 1931 03d8 18BF     		it	ne
 1932 03da 0122     		movne	r2, #1
 1933 03dc 84F82C21 		strb	r2, [r4, #300]
 1934 03e0 0133     		adds	r3, r3, #1
 1935              		.loc 1 317 0
 1936 03e2 3146     		mov	r1, r6
 1937 03e4 2846     		mov	r0, r5
 1938              		.loc 1 316 0
ARM GAS  /tmp/ccOR9P9P.s 			page 35


 1939 03e6 0193     		str	r3, [sp, #4]
 1940              		.loc 1 317 0
 1941 03e8 FFF7FEFF 		bl	buffer_get_float32_auto
 1942              	.LVL200:
 1943              		.loc 1 318 0
 1944 03ec 3146     		mov	r1, r6
 1945 03ee 2846     		mov	r0, r5
 1946              		.loc 1 317 0
 1947 03f0 84ED4C0A 		vstr.32	s0, [r4, #304]
 1948              		.loc 1 318 0
 1949 03f4 FFF7FEFF 		bl	buffer_get_float32_auto
 1950              	.LVL201:
 1951              		.loc 1 319 0
 1952 03f8 3146     		mov	r1, r6
 1953              		.loc 1 318 0
 1954 03fa 84ED4D0A 		vstr.32	s0, [r4, #308]
 1955              		.loc 1 319 0
 1956 03fe 2846     		mov	r0, r5
 1957 0400 FFF7FEFF 		bl	buffer_get_int16
 1958              	.LVL202:
 1959              		.loc 1 320 0
 1960 0404 3146     		mov	r1, r6
 1961              		.loc 1 319 0
 1962 0406 C4F83801 		str	r0, [r4, #312]
 1963              		.loc 1 320 0
 1964 040a 2846     		mov	r0, r5
 1965 040c FFF7FEFF 		bl	buffer_get_int16
 1966              	.LVL203:
 1967              		.loc 1 321 0
 1968 0410 3146     		mov	r1, r6
 1969              		.loc 1 320 0
 1970 0412 C4F83C01 		str	r0, [r4, #316]
 1971              		.loc 1 321 0
 1972 0416 2846     		mov	r0, r5
 1973 0418 FFF7FEFF 		bl	buffer_get_float32_auto
 1974              	.LVL204:
 1975              		.loc 1 322 0
 1976 041c 3146     		mov	r1, r6
 1977 041e 2846     		mov	r0, r5
 1978              		.loc 1 321 0
 1979 0420 84ED500A 		vstr.32	s0, [r4, #320]
 1980              		.loc 1 322 0
 1981 0424 FFF7FEFF 		bl	buffer_get_float32_auto
 1982              	.LVL205:
 1983              		.loc 1 323 0
 1984 0428 3146     		mov	r1, r6
 1985 042a 2846     		mov	r0, r5
 1986              		.loc 1 322 0
 1987 042c 84ED510A 		vstr.32	s0, [r4, #324]
 1988              		.loc 1 323 0
 1989 0430 FFF7FEFF 		bl	buffer_get_float32_auto
 1990              	.LVL206:
 1991              		.loc 1 324 0
 1992 0434 3146     		mov	r1, r6
 1993 0436 2846     		mov	r0, r5
 1994              		.loc 1 323 0
 1995 0438 84ED520A 		vstr.32	s0, [r4, #328]
ARM GAS  /tmp/ccOR9P9P.s 			page 36


 1996              		.loc 1 324 0
 1997 043c FFF7FEFF 		bl	buffer_get_float32_auto
 1998              	.LVL207:
 1999              		.loc 1 325 0
 2000 0440 3146     		mov	r1, r6
 2001 0442 2846     		mov	r0, r5
 2002              		.loc 1 324 0
 2003 0444 84ED530A 		vstr.32	s0, [r4, #332]
 2004              		.loc 1 325 0
 2005 0448 FFF7FEFF 		bl	buffer_get_float32_auto
 2006              	.LVL208:
 2007              		.loc 1 326 0
 2008 044c 3146     		mov	r1, r6
 2009 044e 2846     		mov	r0, r5
 2010              		.loc 1 325 0
 2011 0450 84ED540A 		vstr.32	s0, [r4, #336]
 2012              		.loc 1 326 0
 2013 0454 FFF7FEFF 		bl	buffer_get_float32_auto
 2014              	.LVL209:
 2015              		.loc 1 327 0
 2016 0458 3146     		mov	r1, r6
 2017 045a 2846     		mov	r0, r5
 2018              		.loc 1 326 0
 2019 045c 84ED550A 		vstr.32	s0, [r4, #340]
 2020              		.loc 1 327 0
 2021 0460 FFF7FEFF 		bl	buffer_get_float32_auto
 2022              	.LVL210:
 2023              		.loc 1 328 0
 2024 0464 3146     		mov	r1, r6
 2025 0466 2846     		mov	r0, r5
 2026              		.loc 1 327 0
 2027 0468 84ED560A 		vstr.32	s0, [r4, #344]
 2028              		.loc 1 328 0
 2029 046c FFF7FEFF 		bl	buffer_get_float32_auto
 2030              	.LVL211:
 2031              		.loc 1 329 0
 2032 0470 019B     		ldr	r3, [sp, #4]
 2033              		.loc 1 328 0
 2034 0472 84ED570A 		vstr.32	s0, [r4, #348]
 2035              		.loc 1 329 0
 2036 0476 EA5C     		ldrb	r2, [r5, r3]	@ zero_extendqisi2
 2037 0478 D21B     		subs	r2, r2, r7
 2038 047a 18BF     		it	ne
 2039 047c 0122     		movne	r2, #1
 2040 047e 84F86021 		strb	r2, [r4, #352]
 2041 0482 0133     		adds	r3, r3, #1
 2042              		.loc 1 330 0
 2043 0484 3146     		mov	r1, r6
 2044 0486 2846     		mov	r0, r5
 2045              		.loc 1 329 0
 2046 0488 0193     		str	r3, [sp, #4]
 2047              		.loc 1 330 0
 2048 048a FFF7FEFF 		bl	buffer_get_float32_auto
 2049              	.LVL212:
 2050              		.loc 1 331 0
 2051 048e 3146     		mov	r1, r6
 2052 0490 2846     		mov	r0, r5
ARM GAS  /tmp/ccOR9P9P.s 			page 37


 2053              		.loc 1 330 0
 2054 0492 84ED590A 		vstr.32	s0, [r4, #356]
 2055              		.loc 1 331 0
 2056 0496 FFF7FEFF 		bl	buffer_get_float32_auto
 2057              	.LVL213:
 2058              		.loc 1 332 0
 2059 049a 3146     		mov	r1, r6
 2060 049c 2846     		mov	r0, r5
 2061              		.loc 1 331 0
 2062 049e 84ED5A0A 		vstr.32	s0, [r4, #360]
 2063              		.loc 1 332 0
 2064 04a2 FFF7FEFF 		bl	buffer_get_float32_auto
 2065              	.LVL214:
 2066              		.loc 1 333 0
 2067 04a6 3146     		mov	r1, r6
 2068 04a8 2846     		mov	r0, r5
 2069              		.loc 1 332 0
 2070 04aa 84ED5B0A 		vstr.32	s0, [r4, #364]
 2071              		.loc 1 333 0
 2072 04ae FFF7FEFF 		bl	buffer_get_float32_auto
 2073              	.LVL215:
 2074              		.loc 1 334 0
 2075 04b2 3146     		mov	r1, r6
 2076 04b4 2846     		mov	r0, r5
 2077              		.loc 1 333 0
 2078 04b6 84ED5C0A 		vstr.32	s0, [r4, #368]
 2079              		.loc 1 334 0
 2080 04ba FFF7FEFF 		bl	buffer_get_float32_auto
 2081              	.LVL216:
 2082              		.loc 1 335 0
 2083 04be 3146     		mov	r1, r6
 2084 04c0 2846     		mov	r0, r5
 2085              		.loc 1 334 0
 2086 04c2 84ED5D0A 		vstr.32	s0, [r4, #372]
 2087              		.loc 1 335 0
 2088 04c6 FFF7FEFF 		bl	buffer_get_float32_auto
 2089              	.LVL217:
 2090              		.loc 1 336 0
 2091 04ca 3146     		mov	r1, r6
 2092 04cc 2846     		mov	r0, r5
 2093              		.loc 1 335 0
 2094 04ce 84ED5E0A 		vstr.32	s0, [r4, #376]
 2095              		.loc 1 336 0
 2096 04d2 FFF7FEFF 		bl	buffer_get_float32_auto
 2097              	.LVL218:
 2098              		.loc 1 337 0
 2099 04d6 3146     		mov	r1, r6
 2100 04d8 2846     		mov	r0, r5
 2101              		.loc 1 336 0
 2102 04da 84ED5F0A 		vstr.32	s0, [r4, #380]
 2103              		.loc 1 337 0
 2104 04de FFF7FEFF 		bl	buffer_get_float32_auto
 2105              	.LVL219:
 2106              		.loc 1 338 0
 2107 04e2 3146     		mov	r1, r6
 2108 04e4 2846     		mov	r0, r5
 2109              		.loc 1 337 0
ARM GAS  /tmp/ccOR9P9P.s 			page 38


 2110 04e6 84ED600A 		vstr.32	s0, [r4, #384]
 2111              		.loc 1 338 0
 2112 04ea FFF7FEFF 		bl	buffer_get_float32_auto
 2113              	.LVL220:
 2114              		.loc 1 339 0
 2115 04ee 3146     		mov	r1, r6
 2116              		.loc 1 338 0
 2117 04f0 84ED610A 		vstr.32	s0, [r4, #388]
 2118              		.loc 1 339 0
 2119 04f4 2846     		mov	r0, r5
 2120 04f6 FFF7FEFF 		bl	buffer_get_int32
 2121              	.LVL221:
 2122              		.loc 1 340 0
 2123 04fa 3146     		mov	r1, r6
 2124              		.loc 1 339 0
 2125 04fc C4F88801 		str	r0, [r4, #392]
 2126              		.loc 1 340 0
 2127 0500 2846     		mov	r0, r5
 2128 0502 FFF7FEFF 		bl	buffer_get_float32_auto
 2129              	.LVL222:
 2130              		.loc 1 341 0
 2131 0506 3146     		mov	r1, r6
 2132 0508 2846     		mov	r0, r5
 2133              		.loc 1 340 0
 2134 050a 84ED630A 		vstr.32	s0, [r4, #396]
 2135              		.loc 1 341 0
 2136 050e FFF7FEFF 		bl	buffer_get_float32_auto
 2137              	.LVL223:
 2138              		.loc 1 342 0
 2139 0512 3146     		mov	r1, r6
 2140              		.loc 1 341 0
 2141 0514 84ED640A 		vstr.32	s0, [r4, #400]
 2142              		.loc 1 342 0
 2143 0518 2846     		mov	r0, r5
 2144 051a FFF7FEFF 		bl	buffer_get_uint32
 2145              	.LVL224:
 2146              		.loc 1 343 0
 2147 051e 019B     		ldr	r3, [sp, #4]
 2148              		.loc 1 342 0
 2149 0520 C4F89401 		str	r0, [r4, #404]
 2150              		.loc 1 343 0
 2151 0524 EA5C     		ldrb	r2, [r5, r3]	@ zero_extendqisi2
 2152 0526 84F89821 		strb	r2, [r4, #408]
 2153              		.loc 1 344 0
 2154 052a EA18     		adds	r2, r5, r3
 2155              		.loc 1 346 0
 2156 052c 0433     		adds	r3, r3, #4
 2157              		.loc 1 344 0
 2158 052e 5178     		ldrb	r1, [r2, #1]	@ zero_extendqisi2
 2159              		.loc 1 346 0
 2160 0530 0193     		str	r3, [sp, #4]
 2161              		.loc 1 344 0
 2162 0532 CB1B     		subs	r3, r1, r7
 2163 0534 18BF     		it	ne
 2164 0536 0123     		movne	r3, #1
 2165 0538 84F89931 		strb	r3, [r4, #409]
 2166              		.loc 1 345 0
ARM GAS  /tmp/ccOR9P9P.s 			page 39


 2167 053c 9378     		ldrb	r3, [r2, #2]	@ zero_extendqisi2
 2168 053e 84F89A31 		strb	r3, [r4, #410]
 2169              		.loc 1 346 0
 2170 0542 D378     		ldrb	r3, [r2, #3]	@ zero_extendqisi2
 2171 0544 C4F89C31 		str	r3, [r4, #412]
 2172              		.loc 1 347 0
 2173 0548 3146     		mov	r1, r6
 2174 054a 2846     		mov	r0, r5
 2175 054c FFF7FEFF 		bl	buffer_get_float32_auto
 2176              	.LVL225:
 2177              		.loc 1 348 0
 2178 0550 3146     		mov	r1, r6
 2179 0552 2846     		mov	r0, r5
 2180              		.loc 1 347 0
 2181 0554 84ED680A 		vstr.32	s0, [r4, #416]
 2182              		.loc 1 348 0
 2183 0558 FFF7FEFF 		bl	buffer_get_float32_auto
 2184              	.LVL226:
 2185              		.loc 1 349 0
 2186 055c 3146     		mov	r1, r6
 2187 055e 2846     		mov	r0, r5
 2188              		.loc 1 348 0
 2189 0560 84ED690A 		vstr.32	s0, [r4, #420]
 2190              		.loc 1 349 0
 2191 0564 FFF7FEFF 		bl	buffer_get_float32_auto
 2192              	.LVL227:
 2193              		.loc 1 350 0
 2194 0568 3146     		mov	r1, r6
 2195 056a 2846     		mov	r0, r5
 2196              		.loc 1 349 0
 2197 056c 84ED6A0A 		vstr.32	s0, [r4, #424]
 2198              		.loc 1 350 0
 2199 0570 FFF7FEFF 		bl	buffer_get_float32_auto
 2200              	.LVL228:
 2201              		.loc 1 351 0
 2202 0574 019B     		ldr	r3, [sp, #4]
 2203              		.loc 1 350 0
 2204 0576 84ED6B0A 		vstr.32	s0, [r4, #428]
 2205              		.loc 1 351 0
 2206 057a EA5C     		ldrb	r2, [r5, r3]	@ zero_extendqisi2
 2207 057c 84F8B021 		strb	r2, [r4, #432]
 2208              		.loc 1 352 0
 2209 0580 EA18     		adds	r2, r5, r3
 2210              		.loc 1 353 0
 2211 0582 3146     		mov	r1, r6
 2212              		.loc 1 352 0
 2213 0584 5278     		ldrb	r2, [r2, #1]	@ zero_extendqisi2
 2214 0586 84F8B121 		strb	r2, [r4, #433]
 2215 058a 0233     		adds	r3, r3, #2
 2216              		.loc 1 353 0
 2217 058c 2846     		mov	r0, r5
 2218              		.loc 1 352 0
 2219 058e 0193     		str	r3, [sp, #4]
 2220              		.loc 1 353 0
 2221 0590 FFF7FEFF 		bl	buffer_get_float32_auto
 2222              	.LVL229:
 2223              		.loc 1 354 0
ARM GAS  /tmp/ccOR9P9P.s 			page 40


 2224 0594 3146     		mov	r1, r6
 2225 0596 2846     		mov	r0, r5
 2226              		.loc 1 353 0
 2227 0598 84ED6D0A 		vstr.32	s0, [r4, #436]
 2228              		.loc 1 354 0
 2229 059c FFF7FEFF 		bl	buffer_get_float32_auto
 2230              	.LVL230:
 2231              		.loc 1 355 0
 2232 05a0 019B     		ldr	r3, [sp, #4]
 2233              		.loc 1 354 0
 2234 05a2 84ED6E0A 		vstr.32	s0, [r4, #440]
 2235              		.loc 1 355 0
 2236 05a6 EA5C     		ldrb	r2, [r5, r3]	@ zero_extendqisi2
 2237 05a8 84F8BC21 		strb	r2, [r4, #444]
 2238              		.loc 1 356 0
 2239 05ac EA18     		adds	r2, r5, r3
 2240              		.loc 1 357 0
 2241 05ae 2846     		mov	r0, r5
 2242              		.loc 1 356 0
 2243 05b0 5278     		ldrb	r2, [r2, #1]	@ zero_extendqisi2
 2244 05b2 C4F8C021 		str	r2, [r4, #448]
 2245 05b6 0233     		adds	r3, r3, #2
 2246              		.loc 1 357 0
 2247 05b8 3146     		mov	r1, r6
 2248              		.loc 1 356 0
 2249 05ba 0193     		str	r3, [sp, #4]
 2250              		.loc 1 357 0
 2251 05bc FFF7FEFF 		bl	buffer_get_float32_auto
 2252              	.LVL231:
 2253              		.loc 1 359 0
 2254 05c0 0120     		movs	r0, #1
 2255              		.loc 1 357 0
 2256 05c2 84ED710A 		vstr.32	s0, [r4, #452]
 2257              		.loc 1 360 0
 2258 05c6 03B0     		add	sp, sp, #12
 2259              		.cfi_def_cfa_offset 20
 2260              		@ sp needed
 2261 05c8 F0BD     		pop	{r4, r5, r6, r7, pc}
 2262              		.cfi_endproc
 2263              	.LFE221:
 2264              		.size	confgenerator_deserialize_mcconf, .-confgenerator_deserialize_mcconf
 2265 05ca 00BF     		.section	.text.confgenerator_deserialize_appconf,"ax",%progbits
 2266              		.align	1
 2267              		.p2align 4,,15
 2268              		.global	confgenerator_deserialize_appconf
 2269              		.syntax unified
 2270              		.thumb
 2271              		.thumb_func
 2272              		.fpu fpv4-sp-d16
 2273              		.type	confgenerator_deserialize_appconf, %function
 2274              	confgenerator_deserialize_appconf:
 2275              	.LFB222:
 2276              		.loc 1 362 0
 2277              		.cfi_startproc
 2278              		@ args = 0, pretend = 0, frame = 8
 2279              		@ frame_needed = 0, uses_anonymous_args = 0
 2280              	.LVL232:
ARM GAS  /tmp/ccOR9P9P.s 			page 41


 2281 0000 F0B5     		push	{r4, r5, r6, r7, lr}
 2282              		.cfi_def_cfa_offset 20
 2283              		.cfi_offset 4, -20
 2284              		.cfi_offset 5, -16
 2285              		.cfi_offset 6, -12
 2286              		.cfi_offset 7, -8
 2287              		.cfi_offset 14, -4
 2288 0002 83B0     		sub	sp, sp, #12
 2289              		.cfi_def_cfa_offset 32
 2290              		.loc 1 363 0
 2291 0004 02AE     		add	r6, sp, #8
 2292 0006 0027     		movs	r7, #0
 2293 0008 46F8047D 		str	r7, [r6, #-4]!
 2294              		.loc 1 362 0
 2295 000c 0C46     		mov	r4, r1
 2296              		.loc 1 365 0
 2297 000e 3146     		mov	r1, r6
 2298              	.LVL233:
 2299              		.loc 1 362 0
 2300 0010 0546     		mov	r5, r0
 2301              		.loc 1 365 0
 2302 0012 FFF7FEFF 		bl	buffer_get_uint32
 2303              	.LVL234:
 2304              		.loc 1 366 0
 2305 0016 034B     		ldr	r3, .L23
 2306 0018 9842     		cmp	r0, r3
 2307 001a 05D0     		beq	.L22
 2308              		.loc 1 367 0
 2309 001c 3846     		mov	r0, r7
 2310              	.LVL235:
 2311              		.loc 1 443 0
 2312 001e 03B0     		add	sp, sp, #12
 2313              		.cfi_remember_state
 2314              		.cfi_def_cfa_offset 20
 2315              		@ sp needed
 2316 0020 F0BD     		pop	{r4, r5, r6, r7, pc}
 2317              	.LVL236:
 2318              	.L24:
 2319 0022 00BF     		.align	2
 2320              	.L23:
 2321 0024 C530382B 		.word	725102789
 2322              	.LVL237:
 2323              	.L22:
 2324              		.cfi_restore_state
 2325              		.loc 1 370 0
 2326 0028 019B     		ldr	r3, [sp, #4]
 2327 002a EA5C     		ldrb	r2, [r5, r3]	@ zero_extendqisi2
 2328 002c 2270     		strb	r2, [r4]
 2329 002e 0133     		adds	r3, r3, #1
 2330              		.loc 1 371 0
 2331 0030 3146     		mov	r1, r6
 2332 0032 2846     		mov	r0, r5
 2333              	.LVL238:
 2334              		.loc 1 370 0
 2335 0034 0193     		str	r3, [sp, #4]
 2336              		.loc 1 371 0
 2337 0036 FFF7FEFF 		bl	buffer_get_uint32
ARM GAS  /tmp/ccOR9P9P.s 			page 42


 2338              	.LVL239:
 2339              		.loc 1 372 0
 2340 003a 3146     		mov	r1, r6
 2341              		.loc 1 371 0
 2342 003c 6060     		str	r0, [r4, #4]
 2343              		.loc 1 372 0
 2344 003e 2846     		mov	r0, r5
 2345 0040 FFF7FEFF 		bl	buffer_get_float32_auto
 2346              	.LVL240:
 2347              		.loc 1 373 0
 2348 0044 019B     		ldr	r3, [sp, #4]
 2349              		.loc 1 372 0
 2350 0046 84ED020A 		vstr.32	s0, [r4, #8]
 2351              		.loc 1 373 0
 2352 004a EA5C     		ldrb	r2, [r5, r3]	@ zero_extendqisi2
 2353 004c 2273     		strb	r2, [r4, #12]
 2354 004e 0133     		adds	r3, r3, #1
 2355              		.loc 1 374 0
 2356 0050 3146     		mov	r1, r6
 2357 0052 2846     		mov	r0, r5
 2358              		.loc 1 373 0
 2359 0054 0193     		str	r3, [sp, #4]
 2360              		.loc 1 374 0
 2361 0056 FFF7FEFF 		bl	buffer_get_uint16
 2362              	.LVL241:
 2363              		.loc 1 375 0
 2364 005a 019A     		ldr	r2, [sp, #4]
 2365              		.loc 1 374 0
 2366 005c 2061     		str	r0, [r4, #16]
 2367              		.loc 1 375 0
 2368 005e AB5C     		ldrb	r3, [r5, r2]	@ zero_extendqisi2
 2369 0060 2375     		strb	r3, [r4, #20]
 2370              		.loc 1 376 0
 2371 0062 AB18     		adds	r3, r5, r2
 2372              		.loc 1 381 0
 2373 0064 0732     		adds	r2, r2, #7
 2374              		.loc 1 376 0
 2375 0066 5978     		ldrb	r1, [r3, #1]	@ zero_extendqisi2
 2376              		.loc 1 381 0
 2377 0068 0192     		str	r2, [sp, #4]
 2378              		.loc 1 376 0
 2379 006a CA1B     		subs	r2, r1, r7
 2380 006c 18BF     		it	ne
 2381 006e 0122     		movne	r2, #1
 2382 0070 6275     		strb	r2, [r4, #21]
 2383              		.loc 1 377 0
 2384 0072 9A78     		ldrb	r2, [r3, #2]	@ zero_extendqisi2
 2385 0074 D21B     		subs	r2, r2, r7
 2386 0076 18BF     		it	ne
 2387 0078 0122     		movne	r2, #1
 2388 007a A275     		strb	r2, [r4, #22]
 2389              		.loc 1 378 0
 2390 007c DA78     		ldrb	r2, [r3, #3]	@ zero_extendqisi2
 2391 007e D21B     		subs	r2, r2, r7
 2392 0080 18BF     		it	ne
 2393 0082 0122     		movne	r2, #1
 2394 0084 E275     		strb	r2, [r4, #23]
ARM GAS  /tmp/ccOR9P9P.s 			page 43


 2395              		.loc 1 379 0
 2396 0086 1A79     		ldrb	r2, [r3, #4]	@ zero_extendqisi2
 2397 0088 2276     		strb	r2, [r4, #24]
 2398              		.loc 1 380 0
 2399 008a 5A79     		ldrb	r2, [r3, #5]	@ zero_extendqisi2
 2400 008c 6276     		strb	r2, [r4, #25]
 2401              		.loc 1 381 0
 2402 008e 9B79     		ldrb	r3, [r3, #6]	@ zero_extendqisi2
 2403 0090 2377     		strb	r3, [r4, #28]
 2404              		.loc 1 382 0
 2405 0092 3146     		mov	r1, r6
 2406 0094 2846     		mov	r0, r5
 2407 0096 FFF7FEFF 		bl	buffer_get_float32_auto
 2408              	.LVL242:
 2409              		.loc 1 383 0
 2410 009a 3146     		mov	r1, r6
 2411 009c 2846     		mov	r0, r5
 2412              		.loc 1 382 0
 2413 009e 84ED080A 		vstr.32	s0, [r4, #32]
 2414              		.loc 1 383 0
 2415 00a2 FFF7FEFF 		bl	buffer_get_float32_auto
 2416              	.LVL243:
 2417              		.loc 1 384 0
 2418 00a6 3146     		mov	r1, r6
 2419 00a8 2846     		mov	r0, r5
 2420              		.loc 1 383 0
 2421 00aa 84ED090A 		vstr.32	s0, [r4, #36]
 2422              		.loc 1 384 0
 2423 00ae FFF7FEFF 		bl	buffer_get_float32_auto
 2424              	.LVL244:
 2425              		.loc 1 385 0
 2426 00b2 3146     		mov	r1, r6
 2427 00b4 2846     		mov	r0, r5
 2428              		.loc 1 384 0
 2429 00b6 84ED0A0A 		vstr.32	s0, [r4, #40]
 2430              		.loc 1 385 0
 2431 00ba FFF7FEFF 		bl	buffer_get_float32_auto
 2432              	.LVL245:
 2433              		.loc 1 386 0
 2434 00be 3146     		mov	r1, r6
 2435 00c0 2846     		mov	r0, r5
 2436              		.loc 1 385 0
 2437 00c2 84ED0B0A 		vstr.32	s0, [r4, #44]
 2438              		.loc 1 386 0
 2439 00c6 FFF7FEFF 		bl	buffer_get_float32_auto
 2440              	.LVL246:
 2441              		.loc 1 387 0
 2442 00ca 019B     		ldr	r3, [sp, #4]
 2443              		.loc 1 386 0
 2444 00cc 84ED0C0A 		vstr.32	s0, [r4, #48]
 2445              		.loc 1 387 0
 2446 00d0 EA5C     		ldrb	r2, [r5, r3]	@ zero_extendqisi2
 2447 00d2 D21B     		subs	r2, r2, r7
 2448              		.loc 1 388 0
 2449 00d4 05EB0301 		add	r1, r5, r3
 2450              		.loc 1 387 0
 2451 00d8 18BF     		it	ne
ARM GAS  /tmp/ccOR9P9P.s 			page 44


 2452 00da 0122     		movne	r2, #1
 2453 00dc 84F83420 		strb	r2, [r4, #52]
 2454              		.loc 1 388 0
 2455 00e0 4A78     		ldrb	r2, [r1, #1]	@ zero_extendqisi2
 2456 00e2 D21B     		subs	r2, r2, r7
 2457 00e4 18BF     		it	ne
 2458 00e6 0122     		movne	r2, #1
 2459 00e8 84F83520 		strb	r2, [r4, #53]
 2460 00ec 0233     		adds	r3, r3, #2
 2461              		.loc 1 389 0
 2462 00ee 3146     		mov	r1, r6
 2463 00f0 2846     		mov	r0, r5
 2464              		.loc 1 388 0
 2465 00f2 0193     		str	r3, [sp, #4]
 2466              		.loc 1 389 0
 2467 00f4 FFF7FEFF 		bl	buffer_get_float32_auto
 2468              	.LVL247:
 2469              		.loc 1 390 0
 2470 00f8 3146     		mov	r1, r6
 2471 00fa 2846     		mov	r0, r5
 2472              		.loc 1 389 0
 2473 00fc 84ED0E0A 		vstr.32	s0, [r4, #56]
 2474              		.loc 1 390 0
 2475 0100 FFF7FEFF 		bl	buffer_get_float32_auto
 2476              	.LVL248:
 2477              		.loc 1 391 0
 2478 0104 019B     		ldr	r3, [sp, #4]
 2479              		.loc 1 390 0
 2480 0106 84ED0F0A 		vstr.32	s0, [r4, #60]
 2481              		.loc 1 391 0
 2482 010a EA5C     		ldrb	r2, [r5, r3]	@ zero_extendqisi2
 2483 010c 84F84020 		strb	r2, [r4, #64]
 2484 0110 0133     		adds	r3, r3, #1
 2485              		.loc 1 392 0
 2486 0112 3146     		mov	r1, r6
 2487 0114 2846     		mov	r0, r5
 2488              		.loc 1 391 0
 2489 0116 0193     		str	r3, [sp, #4]
 2490              		.loc 1 392 0
 2491 0118 FFF7FEFF 		bl	buffer_get_float32_auto
 2492              	.LVL249:
 2493              		.loc 1 393 0
 2494 011c 3146     		mov	r1, r6
 2495 011e 2846     		mov	r0, r5
 2496              		.loc 1 392 0
 2497 0120 84ED110A 		vstr.32	s0, [r4, #68]
 2498              		.loc 1 393 0
 2499 0124 FFF7FEFF 		bl	buffer_get_float32_auto
 2500              	.LVL250:
 2501              		.loc 1 394 0
 2502 0128 019B     		ldr	r3, [sp, #4]
 2503              		.loc 1 393 0
 2504 012a 84ED120A 		vstr.32	s0, [r4, #72]
 2505              		.loc 1 394 0
 2506 012e EA5C     		ldrb	r2, [r5, r3]	@ zero_extendqisi2
 2507 0130 D21B     		subs	r2, r2, r7
 2508              		.loc 1 395 0
ARM GAS  /tmp/ccOR9P9P.s 			page 45


 2509 0132 05EB0301 		add	r1, r5, r3
 2510              		.loc 1 394 0
 2511 0136 18BF     		it	ne
 2512 0138 0122     		movne	r2, #1
 2513 013a 84F84C20 		strb	r2, [r4, #76]
 2514              		.loc 1 395 0
 2515 013e 4A78     		ldrb	r2, [r1, #1]	@ zero_extendqisi2
 2516 0140 D21B     		subs	r2, r2, r7
 2517 0142 18BF     		it	ne
 2518 0144 0122     		movne	r2, #1
 2519 0146 84F84D20 		strb	r2, [r4, #77]
 2520 014a 0233     		adds	r3, r3, #2
 2521              		.loc 1 396 0
 2522 014c 3146     		mov	r1, r6
 2523 014e 2846     		mov	r0, r5
 2524              		.loc 1 395 0
 2525 0150 0193     		str	r3, [sp, #4]
 2526              		.loc 1 396 0
 2527 0152 FFF7FEFF 		bl	buffer_get_float32_auto
 2528              	.LVL251:
 2529              		.loc 1 397 0
 2530 0156 019B     		ldr	r3, [sp, #4]
 2531              		.loc 1 396 0
 2532 0158 84ED140A 		vstr.32	s0, [r4, #80]
 2533              		.loc 1 397 0
 2534 015c EA5C     		ldrb	r2, [r5, r3]	@ zero_extendqisi2
 2535 015e 84F85420 		strb	r2, [r4, #84]
 2536 0162 0133     		adds	r3, r3, #1
 2537              		.loc 1 398 0
 2538 0164 3146     		mov	r1, r6
 2539 0166 2846     		mov	r0, r5
 2540              		.loc 1 397 0
 2541 0168 0193     		str	r3, [sp, #4]
 2542              		.loc 1 398 0
 2543 016a FFF7FEFF 		bl	buffer_get_float32_auto
 2544              	.LVL252:
 2545              		.loc 1 399 0
 2546 016e 3146     		mov	r1, r6
 2547 0170 2846     		mov	r0, r5
 2548              		.loc 1 398 0
 2549 0172 84ED160A 		vstr.32	s0, [r4, #88]
 2550              		.loc 1 399 0
 2551 0176 FFF7FEFF 		bl	buffer_get_float32_auto
 2552              	.LVL253:
 2553              		.loc 1 400 0
 2554 017a 3146     		mov	r1, r6
 2555 017c 2846     		mov	r0, r5
 2556              		.loc 1 399 0
 2557 017e 84ED170A 		vstr.32	s0, [r4, #92]
 2558              		.loc 1 400 0
 2559 0182 FFF7FEFF 		bl	buffer_get_float32_auto
 2560              	.LVL254:
 2561              		.loc 1 401 0
 2562 0186 3146     		mov	r1, r6
 2563 0188 2846     		mov	r0, r5
 2564              		.loc 1 400 0
 2565 018a 84ED180A 		vstr.32	s0, [r4, #96]
ARM GAS  /tmp/ccOR9P9P.s 			page 46


 2566              		.loc 1 401 0
 2567 018e FFF7FEFF 		bl	buffer_get_float32_auto
 2568              	.LVL255:
 2569              		.loc 1 402 0
 2570 0192 3146     		mov	r1, r6
 2571 0194 2846     		mov	r0, r5
 2572              		.loc 1 401 0
 2573 0196 84ED190A 		vstr.32	s0, [r4, #100]
 2574              		.loc 1 402 0
 2575 019a FFF7FEFF 		bl	buffer_get_float32_auto
 2576              	.LVL256:
 2577              		.loc 1 403 0
 2578 019e 3146     		mov	r1, r6
 2579 01a0 2846     		mov	r0, r5
 2580              		.loc 1 402 0
 2581 01a2 84ED1A0A 		vstr.32	s0, [r4, #104]
 2582              		.loc 1 403 0
 2583 01a6 FFF7FEFF 		bl	buffer_get_float32_auto
 2584              	.LVL257:
 2585              		.loc 1 404 0
 2586 01aa 019B     		ldr	r3, [sp, #4]
 2587              		.loc 1 403 0
 2588 01ac 84ED1B0A 		vstr.32	s0, [r4, #108]
 2589              		.loc 1 404 0
 2590 01b0 E95C     		ldrb	r1, [r5, r3]	@ zero_extendqisi2
 2591 01b2 C91B     		subs	r1, r1, r7
 2592              		.loc 1 405 0
 2593 01b4 05EB0302 		add	r2, r5, r3
 2594              		.loc 1 404 0
 2595 01b8 18BF     		it	ne
 2596 01ba 0121     		movne	r1, #1
 2597 01bc 84F87010 		strb	r1, [r4, #112]
 2598              		.loc 1 405 0
 2599 01c0 5178     		ldrb	r1, [r2, #1]	@ zero_extendqisi2
 2600 01c2 C91B     		subs	r1, r1, r7
 2601 01c4 18BF     		it	ne
 2602 01c6 0121     		movne	r1, #1
 2603 01c8 84F87110 		strb	r1, [r4, #113]
 2604              		.loc 1 406 0
 2605 01cc 9178     		ldrb	r1, [r2, #2]	@ zero_extendqisi2
 2606 01ce C91B     		subs	r1, r1, r7
 2607 01d0 18BF     		it	ne
 2608 01d2 0121     		movne	r1, #1
 2609 01d4 84F87210 		strb	r1, [r4, #114]
 2610              		.loc 1 407 0
 2611 01d8 D178     		ldrb	r1, [r2, #3]	@ zero_extendqisi2
 2612 01da C91B     		subs	r1, r1, r7
 2613 01dc 18BF     		it	ne
 2614 01de 0121     		movne	r1, #1
 2615 01e0 84F87310 		strb	r1, [r4, #115]
 2616              		.loc 1 408 0
 2617 01e4 1179     		ldrb	r1, [r2, #4]	@ zero_extendqisi2
 2618 01e6 C91B     		subs	r1, r1, r7
 2619 01e8 18BF     		it	ne
 2620 01ea 0121     		movne	r1, #1
 2621 01ec 84F87410 		strb	r1, [r4, #116]
 2622              		.loc 1 409 0
ARM GAS  /tmp/ccOR9P9P.s 			page 47


 2623 01f0 5279     		ldrb	r2, [r2, #5]	@ zero_extendqisi2
 2624 01f2 D21B     		subs	r2, r2, r7
 2625 01f4 18BF     		it	ne
 2626 01f6 0122     		movne	r2, #1
 2627 01f8 0633     		adds	r3, r3, #6
 2628 01fa 84F87520 		strb	r2, [r4, #117]
 2629              		.loc 1 410 0
 2630 01fe 3146     		mov	r1, r6
 2631 0200 2846     		mov	r0, r5
 2632              		.loc 1 409 0
 2633 0202 0193     		str	r3, [sp, #4]
 2634              		.loc 1 410 0
 2635 0204 FFF7FEFF 		bl	buffer_get_float32_auto
 2636              	.LVL258:
 2637              		.loc 1 411 0
 2638 0208 3146     		mov	r1, r6
 2639 020a 2846     		mov	r0, r5
 2640              		.loc 1 410 0
 2641 020c 84ED1E0A 		vstr.32	s0, [r4, #120]
 2642              		.loc 1 411 0
 2643 0210 FFF7FEFF 		bl	buffer_get_float32_auto
 2644              	.LVL259:
 2645              		.loc 1 412 0
 2646 0214 019B     		ldr	r3, [sp, #4]
 2647              		.loc 1 411 0
 2648 0216 84ED1F0A 		vstr.32	s0, [r4, #124]
 2649              		.loc 1 412 0
 2650 021a EA5C     		ldrb	r2, [r5, r3]	@ zero_extendqisi2
 2651 021c 84F88020 		strb	r2, [r4, #128]
 2652 0220 0133     		adds	r3, r3, #1
 2653              		.loc 1 413 0
 2654 0222 3146     		mov	r1, r6
 2655 0224 2846     		mov	r0, r5
 2656              		.loc 1 412 0
 2657 0226 0193     		str	r3, [sp, #4]
 2658              		.loc 1 413 0
 2659 0228 FFF7FEFF 		bl	buffer_get_float32_auto
 2660              	.LVL260:
 2661              		.loc 1 414 0
 2662 022c 3146     		mov	r1, r6
 2663 022e 2846     		mov	r0, r5
 2664              		.loc 1 413 0
 2665 0230 84ED210A 		vstr.32	s0, [r4, #132]
 2666              		.loc 1 414 0
 2667 0234 FFF7FEFF 		bl	buffer_get_float32_auto
 2668              	.LVL261:
 2669              		.loc 1 415 0
 2670 0238 019B     		ldr	r3, [sp, #4]
 2671              		.loc 1 414 0
 2672 023a 84ED220A 		vstr.32	s0, [r4, #136]
 2673              		.loc 1 415 0
 2674 023e EA5C     		ldrb	r2, [r5, r3]	@ zero_extendqisi2
 2675 0240 D21B     		subs	r2, r2, r7
 2676              		.loc 1 416 0
 2677 0242 05EB0301 		add	r1, r5, r3
 2678              		.loc 1 415 0
 2679 0246 18BF     		it	ne
ARM GAS  /tmp/ccOR9P9P.s 			page 48


 2680 0248 0122     		movne	r2, #1
 2681 024a 84F88C20 		strb	r2, [r4, #140]
 2682              		.loc 1 416 0
 2683 024e 4A78     		ldrb	r2, [r1, #1]	@ zero_extendqisi2
 2684 0250 D21B     		subs	r2, r2, r7
 2685 0252 18BF     		it	ne
 2686 0254 0122     		movne	r2, #1
 2687 0256 84F88D20 		strb	r2, [r4, #141]
 2688 025a 0233     		adds	r3, r3, #2
 2689              		.loc 1 417 0
 2690 025c 3146     		mov	r1, r6
 2691 025e 2846     		mov	r0, r5
 2692              		.loc 1 416 0
 2693 0260 0193     		str	r3, [sp, #4]
 2694              		.loc 1 417 0
 2695 0262 FFF7FEFF 		bl	buffer_get_float32_auto
 2696              	.LVL262:
 2697              		.loc 1 418 0
 2698 0266 3146     		mov	r1, r6
 2699              		.loc 1 417 0
 2700 0268 84ED240A 		vstr.32	s0, [r4, #144]
 2701              		.loc 1 418 0
 2702 026c 2846     		mov	r0, r5
 2703 026e FFF7FEFF 		bl	buffer_get_uint16
 2704              	.LVL263:
 2705              		.loc 1 419 0
 2706 0272 3146     		mov	r1, r6
 2707              		.loc 1 418 0
 2708 0274 C4F89400 		str	r0, [r4, #148]
 2709              		.loc 1 419 0
 2710 0278 2846     		mov	r0, r5
 2711 027a FFF7FEFF 		bl	buffer_get_uint32
 2712              	.LVL264:
 2713              		.loc 1 420 0
 2714 027e 019B     		ldr	r3, [sp, #4]
 2715              		.loc 1 419 0
 2716 0280 C4F89800 		str	r0, [r4, #152]
 2717              		.loc 1 420 0
 2718 0284 EA5C     		ldrb	r2, [r5, r3]	@ zero_extendqisi2
 2719 0286 84F89C20 		strb	r2, [r4, #156]
 2720 028a 0133     		adds	r3, r3, #1
 2721              		.loc 1 421 0
 2722 028c 3146     		mov	r1, r6
 2723 028e 2846     		mov	r0, r5
 2724              		.loc 1 420 0
 2725 0290 0193     		str	r3, [sp, #4]
 2726              		.loc 1 421 0
 2727 0292 FFF7FEFF 		bl	buffer_get_float32_auto
 2728              	.LVL265:
 2729              		.loc 1 422 0
 2730 0296 3146     		mov	r1, r6
 2731 0298 2846     		mov	r0, r5
 2732              		.loc 1 421 0
 2733 029a 84ED280A 		vstr.32	s0, [r4, #160]
 2734              		.loc 1 422 0
 2735 029e FFF7FEFF 		bl	buffer_get_float32_auto
 2736              	.LVL266:
ARM GAS  /tmp/ccOR9P9P.s 			page 49


 2737              		.loc 1 423 0
 2738 02a2 3146     		mov	r1, r6
 2739 02a4 2846     		mov	r0, r5
 2740              		.loc 1 422 0
 2741 02a6 84ED290A 		vstr.32	s0, [r4, #164]
 2742              		.loc 1 423 0
 2743 02aa FFF7FEFF 		bl	buffer_get_float32_auto
 2744              	.LVL267:
 2745              		.loc 1 424 0
 2746 02ae 3146     		mov	r1, r6
 2747 02b0 2846     		mov	r0, r5
 2748              		.loc 1 423 0
 2749 02b2 84ED2A0A 		vstr.32	s0, [r4, #168]
 2750              		.loc 1 424 0
 2751 02b6 FFF7FEFF 		bl	buffer_get_float32_auto
 2752              	.LVL268:
 2753              		.loc 1 425 0
 2754 02ba 3146     		mov	r1, r6
 2755 02bc 2846     		mov	r0, r5
 2756              		.loc 1 424 0
 2757 02be 84ED2B0A 		vstr.32	s0, [r4, #172]
 2758              		.loc 1 425 0
 2759 02c2 FFF7FEFF 		bl	buffer_get_float32_auto
 2760              	.LVL269:
 2761              		.loc 1 426 0
 2762 02c6 3146     		mov	r1, r6
 2763 02c8 2846     		mov	r0, r5
 2764              		.loc 1 425 0
 2765 02ca 84ED2C0A 		vstr.32	s0, [r4, #176]
 2766              		.loc 1 426 0
 2767 02ce FFF7FEFF 		bl	buffer_get_float32_auto
 2768              	.LVL270:
 2769              		.loc 1 427 0
 2770 02d2 019B     		ldr	r3, [sp, #4]
 2771              		.loc 1 426 0
 2772 02d4 84ED2D0A 		vstr.32	s0, [r4, #180]
 2773              		.loc 1 427 0
 2774 02d8 EA5C     		ldrb	r2, [r5, r3]	@ zero_extendqisi2
 2775 02da 84F8B820 		strb	r2, [r4, #184]
 2776              		.loc 1 428 0
 2777 02de E818     		adds	r0, r5, r3
 2778              		.loc 1 430 0
 2779 02e0 3146     		mov	r1, r6
 2780              		.loc 1 428 0
 2781 02e2 4278     		ldrb	r2, [r0, #1]	@ zero_extendqisi2
 2782 02e4 D21B     		subs	r2, r2, r7
 2783 02e6 18BF     		it	ne
 2784 02e8 0122     		movne	r2, #1
 2785 02ea 84F8B920 		strb	r2, [r4, #185]
 2786              		.loc 1 429 0
 2787 02ee 8278     		ldrb	r2, [r0, #2]	@ zero_extendqisi2
 2788 02f0 D21B     		subs	r2, r2, r7
 2789 02f2 18BF     		it	ne
 2790 02f4 0122     		movne	r2, #1
 2791 02f6 0333     		adds	r3, r3, #3
 2792 02f8 84F8BA20 		strb	r2, [r4, #186]
 2793              		.loc 1 430 0
ARM GAS  /tmp/ccOR9P9P.s 			page 50


 2794 02fc 2846     		mov	r0, r5
 2795              		.loc 1 429 0
 2796 02fe 0193     		str	r3, [sp, #4]
 2797              		.loc 1 430 0
 2798 0300 FFF7FEFF 		bl	buffer_get_float32_auto
 2799              	.LVL271:
 2800              		.loc 1 431 0
 2801 0304 019B     		ldr	r3, [sp, #4]
 2802              		.loc 1 430 0
 2803 0306 84ED2F0A 		vstr.32	s0, [r4, #188]
 2804              		.loc 1 431 0
 2805 030a EA5C     		ldrb	r2, [r5, r3]	@ zero_extendqisi2
 2806 030c 84F8C020 		strb	r2, [r4, #192]
 2807              		.loc 1 432 0
 2808 0310 1D44     		add	r5, r5, r3
 2809              	.LVL272:
 2810              		.loc 1 442 0
 2811 0312 0120     		movs	r0, #1
 2812              		.loc 1 432 0
 2813 0314 6B78     		ldrb	r3, [r5, #1]	@ zero_extendqisi2
 2814 0316 84F8C130 		strb	r3, [r4, #193]
 2815              		.loc 1 433 0
 2816 031a AB78     		ldrb	r3, [r5, #2]	@ zero_extendqisi2
 2817 031c 84F8C230 		strb	r3, [r4, #194]
 2818              		.loc 1 434 0
 2819 0320 EB78     		ldrb	r3, [r5, #3]	@ zero_extendqisi2
 2820 0322 84F8C330 		strb	r3, [r4, #195]
 2821              		.loc 1 435 0
 2822 0326 2B79     		ldrb	r3, [r5, #4]	@ zero_extendqisi2
 2823 0328 84F8C430 		strb	r3, [r4, #196]
 2824              		.loc 1 436 0
 2825 032c 6B79     		ldrb	r3, [r5, #5]	@ zero_extendqisi2
 2826 032e 84F8C530 		strb	r3, [r4, #197]
 2827              		.loc 1 437 0
 2828 0332 AB79     		ldrb	r3, [r5, #6]	@ zero_extendqisi2
 2829 0334 84F8C630 		strb	r3, [r4, #198]
 2830              		.loc 1 438 0
 2831 0338 EB79     		ldrb	r3, [r5, #7]	@ zero_extendqisi2
 2832 033a 84F8C730 		strb	r3, [r4, #199]
 2833              		.loc 1 439 0
 2834 033e 2B7A     		ldrb	r3, [r5, #8]	@ zero_extendqisi2
 2835 0340 84F8C830 		strb	r3, [r4, #200]
 2836              		.loc 1 440 0
 2837 0344 6B7A     		ldrb	r3, [r5, #9]	@ zero_extendqisi2
 2838 0346 DB1B     		subs	r3, r3, r7
 2839 0348 18BF     		it	ne
 2840 034a 0123     		movne	r3, #1
 2841 034c 84F8C930 		strb	r3, [r4, #201]
 2842              		.loc 1 443 0
 2843 0350 03B0     		add	sp, sp, #12
 2844              		.cfi_def_cfa_offset 20
 2845              		@ sp needed
 2846 0352 F0BD     		pop	{r4, r5, r6, r7, pc}
 2847              		.cfi_endproc
 2848              	.LFE222:
 2849              		.size	confgenerator_deserialize_appconf, .-confgenerator_deserialize_appconf
 2850              		.section	.text.confgenerator_set_defaults_mcconf,"ax",%progbits
ARM GAS  /tmp/ccOR9P9P.s 			page 51


 2851              		.align	1
 2852              		.p2align 4,,15
 2853              		.global	confgenerator_set_defaults_mcconf
 2854              		.syntax unified
 2855              		.thumb
 2856              		.thumb_func
 2857              		.fpu fpv4-sp-d16
 2858              		.type	confgenerator_set_defaults_mcconf, %function
 2859              	confgenerator_set_defaults_mcconf:
 2860              	.LFB223:
 2861              		.loc 1 445 0
 2862              		.cfi_startproc
 2863              		@ args = 0, pretend = 0, frame = 0
 2864              		@ frame_needed = 0, uses_anonymous_args = 0
 2865              	.LVL273:
 2866 0000 2DE9F041 		push	{r4, r5, r6, r7, r8, lr}
 2867              		.cfi_def_cfa_offset 24
 2868              		.cfi_offset 4, -24
 2869              		.cfi_offset 5, -20
 2870              		.cfi_offset 6, -16
 2871              		.cfi_offset 7, -12
 2872              		.cfi_offset 8, -8
 2873              		.cfi_offset 14, -4
 2874              		.loc 1 450 0
 2875 0004 9749     		ldr	r1, .L27
 2876              		.loc 1 452 0
 2877 0006 984A     		ldr	r2, .L27+4
 2878              		.loc 1 457 0
 2879 0008 984B     		ldr	r3, .L27+8
 2880              		.loc 1 459 0
 2881 000a 994C     		ldr	r4, .L27+12
 2882              		.loc 1 455 0
 2883 000c 994E     		ldr	r6, .L27+16
 2884              		.loc 1 458 0
 2885 000e 9A4D     		ldr	r5, .L27+20
 2886              		.loc 1 450 0
 2887 0010 4160     		str	r1, [r0, #4]	@ float
 2888              		.loc 1 452 0
 2889 0012 C260     		str	r2, [r0, #12]	@ float
 2890              		.loc 1 448 0
 2891 0014 0221     		movs	r1, #2
 2892              		.loc 1 469 0
 2893 0016 994A     		ldr	r2, .L27+24
 2894              		.loc 1 457 0
 2895 0018 0362     		str	r3, [r0, #32]	@ float
 2896              		.loc 1 459 0
 2897 001a 8462     		str	r4, [r0, #40]	@ float
 2898              		.loc 1 472 0
 2899 001c 984B     		ldr	r3, .L27+28
 2900              		.loc 1 451 0
 2901 001e 994C     		ldr	r4, .L27+32
 2902              		.loc 1 456 0
 2903 0020 994F     		ldr	r7, .L27+36
 2904              		.loc 1 448 0
 2905 0022 8170     		strb	r1, [r0, #2]
 2906              		.loc 1 455 0
 2907 0024 8661     		str	r6, [r0, #24]	@ float
ARM GAS  /tmp/ccOR9P9P.s 			page 52


 2908              		.loc 1 461 0
 2909 0026 9949     		ldr	r1, .L27+40
 2910              		.loc 1 470 0
 2911 0028 994E     		ldr	r6, .L27+44
 2912              		.loc 1 458 0
 2913 002a 4562     		str	r5, [r0, #36]	@ float
 2914              		.loc 1 469 0
 2915 002c 0265     		str	r2, [r0, #80]	@ float
 2916              		.loc 1 473 0
 2917 002e 994D     		ldr	r5, .L27+48
 2918              		.loc 1 465 0
 2919 0030 994A     		ldr	r2, .L27+52
 2920              		.loc 1 472 0
 2921 0032 C365     		str	r3, [r0, #92]	@ float
 2922              		.loc 1 451 0
 2923 0034 8460     		str	r4, [r0, #8]	@ float
 2924              		.loc 1 476 0
 2925 0036 994B     		ldr	r3, .L27+56
 2926              		.loc 1 453 0
 2927 0038 0461     		str	r4, [r0, #16]	@ float
 2928              		.loc 1 460 0
 2929 003a 4FF08244 		mov	r4, #1090519040
 2930              		.loc 1 456 0
 2931 003e C761     		str	r7, [r0, #28]	@ float
 2932              		.loc 1 461 0
 2933 0040 0163     		str	r1, [r0, #48]	@ float
 2934              		.loc 1 471 0
 2935 0042 974F     		ldr	r7, .L27+60
 2936              		.loc 1 454 0
 2937 0044 9749     		ldr	r1, .L27+64
 2938              		.loc 1 470 0
 2939 0046 4665     		str	r6, [r0, #84]	@ float
 2940              		.loc 1 473 0
 2941 0048 0566     		str	r5, [r0, #96]	@ float
 2942              		.loc 1 466 0
 2943 004a 974E     		ldr	r6, .L27+68
 2944              		.loc 1 476 0
 2945 004c C0F88430 		str	r3, [r0, #132]
 2946              		.loc 1 446 0
 2947 0050 0125     		movs	r5, #1
 2948              		.loc 1 447 0
 2949 0052 0023     		movs	r3, #0
 2950              		.loc 1 460 0
 2951 0054 C462     		str	r4, [r0, #44]	@ float
 2952              		.loc 1 463 0
 2953 0056 8463     		str	r4, [r0, #56]	@ float
 2954              		.loc 1 465 0
 2955 0058 0264     		str	r2, [r0, #64]	@ float
 2956              		.loc 1 462 0
 2957 005a 944C     		ldr	r4, .L27+72
 2958              		.loc 1 467 0
 2959 005c 8264     		str	r2, [r0, #72]	@ float
 2960              		.loc 1 474 0
 2961 005e 4FF07E52 		mov	r2, #1065353216
 2962              		.loc 1 471 0
 2963 0062 8765     		str	r7, [r0, #88]	@ float
 2964              		.loc 1 446 0
ARM GAS  /tmp/ccOR9P9P.s 			page 53


 2965 0064 0570     		strb	r5, [r0]
 2966              		.loc 1 464 0
 2967 0066 80F83C50 		strb	r5, [r0, #60]
 2968              		.loc 1 447 0
 2969 006a 4370     		strb	r3, [r0, #1]
 2970              		.loc 1 449 0
 2971 006c C370     		strb	r3, [r0, #3]
 2972              		.loc 1 496 0
 2973 006e 80F8C030 		strb	r3, [r0, #192]
 2974              		.loc 1 454 0
 2975 0072 4161     		str	r1, [r0, #20]	@ float
 2976              		.loc 1 462 0
 2977 0074 4463     		str	r4, [r0, #52]	@ float
 2978              		.loc 1 466 0
 2979 0076 4664     		str	r6, [r0, #68]	@ float
 2980              		.loc 1 468 0
 2981 0078 C664     		str	r6, [r0, #76]	@ float
 2982              		.loc 1 474 0
 2983 007a 4266     		str	r2, [r0, #100]	@ float
 2984              		.loc 1 475 0
 2985 007c 8266     		str	r2, [r0, #104]	@ float
 2986              		.loc 1 514 0
 2987 007e C0F80011 		str	r1, [r0, #256]	@ float
 2988              		.loc 1 477 0
 2989 0082 8A49     		ldr	r1, .L27+72
 2990              		.loc 1 476 0
 2991 0084 8A4E     		ldr	r6, .L27+76
 2992              		.loc 1 477 0
 2993 0086 C0F88C10 		str	r1, [r0, #140]
 2994              		.loc 1 478 0
 2995 008a 01F1AC71 		add	r1, r1, #22544384
 2996              		.loc 1 476 0
 2997 008e C0F88860 		str	r6, [r0, #136]
 2998              		.loc 1 478 0
 2999 0092 C0F89010 		str	r1, [r0, #144]
 3000              		.loc 1 480 0
 3001 0096 754E     		ldr	r6, .L27+8
 3002 0098 8649     		ldr	r1, .L27+80
 3003              		.loc 1 482 0
 3004 009a 874F     		ldr	r7, .L27+84
 3005              		.loc 1 490 0
 3006 009c DFF88C82 		ldr	r8, .L27+200
 3007              		.loc 1 512 0
 3008 00a0 C0F8F840 		str	r4, [r0, #248]	@ float
 3009              		.loc 1 480 0
 3010 00a4 C0E92561 		strd	r6, r1, [r0, #148]
 3011              		.loc 1 482 0
 3012 00a8 8449     		ldr	r1, .L27+88
 3013              		.loc 1 492 0
 3014 00aa 854E     		ldr	r6, .L27+92
 3015              		.loc 1 507 0
 3016 00ac 854C     		ldr	r4, .L27+96
 3017              		.loc 1 505 0
 3018 00ae DFF818E2 		ldr	lr, .L27+100
 3019              		.loc 1 506 0
 3020 00b2 DFF87CC2 		ldr	ip, .L27+204
 3021              		.loc 1 507 0
ARM GAS  /tmp/ccOR9P9P.s 			page 54


 3022 00b6 C0F8DC40 		str	r4, [r0, #220]	@ float
 3023              		.loc 1 482 0
 3024 00ba C0E92771 		strd	r7, r1, [r0, #156]
 3025              		.loc 1 490 0
 3026 00be 8249     		ldr	r1, .L27+100
 3027              		.loc 1 508 0
 3028 00c0 824F     		ldr	r7, .L27+104
 3029              		.loc 1 511 0
 3030 00c2 834C     		ldr	r4, .L27+108
 3031              		.loc 1 508 0
 3032 00c4 C0F8E070 		str	r7, [r0, #224]	@ float
 3033              		.loc 1 490 0
 3034 00c8 C0E92981 		strd	r8, r1, [r0, #164]
 3035              		.loc 1 492 0
 3036 00cc 8149     		ldr	r1, .L27+112
 3037              		.loc 1 513 0
 3038 00ce 824F     		ldr	r7, .L27+116
 3039              		.loc 1 499 0
 3040 00d0 C0F8CC20 		str	r2, [r0, #204]	@ float
 3041              		.loc 1 492 0
 3042 00d4 C0E92B61 		strd	r6, r1, [r0, #172]
 3043              		.loc 1 493 0
 3044 00d8 8049     		ldr	r1, .L27+120
 3045 00da C0F8B410 		str	r1, [r0, #180]
 3046              		.loc 1 494 0
 3047 00de 01F17741 		add	r1, r1, #-150994944
 3048 00e2 01F5F221 		add	r1, r1, #495616
 3049 00e6 01F20A71 		addw	r1, r1, #1802
 3050 00ea C0F8B810 		str	r1, [r0, #184]
 3051              		.loc 1 495 0
 3052 00ee 7C49     		ldr	r1, .L27+124
 3053 00f0 C0F8BC10 		str	r1, [r0, #188]
 3054              		.loc 1 509 0
 3055 00f4 7B4E     		ldr	r6, .L27+128
 3056              		.loc 1 498 0
 3057 00f6 7C49     		ldr	r1, .L27+132
 3058 00f8 C0F8C410 		str	r1, [r0, #196]	@ float
 3059              		.loc 1 509 0
 3060 00fc C0F8E460 		str	r6, [r0, #228]	@ float
 3061              		.loc 1 510 0
 3062 0100 7A49     		ldr	r1, .L27+136
 3063              		.loc 1 501 0
 3064 0102 7B4E     		ldr	r6, .L27+140
 3065              		.loc 1 510 0
 3066 0104 C0F8E810 		str	r1, [r0, #232]	@ float
 3067              		.loc 1 501 0
 3068 0108 C0F8C860 		str	r6, [r0, #200]	@ float
 3069              		.loc 1 515 0
 3070 010c 7949     		ldr	r1, .L27+144
 3071              		.loc 1 502 0
 3072 010e C0F8D060 		str	r6, [r0, #208]	@ float
 3073              		.loc 1 503 0
 3074 0112 4FF07C56 		mov	r6, #1056964608
 3075              		.loc 1 500 0
 3076 0116 C0F8D420 		str	r2, [r0, #212]	@ float
 3077              		.loc 1 504 0
 3078 011a 80F81431 		strb	r3, [r0, #276]
ARM GAS  /tmp/ccOR9P9P.s 			page 55


 3079              		.loc 1 505 0
 3080 011e C0F8F0E0 		str	lr, [r0, #240]	@ float
 3081              		.loc 1 506 0
 3082 0122 C0F8F4C0 		str	ip, [r0, #244]	@ float
 3083              		.loc 1 511 0
 3084 0126 C0F8EC40 		str	r4, [r0, #236]	@ float
 3085              		.loc 1 513 0
 3086 012a C0F8FC70 		str	r7, [r0, #252]	@ float
 3087              		.loc 1 503 0
 3088 012e C0F8D860 		str	r6, [r0, #216]	@ float
 3089              		.loc 1 515 0
 3090 0132 C0F80411 		str	r1, [r0, #260]	@ float
 3091              		.loc 1 516 0
 3092 0136 C0F80811 		str	r1, [r0, #264]	@ float
 3093              		.loc 1 549 0
 3094 013a C0F87421 		str	r2, [r0, #372]	@ float
 3095              		.loc 1 532 0
 3096 013e 6E4A     		ldr	r2, .L27+148
 3097 0140 C0F83021 		str	r2, [r0, #304]	@ float
 3098              		.loc 1 517 0
 3099 0144 0024     		movs	r4, #0
 3100              		.loc 1 534 0
 3101 0146 C822     		movs	r2, #200
 3102              		.loc 1 538 0
 3103 0148 624F     		ldr	r7, .L27+112
 3104              		.loc 1 517 0
 3105 014a C0F80C41 		str	r4, [r0, #268]	@ float
 3106              		.loc 1 518 0
 3107 014e C0F81041 		str	r4, [r0, #272]	@ float
 3108              		.loc 1 530 0
 3109 0152 C0F82841 		str	r4, [r0, #296]	@ float
 3110              		.loc 1 544 0
 3111 0156 80F86051 		strb	r5, [r0, #352]
 3112              		.loc 1 546 0
 3113 015a C0F86841 		str	r4, [r0, #360]	@ float
 3114              		.loc 1 541 0
 3115 015e 674D     		ldr	r5, .L27+152
 3116              		.loc 1 543 0
 3117 0160 674C     		ldr	r4, .L27+156
 3118              		.loc 1 534 0
 3119 0162 C0F83821 		str	r2, [r0, #312]
 3120              		.loc 1 547 0
 3121 0166 674A     		ldr	r2, .L27+160
 3122              		.loc 1 527 0
 3123 0168 DFF8C8C1 		ldr	ip, .L27+208
 3124              		.loc 1 538 0
 3125 016c C0F84871 		str	r7, [r0, #328]	@ float
 3126              		.loc 1 541 0
 3127 0170 C0F85451 		str	r5, [r0, #340]	@ float
 3128              		.loc 1 537 0
 3129 0174 524F     		ldr	r7, .L27+92
 3130              		.loc 1 539 0
 3131 0176 644D     		ldr	r5, .L27+164
 3132              		.loc 1 543 0
 3133 0178 C0F85C41 		str	r4, [r0, #348]	@ float
 3134              		.loc 1 547 0
 3135 017c C0F86C21 		str	r2, [r0, #364]	@ float
ARM GAS  /tmp/ccOR9P9P.s 			page 56


 3136              		.loc 1 542 0
 3137 0180 624C     		ldr	r4, .L27+168
 3138              		.loc 1 528 0
 3139 0182 80F82431 		strb	r3, [r0, #292]
 3140              		.loc 1 519 0
 3141 0186 FF22     		movs	r2, #255
 3142              		.loc 1 529 0
 3143 0188 80F82531 		strb	r3, [r0, #293]
 3144              		.loc 1 531 0
 3145 018c 80F82C31 		strb	r3, [r0, #300]
 3146              		.loc 1 533 0
 3147 0190 C0F83411 		str	r1, [r0, #308]	@ float
 3148              		.loc 1 535 0
 3149 0194 C0F83C31 		str	r3, [r0, #316]
 3150              		.loc 1 536 0
 3151 0198 C0F84011 		str	r1, [r0, #320]	@ float
 3152              		.loc 1 527 0
 3153 019c C0F820C1 		str	ip, [r0, #288]	@ float
 3154              		.loc 1 519 0
 3155 01a0 80F81521 		strb	r2, [r0, #277]
 3156              		.loc 1 520 0
 3157 01a4 80F81621 		strb	r2, [r0, #278]
 3158              		.loc 1 521 0
 3159 01a8 80F81721 		strb	r2, [r0, #279]
 3160              		.loc 1 522 0
 3161 01ac 80F81821 		strb	r2, [r0, #280]
 3162              		.loc 1 523 0
 3163 01b0 80F81921 		strb	r2, [r0, #281]
 3164              		.loc 1 524 0
 3165 01b4 80F81A21 		strb	r2, [r0, #282]
 3166              		.loc 1 525 0
 3167 01b8 80F81B21 		strb	r2, [r0, #283]
 3168              		.loc 1 526 0
 3169 01bc 80F81C21 		strb	r2, [r0, #284]
 3170              		.loc 1 537 0
 3171 01c0 C0F84471 		str	r7, [r0, #324]	@ float
 3172              		.loc 1 545 0
 3173 01c4 C0F86471 		str	r7, [r0, #356]	@ float
 3174              		.loc 1 539 0
 3175 01c8 C0F84C51 		str	r5, [r0, #332]	@ float
 3176              		.loc 1 540 0
 3177 01cc C0F85051 		str	r5, [r0, #336]	@ float
 3178              		.loc 1 542 0
 3179 01d0 C0F85841 		str	r4, [r0, #344]	@ float
 3180              		.loc 1 548 0
 3181 01d4 C0F87041 		str	r4, [r0, #368]	@ float
 3182              		.loc 1 558 0
 3183 01d8 80F89831 		strb	r3, [r0, #408]
 3184              		.loc 1 559 0
 3185 01dc 80F89931 		strb	r3, [r0, #409]
 3186              		.loc 1 560 0
 3187 01e0 80F89A31 		strb	r3, [r0, #410]
 3188              		.loc 1 566 0
 3189 01e4 80F8B031 		strb	r3, [r0, #432]
 3190              		.loc 1 570 0
 3191 01e8 80F8BC31 		strb	r3, [r0, #444]
 3192              		.loc 1 554 0
ARM GAS  /tmp/ccOR9P9P.s 			page 57


 3193 01ec 4FF4FA73 		mov	r3, #500
 3194              		.loc 1 550 0
 3195 01f0 DFF844C1 		ldr	ip, .L27+212
 3196              		.loc 1 555 0
 3197 01f4 464D     		ldr	r5, .L27+172
 3198              		.loc 1 562 0
 3199 01f6 474A     		ldr	r2, .L27+176
 3200              		.loc 1 554 0
 3201 01f8 C0F88831 		str	r3, [r0, #392]
 3202              		.loc 1 557 0
 3203 01fc 4FF40054 		mov	r4, #8192
 3204              		.loc 1 561 0
 3205 0200 1023     		movs	r3, #16
 3206              		.loc 1 552 0
 3207 0202 DFF83881 		ldr	r8, .L27+216
 3208              		.loc 1 553 0
 3209 0206 DFF838E1 		ldr	lr, .L27+220
 3210              		.loc 1 550 0
 3211 020a C0F878C1 		str	ip, [r0, #376]	@ float
 3212              		.loc 1 551 0
 3213 020e C0F87C11 		str	r1, [r0, #380]	@ float
 3214              		.loc 1 563 0
 3215 0212 DFF830C1 		ldr	ip, .L27+224
 3216              		.loc 1 556 0
 3217 0216 C0F89061 		str	r6, [r0, #400]	@ float
 3218              		.loc 1 564 0
 3219 021a 3F4F     		ldr	r7, .L27+180
 3220              		.loc 1 565 0
 3221 021c 3F4E     		ldr	r6, .L27+184
 3222              		.loc 1 569 0
 3223 021e 4049     		ldr	r1, .L27+188
 3224              		.loc 1 555 0
 3225 0220 C0F88C51 		str	r5, [r0, #396]	@ float
 3226              		.loc 1 557 0
 3227 0224 C0F89441 		str	r4, [r0, #404]
 3228              		.loc 1 567 0
 3229 0228 0E25     		movs	r5, #14
 3230              		.loc 1 561 0
 3231 022a C0F89C31 		str	r3, [r0, #412]
 3232              		.loc 1 568 0
 3233 022e 3D4C     		ldr	r4, .L27+192
 3234              		.loc 1 562 0
 3235 0230 C0F8A021 		str	r2, [r0, #416]	@ float
 3236              		.loc 1 572 0
 3237 0234 3C4B     		ldr	r3, .L27+196
 3238              		.loc 1 552 0
 3239 0236 C0F88081 		str	r8, [r0, #384]	@ float
 3240              		.loc 1 571 0
 3241 023a 0322     		movs	r2, #3
 3242              		.loc 1 553 0
 3243 023c C0F884E1 		str	lr, [r0, #388]	@ float
 3244              		.loc 1 563 0
 3245 0240 C0F8A4C1 		str	ip, [r0, #420]	@ float
 3246              		.loc 1 564 0
 3247 0244 C0F8A871 		str	r7, [r0, #424]	@ float
 3248              		.loc 1 565 0
 3249 0248 C0F8AC61 		str	r6, [r0, #428]	@ float
ARM GAS  /tmp/ccOR9P9P.s 			page 58


 3250              		.loc 1 567 0
 3251 024c 80F8B151 		strb	r5, [r0, #433]
 3252              		.loc 1 568 0
 3253 0250 C0F8B441 		str	r4, [r0, #436]	@ float
 3254              		.loc 1 569 0
 3255 0254 C0F8B811 		str	r1, [r0, #440]	@ float
 3256              		.loc 1 571 0
 3257 0258 C0F8C021 		str	r2, [r0, #448]
 3258              		.loc 1 572 0
 3259 025c C0F8C431 		str	r3, [r0, #452]	@ float
 3260              		.loc 1 573 0
 3261 0260 BDE8F081 		pop	{r4, r5, r6, r7, r8, pc}
 3262              	.L28:
 3263              		.align	2
 3264              	.L27:
 3265 0264 00007042 		.word	1114636288
 3266 0268 0000C642 		.word	1120272384
 3267 026c CDCC4C3F 		.word	1061997773
 3268 0270 0080BB44 		.word	1153138688
 3269 0274 0050C3C7 		.word	-943501312
 3270 0278 00009643 		.word	1133903872
 3271 027c 9A99193E 		.word	1041865114
 3272 0280 001BB749 		.word	1236736768
 3273 0284 000070C2 		.word	-1032847360
 3274 0288 0050C347 		.word	1203982336
 3275 028c 00006442 		.word	1113849856
 3276 0290 0AD7A33B 		.word	1000593162
 3277 0294 001BB7C9 		.word	-910746880
 3278 0298 0000AA42 		.word	1118437376
 3279 029c 00001643 		.word	1125515264
 3280 02a0 3333733F 		.word	1064514355
 3281 02a4 0000C843 		.word	1137180672
 3282 02a8 0000C842 		.word	1120403456
 3283 02ac 00002041 		.word	1092616192
 3284 02b0 00808944 		.word	1149861888
 3285 02b4 00409C47 		.word	1201422336
 3286 02b8 00001644 		.word	1142292480
 3287 02bc FF010302 		.word	33751551
 3288 02c0 8FC2F53C 		.word	1022739087
 3289 02c4 8BE1EA36 		.word	921362827
 3290 02c8 0000FA44 		.word	1157234688
 3291 02cc 8FC2753C 		.word	1014350479
 3292 02d0 9A99993E 		.word	1050253722
 3293 02d4 00004842 		.word	1112014848
 3294 02d8 00004843 		.word	1128792064
 3295 02dc 00409C46 		.word	1184645120
 3296 02e0 00003443 		.word	1127481344
 3297 02e4 2E90203B 		.word	991989806
 3298 02e8 0000E040 		.word	1088421888
 3299 02ec 50A9AB4C 		.word	1286318416
 3300 02f0 3333D33F 		.word	1070805811
 3301 02f4 CDCCCC3D 		.word	1036831949
 3302 02f8 0000C841 		.word	1103626240
 3303 02fc 17B7D138 		.word	953267991
 3304 0300 00006144 		.word	1147207680
 3305 0304 17B7D139 		.word	970045207
 3306 0308 6F12833B 		.word	998445679
ARM GAS  /tmp/ccOR9P9P.s 			page 59


 3307 030c CDCC4C3E 		.word	1045220557
 3308 0310 0AD7A33C 		.word	1017370378
 3309 0314 00803B45 		.word	1161527296
 3310 0318 0050C346 		.word	1187205120
 3311 031c 00405345 		.word	1163083776
 3312 0320 E7FBA93D 		.word	1034550247
 3313 0324 00004040 		.word	1077936128
 3314 0328 0000C040 		.word	1086324736
 3315 032c 050604FF 		.word	-16513531
 3316 0330 0060EA46 		.word	1189765120
 3317 0334 00401C45 		.word	1159479296
 3318 0338 0AD7233C 		.word	1008981770
 3319 033c 99BB963B 		.word	999734169
 3320 0340 0AD7233D 		.word	1025758986
 3321 0344 00B80847 		.word	1191753728
 3322              		.cfi_endproc
 3323              	.LFE223:
 3324              		.size	confgenerator_set_defaults_mcconf, .-confgenerator_set_defaults_mcconf
 3325              		.section	.text.confgenerator_set_defaults_appconf,"ax",%progbits
 3326              		.align	1
 3327              		.p2align 4,,15
 3328              		.global	confgenerator_set_defaults_appconf
 3329              		.syntax unified
 3330              		.thumb
 3331              		.thumb_func
 3332              		.fpu fpv4-sp-d16
 3333              		.type	confgenerator_set_defaults_appconf, %function
 3334              	confgenerator_set_defaults_appconf:
 3335              	.LFB224:
 3336              		.loc 1 575 0
 3337              		.cfi_startproc
 3338              		@ args = 0, pretend = 0, frame = 0
 3339              		@ frame_needed = 0, uses_anonymous_args = 0
 3340              	.LVL274:
 3341 0000 2DE9F047 		push	{r4, r5, r6, r7, r8, r9, r10, lr}
 3342              		.cfi_def_cfa_offset 32
 3343              		.cfi_offset 4, -32
 3344              		.cfi_offset 5, -28
 3345              		.cfi_offset 6, -24
 3346              		.cfi_offset 7, -20
 3347              		.cfi_offset 8, -16
 3348              		.cfi_offset 9, -12
 3349              		.cfi_offset 10, -8
 3350              		.cfi_offset 14, -4
 3351              		.loc 1 575 0
 3352 0004 0446     		mov	r4, r0
 3353              		.loc 1 576 0
 3354 0006 FFF7FEFF 		bl	hw_id_from_uuid
 3355              	.LVL275:
 3356              		.loc 1 592 0
 3357 000a 4FF07F59 		mov	r9, #1069547520
 3358              		.loc 1 588 0
 3359 000e 484A     		ldr	r2, .L31
 3360              		.loc 1 576 0
 3361 0010 2070     		strb	r0, [r4]
 3362              		.loc 1 577 0
 3363 0012 4FF47A73 		mov	r3, #1000
ARM GAS  /tmp/ccOR9P9P.s 			page 60


 3364              		.loc 1 580 0
 3365 0016 3220     		movs	r0, #50
 3366              		.loc 1 590 0
 3367 0018 4FF07E5E 		mov	lr, #1065353216
 3368              		.loc 1 592 0
 3369 001c C4F83090 		str	r9, [r4, #48]	@ float
 3370              		.loc 1 591 0
 3371 0020 4FF08049 		mov	r9, #1073741824
 3372              		.loc 1 578 0
 3373 0024 0021     		movs	r1, #0
 3374              		.loc 1 602 0
 3375 0026 434D     		ldr	r5, .L31+4
 3376              		.loc 1 589 0
 3377 0028 DFF814C1 		ldr	ip, .L31+16
 3378              		.loc 1 598 0
 3379 002c 424E     		ldr	r6, .L31+8
 3380              		.loc 1 599 0
 3381 002e DFF81481 		ldr	r8, .L31+20
 3382              		.loc 1 605 0
 3383 0032 424F     		ldr	r7, .L31+12
 3384              		.loc 1 577 0
 3385 0034 6360     		str	r3, [r4, #4]
 3386              		.loc 1 580 0
 3387 0036 2061     		str	r0, [r4, #16]
 3388              		.loc 1 579 0
 3389 0038 0023     		movs	r3, #0
 3390              		.loc 1 581 0
 3391 003a 0220     		movs	r0, #2
 3392              		.loc 1 588 0
 3393 003c 2262     		str	r2, [r4, #32]	@ float
 3394              		.loc 1 590 0
 3395 003e C4F828E0 		str	lr, [r4, #40]	@ float
 3396              		.loc 1 583 0
 3397 0042 0122     		movs	r2, #1
 3398              		.loc 1 586 0
 3399 0044 4FF0030E 		mov	lr, #3
 3400              		.loc 1 591 0
 3401 0048 C4F82C90 		str	r9, [r4, #44]	@ float
 3402              		.loc 1 607 0
 3403 004c C4F86490 		str	r9, [r4, #100]	@ float
 3404              		.loc 1 606 0
 3405 0050 DFF8F490 		ldr	r9, .L31+24
 3406              		.loc 1 599 0
 3407 0054 C4F84880 		str	r8, [r4, #72]	@ float
 3408              		.loc 1 606 0
 3409 0058 C4F86090 		str	r9, [r4, #96]	@ float
 3410              		.loc 1 641 0
 3411 005c DFF8ECA0 		ldr	r10, .L31+28
 3412              		.loc 1 578 0
 3413 0060 A160     		str	r1, [r4, #8]	@ float
 3414              		.loc 1 595 0
 3415 0062 A163     		str	r1, [r4, #56]	@ float
 3416              		.loc 1 596 0
 3417 0064 E163     		str	r1, [r4, #60]	@ float
 3418              		.loc 1 579 0
 3419 0066 2373     		strb	r3, [r4, #12]
 3420              		.loc 1 582 0
ARM GAS  /tmp/ccOR9P9P.s 			page 61


 3421 0068 6375     		strb	r3, [r4, #21]
 3422              		.loc 1 584 0
 3423 006a E375     		strb	r3, [r4, #23]
 3424              		.loc 1 585 0
 3425 006c 2376     		strb	r3, [r4, #24]
 3426              		.loc 1 587 0
 3427 006e 2377     		strb	r3, [r4, #28]
 3428              		.loc 1 601 0
 3429 0070 84F84D30 		strb	r3, [r4, #77]
 3430              		.loc 1 603 0
 3431 0074 84F85430 		strb	r3, [r4, #84]
 3432              		.loc 1 581 0
 3433 0078 2075     		strb	r0, [r4, #20]
 3434              		.loc 1 597 0
 3435 007a 84F84000 		strb	r0, [r4, #64]
 3436              		.loc 1 583 0
 3437 007e A275     		strb	r2, [r4, #22]
 3438              		.loc 1 593 0
 3439 0080 84F83420 		strb	r2, [r4, #52]
 3440              		.loc 1 594 0
 3441 0084 84F83520 		strb	r2, [r4, #53]
 3442              		.loc 1 600 0
 3443 0088 84F84C20 		strb	r2, [r4, #76]
 3444              		.loc 1 586 0
 3445 008c 84F819E0 		strb	lr, [r4, #25]
 3446              		.loc 1 589 0
 3447 0090 C4F824C0 		str	ip, [r4, #36]	@ float
 3448              		.loc 1 604 0
 3449 0094 C4F858C0 		str	ip, [r4, #88]	@ float
 3450              		.loc 1 598 0
 3451 0098 6664     		str	r6, [r4, #68]	@ float
 3452              		.loc 1 602 0
 3453 009a 2565     		str	r5, [r4, #80]	@ float
 3454              		.loc 1 605 0
 3455 009c E765     		str	r7, [r4, #92]	@ float
 3456              		.loc 1 608 0
 3457 009e A766     		str	r7, [r4, #104]	@ float
 3458              		.loc 1 609 0
 3459 00a0 C4F86C90 		str	r9, [r4, #108]	@ float
 3460              		.loc 1 620 0
 3461 00a4 C4F88880 		str	r8, [r4, #136]	@ float
 3462              		.loc 1 624 0
 3463 00a8 4FF4FA79 		mov	r9, #500
 3464              		.loc 1 625 0
 3465 00ac 4FF4E138 		mov	r8, #115200
 3466              		.loc 1 610 0
 3467 00b0 84F87020 		strb	r2, [r4, #112]
 3468              		.loc 1 611 0
 3469 00b4 84F87120 		strb	r2, [r4, #113]
 3470              		.loc 1 612 0
 3471 00b8 84F87230 		strb	r3, [r4, #114]
 3472              		.loc 1 613 0
 3473 00bc 84F87330 		strb	r3, [r4, #115]
 3474              		.loc 1 614 0
 3475 00c0 84F87430 		strb	r3, [r4, #116]
 3476              		.loc 1 615 0
 3477 00c4 84F87530 		strb	r3, [r4, #117]
ARM GAS  /tmp/ccOR9P9P.s 			page 62


 3478              		.loc 1 616 0
 3479 00c8 A167     		str	r1, [r4, #120]	@ float
 3480              		.loc 1 617 0
 3481 00ca E167     		str	r1, [r4, #124]	@ float
 3482              		.loc 1 618 0
 3483 00cc 84F88000 		strb	r0, [r4, #128]
 3484              		.loc 1 619 0
 3485 00d0 C4F88460 		str	r6, [r4, #132]	@ float
 3486              		.loc 1 621 0
 3487 00d4 84F88C20 		strb	r2, [r4, #140]
 3488              		.loc 1 622 0
 3489 00d8 84F88D30 		strb	r3, [r4, #141]
 3490              		.loc 1 623 0
 3491 00dc C4F89050 		str	r5, [r4, #144]	@ float
 3492              		.loc 1 626 0
 3493 00e0 84F89C20 		strb	r2, [r4, #156]
 3494              		.loc 1 627 0
 3495 00e4 C4F8A0C0 		str	ip, [r4, #160]	@ float
 3496              		.loc 1 628 0
 3497 00e8 C4F8A470 		str	r7, [r4, #164]	@ float
 3498              		.loc 1 629 0
 3499 00ec C4F8A860 		str	r6, [r4, #168]	@ float
 3500              		.loc 1 630 0
 3501 00f0 C4F8AC50 		str	r5, [r4, #172]	@ float
 3502              		.loc 1 631 0
 3503 00f4 C4F8B010 		str	r1, [r4, #176]	@ float
 3504              		.loc 1 632 0
 3505 00f8 C4F8B410 		str	r1, [r4, #180]	@ float
 3506              		.loc 1 633 0
 3507 00fc 84F8B800 		strb	r0, [r4, #184]
 3508              		.loc 1 634 0
 3509 0100 84F8B920 		strb	r2, [r4, #185]
 3510              		.loc 1 635 0
 3511 0104 84F8BA30 		strb	r3, [r4, #186]
 3512              		.loc 1 636 0
 3513 0108 C4F8BC50 		str	r5, [r4, #188]	@ float
 3514              		.loc 1 637 0
 3515 010c 84F8C020 		strb	r2, [r4, #192]
 3516              		.loc 1 638 0
 3517 0110 84F8C1E0 		strb	lr, [r4, #193]
 3518              		.loc 1 639 0
 3519 0114 84F8C220 		strb	r2, [r4, #194]
 3520              		.loc 1 640 0
 3521 0118 84F8C330 		strb	r3, [r4, #195]
 3522              		.loc 1 625 0
 3523 011c C4E92598 		strd	r9, r8, [r4, #148]
 3524              		.loc 1 641 0
 3525 0120 C4F8C4A0 		str	r10, [r4, #196]
 3526              		.loc 1 644 0
 3527 0124 84F8C830 		strb	r3, [r4, #200]
 3528              		.loc 1 646 0
 3529 0128 84F8C920 		strb	r2, [r4, #201]
 3530              		.loc 1 647 0
 3531 012c BDE8F087 		pop	{r4, r5, r6, r7, r8, r9, r10, pc}
 3532              	.LVL276:
 3533              	.L32:
 3534              		.align	2
ARM GAS  /tmp/ccOR9P9P.s 			page 63


 3535              	.L31:
 3536 0130 00606A46 		.word	1181376512
 3537 0134 00803B45 		.word	1161527296
 3538 0138 9A99993E 		.word	1050253722
 3539 013c 6666663F 		.word	1063675494
 3540 0140 9A99193E 		.word	1041865114
 3541 0144 CDCCCC3D 		.word	1036831949
 3542 0148 00004040 		.word	1077936128
 3543 014c 034CC6C7 		.word	-943305725
 3544              		.cfi_endproc
 3545              	.LFE224:
 3546              		.size	confgenerator_set_defaults_appconf, .-confgenerator_set_defaults_appconf
 3547              		.text
 3548              	.Letext0:
 3549              		.file 2 "/usr/arm-none-eabi/include/machine/_default_types.h"
 3550              		.file 3 "/usr/arm-none-eabi/include/sys/_stdint.h"
 3551              		.file 4 "ChibiOS_3.0.2/os/rt/ports/ARMCMx/compilers/GCC/chtypes.h"
 3552              		.file 5 "ChibiOS_3.0.2/os/rt/include/chsystypes.h"
 3553              		.file 6 "ChibiOS_3.0.2/os/rt/include/chschd.h"
 3554              		.file 7 "ChibiOS_3.0.2/os/ext/CMSIS/include/core_cm4.h"
 3555              		.file 8 "ChibiOS_3.0.2/os/ext/CMSIS/ST/system_stm32f4xx.h"
 3556              		.file 9 "ChibiOS_3.0.2/os/rt/ports/ARMCMx/chcore.h"
 3557              		.file 10 "ChibiOS_3.0.2/os/rt/ports/ARMCMx/chcore_v7m.h"
 3558              		.file 11 "ChibiOS_3.0.2/os/rt/include/chtm.h"
 3559              		.file 12 "ChibiOS_3.0.2/os/rt/include/chsem.h"
 3560              		.file 13 "ChibiOS_3.0.2/os/rt/include/chmtx.h"
 3561              		.file 14 "ChibiOS_3.0.2/os/rt/include/chregistry.h"
 3562              		.file 15 "datatypes.h"
 3563              		.file 16 "conf_general.h"
 3564              		.file 17 "hwconf/hw.h"
 3565              		.file 18 "buffer.h"