ARM GAS  /tmp/ccTUBOn1.s 			page 1


   1              		.cpu cortex-m4
   2              		.eabi_attribute 27, 1
   3              		.eabi_attribute 28, 1
   4              		.eabi_attribute 20, 1
   5              		.eabi_attribute 21, 1
   6              		.eabi_attribute 23, 3
   7              		.eabi_attribute 24, 1
   8              		.eabi_attribute 25, 1
   9              		.eabi_attribute 26, 1
  10              		.eabi_attribute 30, 2
  11              		.eabi_attribute 34, 1
  12              		.eabi_attribute 18, 4
  13              		.file	"conf_general.c"
  14              		.text
  15              	.Ltext0:
  16              		.cfi_sections	.debug_frame
  17              		.section	.text.read_eeprom_var,"ax",%progbits
  18              		.align	1
  19              		.p2align 4,,15
  20              		.syntax unified
  21              		.thumb
  22              		.thumb_func
  23              		.fpu fpv4-sp-d16
  24              		.type	read_eeprom_var, %function
  25              	read_eeprom_var:
  26              	.LFB261:
  27              		.file 1 "conf_general.c"
  28              		.loc 1 149 0
  29              		.cfi_startproc
  30              		@ args = 0, pretend = 0, frame = 8
  31              		@ frame_needed = 0, uses_anonymous_args = 0
  32              	.LVL0:
  33 0000 30B5     		push	{r4, r5, lr}
  34              		.cfi_def_cfa_offset 12
  35              		.cfi_offset 4, -12
  36              		.cfi_offset 5, -8
  37              		.cfi_offset 14, -4
  38              		.loc 1 153 0
  39 0002 02EB4102 		add	r2, r2, r1, lsl #1
  40              	.LVL1:
  41              		.loc 1 149 0
  42 0006 83B0     		sub	sp, sp, #12
  43              		.cfi_def_cfa_offset 24
  44              		.loc 1 153 0
  45 0008 94B2     		uxth	r4, r2
  46              		.loc 1 149 0
  47 000a 0546     		mov	r5, r0
  48              		.loc 1 153 0
  49 000c 01A9     		add	r1, sp, #4
  50              	.LVL2:
  51 000e 2046     		mov	r0, r4
  52              	.LVL3:
  53 0010 FFF7FEFF 		bl	EE_ReadVariable
  54              	.LVL4:
  55 0014 10B1     		cbz	r0, .L2
  56              	.L4:
  57              		.loc 1 158 0
ARM GAS  /tmp/ccTUBOn1.s 			page 2


  58 0016 0020     		movs	r0, #0
  59              	.LVL5:
  60              		.loc 1 162 0
  61 0018 03B0     		add	sp, sp, #12
  62              		.cfi_remember_state
  63              		.cfi_def_cfa_offset 12
  64              		@ sp needed
  65 001a 30BD     		pop	{r4, r5, pc}
  66              	.LVL6:
  67              	.L2:
  68              		.cfi_restore_state
  69              		.loc 1 154 0 discriminator 1
  70 001c 601C     		adds	r0, r4, #1
  71 001e 80B2     		uxth	r0, r0
  72 0020 0DF10601 		add	r1, sp, #6
  73 0024 FFF7FEFF 		bl	EE_ReadVariable
  74              	.LVL7:
  75              		.loc 1 153 0 discriminator 1
  76 0028 0028     		cmp	r0, #0
  77 002a F4D1     		bne	.L4
  78              	.LVL8:
  79              	.LBB2:
  80              		.loc 1 155 0
  81 002c BDF80420 		ldrh	r2, [sp, #4]
  82 0030 BDF80630 		ldrh	r3, [sp, #6]
  83              	.LBE2:
  84              		.loc 1 150 0
  85 0034 0120     		movs	r0, #1
  86              	.LVL9:
  87              	.LBB3:
  88              		.loc 1 155 0
  89 0036 43EA0243 		orr	r3, r3, r2, lsl #16
  90              		.loc 1 156 0
  91 003a 2B60     		str	r3, [r5]
  92              	.LBE3:
  93              		.loc 1 162 0
  94 003c 03B0     		add	sp, sp, #12
  95              		.cfi_def_cfa_offset 12
  96              		@ sp needed
  97 003e 30BD     		pop	{r4, r5, pc}
  98              		.cfi_endproc
  99              	.LFE261:
 100              		.size	read_eeprom_var, .-read_eeprom_var
 101              		.section	.text.store_eeprom_var,"ax",%progbits
 102              		.align	1
 103              		.p2align 4,,15
 104              		.syntax unified
 105              		.thumb
 106              		.thumb_func
 107              		.fpu fpv4-sp-d16
 108              		.type	store_eeprom_var, %function
 109              	store_eeprom_var:
 110              	.LFB262:
 111              		.loc 1 164 0
 112              		.cfi_startproc
 113              		@ args = 0, pretend = 0, frame = 0
 114              		@ frame_needed = 0, uses_anonymous_args = 0
ARM GAS  /tmp/ccTUBOn1.s 			page 3


 115              	.LVL10:
 116 0000 70B5     		push	{r4, r5, r6, lr}
 117              		.cfi_def_cfa_offset 16
 118              		.cfi_offset 4, -16
 119              		.cfi_offset 5, -12
 120              		.cfi_offset 6, -8
 121              		.cfi_offset 14, -4
 122              		.loc 1 164 0
 123 0002 0E46     		mov	r6, r1
 124 0004 1446     		mov	r4, r2
 125              		.loc 1 168 0
 126 0006 0568     		ldr	r5, [r0]
 127              	.LVL11:
 128              		.loc 1 177 0
 129 0008 04EB4604 		add	r4, r4, r6, lsl #1
 130              		.loc 1 171 0
 131 000c FFF7FEFF 		bl	timeout_configure_IWDT_slowest
 132              	.LVL12:
 133              		.loc 1 177 0
 134 0010 A4B2     		uxth	r4, r4
 135              		.loc 1 173 0
 136 0012 FFF7FEFF 		bl	FLASH_Unlock
 137              	.LVL13:
 138              		.loc 1 174 0
 139 0016 F220     		movs	r0, #242
 140 0018 FFF7FEFF 		bl	FLASH_ClearFlag
 141              	.LVL14:
 142              		.loc 1 177 0
 143 001c 2046     		mov	r0, r4
 144 001e 290C     		lsrs	r1, r5, #16
 145 0020 FFF7FEFF 		bl	EE_WriteVariable
 146              	.LVL15:
 147 0024 0928     		cmp	r0, #9
 148 0026 06D0     		beq	.L11
 149              		.loc 1 178 0
 150 0028 0024     		movs	r4, #0
 151              	.LVL16:
 152              		.loc 1 187 0
 153 002a FFF7FEFF 		bl	FLASH_Lock
 154              	.LVL17:
 155              		.loc 1 189 0
 156 002e FFF7FEFF 		bl	timeout_configure_IWDT
 157              	.LVL18:
 158              		.loc 1 192 0
 159 0032 2046     		mov	r0, r4
 160 0034 70BD     		pop	{r4, r5, r6, pc}
 161              	.LVL19:
 162              	.L11:
 163              		.loc 1 182 0
 164 0036 601C     		adds	r0, r4, #1
 165 0038 A9B2     		uxth	r1, r5
 166 003a 80B2     		uxth	r0, r0
 167 003c FFF7FEFF 		bl	EE_WriteVariable
 168              	.LVL20:
 169 0040 A0F10904 		sub	r4, r0, #9
 170 0044 B4FA84F4 		clz	r4, r4
 171 0048 6409     		lsrs	r4, r4, #5
ARM GAS  /tmp/ccTUBOn1.s 			page 4


 172              	.LVL21:
 173              		.loc 1 187 0
 174 004a FFF7FEFF 		bl	FLASH_Lock
 175              	.LVL22:
 176              		.loc 1 189 0
 177 004e FFF7FEFF 		bl	timeout_configure_IWDT
 178              	.LVL23:
 179              		.loc 1 192 0
 180 0052 2046     		mov	r0, r4
 181 0054 70BD     		pop	{r4, r5, r6, pc}
 182              		.cfi_endproc
 183              	.LFE262:
 184              		.size	store_eeprom_var, .-store_eeprom_var
 185 0056 00BF     		.section	.text.conf_general_init,"ax",%progbits
 186              		.align	1
 187              		.p2align 4,,15
 188              		.global	conf_general_init
 189              		.syntax unified
 190              		.thumb
 191              		.thumb_func
 192              		.fpu fpv4-sp-d16
 193              		.type	conf_general_init, %function
 194              	conf_general_init:
 195              	.LFB256:
 196              		.loc 1 57 0
 197              		.cfi_startproc
 198              		@ args = 0, pretend = 0, frame = 0
 199              		@ frame_needed = 0, uses_anonymous_args = 0
 200 0000 08B5     		push	{r3, lr}
 201              		.cfi_def_cfa_offset 8
 202              		.cfi_offset 3, -8
 203              		.cfi_offset 14, -4
 204              		.loc 1 59 0
 205 0002 40F29442 		movw	r2, #1172
 206 0006 0021     		movs	r1, #0
 207 0008 1C48     		ldr	r0, .L22
 208 000a FFF7FEFF 		bl	memset
 209              	.LVL24:
 210 000e 1C4A     		ldr	r2, .L22+4
 211 0010 4FF47A73 		mov	r3, #1000
 212 0014 02F5E471 		add	r1, r2, #456
 213              	.LVL25:
 214              	.L13:
 215              	.LBB4:
 216              		.loc 1 63 0 discriminator 3
 217 0018 22F8023F 		strh	r3, [r2, #2]!	@ movhi
 218 001c 0133     		adds	r3, r3, #1
 219              		.loc 1 62 0 discriminator 3
 220 001e 8A42     		cmp	r2, r1
 221 0020 9BB2     		uxth	r3, r3
 222 0022 F9D1     		bne	.L13
 223 0024 174A     		ldr	r2, .L22+8
 224              		.loc 1 62 0 is_stmt 0
 225 0026 4FF4FA63 		mov	r3, #2000
 226 002a 02F1CC01 		add	r1, r2, #204
 227              	.L14:
 228              	.LBE4:
ARM GAS  /tmp/ccTUBOn1.s 			page 5


 229              	.LBB5:
 230              		.loc 1 67 0 is_stmt 1 discriminator 3
 231 002e 22F8023F 		strh	r3, [r2, #2]!	@ movhi
 232              	.LVL26:
 233 0032 0133     		adds	r3, r3, #1
 234              		.loc 1 66 0 discriminator 3
 235 0034 8A42     		cmp	r2, r1
 236 0036 9BB2     		uxth	r3, r3
 237 0038 F9D1     		bne	.L14
 238 003a 134A     		ldr	r2, .L22+12
 239              		.loc 1 66 0 is_stmt 0
 240 003c 40F6B833 		movw	r3, #3000
 241 0040 02F58071 		add	r1, r2, #256
 242              	.L15:
 243              	.LBE5:
 244              	.LBB6:
 245              		.loc 1 71 0 is_stmt 1 discriminator 3
 246 0044 22F8023F 		strh	r3, [r2, #2]!	@ movhi
 247              	.LVL27:
 248 0048 0133     		adds	r3, r3, #1
 249              		.loc 1 70 0 discriminator 3
 250 004a 9142     		cmp	r1, r2
 251 004c 9BB2     		uxth	r3, r3
 252 004e F9D1     		bne	.L15
 253 0050 0E4A     		ldr	r2, .L22+16
 254              		.loc 1 70 0 is_stmt 0
 255 0052 4FF47A63 		mov	r3, #4000
 256 0056 02F58071 		add	r1, r2, #256
 257              	.L16:
 258              	.LBE6:
 259              	.LBB7:
 260              		.loc 1 75 0 is_stmt 1 discriminator 3
 261 005a 22F8023F 		strh	r3, [r2, #2]!	@ movhi
 262              	.LVL28:
 263 005e 0133     		adds	r3, r3, #1
 264              		.loc 1 74 0 discriminator 3
 265 0060 8A42     		cmp	r2, r1
 266 0062 9BB2     		uxth	r3, r3
 267 0064 F9D1     		bne	.L16
 268              	.LBE7:
 269              		.loc 1 78 0
 270 0066 FFF7FEFF 		bl	FLASH_Unlock
 271              	.LVL29:
 272              		.loc 1 79 0
 273 006a F220     		movs	r0, #242
 274 006c FFF7FEFF 		bl	FLASH_ClearFlag
 275              	.LVL30:
 276              		.loc 1 81 0
 277 0070 FFF7FEFF 		bl	EE_Init
 278              	.LVL31:
 279              		.loc 1 83 0
 280 0074 BDE80840 		pop	{r3, lr}
 281              		.cfi_restore 14
 282              		.cfi_restore 3
 283              		.cfi_def_cfa_offset 0
 284              		.loc 1 82 0
 285 0078 FFF7FEBF 		b	FLASH_Lock
ARM GAS  /tmp/ccTUBOn1.s 			page 6


 286              	.LVL32:
 287              	.L23:
 288              		.align	2
 289              	.L22:
 290 007c 00000000 		.word	.LANCHOR0
 291 0080 FEFFFFFF 		.word	.LANCHOR0-2
 292 0084 C6010000 		.word	.LANCHOR0+454
 293 0088 92020000 		.word	.LANCHOR0+658
 294 008c 92030000 		.word	.LANCHOR0+914
 295              		.cfi_endproc
 296              	.LFE256:
 297              		.size	conf_general_init, .-conf_general_init
 298              		.section	.text.conf_general_read_eeprom_var_hw,"ax",%progbits
 299              		.align	1
 300              		.p2align 4,,15
 301              		.global	conf_general_read_eeprom_var_hw
 302              		.syntax unified
 303              		.thumb
 304              		.thumb_func
 305              		.fpu fpv4-sp-d16
 306              		.type	conf_general_read_eeprom_var_hw, %function
 307              	conf_general_read_eeprom_var_hw:
 308              	.LFB257:
 309              		.loc 1 97 0
 310              		.cfi_startproc
 311              		@ args = 0, pretend = 0, frame = 0
 312              		@ frame_needed = 0, uses_anonymous_args = 0
 313              		@ link register save eliminated.
 314              	.LVL33:
 315              		.loc 1 98 0
 316 0000 40F6B832 		movw	r2, #3000
 317 0004 FFF7FEBF 		b	read_eeprom_var
 318              	.LVL34:
 319              		.cfi_endproc
 320              	.LFE257:
 321              		.size	conf_general_read_eeprom_var_hw, .-conf_general_read_eeprom_var_hw
 322              		.section	.text.conf_general_read_eeprom_var_custom,"ax",%progbits
 323              		.align	1
 324              		.p2align 4,,15
 325              		.global	conf_general_read_eeprom_var_custom
 326              		.syntax unified
 327              		.thumb
 328              		.thumb_func
 329              		.fpu fpv4-sp-d16
 330              		.type	conf_general_read_eeprom_var_custom, %function
 331              	conf_general_read_eeprom_var_custom:
 332              	.LFB258:
 333              		.loc 1 113 0
 334              		.cfi_startproc
 335              		@ args = 0, pretend = 0, frame = 0
 336              		@ frame_needed = 0, uses_anonymous_args = 0
 337              		@ link register save eliminated.
 338              	.LVL35:
 339              		.loc 1 114 0
 340 0000 4FF47A62 		mov	r2, #4000
 341 0004 FFF7FEBF 		b	read_eeprom_var
 342              	.LVL36:
ARM GAS  /tmp/ccTUBOn1.s 			page 7


 343              		.cfi_endproc
 344              	.LFE258:
 345              		.size	conf_general_read_eeprom_var_custom, .-conf_general_read_eeprom_var_custom
 346              		.section	.text.conf_general_store_eeprom_var_hw,"ax",%progbits
 347              		.align	1
 348              		.p2align 4,,15
 349              		.global	conf_general_store_eeprom_var_hw
 350              		.syntax unified
 351              		.thumb
 352              		.thumb_func
 353              		.fpu fpv4-sp-d16
 354              		.type	conf_general_store_eeprom_var_hw, %function
 355              	conf_general_store_eeprom_var_hw:
 356              	.LFB259:
 357              		.loc 1 129 0
 358              		.cfi_startproc
 359              		@ args = 0, pretend = 0, frame = 0
 360              		@ frame_needed = 0, uses_anonymous_args = 0
 361              		@ link register save eliminated.
 362              	.LVL37:
 363              		.loc 1 130 0
 364 0000 40F6B832 		movw	r2, #3000
 365 0004 FFF7FEBF 		b	store_eeprom_var
 366              	.LVL38:
 367              		.cfi_endproc
 368              	.LFE259:
 369              		.size	conf_general_store_eeprom_var_hw, .-conf_general_store_eeprom_var_hw
 370              		.section	.text.conf_general_store_eeprom_var_custom,"ax",%progbits
 371              		.align	1
 372              		.p2align 4,,15
 373              		.global	conf_general_store_eeprom_var_custom
 374              		.syntax unified
 375              		.thumb
 376              		.thumb_func
 377              		.fpu fpv4-sp-d16
 378              		.type	conf_general_store_eeprom_var_custom, %function
 379              	conf_general_store_eeprom_var_custom:
 380              	.LFB260:
 381              		.loc 1 145 0
 382              		.cfi_startproc
 383              		@ args = 0, pretend = 0, frame = 0
 384              		@ frame_needed = 0, uses_anonymous_args = 0
 385              		@ link register save eliminated.
 386              	.LVL39:
 387              		.loc 1 146 0
 388 0000 4FF47A62 		mov	r2, #4000
 389 0004 FFF7FEBF 		b	store_eeprom_var
 390              	.LVL40:
 391              		.cfi_endproc
 392              	.LFE260:
 393              		.size	conf_general_store_eeprom_var_custom, .-conf_general_store_eeprom_var_custom
 394              		.section	.text.conf_general_read_app_configuration,"ax",%progbits
 395              		.align	1
 396              		.p2align 4,,15
 397              		.global	conf_general_read_app_configuration
 398              		.syntax unified
 399              		.thumb
ARM GAS  /tmp/ccTUBOn1.s 			page 8


 400              		.thumb_func
 401              		.fpu fpv4-sp-d16
 402              		.type	conf_general_read_app_configuration, %function
 403              	conf_general_read_app_configuration:
 404              	.LFB263:
 405              		.loc 1 200 0
 406              		.cfi_startproc
 407              		@ args = 0, pretend = 0, frame = 8
 408              		@ frame_needed = 0, uses_anonymous_args = 0
 409              	.LVL41:
 410 0000 F0B5     		push	{r4, r5, r6, r7, lr}
 411              		.cfi_def_cfa_offset 20
 412              		.cfi_offset 4, -20
 413              		.cfi_offset 5, -16
 414              		.cfi_offset 6, -12
 415              		.cfi_offset 7, -8
 416              		.cfi_offset 14, -4
 417 0002 0746     		mov	r7, r0
 418              	.LVL42:
 419 0004 83B0     		sub	sp, sp, #12
 420              		.cfi_def_cfa_offset 32
 421 0006 451C     		adds	r5, r0, #1
 422              		.loc 1 200 0
 423 0008 4FF4FA64 		mov	r4, #2000
 424              	.LBB8:
 425              		.loc 1 205 0
 426 000c 40F63606 		movw	r6, #2102
 427 0010 09E0     		b	.L30
 428              	.LVL43:
 429              	.L34:
 430              		.loc 1 207 0
 431 0012 BDF80630 		ldrh	r3, [sp, #6]
 432              		.loc 1 205 0
 433 0016 B442     		cmp	r4, r6
 434              		.loc 1 207 0
 435 0018 4FEA1322 		lsr	r2, r3, #8
 436 001c 05F8012C 		strb	r2, [r5, #-1]
 437              		.loc 1 208 0
 438 0020 05F8023B 		strb	r3, [r5], #2
 439              		.loc 1 205 0
 440 0024 0BD0     		beq	.L28
 441              	.L30:
 442              		.loc 1 206 0
 443 0026 2046     		mov	r0, r4
 444 0028 0DF10601 		add	r1, sp, #6
 445 002c FFF7FEFF 		bl	EE_ReadVariable
 446              	.LVL44:
 447 0030 0134     		adds	r4, r4, #1
 448 0032 A4B2     		uxth	r4, r4
 449 0034 0028     		cmp	r0, #0
 450 0036 ECD0     		beq	.L34
 451              	.LVL45:
 452              	.LBE8:
 453              		.loc 1 217 0
 454 0038 3846     		mov	r0, r7
 455 003a FFF7FEFF 		bl	confgenerator_set_defaults_appconf
 456              	.LVL46:
ARM GAS  /tmp/ccTUBOn1.s 			page 9


 457              	.L28:
 458              		.loc 1 219 0
 459 003e 03B0     		add	sp, sp, #12
 460              		.cfi_def_cfa_offset 20
 461              		@ sp needed
 462 0040 F0BD     		pop	{r4, r5, r6, r7, pc}
 463              		.cfi_endproc
 464              	.LFE263:
 465              		.size	conf_general_read_app_configuration, .-conf_general_read_app_configuration
 466 0042 00BF     		.section	.text.conf_general_store_app_configuration,"ax",%progbits
 467              		.align	1
 468              		.p2align 4,,15
 469              		.global	conf_general_store_app_configuration
 470              		.syntax unified
 471              		.thumb
 472              		.thumb_func
 473              		.fpu fpv4-sp-d16
 474              		.type	conf_general_store_app_configuration, %function
 475              	conf_general_store_app_configuration:
 476              	.LFB264:
 477              		.loc 1 227 0
 478              		.cfi_startproc
 479              		@ args = 0, pretend = 0, frame = 0
 480              		@ frame_needed = 0, uses_anonymous_args = 0
 481              	.LVL47:
 482 0000 70B5     		push	{r4, r5, r6, lr}
 483              		.cfi_def_cfa_offset 16
 484              		.cfi_offset 4, -16
 485              		.cfi_offset 5, -12
 486              		.cfi_offset 6, -8
 487              		.cfi_offset 14, -4
 488              		.loc 1 227 0
 489 0002 0546     		mov	r5, r0
 490              		.loc 1 228 0
 491 0004 FFF7FEFF 		bl	mc_interface_unlock
 492              	.LVL48:
 493              		.loc 1 229 0
 494 0008 FFF7FEFF 		bl	mc_interface_release_motor
 495              	.LVL49:
 496              		.loc 1 231 0
 497 000c FFF7FEFF 		bl	utils_sys_lock_cnt
 498              	.LVL50:
 499              		.loc 1 232 0
 500 0010 FFF7FEFF 		bl	mc_interface_lock
 501              	.LVL51:
 502              		.loc 1 234 0
 503 0014 FFF7FEFF 		bl	timeout_configure_IWDT_slowest
 504              	.LVL52:
 505              		.loc 1 240 0
 506 0018 FFF7FEFF 		bl	FLASH_Unlock
 507              	.LVL53:
 508              		.loc 1 241 0
 509 001c F220     		movs	r0, #242
 510 001e FFF7FEFF 		bl	FLASH_ClearFlag
 511              	.LVL54:
 512 0022 0135     		adds	r5, r5, #1
 513              	.LVL55:
ARM GAS  /tmp/ccTUBOn1.s 			page 10


 514 0024 4FF4FA64 		mov	r4, #2000
 515              	.LBB9:
 516              		.loc 1 244 0
 517 0028 40F63606 		movw	r6, #2102
 518 002c 01E0     		b	.L37
 519              	.LVL56:
 520              	.L42:
 521              		.loc 1 244 0 is_stmt 0 discriminator 2
 522 002e B442     		cmp	r4, r6
 523 0030 1CD0     		beq	.L41
 524              	.L37:
 525              		.loc 1 245 0 is_stmt 1
 526 0032 15F8011C 		ldrb	r1, [r5, #-1]	@ zero_extendqisi2
 527              	.LVL57:
 528              		.loc 1 246 0
 529 0036 2B78     		ldrb	r3, [r5]	@ zero_extendqisi2
 530              		.loc 1 248 0
 531 0038 2046     		mov	r0, r4
 532 003a 43EA0121 		orr	r1, r3, r1, lsl #8
 533              	.LVL58:
 534 003e FFF7FEFF 		bl	EE_WriteVariable
 535              	.LVL59:
 536 0042 0134     		adds	r4, r4, #1
 537 0044 0928     		cmp	r0, #9
 538 0046 A4B2     		uxth	r4, r4
 539 0048 05F10205 		add	r5, r5, #2
 540 004c EFD0     		beq	.L42
 541              		.loc 1 249 0
 542 004e 0024     		movs	r4, #0
 543              	.L36:
 544              	.LVL60:
 545              	.LBE9:
 546              		.loc 1 253 0
 547 0050 FFF7FEFF 		bl	FLASH_Lock
 548              	.LVL61:
 549              		.loc 1 255 0
 550 0054 FFF7FEFF 		bl	timeout_configure_IWDT
 551              	.LVL62:
 552              		.loc 1 257 0
 553 0058 4FF47A70 		mov	r0, #1000
 554 005c FFF7FEFF 		bl	chThdSleep
 555              	.LVL63:
 556              		.loc 1 258 0
 557 0060 FFF7FEFF 		bl	mc_interface_unlock
 558              	.LVL64:
 559              		.loc 1 259 0
 560 0064 FFF7FEFF 		bl	utils_sys_unlock_cnt
 561              	.LVL65:
 562              		.loc 1 262 0
 563 0068 2046     		mov	r0, r4
 564 006a 70BD     		pop	{r4, r5, r6, pc}
 565              	.LVL66:
 566              	.L41:
 567              		.loc 1 236 0
 568 006c 0124     		movs	r4, #1
 569              	.LBB10:
 570 006e EFE7     		b	.L36
ARM GAS  /tmp/ccTUBOn1.s 			page 11


 571              	.LBE10:
 572              		.cfi_endproc
 573              	.LFE264:
 574              		.size	conf_general_store_app_configuration, .-conf_general_store_app_configuration
 575              		.section	.text.conf_general_read_mc_configuration,"ax",%progbits
 576              		.align	1
 577              		.p2align 4,,15
 578              		.global	conf_general_read_mc_configuration
 579              		.syntax unified
 580              		.thumb
 581              		.thumb_func
 582              		.fpu fpv4-sp-d16
 583              		.type	conf_general_read_mc_configuration, %function
 584              	conf_general_read_mc_configuration:
 585              	.LFB265:
 586              		.loc 1 270 0
 587              		.cfi_startproc
 588              		@ args = 0, pretend = 0, frame = 8
 589              		@ frame_needed = 0, uses_anonymous_args = 0
 590              	.LVL67:
 591 0000 F0B5     		push	{r4, r5, r6, r7, lr}
 592              		.cfi_def_cfa_offset 20
 593              		.cfi_offset 4, -20
 594              		.cfi_offset 5, -16
 595              		.cfi_offset 6, -12
 596              		.cfi_offset 7, -8
 597              		.cfi_offset 14, -4
 598 0002 0746     		mov	r7, r0
 599              	.LVL68:
 600 0004 83B0     		sub	sp, sp, #12
 601              		.cfi_def_cfa_offset 32
 602 0006 451C     		adds	r5, r0, #1
 603              		.loc 1 270 0
 604 0008 4FF47A74 		mov	r4, #1000
 605              	.LBB11:
 606              		.loc 1 275 0
 607 000c 40F2CC46 		movw	r6, #1228
 608 0010 09E0     		b	.L45
 609              	.LVL69:
 610              	.L49:
 611              		.loc 1 277 0
 612 0012 BDF80630 		ldrh	r3, [sp, #6]
 613              		.loc 1 275 0
 614 0016 B442     		cmp	r4, r6
 615              		.loc 1 277 0
 616 0018 4FEA1322 		lsr	r2, r3, #8
 617 001c 05F8012C 		strb	r2, [r5, #-1]
 618              		.loc 1 278 0
 619 0020 05F8023B 		strb	r3, [r5], #2
 620              		.loc 1 275 0
 621 0024 0BD0     		beq	.L43
 622              	.L45:
 623              		.loc 1 276 0
 624 0026 2046     		mov	r0, r4
 625 0028 0DF10601 		add	r1, sp, #6
 626 002c FFF7FEFF 		bl	EE_ReadVariable
 627              	.LVL70:
ARM GAS  /tmp/ccTUBOn1.s 			page 12


 628 0030 0134     		adds	r4, r4, #1
 629 0032 A4B2     		uxth	r4, r4
 630 0034 0028     		cmp	r0, #0
 631 0036 ECD0     		beq	.L49
 632              	.LVL71:
 633              	.LBE11:
 634              		.loc 1 286 0
 635 0038 3846     		mov	r0, r7
 636 003a FFF7FEFF 		bl	confgenerator_set_defaults_mcconf
 637              	.LVL72:
 638              	.L43:
 639              		.loc 1 288 0
 640 003e 03B0     		add	sp, sp, #12
 641              		.cfi_def_cfa_offset 20
 642              		@ sp needed
 643 0040 F0BD     		pop	{r4, r5, r6, r7, pc}
 644              		.cfi_endproc
 645              	.LFE265:
 646              		.size	conf_general_read_mc_configuration, .-conf_general_read_mc_configuration
 647 0042 00BF     		.section	.text.conf_general_store_mc_configuration,"ax",%progbits
 648              		.align	1
 649              		.p2align 4,,15
 650              		.global	conf_general_store_mc_configuration
 651              		.syntax unified
 652              		.thumb
 653              		.thumb_func
 654              		.fpu fpv4-sp-d16
 655              		.type	conf_general_store_mc_configuration, %function
 656              	conf_general_store_mc_configuration:
 657              	.LFB266:
 658              		.loc 1 296 0
 659              		.cfi_startproc
 660              		@ args = 0, pretend = 0, frame = 0
 661              		@ frame_needed = 0, uses_anonymous_args = 0
 662              	.LVL73:
 663 0000 70B5     		push	{r4, r5, r6, lr}
 664              		.cfi_def_cfa_offset 16
 665              		.cfi_offset 4, -16
 666              		.cfi_offset 5, -12
 667              		.cfi_offset 6, -8
 668              		.cfi_offset 14, -4
 669              		.loc 1 296 0
 670 0002 0546     		mov	r5, r0
 671              		.loc 1 297 0
 672 0004 FFF7FEFF 		bl	mc_interface_unlock
 673              	.LVL74:
 674              		.loc 1 298 0
 675 0008 FFF7FEFF 		bl	mc_interface_release_motor
 676              	.LVL75:
 677              		.loc 1 300 0
 678 000c FFF7FEFF 		bl	utils_sys_lock_cnt
 679              	.LVL76:
 680              		.loc 1 301 0
 681 0010 FFF7FEFF 		bl	mc_interface_lock
 682              	.LVL77:
 683              		.loc 1 303 0
 684 0014 FFF7FEFF 		bl	timeout_configure_IWDT_slowest
ARM GAS  /tmp/ccTUBOn1.s 			page 13


 685              	.LVL78:
 686              		.loc 1 308 0
 687 0018 FFF7FEFF 		bl	FLASH_Unlock
 688              	.LVL79:
 689              		.loc 1 309 0
 690 001c F220     		movs	r0, #242
 691 001e FFF7FEFF 		bl	FLASH_ClearFlag
 692              	.LVL80:
 693 0022 0135     		adds	r5, r5, #1
 694              	.LVL81:
 695 0024 4FF47A74 		mov	r4, #1000
 696              	.LBB12:
 697              		.loc 1 312 0
 698 0028 40F2CC46 		movw	r6, #1228
 699 002c 01E0     		b	.L52
 700              	.LVL82:
 701              	.L57:
 702              		.loc 1 312 0 is_stmt 0 discriminator 2
 703 002e B442     		cmp	r4, r6
 704 0030 1CD0     		beq	.L56
 705              	.L52:
 706              	.LBB13:
 707              		.loc 1 313 0 is_stmt 1
 708 0032 15F8011C 		ldrb	r1, [r5, #-1]	@ zero_extendqisi2
 709              	.LVL83:
 710              		.loc 1 314 0
 711 0036 2B78     		ldrb	r3, [r5]	@ zero_extendqisi2
 712              		.loc 1 316 0
 713 0038 2046     		mov	r0, r4
 714 003a 43EA0121 		orr	r1, r3, r1, lsl #8
 715              	.LVL84:
 716 003e FFF7FEFF 		bl	EE_WriteVariable
 717              	.LVL85:
 718 0042 0134     		adds	r4, r4, #1
 719 0044 0928     		cmp	r0, #9
 720 0046 A4B2     		uxth	r4, r4
 721 0048 05F10205 		add	r5, r5, #2
 722 004c EFD0     		beq	.L57
 723              		.loc 1 317 0
 724 004e 0024     		movs	r4, #0
 725              	.L51:
 726              	.LVL86:
 727              	.LBE13:
 728              	.LBE12:
 729              		.loc 1 321 0
 730 0050 FFF7FEFF 		bl	FLASH_Lock
 731              	.LVL87:
 732              		.loc 1 323 0
 733 0054 FFF7FEFF 		bl	timeout_configure_IWDT
 734              	.LVL88:
 735              		.loc 1 325 0
 736 0058 4FF47A70 		mov	r0, #1000
 737 005c FFF7FEFF 		bl	chThdSleep
 738              	.LVL89:
 739              		.loc 1 326 0
 740 0060 FFF7FEFF 		bl	mc_interface_unlock
 741              	.LVL90:
ARM GAS  /tmp/ccTUBOn1.s 			page 14


 742              		.loc 1 327 0
 743 0064 FFF7FEFF 		bl	utils_sys_unlock_cnt
 744              	.LVL91:
 745              		.loc 1 330 0
 746 0068 2046     		mov	r0, r4
 747 006a 70BD     		pop	{r4, r5, r6, pc}
 748              	.LVL92:
 749              	.L56:
 750              		.loc 1 305 0
 751 006c 0124     		movs	r4, #1
 752              	.LBB14:
 753 006e EFE7     		b	.L51
 754              	.LBE14:
 755              		.cfi_endproc
 756              	.LFE266:
 757              		.size	conf_general_store_mc_configuration, .-conf_general_store_mc_configuration
 758              		.section	.text.conf_general_detect_motor_param,"ax",%progbits
 759              		.align	1
 760              		.p2align 4,,15
 761              		.global	conf_general_detect_motor_param
 762              		.syntax unified
 763              		.thumb
 764              		.thumb_func
 765              		.fpu fpv4-sp-d16
 766              		.type	conf_general_detect_motor_param, %function
 767              	conf_general_detect_motor_param:
 768              	.LFB267:
 769              		.loc 1 333 0
 770              		.cfi_startproc
 771              		@ args = 0, pretend = 0, frame = 8
 772              		@ frame_needed = 0, uses_anonymous_args = 0
 773              	.LVL93:
 774 0000 2DE9F04F 		push	{r4, r5, r6, r7, r8, r9, r10, fp, lr}
 775              		.cfi_def_cfa_offset 36
 776              		.cfi_offset 4, -36
 777              		.cfi_offset 5, -32
 778              		.cfi_offset 6, -28
 779              		.cfi_offset 7, -24
 780              		.cfi_offset 8, -20
 781              		.cfi_offset 9, -16
 782              		.cfi_offset 10, -12
 783              		.cfi_offset 11, -8
 784              		.cfi_offset 14, -4
 785 0004 2DED068B 		vpush.64	{d8, d9, d10}
 786              		.cfi_def_cfa_offset 60
 787              		.cfi_offset 80, -60
 788              		.cfi_offset 81, -56
 789              		.cfi_offset 82, -52
 790              		.cfi_offset 83, -48
 791              		.cfi_offset 84, -44
 792              		.cfi_offset 85, -40
 793 0008 83B0     		sub	sp, sp, #12
 794              		.cfi_def_cfa_offset 72
 795              		.loc 1 333 0
 796 000a F0EE609A 		vmov.f32	s19, s1
 797 000e B0EE40AA 		vmov.f32	s20, s0
 798 0012 B0EE419A 		vmov.f32	s18, s2
ARM GAS  /tmp/ccTUBOn1.s 			page 15


 799 0016 0193     		str	r3, [sp, #4]
 800 0018 8A46     		mov	r10, r1
 801 001a 9346     		mov	fp, r2
 802 001c 8046     		mov	r8, r0
 803              		.loc 1 338 0
 804 001e FFF7FEFF 		bl	mc_interface_get_configuration
 805              	.LVL94:
 806 0022 C14E     		ldr	r6, .L119
 807 0024 0146     		mov	r1, r0
 808 0026 4FF4E472 		mov	r2, #456
 809 002a 3046     		mov	r0, r6
 810 002c FFF7FEFF 		bl	memcpy
 811              	.LVL95:
 812              		.loc 1 339 0
 813 0030 3146     		mov	r1, r6
 814 0032 4FF4E472 		mov	r2, #456
 815 0036 BD48     		ldr	r0, .L119+4
 816 0038 FFF7FEFF 		bl	memcpy
 817              	.LVL96:
 818              		.loc 1 346 0
 819 003c BC4B     		ldr	r3, .L119+8
 820              		.loc 1 347 0
 821 003e BD49     		ldr	r1, .L119+12
 822              		.loc 1 348 0
 823 0040 BD4A     		ldr	r2, .L119+16
 824              		.loc 1 346 0
 825 0042 C6F89C30 		str	r3, [r6, #156]	@ float
 826              		.loc 1 344 0
 827 0046 4FF07E50 		mov	r0, #1065353216
 828              		.loc 1 341 0
 829 004a 0023     		movs	r3, #0
 830              		.loc 1 344 0
 831 004c C6F89400 		str	r0, [r6, #148]	@ float
 832              		.loc 1 350 0
 833 0050 3046     		mov	r0, r6
 834              		.loc 1 345 0
 835 0052 C6ED219A 		vstr.32	s19, [r6, #132]
 836              		.loc 1 347 0
 837 0056 C6F89010 		str	r1, [r6, #144]	@ float
 838              		.loc 1 348 0
 839 005a C6F88820 		str	r2, [r6, #136]	@ float
 840              		.loc 1 341 0
 841 005e B370     		strb	r3, [r6, #2]
 842              		.loc 1 342 0
 843 0060 F370     		strb	r3, [r6, #3]
 844              		.loc 1 343 0
 845 0062 7370     		strb	r3, [r6, #1]
 846              		.loc 1 349 0
 847 0064 86F89931 		strb	r3, [r6, #409]
 848              		.loc 1 350 0
 849 0068 4FF4FA74 		mov	r4, #500
 850 006c FFF7FEFF 		bl	mc_interface_set_configuration
 851              	.LVL97:
 852 0070 04E0     		b	.L60
 853              	.LVL98:
 854              	.L108:
 855              	.LBB15:
ARM GAS  /tmp/ccTUBOn1.s 			page 16


 856              		.loc 1 357 0 discriminator 2
 857 0072 6420     		movs	r0, #100
 858 0074 FFF7FEFF 		bl	chThdSleep
 859              	.LVL99:
 860              		.loc 1 353 0 discriminator 2
 861 0078 013C     		subs	r4, r4, #1
 862              	.LVL100:
 863 007a 03D0     		beq	.L59
 864              	.LVL101:
 865              	.L60:
 866              		.loc 1 354 0
 867 007c FFF7FEFF 		bl	mc_interface_get_fault
 868              	.LVL102:
 869 0080 0028     		cmp	r0, #0
 870 0082 F6D1     		bne	.L108
 871              	.LVL103:
 872              	.L59:
 873              	.LBE15:
 874              		.loc 1 362 0
 875 0084 42F21070 		movw	r0, #10000
 876 0088 FFF7FEFF 		bl	chThdSleep
 877              	.LVL104:
 878              		.loc 1 365 0
 879 008c FFF7FEFF 		bl	timeout_get_timeout_msec
 880              	.LVL105:
 881 0090 8146     		mov	r9, r0
 882              	.LVL106:
 883              		.loc 1 366 0
 884 0092 FFF7FEFF 		bl	timeout_get_brake_current
 885              	.LVL107:
 886 0096 F0EE40AA 		vmov.f32	s21, s0
 887              	.LVL108:
 888              		.loc 1 367 0
 889 009a FFF7FEFF 		bl	timeout_reset
 890              	.LVL109:
 891              		.loc 1 368 0
 892 009e 9FEDA70A 		vldr.32	s0, .L119+20
 893 00a2 4EF66020 		movw	r0, #60000
 894 00a6 FFF7FEFF 		bl	timeout_configure
 895              	.LVL110:
 896              		.loc 1 370 0
 897 00aa FFF7FEFF 		bl	mc_interface_lock
 898              	.LVL111:
 899              		.loc 1 372 0
 900 00ae FFF7FEFF 		bl	mc_interface_lock_override_once
 901              	.LVL112:
 902              		.loc 1 373 0
 903 00b2 B0EE4A0A 		vmov.f32	s0, s20
 904 00b6 FFF7FEFF 		bl	mc_interface_set_current
 905              	.LVL113:
 906              	.LBB16:
 907              		.loc 1 377 0
 908 00ba 0027     		movs	r7, #0
 909              	.LBB17:
 910              		.loc 1 408 0
 911 00bc F5EE008A 		vmov.f32	s17, #2.5e-1
 912              	.LVL114:
ARM GAS  /tmp/ccTUBOn1.s 			page 17


 913              	.L73:
 914              		.loc 1 378 0
 915 00c0 012F     		cmp	r7, #1
 916 00c2 00F00881 		beq	.L109
 917              		.loc 1 388 0
 918 00c6 022F     		cmp	r7, #2
 919 00c8 00F02081 		beq	.L110
 920              	.L62:
 921              	.LBE17:
 922              		.loc 1 377 0
 923 00cc 0025     		movs	r5, #0
 924 00ce 2C46     		mov	r4, r5
 925              	.LBB18:
 926              		.loc 1 404 0
 927 00d0 B6EE008A 		vmov.f32	s16, #5.0e-1
 928              	.L63:
 929              	.LVL115:
 930 00d4 FFF7FEFF 		bl	mc_interface_get_duty_cycle_now
 931              	.LVL116:
 932 00d8 B4EEC80A 		vcmpe.f32	s0, s16
 933 00dc F1EE10FA 		vmrs	APSR_nzcv, FPSCR
 934              		.loc 1 405 0
 935 00e0 4FF00A00 		mov	r0, #10
 936              		.loc 1 406 0
 937 00e4 04F10104 		add	r4, r4, #1
 938              	.LVL117:
 939              		.loc 1 404 0
 940 00e8 40F1E980 		bpl	.L111
 941              		.loc 1 405 0
 942 00ec FFF7FEFF 		bl	chThdSleep
 943              	.LVL118:
 944              		.loc 1 408 0
 945 00f0 FFF7FEFF 		bl	mc_interface_get_duty_cycle_now
 946              	.LVL119:
 947 00f4 B4EEE80A 		vcmpe.f32	s0, s17
 948 00f8 F1EE10FA 		vmrs	APSR_nzcv, FPSCR
 949 00fc 0CDB     		blt	.L103
 950              	.LVL120:
 951              		.loc 1 408 0 is_stmt 0 discriminator 1
 952 00fe 002D     		cmp	r5, #0
 953 0100 00F0C180 		beq	.L112
 954              		.loc 1 413 0 is_stmt 1
 955 0104 B4F5FA6F 		cmp	r4, #2000
 956 0108 04DD     		ble	.L87
 957              	.LVL121:
 958              	.L67:
 959              		.loc 1 418 0
 960 010a 41F28833 		movw	r3, #5000
 961 010e 9C42     		cmp	r4, r3
 962 0110 00F0C180 		beq	.L70
 963              	.L87:
 964              	.LBE18:
 965              		.loc 1 377 0
 966 0114 0125     		movs	r5, #1
 967 0116 DDE7     		b	.L63
 968              	.LVL122:
 969              	.L103:
ARM GAS  /tmp/ccTUBOn1.s 			page 18


 970              	.LBB19:
 971              		.loc 1 413 0
 972 0118 B4F5FA6F 		cmp	r4, #2000
 973 011c DADD     		ble	.L63
 974              		.loc 1 413 0 is_stmt 0 discriminator 1
 975 011e 002D     		cmp	r5, #0
 976 0120 F3D1     		bne	.L67
 977              	.LVL123:
 978              	.LBE19:
 979              		.loc 1 377 0 is_stmt 1 discriminator 2
 980 0122 0137     		adds	r7, r7, #1
 981              	.LVL124:
 982 0124 032F     		cmp	r7, #3
 983 0126 CBD1     		bne	.L73
 984              	.LVL125:
 985              	.L118:
 986              	.LBE16:
 987              		.loc 1 429 0
 988 0128 002D     		cmp	r5, #0
 989 012a 00F0B480 		beq	.L70
 990              	.LVL126:
 991              	.L72:
 992              		.loc 1 440 0
 993 012e FFF7FEFF 		bl	mcpwm_reset_hall_detect_table
 994              	.LVL127:
 995              		.loc 1 443 0
 996 0132 FFF7FEFF 		bl	mc_interface_lock_override_once
 997              	.LVL128:
 998              		.loc 1 444 0
 999 0136 B6EE000A 		vmov.f32	s0, #5.0e-1
 1000 013a FFF7FEFF 		bl	mc_interface_set_duty
 1001              	.LVL129:
 1002              		.loc 1 445 0
 1003 013e 4FF47A60 		mov	r0, #4000
 1004 0142 FFF7FEFF 		bl	chThdSleep
 1005              	.LVL130:
 1006              		.loc 1 448 0
 1007 0146 FFF7FEFF 		bl	mc_interface_lock_override_once
 1008              	.LVL131:
 1009              		.loc 1 449 0
 1010 014a 9FED7C0A 		vldr.32	s0, .L119+20
 1011 014e FFF7FEFF 		bl	mc_interface_set_current
 1012              	.LVL132:
 1013              		.loc 1 450 0
 1014 0152 0020     		movs	r0, #0
 1015 0154 FFF7FEFF 		bl	mc_interface_get_tachometer_value
 1016              	.LVL133:
 1017 0158 4FF4FA64 		mov	r4, #2000
 1018 015c 0546     		mov	r5, r0
 1019              	.LVL134:
 1020 015e 04E0     		b	.L76
 1021              	.LVL135:
 1022              	.L114:
 1023              	.LBB24:
 1024              		.loc 1 453 0
 1025 0160 FFF7FEFF 		bl	chThdSleep
 1026              	.LVL136:
ARM GAS  /tmp/ccTUBOn1.s 			page 19


 1027              		.loc 1 451 0
 1028 0164 013C     		subs	r4, r4, #1
 1029              	.LVL137:
 1030 0166 00F0B480 		beq	.L113
 1031              	.LVL138:
 1032              	.L76:
 1033              		.loc 1 452 0
 1034 016a 0020     		movs	r0, #0
 1035 016c FFF7FEFF 		bl	mc_interface_get_tachometer_value
 1036              	.LVL139:
 1037 0170 431B     		subs	r3, r0, r5
 1038 0172 022B     		cmp	r3, #2
 1039              		.loc 1 453 0
 1040 0174 4FF00A00 		mov	r0, #10
 1041              		.loc 1 452 0
 1042 0178 F2DD     		ble	.L114
 1043              		.loc 1 455 0
 1044 017a 0225     		movs	r5, #2
 1045              	.LVL140:
 1046              	.L75:
 1047              	.LBE24:
 1048              		.loc 1 461 0
 1049 017c FFF7FEFF 		bl	mcpwm_read_reset_avg_cycle_integrator
 1050              	.LVL141:
 1051              		.loc 1 462 0
 1052 0180 0020     		movs	r0, #0
 1053 0182 FFF7FEFF 		bl	mc_interface_get_tachometer_value
 1054              	.LVL142:
 1055 0186 40F6B834 		movw	r4, #3000
 1056 018a 0646     		mov	r6, r0
 1057              	.LVL143:
 1058 018c 03E0     		b	.L78
 1059              	.LVL144:
 1060              	.L115:
 1061              	.LBB25:
 1062              		.loc 1 465 0
 1063 018e FFF7FEFF 		bl	chThdSleep
 1064              	.LVL145:
 1065              		.loc 1 463 0
 1066 0192 013C     		subs	r4, r4, #1
 1067              	.LVL146:
 1068 0194 08D0     		beq	.L79
 1069              	.LVL147:
 1070              	.L78:
 1071              		.loc 1 464 0
 1072 0196 0020     		movs	r0, #0
 1073 0198 FFF7FEFF 		bl	mc_interface_get_tachometer_value
 1074              	.LVL148:
 1075 019c 831B     		subs	r3, r0, r6
 1076 019e 312B     		cmp	r3, #49
 1077              		.loc 1 465 0
 1078 01a0 4FF00A00 		mov	r0, #10
 1079              		.loc 1 464 0
 1080 01a4 F3DD     		ble	.L115
 1081              		.loc 1 467 0
 1082 01a6 0135     		adds	r5, r5, #1
 1083              	.LVL149:
ARM GAS  /tmp/ccTUBOn1.s 			page 20


 1084              	.L79:
 1085              	.LBE25:
 1086              		.loc 1 473 0
 1087 01a8 5846     		mov	r0, fp
 1088 01aa FFF7FEFF 		bl	mcpwm_get_hall_detect_result
 1089              	.LVL150:
 1090 01ae 019B     		ldr	r3, [sp, #4]
 1091 01b0 1860     		str	r0, [r3]
 1092              		.loc 1 475 0
 1093 01b2 FFF7FEFF 		bl	mcpwm_read_reset_avg_cycle_integrator
 1094              	.LVL151:
 1095 01b6 41F28834 		movw	r4, #5000
 1096 01ba 88ED000A 		vstr.32	s0, [r8]
 1097              	.LVL152:
 1098 01be 03E0     		b	.L82
 1099              	.LVL153:
 1100              	.L116:
 1101              	.LBB26:
 1102              		.loc 1 480 0
 1103 01c0 FFF7FEFF 		bl	chThdSleep
 1104              	.LVL154:
 1105              		.loc 1 478 0
 1106 01c4 013C     		subs	r4, r4, #1
 1107              	.LVL155:
 1108 01c6 09D0     		beq	.L83
 1109              	.LVL156:
 1110              	.L82:
 1111              		.loc 1 479 0
 1112 01c8 FFF7FEFF 		bl	mc_interface_get_duty_cycle_now
 1113              	.LVL157:
 1114 01cc B4EEC90A 		vcmpe.f32	s0, s18
 1115 01d0 F1EE10FA 		vmrs	APSR_nzcv, FPSCR
 1116              		.loc 1 480 0
 1117 01d4 4FF00A00 		mov	r0, #10
 1118              		.loc 1 479 0
 1119 01d8 F2DC     		bgt	.L116
 1120              		.loc 1 482 0
 1121 01da 0135     		adds	r5, r5, #1
 1122              	.LVL158:
 1123              	.L83:
 1124              	.LBE26:
 1125              		.loc 1 487 0
 1126 01dc FFF7FEFF 		bl	mc_interface_lock_override_once
 1127              	.LVL159:
 1128              		.loc 1 488 0
 1129 01e0 B0EE490A 		vmov.f32	s0, s18
 1130 01e4 FFF7FEFF 		bl	mc_interface_set_duty
 1131              	.LVL160:
 1132              		.loc 1 491 0
 1133 01e8 FFF7FEFF 		bl	mcpwm_read_reset_avg_cycle_integrator
 1134              	.LVL161:
 1135              		.loc 1 492 0
 1136 01ec 0020     		movs	r0, #0
 1137 01ee FFF7FEFF 		bl	mc_interface_get_tachometer_value
 1138              	.LVL162:
 1139              		.loc 1 494 0
 1140 01f2 9FED528A 		vldr.32	s16, .L119+20
ARM GAS  /tmp/ccTUBOn1.s 			page 21


 1141              		.loc 1 492 0
 1142 01f6 0646     		mov	r6, r0
 1143              	.LVL163:
 1144              		.loc 1 493 0
 1145 01f8 F0EE488A 		vmov.f32	s17, s16
 1146              		.loc 1 492 0
 1147 01fc 40F6B834 		movw	r4, #3000
 1148              	.LBB27:
 1149              		.loc 1 498 0
 1150 0200 B7EE009A 		vmov.f32	s18, #1.0e+0
 1151              	.LVL164:
 1152 0204 0AE0     		b	.L85
 1153              	.LVL165:
 1154              	.L117:
 1155              		.loc 1 497 0
 1156 0206 FFF7FEFF 		bl	mc_interface_get_rpm
 1157              	.LVL166:
 1158              		.loc 1 499 0
 1159 020a 0A20     		movs	r0, #10
 1160              		.loc 1 497 0
 1161 020c 78EE808A 		vadd.f32	s17, s17, s0
 1162              	.LVL167:
 1163              		.loc 1 499 0
 1164 0210 FFF7FEFF 		bl	chThdSleep
 1165              	.LVL168:
 1166              		.loc 1 495 0
 1167 0214 013C     		subs	r4, r4, #1
 1168              	.LVL169:
 1169              		.loc 1 498 0
 1170 0216 38EE098A 		vadd.f32	s16, s16, s18
 1171              	.LVL170:
 1172              		.loc 1 495 0
 1173 021a 06D0     		beq	.L86
 1174              	.LVL171:
 1175              	.L85:
 1176              		.loc 1 496 0
 1177 021c 0020     		movs	r0, #0
 1178 021e FFF7FEFF 		bl	mc_interface_get_tachometer_value
 1179              	.LVL172:
 1180 0222 801B     		subs	r0, r0, r6
 1181 0224 6328     		cmp	r0, #99
 1182 0226 EEDD     		ble	.L117
 1183              		.loc 1 501 0
 1184 0228 0135     		adds	r5, r5, #1
 1185              	.LVL173:
 1186              	.L86:
 1187              	.LBE27:
 1188              		.loc 1 506 0
 1189 022a FFF7FEFF 		bl	mcpwm_read_reset_avg_cycle_integrator
 1190              	.LVL174:
 1191 022e B0EE409A 		vmov.f32	s18, s0
 1192              	.LVL175:
 1193              		.loc 1 509 0
 1194 0232 FFF7FEFF 		bl	mc_interface_lock_override_once
 1195              	.LVL176:
 1196              		.loc 1 510 0
 1197 0236 FFF7FEFF 		bl	mc_interface_release_motor
ARM GAS  /tmp/ccTUBOn1.s 			page 22


 1198              	.LVL177:
 1199              		.loc 1 514 0
 1200 023a 414B     		ldr	r3, .L119+24
 1201              		.loc 1 513 0
 1202 023c 98ED000A 		vldr.32	s0, [r8]
 1203              		.loc 1 514 0
 1204 0240 DB8A     		ldrh	r3, [r3, #22]
 1205              		.loc 1 519 0
 1206 0242 3A48     		ldr	r0, .L119+4
 1207              		.loc 1 514 0
 1208 0244 07EE103A 		vmov	s14, r3	@ int
 1209              		.loc 1 513 0
 1210 0248 39EE400A 		vsub.f32	s0, s18, s0
 1211              		.loc 1 514 0
 1212 024c B8EE477A 		vcvt.f32.u32	s14, s14
 1213              		.loc 1 507 0
 1214 0250 C8EE887A 		vdiv.f32	s15, s17, s16
 1215              	.LVL178:
 1216              		.loc 1 514 0
 1217 0254 C0EE076A 		vdiv.f32	s13, s0, s14
 1218              	.LVL179:
 1219              		.loc 1 515 0
 1220 0258 67EEA67A 		vmul.f32	s15, s15, s13
 1221              	.LVL180:
 1222              		.loc 1 516 0
 1223 025c CAED007A 		vstr.32	s15, [r10]
 1224              		.loc 1 519 0
 1225 0260 FFF7FEFF 		bl	mc_interface_set_configuration
 1226              	.LVL181:
 1227              		.loc 1 520 0
 1228 0264 4846     		mov	r0, r9
 1229 0266 B0EE6A0A 		vmov.f32	s0, s21
 1230 026a FFF7FEFF 		bl	timeout_configure
 1231              	.LVL182:
 1232              		.loc 1 522 0
 1233 026e FFF7FEFF 		bl	mc_interface_unlock
 1234              	.LVL183:
 1235              		.loc 1 524 0
 1236 0272 A5F10500 		sub	r0, r5, #5
 1237 0276 B0FA80F0 		clz	r0, r0
 1238 027a 4009     		lsrs	r0, r0, #5
 1239              		.loc 1 525 0
 1240 027c 03B0     		add	sp, sp, #12
 1241              		.cfi_remember_state
 1242              		.cfi_def_cfa_offset 60
 1243              		@ sp needed
 1244 027e BDEC068B 		vldm	sp!, {d8-d10}
 1245              		.cfi_restore 84
 1246              		.cfi_restore 85
 1247              		.cfi_restore 82
 1248              		.cfi_restore 83
 1249              		.cfi_restore 80
 1250              		.cfi_restore 81
 1251              		.cfi_def_cfa_offset 36
 1252              	.LVL184:
 1253 0282 BDE8F08F 		pop	{r4, r5, r6, r7, r8, r9, r10, fp, pc}
 1254              	.LVL185:
ARM GAS  /tmp/ccTUBOn1.s 			page 23


 1255              	.L112:
 1256              		.cfi_restore_state
 1257              	.LBB28:
 1258              	.LBB20:
 1259              		.loc 1 409 0
 1260 0286 0120     		movs	r0, #1
 1261 0288 FFF7FEFF 		bl	mcpwm_switch_comm_mode
 1262              	.LVL186:
 1263              		.loc 1 418 0
 1264 028c 41F28833 		movw	r3, #5000
 1265 0290 9C42     		cmp	r4, r3
 1266 0292 7FF43FAF 		bne	.L87
 1267              	.LVL187:
 1268              	.L70:
 1269              	.LBE20:
 1270              	.LBE28:
 1271              		.loc 1 430 0
 1272 0296 9FED290A 		vldr.32	s0, .L119+20
 1273 029a FFF7FEFF 		bl	mc_interface_set_current
 1274              	.LVL188:
 1275              		.loc 1 431 0
 1276 029e B0EE6A0A 		vmov.f32	s0, s21
 1277 02a2 4846     		mov	r0, r9
 1278 02a4 FFF7FEFF 		bl	timeout_configure
 1279              	.LVL189:
 1280              		.loc 1 432 0
 1281 02a8 2048     		ldr	r0, .L119+4
 1282 02aa FFF7FEFF 		bl	mc_interface_set_configuration
 1283              	.LVL190:
 1284              		.loc 1 433 0
 1285 02ae FFF7FEFF 		bl	mc_interface_unlock
 1286              	.LVL191:
 1287              		.loc 1 434 0
 1288 02b2 0020     		movs	r0, #0
 1289              		.loc 1 525 0
 1290 02b4 03B0     		add	sp, sp, #12
 1291              		.cfi_remember_state
 1292              		.cfi_def_cfa_offset 60
 1293              		@ sp needed
 1294 02b6 BDEC068B 		vldm	sp!, {d8-d10}
 1295              		.cfi_restore 84
 1296              		.cfi_restore 85
 1297              		.cfi_restore 82
 1298              		.cfi_restore 83
 1299              		.cfi_restore 80
 1300              		.cfi_restore 81
 1301              		.cfi_def_cfa_offset 36
 1302              	.LVL192:
 1303 02ba BDE8F08F 		pop	{r4, r5, r6, r7, r8, r9, r10, fp, pc}
 1304              	.LVL193:
 1305              	.L111:
 1306              		.cfi_restore_state
 1307              	.LBB29:
 1308              	.LBB21:
 1309              		.loc 1 424 0
 1310 02be 002D     		cmp	r5, #0
 1311 02c0 7FF435AF 		bne	.L72
ARM GAS  /tmp/ccTUBOn1.s 			page 24


 1312              	.LBE21:
 1313              		.loc 1 377 0
 1314 02c4 0137     		adds	r7, r7, #1
 1315              	.LVL194:
 1316 02c6 032F     		cmp	r7, #3
 1317              	.LBB22:
 1318              		.loc 1 402 0
 1319 02c8 4FF00105 		mov	r5, #1
 1320              	.LVL195:
 1321              	.LBE22:
 1322              		.loc 1 377 0
 1323 02cc 7FF4F8AE 		bne	.L73
 1324 02d0 2AE7     		b	.L118
 1325              	.LVL196:
 1326              	.L113:
 1327              	.LBE29:
 1328              		.loc 1 437 0
 1329 02d2 0125     		movs	r5, #1
 1330              	.LVL197:
 1331              	.LBB30:
 1332 02d4 52E7     		b	.L75
 1333              	.LVL198:
 1334              	.L109:
 1335              	.LBE30:
 1336              	.LBB31:
 1337              	.LBB23:
 1338              		.loc 1 379 0
 1339 02d6 FFF7FEFF 		bl	mc_interface_lock_override_once
 1340              	.LVL199:
 1341              		.loc 1 380 0
 1342 02da FFF7FEFF 		bl	mc_interface_release_motor
 1343              	.LVL200:
 1344              		.loc 1 381 0
 1345 02de 79EEA97A 		vadd.f32	s15, s19, s19
 1346              		.loc 1 382 0
 1347 02e2 184B     		ldr	r3, .L119+28
 1348              		.loc 1 381 0
 1349 02e4 C6ED217A 		vstr.32	s15, [r6, #132]
 1350              		.loc 1 382 0
 1351 02e8 C6F89030 		str	r3, [r6, #144]	@ float
 1352              	.L107:
 1353              		.loc 1 393 0
 1354 02ec FFF7FEFF 		bl	mc_interface_lock_override_once
 1355              	.LVL201:
 1356              		.loc 1 394 0
 1357 02f0 0D48     		ldr	r0, .L119
 1358 02f2 FFF7FEFF 		bl	mc_interface_set_configuration
 1359              	.LVL202:
 1360              		.loc 1 395 0
 1361 02f6 42F21070 		movw	r0, #10000
 1362 02fa FFF7FEFF 		bl	chThdSleep
 1363              	.LVL203:
 1364              		.loc 1 396 0
 1365 02fe FFF7FEFF 		bl	mc_interface_lock_override_once
 1366              	.LVL204:
 1367              		.loc 1 397 0
 1368 0302 B0EE4A0A 		vmov.f32	s0, s20
ARM GAS  /tmp/ccTUBOn1.s 			page 25


 1369 0306 FFF7FEFF 		bl	mc_interface_set_current
 1370              	.LVL205:
 1371 030a DFE6     		b	.L62
 1372              	.L110:
 1373              		.loc 1 389 0
 1374 030c FFF7FEFF 		bl	mc_interface_lock_override_once
 1375              	.LVL206:
 1376              		.loc 1 390 0
 1377 0310 FFF7FEFF 		bl	mc_interface_release_motor
 1378              	.LVL207:
 1379              		.loc 1 391 0
 1380 0314 F1EE007A 		vmov.f32	s15, #4.0e+0
 1381 0318 69EEA77A 		vmul.f32	s15, s19, s15
 1382              		.loc 1 392 0
 1383 031c 0123     		movs	r3, #1
 1384              		.loc 1 391 0
 1385 031e C6ED217A 		vstr.32	s15, [r6, #132]
 1386              		.loc 1 392 0
 1387 0322 7370     		strb	r3, [r6, #1]
 1388 0324 E2E7     		b	.L107
 1389              	.L120:
 1390 0326 00BF     		.align	2
 1391              	.L119:
 1392 0328 00000000 		.word	.LANCHOR1
 1393 032c 00000000 		.word	.LANCHOR2
 1394 0330 00009643 		.word	1133903872
 1395 0334 00004842 		.word	1112014848
 1396 0338 00808944 		.word	1149861888
 1397 033c 00000000 		.word	0
 1398 0340 00000000 		.word	ADC_Value
 1399 0344 0000A041 		.word	1101004800
 1400              	.LBE23:
 1401              	.LBE31:
 1402              		.cfi_endproc
 1403              	.LFE267:
 1404              		.size	conf_general_detect_motor_param, .-conf_general_detect_motor_param
 1405              		.section	.text.conf_general_measure_flux_linkage,"ax",%progbits
 1406              		.align	1
 1407              		.p2align 4,,15
 1408              		.global	conf_general_measure_flux_linkage
 1409              		.syntax unified
 1410              		.thumb
 1411              		.thumb_func
 1412              		.fpu fpv4-sp-d16
 1413              		.type	conf_general_measure_flux_linkage, %function
 1414              	conf_general_measure_flux_linkage:
 1415              	.LFB268:
 1416              		.loc 1 549 0
 1417              		.cfi_startproc
 1418              		@ args = 0, pretend = 0, frame = 0
 1419              		@ frame_needed = 0, uses_anonymous_args = 0
 1420              	.LVL208:
 1421 0000 2DE9F84F 		push	{r3, r4, r5, r6, r7, r8, r9, r10, fp, lr}
 1422              		.cfi_def_cfa_offset 40
 1423              		.cfi_offset 3, -40
 1424              		.cfi_offset 4, -36
 1425              		.cfi_offset 5, -32
ARM GAS  /tmp/ccTUBOn1.s 			page 26


 1426              		.cfi_offset 6, -28
 1427              		.cfi_offset 7, -24
 1428              		.cfi_offset 8, -20
 1429              		.cfi_offset 9, -16
 1430              		.cfi_offset 10, -12
 1431              		.cfi_offset 11, -8
 1432              		.cfi_offset 14, -4
 1433 0004 2DED0A8B 		vpush.64	{d8, d9, d10, d11, d12}
 1434              		.cfi_def_cfa_offset 80
 1435              		.cfi_offset 80, -80
 1436              		.cfi_offset 81, -76
 1437              		.cfi_offset 82, -72
 1438              		.cfi_offset 83, -68
 1439              		.cfi_offset 84, -64
 1440              		.cfi_offset 85, -60
 1441              		.cfi_offset 86, -56
 1442              		.cfi_offset 87, -52
 1443              		.cfi_offset 88, -48
 1444              		.cfi_offset 89, -44
 1445              		.loc 1 549 0
 1446 0008 0746     		mov	r7, r0
 1447 000a B0EE419A 		vmov.f32	s18, s2
 1448 000e F0EE409A 		vmov.f32	s19, s0
 1449 0012 B0EE608A 		vmov.f32	s16, s1
 1450 0016 F0EE61BA 		vmov.f32	s23, s3
 1451              		.loc 1 550 0
 1452 001a FFF7FEFF 		bl	mc_interface_get_configuration
 1453              	.LVL209:
 1454 001e A84E     		ldr	r6, .L164
 1455 0020 0146     		mov	r1, r0
 1456 0022 4FF4E472 		mov	r2, #456
 1457 0026 3046     		mov	r0, r6
 1458 0028 FFF7FEFF 		bl	memcpy
 1459              	.LVL210:
 1460              		.loc 1 551 0
 1461 002c 3146     		mov	r1, r6
 1462 002e 4FF4E472 		mov	r2, #456
 1463 0032 A448     		ldr	r0, .L164+4
 1464 0034 FFF7FEFF 		bl	memcpy
 1465              	.LVL211:
 1466              		.loc 1 558 0
 1467 0038 A348     		ldr	r0, .L164+8
 1468              		.loc 1 559 0
 1469 003a A44B     		ldr	r3, .L164+12
 1470              		.loc 1 560 0
 1471 003c A449     		ldr	r1, .L164+16
 1472              		.loc 1 561 0
 1473 003e A54A     		ldr	r2, .L164+20
 1474              		.loc 1 558 0
 1475 0040 C6F8A001 		str	r0, [r6, #416]	@ float
 1476              		.loc 1 556 0
 1477 0044 4FF07E54 		mov	r4, #1065353216
 1478              		.loc 1 559 0
 1479 0048 C6F89C30 		str	r3, [r6, #156]	@ float
 1480              		.loc 1 562 0
 1481 004c 3046     		mov	r0, r6
 1482              		.loc 1 553 0
ARM GAS  /tmp/ccTUBOn1.s 			page 27


 1483 004e 0023     		movs	r3, #0
 1484              		.loc 1 556 0
 1485 0050 C6F89440 		str	r4, [r6, #148]	@ float
 1486              		.loc 1 557 0
 1487 0054 86ED219A 		vstr.32	s18, [r6, #132]
 1488              		.loc 1 560 0
 1489 0058 C6F89010 		str	r1, [r6, #144]	@ float
 1490              		.loc 1 561 0
 1491 005c C6F88820 		str	r2, [r6, #136]	@ float
 1492              		.loc 1 553 0
 1493 0060 B370     		strb	r3, [r6, #2]
 1494              		.loc 1 554 0
 1495 0062 F370     		strb	r3, [r6, #3]
 1496              		.loc 1 555 0
 1497 0064 7370     		strb	r3, [r6, #1]
 1498              		.loc 1 562 0
 1499 0066 4FF4FA74 		mov	r4, #500
 1500 006a FFF7FEFF 		bl	mc_interface_set_configuration
 1501              	.LVL212:
 1502 006e 04E0     		b	.L123
 1503              	.LVL213:
 1504              	.L156:
 1505              	.LBB32:
 1506              		.loc 1 569 0 discriminator 2
 1507 0070 6420     		movs	r0, #100
 1508 0072 FFF7FEFF 		bl	chThdSleep
 1509              	.LVL214:
 1510              		.loc 1 565 0 discriminator 2
 1511 0076 013C     		subs	r4, r4, #1
 1512              	.LVL215:
 1513 0078 03D0     		beq	.L122
 1514              	.LVL216:
 1515              	.L123:
 1516              		.loc 1 566 0
 1517 007a FFF7FEFF 		bl	mc_interface_get_fault
 1518              	.LVL217:
 1519 007e 0028     		cmp	r0, #0
 1520 0080 F6D1     		bne	.L156
 1521              	.LVL218:
 1522              	.L122:
 1523              	.LBE32:
 1524              		.loc 1 572 0
 1525 0082 FFF7FEFF 		bl	mc_interface_get_fault
 1526              	.LVL219:
 1527 0086 8146     		mov	r9, r0
 1528 0088 0028     		cmp	r0, #0
 1529 008a 40F0E180 		bne	.L157
 1530              		.loc 1 579 0
 1531 008e 42F21070 		movw	r0, #10000
 1532 0092 FFF7FEFF 		bl	chThdSleep
 1533              	.LVL220:
 1534              		.loc 1 582 0
 1535 0096 FFF7FEFF 		bl	timeout_get_timeout_msec
 1536              	.LVL221:
 1537 009a 8046     		mov	r8, r0
 1538              	.LVL222:
 1539              		.loc 1 583 0
ARM GAS  /tmp/ccTUBOn1.s 			page 28


 1540 009c FFF7FEFF 		bl	timeout_get_brake_current
 1541              	.LVL223:
 1542 00a0 B0EE40CA 		vmov.f32	s24, s0
 1543              	.LVL224:
 1544              		.loc 1 584 0
 1545 00a4 FFF7FEFF 		bl	timeout_reset
 1546              	.LVL225:
 1547              		.loc 1 585 0
 1548 00a8 9FED8B0A 		vldr.32	s0, .L164+24
 1549              	.LBB33:
 1550              	.LBB34:
 1551              		.loc 1 598 0
 1552 00ac DFF844B2 		ldr	fp, .L164+52
 1553              	.LBE34:
 1554              	.LBE33:
 1555              		.loc 1 585 0
 1556 00b0 4EF66020 		movw	r0, #60000
 1557 00b4 FFF7FEFF 		bl	timeout_configure
 1558              	.LVL226:
 1559              		.loc 1 587 0
 1560 00b8 FFF7FEFF 		bl	mc_interface_lock
 1561              	.LVL227:
 1562              		.loc 1 589 0
 1563 00bc FFF7FEFF 		bl	mc_interface_lock_override_once
 1564              	.LVL228:
 1565              		.loc 1 590 0
 1566 00c0 B0EE690A 		vmov.f32	s0, s19
 1567 00c4 FFF7FEFF 		bl	mc_interface_set_current
 1568              	.LVL229:
 1569              	.LBB42:
 1570              	.LBB35:
 1571              		.loc 1 618 0
 1572 00c8 4FF0010A 		mov	r10, #1
 1573              	.LVL230:
 1574              	.L139:
 1575              		.loc 1 595 0
 1576 00cc B9F1010F 		cmp	r9, #1
 1577 00d0 00F0EE80 		beq	.L158
 1578              		.loc 1 604 0
 1579 00d4 B9F1020F 		cmp	r9, #2
 1580 00d8 00F0DE80 		beq	.L159
 1581              		.loc 1 614 0
 1582 00dc B9F1030F 		cmp	r9, #3
 1583 00e0 00F0BE80 		beq	.L160
 1584              	.L127:
 1585              	.LBE35:
 1586              		.loc 1 594 0
 1587 00e4 0025     		movs	r5, #0
 1588 00e6 2C46     		mov	r4, r5
 1589              	.LBB36:
 1590              		.loc 1 634 0
 1591 00e8 F6EE008A 		vmov.f32	s17, #5.0e-1
 1592              	.L129:
 1593              	.LVL231:
 1594              		.loc 1 630 0
 1595 00ec FFF7FEFF 		bl	mc_interface_get_duty_cycle_now
 1596              	.LVL232:
ARM GAS  /tmp/ccTUBOn1.s 			page 29


 1597 00f0 B4EEC80A 		vcmpe.f32	s0, s16
 1598 00f4 F1EE10FA 		vmrs	APSR_nzcv, FPSCR
 1599              		.loc 1 631 0
 1600 00f8 4FF00A00 		mov	r0, #10
 1601              		.loc 1 632 0
 1602 00fc 04F10104 		add	r4, r4, #1
 1603              	.LVL233:
 1604              		.loc 1 630 0
 1605 0100 40F19B80 		bpl	.L161
 1606              		.loc 1 631 0
 1607 0104 FFF7FEFF 		bl	chThdSleep
 1608              	.LVL234:
 1609              		.loc 1 634 0
 1610 0108 FFF7FEFF 		bl	mc_interface_get_duty_cycle_now
 1611              	.LVL235:
 1612 010c 68EE287A 		vmul.f32	s15, s16, s17
 1613 0110 B4EEE70A 		vcmpe.f32	s0, s15
 1614 0114 F1EE10FA 		vmrs	APSR_nzcv, FPSCR
 1615 0118 0ADB     		blt	.L153
 1616              	.LVL236:
 1617              		.loc 1 634 0 is_stmt 0 discriminator 1
 1618 011a 002D     		cmp	r5, #0
 1619 011c 73D0     		beq	.L162
 1620              		.loc 1 639 0 is_stmt 1
 1621 011e B4F5FA6F 		cmp	r4, #2000
 1622 0122 03DD     		ble	.L141
 1623              	.LVL237:
 1624              	.L133:
 1625              		.loc 1 644 0
 1626 0124 41F28833 		movw	r3, #5000
 1627 0128 9C42     		cmp	r4, r3
 1628 012a 73D0     		beq	.L136
 1629              	.L141:
 1630              	.LBE36:
 1631              		.loc 1 594 0
 1632 012c 0125     		movs	r5, #1
 1633 012e DDE7     		b	.L129
 1634              	.LVL238:
 1635              	.L153:
 1636              	.LBB37:
 1637              		.loc 1 639 0
 1638 0130 B4F5FA6F 		cmp	r4, #2000
 1639 0134 DADD     		ble	.L129
 1640              		.loc 1 639 0 is_stmt 0 discriminator 1
 1641 0136 002D     		cmp	r5, #0
 1642 0138 F4D1     		bne	.L133
 1643              	.LVL239:
 1644              	.LBE37:
 1645              		.loc 1 594 0 is_stmt 1 discriminator 2
 1646 013a 09F10109 		add	r9, r9, #1
 1647              	.LVL240:
 1648 013e B9F1040F 		cmp	r9, #4
 1649 0142 C3D1     		bne	.L139
 1650              	.LVL241:
 1651              	.L163:
 1652              	.LBE42:
 1653              		.loc 1 655 0
ARM GAS  /tmp/ccTUBOn1.s 			page 30


 1654 0144 002D     		cmp	r5, #0
 1655 0146 65D0     		beq	.L136
 1656              	.LVL242:
 1657              	.L138:
 1658              		.loc 1 663 0
 1659 0148 FFF7FEFF 		bl	mc_interface_lock_override_once
 1660              	.LVL243:
 1661              		.loc 1 664 0
 1662 014c B0EE480A 		vmov.f32	s0, s16
 1663 0150 FFF7FEFF 		bl	mc_interface_set_duty
 1664              	.LVL244:
 1665              		.loc 1 669 0
 1666 0154 9FED608A 		vldr.32	s16, .L164+24
 1667              	.LVL245:
 1668 0158 604E     		ldr	r6, .L164+28
 1669              	.LBB43:
 1670              		.loc 1 671 0
 1671 015a 9FED61BA 		vldr.32	s22, .L164+32
 1672 015e DFED61AA 		vldr.32	s21, .L164+36
 1673              	.LBE43:
 1674              		.loc 1 668 0
 1675 0162 F0EE489A 		vmov.f32	s19, s16
 1676              	.LVL246:
 1677              		.loc 1 667 0
 1678 0166 F0EE488A 		vmov.f32	s17, s16
 1679              		.loc 1 666 0
 1680 016a B0EE489A 		vmov.f32	s18, s16
 1681              	.LVL247:
 1682              		.loc 1 664 0
 1683 016e 4FF4FA65 		mov	r5, #2000
 1684              	.LBB44:
 1685              		.loc 1 674 0
 1686 0172 B7EE00AA 		vmov.f32	s20, #1.0e+0
 1687              	.LVL248:
 1688              	.L140:
 1689              		.loc 1 671 0 discriminator 3
 1690 0176 F38A     		ldrh	r3, [r6, #22]
 1691 0178 9CB2     		uxth	r4, r3
 1692 017a FFF7FEFF 		bl	mc_interface_get_duty_cycle_now
 1693              	.LVL249:
 1694 017e 07EE904A 		vmov	s15, r4	@ int
 1695 0182 F8EE677A 		vcvt.f32.u32	s15, s15
 1696 0186 67EE8B7A 		vmul.f32	s15, s15, s22
 1697 018a 67EEAA7A 		vmul.f32	s15, s15, s21
 1698 018e A7EE809A 		vfma.f32	s18, s15, s0
 1699              	.LVL250:
 1700              		.loc 1 672 0 discriminator 3
 1701 0192 FFF7FEFF 		bl	mc_interface_get_rpm
 1702              	.LVL251:
 1703 0196 78EE808A 		vadd.f32	s17, s17, s0
 1704              	.LVL252:
 1705              		.loc 1 673 0 discriminator 3
 1706 019a FFF7FEFF 		bl	mc_interface_get_tot_current
 1707              	.LVL253:
 1708              		.loc 1 675 0 discriminator 3
 1709 019e 0A20     		movs	r0, #10
 1710              		.loc 1 673 0 discriminator 3
ARM GAS  /tmp/ccTUBOn1.s 			page 31


 1711 01a0 79EE809A 		vadd.f32	s19, s19, s0
 1712              	.LVL254:
 1713              		.loc 1 675 0 discriminator 3
 1714 01a4 FFF7FEFF 		bl	chThdSleep
 1715              	.LVL255:
 1716              		.loc 1 670 0 discriminator 3
 1717 01a8 013D     		subs	r5, r5, #1
 1718              	.LVL256:
 1719              		.loc 1 674 0 discriminator 3
 1720 01aa 38EE0A8A 		vadd.f32	s16, s16, s20
 1721              	.LVL257:
 1722              		.loc 1 670 0 discriminator 3
 1723 01ae E2D1     		bne	.L140
 1724              	.LBE44:
 1725              		.loc 1 678 0
 1726 01b0 B0EE4C0A 		vmov.f32	s0, s24
 1727 01b4 4046     		mov	r0, r8
 1728 01b6 FFF7FEFF 		bl	timeout_configure
 1729              	.LVL258:
 1730              		.loc 1 679 0
 1731 01ba 4248     		ldr	r0, .L164+4
 1732 01bc FFF7FEFF 		bl	mc_interface_set_configuration
 1733              	.LVL259:
 1734              		.loc 1 680 0
 1735 01c0 FFF7FEFF 		bl	mc_interface_unlock
 1736              	.LVL260:
 1737              		.loc 1 681 0
 1738 01c4 9FED440A 		vldr.32	s0, .L164+24
 1739 01c8 FFF7FEFF 		bl	mc_interface_set_current
 1740              	.LVL261:
 1741              		.loc 1 685 0
 1742 01cc C9EE886A 		vdiv.f32	s13, s19, s16
 1743              		.loc 1 690 0
 1744 01d0 0120     		movs	r0, #1
 1745              		.loc 1 683 0
 1746 01d2 C9EE087A 		vdiv.f32	s15, s18, s16
 1747              	.LVL262:
 1748              		.loc 1 684 0
 1749 01d6 88EE887A 		vdiv.f32	s14, s17, s16
 1750              	.LVL263:
 1751              		.loc 1 686 0
 1752 01da 6BEEE6BA 		vnmul.f32	s23, s23, s13
 1753              	.LVL264:
 1754 01de F0EE006A 		vmov.f32	s13, #2.0e+0
 1755 01e2 EBEEA67A 		vfma.f32	s15, s23, s13
 1756              	.LVL265:
 1757              		.loc 1 691 0
 1758 01e6 BDEC0A8B 		vldm	sp!, {d8-d12}
 1759              		.cfi_remember_state
 1760              		.cfi_restore 88
 1761              		.cfi_restore 89
 1762              		.cfi_restore 86
 1763              		.cfi_restore 87
 1764              		.cfi_restore 84
 1765              		.cfi_restore 85
 1766              		.cfi_restore 82
 1767              		.cfi_restore 83
ARM GAS  /tmp/ccTUBOn1.s 			page 32


 1768              		.cfi_restore 80
 1769              		.cfi_restore 81
 1770              		.cfi_def_cfa_offset 40
 1771              	.LVL266:
 1772              		.loc 1 688 0
 1773 01ea DFED3F6A 		vldr.32	s13, .L164+40
 1774 01ee 9FED3F6A 		vldr.32	s12, .L164+44
 1775 01f2 27EE267A 		vmul.f32	s14, s14, s13
 1776              	.LVL267:
 1777 01f6 67EE867A 		vmul.f32	s15, s15, s12
 1778 01fa C7EE876A 		vdiv.f32	s13, s15, s14
 1779 01fe C7ED006A 		vstr.32	s13, [r7]
 1780              		.loc 1 691 0
 1781 0202 BDE8F88F 		pop	{r3, r4, r5, r6, r7, r8, r9, r10, fp, pc}
 1782              	.LVL268:
 1783              	.L162:
 1784              		.cfi_restore_state
 1785              	.LBB45:
 1786              	.LBB38:
 1787              		.loc 1 635 0
 1788 0206 0120     		movs	r0, #1
 1789 0208 FFF7FEFF 		bl	mcpwm_switch_comm_mode
 1790              	.LVL269:
 1791              		.loc 1 644 0
 1792 020c 41F28833 		movw	r3, #5000
 1793 0210 9C42     		cmp	r4, r3
 1794 0212 8BD1     		bne	.L141
 1795              	.LVL270:
 1796              	.L136:
 1797              	.LBE38:
 1798              	.LBE45:
 1799              		.loc 1 656 0
 1800 0214 9FED300A 		vldr.32	s0, .L164+24
 1801 0218 FFF7FEFF 		bl	mc_interface_set_current
 1802              	.LVL271:
 1803              		.loc 1 657 0
 1804 021c B0EE4C0A 		vmov.f32	s0, s24
 1805 0220 4046     		mov	r0, r8
 1806 0222 FFF7FEFF 		bl	timeout_configure
 1807              	.LVL272:
 1808              		.loc 1 658 0
 1809 0226 2748     		ldr	r0, .L164+4
 1810 0228 FFF7FEFF 		bl	mc_interface_set_configuration
 1811              	.LVL273:
 1812              		.loc 1 659 0
 1813 022c FFF7FEFF 		bl	mc_interface_unlock
 1814              	.LVL274:
 1815              		.loc 1 691 0
 1816 0230 BDEC0A8B 		vldm	sp!, {d8-d12}
 1817              		.cfi_remember_state
 1818              		.cfi_restore 88
 1819              		.cfi_restore 89
 1820              		.cfi_restore 86
 1821              		.cfi_restore 87
 1822              		.cfi_restore 84
 1823              		.cfi_restore 85
 1824              		.cfi_restore 82
ARM GAS  /tmp/ccTUBOn1.s 			page 33


 1825              		.cfi_restore 83
 1826              		.cfi_restore 80
 1827              		.cfi_restore 81
 1828              		.cfi_def_cfa_offset 40
 1829              	.LVL275:
 1830              		.loc 1 660 0
 1831 0234 0020     		movs	r0, #0
 1832              		.loc 1 691 0
 1833 0236 BDE8F88F 		pop	{r3, r4, r5, r6, r7, r8, r9, r10, fp, pc}
 1834              	.LVL276:
 1835              	.L161:
 1836              		.cfi_restore_state
 1837              	.LBB46:
 1838              	.LBB39:
 1839              		.loc 1 650 0
 1840 023a 002D     		cmp	r5, #0
 1841 023c 84D1     		bne	.L138
 1842              	.LBE39:
 1843              		.loc 1 594 0
 1844 023e 09F10109 		add	r9, r9, #1
 1845              	.LVL277:
 1846 0242 B9F1040F 		cmp	r9, #4
 1847              	.LBB40:
 1848              		.loc 1 628 0
 1849 0246 4FF00105 		mov	r5, #1
 1850              	.LVL278:
 1851              	.LBE40:
 1852              		.loc 1 594 0
 1853 024a 7FF43FAF 		bne	.L139
 1854 024e 79E7     		b	.L163
 1855              	.LVL279:
 1856              	.L157:
 1857              	.LBE46:
 1858              		.loc 1 573 0
 1859 0250 1C48     		ldr	r0, .L164+4
 1860 0252 FFF7FEFF 		bl	mc_interface_set_configuration
 1861              	.LVL280:
 1862              		.loc 1 691 0
 1863 0256 BDEC0A8B 		vldm	sp!, {d8-d12}
 1864              		.cfi_remember_state
 1865              		.cfi_restore 88
 1866              		.cfi_restore 89
 1867              		.cfi_restore 86
 1868              		.cfi_restore 87
 1869              		.cfi_restore 84
 1870              		.cfi_restore 85
 1871              		.cfi_restore 82
 1872              		.cfi_restore 83
 1873              		.cfi_restore 80
 1874              		.cfi_restore 81
 1875              		.cfi_def_cfa_offset 40
 1876              	.LVL281:
 1877              		.loc 1 574 0
 1878 025a 0020     		movs	r0, #0
 1879              		.loc 1 691 0
 1880 025c BDE8F88F 		pop	{r3, r4, r5, r6, r7, r8, r9, r10, fp, pc}
 1881              	.LVL282:
ARM GAS  /tmp/ccTUBOn1.s 			page 34


 1882              	.L160:
 1883              		.cfi_restore_state
 1884              	.LBB47:
 1885              	.LBB41:
 1886              		.loc 1 615 0
 1887 0260 FFF7FEFF 		bl	mc_interface_lock_override_once
 1888              	.LVL283:
 1889              		.loc 1 616 0
 1890 0264 FFF7FEFF 		bl	mc_interface_release_motor
 1891              	.LVL284:
 1892              		.loc 1 617 0
 1893 0268 F1EE007A 		vmov.f32	s15, #4.0e+0
 1894 026c 69EE277A 		vmul.f32	s15, s18, s15
 1895              		.loc 1 618 0
 1896 0270 86F801A0 		strb	r10, [r6, #1]
 1897              		.loc 1 617 0
 1898 0274 C6ED217A 		vstr.32	s15, [r6, #132]
 1899              	.L155:
 1900              		.loc 1 619 0
 1901 0278 FFF7FEFF 		bl	mc_interface_lock_override_once
 1902              	.LVL285:
 1903              		.loc 1 620 0
 1904 027c 1048     		ldr	r0, .L164
 1905 027e FFF7FEFF 		bl	mc_interface_set_configuration
 1906              	.LVL286:
 1907              		.loc 1 621 0
 1908 0282 42F21070 		movw	r0, #10000
 1909 0286 FFF7FEFF 		bl	chThdSleep
 1910              	.LVL287:
 1911              		.loc 1 622 0
 1912 028a FFF7FEFF 		bl	mc_interface_lock_override_once
 1913              	.LVL288:
 1914              		.loc 1 623 0
 1915 028e B0EE690A 		vmov.f32	s0, s19
 1916 0292 FFF7FEFF 		bl	mc_interface_set_current
 1917              	.LVL289:
 1918 0296 25E7     		b	.L127
 1919              	.L159:
 1920              		.loc 1 605 0
 1921 0298 FFF7FEFF 		bl	mc_interface_lock_override_once
 1922              	.LVL290:
 1923              		.loc 1 606 0
 1924 029c FFF7FEFF 		bl	mc_interface_release_motor
 1925              	.LVL291:
 1926              		.loc 1 607 0
 1927 02a0 79EE097A 		vadd.f32	s15, s18, s18
 1928              		.loc 1 608 0
 1929 02a4 124B     		ldr	r3, .L164+48
 1930              		.loc 1 607 0
 1931 02a6 C6ED217A 		vstr.32	s15, [r6, #132]
 1932              		.loc 1 608 0
 1933 02aa C6F89030 		str	r3, [r6, #144]	@ float
 1934 02ae E3E7     		b	.L155
 1935              	.L158:
 1936              		.loc 1 596 0
 1937 02b0 FFF7FEFF 		bl	mc_interface_lock_override_once
 1938              	.LVL292:
ARM GAS  /tmp/ccTUBOn1.s 			page 35


 1939              		.loc 1 597 0
 1940 02b4 FFF7FEFF 		bl	mc_interface_release_motor
 1941              	.LVL293:
 1942              		.loc 1 598 0
 1943 02b8 C6F890B0 		str	fp, [r6, #144]	@ float
 1944 02bc DCE7     		b	.L155
 1945              	.L165:
 1946 02be 00BF     		.align	2
 1947              	.L164:
 1948 02c0 00000000 		.word	.LANCHOR1
 1949 02c4 00000000 		.word	.LANCHOR2
 1950 02c8 00401C46 		.word	1176256512
 1951 02cc 00009643 		.word	1133903872
 1952 02d0 00004842 		.word	1112014848
 1953 02d4 00808944 		.word	1149861888
 1954 02d8 00000000 		.word	0
 1955 02dc 00000000 		.word	ADC_Value
 1956 02e0 6740533A 		.word	978534503
 1957 02e4 00004943 		.word	1128857600
 1958 02e8 EF1F2E41 		.word	1093541871
 1959 02ec 00007042 		.word	1114636288
 1960 02f0 0000A041 		.word	1101004800
 1961 02f4 00007A43 		.word	1132068864
 1962              	.LBE41:
 1963              	.LBE47:
 1964              		.cfi_endproc
 1965              	.LFE268:
 1966              		.size	conf_general_measure_flux_linkage, .-conf_general_measure_flux_linkage
 1967              		.section	.text.conf_general_calculate_deadtime,"ax",%progbits
 1968              		.align	1
 1969              		.p2align 4,,15
 1970              		.global	conf_general_calculate_deadtime
 1971              		.syntax unified
 1972              		.thumb
 1973              		.thumb_func
 1974              		.fpu fpv4-sp-d16
 1975              		.type	conf_general_calculate_deadtime, %function
 1976              	conf_general_calculate_deadtime:
 1977              	.LFB269:
 1978              		.loc 1 694 0
 1979              		.cfi_startproc
 1980              		@ args = 0, pretend = 0, frame = 8
 1981              		@ frame_needed = 0, uses_anonymous_args = 0
 1982              		@ link register save eliminated.
 1983              	.LVL294:
 1984              		.loc 1 696 0
 1985 0000 DFED387A 		vldr.32	s15, .L191
 1986 0004 DFED386A 		vldr.32	s13, .L191+4
 1987              		.loc 1 698 0
 1988 0008 9FED387A 		vldr.32	s14, .L191+8
 1989              		.loc 1 696 0
 1990 000c C0EEA70A 		vdiv.f32	s1, s1, s15
 1991              	.LVL295:
 1992 0010 B7EE006A 		vmov.f32	s12, #1.0e+0
 1993 0014 C6EE207A 		vdiv.f32	s15, s12, s1
 1994 0018 67EEA67A 		vmul.f32	s15, s15, s13
 1995              	.LVL296:
ARM GAS  /tmp/ccTUBOn1.s 			page 36


 1996              		.loc 1 698 0
 1997 001c 27EE877A 		vmul.f32	s14, s15, s14
 1998 0020 B4EEC07A 		vcmpe.f32	s14, s0
 1999 0024 F1EE10FA 		vmrs	APSR_nzcv, FPSCR
 2000 0028 3CDA     		bge	.L188
 2001              		.loc 1 701 0
 2002 002a 9FED317A 		vldr.32	s14, .L191+12
 2003 002e 27EE877A 		vmul.f32	s14, s15, s14
 2004 0032 B4EEC07A 		vcmpe.f32	s14, s0
 2005 0036 F1EE10FA 		vmrs	APSR_nzcv, FPSCR
 2006 003a 23DA     		bge	.L189
 2007              		.loc 1 705 0
 2008 003c 9FED2D7A 		vldr.32	s14, .L191+16
 2009 0040 27EE877A 		vmul.f32	s14, s15, s14
 2010 0044 B4EEC07A 		vcmpe.f32	s14, s0
 2011 0048 F1EE10FA 		vmrs	APSR_nzcv, FPSCR
 2012 004c 35DA     		bge	.L190
 2013              		.loc 1 709 0
 2014 004e 9FED2A7A 		vldr.32	s14, .L191+20
 2015 0052 27EE877A 		vmul.f32	s14, s15, s14
 2016 0056 B4EEC07A 		vcmpe.f32	s14, s0
 2017 005a F1EE10FA 		vmrs	APSR_nzcv, FPSCR
 2018 005e 3EDB     		blt	.L183
 2019              		.loc 1 710 0
 2020 0060 B3EE007A 		vmov.f32	s14, #1.6e+1
 2021 0064 67EE877A 		vmul.f32	s15, s15, s14
 2022              	.LVL297:
 2023 0068 DFED246A 		vldr.32	s13, .L191+24
 2024              	.LVL298:
 2025 006c 80EE277A 		vdiv.f32	s14, s0, s15
 2026 0070 77EE667A 		vsub.f32	s15, s14, s13
 2027 0074 FCEEE77A 		vcvt.u32.f32	s15, s15
 2028 0078 17EE900A 		vmov	r0, s15	@ int
 2029              	.LVL299:
 2030              		.loc 1 711 0
 2031 007c 60F01F00 		orn	r0, r0, #31
 2032              	.LVL300:
 2033 0080 C0B2     		uxtb	r0, r0
 2034              	.LVL301:
 2035 0082 7047     		bx	lr
 2036              	.LVL302:
 2037              	.L189:
 2038              		.loc 1 702 0
 2039 0084 77EEA77A 		vadd.f32	s15, s15, s15
 2040              	.LVL303:
 2041 0088 DFED1D6A 		vldr.32	s13, .L191+28
 2042              	.LVL304:
 2043 008c 80EE277A 		vdiv.f32	s14, s0, s15
 2044 0090 77EE667A 		vsub.f32	s15, s14, s13
 2045 0094 FCEEE77A 		vcvt.u32.f32	s15, s15
 2046 0098 17EE900A 		vmov	r0, s15	@ int
 2047              	.LVL305:
 2048              		.loc 1 703 0
 2049 009c 60F07F00 		orn	r0, r0, #127
 2050              	.LVL306:
 2051 00a0 C0B2     		uxtb	r0, r0
 2052              	.LVL307:
ARM GAS  /tmp/ccTUBOn1.s 			page 37


 2053 00a2 7047     		bx	lr
 2054              	.LVL308:
 2055              	.L188:
 2056              		.loc 1 699 0
 2057 00a4 80EE277A 		vdiv.f32	s14, s0, s15
 2058              		.loc 1 694 0
 2059 00a8 82B0     		sub	sp, sp, #8
 2060              		.cfi_def_cfa_offset 8
 2061              		.loc 1 699 0
 2062 00aa FCEEC77A 		vcvt.u32.f32	s15, s14
 2063              	.LVL309:
 2064 00ae CDED017A 		vstr.32	s15, [sp, #4]	@ int
 2065 00b2 9DF80400 		ldrb	r0, [sp, #4]	@ zero_extendqisi2
 2066              	.LVL310:
 2067              		.loc 1 723 0
 2068 00b6 02B0     		add	sp, sp, #8
 2069              		.cfi_def_cfa_offset 0
 2070              		@ sp needed
 2071 00b8 7047     		bx	lr
 2072              	.LVL311:
 2073              	.L190:
 2074              		.loc 1 706 0
 2075 00ba B2EE007A 		vmov.f32	s14, #8.0e+0
 2076 00be 67EE877A 		vmul.f32	s15, s15, s14
 2077              	.LVL312:
 2078 00c2 DFED0E6A 		vldr.32	s13, .L191+24
 2079              	.LVL313:
 2080 00c6 80EE277A 		vdiv.f32	s14, s0, s15
 2081 00ca 77EE667A 		vsub.f32	s15, s14, s13
 2082 00ce FCEEE77A 		vcvt.u32.f32	s15, s15
 2083 00d2 17EE900A 		vmov	r0, s15	@ int
 2084              	.LVL314:
 2085              		.loc 1 707 0
 2086 00d6 60F03F00 		orn	r0, r0, #63
 2087              	.LVL315:
 2088 00da C0B2     		uxtb	r0, r0
 2089              	.LVL316:
 2090 00dc 7047     		bx	lr
 2091              	.LVL317:
 2092              	.L183:
 2093              		.loc 1 715 0
 2094 00de FF20     		movs	r0, #255
 2095              	.LVL318:
 2096              		.loc 1 723 0
 2097 00e0 7047     		bx	lr
 2098              	.L192:
 2099 00e2 00BF     		.align	2
 2100              	.L191:
 2101 00e4 00247449 		.word	1232348160
 2102 00e8 00007A44 		.word	1148846080
 2103 00ec 0000FE42 		.word	1123942400
 2104 00f0 00007E43 		.word	1132331008
 2105 00f4 0000FC43 		.word	1140588544
 2106 00f8 00007C44 		.word	1148977152
 2107 00fc 00000042 		.word	1107296256
 2108 0100 00008042 		.word	1115684864
 2109              		.cfi_endproc
ARM GAS  /tmp/ccTUBOn1.s 			page 38


 2110              	.LFE269:
 2111              		.size	conf_general_calculate_deadtime, .-conf_general_calculate_deadtime
 2112              		.section	.text.conf_general_measure_flux_linkage_openloop,"ax",%progbits
 2113              		.align	1
 2114              		.p2align 4,,15
 2115              		.global	conf_general_measure_flux_linkage_openloop
 2116              		.syntax unified
 2117              		.thumb
 2118              		.thumb_func
 2119              		.fpu fpv4-sp-d16
 2120              		.type	conf_general_measure_flux_linkage_openloop, %function
 2121              	conf_general_measure_flux_linkage_openloop:
 2122              	.LFB270:
 2123              		.loc 1 747 0
 2124              		.cfi_startproc
 2125              		@ args = 0, pretend = 0, frame = 0
 2126              		@ frame_needed = 0, uses_anonymous_args = 0
 2127              	.LVL319:
 2128 0000 2DE9F041 		push	{r4, r5, r6, r7, r8, lr}
 2129              		.cfi_def_cfa_offset 24
 2130              		.cfi_offset 4, -24
 2131              		.cfi_offset 5, -20
 2132              		.cfi_offset 6, -16
 2133              		.cfi_offset 7, -12
 2134              		.cfi_offset 8, -8
 2135              		.cfi_offset 14, -4
 2136 0004 2DED0E8B 		vpush.64	{d8, d9, d10, d11, d12, d13, d14}
 2137              		.cfi_def_cfa_offset 80
 2138              		.cfi_offset 80, -80
 2139              		.cfi_offset 81, -76
 2140              		.cfi_offset 82, -72
 2141              		.cfi_offset 83, -68
 2142              		.cfi_offset 84, -64
 2143              		.cfi_offset 85, -60
 2144              		.cfi_offset 86, -56
 2145              		.cfi_offset 87, -52
 2146              		.cfi_offset 88, -48
 2147              		.cfi_offset 89, -44
 2148              		.cfi_offset 90, -40
 2149              		.cfi_offset 91, -36
 2150              		.cfi_offset 92, -32
 2151              		.cfi_offset 93, -28
 2152              		.loc 1 747 0
 2153 0008 0746     		mov	r7, r0
 2154 000a B0EE40AA 		vmov.f32	s20, s0
 2155 000e F0EE609A 		vmov.f32	s19, s1
 2156 0012 F0EE41AA 		vmov.f32	s21, s2
 2157 0016 F0EE61BA 		vmov.f32	s23, s3
 2158              		.loc 1 750 0
 2159 001a FFF7FEFF 		bl	mc_interface_get_configuration
 2160              	.LVL320:
 2161 001e 9E4D     		ldr	r5, .L235
 2162 0020 0146     		mov	r1, r0
 2163 0022 4FF4E472 		mov	r2, #456
 2164 0026 2846     		mov	r0, r5
 2165 0028 FFF7FEFF 		bl	memcpy
 2166              	.LVL321:
ARM GAS  /tmp/ccTUBOn1.s 			page 39


 2167              		.loc 1 751 0
 2168 002c 2946     		mov	r1, r5
 2169 002e 4FF4E472 		mov	r2, #456
 2170 0032 9A48     		ldr	r0, .L235+4
 2171 0034 FFF7FEFF 		bl	memcpy
 2172              	.LVL322:
 2173              		.loc 1 753 0
 2174 0038 0220     		movs	r0, #2
 2175              		.loc 1 755 0
 2176 003a 994A     		ldr	r2, .L235+8
 2177              		.loc 1 753 0
 2178 003c A870     		strb	r0, [r5, #2]
 2179              		.loc 1 754 0
 2180 003e 0021     		movs	r1, #0
 2181              		.loc 1 756 0
 2182 0040 4FF07E53 		mov	r3, #1065353216
 2183              		.loc 1 757 0
 2184 0044 2846     		mov	r0, r5
 2185              		.loc 1 754 0
 2186 0046 85F81411 		strb	r1, [r5, #276]
 2187              		.loc 1 755 0
 2188 004a C5F8AC20 		str	r2, [r5, #172]	@ float
 2189              		.loc 1 756 0
 2190 004e C5F8B030 		str	r3, [r5, #176]	@ float
 2191              		.loc 1 757 0
 2192 0052 4FF4FA74 		mov	r4, #500
 2193 0056 FFF7FEFF 		bl	mc_interface_set_configuration
 2194              	.LVL323:
 2195 005a 04E0     		b	.L195
 2196              	.LVL324:
 2197              	.L227:
 2198              	.LBB48:
 2199              		.loc 1 764 0 discriminator 2
 2200 005c 6420     		movs	r0, #100
 2201 005e FFF7FEFF 		bl	chThdSleep
 2202              	.LVL325:
 2203              		.loc 1 760 0 discriminator 2
 2204 0062 013C     		subs	r4, r4, #1
 2205              	.LVL326:
 2206 0064 03D0     		beq	.L194
 2207              	.LVL327:
 2208              	.L195:
 2209              		.loc 1 761 0
 2210 0066 FFF7FEFF 		bl	mc_interface_get_fault
 2211              	.LVL328:
 2212 006a 0028     		cmp	r0, #0
 2213 006c F6D1     		bne	.L227
 2214              	.LVL329:
 2215              	.L194:
 2216              	.LBE48:
 2217              		.loc 1 767 0
 2218 006e FFF7FEFF 		bl	mc_interface_get_fault
 2219              	.LVL330:
 2220 0072 0028     		cmp	r0, #0
 2221 0074 40F08580 		bne	.L228
 2222              		.loc 1 774 0
 2223 0078 42F21070 		movw	r0, #10000
ARM GAS  /tmp/ccTUBOn1.s 			page 40


 2224 007c FFF7FEFF 		bl	chThdSleep
 2225              	.LVL331:
 2226              		.loc 1 777 0
 2227 0080 FFF7FEFF 		bl	timeout_get_timeout_msec
 2228              	.LVL332:
 2229 0084 8046     		mov	r8, r0
 2230              	.LVL333:
 2231              		.loc 1 778 0
 2232 0086 FFF7FEFF 		bl	timeout_get_brake_current
 2233              	.LVL334:
 2234 008a B0EE40CA 		vmov.f32	s24, s0
 2235              	.LVL335:
 2236              		.loc 1 779 0
 2237 008e FFF7FEFF 		bl	timeout_reset
 2238              	.LVL336:
 2239              		.loc 1 780 0
 2240 0092 9FED840A 		vldr.32	s0, .L235+12
 2241 0096 4EF66020 		movw	r0, #60000
 2242              		.loc 1 791 0
 2243 009a B0EE408A 		vmov.f32	s16, s0
 2244              		.loc 1 780 0
 2245 009e FFF7FEFF 		bl	timeout_configure
 2246              	.LVL337:
 2247              		.loc 1 782 0
 2248 00a2 FFF7FEFF 		bl	mc_interface_lock
 2249              	.LVL338:
 2250              		.loc 1 788 0
 2251 00a6 F0EE480A 		vmov.f32	s1, s16
 2252 00aa B0EE4A0A 		vmov.f32	s0, s20
 2253 00ae FFF7FEFF 		bl	mcpwm_foc_set_openloop
 2254              	.LVL339:
 2255              		.loc 1 790 0
 2256 00b2 F0EE488A 		vmov.f32	s17, s16
 2257              		.loc 1 788 0
 2258 00b6 4FF47A74 		mov	r4, #1000
 2259              	.LBB49:
 2260              		.loc 1 794 0
 2261 00ba B7EE009A 		vmov.f32	s18, #1.0e+0
 2262              	.LVL340:
 2263              	.L198:
 2264              		.loc 1 793 0 discriminator 3
 2265 00be FFF7FEFF 		bl	mc_interface_get_duty_cycle_now
 2266              	.LVL341:
 2267              		.loc 1 795 0 discriminator 3
 2268 00c2 0A20     		movs	r0, #10
 2269              		.loc 1 793 0 discriminator 3
 2270 00c4 B0EEC00A 		vabs.f32	s0, s0
 2271 00c8 78EE808A 		vadd.f32	s17, s17, s0
 2272              	.LVL342:
 2273              		.loc 1 795 0 discriminator 3
 2274 00cc FFF7FEFF 		bl	chThdSleep
 2275              	.LVL343:
 2276              		.loc 1 792 0 discriminator 3
 2277 00d0 013C     		subs	r4, r4, #1
 2278              	.LVL344:
 2279              		.loc 1 794 0 discriminator 3
 2280 00d2 38EE098A 		vadd.f32	s16, s16, s18
ARM GAS  /tmp/ccTUBOn1.s 			page 41


 2281              	.LVL345:
 2282              		.loc 1 792 0 discriminator 3
 2283 00d6 F2D1     		bne	.L198
 2284              	.LBE49:
 2285              		.loc 1 799 0
 2286 00d8 9FED729A 		vldr.32	s18, .L235+12
 2287              	.LBB50:
 2288              		.loc 1 804 0
 2289 00dc DFED72CA 		vldr.32	s25, .L235+16
 2290              		.loc 1 820 0
 2291 00e0 DFED72EA 		vldr.32	s29, .L235+20
 2292              		.loc 1 826 0
 2293 00e4 9FED72EA 		vldr.32	s28, .L235+24
 2294              		.loc 1 832 0
 2295 00e8 9FED72DA 		vldr.32	s26, .L235+28
 2296              	.LBE50:
 2297              		.loc 1 798 0
 2298 00ec C8EE88DA 		vdiv.f32	s27, s17, s16
 2299              	.LVL346:
 2300              	.LBB51:
 2301              		.loc 1 815 0
 2302 00f0 43F69826 		movw	r6, #15000
 2303              	.LBE51:
 2304              		.loc 1 785 0
 2305 00f4 B0EE49BA 		vmov.f32	s22, s18
 2306              		.loc 1 802 0
 2307 00f8 33E0     		b	.L199
 2308              	.LVL347:
 2309              	.L232:
 2310              	.LBB52:
 2311              		.loc 1 803 0 discriminator 1
 2312 00fa F1EE4B0A 		vneg.f32	s1, s22
 2313              	.L200:
 2314              		.loc 1 803 0 is_stmt 0 discriminator 4
 2315 00fe B0EE4A0A 		vmov.f32	s0, s20
 2316 0102 FFF7FEFF 		bl	mcpwm_foc_set_openloop
 2317              	.LVL348:
 2318              		.loc 1 804 0 is_stmt 1 discriminator 4
 2319 0106 CAEEAC7A 		vdiv.f32	s15, s21, s25
 2320              		.loc 1 806 0 discriminator 4
 2321 010a 0A20     		movs	r0, #10
 2322              		.loc 1 807 0 discriminator 4
 2323 010c 0134     		adds	r4, r4, #1
 2324              	.LVL349:
 2325              		.loc 1 804 0 discriminator 4
 2326 010e 3BEE27BA 		vadd.f32	s22, s22, s15
 2327              		.loc 1 806 0 discriminator 4
 2328 0112 FFF7FEFF 		bl	chThdSleep
 2329              	.LVL350:
 2330              		.loc 1 809 0 discriminator 4
 2331 0116 FFF7FEFF 		bl	mc_interface_get_duty_cycle_now
 2332              	.LVL351:
 2333 011a B0EEC00A 		vabs.f32	s0, s0
 2334              	.LVL352:
 2335              		.loc 1 812 0 discriminator 4
 2336 011e B4EE409A 		vcmp.f32	s18, s0
 2337 0122 F1EE10FA 		vmrs	APSR_nzcv, FPSCR
ARM GAS  /tmp/ccTUBOn1.s 			page 42


 2338 0126 48BF     		it	mi
 2339 0128 B0EE409A 		vmovmi.f32	s18, s0
 2340              	.LVL353:
 2341              		.loc 1 815 0 discriminator 4
 2342 012c B442     		cmp	r4, r6
 2343 012e 00F0A580 		beq	.L229
 2344              		.loc 1 820 0
 2345 0132 B4F57A6F 		cmp	r4, #4000
 2346 0136 0FDD     		ble	.L205
 2347              		.loc 1 820 0 is_stmt 0 discriminator 1
 2348 0138 69EE2E7A 		vmul.f32	s15, s18, s29
 2349 013c F4EEC07A 		vcmpe.f32	s15, s0
 2350 0140 F1EE10FA 		vmrs	APSR_nzcv, FPSCR
 2351 0144 00F39180 		bgt	.L230
 2352              		.loc 1 826 0 is_stmt 1 discriminator 1
 2353 0148 6DEE8E7A 		vmul.f32	s15, s27, s28
 2354 014c F4EEE97A 		vcmpe.f32	s15, s19
 2355 0150 F1EE10FA 		vmrs	APSR_nzcv, FPSCR
 2356 0154 00F38180 		bgt	.L231
 2357              	.L205:
 2358              		.loc 1 832 0
 2359 0158 B4EECDBA 		vcmpe.f32	s22, s26
 2360 015c F1EE10FA 		vmrs	APSR_nzcv, FPSCR
 2361 0160 18DA     		bge	.L209
 2362              	.LVL354:
 2363              	.L199:
 2364              	.LBE52:
 2365              		.loc 1 802 0
 2366 0162 FFF7FEFF 		bl	mc_interface_get_duty_cycle_now
 2367              	.LVL355:
 2368 0166 B0EEC00A 		vabs.f32	s0, s0
 2369 016a B4EEE90A 		vcmpe.f32	s0, s19
 2370 016e F1EE10FA 		vmrs	APSR_nzcv, FPSCR
 2371 0172 0FD5     		bpl	.L209
 2372              	.LBB53:
 2373              		.loc 1 803 0
 2374 0174 95F89931 		ldrb	r3, [r5, #409]	@ zero_extendqisi2
 2375 0178 002B     		cmp	r3, #0
 2376 017a BED1     		bne	.L232
 2377 017c F0EE4B0A 		vmov.f32	s1, s22
 2378 0180 BDE7     		b	.L200
 2379              	.LVL356:
 2380              	.L228:
 2381              	.LBE53:
 2382              		.loc 1 768 0
 2383 0182 4648     		ldr	r0, .L235+4
 2384 0184 FFF7FEFF 		bl	mc_interface_set_configuration
 2385              	.LVL357:
 2386              		.loc 1 871 0
 2387 0188 BDEC0E8B 		vldm	sp!, {d8-d14}
 2388              		.cfi_remember_state
 2389              		.cfi_restore 92
 2390              		.cfi_restore 93
 2391              		.cfi_restore 90
 2392              		.cfi_restore 91
 2393              		.cfi_restore 88
 2394              		.cfi_restore 89
ARM GAS  /tmp/ccTUBOn1.s 			page 43


 2395              		.cfi_restore 86
 2396              		.cfi_restore 87
 2397              		.cfi_restore 84
 2398              		.cfi_restore 85
 2399              		.cfi_restore 82
 2400              		.cfi_restore 83
 2401              		.cfi_restore 80
 2402              		.cfi_restore 81
 2403              		.cfi_def_cfa_offset 24
 2404              	.LVL358:
 2405              		.loc 1 769 0
 2406 018c 0024     		movs	r4, #0
 2407              		.loc 1 871 0
 2408 018e 2046     		mov	r0, r4
 2409 0190 BDE8F081 		pop	{r4, r5, r6, r7, r8, pc}
 2410              	.LVL359:
 2411              	.L209:
 2412              		.cfi_restore_state
 2413              		.loc 1 837 0
 2414 0194 42F21070 		movw	r0, #10000
 2415              	.LBB54:
 2416              		.loc 1 844 0
 2417 0198 9FED428A 		vldr.32	s16, .L235+12
 2418              	.LVL360:
 2419              	.LBE54:
 2420              		.loc 1 837 0
 2421 019c FFF7FEFF 		bl	chThdSleep
 2422              	.LVL361:
 2423              	.LBB56:
 2424              		.loc 1 843 0
 2425 01a0 B0EE48AA 		vmov.f32	s20, s16
 2426              	.LVL362:
 2427              		.loc 1 842 0
 2428 01a4 F0EE489A 		vmov.f32	s19, s16
 2429              	.LVL363:
 2430              		.loc 1 841 0
 2431 01a8 B0EE489A 		vmov.f32	s18, s16
 2432              	.LVL364:
 2433              		.loc 1 840 0
 2434 01ac F0EE488A 		vmov.f32	s17, s16
 2435              	.LBE56:
 2436              		.loc 1 837 0
 2437 01b0 4FF47A74 		mov	r4, #1000
 2438              	.LBB57:
 2439              	.LBB55:
 2440              		.loc 1 851 0
 2441 01b4 F7EE00AA 		vmov.f32	s21, #1.0e+0
 2442              	.LVL365:
 2443              	.L211:
 2444              		.loc 1 847 0 discriminator 3
 2445 01b8 FFF7FEFF 		bl	mcpwm_foc_get_vq
 2446              	.LVL366:
 2447 01bc 78EE808A 		vadd.f32	s17, s17, s0
 2448              	.LVL367:
 2449              		.loc 1 848 0 discriminator 3
 2450 01c0 FFF7FEFF 		bl	mcpwm_foc_get_vd
 2451              	.LVL368:
ARM GAS  /tmp/ccTUBOn1.s 			page 44


 2452 01c4 39EE009A 		vadd.f32	s18, s18, s0
 2453              	.LVL369:
 2454              		.loc 1 849 0 discriminator 3
 2455 01c8 FFF7FEFF 		bl	mcpwm_foc_get_iq
 2456              	.LVL370:
 2457 01cc 79EE809A 		vadd.f32	s19, s19, s0
 2458              	.LVL371:
 2459              		.loc 1 850 0 discriminator 3
 2460 01d0 FFF7FEFF 		bl	mcpwm_foc_get_id
 2461              	.LVL372:
 2462              		.loc 1 852 0 discriminator 3
 2463 01d4 0A20     		movs	r0, #10
 2464              		.loc 1 850 0 discriminator 3
 2465 01d6 3AEE00AA 		vadd.f32	s20, s20, s0
 2466              	.LVL373:
 2467              		.loc 1 852 0 discriminator 3
 2468 01da FFF7FEFF 		bl	chThdSleep
 2469              	.LVL374:
 2470              		.loc 1 846 0 discriminator 3
 2471 01de 013C     		subs	r4, r4, #1
 2472              	.LVL375:
 2473              		.loc 1 851 0 discriminator 3
 2474 01e0 38EE2A8A 		vadd.f32	s16, s16, s21
 2475              	.LVL376:
 2476              		.loc 1 846 0 discriminator 3
 2477 01e4 E8D1     		bne	.L211
 2478              	.LBE55:
 2479              		.loc 1 856 0
 2480 01e6 89EE080A 		vdiv.f32	s0, s18, s16
 2481              		.loc 1 855 0
 2482 01ea C8EE887A 		vdiv.f32	s15, s17, s16
 2483              	.LVL377:
 2484              		.loc 1 860 0
 2485 01ee 20EE000A 		vmul.f32	s0, s0, s0
 2486              	.LVL378:
 2487              		.loc 1 857 0
 2488 01f2 89EE889A 		vdiv.f32	s18, s19, s16
 2489              	.LVL379:
 2490              		.loc 1 860 0
 2491 01f6 A7EEA70A 		vfma.f32	s0, s15, s15
 2492              		.loc 1 858 0
 2493 01fa CAEE088A 		vdiv.f32	s17, s20, s16
 2494              	.LVL380:
 2495 01fe B5EE400A 		vcmp.f32	s0, #0
 2496 0202 F1EE10FA 		vmrs	APSR_nzcv, FPSCR
 2497              		.loc 1 860 0
 2498 0206 B1EEC08A 		vsqrt.f32	s16, s0
 2499              	.LVL381:
 2500 020a 42D4     		bmi	.L233
 2501              	.LVL382:
 2502              	.L212:
 2503              		.loc 1 861 0
 2504 020c 28EEA80A 		vmul.f32	s0, s17, s17
 2505 0210 A9EE090A 		vfma.f32	s0, s18, s18
 2506 0214 B5EE400A 		vcmp.f32	s0, #0
 2507 0218 F1EE10FA 		vmrs	APSR_nzcv, FPSCR
 2508 021c F1EEC08A 		vsqrt.f32	s17, s0
ARM GAS  /tmp/ccTUBOn1.s 			page 45


 2509              	.LVL383:
 2510 0220 34D4     		bmi	.L234
 2511              	.L213:
 2512              		.loc 1 863 0
 2513 0222 0124     		movs	r4, #1
 2514              		.loc 1 861 0
 2515 0224 DFED247A 		vldr.32	s15, .L235+32
 2516              		.loc 1 860 0
 2517 0228 A8EEEB8A 		vfms.f32	s16, s17, s23
 2518              		.loc 1 861 0
 2519 022c 2BEE27BA 		vmul.f32	s22, s22, s15
 2520 0230 C8EE0B7A 		vdiv.f32	s15, s16, s22
 2521              		.loc 1 860 0
 2522 0234 C7ED007A 		vstr.32	s15, [r7]
 2523              	.LVL384:
 2524              	.L204:
 2525              	.LBE57:
 2526              		.loc 1 866 0
 2527 0238 B0EE4C0A 		vmov.f32	s0, s24
 2528 023c 4046     		mov	r0, r8
 2529 023e FFF7FEFF 		bl	timeout_configure
 2530              	.LVL385:
 2531              		.loc 1 867 0
 2532 0242 FFF7FEFF 		bl	mc_interface_unlock
 2533              	.LVL386:
 2534              		.loc 1 868 0
 2535 0246 FFF7FEFF 		bl	mc_interface_release_motor
 2536              	.LVL387:
 2537              		.loc 1 869 0
 2538 024a 1448     		ldr	r0, .L235+4
 2539 024c FFF7FEFF 		bl	mc_interface_set_configuration
 2540              	.LVL388:
 2541              		.loc 1 871 0
 2542 0250 BDEC0E8B 		vldm	sp!, {d8-d14}
 2543              		.cfi_remember_state
 2544              		.cfi_restore 92
 2545              		.cfi_restore 93
 2546              		.cfi_restore 90
 2547              		.cfi_restore 91
 2548              		.cfi_restore 88
 2549              		.cfi_restore 89
 2550              		.cfi_restore 86
 2551              		.cfi_restore 87
 2552              		.cfi_restore 84
 2553              		.cfi_restore 85
 2554              		.cfi_restore 82
 2555              		.cfi_restore 83
 2556              		.cfi_restore 80
 2557              		.cfi_restore 81
 2558              		.cfi_def_cfa_offset 24
 2559              	.LVL389:
 2560 0254 2046     		mov	r0, r4
 2561 0256 BDE8F081 		pop	{r4, r5, r6, r7, r8, pc}
 2562              	.LVL390:
 2563              	.L231:
 2564              		.cfi_restore_state
 2565              	.LBB58:
ARM GAS  /tmp/ccTUBOn1.s 			page 46


 2566              		.loc 1 828 0
 2567 025a 184B     		ldr	r3, .L235+36
 2568 025c 3B60     		str	r3, [r7]	@ float
 2569              	.LBE58:
 2570              		.loc 1 837 0
 2571 025e 42F21070 		movw	r0, #10000
 2572 0262 FFF7FEFF 		bl	chThdSleep
 2573              	.LVL391:
 2574              		.loc 1 748 0
 2575 0266 0024     		movs	r4, #0
 2576 0268 E6E7     		b	.L204
 2577              	.LVL392:
 2578              	.L230:
 2579              	.LBB59:
 2580              		.loc 1 822 0
 2581 026a 4FF04043 		mov	r3, #-1073741824
 2582 026e 3B60     		str	r3, [r7]	@ float
 2583              	.LBE59:
 2584              		.loc 1 837 0
 2585 0270 42F21070 		movw	r0, #10000
 2586 0274 FFF7FEFF 		bl	chThdSleep
 2587              	.LVL393:
 2588              		.loc 1 748 0
 2589 0278 0024     		movs	r4, #0
 2590 027a DDE7     		b	.L204
 2591              	.LVL394:
 2592              	.L229:
 2593              	.LBB60:
 2594              		.loc 1 816 0
 2595 027c 104B     		ldr	r3, .L235+40
 2596 027e 3B60     		str	r3, [r7]	@ float
 2597              	.LVL395:
 2598              	.LBE60:
 2599              		.loc 1 837 0
 2600 0280 42F21070 		movw	r0, #10000
 2601 0284 FFF7FEFF 		bl	chThdSleep
 2602              	.LVL396:
 2603              		.loc 1 748 0
 2604 0288 0024     		movs	r4, #0
 2605 028a D5E7     		b	.L204
 2606              	.LVL397:
 2607              	.L234:
 2608              	.LBB61:
 2609              		.loc 1 861 0
 2610 028c FFF7FEFF 		bl	sqrtf
 2611              	.LVL398:
 2612 0290 C7E7     		b	.L213
 2613              	.LVL399:
 2614              	.L233:
 2615              		.loc 1 860 0
 2616 0292 FFF7FEFF 		bl	sqrtf
 2617              	.LVL400:
 2618 0296 B9E7     		b	.L212
 2619              	.L236:
 2620              		.align	2
 2621              	.L235:
 2622 0298 00000000 		.word	.LANCHOR1
ARM GAS  /tmp/ccTUBOn1.s 			page 47


 2623 029c 00000000 		.word	.LANCHOR2
 2624 02a0 6F12033A 		.word	973279855
 2625 02a4 00000000 		.word	0
 2626 02a8 00007A44 		.word	1148846080
 2627 02ac 3333333F 		.word	1060320051
 2628 02b0 CDCC8C3F 		.word	1066192077
 2629 02b4 00409C46 		.word	1184645120
 2630 02b8 5077D63D 		.word	1037465424
 2631 02bc 000040C0 		.word	-1069547520
 2632 02c0 000080BF 		.word	-1082130432
 2633              	.LBE61:
 2634              		.cfi_endproc
 2635              	.LFE270:
 2636              		.size	conf_general_measure_flux_linkage_openloop, .-conf_general_measure_flux_linkage_openloop
 2637              		.section	.text.conf_general_autodetect_apply_sensors_foc,"ax",%progbits
 2638              		.align	1
 2639              		.p2align 4,,15
 2640              		.global	conf_general_autodetect_apply_sensors_foc
 2641              		.syntax unified
 2642              		.thumb
 2643              		.thumb_func
 2644              		.fpu fpv4-sp-d16
 2645              		.type	conf_general_autodetect_apply_sensors_foc, %function
 2646              	conf_general_autodetect_apply_sensors_foc:
 2647              	.LFB271:
 2648              		.loc 1 892 0
 2649              		.cfi_startproc
 2650              		@ args = 0, pretend = 0, frame = 24
 2651              		@ frame_needed = 0, uses_anonymous_args = 0
 2652              	.LVL401:
 2653 0000 2DE9F043 		push	{r4, r5, r6, r7, r8, r9, lr}
 2654              		.cfi_def_cfa_offset 28
 2655              		.cfi_offset 4, -28
 2656              		.cfi_offset 5, -24
 2657              		.cfi_offset 6, -20
 2658              		.cfi_offset 7, -16
 2659              		.cfi_offset 8, -12
 2660              		.cfi_offset 9, -8
 2661              		.cfi_offset 14, -4
 2662 0004 2DED068B 		vpush.64	{d8, d9, d10}
 2663              		.cfi_def_cfa_offset 52
 2664              		.cfi_offset 80, -52
 2665              		.cfi_offset 81, -48
 2666              		.cfi_offset 82, -44
 2667              		.cfi_offset 83, -40
 2668              		.cfi_offset 84, -36
 2669              		.cfi_offset 85, -32
 2670 0008 87B0     		sub	sp, sp, #28
 2671              		.cfi_def_cfa_offset 80
 2672              		.loc 1 892 0
 2673 000a B0EE408A 		vmov.f32	s16, s0
 2674 000e 0E46     		mov	r6, r1
 2675 0010 0546     		mov	r5, r0
 2676              		.loc 1 895 0
 2677 0012 FFF7FEFF 		bl	mc_interface_get_configuration
 2678              	.LVL402:
 2679 0016 DFF82882 		ldr	r8, .L269+12
ARM GAS  /tmp/ccTUBOn1.s 			page 48


 2680 001a 0146     		mov	r1, r0
 2681 001c 4FF4E472 		mov	r2, #456
 2682 0020 4046     		mov	r0, r8
 2683 0022 FFF7FEFF 		bl	memcpy
 2684              	.LVL403:
 2685              		.loc 1 896 0
 2686 0026 4146     		mov	r1, r8
 2687 0028 4FF4E472 		mov	r2, #456
 2688 002c 8148     		ldr	r0, .L269
 2689 002e FFF7FEFF 		bl	memcpy
 2690              	.LVL404:
 2691              		.loc 1 898 0
 2692 0032 0220     		movs	r0, #2
 2693              		.loc 1 900 0
 2694 0034 804A     		ldr	r2, .L269+4
 2695              		.loc 1 898 0
 2696 0036 88F80200 		strb	r0, [r8, #2]
 2697              		.loc 1 899 0
 2698 003a 0021     		movs	r1, #0
 2699              		.loc 1 901 0
 2700 003c 4FF07E53 		mov	r3, #1065353216
 2701              		.loc 1 902 0
 2702 0040 4046     		mov	r0, r8
 2703              		.loc 1 899 0
 2704 0042 88F81411 		strb	r1, [r8, #276]
 2705              		.loc 1 900 0
 2706 0046 C8F8AC20 		str	r2, [r8, #172]	@ float
 2707              		.loc 1 901 0
 2708 004a C8F8B030 		str	r3, [r8, #176]	@ float
 2709              		.loc 1 902 0
 2710 004e 4FF4FA74 		mov	r4, #500
 2711 0052 FFF7FEFF 		bl	mc_interface_set_configuration
 2712              	.LVL405:
 2713 0056 04E0     		b	.L239
 2714              	.LVL406:
 2715              	.L264:
 2716              	.LBB62:
 2717              		.loc 1 909 0 discriminator 2
 2718 0058 6420     		movs	r0, #100
 2719 005a FFF7FEFF 		bl	chThdSleep
 2720              	.LVL407:
 2721              		.loc 1 905 0 discriminator 2
 2722 005e 013C     		subs	r4, r4, #1
 2723              	.LVL408:
 2724 0060 03D0     		beq	.L238
 2725              	.LVL409:
 2726              	.L239:
 2727              		.loc 1 906 0
 2728 0062 FFF7FEFF 		bl	mc_interface_get_fault
 2729              	.LVL410:
 2730 0066 0028     		cmp	r0, #0
 2731 0068 F6D1     		bne	.L264
 2732              	.LVL411:
 2733              	.L238:
 2734              	.LBE62:
 2735              		.loc 1 912 0
 2736 006a FFF7FEFF 		bl	mc_interface_get_fault
ARM GAS  /tmp/ccTUBOn1.s 			page 49


 2737              	.LVL412:
 2738 006e 8146     		mov	r9, r0
 2739 0070 0028     		cmp	r0, #0
 2740 0072 40F0D980 		bne	.L265
 2741              		.loc 1 919 0
 2742 0076 42F21070 		movw	r0, #10000
 2743 007a FFF7FEFF 		bl	chThdSleep
 2744              	.LVL413:
 2745              		.loc 1 922 0
 2746 007e FFF7FEFF 		bl	timeout_get_timeout_msec
 2747              	.LVL414:
 2748 0082 0746     		mov	r7, r0
 2749              	.LVL415:
 2750              		.loc 1 923 0
 2751 0084 FFF7FEFF 		bl	timeout_get_brake_current
 2752              	.LVL416:
 2753 0088 B0EE40AA 		vmov.f32	s20, s0
 2754              	.LVL417:
 2755              		.loc 1 924 0
 2756 008c FFF7FEFF 		bl	timeout_reset
 2757              	.LVL418:
 2758              		.loc 1 925 0
 2759 0090 9FED6A0A 		vldr.32	s0, .L269+8
 2760 0094 4EF66020 		movw	r0, #60000
 2761 0098 FFF7FEFF 		bl	timeout_configure
 2762              	.LVL419:
 2763              		.loc 1 927 0
 2764 009c FFF7FEFF 		bl	mc_interface_lock
 2765              	.LVL420:
 2766              		.loc 1 931 0
 2767 00a0 6748     		ldr	r0, .L269+12
 2768              		.loc 1 930 0
 2769 00a2 88F89891 		strb	r9, [r8, #408]
 2770              		.loc 1 931 0
 2771 00a6 FFF7FEFF 		bl	mc_interface_set_configuration
 2772              	.LVL421:
 2773              		.loc 1 934 0
 2774 00aa B0EE480A 		vmov.f32	s0, s16
 2775 00ae 04A8     		add	r0, sp, #16
 2776 00b0 FFF7FEFF 		bl	mcpwm_foc_hall_detect
 2777              	.LVL422:
 2778 00b4 0446     		mov	r4, r0
 2779              	.LVL423:
 2780              		.loc 1 937 0
 2781 00b6 FFF7FEFF 		bl	timeout_reset
 2782              	.LVL424:
 2783              		.loc 1 938 0
 2784 00ba 9FED600A 		vldr.32	s0, .L269+8
 2785 00be 4EF66020 		movw	r0, #60000
 2786 00c2 FFF7FEFF 		bl	timeout_configure
 2787              	.LVL425:
 2788              		.loc 1 939 0
 2789 00c6 FFF7FEFF 		bl	mc_interface_lock
 2790              	.LVL426:
 2791              		.loc 1 941 0
 2792 00ca 002C     		cmp	r4, #0
 2793 00cc 71D1     		bne	.L266
ARM GAS  /tmp/ccTUBOn1.s 			page 50


 2794              	.LBB63:
 2795              		.loc 1 960 0
 2796 00ce 9FED5B9A 		vldr.32	s18, .L269+8
 2797              		.loc 1 954 0
 2798 00d2 5B48     		ldr	r0, .L269+12
 2799              	.LBB64:
 2800              		.loc 1 963 0
 2801 00d4 DFED5B8A 		vldr.32	s17, .L269+16
 2802 00d8 DFED5B9A 		vldr.32	s19, .L269+20
 2803              	.LBE64:
 2804              		.loc 1 953 0
 2805 00dc 0223     		movs	r3, #2
 2806 00de 88F89831 		strb	r3, [r8, #408]
 2807              		.loc 1 954 0
 2808 00e2 FFF7FEFF 		bl	mc_interface_set_configuration
 2809              	.LVL427:
 2810              		.loc 1 956 0
 2811 00e6 F0EE490A 		vmov.f32	s1, s18
 2812 00ea B0EE480A 		vmov.f32	s0, s16
 2813 00ee FFF7FEFF 		bl	mcpwm_foc_set_openloop_phase
 2814              	.LVL428:
 2815              		.loc 1 957 0
 2816 00f2 42F21070 		movw	r0, #10000
 2817 00f6 FFF7FEFF 		bl	chThdSleep
 2818              	.LVL429:
 2819              		.loc 1 959 0
 2820 00fa FFF7FEFF 		bl	encoder_read_deg
 2821              	.LVL430:
 2822              	.LBB65:
 2823              		.loc 1 963 0
 2824 00fe F0EE490A 		vmov.f32	s1, s18
 2825              	.LBE65:
 2826              		.loc 1 959 0
 2827 0102 F0EE40AA 		vmov.f32	s21, s0
 2828              	.LVL431:
 2829              	.L250:
 2830              	.LBB66:
 2831              		.loc 1 964 0
 2832 0106 B0EE480A 		vmov.f32	s0, s16
 2833 010a FFF7FEFF 		bl	mcpwm_foc_set_openloop_phase
 2834              	.LVL432:
 2835 010e 0134     		adds	r4, r4, #1
 2836              	.LVL433:
 2837              		.loc 1 965 0
 2838 0110 3220     		movs	r0, #50
 2839 0112 FFF7FEFF 		bl	chThdSleep
 2840              	.LVL434:
 2841              		.loc 1 967 0
 2842 0116 5B2C     		cmp	r4, #91
 2843 0118 7BD0     		beq	.L267
 2844              		.loc 1 963 0 discriminator 2
 2845 011a 07EE904A 		vmov	s15, r4	@ int
 2846 011e F8EEE70A 		vcvt.f32.s32	s1, s15
 2847 0122 F4EEE80A 		vcmpe.f32	s1, s17
 2848 0126 F1EE10FA 		vmrs	APSR_nzcv, FPSCR
 2849 012a ECD4     		bmi	.L250
 2850              	.LBE66:
ARM GAS  /tmp/ccTUBOn1.s 			page 51


 2851              		.loc 1 972 0
 2852 012c FFF7FEFF 		bl	encoder_read_deg
 2853              	.LVL435:
 2854 0130 F0EE408A 		vmov.f32	s17, s0
 2855              	.LVL436:
 2856              		.loc 1 973 0
 2857 0134 F0EE400A 		vmov.f32	s1, s0
 2858 0138 B0EE6A0A 		vmov.f32	s0, s21
 2859              	.LVL437:
 2860 013c FFF7FEFF 		bl	utils_angle_difference
 2861              	.LVL438:
 2862              		.loc 1 974 0
 2863 0140 F0EE680A 		vmov.f32	s1, s17
 2864              		.loc 1 973 0
 2865 0144 F0EEC08A 		vabs.f32	s17, s0
 2866              	.LVL439:
 2867              		.loc 1 974 0
 2868 0148 B0EE490A 		vmov.f32	s0, s18
 2869 014c FFF7FEFF 		bl	utils_angle_difference
 2870              	.LVL440:
 2871              		.loc 1 976 0
 2872 0150 F0EE007A 		vmov.f32	s15, #2.0e+0
 2873 0154 F4EEE78A 		vcmpe.f32	s17, s15
 2874 0158 F1EE10FA 		vmrs	APSR_nzcv, FPSCR
 2875 015c 54DD     		ble	.L247
 2876              		.loc 1 976 0 is_stmt 0 discriminator 1
 2877 015e F6EE007A 		vmov.f32	s15, #5.0e-1
 2878              		.loc 1 974 0 is_stmt 1 discriminator 1
 2879 0162 B0EEC00A 		vabs.f32	s0, s0
 2880              	.LVL441:
 2881              		.loc 1 976 0 discriminator 1
 2882 0166 A8EEE70A 		vfms.f32	s0, s17, s15
 2883              	.LVL442:
 2884 016a F5EE007A 		vmov.f32	s15, #2.5e-1
 2885 016e 68EEA78A 		vmul.f32	s17, s17, s15
 2886              	.LVL443:
 2887 0172 B4EEE80A 		vcmpe.f32	s0, s17
 2888 0176 F1EE10FA 		vmrs	APSR_nzcv, FPSCR
 2889 017a 45D5     		bpl	.L247
 2890              	.LBB67:
 2891              		.loc 1 979 0
 2892 017c 0DF10703 		add	r3, sp, #7
 2893 0180 03AA     		add	r2, sp, #12
 2894 0182 02A9     		add	r1, sp, #8
 2895 0184 0020     		movs	r0, #0
 2896 0186 B0EE480A 		vmov.f32	s0, s16
 2897 018a FFF7FEFF 		bl	mcpwm_foc_encoder_detect
 2898              	.LVL444:
 2899              		.loc 1 980 0
 2900 018e 294A     		ldr	r2, .L269
 2901              		.loc 1 982 0
 2902 0190 0298     		ldr	r0, [sp, #8]	@ float
 2903              		.loc 1 983 0
 2904 0192 0399     		ldr	r1, [sp, #12]	@ float
 2905              		.loc 1 984 0
 2906 0194 9DF80730 		ldrb	r3, [sp, #7]	@ zero_extendqisi2
 2907              		.loc 1 982 0
ARM GAS  /tmp/ccTUBOn1.s 			page 52


 2908 0198 C2F8BC00 		str	r0, [r2, #188]	@ float
 2909              		.loc 1 980 0
 2910 019c 0224     		movs	r4, #2
 2911              	.LVL445:
 2912              		.loc 1 981 0
 2913 019e 0120     		movs	r0, #1
 2914 01a0 82F81401 		strb	r0, [r2, #276]
 2915              		.loc 1 983 0
 2916 01a4 C2F8C410 		str	r1, [r2, #196]	@ float
 2917              		.loc 1 984 0
 2918 01a8 82F8C030 		strb	r3, [r2, #192]
 2919              	.LVL446:
 2920              		.loc 1 980 0
 2921 01ac 82F89841 		strb	r4, [r2, #408]
 2922 01b0 12E0     		b	.L244
 2923              	.LVL447:
 2924              	.L266:
 2925              	.LBE67:
 2926              	.LBE63:
 2927              		.loc 1 942 0
 2928 01b2 204A     		ldr	r2, .L269
 2929              		.loc 1 943 0
 2930 01b4 0223     		movs	r3, #2
 2931 01b6 82F81431 		strb	r3, [r2, #276]
 2932              	.LVL448:
 2933              		.loc 1 942 0
 2934 01ba 82F89891 		strb	r9, [r2, #408]
 2935 01be 0DF10F03 		add	r3, sp, #15
 2936 01c2 02F21512 		addw	r2, r2, #277
 2937 01c6 0DF11700 		add	r0, sp, #23
 2938              	.LVL449:
 2939              	.L243:
 2940              	.LBB69:
 2941              		.loc 1 945 0 discriminator 3
 2942 01ca 13F8011F 		ldrb	r1, [r3, #1]!	@ zero_extendqisi2
 2943              	.LVL450:
 2944 01ce 02F8011B 		strb	r1, [r2], #1
 2945              	.LVL451:
 2946              		.loc 1 944 0 discriminator 3
 2947 01d2 8342     		cmp	r3, r0
 2948 01d4 F9D1     		bne	.L243
 2949              	.LBE69:
 2950              		.loc 1 948 0
 2951 01d6 0124     		movs	r4, #1
 2952              	.LVL452:
 2953              	.L244:
 2954              		.loc 1 998 0
 2955 01d8 3846     		mov	r0, r7
 2956 01da B0EE4A0A 		vmov.f32	s0, s20
 2957 01de FFF7FEFF 		bl	timeout_configure
 2958              	.LVL453:
 2959              		.loc 1 999 0
 2960 01e2 FFF7FEFF 		bl	mc_interface_unlock
 2961              	.LVL454:
 2962              		.loc 1 1000 0
 2963 01e6 FFF7FEFF 		bl	mc_interface_release_motor
 2964              	.LVL455:
ARM GAS  /tmp/ccTUBOn1.s 			page 53


 2965              		.loc 1 1001 0
 2966 01ea 1248     		ldr	r0, .L269
 2967 01ec FFF7FEFF 		bl	mc_interface_set_configuration
 2968              	.LVL456:
 2969              		.loc 1 1005 0
 2970 01f0 B5B9     		cbnz	r5, .L268
 2971              	.L252:
 2972              		.loc 1 1009 0
 2973 01f2 1EB1     		cbz	r6, .L237
 2974              		.loc 1 1010 0
 2975 01f4 0F49     		ldr	r1, .L269
 2976 01f6 0E20     		movs	r0, #14
 2977 01f8 FFF7FEFF 		bl	commands_send_mcconf
 2978              	.LVL457:
 2979              	.L237:
 2980              		.loc 1 1015 0
 2981 01fc 2046     		mov	r0, r4
 2982 01fe 07B0     		add	sp, sp, #28
 2983              		.cfi_remember_state
 2984              		.cfi_def_cfa_offset 52
 2985              		@ sp needed
 2986 0200 BDEC068B 		vldm	sp!, {d8-d10}
 2987              		.cfi_restore 84
 2988              		.cfi_restore 85
 2989              		.cfi_restore 82
 2990              		.cfi_restore 83
 2991              		.cfi_restore 80
 2992              		.cfi_restore 81
 2993              		.cfi_def_cfa_offset 28
 2994              	.LVL458:
 2995 0204 BDE8F083 		pop	{r4, r5, r6, r7, r8, r9, pc}
 2996              	.LVL459:
 2997              	.L247:
 2998              		.cfi_restore_state
 2999              		.loc 1 993 0
 3000 0208 0A4A     		ldr	r2, .L269
 3001 020a 0024     		movs	r4, #0
 3002              	.LVL460:
 3003 020c 82F81441 		strb	r4, [r2, #276]
 3004              	.LVL461:
 3005 0210 E2E7     		b	.L244
 3006              	.LVL462:
 3007              	.L267:
 3008              	.LBB70:
 3009              	.LBB68:
 3010              		.loc 1 968 0
 3011 0212 FFF7FEFF 		bl	encoder_read_deg
 3012              	.LVL463:
 3013              		.loc 1 963 0
 3014 0216 F0EE690A 		vmov.f32	s1, s19
 3015              		.loc 1 968 0
 3016 021a B0EE409A 		vmov.f32	s18, s0
 3017              	.LVL464:
 3018 021e 72E7     		b	.L250
 3019              	.LVL465:
 3020              	.L268:
 3021              	.LBE68:
ARM GAS  /tmp/ccTUBOn1.s 			page 54


 3022              	.LBE70:
 3023              		.loc 1 1006 0
 3024 0220 0448     		ldr	r0, .L269
 3025 0222 FFF7FEFF 		bl	conf_general_store_mc_configuration
 3026              	.LVL466:
 3027 0226 E4E7     		b	.L252
 3028              	.LVL467:
 3029              	.L265:
 3030              		.loc 1 913 0
 3031 0228 0248     		ldr	r0, .L269
 3032 022a FFF7FEFF 		bl	mc_interface_set_configuration
 3033              	.LVL468:
 3034              		.loc 1 914 0
 3035 022e 4FF0FF34 		mov	r4, #-1
 3036 0232 E3E7     		b	.L237
 3037              	.L270:
 3038              		.align	2
 3039              	.L269:
 3040 0234 00000000 		.word	.LANCHOR2
 3041 0238 6F12033A 		.word	973279855
 3042 023c 00000000 		.word	0
 3043 0240 00000000 		.word	.LANCHOR1
 3044 0244 00003443 		.word	1127481344
 3045 0248 0000B642 		.word	1119223808
 3046              		.cfi_endproc
 3047              	.LFE271:
 3048              		.size	conf_general_autodetect_apply_sensors_foc, .-conf_general_autodetect_apply_sensors_foc
 3049              		.section	.text.conf_general_detect_apply_all_foc,"ax",%progbits
 3050              		.align	1
 3051              		.p2align 4,,15
 3052              		.global	conf_general_detect_apply_all_foc
 3053              		.syntax unified
 3054              		.thumb
 3055              		.thumb_func
 3056              		.fpu fpv4-sp-d16
 3057              		.type	conf_general_detect_apply_all_foc, %function
 3058              	conf_general_detect_apply_all_foc:
 3059              	.LFB272:
 3060              		.loc 1 1035 0
 3061              		.cfi_startproc
 3062              		@ args = 0, pretend = 0, frame = 16
 3063              		@ frame_needed = 0, uses_anonymous_args = 0
 3064              	.LVL469:
 3065 0000 2DE9F04F 		push	{r4, r5, r6, r7, r8, r9, r10, fp, lr}
 3066              		.cfi_def_cfa_offset 36
 3067              		.cfi_offset 4, -36
 3068              		.cfi_offset 5, -32
 3069              		.cfi_offset 6, -28
 3070              		.cfi_offset 7, -24
 3071              		.cfi_offset 8, -20
 3072              		.cfi_offset 9, -16
 3073              		.cfi_offset 10, -12
 3074              		.cfi_offset 11, -8
 3075              		.cfi_offset 14, -4
 3076 0004 2DED068B 		vpush.64	{d8, d9, d10}
 3077              		.cfi_def_cfa_offset 60
 3078              		.cfi_offset 80, -60
ARM GAS  /tmp/ccTUBOn1.s 			page 55


 3079              		.cfi_offset 81, -56
 3080              		.cfi_offset 82, -52
 3081              		.cfi_offset 83, -48
 3082              		.cfi_offset 84, -44
 3083              		.cfi_offset 85, -40
 3084 0008 85B0     		sub	sp, sp, #20
 3085              		.cfi_def_cfa_offset 80
 3086              		.loc 1 1035 0
 3087 000a B0EE409A 		vmov.f32	s18, s0
 3088 000e 0F46     		mov	r7, r1
 3089 0010 0646     		mov	r6, r0
 3090              		.loc 1 1038 0
 3091 0012 FFF7FEFF 		bl	mc_interface_get_configuration
 3092              	.LVL470:
 3093 0016 C24D     		ldr	r5, .L300
 3094 0018 0146     		mov	r1, r0
 3095 001a 4FF4E472 		mov	r2, #456
 3096 001e 2846     		mov	r0, r5
 3097 0020 FFF7FEFF 		bl	memcpy
 3098              	.LVL471:
 3099              		.loc 1 1039 0
 3100 0024 2946     		mov	r1, r5
 3101 0026 4FF4E472 		mov	r2, #456
 3102 002a BE48     		ldr	r0, .L300+4
 3103 002c FFF7FEFF 		bl	memcpy
 3104              	.LVL472:
 3105              		.loc 1 1043 0
 3106 0030 BD48     		ldr	r0, .L300+8
 3107 0032 C5F8B400 		str	r0, [r5, #180]	@ float
 3108              		.loc 1 1041 0
 3109 0036 0220     		movs	r0, #2
 3110              		.loc 1 1044 0
 3111 0038 BC4B     		ldr	r3, .L300+12
 3112              		.loc 1 1041 0
 3113 003a A870     		strb	r0, [r5, #2]
 3114              		.loc 1 1042 0
 3115 003c 0020     		movs	r0, #0
 3116              		.loc 1 1046 0
 3117 003e BC49     		ldr	r1, .L300+16
 3118              		.loc 1 1047 0
 3119 0040 BC4A     		ldr	r2, .L300+20
 3120              		.loc 1 1042 0
 3121 0042 85F81401 		strb	r0, [r5, #276]
 3122              		.loc 1 1044 0
 3123 0046 C5F8AC30 		str	r3, [r5, #172]	@ float
 3124              		.loc 1 1050 0
 3125 004a BB48     		ldr	r0, .L300+24
 3126              		.loc 1 1051 0
 3127 004c BB4B     		ldr	r3, .L300+28
 3128              		.loc 1 1046 0
 3129 004e 6960     		str	r1, [r5, #4]	@ float
 3130              		.loc 1 1047 0
 3131 0050 AA60     		str	r2, [r5, #8]	@ float
 3132              		.loc 1 1052 0
 3133 0052 BB49     		ldr	r1, .L300+32
 3134              		.loc 1 1053 0
 3135 0054 BB4A     		ldr	r2, .L300+36
ARM GAS  /tmp/ccTUBOn1.s 			page 56


 3136              		.loc 1 1050 0
 3137 0056 E865     		str	r0, [r5, #92]	@ float
 3138              		.loc 1 1051 0
 3139 0058 2B66     		str	r3, [r5, #96]	@ float
 3140              		.loc 1 1054 0
 3141 005a 2846     		mov	r0, r5
 3142              		.loc 1 1045 0
 3143 005c 4FF07E53 		mov	r3, #1065353216
 3144              		.loc 1 1052 0
 3145 0060 E961     		str	r1, [r5, #28]	@ float
 3146              		.loc 1 1053 0
 3147 0062 AA61     		str	r2, [r5, #24]	@ float
 3148              		.loc 1 1045 0
 3149 0064 C5F8B030 		str	r3, [r5, #176]	@ float
 3150              		.loc 1 1048 0
 3151 0068 6B66     		str	r3, [r5, #100]	@ float
 3152              		.loc 1 1049 0
 3153 006a AB66     		str	r3, [r5, #104]	@ float
 3154              		.loc 1 1054 0
 3155 006c 4FF4FA74 		mov	r4, #500
 3156 0070 FFF7FEFF 		bl	mc_interface_set_configuration
 3157              	.LVL473:
 3158 0074 04E0     		b	.L273
 3159              	.LVL474:
 3160              	.L296:
 3161              	.LBB71:
 3162              		.loc 1 1061 0 discriminator 2
 3163 0076 6420     		movs	r0, #100
 3164 0078 FFF7FEFF 		bl	chThdSleep
 3165              	.LVL475:
 3166              		.loc 1 1057 0 discriminator 2
 3167 007c 013C     		subs	r4, r4, #1
 3168              	.LVL476:
 3169 007e 03D0     		beq	.L272
 3170              	.LVL477:
 3171              	.L273:
 3172              		.loc 1 1058 0
 3173 0080 FFF7FEFF 		bl	mc_interface_get_fault
 3174              	.LVL478:
 3175 0084 0028     		cmp	r0, #0
 3176 0086 F6D1     		bne	.L296
 3177              	.LVL479:
 3178              	.L272:
 3179              	.LBE71:
 3180              		.loc 1 1064 0
 3181 0088 FFF7FEFF 		bl	mc_interface_get_fault
 3182              	.LVL480:
 3183 008c 0028     		cmp	r0, #0
 3184 008e 40F03E81 		bne	.L297
 3185              		.loc 1 1071 0
 3186 0092 42F21070 		movw	r0, #10000
 3187 0096 FFF7FEFF 		bl	chThdSleep
 3188              	.LVL481:
 3189              		.loc 1 1074 0
 3190 009a FFF7FEFF 		bl	timeout_get_timeout_msec
 3191              	.LVL482:
 3192 009e 8046     		mov	r8, r0
ARM GAS  /tmp/ccTUBOn1.s 			page 57


 3193              	.LVL483:
 3194              		.loc 1 1075 0
 3195 00a0 FFF7FEFF 		bl	timeout_get_brake_current
 3196              	.LVL484:
 3197 00a4 F0EE40AA 		vmov.f32	s21, s0
 3198              	.LVL485:
 3199              		.loc 1 1076 0
 3200 00a8 FFF7FEFF 		bl	timeout_reset
 3201              	.LVL486:
 3202              		.loc 1 1077 0
 3203 00ac 9FEDA60A 		vldr.32	s0, .L300+40
 3204 00b0 4EF66020 		movw	r0, #60000
 3205 00b4 FFF7FEFF 		bl	timeout_configure
 3206              	.LVL487:
 3207              		.loc 1 1079 0
 3208 00b8 FFF7FEFF 		bl	mc_interface_lock
 3209              	.LVL488:
 3210              		.loc 1 1081 0
 3211 00bc 95ED016A 		vldr.32	s12, [r5, #4]
 3212 00c0 DFEDA26A 		vldr.32	s13, .L300+44
 3213              		.loc 1 1082 0
 3214 00c4 95ED5F0A 		vldr.32	s0, [r5, #380]
 3215 00c8 9FEDA17A 		vldr.32	s14, .L300+48
 3216              		.loc 1 1081 0
 3217 00cc C6EE267A 		vdiv.f32	s15, s12, s13
 3218 00d0 04A8     		add	r0, sp, #16
 3219              		.loc 1 1082 0
 3220 00d2 20EE070A 		vmul.f32	s0, s0, s14
 3221              		.loc 1 1081 0
 3222 00d6 17EE903A 		vmov	r3, s15
 3223 00da 40F80C3D 		str	r3, [r0, #-12]!	@ float
 3224              		.loc 1 1082 0
 3225 00de FFF7FEFF 		bl	utils_truncate_number_abs
 3226              	.LVL489:
 3227              	.LBB72:
 3228              		.loc 1 1085 0
 3229 00e2 9DED018A 		vldr.32	s16, [sp, #4]
 3230              	.LVL490:
 3231 00e6 D5ED017A 		vldr.32	s15, [r5, #4]
 3232 00ea B4EEE78A 		vcmpe.f32	s16, s15
 3233 00ee F1EE10FA 		vmrs	APSR_nzcv, FPSCR
 3234 00f2 38D5     		bpl	.L294
 3235              	.LBB73:
 3236              		.loc 1 1097 0
 3237 00f4 F0EE089A 		vmov.f32	s19, #3.0e+0
 3238              	.LBE73:
 3239              		.loc 1 1085 0
 3240 00f8 B7EE08AA 		vmov.f32	s20, #1.5e+0
 3241 00fc 15E0     		b	.L279
 3242              	.LVL491:
 3243              	.L278:
 3244              	.LBB74:
 3245              		.loc 1 1097 0
 3246 00fe C9EE297A 		vdiv.f32	s15, s18, s19
 3247 0102 28EE087A 		vmul.f32	s14, s16, s16
 3248 0106 27EE280A 		vmul.f32	s0, s14, s17
 3249 010a B4EEE70A 		vcmpe.f32	s0, s15
ARM GAS  /tmp/ccTUBOn1.s 			page 58


 3250 010e F1EE10FA 		vmrs	APSR_nzcv, FPSCR
 3251 0112 2ADA     		bge	.L276
 3252              	.LBE74:
 3253              		.loc 1 1085 0 discriminator 2
 3254 0114 68EE0A7A 		vmul.f32	s15, s16, s20
 3255              	.LVL492:
 3256 0118 95ED017A 		vldr.32	s14, [r5, #4]
 3257 011c B4EEE77A 		vcmpe.f32	s14, s15
 3258 0120 F1EE10FA 		vmrs	APSR_nzcv, FPSCR
 3259 0124 21DD     		ble	.L276
 3260              		.loc 1 1085 0 is_stmt 0
 3261 0126 B0EE678A 		vmov.f32	s16, s15
 3262              	.LVL493:
 3263              	.L279:
 3264              	.LBB75:
 3265              		.loc 1 1086 0 is_stmt 1
 3266 012a 0520     		movs	r0, #5
 3267 012c B0EE480A 		vmov.f32	s0, s16
 3268 0130 FFF7FEFF 		bl	mcpwm_foc_measure_resistance
 3269              	.LVL494:
 3270 0134 F0EE408A 		vmov.f32	s17, s0
 3271              	.LVL495:
 3272              		.loc 1 1089 0
 3273 0138 FFF7FEFF 		bl	mc_interface_get_fault
 3274              	.LVL496:
 3275 013c 0028     		cmp	r0, #0
 3276 013e DED0     		beq	.L278
 3277              		.loc 1 1090 0
 3278 0140 B0EE6A0A 		vmov.f32	s0, s21
 3279 0144 4046     		mov	r0, r8
 3280 0146 FFF7FEFF 		bl	timeout_configure
 3281              	.LVL497:
 3282              		.loc 1 1091 0
 3283 014a FFF7FEFF 		bl	mc_interface_unlock
 3284              	.LVL498:
 3285              		.loc 1 1092 0
 3286 014e FFF7FEFF 		bl	mc_interface_release_motor
 3287              	.LVL499:
 3288              		.loc 1 1093 0
 3289 0152 7448     		ldr	r0, .L300+4
 3290 0154 FFF7FEFF 		bl	mc_interface_set_configuration
 3291              	.LVL500:
 3292              		.loc 1 1094 0
 3293 0158 6FF00A00 		mvn	r0, #10
 3294              	.LBE75:
 3295              	.LBE72:
 3296              		.loc 1 1188 0
 3297 015c 05B0     		add	sp, sp, #20
 3298              		.cfi_remember_state
 3299              		.cfi_def_cfa_offset 60
 3300              		@ sp needed
 3301 015e BDEC068B 		vldm	sp!, {d8-d10}
 3302              		.cfi_restore 84
 3303              		.cfi_restore 85
 3304              		.cfi_restore 82
 3305              		.cfi_restore 83
 3306              		.cfi_restore 80
ARM GAS  /tmp/ccTUBOn1.s 			page 59


 3307              		.cfi_restore 81
 3308              		.cfi_def_cfa_offset 36
 3309              	.LVL501:
 3310 0162 BDE8F08F 		pop	{r4, r5, r6, r7, r8, r9, r10, fp, pc}
 3311              	.LVL502:
 3312              	.L294:
 3313              		.cfi_restore_state
 3314              		.loc 1 1084 0
 3315 0166 9FED788A 		vldr.32	s16, .L300+40
 3316              	.LVL503:
 3317              	.L276:
 3318              		.loc 1 1102 0
 3319 016a 6420     		movs	r0, #100
 3320 016c B0EE480A 		vmov.f32	s0, s16
 3321 0170 FFF7FEFF 		bl	mcpwm_foc_measure_resistance
 3322              	.LVL504:
 3323              		.loc 1 1103 0
 3324 0174 0021     		movs	r1, #0
 3325              		.loc 1 1102 0
 3326 0176 F0EE408A 		vmov.f32	s17, s0
 3327              	.LVL505:
 3328              		.loc 1 1103 0
 3329 017a 6420     		movs	r0, #100
 3330 017c B0EE480A 		vmov.f32	s0, s16
 3331              	.LVL506:
 3332 0180 FFF7FEFF 		bl	mcpwm_foc_measure_inductance_current
 3333              	.LVL507:
 3334 0184 F0EE409A 		vmov.f32	s19, s0
 3335              	.LVL508:
 3336              		.loc 1 1104 0
 3337 0188 89EE280A 		vdiv.f32	s0, s18, s17
 3338              	.LVL509:
 3339 018c B5EE400A 		vcmp.f32	s0, #0
 3340 0190 F1EE10FA 		vmrs	APSR_nzcv, FPSCR
 3341 0194 B1EEC08A 		vsqrt.f32	s16, s0
 3342              	.LVL510:
 3343 0198 00F1BF80 		bmi	.L298
 3344              	.L280:
 3345 019c 04A8     		add	r0, sp, #16
 3346 019e 18EE103A 		vmov	r3, s16
 3347              		.loc 1 1105 0
 3348 01a2 DFED6C0A 		vldr.32	s1, .L300+52
 3349 01a6 9FED6C0A 		vldr.32	s0, .L300+56
 3350              		.loc 1 1104 0
 3351 01aa 40F8083D 		str	r3, [r0, #-8]!	@ float
 3352              		.loc 1 1105 0
 3353 01ae FFF7FEFF 		bl	utils_truncate_number
 3354              	.LVL511:
 3355              		.loc 1 1110 0
 3356 01b2 6A4B     		ldr	r3, .L300+60
 3357              		.loc 1 1111 0
 3358 01b4 5A48     		ldr	r0, .L300
 3359              		.loc 1 1110 0
 3360 01b6 C5F8B430 		str	r3, [r5, #180]	@ float
 3361              		.loc 1 1111 0
 3362 01ba FFF7FEFF 		bl	mc_interface_set_configuration
 3363              	.LVL512:
ARM GAS  /tmp/ccTUBOn1.s 			page 60


 3364              		.loc 1 1114 0
 3365 01be 9DED020A 		vldr.32	s0, [sp, #8]
 3366 01c2 9FED671A 		vldr.32	s2, .L300+64
 3367 01c6 DFED670A 		vldr.32	s1, .L300+68
 3368              		.loc 1 1113 0
 3369 01ca 04A8     		add	r0, sp, #16
 3370 01cc 0023     		movs	r3, #0
 3371              		.loc 1 1114 0
 3372 01ce F0EE047A 		vmov.f32	s15, #2.5e+0
 3373              		.loc 1 1113 0
 3374 01d2 40F8043D 		str	r3, [r0, #-4]!	@ float
 3375              		.loc 1 1114 0
 3376 01d6 80EE270A 		vdiv.f32	s0, s0, s15
 3377 01da F0EE681A 		vmov.f32	s3, s17
 3378 01de FFF7FEFF 		bl	conf_general_measure_flux_linkage_openloop
 3379              	.LVL513:
 3380              		.loc 1 1125 0
 3381 01e2 0028     		cmp	r0, #0
 3382 01e4 5CD0     		beq	.L281
 3383              	.LBB76:
 3384              		.loc 1 1133 0
 3385 01e6 DDED037A 		vldr.32	s15, [sp, #12]
 3386 01ea DFED5F4A 		vldr.32	s9, .L300+72
 3387              	.LBE76:
 3388              		.loc 1 1103 0
 3389 01ee 9FED5F7A 		vldr.32	s14, .L300+76
 3390              	.LBB77:
 3391              		.loc 1 1126 0
 3392 01f2 4C4D     		ldr	r5, .L300+4
 3393              		.loc 1 1140 0
 3394 01f4 9FED5E5A 		vldr.32	s10, .L300+80
 3395              		.loc 1 1131 0
 3396 01f8 9FED5E6A 		vldr.32	s12, .L300+84
 3397              		.loc 1 1126 0
 3398 01fc DDED026A 		vldr.32	s13, [sp, #8]
 3399              		.loc 1 1135 0
 3400 0200 C5ED388A 		vstr.32	s17, [r5, #224]
 3401              	.LVL514:
 3402              		.loc 1 1133 0
 3403 0204 67EEA75A 		vmul.f32	s11, s15, s15
 3404              	.LBE77:
 3405              		.loc 1 1103 0
 3406 0208 69EE879A 		vmul.f32	s19, s19, s14
 3407              	.LVL515:
 3408              	.LBB78:
 3409              		.loc 1 1133 0
 3410 020c 84EEA57A 		vdiv.f32	s14, s9, s11
 3411              	.LBE78:
 3412              		.loc 1 1155 0
 3413 0210 4046     		mov	r0, r8
 3414              	.LVL516:
 3415              		.loc 1 1163 0
 3416 0212 4FF47A74 		mov	r4, #1000
 3417              	.LBB79:
 3418              		.loc 1 1131 0
 3419 0216 69EE865A 		vmul.f32	s11, s19, s12
 3420              		.loc 1 1140 0
ARM GAS  /tmp/ccTUBOn1.s 			page 61


 3421 021a 27EE057A 		vmul.f32	s14, s14, s10
 3422              		.loc 1 1132 0
 3423 021e 68EE868A 		vmul.f32	s17, s17, s12
 3424              	.LVL517:
 3425              	.LBE79:
 3426              		.loc 1 1155 0
 3427 0222 B0EE6A0A 		vmov.f32	s0, s21
 3428              	.LBB80:
 3429              		.loc 1 1127 0
 3430 0226 B1EE666A 		vneg.f32	s12, s13
 3431              		.loc 1 1140 0
 3432 022a 85ED3A7A 		vstr.32	s14, [r5, #232]
 3433              	.LVL518:
 3434              		.loc 1 1137 0
 3435 022e C5ED397A 		vstr.32	s15, [r5, #228]
 3436              	.LVL519:
 3437              		.loc 1 1126 0
 3438 0232 C5ED016A 		vstr.32	s13, [r5, #4]
 3439              		.loc 1 1127 0
 3440 0236 85ED026A 		vstr.32	s12, [r5, #8]
 3441              	.LVL520:
 3442              		.loc 1 1138 0
 3443 023a C5ED2B5A 		vstr.32	s11, [r5, #172]
 3444              	.LVL521:
 3445              		.loc 1 1136 0
 3446 023e C5ED379A 		vstr.32	s19, [r5, #220]
 3447              	.LVL522:
 3448              		.loc 1 1139 0
 3449 0242 C5ED2C8A 		vstr.32	s17, [r5, #176]
 3450              	.LVL523:
 3451              	.LBE80:
 3452              		.loc 1 1155 0
 3453 0246 FFF7FEFF 		bl	timeout_configure
 3454              	.LVL524:
 3455              		.loc 1 1156 0
 3456 024a FFF7FEFF 		bl	mc_interface_unlock
 3457              	.LVL525:
 3458              		.loc 1 1157 0
 3459 024e FFF7FEFF 		bl	mc_interface_release_motor
 3460              	.LVL526:
 3461              		.loc 1 1158 0
 3462 0252 2846     		mov	r0, r5
 3463 0254 FFF7FEFF 		bl	mc_interface_set_configuration
 3464              	.LVL527:
 3465              		.loc 1 1163 0
 3466 0258 2046     		mov	r0, r4
 3467              	.LBB81:
 3468              		.loc 1 1165 0
 3469 025a 9FED478A 		vldr.32	s16, .L300+88
 3470              	.LBE81:
 3471              		.loc 1 1163 0
 3472 025e FFF7FEFF 		bl	chThdSleep
 3473              	.LVL528:
 3474 0262 03E0     		b	.L284
 3475              	.LVL529:
 3476              	.L299:
 3477              	.LBB82:
ARM GAS  /tmp/ccTUBOn1.s 			page 62


 3478              		.loc 1 1166 0 discriminator 2
 3479 0264 FFF7FEFF 		bl	chThdSleep
 3480              	.LVL530:
 3481              		.loc 1 1164 0 discriminator 2
 3482 0268 013C     		subs	r4, r4, #1
 3483              	.LVL531:
 3484 026a 0AD0     		beq	.L282
 3485              	.LVL532:
 3486              	.L284:
 3487              		.loc 1 1165 0
 3488 026c FFF7FEFF 		bl	mc_interface_get_rpm
 3489              	.LVL533:
 3490 0270 B0EEC00A 		vabs.f32	s0, s0
 3491 0274 B4EEC80A 		vcmpe.f32	s0, s16
 3492 0278 F1EE10FA 		vmrs	APSR_nzcv, FPSCR
 3493              		.loc 1 1166 0
 3494 027c 4FF06400 		mov	r0, #100
 3495              		.loc 1 1165 0
 3496 0280 F0DC     		bgt	.L299
 3497              	.LVL534:
 3498              	.L282:
 3499              	.LBE82:
 3500              		.loc 1 1173 0
 3501 0282 9DED020A 		vldr.32	s0, [sp, #8]
 3502 0286 F0EE087A 		vmov.f32	s15, #3.0e+0
 3503 028a 80EE270A 		vdiv.f32	s0, s0, s15
 3504 028e 3946     		mov	r1, r7
 3505 0290 3046     		mov	r0, r6
 3506 0292 FFF7FEFF 		bl	conf_general_autodetect_apply_sensors_foc
 3507              	.LVL535:
 3508              		.loc 1 1188 0
 3509 0296 05B0     		add	sp, sp, #20
 3510              		.cfi_remember_state
 3511              		.cfi_def_cfa_offset 60
 3512              		@ sp needed
 3513 0298 BDEC068B 		vldm	sp!, {d8-d10}
 3514              		.cfi_restore 84
 3515              		.cfi_restore 85
 3516              		.cfi_restore 82
 3517              		.cfi_restore 83
 3518              		.cfi_restore 80
 3519              		.cfi_restore 81
 3520              		.cfi_def_cfa_offset 36
 3521              	.LVL536:
 3522 029c BDE8F08F 		pop	{r4, r5, r6, r7, r8, r9, r10, fp, pc}
 3523              	.LVL537:
 3524              	.L281:
 3525              		.cfi_restore_state
 3526              		.loc 1 1116 0
 3527 02a0 204C     		ldr	r4, .L300+4
 3528              		.loc 1 1155 0
 3529 02a2 B0EE6A0A 		vmov.f32	s0, s21
 3530 02a6 4046     		mov	r0, r8
 3531              	.LVL538:
 3532              		.loc 1 1116 0
 3533 02a8 94ED388A 		vldr.32	s16, [r4, #224]
 3534              		.loc 1 1117 0
ARM GAS  /tmp/ccTUBOn1.s 			page 63


 3535 02ac D4F8DCB0 		ldr	fp, [r4, #220]	@ float
 3536              		.loc 1 1118 0
 3537 02b0 D4F8E4A0 		ldr	r10, [r4, #228]	@ float
 3538              		.loc 1 1119 0
 3539 02b4 D4F8AC90 		ldr	r9, [r4, #172]	@ float
 3540              		.loc 1 1120 0
 3541 02b8 D4F8B080 		ldr	r8, [r4, #176]	@ float
 3542              	.LVL539:
 3543              		.loc 1 1121 0
 3544 02bc D4F8E870 		ldr	r7, [r4, #232]	@ float
 3545              		.loc 1 1122 0
 3546 02c0 94F82C61 		ldrb	r6, [r4, #300]	@ zero_extendqisi2
 3547              		.loc 1 1123 0
 3548 02c4 D4F83051 		ldr	r5, [r4, #304]	@ float
 3549              	.LVL540:
 3550              		.loc 1 1155 0
 3551 02c8 FFF7FEFF 		bl	timeout_configure
 3552              	.LVL541:
 3553              		.loc 1 1156 0
 3554 02cc FFF7FEFF 		bl	mc_interface_unlock
 3555              	.LVL542:
 3556              		.loc 1 1157 0
 3557 02d0 FFF7FEFF 		bl	mc_interface_release_motor
 3558              	.LVL543:
 3559              		.loc 1 1158 0
 3560 02d4 2046     		mov	r0, r4
 3561 02d6 FFF7FEFF 		bl	mc_interface_set_configuration
 3562              	.LVL544:
 3563              		.loc 1 1184 0
 3564 02da 2046     		mov	r0, r4
 3565              		.loc 1 1176 0
 3566 02dc 84ED388A 		vstr.32	s16, [r4, #224]
 3567              		.loc 1 1177 0
 3568 02e0 C4F8DCB0 		str	fp, [r4, #220]	@ float
 3569              		.loc 1 1178 0
 3570 02e4 C4F8E4A0 		str	r10, [r4, #228]	@ float
 3571              		.loc 1 1179 0
 3572 02e8 C4F8AC90 		str	r9, [r4, #172]	@ float
 3573              		.loc 1 1180 0
 3574 02ec C4F8B080 		str	r8, [r4, #176]	@ float
 3575              		.loc 1 1181 0
 3576 02f0 C4F8E870 		str	r7, [r4, #232]	@ float
 3577              		.loc 1 1182 0
 3578 02f4 84F82C61 		strb	r6, [r4, #300]
 3579              		.loc 1 1183 0
 3580 02f8 C4F83051 		str	r5, [r4, #304]	@ float
 3581              		.loc 1 1184 0
 3582 02fc FFF7FEFF 		bl	mc_interface_set_configuration
 3583              	.LVL545:
 3584              		.loc 1 1152 0
 3585 0300 6FF00900 		mvn	r0, #9
 3586              	.LVL546:
 3587              	.L271:
 3588              		.loc 1 1188 0
 3589 0304 05B0     		add	sp, sp, #20
 3590              		.cfi_remember_state
 3591              		.cfi_def_cfa_offset 60
ARM GAS  /tmp/ccTUBOn1.s 			page 64


 3592              		@ sp needed
 3593 0306 BDEC068B 		vldm	sp!, {d8-d10}
 3594              		.cfi_restore 84
 3595              		.cfi_restore 85
 3596              		.cfi_restore 82
 3597              		.cfi_restore 83
 3598              		.cfi_restore 80
 3599              		.cfi_restore 81
 3600              		.cfi_def_cfa_offset 36
 3601              	.LVL547:
 3602 030a BDE8F08F 		pop	{r4, r5, r6, r7, r8, r9, r10, fp, pc}
 3603              	.LVL548:
 3604              	.L297:
 3605              		.cfi_restore_state
 3606              		.loc 1 1065 0
 3607 030e 0548     		ldr	r0, .L300+4
 3608 0310 FFF7FEFF 		bl	mc_interface_set_configuration
 3609              	.LVL549:
 3610              		.loc 1 1066 0
 3611 0314 4FF0FF30 		mov	r0, #-1
 3612 0318 F4E7     		b	.L271
 3613              	.LVL550:
 3614              	.L298:
 3615              		.loc 1 1104 0
 3616 031a FFF7FEFF 		bl	sqrtf
 3617              	.LVL551:
 3618 031e 3DE7     		b	.L280
 3619              	.L301:
 3620              		.align	2
 3621              	.L300:
 3622 0320 00000000 		.word	.LANCHOR1
 3623 0324 00000000 		.word	.LANCHOR2
 3624 0328 00401C46 		.word	1176256512
 3625 032c 6F12033A 		.word	973279855
 3626 0330 00007042 		.word	1114636288
 3627 0334 000070C2 		.word	-1032847360
 3628 0338 001BB749 		.word	1236736768
 3629 033c 001BB7C9 		.word	-910746880
 3630 0340 0050C347 		.word	1203982336
 3631 0344 0050C3C7 		.word	-943501312
 3632 0348 00000000 		.word	0
 3633 034c 00004842 		.word	1112014848
 3634 0350 CDCC8C3F 		.word	1066192077
 3635 0354 0000C843 		.word	1137180672
 3636 0358 0000C8C3 		.word	3284664320
 3637 035c 00409C46 		.word	1184645120
 3638 0360 0000E144 		.word	1155596288
 3639 0364 9A99993E 		.word	1050253722
 3640 0368 6F12833A 		.word	981668463
 3641 036c BD378635 		.word	897988541
 3642 0370 00247449 		.word	1232348160
 3643 0374 FFFF7944 		.word	1148846079
 3644 0378 0000C842 		.word	1120403456
 3645              		.cfi_endproc
 3646              	.LFE272:
 3647              		.size	conf_general_detect_apply_all_foc, .-conf_general_detect_apply_all_foc
 3648              		.section	.text.conf_general_detect_apply_all_foc_can,"ax",%progbits
ARM GAS  /tmp/ccTUBOn1.s 			page 65


 3649              		.align	1
 3650              		.p2align 4,,15
 3651              		.global	conf_general_detect_apply_all_foc_can
 3652              		.syntax unified
 3653              		.thumb
 3654              		.thumb_func
 3655              		.fpu fpv4-sp-d16
 3656              		.type	conf_general_detect_apply_all_foc_can, %function
 3657              	conf_general_detect_apply_all_foc_can:
 3658              	.LFB273:
 3659              		.loc 1 1219 0
 3660              		.cfi_startproc
 3661              		@ args = 0, pretend = 0, frame = 208
 3662              		@ frame_needed = 0, uses_anonymous_args = 0
 3663              	.LVL552:
 3664 0000 2DE9F041 		push	{r4, r5, r6, r7, r8, lr}
 3665              		.cfi_def_cfa_offset 24
 3666              		.cfi_offset 4, -24
 3667              		.cfi_offset 5, -20
 3668              		.cfi_offset 6, -16
 3669              		.cfi_offset 7, -12
 3670              		.cfi_offset 8, -8
 3671              		.cfi_offset 14, -4
 3672 0004 2DED068B 		vpush.64	{d8, d9, d10}
 3673              		.cfi_def_cfa_offset 48
 3674              		.cfi_offset 80, -48
 3675              		.cfi_offset 81, -44
 3676              		.cfi_offset 82, -40
 3677              		.cfi_offset 83, -36
 3678              		.cfi_offset 84, -32
 3679              		.cfi_offset 85, -28
 3680 0008 B4B0     		sub	sp, sp, #208
 3681              		.cfi_def_cfa_offset 256
 3682              		.loc 1 1219 0
 3683 000a B0EE60AA 		vmov.f32	s20, s1
 3684 000e F0EE419A 		vmov.f32	s19, s2
 3685 0012 B0EE619A 		vmov.f32	s18, s3
 3686 0016 F0EE428A 		vmov.f32	s17, s4
 3687 001a B0EE408A 		vmov.f32	s16, s0
 3688 001e 0446     		mov	r4, r0
 3689              		.loc 1 1220 0
 3690 0020 FFF7FEFF 		bl	app_get_configuration
 3691              	.LVL553:
 3692 0024 CC22     		movs	r2, #204
 3693 0026 0146     		mov	r1, r0
 3694 0028 01A8     		add	r0, sp, #4
 3695 002a FFF7FEFF 		bl	memcpy
 3696              	.LVL554:
 3697              		.loc 1 1221 0
 3698 002e 9DF80460 		ldrb	r6, [sp, #4]	@ zero_extendqisi2
 3699              	.LVL555:
 3700              		.loc 1 1223 0
 3701 0032 6D4F     		ldr	r7, .L348
 3702 0034 FFF7FEFF 		bl	mc_interface_get_configuration
 3703              	.LVL556:
 3704 0038 4FF4E472 		mov	r2, #456
 3705 003c 0146     		mov	r1, r0
ARM GAS  /tmp/ccTUBOn1.s 			page 66


 3706 003e 3846     		mov	r0, r7
 3707 0040 FFF7FEFF 		bl	memcpy
 3708              	.LVL557:
 3709              		.loc 1 1225 0
 3710 0044 DFED697A 		vldr.32	s15, .L348+4
 3711              		.loc 1 1249 0
 3712 0048 6748     		ldr	r0, .L348
 3713              		.loc 1 1225 0
 3714 004a B0EECA7A 		vabs.f32	s14, s20
 3715 004e B4EEE77A 		vcmpe.f32	s14, s15
 3716              		.loc 1 1231 0
 3717 0052 DFED667A 		vldr.32	s15, .L348+4
 3718              		.loc 1 1225 0
 3719 0056 F1EE10FA 		vmrs	APSR_nzcv, FPSCR
 3720              		.loc 1 1231 0
 3721 005a B0EEE97A 		vabs.f32	s14, s19
 3722              		.loc 1 1228 0
 3723 005e DCBF     		itt	le
 3724 0060 634B     		ldrle	r3, .L348+8
 3725 0062 3B61     		strle	r3, [r7, #16]	@ float
 3726              		.loc 1 1231 0
 3727 0064 B4EEE77A 		vcmpe.f32	s14, s15
 3728              		.loc 1 1237 0
 3729 0068 DFED607A 		vldr.32	s15, .L348+4
 3730              		.loc 1 1226 0
 3731 006c C8BF     		it	gt
 3732 006e 87ED04AA 		vstrgt.32	s20, [r7, #16]
 3733              		.loc 1 1237 0
 3734 0072 B0EEC97A 		vabs.f32	s14, s18
 3735              		.loc 1 1231 0
 3736 0076 F1EE10FA 		vmrs	APSR_nzcv, FPSCR
 3737              		.loc 1 1234 0
 3738 007a DCBF     		itt	le
 3739 007c 5D4B     		ldrle	r3, .L348+12
 3740 007e FB60     		strle	r3, [r7, #12]	@ float
 3741              		.loc 1 1237 0
 3742 0080 B4EEE77A 		vcmpe.f32	s14, s15
 3743              		.loc 1 1243 0
 3744 0084 DFED597A 		vldr.32	s15, .L348+4
 3745              		.loc 1 1232 0
 3746 0088 C8BF     		it	gt
 3747 008a C7ED039A 		vstrgt.32	s19, [r7, #12]
 3748              		.loc 1 1243 0
 3749 008e B0EEE87A 		vabs.f32	s14, s17
 3750              		.loc 1 1237 0
 3751 0092 F1EE10FA 		vmrs	APSR_nzcv, FPSCR
 3752              		.loc 1 1240 0
 3753 0096 DCBF     		itt	le
 3754 0098 574B     		ldrle	r3, .L348+16
 3755 009a C7F80031 		strle	r3, [r7, #256]	@ float
 3756              		.loc 1 1243 0
 3757 009e B4EEE77A 		vcmpe.f32	s14, s15
 3758              		.loc 1 1238 0
 3759 00a2 C8BF     		it	gt
 3760 00a4 87ED409A 		vstrgt.32	s18, [r7, #256]
 3761              		.loc 1 1243 0
 3762 00a8 F1EE10FA 		vmrs	APSR_nzcv, FPSCR
ARM GAS  /tmp/ccTUBOn1.s 			page 67


 3763              		.loc 1 1246 0
 3764 00ac D6BF     		itet	le
 3765 00ae 534B     		ldrle	r3, .L348+20
 3766              		.loc 1 1244 0
 3767 00b0 C7ED488A 		vstrgt.32	s17, [r7, #288]
 3768              		.loc 1 1246 0
 3769 00b4 C7F82031 		strle	r3, [r7, #288]	@ float
 3770              		.loc 1 1249 0
 3771 00b8 FFF7FEFF 		bl	mc_interface_set_configuration
 3772              	.LVL558:
 3773              		.loc 1 1251 0
 3774 00bc FFF7FEFF 		bl	comm_can_detect_all_foc_res_clear
 3775              	.LVL559:
 3776              		.loc 1 1253 0
 3777 00c0 002C     		cmp	r4, #0
 3778 00c2 00F08780 		beq	.L327
 3779              	.LBB83:
 3780              		.loc 1 1254 0
 3781 00c6 0024     		movs	r4, #0
 3782              	.LBE83:
 3783              		.loc 1 1250 0
 3784 00c8 A046     		mov	r8, r4
 3785 00ca 02E0     		b	.L318
 3786              	.LVL560:
 3787              	.L316:
 3788              	.LBB84:
 3789              		.loc 1 1254 0 discriminator 2
 3790 00cc 0134     		adds	r4, r4, #1
 3791              	.LVL561:
 3792 00ce FF2C     		cmp	r4, #255
 3793 00d0 27D0     		beq	.L315
 3794              	.LVL562:
 3795              	.L318:
 3796              		.loc 1 1255 0
 3797 00d2 E5B2     		uxtb	r5, r4
 3798 00d4 2846     		mov	r0, r5
 3799 00d6 FFF7FEFF 		bl	comm_can_ping
 3800              	.LVL563:
 3801 00da 0028     		cmp	r0, #0
 3802 00dc F6D0     		beq	.L316
 3803              		.loc 1 1256 0
 3804 00de D7ED030A 		vldr.32	s1, [r7, #12]
 3805 00e2 97ED040A 		vldr.32	s0, [r7, #16]
 3806 00e6 0021     		movs	r1, #0
 3807 00e8 2846     		mov	r0, r5
 3808 00ea FFF7FEFF 		bl	comm_can_conf_current_limits_in
 3809              	.LVL564:
 3810              		.loc 1 1257 0
 3811 00ee D7ED480A 		vldr.32	s1, [r7, #288]
 3812 00f2 97ED400A 		vldr.32	s0, [r7, #256]
 3813 00f6 0021     		movs	r1, #0
 3814 00f8 2846     		mov	r0, r5
 3815 00fa FFF7FEFF 		bl	comm_can_conf_foc_erpms
 3816              	.LVL565:
 3817              		.loc 1 1258 0
 3818 00fe 0121     		movs	r1, #1
 3819 0100 B0EE480A 		vmov.f32	s0, s16
ARM GAS  /tmp/ccTUBOn1.s 			page 68


 3820 0104 2846     		mov	r0, r5
 3821              		.loc 1 1259 0
 3822 0106 8844     		add	r8, r8, r1
 3823              	.LVL566:
 3824              		.loc 1 1258 0
 3825 0108 FFF7FEFF 		bl	comm_can_detect_apply_all_foc
 3826              	.LVL567:
 3827              		.loc 1 1261 0
 3828 010c A642     		cmp	r6, r4
 3829              		.loc 1 1262 0
 3830 010e 04BF     		itt	eq
 3831 0110 0136     		addeq	r6, r6, #1
 3832              	.LVL568:
 3833 0112 F6B2     		uxtbeq	r6, r6
 3834              	.LVL569:
 3835              		.loc 1 1266 0
 3836 0114 FF2E     		cmp	r6, #255
 3837              		.loc 1 1254 0
 3838 0116 04F10104 		add	r4, r4, #1
 3839              	.LVL570:
 3840              		.loc 1 1266 0
 3841 011a 08BF     		it	eq
 3842 011c 0026     		moveq	r6, #0
 3843              	.LVL571:
 3844              		.loc 1 1254 0
 3845 011e FF2C     		cmp	r4, #255
 3846 0120 D7D1     		bne	.L318
 3847              	.LVL572:
 3848              	.L315:
 3849              	.LBE84:
 3850              		.loc 1 1272 0
 3851 0122 0021     		movs	r1, #0
 3852 0124 B0EE480A 		vmov.f32	s0, s16
 3853 0128 0846     		mov	r0, r1
 3854 012a FFF7FEFF 		bl	conf_general_detect_apply_all_foc
 3855              	.LVL573:
 3856 012e 4FF47A64 		mov	r4, #4000
 3857 0132 0546     		mov	r5, r0
 3858              	.LVL574:
 3859 0134 03E0     		b	.L322
 3860              	.LVL575:
 3861              	.L319:
 3862              	.LBB85:
 3863              		.loc 1 1281 0 discriminator 2
 3864 0136 FFF7FEFF 		bl	chThdSleep
 3865              	.LVL576:
 3866              		.loc 1 1276 0 discriminator 2
 3867 013a 013C     		subs	r4, r4, #1
 3868              	.LVL577:
 3869 013c 4CD0     		beq	.L347
 3870              	.LVL578:
 3871              	.L322:
 3872              		.loc 1 1277 0
 3873 013e FFF7FEFF 		bl	comm_can_detect_all_foc_res_size
 3874              	.LVL579:
 3875 0142 4045     		cmp	r0, r8
 3876              		.loc 1 1281 0
ARM GAS  /tmp/ccTUBOn1.s 			page 69


 3877 0144 4FF06400 		mov	r0, #100
 3878              		.loc 1 1277 0
 3879 0148 F5DB     		blt	.L319
 3880              	.LVL580:
 3881              	.LBE85:
 3882              	.LBB86:
 3883              		.loc 1 1287 0
 3884 014a B8F1000F 		cmp	r8, #0
 3885 014e 0ADD     		ble	.L321
 3886 0150 0024     		movs	r4, #0
 3887              	.LVL581:
 3888              	.L320:
 3889              		.loc 1 1288 0
 3890 0152 2046     		mov	r0, r4
 3891 0154 FFF7FEFF 		bl	comm_can_detect_all_foc_res
 3892              	.LVL582:
 3893              		.loc 1 1287 0
 3894 0158 0134     		adds	r4, r4, #1
 3895              	.LVL583:
 3896              		.loc 1 1289 0
 3897 015a 0028     		cmp	r0, #0
 3898 015c B8BF     		it	lt
 3899 015e 6FF03205 		mvnlt	r5, #50
 3900              	.LVL584:
 3901              		.loc 1 1287 0
 3902 0162 A045     		cmp	r8, r4
 3903 0164 F5D1     		bne	.L320
 3904              	.LVL585:
 3905              	.L321:
 3906              	.LBE86:
 3907              		.loc 1 1295 0
 3908 0166 002D     		cmp	r5, #0
 3909 0168 2EDB     		blt	.L302
 3910              		.loc 1 1296 0
 3911 016a 9DF80430 		ldrb	r3, [sp, #4]	@ zero_extendqisi2
 3912 016e B342     		cmp	r3, r6
 3913 0170 03D1     		bne	.L325
 3914              		.loc 1 1296 0 is_stmt 0 discriminator 1
 3915 0172 9DF81030 		ldrb	r3, [sp, #16]	@ zero_extendqisi2
 3916 0176 042B     		cmp	r3, #4
 3917 0178 13D0     		beq	.L326
 3918              	.L325:
 3919              		.loc 1 1298 0 is_stmt 1
 3920 017a 0423     		movs	r3, #4
 3921              		.loc 1 1299 0
 3922 017c 0DEB0300 		add	r0, sp, r3
 3923              		.loc 1 1298 0
 3924 0180 8DF81030 		strb	r3, [sp, #16]
 3925              		.loc 1 1297 0
 3926 0184 8DF80460 		strb	r6, [sp, #4]
 3927              		.loc 1 1299 0
 3928 0188 FFF7FEFF 		bl	conf_general_store_app_configuration
 3929              	.LVL586:
 3930              		.loc 1 1300 0
 3931 018c 01A8     		add	r0, sp, #4
 3932 018e FFF7FEFF 		bl	app_set_configuration
 3933              	.LVL587:
ARM GAS  /tmp/ccTUBOn1.s 			page 70


 3934              		.loc 1 1301 0
 3935 0192 1120     		movs	r0, #17
 3936 0194 01A9     		add	r1, sp, #4
 3937 0196 FFF7FEFF 		bl	commands_send_appconf
 3938              	.LVL588:
 3939              		.loc 1 1302 0
 3940 019a 42F21070 		movw	r0, #10000
 3941 019e FFF7FEFF 		bl	chThdSleep
 3942              	.LVL589:
 3943              	.L326:
 3944              		.loc 1 1305 0
 3945 01a2 FFF7FEFF 		bl	mc_interface_get_configuration
 3946              	.LVL590:
 3947 01a6 4FF4E472 		mov	r2, #456
 3948 01aa 0146     		mov	r1, r0
 3949 01ac 0E48     		ldr	r0, .L348
 3950 01ae FFF7FEFF 		bl	memcpy
 3951              	.LVL591:
 3952              		.loc 1 1306 0
 3953 01b2 0D48     		ldr	r0, .L348
 3954 01b4 FFF7FEFF 		bl	conf_general_store_mc_configuration
 3955              	.LVL592:
 3956              		.loc 1 1307 0
 3957 01b8 0E20     		movs	r0, #14
 3958 01ba 0B49     		ldr	r1, .L348
 3959 01bc FFF7FEFF 		bl	commands_send_mcconf
 3960              	.LVL593:
 3961              		.loc 1 1308 0
 3962 01c0 42F21070 		movw	r0, #10000
 3963 01c4 FFF7FEFF 		bl	chThdSleep
 3964              	.LVL594:
 3965              	.L302:
 3966              		.loc 1 1312 0
 3967 01c8 2846     		mov	r0, r5
 3968 01ca 34B0     		add	sp, sp, #208
 3969              		.cfi_remember_state
 3970              		.cfi_def_cfa_offset 48
 3971              		@ sp needed
 3972 01cc BDEC068B 		vldm	sp!, {d8-d10}
 3973              		.cfi_restore 84
 3974              		.cfi_restore 85
 3975              		.cfi_restore 82
 3976              		.cfi_restore 83
 3977              		.cfi_restore 80
 3978              		.cfi_restore 81
 3979              		.cfi_def_cfa_offset 24
 3980              	.LVL595:
 3981 01d0 BDE8F081 		pop	{r4, r5, r6, r7, r8, pc}
 3982              	.LVL596:
 3983              	.L327:
 3984              		.cfi_restore_state
 3985              		.loc 1 1250 0
 3986 01d4 A046     		mov	r8, r4
 3987 01d6 A4E7     		b	.L315
 3988              	.LVL597:
 3989              	.L347:
 3990              		.loc 1 1285 0
ARM GAS  /tmp/ccTUBOn1.s 			page 71


 3991 01d8 6FF03105 		mvn	r5, #49
 3992              	.LVL598:
 3993              		.loc 1 1312 0
 3994 01dc 2846     		mov	r0, r5
 3995 01de 34B0     		add	sp, sp, #208
 3996              		.cfi_def_cfa_offset 48
 3997              		@ sp needed
 3998 01e0 BDEC068B 		vldm	sp!, {d8-d10}
 3999              		.cfi_restore 84
 4000              		.cfi_restore 85
 4001              		.cfi_restore 82
 4002              		.cfi_restore 83
 4003              		.cfi_restore 80
 4004              		.cfi_restore 81
 4005              		.cfi_def_cfa_offset 24
 4006              	.LVL599:
 4007 01e4 BDE8F081 		pop	{r4, r5, r6, r7, r8, pc}
 4008              	.LVL600:
 4009              	.L349:
 4010              		.align	2
 4011              	.L348:
 4012 01e8 00000000 		.word	.LANCHOR1
 4013 01ec 6F12833A 		.word	981668463
 4014 01f0 000070C2 		.word	-1032847360
 4015 01f4 0000C642 		.word	1120272384
 4016 01f8 0000C843 		.word	1137180672
 4017 01fc 00401C45 		.word	1159479296
 4018              		.cfi_endproc
 4019              	.LFE273:
 4020              		.size	conf_general_detect_apply_all_foc_can, .-conf_general_detect_apply_all_foc_can
 4021              		.global	mcconf_old
 4022              		.global	mcconf
 4023              		.global	conf_general_permanent_nrf_found
 4024              		.global	VirtAddVarTab
 4025              		.section	.bss.VirtAddVarTab,"aw",%nobits
 4026              		.align	2
 4027              		.set	.LANCHOR0,. + 0
 4028              		.type	VirtAddVarTab, %object
 4029              		.size	VirtAddVarTab, 1172
 4030              	VirtAddVarTab:
 4031 0000 00000000 		.space	1172
 4031      00000000 
 4031      00000000 
 4031      00000000 
 4031      00000000 
 4032              		.section	.bss.conf_general_permanent_nrf_found,"aw",%nobits
 4033              		.type	conf_general_permanent_nrf_found, %object
 4034              		.size	conf_general_permanent_nrf_found, 1
 4035              	conf_general_permanent_nrf_found:
 4036 0000 00       		.space	1
 4037              		.section	.bss.mcconf,"aw",%nobits
 4038              		.align	2
 4039              		.set	.LANCHOR1,. + 0
 4040              		.type	mcconf, %object
 4041              		.size	mcconf, 456
 4042              	mcconf:
 4043 0000 00000000 		.space	456
ARM GAS  /tmp/ccTUBOn1.s 			page 72


 4043      00000000 
 4043      00000000 
 4043      00000000 
 4043      00000000 
 4044              		.section	.bss.mcconf_old,"aw",%nobits
 4045              		.align	2
 4046              		.set	.LANCHOR2,. + 0
 4047              		.type	mcconf_old, %object
 4048              		.size	mcconf_old, 456
 4049              	mcconf_old:
 4050 0000 00000000 		.space	456
 4050      00000000 
 4050      00000000 
 4050      00000000 
 4050      00000000 
 4051              		.text
 4052              	.Letext0:
 4053              		.file 2 "/usr/arm-none-eabi/include/machine/_default_types.h"
 4054              		.file 3 "/usr/arm-none-eabi/include/sys/_stdint.h"
 4055              		.file 4 "/usr/lib/gcc/arm-none-eabi/7.3.1/include/stddef.h"
 4056              		.file 5 "ChibiOS_3.0.2/os/rt/ports/ARMCMx/compilers/GCC/chtypes.h"
 4057              		.file 6 "ChibiOS_3.0.2/os/rt/include/chsystypes.h"
 4058              		.file 7 "ChibiOS_3.0.2/os/rt/include/chschd.h"
 4059              		.file 8 "ChibiOS_3.0.2/os/ext/CMSIS/include/core_cm4.h"
 4060              		.file 9 "ChibiOS_3.0.2/os/ext/CMSIS/ST/system_stm32f4xx.h"
 4061              		.file 10 "ChibiOS_3.0.2/os/ext/CMSIS/ST/stm32f407xx.h"
 4062              		.file 11 "ChibiOS_3.0.2/os/rt/ports/ARMCMx/chcore.h"
 4063              		.file 12 "ChibiOS_3.0.2/os/rt/ports/ARMCMx/chcore_v7m.h"
 4064              		.file 13 "ChibiOS_3.0.2/os/rt/include/chtm.h"
 4065              		.file 14 "ChibiOS_3.0.2/os/rt/include/chsem.h"
 4066              		.file 15 "ChibiOS_3.0.2/os/rt/include/chmtx.h"
 4067              		.file 16 "ChibiOS_3.0.2/os/rt/include/chregistry.h"
 4068              		.file 17 "ChibiOS_3.0.2/os/rt/include/chevents.h"
 4069              		.file 18 "ChibiOS_3.0.2/os/rt/include/chqueues.h"
 4070              		.file 19 "datatypes.h"
 4071              		.file 20 "conf_general.h"
 4072              		.file 21 "ChibiOS_3.0.2/ext/stdperiph_stm32f4/inc/stm32f4xx_flash.h"
 4073              		.file 22 "mcpwm.h"
 4074              		.file 23 "mc_interface.h"
 4075              		.file 24 "ChibiOS_3.0.2/os/hal/ports/STM32/STM32F4xx/stm32_dma.h"
 4076              		.file 25 "ChibiOS_3.0.2/os/hal/ports/STM32/LLD/GPIOv2/pal_lld.h"
 4077              		.file 26 "ChibiOS_3.0.2/os/hal/include/can.h"
 4078              		.file 27 "ChibiOS_3.0.2/os/hal/ports/STM32/LLD/can_lld.h"
 4079              		.file 28 "ChibiOS_3.0.2/os/hal/include/i2c.h"
 4080              		.file 29 "ChibiOS_3.0.2/os/hal/ports/STM32/LLD/I2Cv1/i2c_lld.h"
 4081              		.file 30 "ChibiOS_3.0.2/os/hal/include/icu.h"
 4082              		.file 31 "ChibiOS_3.0.2/os/hal/ports/STM32/LLD/TIMv1/icu_lld.h"
 4083              		.file 32 "ChibiOS_3.0.2/os/hal/ports/STM32/LLD/TIMv1/stm32_tim.h"
 4084              		.file 33 "ChibiOS_3.0.2/os/hal/include/serial.h"
 4085              		.file 34 "ChibiOS_3.0.2/os/hal/ports/STM32/LLD/USARTv1/serial_lld.h"
 4086              		.file 35 "ChibiOS_3.0.2/os/hal/include/spi.h"
 4087              		.file 36 "ChibiOS_3.0.2/os/hal/ports/STM32/LLD/SPIv1/spi_lld.h"
 4088              		.file 37 "ChibiOS_3.0.2/os/hal/include/usb.h"
 4089              		.file 38 "ChibiOS_3.0.2/os/hal/ports/STM32/LLD/OTGv1/usb_lld.h"
 4090              		.file 39 "ChibiOS_3.0.2/os/hal/ports/STM32/LLD/OTGv1/stm32_otg.h"
 4091              		.file 40 "/usr/arm-none-eabi/include/sys/lock.h"
 4092              		.file 41 "/usr/arm-none-eabi/include/sys/_types.h"
ARM GAS  /tmp/ccTUBOn1.s 			page 73


 4093              		.file 42 "/usr/arm-none-eabi/include/sys/reent.h"
 4094              		.file 43 "/usr/arm-none-eabi/include/math.h"
 4095              		.file 44 "comm_can.h"
 4096              		.file 45 "ChibiOS_3.0.2/os/rt/include/chthreads.h"
 4097              		.file 46 "applications/app.h"
 4098              		.file 47 "commands.h"
 4099              		.file 48 "mcpwm_foc.h"
 4100              		.file 49 "timeout.h"
 4101              		.file 50 "utils.h"
 4102              		.file 51 "encoder.h"
 4103              		.file 52 "eeprom.h"
 4104              		.file 53 "confgenerator.h"
 4105              		.file 54 "<built-in>"
 4106              		.section	.debug_info,"",%progbits
 4107              	.Ldebug_info0:
 4108 0000 7C630000 		.4byte	0x637c
 4109 0004 0400     		.2byte	0x4
 4110 0006 00000000 		.4byte	.Ldebug_abbrev0
 4111 000a 04       		.byte	0x4
 4112 000b 01       		.uleb128 0x1
 4113 000c 3F120000 		.4byte	.LASF1189
 4114 0010 0C       		.byte	0xc
 4115 0011 293A0000 		.4byte	.LASF1190
 4116 0015 7F340000 		.4byte	.LASF1191
 4117 0019 80020000 		.4byte	.Ldebug_ranges0+0x280
 4118 001d 00000000 		.4byte	0
 4119 0021 00000000 		.4byte	.Ldebug_line0
 4120 0025 02       		.uleb128 0x2
 4121 0026 04       		.byte	0x4
 4122 0027 04       		.byte	0x4
 4123 0028 900E0000 		.4byte	.LASF0
 4124 002c 03       		.uleb128 0x3
 4125 002d 3B3E0000 		.4byte	.LASF2
 4126 0031 02       		.byte	0x2
 4127 0032 29       		.byte	0x29
 4128 0033 37000000 		.4byte	0x37
 4129 0037 02       		.uleb128 0x2
 4130 0038 01       		.byte	0x1
 4131 0039 06       		.byte	0x6
 4132 003a 03230000 		.4byte	.LASF1
 4133 003e 03       		.uleb128 0x3
 4134 003f E6010000 		.4byte	.LASF3
 4135 0043 02       		.byte	0x2
 4136 0044 2B       		.byte	0x2b
 4137 0045 49000000 		.4byte	0x49
 4138 0049 02       		.uleb128 0x2
 4139 004a 01       		.byte	0x1
 4140 004b 08       		.byte	0x8
 4141 004c CA0D0000 		.4byte	.LASF4
 4142 0050 02       		.uleb128 0x2
 4143 0051 02       		.byte	0x2
 4144 0052 05       		.byte	0x5
 4145 0053 05400000 		.4byte	.LASF5
 4146 0057 03       		.uleb128 0x3
 4147 0058 D00B0000 		.4byte	.LASF6
 4148 005c 02       		.byte	0x2
 4149 005d 39       		.byte	0x39
ARM GAS  /tmp/ccTUBOn1.s 			page 74


 4150 005e 62000000 		.4byte	0x62
 4151 0062 02       		.uleb128 0x2
 4152 0063 02       		.byte	0x2
 4153 0064 07       		.byte	0x7
 4154 0065 F0220000 		.4byte	.LASF7
 4155 0069 03       		.uleb128 0x3
 4156 006a 1C320000 		.4byte	.LASF8
 4157 006e 02       		.byte	0x2
 4158 006f 4D       		.byte	0x4d
 4159 0070 74000000 		.4byte	0x74
 4160 0074 02       		.uleb128 0x2
 4161 0075 04       		.byte	0x4
 4162 0076 05       		.byte	0x5
 4163 0077 0C270000 		.4byte	.LASF9
 4164 007b 03       		.uleb128 0x3
 4165 007c 34320000 		.4byte	.LASF10
 4166 0080 02       		.byte	0x2
 4167 0081 4F       		.byte	0x4f
 4168 0082 86000000 		.4byte	0x86
 4169 0086 02       		.uleb128 0x2
 4170 0087 04       		.byte	0x4
 4171 0088 07       		.byte	0x7
 4172 0089 022A0000 		.4byte	.LASF11
 4173 008d 02       		.uleb128 0x2
 4174 008e 08       		.byte	0x8
 4175 008f 05       		.byte	0x5
 4176 0090 D23A0000 		.4byte	.LASF12
 4177 0094 03       		.uleb128 0x3
 4178 0095 041D0000 		.4byte	.LASF13
 4179 0099 02       		.byte	0x2
 4180 009a 69       		.byte	0x69
 4181 009b 9F000000 		.4byte	0x9f
 4182 009f 02       		.uleb128 0x2
 4183 00a0 08       		.byte	0x8
 4184 00a1 07       		.byte	0x7
 4185 00a2 0D360000 		.4byte	.LASF14
 4186 00a6 04       		.uleb128 0x4
 4187 00a7 04       		.byte	0x4
 4188 00a8 05       		.byte	0x5
 4189 00a9 696E7400 		.ascii	"int\000"
 4190 00ad 05       		.uleb128 0x5
 4191 00ae A6000000 		.4byte	0xa6
 4192 00b2 06       		.uleb128 0x6
 4193 00b3 A6000000 		.4byte	0xa6
 4194 00b7 02       		.uleb128 0x2
 4195 00b8 04       		.byte	0x4
 4196 00b9 07       		.byte	0x7
 4197 00ba 533F0000 		.4byte	.LASF15
 4198 00be 03       		.uleb128 0x3
 4199 00bf D8200000 		.4byte	.LASF16
 4200 00c3 03       		.byte	0x3
 4201 00c4 14       		.byte	0x14
 4202 00c5 2C000000 		.4byte	0x2c
 4203 00c9 03       		.uleb128 0x3
 4204 00ca DC160000 		.4byte	.LASF17
 4205 00ce 03       		.byte	0x3
 4206 00cf 18       		.byte	0x18
ARM GAS  /tmp/ccTUBOn1.s 			page 75


 4207 00d0 3E000000 		.4byte	0x3e
 4208 00d4 06       		.uleb128 0x6
 4209 00d5 C9000000 		.4byte	0xc9
 4210 00d9 03       		.uleb128 0x3
 4211 00da E0030000 		.4byte	.LASF18
 4212 00de 03       		.byte	0x3
 4213 00df 24       		.byte	0x24
 4214 00e0 57000000 		.4byte	0x57
 4215 00e4 05       		.uleb128 0x5
 4216 00e5 D9000000 		.4byte	0xd9
 4217 00e9 03       		.uleb128 0x3
 4218 00ea 12060000 		.4byte	.LASF19
 4219 00ee 03       		.byte	0x3
 4220 00ef 2C       		.byte	0x2c
 4221 00f0 69000000 		.4byte	0x69
 4222 00f4 05       		.uleb128 0x5
 4223 00f5 E9000000 		.4byte	0xe9
 4224 00f9 03       		.uleb128 0x3
 4225 00fa DA280000 		.4byte	.LASF20
 4226 00fe 03       		.byte	0x3
 4227 00ff 30       		.byte	0x30
 4228 0100 7B000000 		.4byte	0x7b
 4229 0104 05       		.uleb128 0x5
 4230 0105 F9000000 		.4byte	0xf9
 4231 0109 03       		.uleb128 0x3
 4232 010a A8100000 		.4byte	.LASF21
 4233 010e 03       		.byte	0x3
 4234 010f 3C       		.byte	0x3c
 4235 0110 94000000 		.4byte	0x94
 4236 0114 03       		.uleb128 0x3
 4237 0115 86160000 		.4byte	.LASF22
 4238 0119 04       		.byte	0x4
 4239 011a D8       		.byte	0xd8
 4240 011b B7000000 		.4byte	0xb7
 4241 011f 05       		.uleb128 0x5
 4242 0120 14010000 		.4byte	0x114
 4243 0124 03       		.uleb128 0x3
 4244 0125 38150000 		.4byte	.LASF23
 4245 0129 05       		.byte	0x5
 4246 012a 45       		.byte	0x45
 4247 012b F9000000 		.4byte	0xf9
 4248 012f 03       		.uleb128 0x3
 4249 0130 451F0000 		.4byte	.LASF24
 4250 0134 05       		.byte	0x5
 4251 0135 48       		.byte	0x48
 4252 0136 C9000000 		.4byte	0xc9
 4253 013a 03       		.uleb128 0x3
 4254 013b D5370000 		.4byte	.LASF25
 4255 013f 05       		.byte	0x5
 4256 0140 49       		.byte	0x49
 4257 0141 C9000000 		.4byte	0xc9
 4258 0145 03       		.uleb128 0x3
 4259 0146 B41E0000 		.4byte	.LASF26
 4260 014a 05       		.byte	0x5
 4261 014b 4A       		.byte	0x4a
 4262 014c C9000000 		.4byte	0xc9
 4263 0150 03       		.uleb128 0x3
ARM GAS  /tmp/ccTUBOn1.s 			page 76


 4264 0151 12220000 		.4byte	.LASF27
 4265 0155 05       		.byte	0x5
 4266 0156 4B       		.byte	0x4b
 4267 0157 C9000000 		.4byte	0xc9
 4268 015b 03       		.uleb128 0x3
 4269 015c D5090000 		.4byte	.LASF28
 4270 0160 05       		.byte	0x5
 4271 0161 4C       		.byte	0x4c
 4272 0162 F9000000 		.4byte	0xf9
 4273 0166 03       		.uleb128 0x3
 4274 0167 E5000000 		.4byte	.LASF29
 4275 016b 05       		.byte	0x5
 4276 016c 4D       		.byte	0x4d
 4277 016d E9000000 		.4byte	0xe9
 4278 0171 03       		.uleb128 0x3
 4279 0172 A9290000 		.4byte	.LASF30
 4280 0176 05       		.byte	0x5
 4281 0177 4F       		.byte	0x4f
 4282 0178 F9000000 		.4byte	0xf9
 4283 017c 03       		.uleb128 0x3
 4284 017d B13B0000 		.4byte	.LASF31
 4285 0181 05       		.byte	0x5
 4286 0182 50       		.byte	0x50
 4287 0183 F9000000 		.4byte	0xf9
 4288 0187 03       		.uleb128 0x3
 4289 0188 362E0000 		.4byte	.LASF32
 4290 018c 05       		.byte	0x5
 4291 018d 51       		.byte	0x51
 4292 018e E9000000 		.4byte	0xe9
 4293 0192 03       		.uleb128 0x3
 4294 0193 3C060000 		.4byte	.LASF33
 4295 0197 06       		.byte	0x6
 4296 0198 33       		.byte	0x33
 4297 0199 F9000000 		.4byte	0xf9
 4298 019d 05       		.uleb128 0x5
 4299 019e 92010000 		.4byte	0x192
 4300 01a2 03       		.uleb128 0x3
 4301 01a3 D5050000 		.4byte	.LASF34
 4302 01a7 06       		.byte	0x6
 4303 01a8 3F       		.byte	0x3f
 4304 01a9 AD010000 		.4byte	0x1ad
 4305 01ad 07       		.uleb128 0x7
 4306 01ae 190E0000 		.4byte	.LASF56
 4307 01b2 48       		.byte	0x48
 4308 01b3 07       		.byte	0x7
 4309 01b4 C2       		.byte	0xc2
 4310 01b5 B2020000 		.4byte	0x2b2
 4311 01b9 08       		.uleb128 0x8
 4312 01ba 071E0000 		.4byte	.LASF35
 4313 01be 07       		.byte	0x7
 4314 01bf C3       		.byte	0xc3
 4315 01c0 BD020000 		.4byte	0x2bd
 4316 01c4 00       		.byte	0
 4317 01c5 08       		.uleb128 0x8
 4318 01c6 5D170000 		.4byte	.LASF36
 4319 01ca 07       		.byte	0x7
 4320 01cb C5       		.byte	0xc5
ARM GAS  /tmp/ccTUBOn1.s 			page 77


 4321 01cc BD020000 		.4byte	0x2bd
 4322 01d0 04       		.byte	0x4
 4323 01d1 08       		.uleb128 0x8
 4324 01d2 BB1C0000 		.4byte	.LASF37
 4325 01d6 07       		.byte	0x7
 4326 01d7 C7       		.byte	0xc7
 4327 01d8 5B010000 		.4byte	0x15b
 4328 01dc 08       		.byte	0x8
 4329 01dd 08       		.uleb128 0x8
 4330 01de 920F0000 		.4byte	.LASF38
 4331 01e2 07       		.byte	0x7
 4332 01e3 C8       		.byte	0xc8
 4333 01e4 88090000 		.4byte	0x988
 4334 01e8 0C       		.byte	0xc
 4335 01e9 08       		.uleb128 0x8
 4336 01ea A3040000 		.4byte	.LASF39
 4337 01ee 07       		.byte	0x7
 4338 01ef CA       		.byte	0xca
 4339 01f0 BD020000 		.4byte	0x2bd
 4340 01f4 10       		.byte	0x10
 4341 01f5 08       		.uleb128 0x8
 4342 01f6 083D0000 		.4byte	.LASF40
 4343 01fa 07       		.byte	0x7
 4344 01fb CB       		.byte	0xcb
 4345 01fc BD020000 		.4byte	0x2bd
 4346 0200 14       		.byte	0x14
 4347 0201 08       		.uleb128 0x8
 4348 0202 90380000 		.4byte	.LASF41
 4349 0206 07       		.byte	0x7
 4350 0207 D2       		.byte	0xd2
 4351 0208 CD0B0000 		.4byte	0xbcd
 4352 020c 18       		.byte	0x18
 4353 020d 08       		.uleb128 0x8
 4354 020e 36410000 		.4byte	.LASF42
 4355 0212 07       		.byte	0x7
 4356 0213 DD       		.byte	0xdd
 4357 0214 3A010000 		.4byte	0x13a
 4358 0218 1C       		.byte	0x1c
 4359 0219 08       		.uleb128 0x8
 4360 021a 14370000 		.4byte	.LASF43
 4361 021e 07       		.byte	0x7
 4362 021f E1       		.byte	0xe1
 4363 0220 2F010000 		.4byte	0x12f
 4364 0224 1D       		.byte	0x1d
 4365 0225 08       		.uleb128 0x8
 4366 0226 CC260000 		.4byte	.LASF44
 4367 022a 07       		.byte	0x7
 4368 022b E6       		.byte	0xe6
 4369 022c 45010000 		.4byte	0x145
 4370 0230 1E       		.byte	0x1e
 4371 0231 08       		.uleb128 0x8
 4372 0232 68230000 		.4byte	.LASF45
 4373 0236 07       		.byte	0x7
 4374 0237 EC       		.byte	0xec
 4375 0238 50010000 		.4byte	0x150
 4376 023c 1F       		.byte	0x1f
 4377 023d 08       		.uleb128 0x8
ARM GAS  /tmp/ccTUBOn1.s 			page 78


 4378 023e 7D230000 		.4byte	.LASF46
 4379 0242 07       		.byte	0x7
 4380 0243 F3       		.byte	0xf3
 4381 0244 9D010000 		.4byte	0x19d
 4382 0248 20       		.byte	0x20
 4383 0249 09       		.uleb128 0x9
 4384 024a 705F7500 		.ascii	"p_u\000"
 4385 024e 07       		.byte	0x7
 4386 024f 3101     		.2byte	0x131
 4387 0251 080B0000 		.4byte	0xb08
 4388 0255 24       		.byte	0x24
 4389 0256 0A       		.uleb128 0xa
 4390 0257 1E080000 		.4byte	.LASF47
 4391 025b 07       		.byte	0x7
 4392 025c 3601     		.2byte	0x136
 4393 025e C3020000 		.4byte	0x2c3
 4394 0262 28       		.byte	0x28
 4395 0263 0A       		.uleb128 0xa
 4396 0264 3A240000 		.4byte	.LASF48
 4397 0268 07       		.byte	0x7
 4398 0269 3C01     		.2byte	0x13c
 4399 026b E7020000 		.4byte	0x2e7
 4400 026f 2C       		.byte	0x2c
 4401 0270 0A       		.uleb128 0xa
 4402 0271 010C0000 		.4byte	.LASF49
 4403 0275 07       		.byte	0x7
 4404 0276 4001     		.2byte	0x140
 4405 0278 66010000 		.4byte	0x166
 4406 027c 34       		.byte	0x34
 4407 027d 0A       		.uleb128 0xa
 4408 027e 92330000 		.4byte	.LASF50
 4409 0282 07       		.byte	0x7
 4410 0283 4601     		.2byte	0x146
 4411 0285 71010000 		.4byte	0x171
 4412 0289 38       		.byte	0x38
 4413 028a 0A       		.uleb128 0xa
 4414 028b A7370000 		.4byte	.LASF51
 4415 028f 07       		.byte	0x7
 4416 0290 4D01     		.2byte	0x14d
 4417 0292 C70B0000 		.4byte	0xbc7
 4418 0296 3C       		.byte	0x3c
 4419 0297 0A       		.uleb128 0xa
 4420 0298 A2300000 		.4byte	.LASF52
 4421 029c 07       		.byte	0x7
 4422 029d 5101     		.2byte	0x151
 4423 029f 5B010000 		.4byte	0x15b
 4424 02a3 40       		.byte	0x40
 4425 02a4 0A       		.uleb128 0xa
 4426 02a5 BC1E0000 		.4byte	.LASF53
 4427 02a9 07       		.byte	0x7
 4428 02aa 5801     		.2byte	0x158
 4429 02ac 9A030000 		.4byte	0x39a
 4430 02b0 44       		.byte	0x44
 4431 02b1 00       		.byte	0
 4432 02b2 03       		.uleb128 0x3
 4433 02b3 7C3D0000 		.4byte	.LASF54
 4434 02b7 06       		.byte	0x6
ARM GAS  /tmp/ccTUBOn1.s 			page 79


 4435 02b8 44       		.byte	0x44
 4436 02b9 BD020000 		.4byte	0x2bd
 4437 02bd 0B       		.uleb128 0xb
 4438 02be 04       		.byte	0x4
 4439 02bf A2010000 		.4byte	0x1a2
 4440 02c3 03       		.uleb128 0x3
 4441 02c4 54080000 		.4byte	.LASF55
 4442 02c8 06       		.byte	0x6
 4443 02c9 49       		.byte	0x49
 4444 02ca CE020000 		.4byte	0x2ce
 4445 02ce 07       		.uleb128 0x7
 4446 02cf 3E410000 		.4byte	.LASF57
 4447 02d3 04       		.byte	0x4
 4448 02d4 07       		.byte	0x7
 4449 02d5 B0       		.byte	0xb0
 4450 02d6 E7020000 		.4byte	0x2e7
 4451 02da 08       		.uleb128 0x8
 4452 02db 071E0000 		.4byte	.LASF35
 4453 02df 07       		.byte	0x7
 4454 02e0 B1       		.byte	0xb1
 4455 02e1 BD020000 		.4byte	0x2bd
 4456 02e5 00       		.byte	0
 4457 02e6 00       		.byte	0
 4458 02e7 03       		.uleb128 0x3
 4459 02e8 67260000 		.4byte	.LASF58
 4460 02ec 06       		.byte	0x6
 4461 02ed 50       		.byte	0x50
 4462 02ee F2020000 		.4byte	0x2f2
 4463 02f2 07       		.uleb128 0x7
 4464 02f3 6F040000 		.4byte	.LASF59
 4465 02f7 08       		.byte	0x8
 4466 02f8 07       		.byte	0x7
 4467 02f9 B7       		.byte	0xb7
 4468 02fa 17030000 		.4byte	0x317
 4469 02fe 08       		.uleb128 0x8
 4470 02ff 071E0000 		.4byte	.LASF35
 4471 0303 07       		.byte	0x7
 4472 0304 B8       		.byte	0xb8
 4473 0305 BD020000 		.4byte	0x2bd
 4474 0309 00       		.byte	0
 4475 030a 08       		.uleb128 0x8
 4476 030b 5D170000 		.4byte	.LASF36
 4477 030f 07       		.byte	0x7
 4478 0310 B9       		.byte	0xb9
 4479 0311 BD020000 		.4byte	0x2bd
 4480 0315 04       		.byte	0x4
 4481 0316 00       		.byte	0
 4482 0317 03       		.uleb128 0x3
 4483 0318 0C0E0000 		.4byte	.LASF60
 4484 031c 06       		.byte	0x6
 4485 031d 57       		.byte	0x57
 4486 031e 22030000 		.4byte	0x322
 4487 0322 0C       		.uleb128 0xc
 4488 0323 00320000 		.4byte	.LASF61
 4489 0327 1C       		.byte	0x1c
 4490 0328 07       		.byte	0x7
 4491 0329 9001     		.2byte	0x190
ARM GAS  /tmp/ccTUBOn1.s 			page 80


 4492 032b 7E030000 		.4byte	0x37e
 4493 032f 0A       		.uleb128 0xa
 4494 0330 742B0000 		.4byte	.LASF62
 4495 0334 07       		.byte	0x7
 4496 0335 9101     		.2byte	0x191
 4497 0337 E7020000 		.4byte	0x2e7
 4498 033b 00       		.byte	0
 4499 033c 0A       		.uleb128 0xa
 4500 033d B5350000 		.4byte	.LASF63
 4501 0341 07       		.byte	0x7
 4502 0342 9201     		.2byte	0x192
 4503 0344 5B010000 		.4byte	0x15b
 4504 0348 08       		.byte	0x8
 4505 0349 0A       		.uleb128 0xa
 4506 034a B7140000 		.4byte	.LASF64
 4507 034e 07       		.byte	0x7
 4508 034f 9401     		.2byte	0x194
 4509 0351 88090000 		.4byte	0x988
 4510 0355 0C       		.byte	0xc
 4511 0356 0A       		.uleb128 0xa
 4512 0357 2D210000 		.4byte	.LASF65
 4513 035b 07       		.byte	0x7
 4514 035c 9701     		.2byte	0x197
 4515 035e BD020000 		.4byte	0x2bd
 4516 0362 10       		.byte	0x10
 4517 0363 0A       		.uleb128 0xa
 4518 0364 46170000 		.4byte	.LASF66
 4519 0368 07       		.byte	0x7
 4520 0369 9801     		.2byte	0x198
 4521 036b BD020000 		.4byte	0x2bd
 4522 036f 14       		.byte	0x14
 4523 0370 0A       		.uleb128 0xa
 4524 0371 CC0F0000 		.4byte	.LASF67
 4525 0375 07       		.byte	0x7
 4526 0376 9B01     		.2byte	0x19b
 4527 0378 BD020000 		.4byte	0x2bd
 4528 037c 18       		.byte	0x18
 4529 037d 00       		.byte	0
 4530 037e 03       		.uleb128 0x3
 4531 037f 37300000 		.4byte	.LASF68
 4532 0383 06       		.byte	0x6
 4533 0384 5C       		.byte	0x5c
 4534 0385 89030000 		.4byte	0x389
 4535 0389 0B       		.uleb128 0xb
 4536 038a 04       		.byte	0x4
 4537 038b 8F030000 		.4byte	0x38f
 4538 038f 0D       		.uleb128 0xd
 4539 0390 9A030000 		.4byte	0x39a
 4540 0394 0E       		.uleb128 0xe
 4541 0395 9A030000 		.4byte	0x39a
 4542 0399 00       		.byte	0
 4543 039a 0F       		.uleb128 0xf
 4544 039b 04       		.byte	0x4
 4545 039c 03       		.uleb128 0x3
 4546 039d A7140000 		.4byte	.LASF69
 4547 03a1 06       		.byte	0x6
 4548 03a2 61       		.byte	0x61
ARM GAS  /tmp/ccTUBOn1.s 			page 81


 4549 03a3 A7030000 		.4byte	0x3a7
 4550 03a7 0C       		.uleb128 0xc
 4551 03a8 03370000 		.4byte	.LASF70
 4552 03ac 14       		.byte	0x14
 4553 03ad 07       		.byte	0x7
 4554 03ae 6B01     		.2byte	0x16b
 4555 03b0 F6030000 		.4byte	0x3f6
 4556 03b4 0A       		.uleb128 0xa
 4557 03b5 BD140000 		.4byte	.LASF71
 4558 03b9 07       		.byte	0x7
 4559 03ba 6C01     		.2byte	0x16c
 4560 03bc E40B0000 		.4byte	0xbe4
 4561 03c0 00       		.byte	0
 4562 03c1 0A       		.uleb128 0xa
 4563 03c2 B20D0000 		.4byte	.LASF72
 4564 03c6 07       		.byte	0x7
 4565 03c7 6D01     		.2byte	0x16d
 4566 03c9 E40B0000 		.4byte	0xbe4
 4567 03cd 04       		.byte	0x4
 4568 03ce 0A       		.uleb128 0xa
 4569 03cf 8D220000 		.4byte	.LASF73
 4570 03d3 07       		.byte	0x7
 4571 03d4 6E01     		.2byte	0x16e
 4572 03d6 92010000 		.4byte	0x192
 4573 03da 08       		.byte	0x8
 4574 03db 0A       		.uleb128 0xa
 4575 03dc B8360000 		.4byte	.LASF74
 4576 03e0 07       		.byte	0x7
 4577 03e1 6F01     		.2byte	0x16f
 4578 03e3 7E030000 		.4byte	0x37e
 4579 03e7 0C       		.byte	0xc
 4580 03e8 0A       		.uleb128 0xa
 4581 03e9 980F0000 		.4byte	.LASF75
 4582 03ed 07       		.byte	0x7
 4583 03ee 7101     		.2byte	0x171
 4584 03f0 9A030000 		.4byte	0x39a
 4585 03f4 10       		.byte	0x10
 4586 03f5 00       		.byte	0
 4587 03f6 03       		.uleb128 0x3
 4588 03f7 37390000 		.4byte	.LASF76
 4589 03fb 06       		.byte	0x6
 4590 03fc 66       		.byte	0x66
 4591 03fd 01040000 		.4byte	0x401
 4592 0401 0C       		.uleb128 0xc
 4593 0402 F4050000 		.4byte	.LASF77
 4594 0406 10       		.byte	0x10
 4595 0407 07       		.byte	0x7
 4596 0408 7B01     		.2byte	0x17b
 4597 040a 43040000 		.4byte	0x443
 4598 040e 0A       		.uleb128 0xa
 4599 040f BD140000 		.4byte	.LASF71
 4600 0413 07       		.byte	0x7
 4601 0414 7C01     		.2byte	0x17c
 4602 0416 E40B0000 		.4byte	0xbe4
 4603 041a 00       		.byte	0
 4604 041b 0A       		.uleb128 0xa
 4605 041c B20D0000 		.4byte	.LASF72
ARM GAS  /tmp/ccTUBOn1.s 			page 82


 4606 0420 07       		.byte	0x7
 4607 0421 7E01     		.2byte	0x17e
 4608 0423 E40B0000 		.4byte	0xbe4
 4609 0427 04       		.byte	0x4
 4610 0428 0A       		.uleb128 0xa
 4611 0429 8D220000 		.4byte	.LASF73
 4612 042d 07       		.byte	0x7
 4613 042e 8001     		.2byte	0x180
 4614 0430 92010000 		.4byte	0x192
 4615 0434 08       		.byte	0x8
 4616 0435 0A       		.uleb128 0xa
 4617 0436 A3020000 		.4byte	.LASF78
 4618 043a 07       		.byte	0x7
 4619 043b 8201     		.2byte	0x182
 4620 043d 9D010000 		.4byte	0x19d
 4621 0441 0C       		.byte	0xc
 4622 0442 00       		.byte	0
 4623 0443 03       		.uleb128 0x3
 4624 0444 370F0000 		.4byte	.LASF79
 4625 0448 06       		.byte	0x6
 4626 0449 6B       		.byte	0x6b
 4627 044a 4E040000 		.4byte	0x44e
 4628 044e 0C       		.uleb128 0xc
 4629 044f 45320000 		.4byte	.LASF80
 4630 0453 04       		.byte	0x4
 4631 0454 07       		.byte	0x7
 4632 0455 A201     		.2byte	0x1a2
 4633 0457 69040000 		.4byte	0x469
 4634 045b 0A       		.uleb128 0xa
 4635 045c FA200000 		.4byte	.LASF81
 4636 0460 07       		.byte	0x7
 4637 0461 AA01     		.2byte	0x1aa
 4638 0463 D30B0000 		.4byte	0xbd3
 4639 0467 00       		.byte	0
 4640 0468 00       		.byte	0
 4641 0469 03       		.uleb128 0x3
 4642 046a DA010000 		.4byte	.LASF82
 4643 046e 06       		.byte	0x6
 4644 046f 70       		.byte	0x70
 4645 0470 74040000 		.4byte	0x474
 4646 0474 10       		.uleb128 0x10
 4647 0475 31250000 		.4byte	.LASF83
 4648 0479 5802     		.2byte	0x258
 4649 047b 07       		.byte	0x7
 4650 047c C201     		.2byte	0x1c2
 4651 047e D0040000 		.4byte	0x4d0
 4652 0482 0A       		.uleb128 0xa
 4653 0483 4E080000 		.4byte	.LASF84
 4654 0487 07       		.byte	0x7
 4655 0488 C601     		.2byte	0x1c6
 4656 048a 17030000 		.4byte	0x317
 4657 048e 00       		.byte	0
 4658 048f 0A       		.uleb128 0xa
 4659 0490 F6070000 		.4byte	.LASF85
 4660 0494 07       		.byte	0x7
 4661 0495 CA01     		.2byte	0x1ca
 4662 0497 F6030000 		.4byte	0x3f6
ARM GAS  /tmp/ccTUBOn1.s 			page 83


 4663 049b 1C       		.byte	0x1c
 4664 049c 09       		.uleb128 0x9
 4665 049d 64626700 		.ascii	"dbg\000"
 4666 04a1 07       		.byte	0x7
 4667 04a2 CE01     		.2byte	0x1ce
 4668 04a4 43040000 		.4byte	0x443
 4669 04a8 2C       		.byte	0x2c
 4670 04a9 0A       		.uleb128 0xa
 4671 04aa 25270000 		.4byte	.LASF86
 4672 04ae 07       		.byte	0x7
 4673 04af D201     		.2byte	0x1d2
 4674 04b1 A2010000 		.4byte	0x1a2
 4675 04b5 30       		.byte	0x30
 4676 04b6 09       		.uleb128 0x9
 4677 04b7 746D00   		.ascii	"tm\000"
 4678 04ba 07       		.byte	0x7
 4679 04bb D701     		.2byte	0x1d7
 4680 04bd FD0A0000 		.4byte	0xafd
 4681 04c1 78       		.byte	0x78
 4682 04c2 0A       		.uleb128 0xa
 4683 04c3 7C360000 		.4byte	.LASF87
 4684 04c7 07       		.byte	0x7
 4685 04c8 E301     		.2byte	0x1e3
 4686 04ca EA0B0000 		.4byte	0xbea
 4687 04ce 80       		.byte	0x80
 4688 04cf 00       		.byte	0
 4689 04d0 11       		.uleb128 0x11
 4690 04d1 F9000000 		.4byte	0xf9
 4691 04d5 E0040000 		.4byte	0x4e0
 4692 04d9 12       		.uleb128 0x12
 4693 04da B7000000 		.4byte	0xb7
 4694 04de 07       		.byte	0x7
 4695 04df 00       		.byte	0
 4696 04e0 13       		.uleb128 0x13
 4697 04e1 D3350000 		.4byte	.LASF88
 4698 04e5 08       		.byte	0x8
 4699 04e6 A706     		.2byte	0x6a7
 4700 04e8 F4000000 		.4byte	0xf4
 4701 04ec 14       		.uleb128 0x14
 4702 04ed AC240000 		.4byte	.LASF89
 4703 04f1 09       		.byte	0x9
 4704 04f2 4C       		.byte	0x4c
 4705 04f3 F9000000 		.4byte	0xf9
 4706 04f7 15       		.uleb128 0x15
 4707 04f8 10       		.byte	0x10
 4708 04f9 0A       		.byte	0xa
 4709 04fa E9       		.byte	0xe9
 4710 04fb 30050000 		.4byte	0x530
 4711 04ff 16       		.uleb128 0x16
 4712 0500 54495200 		.ascii	"TIR\000"
 4713 0504 0A       		.byte	0xa
 4714 0505 EB       		.byte	0xeb
 4715 0506 04010000 		.4byte	0x104
 4716 050a 00       		.byte	0
 4717 050b 08       		.uleb128 0x8
 4718 050c 561C0000 		.4byte	.LASF90
 4719 0510 0A       		.byte	0xa
ARM GAS  /tmp/ccTUBOn1.s 			page 84


 4720 0511 EC       		.byte	0xec
 4721 0512 04010000 		.4byte	0x104
 4722 0516 04       		.byte	0x4
 4723 0517 08       		.uleb128 0x8
 4724 0518 07270000 		.4byte	.LASF91
 4725 051c 0A       		.byte	0xa
 4726 051d ED       		.byte	0xed
 4727 051e 04010000 		.4byte	0x104
 4728 0522 08       		.byte	0x8
 4729 0523 08       		.uleb128 0x8
 4730 0524 84230000 		.4byte	.LASF92
 4731 0528 0A       		.byte	0xa
 4732 0529 EE       		.byte	0xee
 4733 052a 04010000 		.4byte	0x104
 4734 052e 0C       		.byte	0xc
 4735 052f 00       		.byte	0
 4736 0530 03       		.uleb128 0x3
 4737 0531 38080000 		.4byte	.LASF93
 4738 0535 0A       		.byte	0xa
 4739 0536 EF       		.byte	0xef
 4740 0537 F7040000 		.4byte	0x4f7
 4741 053b 15       		.uleb128 0x15
 4742 053c 10       		.byte	0x10
 4743 053d 0A       		.byte	0xa
 4744 053e F5       		.byte	0xf5
 4745 053f 74050000 		.4byte	0x574
 4746 0543 16       		.uleb128 0x16
 4747 0544 52495200 		.ascii	"RIR\000"
 4748 0548 0A       		.byte	0xa
 4749 0549 F7       		.byte	0xf7
 4750 054a 04010000 		.4byte	0x104
 4751 054e 00       		.byte	0
 4752 054f 08       		.uleb128 0x8
 4753 0550 BE310000 		.4byte	.LASF94
 4754 0554 0A       		.byte	0xa
 4755 0555 F8       		.byte	0xf8
 4756 0556 04010000 		.4byte	0x104
 4757 055a 04       		.byte	0x4
 4758 055b 08       		.uleb128 0x8
 4759 055c 4F290000 		.4byte	.LASF95
 4760 0560 0A       		.byte	0xa
 4761 0561 F9       		.byte	0xf9
 4762 0562 04010000 		.4byte	0x104
 4763 0566 08       		.byte	0x8
 4764 0567 08       		.uleb128 0x8
 4765 0568 01250000 		.4byte	.LASF96
 4766 056c 0A       		.byte	0xa
 4767 056d FA       		.byte	0xfa
 4768 056e 04010000 		.4byte	0x104
 4769 0572 0C       		.byte	0xc
 4770 0573 00       		.byte	0
 4771 0574 03       		.uleb128 0x3
 4772 0575 40300000 		.4byte	.LASF97
 4773 0579 0A       		.byte	0xa
 4774 057a FB       		.byte	0xfb
 4775 057b 3B050000 		.4byte	0x53b
 4776 057f 17       		.uleb128 0x17
ARM GAS  /tmp/ccTUBOn1.s 			page 85


 4777 0580 08       		.byte	0x8
 4778 0581 0A       		.byte	0xa
 4779 0582 0101     		.2byte	0x101
 4780 0584 A3050000 		.4byte	0x5a3
 4781 0588 09       		.uleb128 0x9
 4782 0589 46523100 		.ascii	"FR1\000"
 4783 058d 0A       		.byte	0xa
 4784 058e 0301     		.2byte	0x103
 4785 0590 04010000 		.4byte	0x104
 4786 0594 00       		.byte	0
 4787 0595 09       		.uleb128 0x9
 4788 0596 46523200 		.ascii	"FR2\000"
 4789 059a 0A       		.byte	0xa
 4790 059b 0401     		.2byte	0x104
 4791 059d 04010000 		.4byte	0x104
 4792 05a1 04       		.byte	0x4
 4793 05a2 00       		.byte	0
 4794 05a3 18       		.uleb128 0x18
 4795 05a4 661C0000 		.4byte	.LASF98
 4796 05a8 0A       		.byte	0xa
 4797 05a9 0501     		.2byte	0x105
 4798 05ab 7F050000 		.4byte	0x57f
 4799 05af 19       		.uleb128 0x19
 4800 05b0 2003     		.2byte	0x320
 4801 05b2 0A       		.byte	0xa
 4802 05b3 0B01     		.2byte	0x10b
 4803 05b5 E5060000 		.4byte	0x6e5
 4804 05b9 09       		.uleb128 0x9
 4805 05ba 4D435200 		.ascii	"MCR\000"
 4806 05be 0A       		.byte	0xa
 4807 05bf 0D01     		.2byte	0x10d
 4808 05c1 04010000 		.4byte	0x104
 4809 05c5 00       		.byte	0
 4810 05c6 09       		.uleb128 0x9
 4811 05c7 4D535200 		.ascii	"MSR\000"
 4812 05cb 0A       		.byte	0xa
 4813 05cc 0E01     		.2byte	0x10e
 4814 05ce 04010000 		.4byte	0x104
 4815 05d2 04       		.byte	0x4
 4816 05d3 09       		.uleb128 0x9
 4817 05d4 54535200 		.ascii	"TSR\000"
 4818 05d8 0A       		.byte	0xa
 4819 05d9 0F01     		.2byte	0x10f
 4820 05db 04010000 		.4byte	0x104
 4821 05df 08       		.byte	0x8
 4822 05e0 0A       		.uleb128 0xa
 4823 05e1 E0180000 		.4byte	.LASF99
 4824 05e5 0A       		.byte	0xa
 4825 05e6 1001     		.2byte	0x110
 4826 05e8 04010000 		.4byte	0x104
 4827 05ec 0C       		.byte	0xc
 4828 05ed 0A       		.uleb128 0xa
 4829 05ee AF1A0000 		.4byte	.LASF100
 4830 05f2 0A       		.byte	0xa
 4831 05f3 1101     		.2byte	0x111
 4832 05f5 04010000 		.4byte	0x104
 4833 05f9 10       		.byte	0x10
ARM GAS  /tmp/ccTUBOn1.s 			page 86


 4834 05fa 09       		.uleb128 0x9
 4835 05fb 49455200 		.ascii	"IER\000"
 4836 05ff 0A       		.byte	0xa
 4837 0600 1201     		.2byte	0x112
 4838 0602 04010000 		.4byte	0x104
 4839 0606 14       		.byte	0x14
 4840 0607 09       		.uleb128 0x9
 4841 0608 45535200 		.ascii	"ESR\000"
 4842 060c 0A       		.byte	0xa
 4843 060d 1301     		.2byte	0x113
 4844 060f 04010000 		.4byte	0x104
 4845 0613 18       		.byte	0x18
 4846 0614 09       		.uleb128 0x9
 4847 0615 42545200 		.ascii	"BTR\000"
 4848 0619 0A       		.byte	0xa
 4849 061a 1401     		.2byte	0x114
 4850 061c 04010000 		.4byte	0x104
 4851 0620 1C       		.byte	0x1c
 4852 0621 0A       		.uleb128 0xa
 4853 0622 31340000 		.4byte	.LASF101
 4854 0626 0A       		.byte	0xa
 4855 0627 1501     		.2byte	0x115
 4856 0629 E5060000 		.4byte	0x6e5
 4857 062d 20       		.byte	0x20
 4858 062e 1A       		.uleb128 0x1a
 4859 062f BF1D0000 		.4byte	.LASF102
 4860 0633 0A       		.byte	0xa
 4861 0634 1601     		.2byte	0x116
 4862 0636 F5060000 		.4byte	0x6f5
 4863 063a 8001     		.2byte	0x180
 4864 063c 1A       		.uleb128 0x1a
 4865 063d 323C0000 		.4byte	.LASF103
 4866 0641 0A       		.byte	0xa
 4867 0642 1701     		.2byte	0x117
 4868 0644 05070000 		.4byte	0x705
 4869 0648 B001     		.2byte	0x1b0
 4870 064a 1A       		.uleb128 0x1a
 4871 064b 3B340000 		.4byte	.LASF104
 4872 064f 0A       		.byte	0xa
 4873 0650 1801     		.2byte	0x118
 4874 0652 15070000 		.4byte	0x715
 4875 0656 D001     		.2byte	0x1d0
 4876 0658 1B       		.uleb128 0x1b
 4877 0659 464D5200 		.ascii	"FMR\000"
 4878 065d 0A       		.byte	0xa
 4879 065e 1901     		.2byte	0x119
 4880 0660 04010000 		.4byte	0x104
 4881 0664 0002     		.2byte	0x200
 4882 0666 1A       		.uleb128 0x1a
 4883 0667 F6100000 		.4byte	.LASF105
 4884 066b 0A       		.byte	0xa
 4885 066c 1A01     		.2byte	0x11a
 4886 066e 04010000 		.4byte	0x104
 4887 0672 0402     		.2byte	0x204
 4888 0674 1A       		.uleb128 0x1a
 4889 0675 45340000 		.4byte	.LASF106
 4890 0679 0A       		.byte	0xa
ARM GAS  /tmp/ccTUBOn1.s 			page 87


 4891 067a 1B01     		.2byte	0x11b
 4892 067c F9000000 		.4byte	0xf9
 4893 0680 0802     		.2byte	0x208
 4894 0682 1A       		.uleb128 0x1a
 4895 0683 D0370000 		.4byte	.LASF107
 4896 0687 0A       		.byte	0xa
 4897 0688 1C01     		.2byte	0x11c
 4898 068a 04010000 		.4byte	0x104
 4899 068e 0C02     		.2byte	0x20c
 4900 0690 1A       		.uleb128 0x1a
 4901 0691 4F340000 		.4byte	.LASF108
 4902 0695 0A       		.byte	0xa
 4903 0696 1D01     		.2byte	0x11d
 4904 0698 F9000000 		.4byte	0xf9
 4905 069c 1002     		.2byte	0x210
 4906 069e 1A       		.uleb128 0x1a
 4907 069f DC290000 		.4byte	.LASF109
 4908 06a3 0A       		.byte	0xa
 4909 06a4 1E01     		.2byte	0x11e
 4910 06a6 04010000 		.4byte	0x104
 4911 06aa 1402     		.2byte	0x214
 4912 06ac 1A       		.uleb128 0x1a
 4913 06ad 59340000 		.4byte	.LASF110
 4914 06b1 0A       		.byte	0xa
 4915 06b2 1F01     		.2byte	0x11f
 4916 06b4 F9000000 		.4byte	0xf9
 4917 06b8 1802     		.2byte	0x218
 4918 06ba 1A       		.uleb128 0x1a
 4919 06bb D5060000 		.4byte	.LASF111
 4920 06bf 0A       		.byte	0xa
 4921 06c0 2001     		.2byte	0x120
 4922 06c2 04010000 		.4byte	0x104
 4923 06c6 1C02     		.2byte	0x21c
 4924 06c8 1A       		.uleb128 0x1a
 4925 06c9 63340000 		.4byte	.LASF112
 4926 06cd 0A       		.byte	0xa
 4927 06ce 2101     		.2byte	0x121
 4928 06d0 D0040000 		.4byte	0x4d0
 4929 06d4 2002     		.2byte	0x220
 4930 06d6 1A       		.uleb128 0x1a
 4931 06d7 1A090000 		.4byte	.LASF113
 4932 06db 0A       		.byte	0xa
 4933 06dc 2201     		.2byte	0x122
 4934 06de 25070000 		.4byte	0x725
 4935 06e2 4002     		.2byte	0x240
 4936 06e4 00       		.byte	0
 4937 06e5 11       		.uleb128 0x11
 4938 06e6 F9000000 		.4byte	0xf9
 4939 06ea F5060000 		.4byte	0x6f5
 4940 06ee 12       		.uleb128 0x12
 4941 06ef B7000000 		.4byte	0xb7
 4942 06f3 57       		.byte	0x57
 4943 06f4 00       		.byte	0
 4944 06f5 11       		.uleb128 0x11
 4945 06f6 30050000 		.4byte	0x530
 4946 06fa 05070000 		.4byte	0x705
 4947 06fe 12       		.uleb128 0x12
ARM GAS  /tmp/ccTUBOn1.s 			page 88


 4948 06ff B7000000 		.4byte	0xb7
 4949 0703 02       		.byte	0x2
 4950 0704 00       		.byte	0
 4951 0705 11       		.uleb128 0x11
 4952 0706 74050000 		.4byte	0x574
 4953 070a 15070000 		.4byte	0x715
 4954 070e 12       		.uleb128 0x12
 4955 070f B7000000 		.4byte	0xb7
 4956 0713 01       		.byte	0x1
 4957 0714 00       		.byte	0
 4958 0715 11       		.uleb128 0x11
 4959 0716 F9000000 		.4byte	0xf9
 4960 071a 25070000 		.4byte	0x725
 4961 071e 12       		.uleb128 0x12
 4962 071f B7000000 		.4byte	0xb7
 4963 0723 0B       		.byte	0xb
 4964 0724 00       		.byte	0
 4965 0725 11       		.uleb128 0x11
 4966 0726 A3050000 		.4byte	0x5a3
 4967 072a 35070000 		.4byte	0x735
 4968 072e 12       		.uleb128 0x12
 4969 072f B7000000 		.4byte	0xb7
 4970 0733 1B       		.byte	0x1b
 4971 0734 00       		.byte	0
 4972 0735 18       		.uleb128 0x18
 4973 0736 20160000 		.4byte	.LASF114
 4974 073a 0A       		.byte	0xa
 4975 073b 2301     		.2byte	0x123
 4976 073d AF050000 		.4byte	0x5af
 4977 0741 17       		.uleb128 0x17
 4978 0742 18       		.byte	0x18
 4979 0743 0A       		.byte	0xa
 4980 0744 6B01     		.2byte	0x16b
 4981 0746 98070000 		.4byte	0x798
 4982 074a 09       		.uleb128 0x9
 4983 074b 435200   		.ascii	"CR\000"
 4984 074e 0A       		.byte	0xa
 4985 074f 6D01     		.2byte	0x16d
 4986 0751 04010000 		.4byte	0x104
 4987 0755 00       		.byte	0
 4988 0756 0A       		.uleb128 0xa
 4989 0757 58360000 		.4byte	.LASF115
 4990 075b 0A       		.byte	0xa
 4991 075c 6E01     		.2byte	0x16e
 4992 075e 04010000 		.4byte	0x104
 4993 0762 04       		.byte	0x4
 4994 0763 09       		.uleb128 0x9
 4995 0764 50415200 		.ascii	"PAR\000"
 4996 0768 0A       		.byte	0xa
 4997 0769 6F01     		.2byte	0x16f
 4998 076b 04010000 		.4byte	0x104
 4999 076f 08       		.byte	0x8
 5000 0770 0A       		.uleb128 0xa
 5001 0771 60060000 		.4byte	.LASF116
 5002 0775 0A       		.byte	0xa
 5003 0776 7001     		.2byte	0x170
 5004 0778 04010000 		.4byte	0x104
ARM GAS  /tmp/ccTUBOn1.s 			page 89


 5005 077c 0C       		.byte	0xc
 5006 077d 0A       		.uleb128 0xa
 5007 077e 420C0000 		.4byte	.LASF117
 5008 0782 0A       		.byte	0xa
 5009 0783 7101     		.2byte	0x171
 5010 0785 04010000 		.4byte	0x104
 5011 0789 10       		.byte	0x10
 5012 078a 09       		.uleb128 0x9
 5013 078b 46435200 		.ascii	"FCR\000"
 5014 078f 0A       		.byte	0xa
 5015 0790 7201     		.2byte	0x172
 5016 0792 04010000 		.4byte	0x104
 5017 0796 14       		.byte	0x14
 5018 0797 00       		.byte	0
 5019 0798 18       		.uleb128 0x18
 5020 0799 4C0C0000 		.4byte	.LASF118
 5021 079d 0A       		.byte	0xa
 5022 079e 7301     		.2byte	0x173
 5023 07a0 41070000 		.4byte	0x741
 5024 07a4 11       		.uleb128 0x11
 5025 07a5 04010000 		.4byte	0x104
 5026 07a9 B4070000 		.4byte	0x7b4
 5027 07ad 12       		.uleb128 0x12
 5028 07ae B7000000 		.4byte	0xb7
 5029 07b2 01       		.byte	0x1
 5030 07b3 00       		.byte	0
 5031 07b4 05       		.uleb128 0x5
 5032 07b5 A4070000 		.4byte	0x7a4
 5033 07b9 11       		.uleb128 0x11
 5034 07ba 04010000 		.4byte	0x104
 5035 07be C9070000 		.4byte	0x7c9
 5036 07c2 12       		.uleb128 0x12
 5037 07c3 B7000000 		.4byte	0xb7
 5038 07c7 03       		.byte	0x3
 5039 07c8 00       		.byte	0
 5040 07c9 05       		.uleb128 0x5
 5041 07ca B9070000 		.4byte	0x7b9
 5042 07ce 17       		.uleb128 0x17
 5043 07cf 28       		.byte	0x28
 5044 07d0 0A       		.byte	0xa
 5045 07d1 3F02     		.2byte	0x23f
 5046 07d3 59080000 		.4byte	0x859
 5047 07d7 09       		.uleb128 0x9
 5048 07d8 43523100 		.ascii	"CR1\000"
 5049 07dc 0A       		.byte	0xa
 5050 07dd 4102     		.2byte	0x241
 5051 07df 04010000 		.4byte	0x104
 5052 07e3 00       		.byte	0
 5053 07e4 09       		.uleb128 0x9
 5054 07e5 43523200 		.ascii	"CR2\000"
 5055 07e9 0A       		.byte	0xa
 5056 07ea 4202     		.2byte	0x242
 5057 07ec 04010000 		.4byte	0x104
 5058 07f0 04       		.byte	0x4
 5059 07f1 0A       		.uleb128 0xa
 5060 07f2 6D410000 		.4byte	.LASF119
 5061 07f6 0A       		.byte	0xa
ARM GAS  /tmp/ccTUBOn1.s 			page 90


 5062 07f7 4302     		.2byte	0x243
 5063 07f9 04010000 		.4byte	0x104
 5064 07fd 08       		.byte	0x8
 5065 07fe 0A       		.uleb128 0xa
 5066 07ff 72410000 		.4byte	.LASF120
 5067 0803 0A       		.byte	0xa
 5068 0804 4402     		.2byte	0x244
 5069 0806 04010000 		.4byte	0x104
 5070 080a 0C       		.byte	0xc
 5071 080b 09       		.uleb128 0x9
 5072 080c 445200   		.ascii	"DR\000"
 5073 080f 0A       		.byte	0xa
 5074 0810 4502     		.2byte	0x245
 5075 0812 04010000 		.4byte	0x104
 5076 0816 10       		.byte	0x10
 5077 0817 09       		.uleb128 0x9
 5078 0818 53523100 		.ascii	"SR1\000"
 5079 081c 0A       		.byte	0xa
 5080 081d 4602     		.2byte	0x246
 5081 081f 04010000 		.4byte	0x104
 5082 0823 14       		.byte	0x14
 5083 0824 09       		.uleb128 0x9
 5084 0825 53523200 		.ascii	"SR2\000"
 5085 0829 0A       		.byte	0xa
 5086 082a 4702     		.2byte	0x247
 5087 082c 04010000 		.4byte	0x104
 5088 0830 18       		.byte	0x18
 5089 0831 09       		.uleb128 0x9
 5090 0832 43435200 		.ascii	"CCR\000"
 5091 0836 0A       		.byte	0xa
 5092 0837 4802     		.2byte	0x248
 5093 0839 04010000 		.4byte	0x104
 5094 083d 1C       		.byte	0x1c
 5095 083e 0A       		.uleb128 0xa
 5096 083f 0F080000 		.4byte	.LASF121
 5097 0843 0A       		.byte	0xa
 5098 0844 4902     		.2byte	0x249
 5099 0846 04010000 		.4byte	0x104
 5100 084a 20       		.byte	0x20
 5101 084b 0A       		.uleb128 0xa
 5102 084c EE3E0000 		.4byte	.LASF122
 5103 0850 0A       		.byte	0xa
 5104 0851 4A02     		.2byte	0x24a
 5105 0853 04010000 		.4byte	0x104
 5106 0857 24       		.byte	0x24
 5107 0858 00       		.byte	0
 5108 0859 18       		.uleb128 0x18
 5109 085a F5240000 		.4byte	.LASF123
 5110 085e 0A       		.byte	0xa
 5111 085f 4B02     		.2byte	0x24b
 5112 0861 CE070000 		.4byte	0x7ce
 5113 0865 17       		.uleb128 0x17
 5114 0866 24       		.byte	0x24
 5115 0867 0A       		.byte	0xa
 5116 0868 DB02     		.2byte	0x2db
 5117 086a E2080000 		.4byte	0x8e2
 5118 086e 09       		.uleb128 0x9
ARM GAS  /tmp/ccTUBOn1.s 			page 91


 5119 086f 43523100 		.ascii	"CR1\000"
 5120 0873 0A       		.byte	0xa
 5121 0874 DD02     		.2byte	0x2dd
 5122 0876 04010000 		.4byte	0x104
 5123 087a 00       		.byte	0
 5124 087b 09       		.uleb128 0x9
 5125 087c 43523200 		.ascii	"CR2\000"
 5126 0880 0A       		.byte	0xa
 5127 0881 DE02     		.2byte	0x2de
 5128 0883 04010000 		.4byte	0x104
 5129 0887 04       		.byte	0x4
 5130 0888 09       		.uleb128 0x9
 5131 0889 535200   		.ascii	"SR\000"
 5132 088c 0A       		.byte	0xa
 5133 088d DF02     		.2byte	0x2df
 5134 088f 04010000 		.4byte	0x104
 5135 0893 08       		.byte	0x8
 5136 0894 09       		.uleb128 0x9
 5137 0895 445200   		.ascii	"DR\000"
 5138 0898 0A       		.byte	0xa
 5139 0899 E002     		.2byte	0x2e0
 5140 089b 04010000 		.4byte	0x104
 5141 089f 0C       		.byte	0xc
 5142 08a0 0A       		.uleb128 0xa
 5143 08a1 620B0000 		.4byte	.LASF124
 5144 08a5 0A       		.byte	0xa
 5145 08a6 E102     		.2byte	0x2e1
 5146 08a8 04010000 		.4byte	0x104
 5147 08ac 10       		.byte	0x10
 5148 08ad 0A       		.uleb128 0xa
 5149 08ae B5110000 		.4byte	.LASF125
 5150 08b2 0A       		.byte	0xa
 5151 08b3 E202     		.2byte	0x2e2
 5152 08b5 04010000 		.4byte	0x104
 5153 08b9 14       		.byte	0x14
 5154 08ba 0A       		.uleb128 0xa
 5155 08bb FD0F0000 		.4byte	.LASF126
 5156 08bf 0A       		.byte	0xa
 5157 08c0 E302     		.2byte	0x2e3
 5158 08c2 04010000 		.4byte	0x104
 5159 08c6 18       		.byte	0x18
 5160 08c7 0A       		.uleb128 0xa
 5161 08c8 513A0000 		.4byte	.LASF127
 5162 08cc 0A       		.byte	0xa
 5163 08cd E402     		.2byte	0x2e4
 5164 08cf 04010000 		.4byte	0x104
 5165 08d3 1C       		.byte	0x1c
 5166 08d4 0A       		.uleb128 0xa
 5167 08d5 FA0A0000 		.4byte	.LASF128
 5168 08d9 0A       		.byte	0xa
 5169 08da E502     		.2byte	0x2e5
 5170 08dc 04010000 		.4byte	0x104
 5171 08e0 20       		.byte	0x20
 5172 08e1 00       		.byte	0
 5173 08e2 18       		.uleb128 0x18
 5174 08e3 AC360000 		.4byte	.LASF129
 5175 08e7 0A       		.byte	0xa
ARM GAS  /tmp/ccTUBOn1.s 			page 92


 5176 08e8 E602     		.2byte	0x2e6
 5177 08ea 65080000 		.4byte	0x865
 5178 08ee 17       		.uleb128 0x17
 5179 08ef 1C       		.byte	0x1c
 5180 08f0 0A       		.byte	0xa
 5181 08f1 0903     		.2byte	0x309
 5182 08f3 51090000 		.4byte	0x951
 5183 08f7 09       		.uleb128 0x9
 5184 08f8 535200   		.ascii	"SR\000"
 5185 08fb 0A       		.byte	0xa
 5186 08fc 0B03     		.2byte	0x30b
 5187 08fe 04010000 		.4byte	0x104
 5188 0902 00       		.byte	0
 5189 0903 09       		.uleb128 0x9
 5190 0904 445200   		.ascii	"DR\000"
 5191 0907 0A       		.byte	0xa
 5192 0908 0C03     		.2byte	0x30c
 5193 090a 04010000 		.4byte	0x104
 5194 090e 04       		.byte	0x4
 5195 090f 09       		.uleb128 0x9
 5196 0910 42525200 		.ascii	"BRR\000"
 5197 0914 0A       		.byte	0xa
 5198 0915 0D03     		.2byte	0x30d
 5199 0917 04010000 		.4byte	0x104
 5200 091b 08       		.byte	0x8
 5201 091c 09       		.uleb128 0x9
 5202 091d 43523100 		.ascii	"CR1\000"
 5203 0921 0A       		.byte	0xa
 5204 0922 0E03     		.2byte	0x30e
 5205 0924 04010000 		.4byte	0x104
 5206 0928 0C       		.byte	0xc
 5207 0929 09       		.uleb128 0x9
 5208 092a 43523200 		.ascii	"CR2\000"
 5209 092e 0A       		.byte	0xa
 5210 092f 0F03     		.2byte	0x30f
 5211 0931 04010000 		.4byte	0x104
 5212 0935 10       		.byte	0x10
 5213 0936 09       		.uleb128 0x9
 5214 0937 43523300 		.ascii	"CR3\000"
 5215 093b 0A       		.byte	0xa
 5216 093c 1003     		.2byte	0x310
 5217 093e 04010000 		.4byte	0x104
 5218 0942 14       		.byte	0x14
 5219 0943 0A       		.uleb128 0xa
 5220 0944 5F3E0000 		.4byte	.LASF130
 5221 0948 0A       		.byte	0xa
 5222 0949 1103     		.2byte	0x311
 5223 094b 04010000 		.4byte	0x104
 5224 094f 18       		.byte	0x18
 5225 0950 00       		.byte	0
 5226 0951 18       		.uleb128 0x18
 5227 0952 5E400000 		.4byte	.LASF131
 5228 0956 0A       		.byte	0xa
 5229 0957 1203     		.2byte	0x312
 5230 0959 EE080000 		.4byte	0x8ee
 5231 095d 11       		.uleb128 0x11
 5232 095e 04010000 		.4byte	0x104
ARM GAS  /tmp/ccTUBOn1.s 			page 93


 5233 0962 6D090000 		.4byte	0x96d
 5234 0966 12       		.uleb128 0x12
 5235 0967 B7000000 		.4byte	0xb7
 5236 096b 0E       		.byte	0xe
 5237 096c 00       		.byte	0
 5238 096d 05       		.uleb128 0x5
 5239 096e 5D090000 		.4byte	0x95d
 5240 0972 03       		.uleb128 0x3
 5241 0973 99290000 		.4byte	.LASF132
 5242 0977 0B       		.byte	0xb
 5243 0978 65       		.byte	0x65
 5244 0979 9A030000 		.4byte	0x39a
 5245 097d 03       		.uleb128 0x3
 5246 097e 690D0000 		.4byte	.LASF133
 5247 0982 0B       		.byte	0xb
 5248 0983 6D       		.byte	0x6d
 5249 0984 09010000 		.4byte	0x109
 5250 0988 07       		.uleb128 0x7
 5251 0989 6C280000 		.4byte	.LASF134
 5252 098d 04       		.byte	0x4
 5253 098e 0B       		.byte	0xb
 5254 098f 89       		.byte	0x89
 5255 0990 A1090000 		.4byte	0x9a1
 5256 0994 16       		.uleb128 0x16
 5257 0995 72313300 		.ascii	"r13\000"
 5258 0999 0B       		.byte	0xb
 5259 099a 8A       		.byte	0x8a
 5260 099b E20A0000 		.4byte	0xae2
 5261 099f 00       		.byte	0
 5262 09a0 00       		.byte	0
 5263 09a1 07       		.uleb128 0x7
 5264 09a2 41000000 		.4byte	.LASF135
 5265 09a6 64       		.byte	0x64
 5266 09a7 0C       		.byte	0xc
 5267 09a8 F4       		.byte	0xf4
 5268 09a9 E20A0000 		.4byte	0xae2
 5269 09ad 16       		.uleb128 0x16
 5270 09ae 73313600 		.ascii	"s16\000"
 5271 09b2 0C       		.byte	0xc
 5272 09b3 F6       		.byte	0xf6
 5273 09b4 72090000 		.4byte	0x972
 5274 09b8 00       		.byte	0
 5275 09b9 16       		.uleb128 0x16
 5276 09ba 73313700 		.ascii	"s17\000"
 5277 09be 0C       		.byte	0xc
 5278 09bf F7       		.byte	0xf7
 5279 09c0 72090000 		.4byte	0x972
 5280 09c4 04       		.byte	0x4
 5281 09c5 16       		.uleb128 0x16
 5282 09c6 73313800 		.ascii	"s18\000"
 5283 09ca 0C       		.byte	0xc
 5284 09cb F8       		.byte	0xf8
 5285 09cc 72090000 		.4byte	0x972
 5286 09d0 08       		.byte	0x8
 5287 09d1 16       		.uleb128 0x16
 5288 09d2 73313900 		.ascii	"s19\000"
 5289 09d6 0C       		.byte	0xc
ARM GAS  /tmp/ccTUBOn1.s 			page 94


 5290 09d7 F9       		.byte	0xf9
 5291 09d8 72090000 		.4byte	0x972
 5292 09dc 0C       		.byte	0xc
 5293 09dd 16       		.uleb128 0x16
 5294 09de 73323000 		.ascii	"s20\000"
 5295 09e2 0C       		.byte	0xc
 5296 09e3 FA       		.byte	0xfa
 5297 09e4 72090000 		.4byte	0x972
 5298 09e8 10       		.byte	0x10
 5299 09e9 16       		.uleb128 0x16
 5300 09ea 73323100 		.ascii	"s21\000"
 5301 09ee 0C       		.byte	0xc
 5302 09ef FB       		.byte	0xfb
 5303 09f0 72090000 		.4byte	0x972
 5304 09f4 14       		.byte	0x14
 5305 09f5 16       		.uleb128 0x16
 5306 09f6 73323200 		.ascii	"s22\000"
 5307 09fa 0C       		.byte	0xc
 5308 09fb FC       		.byte	0xfc
 5309 09fc 72090000 		.4byte	0x972
 5310 0a00 18       		.byte	0x18
 5311 0a01 16       		.uleb128 0x16
 5312 0a02 73323300 		.ascii	"s23\000"
 5313 0a06 0C       		.byte	0xc
 5314 0a07 FD       		.byte	0xfd
 5315 0a08 72090000 		.4byte	0x972
 5316 0a0c 1C       		.byte	0x1c
 5317 0a0d 16       		.uleb128 0x16
 5318 0a0e 73323400 		.ascii	"s24\000"
 5319 0a12 0C       		.byte	0xc
 5320 0a13 FE       		.byte	0xfe
 5321 0a14 72090000 		.4byte	0x972
 5322 0a18 20       		.byte	0x20
 5323 0a19 16       		.uleb128 0x16
 5324 0a1a 73323500 		.ascii	"s25\000"
 5325 0a1e 0C       		.byte	0xc
 5326 0a1f FF       		.byte	0xff
 5327 0a20 72090000 		.4byte	0x972
 5328 0a24 24       		.byte	0x24
 5329 0a25 09       		.uleb128 0x9
 5330 0a26 73323600 		.ascii	"s26\000"
 5331 0a2a 0C       		.byte	0xc
 5332 0a2b 0001     		.2byte	0x100
 5333 0a2d 72090000 		.4byte	0x972
 5334 0a31 28       		.byte	0x28
 5335 0a32 09       		.uleb128 0x9
 5336 0a33 73323700 		.ascii	"s27\000"
 5337 0a37 0C       		.byte	0xc
 5338 0a38 0101     		.2byte	0x101
 5339 0a3a 72090000 		.4byte	0x972
 5340 0a3e 2C       		.byte	0x2c
 5341 0a3f 09       		.uleb128 0x9
 5342 0a40 73323800 		.ascii	"s28\000"
 5343 0a44 0C       		.byte	0xc
 5344 0a45 0201     		.2byte	0x102
 5345 0a47 72090000 		.4byte	0x972
 5346 0a4b 30       		.byte	0x30
ARM GAS  /tmp/ccTUBOn1.s 			page 95


 5347 0a4c 09       		.uleb128 0x9
 5348 0a4d 73323900 		.ascii	"s29\000"
 5349 0a51 0C       		.byte	0xc
 5350 0a52 0301     		.2byte	0x103
 5351 0a54 72090000 		.4byte	0x972
 5352 0a58 34       		.byte	0x34
 5353 0a59 09       		.uleb128 0x9
 5354 0a5a 73333000 		.ascii	"s30\000"
 5355 0a5e 0C       		.byte	0xc
 5356 0a5f 0401     		.2byte	0x104
 5357 0a61 72090000 		.4byte	0x972
 5358 0a65 38       		.byte	0x38
 5359 0a66 09       		.uleb128 0x9
 5360 0a67 73333100 		.ascii	"s31\000"
 5361 0a6b 0C       		.byte	0xc
 5362 0a6c 0501     		.2byte	0x105
 5363 0a6e 72090000 		.4byte	0x972
 5364 0a72 3C       		.byte	0x3c
 5365 0a73 09       		.uleb128 0x9
 5366 0a74 723400   		.ascii	"r4\000"
 5367 0a77 0C       		.byte	0xc
 5368 0a78 0701     		.2byte	0x107
 5369 0a7a 72090000 		.4byte	0x972
 5370 0a7e 40       		.byte	0x40
 5371 0a7f 09       		.uleb128 0x9
 5372 0a80 723500   		.ascii	"r5\000"
 5373 0a83 0C       		.byte	0xc
 5374 0a84 0801     		.2byte	0x108
 5375 0a86 72090000 		.4byte	0x972
 5376 0a8a 44       		.byte	0x44
 5377 0a8b 09       		.uleb128 0x9
 5378 0a8c 723600   		.ascii	"r6\000"
 5379 0a8f 0C       		.byte	0xc
 5380 0a90 0901     		.2byte	0x109
 5381 0a92 72090000 		.4byte	0x972
 5382 0a96 48       		.byte	0x48
 5383 0a97 09       		.uleb128 0x9
 5384 0a98 723700   		.ascii	"r7\000"
 5385 0a9b 0C       		.byte	0xc
 5386 0a9c 0A01     		.2byte	0x10a
 5387 0a9e 72090000 		.4byte	0x972
 5388 0aa2 4C       		.byte	0x4c
 5389 0aa3 09       		.uleb128 0x9
 5390 0aa4 723800   		.ascii	"r8\000"
 5391 0aa7 0C       		.byte	0xc
 5392 0aa8 0B01     		.2byte	0x10b
 5393 0aaa 72090000 		.4byte	0x972
 5394 0aae 50       		.byte	0x50
 5395 0aaf 09       		.uleb128 0x9
 5396 0ab0 723900   		.ascii	"r9\000"
 5397 0ab3 0C       		.byte	0xc
 5398 0ab4 0C01     		.2byte	0x10c
 5399 0ab6 72090000 		.4byte	0x972
 5400 0aba 54       		.byte	0x54
 5401 0abb 09       		.uleb128 0x9
 5402 0abc 72313000 		.ascii	"r10\000"
 5403 0ac0 0C       		.byte	0xc
ARM GAS  /tmp/ccTUBOn1.s 			page 96


 5404 0ac1 0D01     		.2byte	0x10d
 5405 0ac3 72090000 		.4byte	0x972
 5406 0ac7 58       		.byte	0x58
 5407 0ac8 09       		.uleb128 0x9
 5408 0ac9 72313100 		.ascii	"r11\000"
 5409 0acd 0C       		.byte	0xc
 5410 0ace 0E01     		.2byte	0x10e
 5411 0ad0 72090000 		.4byte	0x972
 5412 0ad4 5C       		.byte	0x5c
 5413 0ad5 09       		.uleb128 0x9
 5414 0ad6 6C7200   		.ascii	"lr\000"
 5415 0ad9 0C       		.byte	0xc
 5416 0ada 0F01     		.2byte	0x10f
 5417 0adc 72090000 		.4byte	0x972
 5418 0ae0 60       		.byte	0x60
 5419 0ae1 00       		.byte	0
 5420 0ae2 0B       		.uleb128 0xb
 5421 0ae3 04       		.byte	0x4
 5422 0ae4 A1090000 		.4byte	0x9a1
 5423 0ae8 15       		.uleb128 0x15
 5424 0ae9 04       		.byte	0x4
 5425 0aea 0D       		.byte	0xd
 5426 0aeb 38       		.byte	0x38
 5427 0aec FD0A0000 		.4byte	0xafd
 5428 0af0 08       		.uleb128 0x8
 5429 0af1 24360000 		.4byte	.LASF136
 5430 0af5 0D       		.byte	0xd
 5431 0af6 3C       		.byte	0x3c
 5432 0af7 24010000 		.4byte	0x124
 5433 0afb 00       		.byte	0
 5434 0afc 00       		.byte	0
 5435 0afd 03       		.uleb128 0x3
 5436 0afe 2A3E0000 		.4byte	.LASF137
 5437 0b02 0D       		.byte	0xd
 5438 0b03 3D       		.byte	0x3d
 5439 0b04 E80A0000 		.4byte	0xae8
 5440 0b08 1C       		.uleb128 0x1c
 5441 0b09 04       		.byte	0x4
 5442 0b0a 07       		.byte	0x7
 5443 0b0b FA       		.byte	0xfa
 5444 0b0c 650B0000 		.4byte	0xb65
 5445 0b10 1D       		.uleb128 0x1d
 5446 0b11 3C1C0000 		.4byte	.LASF138
 5447 0b15 07       		.byte	0x7
 5448 0b16 0101     		.2byte	0x101
 5449 0b18 66010000 		.4byte	0x166
 5450 0b1c 1D       		.uleb128 0x1d
 5451 0b1d 04180000 		.4byte	.LASF139
 5452 0b21 07       		.byte	0x7
 5453 0b22 0801     		.2byte	0x108
 5454 0b24 66010000 		.4byte	0x166
 5455 0b28 1D       		.uleb128 0x1d
 5456 0b29 70300000 		.4byte	.LASF140
 5457 0b2d 07       		.byte	0x7
 5458 0b2e 0F01     		.2byte	0x10f
 5459 0b30 9A030000 		.4byte	0x39a
 5460 0b34 1D       		.uleb128 0x1d
ARM GAS  /tmp/ccTUBOn1.s 			page 97


 5461 0b35 3B280000 		.4byte	.LASF141
 5462 0b39 07       		.byte	0x7
 5463 0b3a 1601     		.2byte	0x116
 5464 0b3c 650B0000 		.4byte	0xb65
 5465 0b40 1D       		.uleb128 0x1d
 5466 0b41 F0010000 		.4byte	.LASF142
 5467 0b45 07       		.byte	0x7
 5468 0b46 1E01     		.2byte	0x11e
 5469 0b48 900B0000 		.4byte	0xb90
 5470 0b4c 1D       		.uleb128 0x1d
 5471 0b4d D7300000 		.4byte	.LASF143
 5472 0b51 07       		.byte	0x7
 5473 0b52 2701     		.2byte	0x127
 5474 0b54 C70B0000 		.4byte	0xbc7
 5475 0b58 1D       		.uleb128 0x1d
 5476 0b59 2C370000 		.4byte	.LASF144
 5477 0b5d 07       		.byte	0x7
 5478 0b5e 2F01     		.2byte	0x12f
 5479 0b60 71010000 		.4byte	0x171
 5480 0b64 00       		.byte	0
 5481 0b65 0B       		.uleb128 0xb
 5482 0b66 04       		.byte	0x4
 5483 0b67 B2020000 		.4byte	0x2b2
 5484 0b6b 07       		.uleb128 0x7
 5485 0b6c 98250000 		.4byte	.LASF145
 5486 0b70 0C       		.byte	0xc
 5487 0b71 0E       		.byte	0xe
 5488 0b72 34       		.byte	0x34
 5489 0b73 900B0000 		.4byte	0xb90
 5490 0b77 08       		.uleb128 0x8
 5491 0b78 213A0000 		.4byte	.LASF146
 5492 0b7c 0E       		.byte	0xe
 5493 0b7d 35       		.byte	0x35
 5494 0b7e E7020000 		.4byte	0x2e7
 5495 0b82 00       		.byte	0
 5496 0b83 08       		.uleb128 0x8
 5497 0b84 060E0000 		.4byte	.LASF147
 5498 0b88 0E       		.byte	0xe
 5499 0b89 37       		.byte	0x37
 5500 0b8a 87010000 		.4byte	0x187
 5501 0b8e 08       		.byte	0x8
 5502 0b8f 00       		.byte	0
 5503 0b90 0B       		.uleb128 0xb
 5504 0b91 04       		.byte	0x4
 5505 0b92 6B0B0000 		.4byte	0xb6b
 5506 0b96 07       		.uleb128 0x7
 5507 0b97 DD110000 		.4byte	.LASF148
 5508 0b9b 10       		.byte	0x10
 5509 0b9c 0F       		.byte	0xf
 5510 0b9d 39       		.byte	0x39
 5511 0b9e C70B0000 		.4byte	0xbc7
 5512 0ba2 08       		.uleb128 0x8
 5513 0ba3 35270000 		.4byte	.LASF149
 5514 0ba7 0F       		.byte	0xf
 5515 0ba8 3A       		.byte	0x3a
 5516 0ba9 E7020000 		.4byte	0x2e7
 5517 0bad 00       		.byte	0
ARM GAS  /tmp/ccTUBOn1.s 			page 98


 5518 0bae 08       		.uleb128 0x8
 5519 0baf 87240000 		.4byte	.LASF150
 5520 0bb3 0F       		.byte	0xf
 5521 0bb4 3C       		.byte	0x3c
 5522 0bb5 BD020000 		.4byte	0x2bd
 5523 0bb9 08       		.byte	0x8
 5524 0bba 08       		.uleb128 0x8
 5525 0bbb 32030000 		.4byte	.LASF151
 5526 0bbf 0F       		.byte	0xf
 5527 0bc0 3E       		.byte	0x3e
 5528 0bc1 1C0D0000 		.4byte	0xd1c
 5529 0bc5 0C       		.byte	0xc
 5530 0bc6 00       		.byte	0
 5531 0bc7 0B       		.uleb128 0xb
 5532 0bc8 04       		.byte	0x4
 5533 0bc9 960B0000 		.4byte	0xb96
 5534 0bcd 0B       		.uleb128 0xb
 5535 0bce 04       		.byte	0x4
 5536 0bcf DF0B0000 		.4byte	0xbdf
 5537 0bd3 05       		.uleb128 0x5
 5538 0bd4 CD0B0000 		.4byte	0xbcd
 5539 0bd8 02       		.uleb128 0x2
 5540 0bd9 01       		.byte	0x1
 5541 0bda 08       		.byte	0x8
 5542 0bdb 482B0000 		.4byte	.LASF152
 5543 0bdf 06       		.uleb128 0x6
 5544 0be0 D80B0000 		.4byte	0xbd8
 5545 0be4 0B       		.uleb128 0xb
 5546 0be5 04       		.byte	0x4
 5547 0be6 9C030000 		.4byte	0x39c
 5548 0bea 11       		.uleb128 0x11
 5549 0beb 7D090000 		.4byte	0x97d
 5550 0bef FA0B0000 		.4byte	0xbfa
 5551 0bf3 12       		.uleb128 0x12
 5552 0bf4 B7000000 		.4byte	0xb7
 5553 0bf8 3A       		.byte	0x3a
 5554 0bf9 00       		.byte	0
 5555 0bfa 1E       		.uleb128 0x1e
 5556 0bfb 636800   		.ascii	"ch\000"
 5557 0bfe 07       		.byte	0x7
 5558 0bff 0902     		.2byte	0x209
 5559 0c01 69040000 		.4byte	0x469
 5560 0c05 15       		.uleb128 0x15
 5561 0c06 16       		.byte	0x16
 5562 0c07 10       		.byte	0x10
 5563 0c08 34       		.byte	0x34
 5564 0c09 E60C0000 		.4byte	0xce6
 5565 0c0d 08       		.uleb128 0x8
 5566 0c0e 8D3A0000 		.4byte	.LASF153
 5567 0c12 10       		.byte	0x10
 5568 0c13 35       		.byte	0x35
 5569 0c14 E60C0000 		.4byte	0xce6
 5570 0c18 00       		.byte	0
 5571 0c19 08       		.uleb128 0x8
 5572 0c1a 763E0000 		.4byte	.LASF154
 5573 0c1e 10       		.byte	0x10
 5574 0c1f 36       		.byte	0x36
ARM GAS  /tmp/ccTUBOn1.s 			page 99


 5575 0c20 C9000000 		.4byte	0xc9
 5576 0c24 04       		.byte	0x4
 5577 0c25 08       		.uleb128 0x8
 5578 0c26 5F050000 		.4byte	.LASF155
 5579 0c2a 10       		.byte	0x10
 5580 0c2b 37       		.byte	0x37
 5581 0c2c C9000000 		.4byte	0xc9
 5582 0c30 05       		.byte	0x5
 5583 0c31 08       		.uleb128 0x8
 5584 0c32 CF240000 		.4byte	.LASF156
 5585 0c36 10       		.byte	0x10
 5586 0c37 38       		.byte	0x38
 5587 0c38 D9000000 		.4byte	0xd9
 5588 0c3c 06       		.byte	0x6
 5589 0c3d 08       		.uleb128 0x8
 5590 0c3e 69000000 		.4byte	.LASF157
 5591 0c42 10       		.byte	0x10
 5592 0c43 39       		.byte	0x39
 5593 0c44 C9000000 		.4byte	0xc9
 5594 0c48 08       		.byte	0x8
 5595 0c49 08       		.uleb128 0x8
 5596 0c4a 37220000 		.4byte	.LASF158
 5597 0c4e 10       		.byte	0x10
 5598 0c4f 3A       		.byte	0x3a
 5599 0c50 C9000000 		.4byte	0xc9
 5600 0c54 09       		.byte	0x9
 5601 0c55 08       		.uleb128 0x8
 5602 0c56 E03E0000 		.4byte	.LASF159
 5603 0c5a 10       		.byte	0x10
 5604 0c5b 3B       		.byte	0x3b
 5605 0c5c C9000000 		.4byte	0xc9
 5606 0c60 0A       		.byte	0xa
 5607 0c61 08       		.uleb128 0x8
 5608 0c62 073B0000 		.4byte	.LASF160
 5609 0c66 10       		.byte	0x10
 5610 0c67 3C       		.byte	0x3c
 5611 0c68 C9000000 		.4byte	0xc9
 5612 0c6c 0B       		.byte	0xb
 5613 0c6d 08       		.uleb128 0x8
 5614 0c6e 63080000 		.4byte	.LASF161
 5615 0c72 10       		.byte	0x10
 5616 0c73 3D       		.byte	0x3d
 5617 0c74 C9000000 		.4byte	0xc9
 5618 0c78 0C       		.byte	0xc
 5619 0c79 08       		.uleb128 0x8
 5620 0c7a A0130000 		.4byte	.LASF162
 5621 0c7e 10       		.byte	0x10
 5622 0c7f 3E       		.byte	0x3e
 5623 0c80 C9000000 		.4byte	0xc9
 5624 0c84 0D       		.byte	0xd
 5625 0c85 08       		.uleb128 0x8
 5626 0c86 B5080000 		.4byte	.LASF163
 5627 0c8a 10       		.byte	0x10
 5628 0c8b 3F       		.byte	0x3f
 5629 0c8c C9000000 		.4byte	0xc9
 5630 0c90 0E       		.byte	0xe
 5631 0c91 08       		.uleb128 0x8
ARM GAS  /tmp/ccTUBOn1.s 			page 100


 5632 0c92 64170000 		.4byte	.LASF164
 5633 0c96 10       		.byte	0x10
 5634 0c97 40       		.byte	0x40
 5635 0c98 C9000000 		.4byte	0xc9
 5636 0c9c 0F       		.byte	0xf
 5637 0c9d 08       		.uleb128 0x8
 5638 0c9e 50060000 		.4byte	.LASF165
 5639 0ca2 10       		.byte	0x10
 5640 0ca3 41       		.byte	0x41
 5641 0ca4 C9000000 		.4byte	0xc9
 5642 0ca8 10       		.byte	0x10
 5643 0ca9 08       		.uleb128 0x8
 5644 0caa FF0C0000 		.4byte	.LASF166
 5645 0cae 10       		.byte	0x10
 5646 0caf 43       		.byte	0x43
 5647 0cb0 C9000000 		.4byte	0xc9
 5648 0cb4 11       		.byte	0x11
 5649 0cb5 08       		.uleb128 0x8
 5650 0cb6 D8040000 		.4byte	.LASF167
 5651 0cba 10       		.byte	0x10
 5652 0cbb 44       		.byte	0x44
 5653 0cbc C9000000 		.4byte	0xc9
 5654 0cc0 12       		.byte	0x12
 5655 0cc1 08       		.uleb128 0x8
 5656 0cc2 51240000 		.4byte	.LASF168
 5657 0cc6 10       		.byte	0x10
 5658 0cc7 45       		.byte	0x45
 5659 0cc8 C9000000 		.4byte	0xc9
 5660 0ccc 13       		.byte	0x13
 5661 0ccd 08       		.uleb128 0x8
 5662 0cce 362F0000 		.4byte	.LASF169
 5663 0cd2 10       		.byte	0x10
 5664 0cd3 46       		.byte	0x46
 5665 0cd4 C9000000 		.4byte	0xc9
 5666 0cd8 14       		.byte	0x14
 5667 0cd9 08       		.uleb128 0x8
 5668 0cda CE010000 		.4byte	.LASF170
 5669 0cde 10       		.byte	0x10
 5670 0cdf 48       		.byte	0x48
 5671 0ce0 C9000000 		.4byte	0xc9
 5672 0ce4 15       		.byte	0x15
 5673 0ce5 00       		.byte	0
 5674 0ce6 11       		.uleb128 0x11
 5675 0ce7 D80B0000 		.4byte	0xbd8
 5676 0ceb F60C0000 		.4byte	0xcf6
 5677 0cef 12       		.uleb128 0x12
 5678 0cf0 B7000000 		.4byte	0xb7
 5679 0cf4 03       		.byte	0x3
 5680 0cf5 00       		.byte	0
 5681 0cf6 03       		.uleb128 0x3
 5682 0cf7 9A210000 		.4byte	.LASF171
 5683 0cfb 10       		.byte	0x10
 5684 0cfc 49       		.byte	0x49
 5685 0cfd 050C0000 		.4byte	0xc05
 5686 0d01 06       		.uleb128 0x6
 5687 0d02 F60C0000 		.4byte	0xcf6
 5688 0d06 14       		.uleb128 0x14
ARM GAS  /tmp/ccTUBOn1.s 			page 101


 5689 0d07 C1100000 		.4byte	.LASF172
 5690 0d0b 10       		.byte	0x10
 5691 0d0c 6E       		.byte	0x6e
 5692 0d0d 010D0000 		.4byte	0xd01
 5693 0d11 03       		.uleb128 0x3
 5694 0d12 5D330000 		.4byte	.LASF173
 5695 0d16 0F       		.byte	0xf
 5696 0d17 34       		.byte	0x34
 5697 0d18 960B0000 		.4byte	0xb96
 5698 0d1c 0B       		.uleb128 0xb
 5699 0d1d 04       		.byte	0x4
 5700 0d1e 110D0000 		.4byte	0xd11
 5701 0d22 03       		.uleb128 0x3
 5702 0d23 45110000 		.4byte	.LASF174
 5703 0d27 11       		.byte	0x11
 5704 0d28 34       		.byte	0x34
 5705 0d29 2D0D0000 		.4byte	0xd2d
 5706 0d2d 07       		.uleb128 0x7
 5707 0d2e E00D0000 		.4byte	.LASF175
 5708 0d32 14       		.byte	0x14
 5709 0d33 11       		.byte	0x11
 5710 0d34 39       		.byte	0x39
 5711 0d35 760D0000 		.4byte	0xd76
 5712 0d39 08       		.uleb128 0x8
 5713 0d3a 49040000 		.4byte	.LASF176
 5714 0d3e 11       		.byte	0x11
 5715 0d3f 3A       		.byte	0x3a
 5716 0d40 760D0000 		.4byte	0xd76
 5717 0d44 00       		.byte	0
 5718 0d45 08       		.uleb128 0x8
 5719 0d46 19350000 		.4byte	.LASF177
 5720 0d4a 11       		.byte	0x11
 5721 0d4b 3D       		.byte	0x3d
 5722 0d4c BD020000 		.4byte	0x2bd
 5723 0d50 04       		.byte	0x4
 5724 0d51 08       		.uleb128 0x8
 5725 0d52 DE050000 		.4byte	.LASF178
 5726 0d56 11       		.byte	0x11
 5727 0d57 3F       		.byte	0x3f
 5728 0d58 71010000 		.4byte	0x171
 5729 0d5c 08       		.byte	0x8
 5730 0d5d 08       		.uleb128 0x8
 5731 0d5e 7B370000 		.4byte	.LASF179
 5732 0d62 11       		.byte	0x11
 5733 0d63 41       		.byte	0x41
 5734 0d64 7C010000 		.4byte	0x17c
 5735 0d68 0C       		.byte	0xc
 5736 0d69 08       		.uleb128 0x8
 5737 0d6a E7170000 		.4byte	.LASF180
 5738 0d6e 11       		.byte	0x11
 5739 0d6f 43       		.byte	0x43
 5740 0d70 7C010000 		.4byte	0x17c
 5741 0d74 10       		.byte	0x10
 5742 0d75 00       		.byte	0
 5743 0d76 0B       		.uleb128 0xb
 5744 0d77 04       		.byte	0x4
 5745 0d78 220D0000 		.4byte	0xd22
ARM GAS  /tmp/ccTUBOn1.s 			page 102


 5746 0d7c 07       		.uleb128 0x7
 5747 0d7d 84370000 		.4byte	.LASF181
 5748 0d81 04       		.byte	0x4
 5749 0d82 11       		.byte	0x11
 5750 0d83 4A       		.byte	0x4a
 5751 0d84 950D0000 		.4byte	0xd95
 5752 0d88 08       		.uleb128 0x8
 5753 0d89 5D360000 		.4byte	.LASF182
 5754 0d8d 11       		.byte	0x11
 5755 0d8e 4B       		.byte	0x4b
 5756 0d8f 760D0000 		.4byte	0xd76
 5757 0d93 00       		.byte	0
 5758 0d94 00       		.byte	0
 5759 0d95 03       		.uleb128 0x3
 5760 0d96 75220000 		.4byte	.LASF183
 5761 0d9a 11       		.byte	0x11
 5762 0d9b 4E       		.byte	0x4e
 5763 0d9c 7C0D0000 		.4byte	0xd7c
 5764 0da0 03       		.uleb128 0x3
 5765 0da1 42180000 		.4byte	.LASF184
 5766 0da5 12       		.byte	0x12
 5767 0da6 3F       		.byte	0x3f
 5768 0da7 AB0D0000 		.4byte	0xdab
 5769 0dab 07       		.uleb128 0x7
 5770 0dac DD1C0000 		.4byte	.LASF185
 5771 0db0 24       		.byte	0x24
 5772 0db1 12       		.byte	0x12
 5773 0db2 4D       		.byte	0x4d
 5774 0db3 180E0000 		.4byte	0xe18
 5775 0db7 08       		.uleb128 0x8
 5776 0db8 2E080000 		.4byte	.LASF186
 5777 0dbc 12       		.byte	0x12
 5778 0dbd 4E       		.byte	0x4e
 5779 0dbe E7020000 		.4byte	0x2e7
 5780 0dc2 00       		.byte	0
 5781 0dc3 08       		.uleb128 0x8
 5782 0dc4 5E320000 		.4byte	.LASF187
 5783 0dc8 12       		.byte	0x12
 5784 0dc9 4F       		.byte	0x4f
 5785 0dca 1F010000 		.4byte	0x11f
 5786 0dce 08       		.byte	0x8
 5787 0dcf 08       		.uleb128 0x8
 5788 0dd0 D51D0000 		.4byte	.LASF188
 5789 0dd4 12       		.byte	0x12
 5790 0dd5 50       		.byte	0x50
 5791 0dd6 3A0E0000 		.4byte	0xe3a
 5792 0dda 0C       		.byte	0xc
 5793 0ddb 08       		.uleb128 0x8
 5794 0ddc 6C070000 		.4byte	.LASF189
 5795 0de0 12       		.byte	0x12
 5796 0de1 51       		.byte	0x51
 5797 0de2 3A0E0000 		.4byte	0xe3a
 5798 0de6 10       		.byte	0x10
 5799 0de7 08       		.uleb128 0x8
 5800 0de8 572A0000 		.4byte	.LASF190
 5801 0dec 12       		.byte	0x12
 5802 0ded 53       		.byte	0x53
ARM GAS  /tmp/ccTUBOn1.s 			page 103


 5803 0dee 3A0E0000 		.4byte	0xe3a
 5804 0df2 14       		.byte	0x14
 5805 0df3 08       		.uleb128 0x8
 5806 0df4 41280000 		.4byte	.LASF191
 5807 0df8 12       		.byte	0x12
 5808 0df9 54       		.byte	0x54
 5809 0dfa 3A0E0000 		.4byte	0xe3a
 5810 0dfe 18       		.byte	0x18
 5811 0dff 08       		.uleb128 0x8
 5812 0e00 CE300000 		.4byte	.LASF192
 5813 0e04 12       		.byte	0x12
 5814 0e05 55       		.byte	0x55
 5815 0e06 180E0000 		.4byte	0xe18
 5816 0e0a 1C       		.byte	0x1c
 5817 0e0b 08       		.uleb128 0x8
 5818 0e0c DA2B0000 		.4byte	.LASF193
 5819 0e10 12       		.byte	0x12
 5820 0e11 56       		.byte	0x56
 5821 0e12 9A030000 		.4byte	0x39a
 5822 0e16 20       		.byte	0x20
 5823 0e17 00       		.byte	0
 5824 0e18 03       		.uleb128 0x3
 5825 0e19 FD060000 		.4byte	.LASF194
 5826 0e1d 12       		.byte	0x12
 5827 0e1e 42       		.byte	0x42
 5828 0e1f 230E0000 		.4byte	0xe23
 5829 0e23 0B       		.uleb128 0xb
 5830 0e24 04       		.byte	0x4
 5831 0e25 290E0000 		.4byte	0xe29
 5832 0e29 0D       		.uleb128 0xd
 5833 0e2a 340E0000 		.4byte	0xe34
 5834 0e2e 0E       		.uleb128 0xe
 5835 0e2f 340E0000 		.4byte	0xe34
 5836 0e33 00       		.byte	0
 5837 0e34 0B       		.uleb128 0xb
 5838 0e35 04       		.byte	0x4
 5839 0e36 A00D0000 		.4byte	0xda0
 5840 0e3a 0B       		.uleb128 0xb
 5841 0e3b 04       		.byte	0x4
 5842 0e3c C9000000 		.4byte	0xc9
 5843 0e40 03       		.uleb128 0x3
 5844 0e41 6E080000 		.4byte	.LASF195
 5845 0e45 12       		.byte	0x12
 5846 0e46 64       		.byte	0x64
 5847 0e47 A00D0000 		.4byte	0xda0
 5848 0e4b 03       		.uleb128 0x3
 5849 0e4c 7D400000 		.4byte	.LASF196
 5850 0e50 12       		.byte	0x12
 5851 0e51 71       		.byte	0x71
 5852 0e52 A00D0000 		.4byte	0xda0
 5853 0e56 1F       		.uleb128 0x1f
 5854 0e57 14010000 		.4byte	0x114
 5855 0e5b 6F0E0000 		.4byte	0xe6f
 5856 0e5f 0E       		.uleb128 0xe
 5857 0e60 9A030000 		.4byte	0x39a
 5858 0e64 0E       		.uleb128 0xe
 5859 0e65 6F0E0000 		.4byte	0xe6f
ARM GAS  /tmp/ccTUBOn1.s 			page 104


 5860 0e69 0E       		.uleb128 0xe
 5861 0e6a 14010000 		.4byte	0x114
 5862 0e6e 00       		.byte	0
 5863 0e6f 0B       		.uleb128 0xb
 5864 0e70 04       		.byte	0x4
 5865 0e71 D4000000 		.4byte	0xd4
 5866 0e75 0B       		.uleb128 0xb
 5867 0e76 04       		.byte	0x4
 5868 0e77 560E0000 		.4byte	0xe56
 5869 0e7b 1F       		.uleb128 0x1f
 5870 0e7c 14010000 		.4byte	0x114
 5871 0e80 940E0000 		.4byte	0xe94
 5872 0e84 0E       		.uleb128 0xe
 5873 0e85 9A030000 		.4byte	0x39a
 5874 0e89 0E       		.uleb128 0xe
 5875 0e8a 3A0E0000 		.4byte	0xe3a
 5876 0e8e 0E       		.uleb128 0xe
 5877 0e8f 14010000 		.4byte	0x114
 5878 0e93 00       		.byte	0
 5879 0e94 0B       		.uleb128 0xb
 5880 0e95 04       		.byte	0x4
 5881 0e96 7B0E0000 		.4byte	0xe7b
 5882 0e9a 1F       		.uleb128 0x1f
 5883 0e9b 66010000 		.4byte	0x166
 5884 0e9f AE0E0000 		.4byte	0xeae
 5885 0ea3 0E       		.uleb128 0xe
 5886 0ea4 9A030000 		.4byte	0x39a
 5887 0ea8 0E       		.uleb128 0xe
 5888 0ea9 C9000000 		.4byte	0xc9
 5889 0ead 00       		.byte	0
 5890 0eae 0B       		.uleb128 0xb
 5891 0eaf 04       		.byte	0x4
 5892 0eb0 9A0E0000 		.4byte	0xe9a
 5893 0eb4 1F       		.uleb128 0x1f
 5894 0eb5 66010000 		.4byte	0x166
 5895 0eb9 C30E0000 		.4byte	0xec3
 5896 0ebd 0E       		.uleb128 0xe
 5897 0ebe 9A030000 		.4byte	0x39a
 5898 0ec2 00       		.byte	0
 5899 0ec3 0B       		.uleb128 0xb
 5900 0ec4 04       		.byte	0x4
 5901 0ec5 B40E0000 		.4byte	0xeb4
 5902 0ec9 20       		.uleb128 0x20
 5903 0eca 07       		.byte	0x7
 5904 0ecb 01       		.byte	0x1
 5905 0ecc 49000000 		.4byte	0x49
 5906 0ed0 13       		.byte	0x13
 5907 0ed1 23       		.byte	0x23
 5908 0ed2 E90E0000 		.4byte	0xee9
 5909 0ed6 21       		.uleb128 0x21
 5910 0ed7 78390000 		.4byte	.LASF197
 5911 0edb 00       		.byte	0
 5912 0edc 21       		.uleb128 0x21
 5913 0edd BD2A0000 		.4byte	.LASF198
 5914 0ee1 01       		.byte	0x1
 5915 0ee2 21       		.uleb128 0x21
 5916 0ee3 DA060000 		.4byte	.LASF199
ARM GAS  /tmp/ccTUBOn1.s 			page 105


 5917 0ee7 02       		.byte	0x2
 5918 0ee8 00       		.byte	0
 5919 0ee9 03       		.uleb128 0x3
 5920 0eea EB060000 		.4byte	.LASF200
 5921 0eee 13       		.byte	0x13
 5922 0eef 27       		.byte	0x27
 5923 0ef0 C90E0000 		.4byte	0xec9
 5924 0ef4 20       		.uleb128 0x20
 5925 0ef5 07       		.byte	0x7
 5926 0ef6 01       		.byte	0x1
 5927 0ef7 49000000 		.4byte	0x49
 5928 0efb 13       		.byte	0x13
 5929 0efc 29       		.byte	0x29
 5930 0efd 0E0F0000 		.4byte	0xf0e
 5931 0f01 21       		.uleb128 0x21
 5932 0f02 A2270000 		.4byte	.LASF201
 5933 0f06 00       		.byte	0
 5934 0f07 21       		.uleb128 0x21
 5935 0f08 4E410000 		.4byte	.LASF202
 5936 0f0c 01       		.byte	0x1
 5937 0f0d 00       		.byte	0
 5938 0f0e 03       		.uleb128 0x3
 5939 0f0f 83380000 		.4byte	.LASF203
 5940 0f13 13       		.byte	0x13
 5941 0f14 2C       		.byte	0x2c
 5942 0f15 F40E0000 		.4byte	0xef4
 5943 0f19 20       		.uleb128 0x20
 5944 0f1a 07       		.byte	0x7
 5945 0f1b 01       		.byte	0x1
 5946 0f1c 49000000 		.4byte	0x49
 5947 0f20 13       		.byte	0x13
 5948 0f21 2E       		.byte	0x2e
 5949 0f22 390F0000 		.4byte	0xf39
 5950 0f26 21       		.uleb128 0x21
 5951 0f27 E3310000 		.4byte	.LASF204
 5952 0f2b 00       		.byte	0
 5953 0f2c 21       		.uleb128 0x21
 5954 0f2d 8B130000 		.4byte	.LASF205
 5955 0f31 01       		.byte	0x1
 5956 0f32 21       		.uleb128 0x21
 5957 0f33 46150000 		.4byte	.LASF206
 5958 0f37 02       		.byte	0x2
 5959 0f38 00       		.byte	0
 5960 0f39 03       		.uleb128 0x3
 5961 0f3a F8260000 		.4byte	.LASF207
 5962 0f3e 13       		.byte	0x13
 5963 0f3f 32       		.byte	0x32
 5964 0f40 190F0000 		.4byte	0xf19
 5965 0f44 20       		.uleb128 0x20
 5966 0f45 07       		.byte	0x7
 5967 0f46 01       		.byte	0x1
 5968 0f47 49000000 		.4byte	0x49
 5969 0f4b 13       		.byte	0x13
 5970 0f4c 34       		.byte	0x34
 5971 0f4d 640F0000 		.4byte	0xf64
 5972 0f51 21       		.uleb128 0x21
 5973 0f52 B1260000 		.4byte	.LASF208
ARM GAS  /tmp/ccTUBOn1.s 			page 106


 5974 0f56 00       		.byte	0
 5975 0f57 21       		.uleb128 0x21
 5976 0f58 000B0000 		.4byte	.LASF209
 5977 0f5c 01       		.byte	0x1
 5978 0f5d 21       		.uleb128 0x21
 5979 0f5e F8350000 		.4byte	.LASF210
 5980 0f62 02       		.byte	0x2
 5981 0f63 00       		.byte	0
 5982 0f64 03       		.uleb128 0x3
 5983 0f65 403F0000 		.4byte	.LASF211
 5984 0f69 13       		.byte	0x13
 5985 0f6a 38       		.byte	0x38
 5986 0f6b 440F0000 		.4byte	0xf44
 5987 0f6f 20       		.uleb128 0x20
 5988 0f70 07       		.byte	0x7
 5989 0f71 01       		.byte	0x1
 5990 0f72 49000000 		.4byte	0x49
 5991 0f76 13       		.byte	0x13
 5992 0f77 3B       		.byte	0x3b
 5993 0f78 950F0000 		.4byte	0xf95
 5994 0f7c 21       		.uleb128 0x21
 5995 0f7d AD070000 		.4byte	.LASF212
 5996 0f81 00       		.byte	0
 5997 0f82 21       		.uleb128 0x21
 5998 0f83 083A0000 		.4byte	.LASF213
 5999 0f87 01       		.byte	0x1
 6000 0f88 21       		.uleb128 0x21
 6001 0f89 9D3D0000 		.4byte	.LASF214
 6002 0f8d 02       		.byte	0x2
 6003 0f8e 21       		.uleb128 0x21
 6004 0f8f EC090000 		.4byte	.LASF215
 6005 0f93 03       		.byte	0x3
 6006 0f94 00       		.byte	0
 6007 0f95 03       		.uleb128 0x3
 6008 0f96 2D240000 		.4byte	.LASF216
 6009 0f9a 13       		.byte	0x13
 6010 0f9b 40       		.byte	0x40
 6011 0f9c 6F0F0000 		.4byte	0xf6f
 6012 0fa0 20       		.uleb128 0x20
 6013 0fa1 07       		.byte	0x7
 6014 0fa2 01       		.byte	0x1
 6015 0fa3 49000000 		.4byte	0x49
 6016 0fa7 13       		.byte	0x13
 6017 0fa8 4A       		.byte	0x4a
 6018 0fa9 C60F0000 		.4byte	0xfc6
 6019 0fad 21       		.uleb128 0x21
 6020 0fae 8C400000 		.4byte	.LASF217
 6021 0fb2 00       		.byte	0
 6022 0fb3 21       		.uleb128 0x21
 6023 0fb4 39200000 		.4byte	.LASF218
 6024 0fb8 01       		.byte	0x1
 6025 0fb9 21       		.uleb128 0x21
 6026 0fba 2B1B0000 		.4byte	.LASF219
 6027 0fbe 02       		.byte	0x2
 6028 0fbf 21       		.uleb128 0x21
 6029 0fc0 CF3D0000 		.4byte	.LASF220
 6030 0fc4 03       		.byte	0x3
ARM GAS  /tmp/ccTUBOn1.s 			page 107


 6031 0fc5 00       		.byte	0
 6032 0fc6 03       		.uleb128 0x3
 6033 0fc7 DE300000 		.4byte	.LASF221
 6034 0fcb 13       		.byte	0x13
 6035 0fcc 4F       		.byte	0x4f
 6036 0fcd A00F0000 		.4byte	0xfa0
 6037 0fd1 20       		.uleb128 0x20
 6038 0fd2 07       		.byte	0x7
 6039 0fd3 01       		.byte	0x1
 6040 0fd4 49000000 		.4byte	0x49
 6041 0fd8 13       		.byte	0x13
 6042 0fd9 51       		.byte	0x51
 6043 0fda 39100000 		.4byte	0x1039
 6044 0fde 21       		.uleb128 0x21
 6045 0fdf 892E0000 		.4byte	.LASF222
 6046 0fe3 00       		.byte	0
 6047 0fe4 21       		.uleb128 0x21
 6048 0fe5 AC1B0000 		.4byte	.LASF223
 6049 0fe9 01       		.byte	0x1
 6050 0fea 21       		.uleb128 0x21
 6051 0feb 7D2D0000 		.4byte	.LASF224
 6052 0fef 02       		.byte	0x2
 6053 0ff0 21       		.uleb128 0x21
 6054 0ff1 4F0D0000 		.4byte	.LASF225
 6055 0ff5 03       		.byte	0x3
 6056 0ff6 21       		.uleb128 0x21
 6057 0ff7 13100000 		.4byte	.LASF226
 6058 0ffb 04       		.byte	0x4
 6059 0ffc 21       		.uleb128 0x21
 6060 0ffd 87060000 		.4byte	.LASF227
 6061 1001 05       		.byte	0x5
 6062 1002 21       		.uleb128 0x21
 6063 1003 12240000 		.4byte	.LASF228
 6064 1007 06       		.byte	0x6
 6065 1008 21       		.uleb128 0x21
 6066 1009 69210000 		.4byte	.LASF229
 6067 100d 07       		.byte	0x7
 6068 100e 21       		.uleb128 0x21
 6069 100f 9D330000 		.4byte	.LASF230
 6070 1013 08       		.byte	0x8
 6071 1014 21       		.uleb128 0x21
 6072 1015 810D0000 		.4byte	.LASF231
 6073 1019 09       		.byte	0x9
 6074 101a 21       		.uleb128 0x21
 6075 101b EE190000 		.4byte	.LASF232
 6076 101f 0A       		.byte	0xa
 6077 1020 21       		.uleb128 0x21
 6078 1021 3A1B0000 		.4byte	.LASF233
 6079 1025 0B       		.byte	0xb
 6080 1026 21       		.uleb128 0x21
 6081 1027 682A0000 		.4byte	.LASF234
 6082 102b 0C       		.byte	0xc
 6083 102c 21       		.uleb128 0x21
 6084 102d B30A0000 		.4byte	.LASF235
 6085 1031 0D       		.byte	0xd
 6086 1032 21       		.uleb128 0x21
 6087 1033 C5140000 		.4byte	.LASF236
ARM GAS  /tmp/ccTUBOn1.s 			page 108


 6088 1037 0E       		.byte	0xe
 6089 1038 00       		.byte	0
 6090 1039 20       		.uleb128 0x20
 6091 103a 07       		.byte	0x7
 6092 103b 01       		.byte	0x1
 6093 103c 49000000 		.4byte	0x49
 6094 1040 13       		.byte	0x13
 6095 1041 7B       		.byte	0x7b
 6096 1042 65100000 		.4byte	0x1065
 6097 1046 21       		.uleb128 0x21
 6098 1047 77260000 		.4byte	.LASF237
 6099 104b 00       		.byte	0
 6100 104c 21       		.uleb128 0x21
 6101 104d CC150000 		.4byte	.LASF238
 6102 1051 01       		.byte	0x1
 6103 1052 21       		.uleb128 0x21
 6104 1053 AB160000 		.4byte	.LASF239
 6105 1057 02       		.byte	0x2
 6106 1058 21       		.uleb128 0x21
 6107 1059 F33E0000 		.4byte	.LASF240
 6108 105d 03       		.byte	0x3
 6109 105e 21       		.uleb128 0x21
 6110 105f EE2C0000 		.4byte	.LASF241
 6111 1063 04       		.byte	0x4
 6112 1064 00       		.byte	0
 6113 1065 03       		.uleb128 0x3
 6114 1066 0D3F0000 		.4byte	.LASF242
 6115 106a 13       		.byte	0x13
 6116 106b 81       		.byte	0x81
 6117 106c 39100000 		.4byte	0x1039
 6118 1070 05       		.uleb128 0x5
 6119 1071 25000000 		.4byte	0x25
 6120 1075 06       		.uleb128 0x6
 6121 1076 25000000 		.4byte	0x25
 6122 107a 20       		.uleb128 0x20
 6123 107b 07       		.byte	0x7
 6124 107c 01       		.byte	0x1
 6125 107d 49000000 		.4byte	0x49
 6126 1081 13       		.byte	0x13
 6127 1082 8D       		.byte	0x8d
 6128 1083 A0100000 		.4byte	0x10a0
 6129 1087 21       		.uleb128 0x21
 6130 1088 65060000 		.4byte	.LASF243
 6131 108c 00       		.byte	0
 6132 108d 21       		.uleb128 0x21
 6133 108e 88300000 		.4byte	.LASF244
 6134 1092 01       		.byte	0x1
 6135 1093 21       		.uleb128 0x21
 6136 1094 900B0000 		.4byte	.LASF245
 6137 1098 02       		.byte	0x2
 6138 1099 21       		.uleb128 0x21
 6139 109a 95390000 		.4byte	.LASF246
 6140 109e 03       		.byte	0x3
 6141 109f 00       		.byte	0
 6142 10a0 03       		.uleb128 0x3
 6143 10a1 E22A0000 		.4byte	.LASF247
 6144 10a5 13       		.byte	0x13
ARM GAS  /tmp/ccTUBOn1.s 			page 109


 6145 10a6 92       		.byte	0x92
 6146 10a7 7A100000 		.4byte	0x107a
 6147 10ab 20       		.uleb128 0x20
 6148 10ac 07       		.byte	0x7
 6149 10ad 01       		.byte	0x1
 6150 10ae 49000000 		.4byte	0x49
 6151 10b2 13       		.byte	0x13
 6152 10b3 9F       		.byte	0x9f
 6153 10b4 D1100000 		.4byte	0x10d1
 6154 10b8 21       		.uleb128 0x21
 6155 10b9 07070000 		.4byte	.LASF248
 6156 10bd 00       		.byte	0
 6157 10be 21       		.uleb128 0x21
 6158 10bf 2C350000 		.4byte	.LASF249
 6159 10c3 01       		.byte	0x1
 6160 10c4 21       		.uleb128 0x21
 6161 10c5 26320000 		.4byte	.LASF250
 6162 10c9 02       		.byte	0x2
 6163 10ca 21       		.uleb128 0x21
 6164 10cb B41A0000 		.4byte	.LASF251
 6165 10cf 03       		.byte	0x3
 6166 10d0 00       		.byte	0
 6167 10d1 03       		.uleb128 0x3
 6168 10d2 C2040000 		.4byte	.LASF252
 6169 10d6 13       		.byte	0x13
 6170 10d7 A4       		.byte	0xa4
 6171 10d8 AB100000 		.4byte	0x10ab
 6172 10dc 20       		.uleb128 0x20
 6173 10dd 07       		.byte	0x7
 6174 10de 01       		.byte	0x1
 6175 10df 49000000 		.4byte	0x49
 6176 10e3 13       		.byte	0x13
 6177 10e4 A6       		.byte	0xa6
 6178 10e5 FC100000 		.4byte	0x10fc
 6179 10e9 21       		.uleb128 0x21
 6180 10ea 52370000 		.4byte	.LASF253
 6181 10ee 00       		.byte	0
 6182 10ef 21       		.uleb128 0x21
 6183 10f0 D3220000 		.4byte	.LASF254
 6184 10f4 01       		.byte	0x1
 6185 10f5 21       		.uleb128 0x21
 6186 10f6 9C220000 		.4byte	.LASF255
 6187 10fa 02       		.byte	0x2
 6188 10fb 00       		.byte	0
 6189 10fc 03       		.uleb128 0x3
 6190 10fd 771F0000 		.4byte	.LASF256
 6191 1101 13       		.byte	0x13
 6192 1102 AA       		.byte	0xaa
 6193 1103 DC100000 		.4byte	0x10dc
 6194 1107 22       		.uleb128 0x22
 6195 1108 C801     		.2byte	0x1c8
 6196 110a 13       		.byte	0x13
 6197 110b AC       		.byte	0xac
 6198 110c 04170000 		.4byte	0x1704
 6199 1110 08       		.uleb128 0x8
 6200 1111 C41E0000 		.4byte	.LASF257
 6201 1115 13       		.byte	0x13
ARM GAS  /tmp/ccTUBOn1.s 			page 110


 6202 1116 AE       		.byte	0xae
 6203 1117 E90E0000 		.4byte	0xee9
 6204 111b 00       		.byte	0
 6205 111c 08       		.uleb128 0x8
 6206 111d 04100000 		.4byte	.LASF258
 6207 1121 13       		.byte	0x13
 6208 1122 AF       		.byte	0xaf
 6209 1123 0E0F0000 		.4byte	0xf0e
 6210 1127 01       		.byte	0x1
 6211 1128 08       		.uleb128 0x8
 6212 1129 EB1E0000 		.4byte	.LASF259
 6213 112d 13       		.byte	0x13
 6214 112e B0       		.byte	0xb0
 6215 112f C60F0000 		.4byte	0xfc6
 6216 1133 02       		.byte	0x2
 6217 1134 08       		.uleb128 0x8
 6218 1135 D7310000 		.4byte	.LASF260
 6219 1139 13       		.byte	0x13
 6220 113a B1       		.byte	0xb1
 6221 113b 390F0000 		.4byte	0xf39
 6222 113f 03       		.byte	0x3
 6223 1140 08       		.uleb128 0x8
 6224 1141 42250000 		.4byte	.LASF261
 6225 1145 13       		.byte	0x13
 6226 1146 B3       		.byte	0xb3
 6227 1147 25000000 		.4byte	0x25
 6228 114b 04       		.byte	0x4
 6229 114c 08       		.uleb128 0x8
 6230 114d 062D0000 		.4byte	.LASF262
 6231 1151 13       		.byte	0x13
 6232 1152 B4       		.byte	0xb4
 6233 1153 25000000 		.4byte	0x25
 6234 1157 08       		.byte	0x8
 6235 1158 08       		.uleb128 0x8
 6236 1159 DA3C0000 		.4byte	.LASF263
 6237 115d 13       		.byte	0x13
 6238 115e B5       		.byte	0xb5
 6239 115f 25000000 		.4byte	0x25
 6240 1163 0C       		.byte	0xc
 6241 1164 08       		.uleb128 0x8
 6242 1165 8F030000 		.4byte	.LASF264
 6243 1169 13       		.byte	0x13
 6244 116a B6       		.byte	0xb6
 6245 116b 25000000 		.4byte	0x25
 6246 116f 10       		.byte	0x10
 6247 1170 08       		.uleb128 0x8
 6248 1171 74000000 		.4byte	.LASF265
 6249 1175 13       		.byte	0x13
 6250 1176 B7       		.byte	0xb7
 6251 1177 25000000 		.4byte	0x25
 6252 117b 14       		.byte	0x14
 6253 117c 08       		.uleb128 0x8
 6254 117d 98040000 		.4byte	.LASF266
 6255 1181 13       		.byte	0x13
 6256 1182 B8       		.byte	0xb8
 6257 1183 25000000 		.4byte	0x25
 6258 1187 18       		.byte	0x18
ARM GAS  /tmp/ccTUBOn1.s 			page 111


 6259 1188 08       		.uleb128 0x8
 6260 1189 72230000 		.4byte	.LASF267
 6261 118d 13       		.byte	0x13
 6262 118e B9       		.byte	0xb9
 6263 118f 25000000 		.4byte	0x25
 6264 1193 1C       		.byte	0x1c
 6265 1194 08       		.uleb128 0x8
 6266 1195 F80E0000 		.4byte	.LASF268
 6267 1199 13       		.byte	0x13
 6268 119a BA       		.byte	0xba
 6269 119b 25000000 		.4byte	0x25
 6270 119f 20       		.byte	0x20
 6271 11a0 08       		.uleb128 0x8
 6272 11a1 57000000 		.4byte	.LASF269
 6273 11a5 13       		.byte	0x13
 6274 11a6 BB       		.byte	0xbb
 6275 11a7 25000000 		.4byte	0x25
 6276 11ab 24       		.byte	0x24
 6277 11ac 08       		.uleb128 0x8
 6278 11ad 943B0000 		.4byte	.LASF270
 6279 11b1 13       		.byte	0x13
 6280 11b2 BC       		.byte	0xbc
 6281 11b3 25000000 		.4byte	0x25
 6282 11b7 28       		.byte	0x28
 6283 11b8 08       		.uleb128 0x8
 6284 11b9 CE190000 		.4byte	.LASF271
 6285 11bd 13       		.byte	0x13
 6286 11be BD       		.byte	0xbd
 6287 11bf 25000000 		.4byte	0x25
 6288 11c3 2C       		.byte	0x2c
 6289 11c4 08       		.uleb128 0x8
 6290 11c5 DD170000 		.4byte	.LASF272
 6291 11c9 13       		.byte	0x13
 6292 11ca BE       		.byte	0xbe
 6293 11cb 25000000 		.4byte	0x25
 6294 11cf 30       		.byte	0x30
 6295 11d0 08       		.uleb128 0x8
 6296 11d1 7D190000 		.4byte	.LASF273
 6297 11d5 13       		.byte	0x13
 6298 11d6 BF       		.byte	0xbf
 6299 11d7 25000000 		.4byte	0x25
 6300 11db 34       		.byte	0x34
 6301 11dc 08       		.uleb128 0x8
 6302 11dd B0190000 		.4byte	.LASF274
 6303 11e1 13       		.byte	0x13
 6304 11e2 C0       		.byte	0xc0
 6305 11e3 25000000 		.4byte	0x25
 6306 11e7 38       		.byte	0x38
 6307 11e8 08       		.uleb128 0x8
 6308 11e9 40030000 		.4byte	.LASF275
 6309 11ed 13       		.byte	0x13
 6310 11ee C1       		.byte	0xc1
 6311 11ef 04170000 		.4byte	0x1704
 6312 11f3 3C       		.byte	0x3c
 6313 11f4 08       		.uleb128 0x8
 6314 11f5 460F0000 		.4byte	.LASF276
 6315 11f9 13       		.byte	0x13
ARM GAS  /tmp/ccTUBOn1.s 			page 112


 6316 11fa C2       		.byte	0xc2
 6317 11fb 25000000 		.4byte	0x25
 6318 11ff 40       		.byte	0x40
 6319 1200 08       		.uleb128 0x8
 6320 1201 85050000 		.4byte	.LASF277
 6321 1205 13       		.byte	0x13
 6322 1206 C3       		.byte	0xc3
 6323 1207 25000000 		.4byte	0x25
 6324 120b 44       		.byte	0x44
 6325 120c 08       		.uleb128 0x8
 6326 120d 322C0000 		.4byte	.LASF278
 6327 1211 13       		.byte	0x13
 6328 1212 C4       		.byte	0xc4
 6329 1213 25000000 		.4byte	0x25
 6330 1217 48       		.byte	0x48
 6331 1218 08       		.uleb128 0x8
 6332 1219 75310000 		.4byte	.LASF279
 6333 121d 13       		.byte	0x13
 6334 121e C5       		.byte	0xc5
 6335 121f 25000000 		.4byte	0x25
 6336 1223 4C       		.byte	0x4c
 6337 1224 08       		.uleb128 0x8
 6338 1225 952B0000 		.4byte	.LASF280
 6339 1229 13       		.byte	0x13
 6340 122a C6       		.byte	0xc6
 6341 122b 25000000 		.4byte	0x25
 6342 122f 50       		.byte	0x50
 6343 1230 08       		.uleb128 0x8
 6344 1231 7E3E0000 		.4byte	.LASF281
 6345 1235 13       		.byte	0x13
 6346 1236 C7       		.byte	0xc7
 6347 1237 25000000 		.4byte	0x25
 6348 123b 54       		.byte	0x54
 6349 123c 08       		.uleb128 0x8
 6350 123d 5B1C0000 		.4byte	.LASF282
 6351 1241 13       		.byte	0x13
 6352 1242 C8       		.byte	0xc8
 6353 1243 25000000 		.4byte	0x25
 6354 1247 58       		.byte	0x58
 6355 1248 08       		.uleb128 0x8
 6356 1249 CE0E0000 		.4byte	.LASF283
 6357 124d 13       		.byte	0x13
 6358 124e C9       		.byte	0xc9
 6359 124f 25000000 		.4byte	0x25
 6360 1253 5C       		.byte	0x5c
 6361 1254 08       		.uleb128 0x8
 6362 1255 4A3B0000 		.4byte	.LASF284
 6363 1259 13       		.byte	0x13
 6364 125a CA       		.byte	0xca
 6365 125b 25000000 		.4byte	0x25
 6366 125f 60       		.byte	0x60
 6367 1260 08       		.uleb128 0x8
 6368 1261 54230000 		.4byte	.LASF285
 6369 1265 13       		.byte	0x13
 6370 1266 CB       		.byte	0xcb
 6371 1267 25000000 		.4byte	0x25
 6372 126b 64       		.byte	0x64
ARM GAS  /tmp/ccTUBOn1.s 			page 113


 6373 126c 08       		.uleb128 0x8
 6374 126d 5A250000 		.4byte	.LASF286
 6375 1271 13       		.byte	0x13
 6376 1272 CC       		.byte	0xcc
 6377 1273 25000000 		.4byte	0x25
 6378 1277 68       		.byte	0x68
 6379 1278 08       		.uleb128 0x8
 6380 1279 7B150000 		.4byte	.LASF287
 6381 127d 13       		.byte	0x13
 6382 127e CE       		.byte	0xce
 6383 127f 25000000 		.4byte	0x25
 6384 1283 6C       		.byte	0x6c
 6385 1284 08       		.uleb128 0x8
 6386 1285 F61E0000 		.4byte	.LASF288
 6387 1289 13       		.byte	0x13
 6388 128a CF       		.byte	0xcf
 6389 128b 25000000 		.4byte	0x25
 6390 128f 70       		.byte	0x70
 6391 1290 08       		.uleb128 0x8
 6392 1291 3A350000 		.4byte	.LASF289
 6393 1295 13       		.byte	0x13
 6394 1296 D0       		.byte	0xd0
 6395 1297 25000000 		.4byte	0x25
 6396 129b 74       		.byte	0x74
 6397 129c 08       		.uleb128 0x8
 6398 129d 443E0000 		.4byte	.LASF290
 6399 12a1 13       		.byte	0x13
 6400 12a2 D1       		.byte	0xd1
 6401 12a3 25000000 		.4byte	0x25
 6402 12a7 78       		.byte	0x78
 6403 12a8 08       		.uleb128 0x8
 6404 12a9 FE2E0000 		.4byte	.LASF291
 6405 12ad 13       		.byte	0x13
 6406 12ae D2       		.byte	0xd2
 6407 12af 25000000 		.4byte	0x25
 6408 12b3 7C       		.byte	0x7c
 6409 12b4 08       		.uleb128 0x8
 6410 12b5 AC170000 		.4byte	.LASF292
 6411 12b9 13       		.byte	0x13
 6412 12ba D3       		.byte	0xd3
 6413 12bb 25000000 		.4byte	0x25
 6414 12bf 80       		.byte	0x80
 6415 12c0 08       		.uleb128 0x8
 6416 12c1 511B0000 		.4byte	.LASF293
 6417 12c5 13       		.byte	0x13
 6418 12c6 D5       		.byte	0xd5
 6419 12c7 25000000 		.4byte	0x25
 6420 12cb 84       		.byte	0x84
 6421 12cc 08       		.uleb128 0x8
 6422 12cd 83080000 		.4byte	.LASF294
 6423 12d1 13       		.byte	0x13
 6424 12d2 D6       		.byte	0xd6
 6425 12d3 25000000 		.4byte	0x25
 6426 12d7 88       		.byte	0x88
 6427 12d8 08       		.uleb128 0x8
 6428 12d9 131F0000 		.4byte	.LASF295
 6429 12dd 13       		.byte	0x13
ARM GAS  /tmp/ccTUBOn1.s 			page 114


 6430 12de D7       		.byte	0xd7
 6431 12df 25000000 		.4byte	0x25
 6432 12e3 8C       		.byte	0x8c
 6433 12e4 08       		.uleb128 0x8
 6434 12e5 C5200000 		.4byte	.LASF296
 6435 12e9 13       		.byte	0x13
 6436 12ea D8       		.byte	0xd8
 6437 12eb 25000000 		.4byte	0x25
 6438 12ef 90       		.byte	0x90
 6439 12f0 08       		.uleb128 0x8
 6440 12f1 9A1D0000 		.4byte	.LASF297
 6441 12f5 13       		.byte	0x13
 6442 12f6 D9       		.byte	0xd9
 6443 12f7 25000000 		.4byte	0x25
 6444 12fb 94       		.byte	0x94
 6445 12fc 08       		.uleb128 0x8
 6446 12fd B1370000 		.4byte	.LASF298
 6447 1301 13       		.byte	0x13
 6448 1302 DA       		.byte	0xda
 6449 1303 25000000 		.4byte	0x25
 6450 1307 98       		.byte	0x98
 6451 1308 08       		.uleb128 0x8
 6452 1309 822B0000 		.4byte	.LASF299
 6453 130d 13       		.byte	0x13
 6454 130e DB       		.byte	0xdb
 6455 130f 25000000 		.4byte	0x25
 6456 1313 9C       		.byte	0x9c
 6457 1314 08       		.uleb128 0x8
 6458 1315 02200000 		.4byte	.LASF300
 6459 1319 13       		.byte	0x13
 6460 131a DD       		.byte	0xdd
 6461 131b 0B170000 		.4byte	0x170b
 6462 131f A0       		.byte	0xa0
 6463 1320 08       		.uleb128 0x8
 6464 1321 B72E0000 		.4byte	.LASF301
 6465 1325 13       		.byte	0x13
 6466 1326 DE       		.byte	0xde
 6467 1327 25000000 		.4byte	0x25
 6468 132b A8       		.byte	0xa8
 6469 132c 08       		.uleb128 0x8
 6470 132d F3080000 		.4byte	.LASF302
 6471 1331 13       		.byte	0x13
 6472 1332 E0       		.byte	0xe0
 6473 1333 25000000 		.4byte	0x25
 6474 1337 AC       		.byte	0xac
 6475 1338 08       		.uleb128 0x8
 6476 1339 C2080000 		.4byte	.LASF303
 6477 133d 13       		.byte	0x13
 6478 133e E1       		.byte	0xe1
 6479 133f 25000000 		.4byte	0x25
 6480 1343 B0       		.byte	0xb0
 6481 1344 08       		.uleb128 0x8
 6482 1345 EF0E0000 		.4byte	.LASF304
 6483 1349 13       		.byte	0x13
 6484 134a E2       		.byte	0xe2
 6485 134b 25000000 		.4byte	0x25
 6486 134f B4       		.byte	0xb4
ARM GAS  /tmp/ccTUBOn1.s 			page 115


 6487 1350 08       		.uleb128 0x8
 6488 1351 41360000 		.4byte	.LASF305
 6489 1355 13       		.byte	0x13
 6490 1356 E3       		.byte	0xe3
 6491 1357 25000000 		.4byte	0x25
 6492 135b B8       		.byte	0xb8
 6493 135c 08       		.uleb128 0x8
 6494 135d 7F330000 		.4byte	.LASF306
 6495 1361 13       		.byte	0x13
 6496 1362 E4       		.byte	0xe4
 6497 1363 25000000 		.4byte	0x25
 6498 1367 BC       		.byte	0xbc
 6499 1368 08       		.uleb128 0x8
 6500 1369 8A150000 		.4byte	.LASF307
 6501 136d 13       		.byte	0x13
 6502 136e E5       		.byte	0xe5
 6503 136f 04170000 		.4byte	0x1704
 6504 1373 C0       		.byte	0xc0
 6505 1374 08       		.uleb128 0x8
 6506 1375 BE280000 		.4byte	.LASF308
 6507 1379 13       		.byte	0x13
 6508 137a E6       		.byte	0xe6
 6509 137b 25000000 		.4byte	0x25
 6510 137f C4       		.byte	0xc4
 6511 1380 08       		.uleb128 0x8
 6512 1381 60100000 		.4byte	.LASF309
 6513 1385 13       		.byte	0x13
 6514 1386 E7       		.byte	0xe7
 6515 1387 25000000 		.4byte	0x25
 6516 138b C8       		.byte	0xc8
 6517 138c 08       		.uleb128 0x8
 6518 138d 6A0C0000 		.4byte	.LASF310
 6519 1391 13       		.byte	0x13
 6520 1392 E8       		.byte	0xe8
 6521 1393 25000000 		.4byte	0x25
 6522 1397 CC       		.byte	0xcc
 6523 1398 08       		.uleb128 0x8
 6524 1399 141B0000 		.4byte	.LASF311
 6525 139d 13       		.byte	0x13
 6526 139e E9       		.byte	0xe9
 6527 139f 25000000 		.4byte	0x25
 6528 13a3 D0       		.byte	0xd0
 6529 13a4 08       		.uleb128 0x8
 6530 13a5 07040000 		.4byte	.LASF312
 6531 13a9 13       		.byte	0x13
 6532 13aa EA       		.byte	0xea
 6533 13ab 25000000 		.4byte	0x25
 6534 13af D4       		.byte	0xd4
 6535 13b0 08       		.uleb128 0x8
 6536 13b1 6C1A0000 		.4byte	.LASF313
 6537 13b5 13       		.byte	0x13
 6538 13b6 EB       		.byte	0xeb
 6539 13b7 25000000 		.4byte	0x25
 6540 13bb D8       		.byte	0xd8
 6541 13bc 08       		.uleb128 0x8
 6542 13bd 220D0000 		.4byte	.LASF314
 6543 13c1 13       		.byte	0x13
ARM GAS  /tmp/ccTUBOn1.s 			page 116


 6544 13c2 EC       		.byte	0xec
 6545 13c3 25000000 		.4byte	0x25
 6546 13c7 DC       		.byte	0xdc
 6547 13c8 08       		.uleb128 0x8
 6548 13c9 390D0000 		.4byte	.LASF315
 6549 13cd 13       		.byte	0x13
 6550 13ce ED       		.byte	0xed
 6551 13cf 25000000 		.4byte	0x25
 6552 13d3 E0       		.byte	0xe0
 6553 13d4 08       		.uleb128 0x8
 6554 13d5 92200000 		.4byte	.LASF316
 6555 13d9 13       		.byte	0x13
 6556 13da EE       		.byte	0xee
 6557 13db 25000000 		.4byte	0x25
 6558 13df E4       		.byte	0xe4
 6559 13e0 08       		.uleb128 0x8
 6560 13e1 37100000 		.4byte	.LASF317
 6561 13e5 13       		.byte	0x13
 6562 13e6 EF       		.byte	0xef
 6563 13e7 25000000 		.4byte	0x25
 6564 13eb E8       		.byte	0xe8
 6565 13ec 08       		.uleb128 0x8
 6566 13ed 7B010000 		.4byte	.LASF318
 6567 13f1 13       		.byte	0x13
 6568 13f2 F0       		.byte	0xf0
 6569 13f3 25000000 		.4byte	0x25
 6570 13f7 EC       		.byte	0xec
 6571 13f8 08       		.uleb128 0x8
 6572 13f9 F02F0000 		.4byte	.LASF319
 6573 13fd 13       		.byte	0x13
 6574 13fe F1       		.byte	0xf1
 6575 13ff 25000000 		.4byte	0x25
 6576 1403 F0       		.byte	0xf0
 6577 1404 08       		.uleb128 0x8
 6578 1405 DE2F0000 		.4byte	.LASF320
 6579 1409 13       		.byte	0x13
 6580 140a F2       		.byte	0xf2
 6581 140b 25000000 		.4byte	0x25
 6582 140f F4       		.byte	0xf4
 6583 1410 08       		.uleb128 0x8
 6584 1411 8F240000 		.4byte	.LASF321
 6585 1415 13       		.byte	0x13
 6586 1416 F3       		.byte	0xf3
 6587 1417 25000000 		.4byte	0x25
 6588 141b F8       		.byte	0xf8
 6589 141c 08       		.uleb128 0x8
 6590 141d 5D240000 		.4byte	.LASF322
 6591 1421 13       		.byte	0x13
 6592 1422 F4       		.byte	0xf4
 6593 1423 25000000 		.4byte	0x25
 6594 1427 FC       		.byte	0xfc
 6595 1428 23       		.uleb128 0x23
 6596 1429 802F0000 		.4byte	.LASF323
 6597 142d 13       		.byte	0x13
 6598 142e F5       		.byte	0xf5
 6599 142f 25000000 		.4byte	0x25
 6600 1433 0001     		.2byte	0x100
ARM GAS  /tmp/ccTUBOn1.s 			page 117


 6601 1435 23       		.uleb128 0x23
 6602 1436 1C340000 		.4byte	.LASF324
 6603 143a 13       		.byte	0x13
 6604 143b F6       		.byte	0xf6
 6605 143c 25000000 		.4byte	0x25
 6606 1440 0401     		.2byte	0x104
 6607 1442 23       		.uleb128 0x23
 6608 1443 153E0000 		.4byte	.LASF325
 6609 1447 13       		.byte	0x13
 6610 1448 F7       		.byte	0xf7
 6611 1449 25000000 		.4byte	0x25
 6612 144d 0801     		.2byte	0x108
 6613 144f 23       		.uleb128 0x23
 6614 1450 9E1F0000 		.4byte	.LASF326
 6615 1454 13       		.byte	0x13
 6616 1455 F8       		.byte	0xf8
 6617 1456 25000000 		.4byte	0x25
 6618 145a 0C01     		.2byte	0x10c
 6619 145c 23       		.uleb128 0x23
 6620 145d 912F0000 		.4byte	.LASF327
 6621 1461 13       		.byte	0x13
 6622 1462 F9       		.byte	0xf9
 6623 1463 25000000 		.4byte	0x25
 6624 1467 1001     		.2byte	0x110
 6625 1469 23       		.uleb128 0x23
 6626 146a C3350000 		.4byte	.LASF328
 6627 146e 13       		.byte	0x13
 6628 146f FA       		.byte	0xfa
 6629 1470 640F0000 		.4byte	0xf64
 6630 1474 1401     		.2byte	0x114
 6631 1476 23       		.uleb128 0x23
 6632 1477 B63D0000 		.4byte	.LASF329
 6633 147b 13       		.byte	0x13
 6634 147c FB       		.byte	0xfb
 6635 147d 1B170000 		.4byte	0x171b
 6636 1481 1501     		.2byte	0x115
 6637 1483 23       		.uleb128 0x23
 6638 1484 251D0000 		.4byte	.LASF330
 6639 1488 13       		.byte	0x13
 6640 1489 FC       		.byte	0xfc
 6641 148a 25000000 		.4byte	0x25
 6642 148e 2001     		.2byte	0x120
 6643 1490 23       		.uleb128 0x23
 6644 1491 0F400000 		.4byte	.LASF331
 6645 1495 13       		.byte	0x13
 6646 1496 FD       		.byte	0xfd
 6647 1497 04170000 		.4byte	0x1704
 6648 149b 2401     		.2byte	0x124
 6649 149d 23       		.uleb128 0x23
 6650 149e 2A380000 		.4byte	.LASF332
 6651 14a2 13       		.byte	0x13
 6652 14a3 FE       		.byte	0xfe
 6653 14a4 04170000 		.4byte	0x1704
 6654 14a8 2501     		.2byte	0x125
 6655 14aa 23       		.uleb128 0x23
 6656 14ab 4B360000 		.4byte	.LASF333
 6657 14af 13       		.byte	0x13
ARM GAS  /tmp/ccTUBOn1.s 			page 118


 6658 14b0 FF       		.byte	0xff
 6659 14b1 25000000 		.4byte	0x25
 6660 14b5 2801     		.2byte	0x128
 6661 14b7 1A       		.uleb128 0x1a
 6662 14b8 F22A0000 		.4byte	.LASF334
 6663 14bc 13       		.byte	0x13
 6664 14bd 0001     		.2byte	0x100
 6665 14bf 04170000 		.4byte	0x1704
 6666 14c3 2C01     		.2byte	0x12c
 6667 14c5 1A       		.uleb128 0x1a
 6668 14c6 A6310000 		.4byte	.LASF335
 6669 14ca 13       		.byte	0x13
 6670 14cb 0101     		.2byte	0x101
 6671 14cd 25000000 		.4byte	0x25
 6672 14d1 3001     		.2byte	0x130
 6673 14d3 1A       		.uleb128 0x1a
 6674 14d4 583D0000 		.4byte	.LASF336
 6675 14d8 13       		.byte	0x13
 6676 14d9 0201     		.2byte	0x102
 6677 14db 25000000 		.4byte	0x25
 6678 14df 3401     		.2byte	0x134
 6679 14e1 1A       		.uleb128 0x1a
 6680 14e2 55090000 		.4byte	.LASF337
 6681 14e6 13       		.byte	0x13
 6682 14e7 0401     		.2byte	0x104
 6683 14e9 A6000000 		.4byte	0xa6
 6684 14ed 3801     		.2byte	0x138
 6685 14ef 1A       		.uleb128 0x1a
 6686 14f0 A9200000 		.4byte	.LASF338
 6687 14f4 13       		.byte	0x13
 6688 14f5 0501     		.2byte	0x105
 6689 14f7 A6000000 		.4byte	0xa6
 6690 14fb 3C01     		.2byte	0x13c
 6691 14fd 1A       		.uleb128 0x1a
 6692 14fe 36140000 		.4byte	.LASF339
 6693 1502 13       		.byte	0x13
 6694 1503 0601     		.2byte	0x106
 6695 1505 25000000 		.4byte	0x25
 6696 1509 4001     		.2byte	0x140
 6697 150b 1A       		.uleb128 0x1a
 6698 150c 7F0C0000 		.4byte	.LASF340
 6699 1510 13       		.byte	0x13
 6700 1511 0701     		.2byte	0x107
 6701 1513 25000000 		.4byte	0x25
 6702 1517 4401     		.2byte	0x144
 6703 1519 1A       		.uleb128 0x1a
 6704 151a BF010000 		.4byte	.LASF341
 6705 151e 13       		.byte	0x13
 6706 151f 0801     		.2byte	0x108
 6707 1521 25000000 		.4byte	0x25
 6708 1525 4801     		.2byte	0x148
 6709 1527 1A       		.uleb128 0x1a
 6710 1528 C42E0000 		.4byte	.LASF342
 6711 152c 13       		.byte	0x13
 6712 152d 0A01     		.2byte	0x10a
 6713 152f 25000000 		.4byte	0x25
 6714 1533 4C01     		.2byte	0x14c
ARM GAS  /tmp/ccTUBOn1.s 			page 119


 6715 1535 1A       		.uleb128 0x1a
 6716 1536 992E0000 		.4byte	.LASF343
 6717 153a 13       		.byte	0x13
 6718 153b 0B01     		.2byte	0x10b
 6719 153d 25000000 		.4byte	0x25
 6720 1541 5001     		.2byte	0x150
 6721 1543 1A       		.uleb128 0x1a
 6722 1544 8E0C0000 		.4byte	.LASF344
 6723 1548 13       		.byte	0x13
 6724 1549 0C01     		.2byte	0x10c
 6725 154b 25000000 		.4byte	0x25
 6726 154f 5401     		.2byte	0x154
 6727 1551 1A       		.uleb128 0x1a
 6728 1552 C6130000 		.4byte	.LASF345
 6729 1556 13       		.byte	0x13
 6730 1557 0D01     		.2byte	0x10d
 6731 1559 25000000 		.4byte	0x25
 6732 155d 5801     		.2byte	0x158
 6733 155f 1A       		.uleb128 0x1a
 6734 1560 EF0D0000 		.4byte	.LASF346
 6735 1564 13       		.byte	0x13
 6736 1565 0E01     		.2byte	0x10e
 6737 1567 25000000 		.4byte	0x25
 6738 156b 5C01     		.2byte	0x15c
 6739 156d 1A       		.uleb128 0x1a
 6740 156e 01120000 		.4byte	.LASF347
 6741 1572 13       		.byte	0x13
 6742 1573 0F01     		.2byte	0x10f
 6743 1575 04170000 		.4byte	0x1704
 6744 1579 6001     		.2byte	0x160
 6745 157b 1A       		.uleb128 0x1a
 6746 157c 5F2A0000 		.4byte	.LASF348
 6747 1580 13       		.byte	0x13
 6748 1581 1101     		.2byte	0x111
 6749 1583 25000000 		.4byte	0x25
 6750 1587 6401     		.2byte	0x164
 6751 1589 1A       		.uleb128 0x1a
 6752 158a 3D2A0000 		.4byte	.LASF349
 6753 158e 13       		.byte	0x13
 6754 158f 1201     		.2byte	0x112
 6755 1591 25000000 		.4byte	0x25
 6756 1595 6801     		.2byte	0x168
 6757 1597 1A       		.uleb128 0x1a
 6758 1598 342A0000 		.4byte	.LASF350
 6759 159c 13       		.byte	0x13
 6760 159d 1301     		.2byte	0x113
 6761 159f 25000000 		.4byte	0x25
 6762 15a3 6C01     		.2byte	0x16c
 6763 15a5 1A       		.uleb128 0x1a
 6764 15a6 31360000 		.4byte	.LASF351
 6765 15aa 13       		.byte	0x13
 6766 15ab 1401     		.2byte	0x114
 6767 15ad 25000000 		.4byte	0x25
 6768 15b1 7001     		.2byte	0x170
 6769 15b3 1A       		.uleb128 0x1a
 6770 15b4 8F3D0000 		.4byte	.LASF352
 6771 15b8 13       		.byte	0x13
ARM GAS  /tmp/ccTUBOn1.s 			page 120


 6772 15b9 1501     		.2byte	0x115
 6773 15bb 25000000 		.4byte	0x25
 6774 15bf 7401     		.2byte	0x174
 6775 15c1 1A       		.uleb128 0x1a
 6776 15c2 51040000 		.4byte	.LASF353
 6777 15c6 13       		.byte	0x13
 6778 15c7 1701     		.2byte	0x117
 6779 15c9 25000000 		.4byte	0x25
 6780 15cd 7801     		.2byte	0x178
 6781 15cf 1A       		.uleb128 0x1a
 6782 15d0 9F150000 		.4byte	.LASF354
 6783 15d4 13       		.byte	0x13
 6784 15d5 1801     		.2byte	0x118
 6785 15d7 25000000 		.4byte	0x25
 6786 15db 7C01     		.2byte	0x17c
 6787 15dd 1A       		.uleb128 0x1a
 6788 15de 8F1E0000 		.4byte	.LASF355
 6789 15e2 13       		.byte	0x13
 6790 15e3 1901     		.2byte	0x119
 6791 15e5 25000000 		.4byte	0x25
 6792 15e9 8001     		.2byte	0x180
 6793 15eb 1A       		.uleb128 0x1a
 6794 15ec 142A0000 		.4byte	.LASF356
 6795 15f0 13       		.byte	0x13
 6796 15f1 1A01     		.2byte	0x11a
 6797 15f3 25000000 		.4byte	0x25
 6798 15f7 8401     		.2byte	0x184
 6799 15f9 1A       		.uleb128 0x1a
 6800 15fa 140C0000 		.4byte	.LASF357
 6801 15fe 13       		.byte	0x13
 6802 15ff 1C01     		.2byte	0x11c
 6803 1601 E9000000 		.4byte	0xe9
 6804 1605 8801     		.2byte	0x188
 6805 1607 1A       		.uleb128 0x1a
 6806 1608 643A0000 		.4byte	.LASF358
 6807 160c 13       		.byte	0x13
 6808 160d 1D01     		.2byte	0x11d
 6809 160f 25000000 		.4byte	0x25
 6810 1613 8C01     		.2byte	0x18c
 6811 1615 1A       		.uleb128 0x1a
 6812 1616 C41B0000 		.4byte	.LASF359
 6813 161a 13       		.byte	0x13
 6814 161b 1E01     		.2byte	0x11e
 6815 161d 25000000 		.4byte	0x25
 6816 1621 9001     		.2byte	0x190
 6817 1623 1A       		.uleb128 0x1a
 6818 1624 94410000 		.4byte	.LASF360
 6819 1628 13       		.byte	0x13
 6820 1629 1F01     		.2byte	0x11f
 6821 162b F9000000 		.4byte	0xf9
 6822 162f 9401     		.2byte	0x194
 6823 1631 1A       		.uleb128 0x1a
 6824 1632 570F0000 		.4byte	.LASF361
 6825 1636 13       		.byte	0x13
 6826 1637 2001     		.2byte	0x120
 6827 1639 65100000 		.4byte	0x1065
 6828 163d 9801     		.2byte	0x198
ARM GAS  /tmp/ccTUBOn1.s 			page 121


 6829 163f 1A       		.uleb128 0x1a
 6830 1640 F11B0000 		.4byte	.LASF362
 6831 1644 13       		.byte	0x13
 6832 1645 2101     		.2byte	0x121
 6833 1647 04170000 		.4byte	0x1704
 6834 164b 9901     		.2byte	0x199
 6835 164d 1A       		.uleb128 0x1a
 6836 164e 69150000 		.4byte	.LASF363
 6837 1652 13       		.byte	0x13
 6838 1653 2201     		.2byte	0x122
 6839 1655 A0100000 		.4byte	0x10a0
 6840 1659 9A01     		.2byte	0x19a
 6841 165b 1A       		.uleb128 0x1a
 6842 165c AE020000 		.4byte	.LASF364
 6843 1660 13       		.byte	0x13
 6844 1661 2301     		.2byte	0x123
 6845 1663 A6000000 		.4byte	0xa6
 6846 1667 9C01     		.2byte	0x19c
 6847 1669 1A       		.uleb128 0x1a
 6848 166a 14330000 		.4byte	.LASF365
 6849 166e 13       		.byte	0x13
 6850 166f 2401     		.2byte	0x124
 6851 1671 25000000 		.4byte	0x25
 6852 1675 A001     		.2byte	0x1a0
 6853 1677 1A       		.uleb128 0x1a
 6854 1678 D22A0000 		.4byte	.LASF366
 6855 167c 13       		.byte	0x13
 6856 167d 2501     		.2byte	0x125
 6857 167f 25000000 		.4byte	0x25
 6858 1683 A401     		.2byte	0x1a4
 6859 1685 1A       		.uleb128 0x1a
 6860 1686 20380000 		.4byte	.LASF367
 6861 168a 13       		.byte	0x13
 6862 168b 2601     		.2byte	0x126
 6863 168d 25000000 		.4byte	0x25
 6864 1691 A801     		.2byte	0x1a8
 6865 1693 1A       		.uleb128 0x1a
 6866 1694 6C090000 		.4byte	.LASF368
 6867 1698 13       		.byte	0x13
 6868 1699 2701     		.2byte	0x127
 6869 169b 25000000 		.4byte	0x25
 6870 169f AC01     		.2byte	0x1ac
 6871 16a1 1A       		.uleb128 0x1a
 6872 16a2 5E410000 		.4byte	.LASF369
 6873 16a6 13       		.byte	0x13
 6874 16a7 2801     		.2byte	0x128
 6875 16a9 950F0000 		.4byte	0xf95
 6876 16ad B001     		.2byte	0x1b0
 6877 16af 1A       		.uleb128 0x1a
 6878 16b0 A2280000 		.4byte	.LASF370
 6879 16b4 13       		.byte	0x13
 6880 16b5 2A01     		.2byte	0x12a
 6881 16b7 C9000000 		.4byte	0xc9
 6882 16bb B101     		.2byte	0x1b1
 6883 16bd 1A       		.uleb128 0x1a
 6884 16be 2D050000 		.4byte	.LASF371
 6885 16c2 13       		.byte	0x13
ARM GAS  /tmp/ccTUBOn1.s 			page 122


 6886 16c3 2B01     		.2byte	0x12b
 6887 16c5 25000000 		.4byte	0x25
 6888 16c9 B401     		.2byte	0x1b4
 6889 16cb 1A       		.uleb128 0x1a
 6890 16cc E1140000 		.4byte	.LASF372
 6891 16d0 13       		.byte	0x13
 6892 16d1 2C01     		.2byte	0x12c
 6893 16d3 25000000 		.4byte	0x25
 6894 16d7 B801     		.2byte	0x1b8
 6895 16d9 1A       		.uleb128 0x1a
 6896 16da 4F2E0000 		.4byte	.LASF373
 6897 16de 13       		.byte	0x13
 6898 16df 2D01     		.2byte	0x12d
 6899 16e1 FC100000 		.4byte	0x10fc
 6900 16e5 BC01     		.2byte	0x1bc
 6901 16e7 1A       		.uleb128 0x1a
 6902 16e8 652C0000 		.4byte	.LASF374
 6903 16ec 13       		.byte	0x13
 6904 16ed 2E01     		.2byte	0x12e
 6905 16ef A6000000 		.4byte	0xa6
 6906 16f3 C001     		.2byte	0x1c0
 6907 16f5 1A       		.uleb128 0x1a
 6908 16f6 AD050000 		.4byte	.LASF375
 6909 16fa 13       		.byte	0x13
 6910 16fb 2F01     		.2byte	0x12f
 6911 16fd 25000000 		.4byte	0x25
 6912 1701 C401     		.2byte	0x1c4
 6913 1703 00       		.byte	0
 6914 1704 02       		.uleb128 0x2
 6915 1705 01       		.byte	0x1
 6916 1706 02       		.byte	0x2
 6917 1707 0E020000 		.4byte	.LASF376
 6918 170b 11       		.uleb128 0x11
 6919 170c BE000000 		.4byte	0xbe
 6920 1710 1B170000 		.4byte	0x171b
 6921 1714 12       		.uleb128 0x12
 6922 1715 B7000000 		.4byte	0xb7
 6923 1719 07       		.byte	0x7
 6924 171a 00       		.byte	0
 6925 171b 11       		.uleb128 0x11
 6926 171c C9000000 		.4byte	0xc9
 6927 1720 2B170000 		.4byte	0x172b
 6928 1724 12       		.uleb128 0x12
 6929 1725 B7000000 		.4byte	0xb7
 6930 1729 07       		.byte	0x7
 6931 172a 00       		.byte	0
 6932 172b 18       		.uleb128 0x18
 6933 172c 753A0000 		.4byte	.LASF377
 6934 1730 13       		.byte	0x13
 6935 1731 3001     		.2byte	0x130
 6936 1733 07110000 		.4byte	0x1107
 6937 1737 24       		.uleb128 0x24
 6938 1738 07       		.byte	0x7
 6939 1739 01       		.byte	0x1
 6940 173a 49000000 		.4byte	0x49
 6941 173e 13       		.byte	0x13
 6942 173f 3301     		.2byte	0x133
ARM GAS  /tmp/ccTUBOn1.s 			page 123


 6943 1741 7C170000 		.4byte	0x177c
 6944 1745 21       		.uleb128 0x21
 6945 1746 B42A0000 		.4byte	.LASF378
 6946 174a 00       		.byte	0
 6947 174b 21       		.uleb128 0x21
 6948 174c 58180000 		.4byte	.LASF379
 6949 1750 01       		.byte	0x1
 6950 1751 21       		.uleb128 0x21
 6951 1752 3A2D0000 		.4byte	.LASF380
 6952 1756 02       		.byte	0x2
 6953 1757 21       		.uleb128 0x21
 6954 1758 7F300000 		.4byte	.LASF381
 6955 175c 03       		.byte	0x3
 6956 175d 21       		.uleb128 0x21
 6957 175e 122C0000 		.4byte	.LASF382
 6958 1762 04       		.byte	0x4
 6959 1763 21       		.uleb128 0x21
 6960 1764 AD300000 		.4byte	.LASF383
 6961 1768 05       		.byte	0x5
 6962 1769 21       		.uleb128 0x21
 6963 176a 8F170000 		.4byte	.LASF384
 6964 176e 06       		.byte	0x6
 6965 176f 21       		.uleb128 0x21
 6966 1770 A70B0000 		.4byte	.LASF385
 6967 1774 07       		.byte	0x7
 6968 1775 21       		.uleb128 0x21
 6969 1776 00300000 		.4byte	.LASF386
 6970 177a 08       		.byte	0x8
 6971 177b 00       		.byte	0
 6972 177c 18       		.uleb128 0x18
 6973 177d 07080000 		.4byte	.LASF387
 6974 1781 13       		.byte	0x13
 6975 1782 3D01     		.2byte	0x13d
 6976 1784 37170000 		.4byte	0x1737
 6977 1788 24       		.uleb128 0x24
 6978 1789 07       		.byte	0x7
 6979 178a 01       		.byte	0x1
 6980 178b 49000000 		.4byte	0x49
 6981 178f 13       		.byte	0x13
 6982 1790 4001     		.2byte	0x140
 6983 1792 A9170000 		.4byte	0x17a9
 6984 1796 21       		.uleb128 0x21
 6985 1797 8D210000 		.4byte	.LASF388
 6986 179b 00       		.byte	0
 6987 179c 21       		.uleb128 0x21
 6988 179d 0E0F0000 		.4byte	.LASF389
 6989 17a1 01       		.byte	0x1
 6990 17a2 21       		.uleb128 0x21
 6991 17a3 13390000 		.4byte	.LASF390
 6992 17a7 02       		.byte	0x2
 6993 17a8 00       		.byte	0
 6994 17a9 18       		.uleb128 0x18
 6995 17aa EE230000 		.4byte	.LASF391
 6996 17ae 13       		.byte	0x13
 6997 17af 4401     		.2byte	0x144
 6998 17b1 88170000 		.4byte	0x1788
 6999 17b5 24       		.uleb128 0x24
ARM GAS  /tmp/ccTUBOn1.s 			page 124


 7000 17b6 07       		.byte	0x7
 7001 17b7 01       		.byte	0x1
 7002 17b8 49000000 		.4byte	0x49
 7003 17bc 13       		.byte	0x13
 7004 17bd 4701     		.2byte	0x147
 7005 17bf F4170000 		.4byte	0x17f4
 7006 17c3 21       		.uleb128 0x21
 7007 17c4 B0000000 		.4byte	.LASF392
 7008 17c8 00       		.byte	0
 7009 17c9 21       		.uleb128 0x21
 7010 17ca 6E200000 		.4byte	.LASF393
 7011 17ce 01       		.byte	0x1
 7012 17cf 21       		.uleb128 0x21
 7013 17d0 893E0000 		.4byte	.LASF394
 7014 17d4 02       		.byte	0x2
 7015 17d5 21       		.uleb128 0x21
 7016 17d6 B6250000 		.4byte	.LASF395
 7017 17da 03       		.byte	0x3
 7018 17db 21       		.uleb128 0x21
 7019 17dc EE370000 		.4byte	.LASF396
 7020 17e0 04       		.byte	0x4
 7021 17e1 21       		.uleb128 0x21
 7022 17e2 00350000 		.4byte	.LASF397
 7023 17e6 05       		.byte	0x5
 7024 17e7 21       		.uleb128 0x21
 7025 17e8 FB270000 		.4byte	.LASF398
 7026 17ec 06       		.byte	0x6
 7027 17ed 21       		.uleb128 0x21
 7028 17ee 2B0B0000 		.4byte	.LASF399
 7029 17f2 07       		.byte	0x7
 7030 17f3 00       		.byte	0
 7031 17f4 18       		.uleb128 0x18
 7032 17f5 20190000 		.4byte	.LASF400
 7033 17f9 13       		.byte	0x13
 7034 17fa 5001     		.2byte	0x150
 7035 17fc B5170000 		.4byte	0x17b5
 7036 1800 17       		.uleb128 0x17
 7037 1801 38       		.byte	0x38
 7038 1802 13       		.byte	0x13
 7039 1803 5201     		.2byte	0x152
 7040 1805 D9180000 		.4byte	0x18d9
 7041 1809 0A       		.uleb128 0xa
 7042 180a 4D000000 		.4byte	.LASF401
 7043 180e 13       		.byte	0x13
 7044 180f 5301     		.2byte	0x153
 7045 1811 F4170000 		.4byte	0x17f4
 7046 1815 00       		.byte	0
 7047 1816 0A       		.uleb128 0xa
 7048 1817 E83B0000 		.4byte	.LASF402
 7049 181b 13       		.byte	0x13
 7050 181c 5401     		.2byte	0x154
 7051 181e 25000000 		.4byte	0x25
 7052 1822 04       		.byte	0x4
 7053 1823 0A       		.uleb128 0xa
 7054 1824 09020000 		.4byte	.LASF403
 7055 1828 13       		.byte	0x13
 7056 1829 5501     		.2byte	0x155
ARM GAS  /tmp/ccTUBOn1.s 			page 125


 7057 182b 25000000 		.4byte	0x25
 7058 182f 08       		.byte	0x8
 7059 1830 0A       		.uleb128 0xa
 7060 1831 E51B0000 		.4byte	.LASF404
 7061 1835 13       		.byte	0x13
 7062 1836 5601     		.2byte	0x156
 7063 1838 25000000 		.4byte	0x25
 7064 183c 0C       		.byte	0xc
 7065 183d 0A       		.uleb128 0xa
 7066 183e AE150000 		.4byte	.LASF405
 7067 1842 13       		.byte	0x13
 7068 1843 5701     		.2byte	0x157
 7069 1845 25000000 		.4byte	0x25
 7070 1849 10       		.byte	0x10
 7071 184a 0A       		.uleb128 0xa
 7072 184b 43220000 		.4byte	.LASF406
 7073 184f 13       		.byte	0x13
 7074 1850 5801     		.2byte	0x158
 7075 1852 25000000 		.4byte	0x25
 7076 1856 14       		.byte	0x14
 7077 1857 0A       		.uleb128 0xa
 7078 1858 290F0000 		.4byte	.LASF407
 7079 185c 13       		.byte	0x13
 7080 185d 5901     		.2byte	0x159
 7081 185f 04170000 		.4byte	0x1704
 7082 1863 18       		.byte	0x18
 7083 1864 0A       		.uleb128 0xa
 7084 1865 C0340000 		.4byte	.LASF408
 7085 1869 13       		.byte	0x13
 7086 186a 5A01     		.2byte	0x15a
 7087 186c 04170000 		.4byte	0x1704
 7088 1870 19       		.byte	0x19
 7089 1871 0A       		.uleb128 0xa
 7090 1872 EE270000 		.4byte	.LASF409
 7091 1876 13       		.byte	0x13
 7092 1877 5B01     		.2byte	0x15b
 7093 1879 25000000 		.4byte	0x25
 7094 187d 1C       		.byte	0x1c
 7095 187e 0A       		.uleb128 0xa
 7096 187f 172F0000 		.4byte	.LASF410
 7097 1883 13       		.byte	0x13
 7098 1884 5C01     		.2byte	0x15c
 7099 1886 25000000 		.4byte	0x25
 7100 188a 20       		.byte	0x20
 7101 188b 0A       		.uleb128 0xa
 7102 188c C3090000 		.4byte	.LASF411
 7103 1890 13       		.byte	0x13
 7104 1891 5D01     		.2byte	0x15d
 7105 1893 A9170000 		.4byte	0x17a9
 7106 1897 24       		.byte	0x24
 7107 1898 0A       		.uleb128 0xa
 7108 1899 A62B0000 		.4byte	.LASF412
 7109 189d 13       		.byte	0x13
 7110 189e 5E01     		.2byte	0x15e
 7111 18a0 25000000 		.4byte	0x25
 7112 18a4 28       		.byte	0x28
 7113 18a5 0A       		.uleb128 0xa
ARM GAS  /tmp/ccTUBOn1.s 			page 126


 7114 18a6 59140000 		.4byte	.LASF413
 7115 18aa 13       		.byte	0x13
 7116 18ab 5F01     		.2byte	0x15f
 7117 18ad 25000000 		.4byte	0x25
 7118 18b1 2C       		.byte	0x2c
 7119 18b2 0A       		.uleb128 0xa
 7120 18b3 9D3C0000 		.4byte	.LASF414
 7121 18b7 13       		.byte	0x13
 7122 18b8 6001     		.2byte	0x160
 7123 18ba 04170000 		.4byte	0x1704
 7124 18be 30       		.byte	0x30
 7125 18bf 09       		.uleb128 0x9
 7126 18c0 746300   		.ascii	"tc\000"
 7127 18c3 13       		.byte	0x13
 7128 18c4 6101     		.2byte	0x161
 7129 18c6 04170000 		.4byte	0x1704
 7130 18ca 31       		.byte	0x31
 7131 18cb 0A       		.uleb128 0xa
 7132 18cc DE080000 		.4byte	.LASF415
 7133 18d0 13       		.byte	0x13
 7134 18d1 6201     		.2byte	0x162
 7135 18d3 25000000 		.4byte	0x25
 7136 18d7 34       		.byte	0x34
 7137 18d8 00       		.byte	0
 7138 18d9 18       		.uleb128 0x18
 7139 18da 180B0000 		.4byte	.LASF416
 7140 18de 13       		.byte	0x13
 7141 18df 6301     		.2byte	0x163
 7142 18e1 00180000 		.4byte	0x1800
 7143 18e5 24       		.uleb128 0x24
 7144 18e6 07       		.byte	0x7
 7145 18e7 01       		.byte	0x1
 7146 18e8 49000000 		.4byte	0x49
 7147 18ec 13       		.byte	0x13
 7148 18ed 6601     		.2byte	0x166
 7149 18ef 4E190000 		.4byte	0x194e
 7150 18f3 21       		.uleb128 0x21
 7151 18f4 C4320000 		.4byte	.LASF417
 7152 18f8 00       		.byte	0
 7153 18f9 21       		.uleb128 0x21
 7154 18fa 343B0000 		.4byte	.LASF418
 7155 18fe 01       		.byte	0x1
 7156 18ff 21       		.uleb128 0x21
 7157 1900 56160000 		.4byte	.LASF419
 7158 1904 02       		.byte	0x2
 7159 1905 21       		.uleb128 0x21
 7160 1906 680B0000 		.4byte	.LASF420
 7161 190a 03       		.byte	0x3
 7162 190b 21       		.uleb128 0x21
 7163 190c F5150000 		.4byte	.LASF421
 7164 1910 04       		.byte	0x4
 7165 1911 21       		.uleb128 0x21
 7166 1912 6D180000 		.4byte	.LASF422
 7167 1916 05       		.byte	0x5
 7168 1917 21       		.uleb128 0x21
 7169 1918 DE1D0000 		.4byte	.LASF423
 7170 191c 06       		.byte	0x6
ARM GAS  /tmp/ccTUBOn1.s 			page 127


 7171 191d 21       		.uleb128 0x21
 7172 191e 04050000 		.4byte	.LASF424
 7173 1922 07       		.byte	0x7
 7174 1923 21       		.uleb128 0x21
 7175 1924 8C3F0000 		.4byte	.LASF425
 7176 1928 08       		.byte	0x8
 7177 1929 21       		.uleb128 0x21
 7178 192a EF290000 		.4byte	.LASF426
 7179 192e 09       		.byte	0x9
 7180 192f 21       		.uleb128 0x21
 7181 1930 02190000 		.4byte	.LASF427
 7182 1934 0A       		.byte	0xa
 7183 1935 21       		.uleb128 0x21
 7184 1936 CD1E0000 		.4byte	.LASF428
 7185 193a 0B       		.byte	0xb
 7186 193b 21       		.uleb128 0x21
 7187 193c 3F3C0000 		.4byte	.LASF429
 7188 1940 0C       		.byte	0xc
 7189 1941 21       		.uleb128 0x21
 7190 1942 E0380000 		.4byte	.LASF430
 7191 1946 0D       		.byte	0xd
 7192 1947 21       		.uleb128 0x21
 7193 1948 58220000 		.4byte	.LASF431
 7194 194c 0E       		.byte	0xe
 7195 194d 00       		.byte	0
 7196 194e 18       		.uleb128 0x18
 7197 194f 782E0000 		.4byte	.LASF432
 7198 1953 13       		.byte	0x13
 7199 1954 7601     		.2byte	0x176
 7200 1956 E5180000 		.4byte	0x18e5
 7201 195a 17       		.uleb128 0x17
 7202 195b 44       		.byte	0x44
 7203 195c 13       		.byte	0x13
 7204 195d 7801     		.2byte	0x178
 7205 195f 811A0000 		.4byte	0x1a81
 7206 1963 0A       		.uleb128 0xa
 7207 1964 4D000000 		.4byte	.LASF401
 7208 1968 13       		.byte	0x13
 7209 1969 7901     		.2byte	0x179
 7210 196b 4E190000 		.4byte	0x194e
 7211 196f 00       		.byte	0
 7212 1970 0A       		.uleb128 0xa
 7213 1971 09020000 		.4byte	.LASF403
 7214 1975 13       		.byte	0x13
 7215 1976 7A01     		.2byte	0x17a
 7216 1978 25000000 		.4byte	0x25
 7217 197c 04       		.byte	0x4
 7218 197d 0A       		.uleb128 0xa
 7219 197e 4B0B0000 		.4byte	.LASF433
 7220 1982 13       		.byte	0x13
 7221 1983 7B01     		.2byte	0x17b
 7222 1985 25000000 		.4byte	0x25
 7223 1989 08       		.byte	0x8
 7224 198a 0A       		.uleb128 0xa
 7225 198b 002B0000 		.4byte	.LASF434
 7226 198f 13       		.byte	0x13
 7227 1990 7C01     		.2byte	0x17c
ARM GAS  /tmp/ccTUBOn1.s 			page 128


 7228 1992 25000000 		.4byte	0x25
 7229 1996 0C       		.byte	0xc
 7230 1997 0A       		.uleb128 0xa
 7231 1998 E0340000 		.4byte	.LASF435
 7232 199c 13       		.byte	0x13
 7233 199d 7D01     		.2byte	0x17d
 7234 199f 25000000 		.4byte	0x25
 7235 19a3 10       		.byte	0x10
 7236 19a4 0A       		.uleb128 0xa
 7237 19a5 8F1F0000 		.4byte	.LASF436
 7238 19a9 13       		.byte	0x13
 7239 19aa 7E01     		.2byte	0x17e
 7240 19ac 25000000 		.4byte	0x25
 7241 19b0 14       		.byte	0x14
 7242 19b1 0A       		.uleb128 0xa
 7243 19b2 5A260000 		.4byte	.LASF437
 7244 19b6 13       		.byte	0x13
 7245 19b7 7F01     		.2byte	0x17f
 7246 19b9 25000000 		.4byte	0x25
 7247 19bd 18       		.byte	0x18
 7248 19be 0A       		.uleb128 0xa
 7249 19bf 593A0000 		.4byte	.LASF438
 7250 19c3 13       		.byte	0x13
 7251 19c4 8001     		.2byte	0x180
 7252 19c6 04170000 		.4byte	0x1704
 7253 19ca 1C       		.byte	0x1c
 7254 19cb 0A       		.uleb128 0xa
 7255 19cc C0340000 		.4byte	.LASF408
 7256 19d0 13       		.byte	0x13
 7257 19d1 8101     		.2byte	0x181
 7258 19d3 04170000 		.4byte	0x1704
 7259 19d7 1D       		.byte	0x1d
 7260 19d8 0A       		.uleb128 0xa
 7261 19d9 4F020000 		.4byte	.LASF439
 7262 19dd 13       		.byte	0x13
 7263 19de 8201     		.2byte	0x182
 7264 19e0 04170000 		.4byte	0x1704
 7265 19e4 1E       		.byte	0x1e
 7266 19e5 0A       		.uleb128 0xa
 7267 19e6 F4300000 		.4byte	.LASF440
 7268 19ea 13       		.byte	0x13
 7269 19eb 8301     		.2byte	0x183
 7270 19ed 04170000 		.4byte	0x1704
 7271 19f1 1F       		.byte	0x1f
 7272 19f2 0A       		.uleb128 0xa
 7273 19f3 F8020000 		.4byte	.LASF441
 7274 19f7 13       		.byte	0x13
 7275 19f8 8401     		.2byte	0x184
 7276 19fa 04170000 		.4byte	0x1704
 7277 19fe 20       		.byte	0x20
 7278 19ff 0A       		.uleb128 0xa
 7279 1a00 6A0F0000 		.4byte	.LASF442
 7280 1a04 13       		.byte	0x13
 7281 1a05 8501     		.2byte	0x185
 7282 1a07 04170000 		.4byte	0x1704
 7283 1a0b 21       		.byte	0x21
 7284 1a0c 0A       		.uleb128 0xa
ARM GAS  /tmp/ccTUBOn1.s 			page 129


 7285 1a0d EE270000 		.4byte	.LASF409
 7286 1a11 13       		.byte	0x13
 7287 1a12 8601     		.2byte	0x186
 7288 1a14 25000000 		.4byte	0x25
 7289 1a18 24       		.byte	0x24
 7290 1a19 0A       		.uleb128 0xa
 7291 1a1a 172F0000 		.4byte	.LASF410
 7292 1a1e 13       		.byte	0x13
 7293 1a1f 8701     		.2byte	0x187
 7294 1a21 25000000 		.4byte	0x25
 7295 1a25 28       		.byte	0x28
 7296 1a26 0A       		.uleb128 0xa
 7297 1a27 C3090000 		.4byte	.LASF411
 7298 1a2b 13       		.byte	0x13
 7299 1a2c 8801     		.2byte	0x188
 7300 1a2e A9170000 		.4byte	0x17a9
 7301 1a32 2C       		.byte	0x2c
 7302 1a33 0A       		.uleb128 0xa
 7303 1a34 A62B0000 		.4byte	.LASF412
 7304 1a38 13       		.byte	0x13
 7305 1a39 8901     		.2byte	0x189
 7306 1a3b 25000000 		.4byte	0x25
 7307 1a3f 30       		.byte	0x30
 7308 1a40 0A       		.uleb128 0xa
 7309 1a41 59140000 		.4byte	.LASF413
 7310 1a45 13       		.byte	0x13
 7311 1a46 8A01     		.2byte	0x18a
 7312 1a48 25000000 		.4byte	0x25
 7313 1a4c 34       		.byte	0x34
 7314 1a4d 0A       		.uleb128 0xa
 7315 1a4e 9D3C0000 		.4byte	.LASF414
 7316 1a52 13       		.byte	0x13
 7317 1a53 8B01     		.2byte	0x18b
 7318 1a55 04170000 		.4byte	0x1704
 7319 1a59 38       		.byte	0x38
 7320 1a5a 09       		.uleb128 0x9
 7321 1a5b 746300   		.ascii	"tc\000"
 7322 1a5e 13       		.byte	0x13
 7323 1a5f 8C01     		.2byte	0x18c
 7324 1a61 04170000 		.4byte	0x1704
 7325 1a65 39       		.byte	0x39
 7326 1a66 0A       		.uleb128 0xa
 7327 1a67 DE080000 		.4byte	.LASF415
 7328 1a6b 13       		.byte	0x13
 7329 1a6c 8D01     		.2byte	0x18d
 7330 1a6e 25000000 		.4byte	0x25
 7331 1a72 3C       		.byte	0x3c
 7332 1a73 0A       		.uleb128 0xa
 7333 1a74 B00F0000 		.4byte	.LASF443
 7334 1a78 13       		.byte	0x13
 7335 1a79 8E01     		.2byte	0x18e
 7336 1a7b F9000000 		.4byte	0xf9
 7337 1a7f 40       		.byte	0x40
 7338 1a80 00       		.byte	0
 7339 1a81 18       		.uleb128 0x18
 7340 1a82 ED0B0000 		.4byte	.LASF444
 7341 1a86 13       		.byte	0x13
ARM GAS  /tmp/ccTUBOn1.s 			page 130


 7342 1a87 8F01     		.2byte	0x18f
 7343 1a89 5A190000 		.4byte	0x195a
 7344 1a8d 24       		.uleb128 0x24
 7345 1a8e 07       		.byte	0x7
 7346 1a8f 01       		.byte	0x1
 7347 1a90 49000000 		.4byte	0x49
 7348 1a94 13       		.byte	0x13
 7349 1a95 9201     		.2byte	0x192
 7350 1a97 AE1A0000 		.4byte	0x1aae
 7351 1a9b 21       		.uleb128 0x21
 7352 1a9c 30260000 		.4byte	.LASF445
 7353 1aa0 00       		.byte	0
 7354 1aa1 21       		.uleb128 0x21
 7355 1aa2 2A000000 		.4byte	.LASF446
 7356 1aa6 01       		.byte	0x1
 7357 1aa7 21       		.uleb128 0x21
 7358 1aa8 13260000 		.4byte	.LASF447
 7359 1aac 02       		.byte	0x2
 7360 1aad 00       		.byte	0
 7361 1aae 18       		.uleb128 0x18
 7362 1aaf D3260000 		.4byte	.LASF448
 7363 1ab3 13       		.byte	0x13
 7364 1ab4 9601     		.2byte	0x196
 7365 1ab6 8D1A0000 		.4byte	0x1a8d
 7366 1aba 17       		.uleb128 0x17
 7367 1abb 24       		.byte	0x24
 7368 1abc 13       		.byte	0x13
 7369 1abd 9801     		.2byte	0x198
 7370 1abf 521B0000 		.4byte	0x1b52
 7371 1ac3 0A       		.uleb128 0xa
 7372 1ac4 4D000000 		.4byte	.LASF401
 7373 1ac8 13       		.byte	0x13
 7374 1ac9 9901     		.2byte	0x199
 7375 1acb AE1A0000 		.4byte	0x1aae
 7376 1acf 00       		.byte	0
 7377 1ad0 0A       		.uleb128 0xa
 7378 1ad1 09020000 		.4byte	.LASF403
 7379 1ad5 13       		.byte	0x13
 7380 1ad6 9A01     		.2byte	0x19a
 7381 1ad8 25000000 		.4byte	0x25
 7382 1adc 04       		.byte	0x4
 7383 1add 0A       		.uleb128 0xa
 7384 1ade A62B0000 		.4byte	.LASF412
 7385 1ae2 13       		.byte	0x13
 7386 1ae3 9B01     		.2byte	0x19b
 7387 1ae5 25000000 		.4byte	0x25
 7388 1ae9 08       		.byte	0x8
 7389 1aea 0A       		.uleb128 0xa
 7390 1aeb 59140000 		.4byte	.LASF413
 7391 1aef 13       		.byte	0x13
 7392 1af0 9C01     		.2byte	0x19c
 7393 1af2 25000000 		.4byte	0x25
 7394 1af6 0C       		.byte	0xc
 7395 1af7 0A       		.uleb128 0xa
 7396 1af8 49100000 		.4byte	.LASF449
 7397 1afc 13       		.byte	0x13
 7398 1afd 9D01     		.2byte	0x19d
ARM GAS  /tmp/ccTUBOn1.s 			page 131


 7399 1aff 25000000 		.4byte	0x25
 7400 1b03 10       		.byte	0x10
 7401 1b04 0A       		.uleb128 0xa
 7402 1b05 EE270000 		.4byte	.LASF409
 7403 1b09 13       		.byte	0x13
 7404 1b0a 9E01     		.2byte	0x19e
 7405 1b0c 25000000 		.4byte	0x25
 7406 1b10 14       		.byte	0x14
 7407 1b11 0A       		.uleb128 0xa
 7408 1b12 172F0000 		.4byte	.LASF410
 7409 1b16 13       		.byte	0x13
 7410 1b17 9F01     		.2byte	0x19f
 7411 1b19 25000000 		.4byte	0x25
 7412 1b1d 18       		.byte	0x18
 7413 1b1e 0A       		.uleb128 0xa
 7414 1b1f C3090000 		.4byte	.LASF411
 7415 1b23 13       		.byte	0x13
 7416 1b24 A001     		.2byte	0x1a0
 7417 1b26 A9170000 		.4byte	0x17a9
 7418 1b2a 1C       		.byte	0x1c
 7419 1b2b 0A       		.uleb128 0xa
 7420 1b2c 9D3C0000 		.4byte	.LASF414
 7421 1b30 13       		.byte	0x13
 7422 1b31 A101     		.2byte	0x1a1
 7423 1b33 04170000 		.4byte	0x1704
 7424 1b37 1D       		.byte	0x1d
 7425 1b38 09       		.uleb128 0x9
 7426 1b39 746300   		.ascii	"tc\000"
 7427 1b3c 13       		.byte	0x13
 7428 1b3d A201     		.2byte	0x1a2
 7429 1b3f 04170000 		.4byte	0x1704
 7430 1b43 1E       		.byte	0x1e
 7431 1b44 0A       		.uleb128 0xa
 7432 1b45 DE080000 		.4byte	.LASF415
 7433 1b49 13       		.byte	0x13
 7434 1b4a A301     		.2byte	0x1a3
 7435 1b4c 25000000 		.4byte	0x25
 7436 1b50 20       		.byte	0x20
 7437 1b51 00       		.byte	0
 7438 1b52 18       		.uleb128 0x18
 7439 1b53 9C320000 		.4byte	.LASF450
 7440 1b57 13       		.byte	0x13
 7441 1b58 A401     		.2byte	0x1a4
 7442 1b5a BA1A0000 		.4byte	0x1aba
 7443 1b5e 24       		.uleb128 0x24
 7444 1b5f 07       		.byte	0x7
 7445 1b60 01       		.byte	0x1
 7446 1b61 49000000 		.4byte	0x49
 7447 1b65 13       		.byte	0x13
 7448 1b66 A701     		.2byte	0x1a7
 7449 1b68 7F1B0000 		.4byte	0x1b7f
 7450 1b6c 21       		.uleb128 0x21
 7451 1b6d 81250000 		.4byte	.LASF451
 7452 1b71 00       		.byte	0
 7453 1b72 21       		.uleb128 0x21
 7454 1b73 452F0000 		.4byte	.LASF452
 7455 1b77 01       		.byte	0x1
ARM GAS  /tmp/ccTUBOn1.s 			page 132


 7456 1b78 21       		.uleb128 0x21
 7457 1b79 63300000 		.4byte	.LASF453
 7458 1b7d 02       		.byte	0x2
 7459 1b7e 00       		.byte	0
 7460 1b7f 18       		.uleb128 0x18
 7461 1b80 4F140000 		.4byte	.LASF454
 7462 1b84 13       		.byte	0x13
 7463 1b85 AB01     		.2byte	0x1ab
 7464 1b87 5E1B0000 		.4byte	0x1b5e
 7465 1b8b 24       		.uleb128 0x24
 7466 1b8c 07       		.byte	0x7
 7467 1b8d 01       		.byte	0x1
 7468 1b8e 49000000 		.4byte	0x49
 7469 1b92 13       		.byte	0x13
 7470 1b93 AD01     		.2byte	0x1ad
 7471 1b95 B81B0000 		.4byte	0x1bb8
 7472 1b99 21       		.uleb128 0x21
 7473 1b9a E9030000 		.4byte	.LASF455
 7474 1b9e 00       		.byte	0
 7475 1b9f 21       		.uleb128 0x21
 7476 1ba0 EE0C0000 		.4byte	.LASF456
 7477 1ba4 01       		.byte	0x1
 7478 1ba5 21       		.uleb128 0x21
 7479 1ba6 BE0E0000 		.4byte	.LASF457
 7480 1baa 02       		.byte	0x2
 7481 1bab 21       		.uleb128 0x21
 7482 1bac 50050000 		.4byte	.LASF458
 7483 1bb0 03       		.byte	0x3
 7484 1bb1 21       		.uleb128 0x21
 7485 1bb2 842C0000 		.4byte	.LASF459
 7486 1bb6 04       		.byte	0x4
 7487 1bb7 00       		.byte	0
 7488 1bb8 18       		.uleb128 0x18
 7489 1bb9 82290000 		.4byte	.LASF460
 7490 1bbd 13       		.byte	0x13
 7491 1bbe B301     		.2byte	0x1b3
 7492 1bc0 8B1B0000 		.4byte	0x1b8b
 7493 1bc4 24       		.uleb128 0x24
 7494 1bc5 07       		.byte	0x7
 7495 1bc6 01       		.byte	0x1
 7496 1bc7 49000000 		.4byte	0x49
 7497 1bcb 13       		.byte	0x13
 7498 1bcc BB01     		.2byte	0x1bb
 7499 1bce E51B0000 		.4byte	0x1be5
 7500 1bd2 21       		.uleb128 0x21
 7501 1bd3 462A0000 		.4byte	.LASF461
 7502 1bd7 00       		.byte	0
 7503 1bd8 21       		.uleb128 0x21
 7504 1bd9 653B0000 		.4byte	.LASF462
 7505 1bdd 01       		.byte	0x1
 7506 1bde 21       		.uleb128 0x21
 7507 1bdf A73C0000 		.4byte	.LASF463
 7508 1be3 02       		.byte	0x2
 7509 1be4 00       		.byte	0
 7510 1be5 18       		.uleb128 0x18
 7511 1be6 300A0000 		.4byte	.LASF464
 7512 1bea 13       		.byte	0x13
ARM GAS  /tmp/ccTUBOn1.s 			page 133


 7513 1beb BF01     		.2byte	0x1bf
 7514 1bed C41B0000 		.4byte	0x1bc4
 7515 1bf1 24       		.uleb128 0x24
 7516 1bf2 07       		.byte	0x7
 7517 1bf3 01       		.byte	0x1
 7518 1bf4 49000000 		.4byte	0x49
 7519 1bf8 13       		.byte	0x13
 7520 1bf9 C101     		.2byte	0x1c1
 7521 1bfb 601C0000 		.4byte	0x1c60
 7522 1bff 21       		.uleb128 0x21
 7523 1c00 72240000 		.4byte	.LASF465
 7524 1c04 00       		.byte	0
 7525 1c05 21       		.uleb128 0x21
 7526 1c06 3B050000 		.4byte	.LASF466
 7527 1c0a 01       		.byte	0x1
 7528 1c0b 21       		.uleb128 0x21
 7529 1c0c 92010000 		.4byte	.LASF467
 7530 1c10 02       		.byte	0x2
 7531 1c11 21       		.uleb128 0x21
 7532 1c12 DE390000 		.4byte	.LASF468
 7533 1c16 03       		.byte	0x3
 7534 1c17 21       		.uleb128 0x21
 7535 1c18 C43C0000 		.4byte	.LASF469
 7536 1c1c 04       		.byte	0x4
 7537 1c1d 21       		.uleb128 0x21
 7538 1c1e 971E0000 		.4byte	.LASF470
 7539 1c22 05       		.byte	0x5
 7540 1c23 21       		.uleb128 0x21
 7541 1c24 47200000 		.4byte	.LASF471
 7542 1c28 06       		.byte	0x6
 7543 1c29 21       		.uleb128 0x21
 7544 1c2a C1380000 		.4byte	.LASF472
 7545 1c2e 07       		.byte	0x7
 7546 1c2f 21       		.uleb128 0x21
 7547 1c30 56110000 		.4byte	.LASF473
 7548 1c34 08       		.byte	0x8
 7549 1c35 21       		.uleb128 0x21
 7550 1c36 D8190000 		.4byte	.LASF474
 7551 1c3a 09       		.byte	0x9
 7552 1c3b 21       		.uleb128 0x21
 7553 1c3c EC1F0000 		.4byte	.LASF475
 7554 1c40 0A       		.byte	0xa
 7555 1c41 21       		.uleb128 0x21
 7556 1c42 91370000 		.4byte	.LASF476
 7557 1c46 0B       		.byte	0xb
 7558 1c47 21       		.uleb128 0x21
 7559 1c48 A23A0000 		.4byte	.LASF477
 7560 1c4c 0C       		.byte	0xc
 7561 1c4d 21       		.uleb128 0x21
 7562 1c4e 0F1D0000 		.4byte	.LASF478
 7563 1c52 0D       		.byte	0xd
 7564 1c53 21       		.uleb128 0x21
 7565 1c54 E62B0000 		.4byte	.LASF479
 7566 1c58 0E       		.byte	0xe
 7567 1c59 21       		.uleb128 0x21
 7568 1c5a E0100000 		.4byte	.LASF480
 7569 1c5e 0F       		.byte	0xf
ARM GAS  /tmp/ccTUBOn1.s 			page 134


 7570 1c5f 00       		.byte	0
 7571 1c60 18       		.uleb128 0x18
 7572 1c61 B1060000 		.4byte	.LASF481
 7573 1c65 13       		.byte	0x13
 7574 1c66 D201     		.2byte	0x1d2
 7575 1c68 F11B0000 		.4byte	0x1bf1
 7576 1c6c 17       		.uleb128 0x17
 7577 1c6d 0A       		.byte	0xa
 7578 1c6e 13       		.byte	0x13
 7579 1c6f D401     		.2byte	0x1d4
 7580 1c71 DE1C0000 		.4byte	0x1cde
 7581 1c75 0A       		.uleb128 0xa
 7582 1c76 FA310000 		.4byte	.LASF482
 7583 1c7a 13       		.byte	0x13
 7584 1c7b D501     		.2byte	0x1d5
 7585 1c7d 7F1B0000 		.4byte	0x1b7f
 7586 1c81 00       		.byte	0
 7587 1c82 0A       		.uleb128 0xa
 7588 1c83 AE2A0000 		.4byte	.LASF483
 7589 1c87 13       		.byte	0x13
 7590 1c88 D601     		.2byte	0x1d6
 7591 1c8a B81B0000 		.4byte	0x1bb8
 7592 1c8e 01       		.byte	0x1
 7593 1c8f 0A       		.uleb128 0xa
 7594 1c90 8D260000 		.4byte	.LASF484
 7595 1c94 13       		.byte	0x13
 7596 1c95 D701     		.2byte	0x1d7
 7597 1c97 E51B0000 		.4byte	0x1be5
 7598 1c9b 02       		.byte	0x2
 7599 1c9c 0A       		.uleb128 0xa
 7600 1c9d 5A3C0000 		.4byte	.LASF485
 7601 1ca1 13       		.byte	0x13
 7602 1ca2 D801     		.2byte	0x1d8
 7603 1ca4 601C0000 		.4byte	0x1c60
 7604 1ca8 03       		.byte	0x3
 7605 1ca9 0A       		.uleb128 0xa
 7606 1caa EB040000 		.4byte	.LASF486
 7607 1cae 13       		.byte	0x13
 7608 1caf D901     		.2byte	0x1d9
 7609 1cb1 49000000 		.4byte	0x49
 7610 1cb5 04       		.byte	0x4
 7611 1cb6 0A       		.uleb128 0xa
 7612 1cb7 681E0000 		.4byte	.LASF487
 7613 1cbb 13       		.byte	0x13
 7614 1cbc DA01     		.2byte	0x1da
 7615 1cbe 49000000 		.4byte	0x49
 7616 1cc2 05       		.byte	0x5
 7617 1cc3 0A       		.uleb128 0xa
 7618 1cc4 8A1D0000 		.4byte	.LASF488
 7619 1cc8 13       		.byte	0x13
 7620 1cc9 DB01     		.2byte	0x1db
 7621 1ccb DE1C0000 		.4byte	0x1cde
 7622 1ccf 06       		.byte	0x6
 7623 1cd0 0A       		.uleb128 0xa
 7624 1cd1 14180000 		.4byte	.LASF489
 7625 1cd5 13       		.byte	0x13
 7626 1cd6 DC01     		.2byte	0x1dc
ARM GAS  /tmp/ccTUBOn1.s 			page 135


 7627 1cd8 04170000 		.4byte	0x1704
 7628 1cdc 09       		.byte	0x9
 7629 1cdd 00       		.byte	0
 7630 1cde 11       		.uleb128 0x11
 7631 1cdf 49000000 		.4byte	0x49
 7632 1ce3 EE1C0000 		.4byte	0x1cee
 7633 1ce7 12       		.uleb128 0x12
 7634 1ce8 B7000000 		.4byte	0xb7
 7635 1cec 02       		.byte	0x2
 7636 1ced 00       		.byte	0
 7637 1cee 18       		.uleb128 0x18
 7638 1cef 960E0000 		.4byte	.LASF490
 7639 1cf3 13       		.byte	0x13
 7640 1cf4 DD01     		.2byte	0x1dd
 7641 1cf6 6C1C0000 		.4byte	0x1c6c
 7642 1cfa 24       		.uleb128 0x24
 7643 1cfb 07       		.byte	0x7
 7644 1cfc 01       		.byte	0x1
 7645 1cfd 49000000 		.4byte	0x49
 7646 1d01 13       		.byte	0x13
 7647 1d02 E001     		.2byte	0x1e0
 7648 1d04 271D0000 		.4byte	0x1d27
 7649 1d08 21       		.uleb128 0x21
 7650 1d09 62020000 		.4byte	.LASF491
 7651 1d0d 00       		.byte	0
 7652 1d0e 21       		.uleb128 0x21
 7653 1d0f 39170000 		.4byte	.LASF492
 7654 1d13 01       		.byte	0x1
 7655 1d14 21       		.uleb128 0x21
 7656 1d15 30120000 		.4byte	.LASF493
 7657 1d19 02       		.byte	0x2
 7658 1d1a 21       		.uleb128 0x21
 7659 1d1b 580A0000 		.4byte	.LASF494
 7660 1d1f 03       		.byte	0x3
 7661 1d20 21       		.uleb128 0x21
 7662 1d21 A9180000 		.4byte	.LASF495
 7663 1d25 04       		.byte	0x4
 7664 1d26 00       		.byte	0
 7665 1d27 18       		.uleb128 0x18
 7666 1d28 511E0000 		.4byte	.LASF496
 7667 1d2c 13       		.byte	0x13
 7668 1d2d E601     		.2byte	0x1e6
 7669 1d2f FA1C0000 		.4byte	0x1cfa
 7670 1d33 17       		.uleb128 0x17
 7671 1d34 CC       		.byte	0xcc
 7672 1d35 13       		.byte	0x13
 7673 1d36 E801     		.2byte	0x1e8
 7674 1d38 0D1E0000 		.4byte	0x1e0d
 7675 1d3c 0A       		.uleb128 0xa
 7676 1d3d ED3D0000 		.4byte	.LASF497
 7677 1d41 13       		.byte	0x13
 7678 1d42 EA01     		.2byte	0x1ea
 7679 1d44 C9000000 		.4byte	0xc9
 7680 1d48 00       		.byte	0
 7681 1d49 0A       		.uleb128 0xa
 7682 1d4a CF160000 		.4byte	.LASF498
 7683 1d4e 13       		.byte	0x13
ARM GAS  /tmp/ccTUBOn1.s 			page 136


 7684 1d4f EB01     		.2byte	0x1eb
 7685 1d51 F9000000 		.4byte	0xf9
 7686 1d55 04       		.byte	0x4
 7687 1d56 0A       		.uleb128 0xa
 7688 1d57 04210000 		.4byte	.LASF499
 7689 1d5b 13       		.byte	0x13
 7690 1d5c EC01     		.2byte	0x1ec
 7691 1d5e 25000000 		.4byte	0x25
 7692 1d62 08       		.byte	0x8
 7693 1d63 0A       		.uleb128 0xa
 7694 1d64 09170000 		.4byte	.LASF500
 7695 1d68 13       		.byte	0x13
 7696 1d69 ED01     		.2byte	0x1ed
 7697 1d6b 271D0000 		.4byte	0x1d27
 7698 1d6f 0C       		.byte	0xc
 7699 1d70 0A       		.uleb128 0xa
 7700 1d71 403D0000 		.4byte	.LASF501
 7701 1d75 13       		.byte	0x13
 7702 1d76 EE01     		.2byte	0x1ee
 7703 1d78 F9000000 		.4byte	0xf9
 7704 1d7c 10       		.byte	0x10
 7705 1d7d 0A       		.uleb128 0xa
 7706 1d7e 813C0000 		.4byte	.LASF502
 7707 1d82 13       		.byte	0x13
 7708 1d83 EF01     		.2byte	0x1ef
 7709 1d85 D1100000 		.4byte	0x10d1
 7710 1d89 14       		.byte	0x14
 7711 1d8a 0A       		.uleb128 0xa
 7712 1d8b A53E0000 		.4byte	.LASF503
 7713 1d8f 13       		.byte	0x13
 7714 1d90 F001     		.2byte	0x1f0
 7715 1d92 04170000 		.4byte	0x1704
 7716 1d96 15       		.byte	0x15
 7717 1d97 0A       		.uleb128 0xa
 7718 1d98 190A0000 		.4byte	.LASF504
 7719 1d9c 13       		.byte	0x13
 7720 1d9d F101     		.2byte	0x1f1
 7721 1d9f 04170000 		.4byte	0x1704
 7722 1da3 16       		.byte	0x16
 7723 1da4 0A       		.uleb128 0xa
 7724 1da5 07410000 		.4byte	.LASF505
 7725 1da9 13       		.byte	0x13
 7726 1daa F401     		.2byte	0x1f4
 7727 1dac 04170000 		.4byte	0x1704
 7728 1db0 17       		.byte	0x17
 7729 1db1 0A       		.uleb128 0xa
 7730 1db2 F63A0000 		.4byte	.LASF506
 7731 1db6 13       		.byte	0x13
 7732 1db7 F501     		.2byte	0x1f5
 7733 1db9 C9000000 		.4byte	0xc9
 7734 1dbd 18       		.byte	0x18
 7735 1dbe 0A       		.uleb128 0xa
 7736 1dbf 0F230000 		.4byte	.LASF507
 7737 1dc3 13       		.byte	0x13
 7738 1dc4 F801     		.2byte	0x1f8
 7739 1dc6 7C170000 		.4byte	0x177c
 7740 1dca 19       		.byte	0x19
ARM GAS  /tmp/ccTUBOn1.s 			page 137


 7741 1dcb 0A       		.uleb128 0xa
 7742 1dcc 05240000 		.4byte	.LASF508
 7743 1dd0 13       		.byte	0x13
 7744 1dd1 FB01     		.2byte	0x1fb
 7745 1dd3 D9180000 		.4byte	0x18d9
 7746 1dd7 1C       		.byte	0x1c
 7747 1dd8 0A       		.uleb128 0xa
 7748 1dd9 BC240000 		.4byte	.LASF509
 7749 1ddd 13       		.byte	0x13
 7750 1dde FE01     		.2byte	0x1fe
 7751 1de0 811A0000 		.4byte	0x1a81
 7752 1de4 54       		.byte	0x54
 7753 1de5 0A       		.uleb128 0xa
 7754 1de6 37070000 		.4byte	.LASF510
 7755 1dea 13       		.byte	0x13
 7756 1deb 0102     		.2byte	0x201
 7757 1ded F9000000 		.4byte	0xf9
 7758 1df1 98       		.byte	0x98
 7759 1df2 0A       		.uleb128 0xa
 7760 1df3 84200000 		.4byte	.LASF511
 7761 1df7 13       		.byte	0x13
 7762 1df8 0402     		.2byte	0x204
 7763 1dfa 521B0000 		.4byte	0x1b52
 7764 1dfe 9C       		.byte	0x9c
 7765 1dff 0A       		.uleb128 0xa
 7766 1e00 D1080000 		.4byte	.LASF512
 7767 1e04 13       		.byte	0x13
 7768 1e05 0702     		.2byte	0x207
 7769 1e07 EE1C0000 		.4byte	0x1cee
 7770 1e0b C0       		.byte	0xc0
 7771 1e0c 00       		.byte	0
 7772 1e0d 18       		.uleb128 0x18
 7773 1e0e DD2E0000 		.4byte	.LASF513
 7774 1e12 13       		.byte	0x13
 7775 1e13 0802     		.2byte	0x208
 7776 1e15 331D0000 		.4byte	0x1d33
 7777 1e19 24       		.uleb128 0x24
 7778 1e1a 07       		.byte	0x7
 7779 1e1b 01       		.byte	0x1
 7780 1e1c 49000000 		.4byte	0x49
 7781 1e20 13       		.byte	0x13
 7782 1e21 0B02     		.2byte	0x20b
 7783 1e23 D21F0000 		.4byte	0x1fd2
 7784 1e27 21       		.uleb128 0x21
 7785 1e28 04010000 		.4byte	.LASF514
 7786 1e2c 00       		.byte	0
 7787 1e2d 21       		.uleb128 0x21
 7788 1e2e 8A270000 		.4byte	.LASF515
 7789 1e32 01       		.byte	0x1
 7790 1e33 21       		.uleb128 0x21
 7791 1e34 25150000 		.4byte	.LASF516
 7792 1e38 02       		.byte	0x2
 7793 1e39 21       		.uleb128 0x21
 7794 1e3a FE140000 		.4byte	.LASF517
 7795 1e3e 03       		.byte	0x3
 7796 1e3f 21       		.uleb128 0x21
 7797 1e40 262E0000 		.4byte	.LASF518
ARM GAS  /tmp/ccTUBOn1.s 			page 138


 7798 1e44 04       		.byte	0x4
 7799 1e45 21       		.uleb128 0x21
 7800 1e46 31190000 		.4byte	.LASF519
 7801 1e4a 05       		.byte	0x5
 7802 1e4b 21       		.uleb128 0x21
 7803 1e4c 35210000 		.4byte	.LASF520
 7804 1e50 06       		.byte	0x6
 7805 1e51 21       		.uleb128 0x21
 7806 1e52 EC360000 		.4byte	.LASF521
 7807 1e56 07       		.byte	0x7
 7808 1e57 21       		.uleb128 0x21
 7809 1e58 6E370000 		.4byte	.LASF522
 7810 1e5c 08       		.byte	0x8
 7811 1e5d 21       		.uleb128 0x21
 7812 1e5e 8C290000 		.4byte	.LASF523
 7813 1e62 09       		.byte	0x9
 7814 1e63 21       		.uleb128 0x21
 7815 1e64 54290000 		.4byte	.LASF524
 7816 1e68 0A       		.byte	0xa
 7817 1e69 21       		.uleb128 0x21
 7818 1e6a 3D270000 		.4byte	.LASF525
 7819 1e6e 0B       		.byte	0xb
 7820 1e6f 21       		.uleb128 0x21
 7821 1e70 DF200000 		.4byte	.LASF526
 7822 1e74 0C       		.byte	0xc
 7823 1e75 21       		.uleb128 0x21
 7824 1e76 1C370000 		.4byte	.LASF527
 7825 1e7a 0D       		.byte	0xd
 7826 1e7b 21       		.uleb128 0x21
 7827 1e7c 471A0000 		.4byte	.LASF528
 7828 1e80 0E       		.byte	0xe
 7829 1e81 21       		.uleb128 0x21
 7830 1e82 D52D0000 		.4byte	.LASF529
 7831 1e86 0F       		.byte	0xf
 7832 1e87 21       		.uleb128 0x21
 7833 1e88 EF340000 		.4byte	.LASF530
 7834 1e8c 10       		.byte	0x10
 7835 1e8d 21       		.uleb128 0x21
 7836 1e8e 2D310000 		.4byte	.LASF531
 7837 1e92 11       		.byte	0x11
 7838 1e93 21       		.uleb128 0x21
 7839 1e94 CF3B0000 		.4byte	.LASF532
 7840 1e98 12       		.byte	0x12
 7841 1e99 21       		.uleb128 0x21
 7842 1e9a DB0B0000 		.4byte	.LASF533
 7843 1e9e 13       		.byte	0x13
 7844 1e9f 21       		.uleb128 0x21
 7845 1ea0 223B0000 		.4byte	.LASF534
 7846 1ea4 14       		.byte	0x14
 7847 1ea5 21       		.uleb128 0x21
 7848 1ea6 CD2E0000 		.4byte	.LASF535
 7849 1eaa 15       		.byte	0x15
 7850 1eab 21       		.uleb128 0x21
 7851 1eac F4390000 		.4byte	.LASF536
 7852 1eb0 16       		.byte	0x16
 7853 1eb1 21       		.uleb128 0x21
 7854 1eb2 811C0000 		.4byte	.LASF537
ARM GAS  /tmp/ccTUBOn1.s 			page 139


 7855 1eb6 17       		.byte	0x17
 7856 1eb7 21       		.uleb128 0x21
 7857 1eb8 57350000 		.4byte	.LASF538
 7858 1ebc 18       		.byte	0x18
 7859 1ebd 21       		.uleb128 0x21
 7860 1ebe DC0F0000 		.4byte	.LASF539
 7861 1ec2 19       		.byte	0x19
 7862 1ec3 21       		.uleb128 0x21
 7863 1ec4 70170000 		.4byte	.LASF540
 7864 1ec8 1A       		.byte	0x1a
 7865 1ec9 21       		.uleb128 0x21
 7866 1eca BC2D0000 		.4byte	.LASF541
 7867 1ece 1B       		.byte	0x1b
 7868 1ecf 21       		.uleb128 0x21
 7869 1ed0 46010000 		.4byte	.LASF542
 7870 1ed4 1C       		.byte	0x1c
 7871 1ed5 21       		.uleb128 0x21
 7872 1ed6 BB400000 		.4byte	.LASF543
 7873 1eda 1D       		.byte	0x1d
 7874 1edb 21       		.uleb128 0x21
 7875 1edc F20F0000 		.4byte	.LASF544
 7876 1ee0 1E       		.byte	0x1e
 7877 1ee1 21       		.uleb128 0x21
 7878 1ee2 F71A0000 		.4byte	.LASF545
 7879 1ee6 1F       		.byte	0x1f
 7880 1ee7 21       		.uleb128 0x21
 7881 1ee8 CB340000 		.4byte	.LASF546
 7882 1eec 20       		.byte	0x20
 7883 1eed 21       		.uleb128 0x21
 7884 1eee 21290000 		.4byte	.LASF547
 7885 1ef2 21       		.byte	0x21
 7886 1ef3 21       		.uleb128 0x21
 7887 1ef4 2B1C0000 		.4byte	.LASF548
 7888 1ef8 22       		.byte	0x22
 7889 1ef9 21       		.uleb128 0x21
 7890 1efa BA300000 		.4byte	.LASF549
 7891 1efe 23       		.byte	0x23
 7892 1eff 21       		.uleb128 0x21
 7893 1f00 C9390000 		.4byte	.LASF550
 7894 1f04 24       		.byte	0x24
 7895 1f05 21       		.uleb128 0x21
 7896 1f06 86310000 		.4byte	.LASF551
 7897 1f0a 25       		.byte	0x25
 7898 1f0b 21       		.uleb128 0x21
 7899 1f0c 9B170000 		.4byte	.LASF552
 7900 1f10 26       		.byte	0x26
 7901 1f11 21       		.uleb128 0x21
 7902 1f12 ED2D0000 		.4byte	.LASF553
 7903 1f16 27       		.byte	0x27
 7904 1f17 21       		.uleb128 0x21
 7905 1f18 F0250000 		.4byte	.LASF554
 7906 1f1c 28       		.byte	0x28
 7907 1f1d 21       		.uleb128 0x21
 7908 1f1e 65330000 		.4byte	.LASF555
 7909 1f22 29       		.byte	0x29
 7910 1f23 21       		.uleb128 0x21
 7911 1f24 5A2F0000 		.4byte	.LASF556
ARM GAS  /tmp/ccTUBOn1.s 			page 140


 7912 1f28 2A       		.byte	0x2a
 7913 1f29 21       		.uleb128 0x21
 7914 1f2a 643E0000 		.4byte	.LASF557
 7915 1f2e 2B       		.byte	0x2b
 7916 1f2f 21       		.uleb128 0x21
 7917 1f30 A9390000 		.4byte	.LASF558
 7918 1f34 2C       		.byte	0x2c
 7919 1f35 21       		.uleb128 0x21
 7920 1f36 1C220000 		.4byte	.LASF559
 7921 1f3a 2D       		.byte	0x2d
 7922 1f3b 21       		.uleb128 0x21
 7923 1f3c 67140000 		.4byte	.LASF560
 7924 1f40 2E       		.byte	0x2e
 7925 1f41 21       		.uleb128 0x21
 7926 1f42 690A0000 		.4byte	.LASF561
 7927 1f46 2F       		.byte	0x2f
 7928 1f47 21       		.uleb128 0x21
 7929 1f48 C0060000 		.4byte	.LASF562
 7930 1f4c 30       		.byte	0x30
 7931 1f4d 21       		.uleb128 0x21
 7932 1f4e C21C0000 		.4byte	.LASF563
 7933 1f52 31       		.byte	0x31
 7934 1f53 21       		.uleb128 0x21
 7935 1f54 C2330000 		.4byte	.LASF564
 7936 1f58 32       		.byte	0x32
 7937 1f59 21       		.uleb128 0x21
 7938 1f5a 0D280000 		.4byte	.LASF565
 7939 1f5e 33       		.byte	0x33
 7940 1f5f 21       		.uleb128 0x21
 7941 1f60 AA030000 		.4byte	.LASF566
 7942 1f64 34       		.byte	0x34
 7943 1f65 21       		.uleb128 0x21
 7944 1f66 E5180000 		.4byte	.LASF567
 7945 1f6a 35       		.byte	0x35
 7946 1f6b 21       		.uleb128 0x21
 7947 1f6c 95000000 		.4byte	.LASF568
 7948 1f70 36       		.byte	0x36
 7949 1f71 21       		.uleb128 0x21
 7950 1f72 9E340000 		.4byte	.LASF569
 7951 1f76 37       		.byte	0x37
 7952 1f77 21       		.uleb128 0x21
 7953 1f78 FB320000 		.4byte	.LASF570
 7954 1f7c 38       		.byte	0x38
 7955 1f7d 21       		.uleb128 0x21
 7956 1f7e C7020000 		.4byte	.LASF571
 7957 1f82 39       		.byte	0x39
 7958 1f83 21       		.uleb128 0x21
 7959 1f84 B83A0000 		.4byte	.LASF572
 7960 1f88 3A       		.byte	0x3a
 7961 1f89 21       		.uleb128 0x21
 7962 1f8a 19170000 		.4byte	.LASF573
 7963 1f8e 3B       		.byte	0x3b
 7964 1f8f 21       		.uleb128 0x21
 7965 1f90 66030000 		.4byte	.LASF574
 7966 1f94 3C       		.byte	0x3c
 7967 1f95 21       		.uleb128 0x21
 7968 1f96 1B110000 		.4byte	.LASF575
ARM GAS  /tmp/ccTUBOn1.s 			page 141


 7969 1f9a 3D       		.byte	0x3d
 7970 1f9b 21       		.uleb128 0x21
 7971 1f9c 5E1A0000 		.4byte	.LASF576
 7972 1fa0 3E       		.byte	0x3e
 7973 1fa1 21       		.uleb128 0x21
 7974 1fa2 452C0000 		.4byte	.LASF577
 7975 1fa6 3F       		.byte	0x3f
 7976 1fa7 21       		.uleb128 0x21
 7977 1fa8 85280000 		.4byte	.LASF578
 7978 1fac 40       		.byte	0x40
 7979 1fad 21       		.uleb128 0x21
 7980 1fae F7010000 		.4byte	.LASF579
 7981 1fb2 41       		.byte	0x41
 7982 1fb3 21       		.uleb128 0x21
 7983 1fb4 0C340000 		.4byte	.LASF580
 7984 1fb8 42       		.byte	0x42
 7985 1fb9 21       		.uleb128 0x21
 7986 1fba D63F0000 		.4byte	.LASF581
 7987 1fbe 43       		.byte	0x43
 7988 1fbf 21       		.uleb128 0x21
 7989 1fc0 141E0000 		.4byte	.LASF582
 7990 1fc4 44       		.byte	0x44
 7991 1fc5 21       		.uleb128 0x21
 7992 1fc6 252A0000 		.4byte	.LASF583
 7993 1fca 45       		.byte	0x45
 7994 1fcb 21       		.uleb128 0x21
 7995 1fcc CA110000 		.4byte	.LASF584
 7996 1fd0 46       		.byte	0x46
 7997 1fd1 00       		.byte	0
 7998 1fd2 25       		.uleb128 0x25
 7999 1fd3 04       		.byte	0x4
 8000 1fd4 13       		.byte	0x13
 8001 1fd5 FE02     		.2byte	0x2fe
 8002 1fd7 00200000 		.4byte	0x2000
 8003 1fdb 1D       		.uleb128 0x1d
 8004 1fdc 4E330000 		.4byte	.LASF585
 8005 1fe0 13       		.byte	0x13
 8006 1fe1 FF02     		.2byte	0x2ff
 8007 1fe3 F9000000 		.4byte	0xf9
 8008 1fe7 1D       		.uleb128 0x1d
 8009 1fe8 E92F0000 		.4byte	.LASF586
 8010 1fec 13       		.byte	0x13
 8011 1fed 0003     		.2byte	0x300
 8012 1fef E9000000 		.4byte	0xe9
 8013 1ff3 1D       		.uleb128 0x1d
 8014 1ff4 09220000 		.4byte	.LASF587
 8015 1ff8 13       		.byte	0x13
 8016 1ff9 0103     		.2byte	0x301
 8017 1ffb 25000000 		.4byte	0x25
 8018 1fff 00       		.byte	0
 8019 2000 18       		.uleb128 0x18
 8020 2001 1F2C0000 		.4byte	.LASF588
 8021 2005 13       		.byte	0x13
 8022 2006 0203     		.2byte	0x302
 8023 2008 D21F0000 		.4byte	0x1fd2
 8024 200c 14       		.uleb128 0x14
 8025 200d 00290000 		.4byte	.LASF589
ARM GAS  /tmp/ccTUBOn1.s 			page 142


 8026 2011 14       		.byte	0x14
 8027 2012 EA       		.byte	0xea
 8028 2013 04170000 		.4byte	0x1704
 8029 2017 20       		.uleb128 0x20
 8030 2018 07       		.byte	0x7
 8031 2019 01       		.byte	0x1
 8032 201a 49000000 		.4byte	0x49
 8033 201e 15       		.byte	0x15
 8034 201f 35       		.byte	0x35
 8035 2020 5B200000 		.4byte	0x205b
 8036 2024 21       		.uleb128 0x21
 8037 2025 5E150000 		.4byte	.LASF590
 8038 2029 01       		.byte	0x1
 8039 202a 21       		.uleb128 0x21
 8040 202b 9C160000 		.4byte	.LASF591
 8041 202f 02       		.byte	0x2
 8042 2030 21       		.uleb128 0x21
 8043 2031 6B010000 		.4byte	.LASF592
 8044 2035 03       		.byte	0x3
 8045 2036 21       		.uleb128 0x21
 8046 2037 5B010000 		.4byte	.LASF593
 8047 203b 04       		.byte	0x4
 8048 203c 21       		.uleb128 0x21
 8049 203d 14010000 		.4byte	.LASF594
 8050 2041 05       		.byte	0x5
 8051 2042 21       		.uleb128 0x21
 8052 2043 A2380000 		.4byte	.LASF595
 8053 2047 06       		.byte	0x6
 8054 2048 21       		.uleb128 0x21
 8055 2049 1C120000 		.4byte	.LASF596
 8056 204d 07       		.byte	0x7
 8057 204e 21       		.uleb128 0x21
 8058 204f 2B040000 		.4byte	.LASF597
 8059 2053 08       		.byte	0x8
 8060 2054 21       		.uleb128 0x21
 8061 2055 EF2E0000 		.4byte	.LASF598
 8062 2059 09       		.byte	0x9
 8063 205a 00       		.byte	0
 8064 205b 11       		.uleb128 0x11
 8065 205c 70100000 		.4byte	0x1070
 8066 2060 66200000 		.4byte	0x2066
 8067 2064 26       		.uleb128 0x26
 8068 2065 00       		.byte	0
 8069 2066 05       		.uleb128 0x5
 8070 2067 5B200000 		.4byte	0x205b
 8071 206b 14       		.uleb128 0x14
 8072 206c C7270000 		.4byte	.LASF599
 8073 2070 16       		.byte	0x16
 8074 2071 4E       		.byte	0x4e
 8075 2072 66200000 		.4byte	0x2066
 8076 2076 14       		.uleb128 0x14
 8077 2077 CA230000 		.4byte	.LASF600
 8078 207b 16       		.byte	0x16
 8079 207c 4F       		.byte	0x4f
 8080 207d 66200000 		.4byte	0x2066
 8081 2081 14       		.uleb128 0x14
 8082 2082 3B400000 		.4byte	.LASF601
ARM GAS  /tmp/ccTUBOn1.s 			page 143


 8083 2086 16       		.byte	0x16
 8084 2087 50       		.byte	0x50
 8085 2088 66200000 		.4byte	0x2066
 8086 208c 14       		.uleb128 0x14
 8087 208d C2190000 		.4byte	.LASF602
 8088 2091 16       		.byte	0x16
 8089 2092 51       		.byte	0x51
 8090 2093 AD000000 		.4byte	0xad
 8091 2097 11       		.uleb128 0x11
 8092 2098 E4000000 		.4byte	0xe4
 8093 209c A2200000 		.4byte	0x20a2
 8094 20a0 26       		.uleb128 0x26
 8095 20a1 00       		.byte	0
 8096 20a2 05       		.uleb128 0x5
 8097 20a3 97200000 		.4byte	0x2097
 8098 20a7 14       		.uleb128 0x14
 8099 20a8 A7260000 		.4byte	.LASF603
 8100 20ac 17       		.byte	0x17
 8101 20ad 5A       		.byte	0x5a
 8102 20ae A2200000 		.4byte	0x20a2
 8103 20b2 11       		.uleb128 0x11
 8104 20b3 AD000000 		.4byte	0xad
 8105 20b7 BD200000 		.4byte	0x20bd
 8106 20bb 26       		.uleb128 0x26
 8107 20bc 00       		.byte	0
 8108 20bd 05       		.uleb128 0x5
 8109 20be B2200000 		.4byte	0x20b2
 8110 20c2 14       		.uleb128 0x14
 8111 20c3 A92C0000 		.4byte	.LASF604
 8112 20c7 17       		.byte	0x17
 8113 20c8 5B       		.byte	0x5b
 8114 20c9 BD200000 		.4byte	0x20bd
 8115 20cd 15       		.uleb128 0x15
 8116 20ce 0C       		.byte	0xc
 8117 20cf 18       		.byte	0x18
 8118 20d0 DA       		.byte	0xda
 8119 20d1 12210000 		.4byte	0x2112
 8120 20d5 08       		.uleb128 0x8
 8121 20d6 B23F0000 		.4byte	.LASF605
 8122 20da 18       		.byte	0x18
 8123 20db DB       		.byte	0xdb
 8124 20dc 12210000 		.4byte	0x2112
 8125 20e0 00       		.byte	0
 8126 20e1 08       		.uleb128 0x8
 8127 20e2 041C0000 		.4byte	.LASF606
 8128 20e6 18       		.byte	0x18
 8129 20e7 DC       		.byte	0xdc
 8130 20e8 18210000 		.4byte	0x2118
 8131 20ec 04       		.byte	0x4
 8132 20ed 08       		.uleb128 0x8
 8133 20ee 49070000 		.4byte	.LASF607
 8134 20f2 18       		.byte	0x18
 8135 20f3 DD       		.byte	0xdd
 8136 20f4 C9000000 		.4byte	0xc9
 8137 20f8 08       		.byte	0x8
 8138 20f9 08       		.uleb128 0x8
 8139 20fa 45020000 		.4byte	.LASF608
ARM GAS  /tmp/ccTUBOn1.s 			page 144


 8140 20fe 18       		.byte	0x18
 8141 20ff DF       		.byte	0xdf
 8142 2100 C9000000 		.4byte	0xc9
 8143 2104 09       		.byte	0x9
 8144 2105 08       		.uleb128 0x8
 8145 2106 0B060000 		.4byte	.LASF609
 8146 210a 18       		.byte	0x18
 8147 210b E0       		.byte	0xe0
 8148 210c C9000000 		.4byte	0xc9
 8149 2110 0A       		.byte	0xa
 8150 2111 00       		.byte	0
 8151 2112 0B       		.uleb128 0xb
 8152 2113 04       		.byte	0x4
 8153 2114 98070000 		.4byte	0x798
 8154 2118 0B       		.uleb128 0xb
 8155 2119 04       		.byte	0x4
 8156 211a 04010000 		.4byte	0x104
 8157 211e 03       		.uleb128 0x3
 8158 211f B91F0000 		.4byte	.LASF610
 8159 2123 18       		.byte	0x18
 8160 2124 E1       		.byte	0xe1
 8161 2125 CD200000 		.4byte	0x20cd
 8162 2129 06       		.uleb128 0x6
 8163 212a 1E210000 		.4byte	0x211e
 8164 212e 11       		.uleb128 0x11
 8165 212f 29210000 		.4byte	0x2129
 8166 2133 3E210000 		.4byte	0x213e
 8167 2137 12       		.uleb128 0x12
 8168 2138 B7000000 		.4byte	0xb7
 8169 213c 0F       		.byte	0xf
 8170 213d 00       		.byte	0
 8171 213e 06       		.uleb128 0x6
 8172 213f 2E210000 		.4byte	0x212e
 8173 2143 13       		.uleb128 0x13
 8174 2144 142D0000 		.4byte	.LASF611
 8175 2148 18       		.byte	0x18
 8176 2149 BB01     		.2byte	0x1bb
 8177 214b 3E210000 		.4byte	0x213e
 8178 214f 1F       		.uleb128 0x1f
 8179 2150 66010000 		.4byte	0x166
 8180 2154 68210000 		.4byte	0x2168
 8181 2158 0E       		.uleb128 0xe
 8182 2159 9A030000 		.4byte	0x39a
 8183 215d 0E       		.uleb128 0xe
 8184 215e C9000000 		.4byte	0xc9
 8185 2162 0E       		.uleb128 0xe
 8186 2163 92010000 		.4byte	0x192
 8187 2167 00       		.byte	0
 8188 2168 0B       		.uleb128 0xb
 8189 2169 04       		.byte	0x4
 8190 216a 4F210000 		.4byte	0x214f
 8191 216e 1F       		.uleb128 0x1f
 8192 216f 66010000 		.4byte	0x166
 8193 2173 82210000 		.4byte	0x2182
 8194 2177 0E       		.uleb128 0xe
 8195 2178 9A030000 		.4byte	0x39a
 8196 217c 0E       		.uleb128 0xe
ARM GAS  /tmp/ccTUBOn1.s 			page 145


 8197 217d 92010000 		.4byte	0x192
 8198 2181 00       		.byte	0
 8199 2182 0B       		.uleb128 0xb
 8200 2183 04       		.byte	0x4
 8201 2184 6E210000 		.4byte	0x216e
 8202 2188 1F       		.uleb128 0x1f
 8203 2189 14010000 		.4byte	0x114
 8204 218d A6210000 		.4byte	0x21a6
 8205 2191 0E       		.uleb128 0xe
 8206 2192 9A030000 		.4byte	0x39a
 8207 2196 0E       		.uleb128 0xe
 8208 2197 6F0E0000 		.4byte	0xe6f
 8209 219b 0E       		.uleb128 0xe
 8210 219c 14010000 		.4byte	0x114
 8211 21a0 0E       		.uleb128 0xe
 8212 21a1 92010000 		.4byte	0x192
 8213 21a5 00       		.byte	0
 8214 21a6 0B       		.uleb128 0xb
 8215 21a7 04       		.byte	0x4
 8216 21a8 88210000 		.4byte	0x2188
 8217 21ac 1F       		.uleb128 0x1f
 8218 21ad 14010000 		.4byte	0x114
 8219 21b1 CA210000 		.4byte	0x21ca
 8220 21b5 0E       		.uleb128 0xe
 8221 21b6 9A030000 		.4byte	0x39a
 8222 21ba 0E       		.uleb128 0xe
 8223 21bb 3A0E0000 		.4byte	0xe3a
 8224 21bf 0E       		.uleb128 0xe
 8225 21c0 14010000 		.4byte	0x114
 8226 21c4 0E       		.uleb128 0xe
 8227 21c5 92010000 		.4byte	0x192
 8228 21c9 00       		.byte	0
 8229 21ca 0B       		.uleb128 0xb
 8230 21cb 04       		.byte	0x4
 8231 21cc AC210000 		.4byte	0x21ac
 8232 21d0 15       		.uleb128 0x15
 8233 21d1 04       		.byte	0x4
 8234 21d2 19       		.byte	0x19
 8235 21d3 B3       		.byte	0xb3
 8236 21d4 F1210000 		.4byte	0x21f1
 8237 21d8 16       		.uleb128 0x16
 8238 21d9 73657400 		.ascii	"set\000"
 8239 21dd 19       		.byte	0x19
 8240 21de B4       		.byte	0xb4
 8241 21df D9000000 		.4byte	0xd9
 8242 21e3 00       		.byte	0
 8243 21e4 08       		.uleb128 0x8
 8244 21e5 EA150000 		.4byte	.LASF612
 8245 21e9 19       		.byte	0x19
 8246 21ea B5       		.byte	0xb5
 8247 21eb D9000000 		.4byte	0xd9
 8248 21ef 02       		.byte	0x2
 8249 21f0 00       		.byte	0
 8250 21f1 1C       		.uleb128 0x1c
 8251 21f2 04       		.byte	0x4
 8252 21f3 19       		.byte	0x19
 8253 21f4 B1       		.byte	0xb1
ARM GAS  /tmp/ccTUBOn1.s 			page 146


 8254 21f5 0C220000 		.4byte	0x220c
 8255 21f9 27       		.uleb128 0x27
 8256 21fa 5700     		.ascii	"W\000"
 8257 21fc 19       		.byte	0x19
 8258 21fd B2       		.byte	0xb2
 8259 21fe F9000000 		.4byte	0xf9
 8260 2202 27       		.uleb128 0x27
 8261 2203 4800     		.ascii	"H\000"
 8262 2205 19       		.byte	0x19
 8263 2206 B6       		.byte	0xb6
 8264 2207 D0210000 		.4byte	0x21d0
 8265 220b 00       		.byte	0
 8266 220c 05       		.uleb128 0x5
 8267 220d F1210000 		.4byte	0x21f1
 8268 2211 15       		.uleb128 0x15
 8269 2212 2C       		.byte	0x2c
 8270 2213 19       		.byte	0x19
 8271 2214 A9       		.byte	0xa9
 8272 2215 9E220000 		.4byte	0x229e
 8273 2219 08       		.uleb128 0x8
 8274 221a FB330000 		.4byte	.LASF613
 8275 221e 19       		.byte	0x19
 8276 221f AB       		.byte	0xab
 8277 2220 04010000 		.4byte	0x104
 8278 2224 00       		.byte	0
 8279 2225 08       		.uleb128 0x8
 8280 2226 94050000 		.4byte	.LASF614
 8281 222a 19       		.byte	0x19
 8282 222b AC       		.byte	0xac
 8283 222c 04010000 		.4byte	0x104
 8284 2230 04       		.byte	0x4
 8285 2231 08       		.uleb128 0x8
 8286 2232 3F190000 		.4byte	.LASF615
 8287 2236 19       		.byte	0x19
 8288 2237 AD       		.byte	0xad
 8289 2238 04010000 		.4byte	0x104
 8290 223c 08       		.byte	0x8
 8291 223d 08       		.uleb128 0x8
 8292 223e 16320000 		.4byte	.LASF616
 8293 2242 19       		.byte	0x19
 8294 2243 AE       		.byte	0xae
 8295 2244 04010000 		.4byte	0x104
 8296 2248 0C       		.byte	0xc
 8297 2249 16       		.uleb128 0x16
 8298 224a 49445200 		.ascii	"IDR\000"
 8299 224e 19       		.byte	0x19
 8300 224f AF       		.byte	0xaf
 8301 2250 04010000 		.4byte	0x104
 8302 2254 10       		.byte	0x10
 8303 2255 16       		.uleb128 0x16
 8304 2256 4F445200 		.ascii	"ODR\000"
 8305 225a 19       		.byte	0x19
 8306 225b B0       		.byte	0xb0
 8307 225c 04010000 		.4byte	0x104
 8308 2260 14       		.byte	0x14
 8309 2261 08       		.uleb128 0x8
 8310 2262 B41F0000 		.4byte	.LASF617
ARM GAS  /tmp/ccTUBOn1.s 			page 147


 8311 2266 19       		.byte	0x19
 8312 2267 B7       		.byte	0xb7
 8313 2268 0C220000 		.4byte	0x220c
 8314 226c 18       		.byte	0x18
 8315 226d 08       		.uleb128 0x8
 8316 226e B9280000 		.4byte	.LASF618
 8317 2272 19       		.byte	0x19
 8318 2273 B8       		.byte	0xb8
 8319 2274 04010000 		.4byte	0x104
 8320 2278 1C       		.byte	0x1c
 8321 2279 08       		.uleb128 0x8
 8322 227a D82E0000 		.4byte	.LASF619
 8323 227e 19       		.byte	0x19
 8324 227f B9       		.byte	0xb9
 8325 2280 04010000 		.4byte	0x104
 8326 2284 20       		.byte	0x20
 8327 2285 08       		.uleb128 0x8
 8328 2286 D02D0000 		.4byte	.LASF620
 8329 228a 19       		.byte	0x19
 8330 228b BA       		.byte	0xba
 8331 228c 04010000 		.4byte	0x104
 8332 2290 24       		.byte	0x24
 8333 2291 16       		.uleb128 0x16
 8334 2292 42525200 		.ascii	"BRR\000"
 8335 2296 19       		.byte	0x19
 8336 2297 BB       		.byte	0xbb
 8337 2298 04010000 		.4byte	0x104
 8338 229c 28       		.byte	0x28
 8339 229d 00       		.byte	0
 8340 229e 03       		.uleb128 0x3
 8341 229f 1E1C0000 		.4byte	.LASF621
 8342 22a3 19       		.byte	0x19
 8343 22a4 BC       		.byte	0xbc
 8344 22a5 11220000 		.4byte	0x2211
 8345 22a9 15       		.uleb128 0x15
 8346 22aa 1C       		.byte	0x1c
 8347 22ab 19       		.byte	0x19
 8348 22ac C1       		.byte	0xc1
 8349 22ad 06230000 		.4byte	0x2306
 8350 22b1 08       		.uleb128 0x8
 8351 22b2 C3390000 		.4byte	.LASF622
 8352 22b6 19       		.byte	0x19
 8353 22b7 C3       		.byte	0xc3
 8354 22b8 F9000000 		.4byte	0xf9
 8355 22bc 00       		.byte	0
 8356 22bd 08       		.uleb128 0x8
 8357 22be 6F050000 		.4byte	.LASF623
 8358 22c2 19       		.byte	0x19
 8359 22c3 C5       		.byte	0xc5
 8360 22c4 F9000000 		.4byte	0xf9
 8361 22c8 04       		.byte	0x4
 8362 22c9 08       		.uleb128 0x8
 8363 22ca 23040000 		.4byte	.LASF624
 8364 22ce 19       		.byte	0x19
 8365 22cf C7       		.byte	0xc7
 8366 22d0 F9000000 		.4byte	0xf9
 8367 22d4 08       		.byte	0x8
ARM GAS  /tmp/ccTUBOn1.s 			page 148


 8368 22d5 08       		.uleb128 0x8
 8369 22d6 1A380000 		.4byte	.LASF625
 8370 22da 19       		.byte	0x19
 8371 22db C9       		.byte	0xc9
 8372 22dc F9000000 		.4byte	0xf9
 8373 22e0 0C       		.byte	0xc
 8374 22e1 16       		.uleb128 0x16
 8375 22e2 6F647200 		.ascii	"odr\000"
 8376 22e6 19       		.byte	0x19
 8377 22e7 CB       		.byte	0xcb
 8378 22e8 F9000000 		.4byte	0xf9
 8379 22ec 10       		.byte	0x10
 8380 22ed 08       		.uleb128 0x8
 8381 22ee BF320000 		.4byte	.LASF626
 8382 22f2 19       		.byte	0x19
 8383 22f3 CD       		.byte	0xcd
 8384 22f4 F9000000 		.4byte	0xf9
 8385 22f8 14       		.byte	0x14
 8386 22f9 08       		.uleb128 0x8
 8387 22fa EB000000 		.4byte	.LASF627
 8388 22fe 19       		.byte	0x19
 8389 22ff CF       		.byte	0xcf
 8390 2300 F9000000 		.4byte	0xf9
 8391 2304 18       		.byte	0x18
 8392 2305 00       		.byte	0
 8393 2306 03       		.uleb128 0x3
 8394 2307 C62C0000 		.4byte	.LASF628
 8395 230b 19       		.byte	0x19
 8396 230c D0       		.byte	0xd0
 8397 230d A9220000 		.4byte	0x22a9
 8398 2311 15       		.uleb128 0x15
 8399 2312 FC       		.byte	0xfc
 8400 2313 19       		.byte	0x19
 8401 2314 D9       		.byte	0xd9
 8402 2315 86230000 		.4byte	0x2386
 8403 2319 08       		.uleb128 0x8
 8404 231a E61C0000 		.4byte	.LASF629
 8405 231e 19       		.byte	0x19
 8406 231f DC       		.byte	0xdc
 8407 2320 06230000 		.4byte	0x2306
 8408 2324 00       		.byte	0
 8409 2325 08       		.uleb128 0x8
 8410 2326 E5070000 		.4byte	.LASF630
 8411 232a 19       		.byte	0x19
 8412 232b E0       		.byte	0xe0
 8413 232c 06230000 		.4byte	0x2306
 8414 2330 1C       		.byte	0x1c
 8415 2331 08       		.uleb128 0x8
 8416 2332 39030000 		.4byte	.LASF631
 8417 2336 19       		.byte	0x19
 8418 2337 E4       		.byte	0xe4
 8419 2338 06230000 		.4byte	0x2306
 8420 233c 38       		.byte	0x38
 8421 233d 08       		.uleb128 0x8
 8422 233e 0D180000 		.4byte	.LASF632
 8423 2342 19       		.byte	0x19
 8424 2343 E8       		.byte	0xe8
ARM GAS  /tmp/ccTUBOn1.s 			page 149


 8425 2344 06230000 		.4byte	0x2306
 8426 2348 54       		.byte	0x54
 8427 2349 08       		.uleb128 0x8
 8428 234a 6D2B0000 		.4byte	.LASF633
 8429 234e 19       		.byte	0x19
 8430 234f EC       		.byte	0xec
 8431 2350 06230000 		.4byte	0x2306
 8432 2354 70       		.byte	0x70
 8433 2355 08       		.uleb128 0x8
 8434 2356 27410000 		.4byte	.LASF634
 8435 235a 19       		.byte	0x19
 8436 235b F0       		.byte	0xf0
 8437 235c 06230000 		.4byte	0x2306
 8438 2360 8C       		.byte	0x8c
 8439 2361 08       		.uleb128 0x8
 8440 2362 15120000 		.4byte	.LASF635
 8441 2366 19       		.byte	0x19
 8442 2367 F4       		.byte	0xf4
 8443 2368 06230000 		.4byte	0x2306
 8444 236c A8       		.byte	0xa8
 8445 236d 08       		.uleb128 0x8
 8446 236e 4D270000 		.4byte	.LASF636
 8447 2372 19       		.byte	0x19
 8448 2373 F8       		.byte	0xf8
 8449 2374 06230000 		.4byte	0x2306
 8450 2378 C4       		.byte	0xc4
 8451 2379 08       		.uleb128 0x8
 8452 237a 103D0000 		.4byte	.LASF637
 8453 237e 19       		.byte	0x19
 8454 237f FC       		.byte	0xfc
 8455 2380 06230000 		.4byte	0x2306
 8456 2384 E0       		.byte	0xe0
 8457 2385 00       		.byte	0
 8458 2386 03       		.uleb128 0x3
 8459 2387 04110000 		.4byte	.LASF638
 8460 238b 19       		.byte	0x19
 8461 238c FE       		.byte	0xfe
 8462 238d 11230000 		.4byte	0x2311
 8463 2391 06       		.uleb128 0x6
 8464 2392 86230000 		.4byte	0x2386
 8465 2396 18       		.uleb128 0x18
 8466 2397 67270000 		.4byte	.LASF639
 8467 239b 19       		.byte	0x19
 8468 239c 1B01     		.2byte	0x11b
 8469 239e A2230000 		.4byte	0x23a2
 8470 23a2 0B       		.uleb128 0xb
 8471 23a3 04       		.byte	0x4
 8472 23a4 9E220000 		.4byte	0x229e
 8473 23a8 13       		.uleb128 0x13
 8474 23a9 78130000 		.4byte	.LASF640
 8475 23ad 19       		.byte	0x19
 8476 23ae DA01     		.2byte	0x1da
 8477 23b0 91230000 		.4byte	0x2391
 8478 23b4 20       		.uleb128 0x20
 8479 23b5 07       		.byte	0x7
 8480 23b6 01       		.byte	0x1
 8481 23b7 49000000 		.4byte	0x49
ARM GAS  /tmp/ccTUBOn1.s 			page 150


 8482 23bb 1A       		.byte	0x1a
 8483 23bc 5F       		.byte	0x5f
 8484 23bd E0230000 		.4byte	0x23e0
 8485 23c1 21       		.uleb128 0x21
 8486 23c2 1E0F0000 		.4byte	.LASF641
 8487 23c6 00       		.byte	0
 8488 23c7 21       		.uleb128 0x21
 8489 23c8 B6010000 		.4byte	.LASF642
 8490 23cc 01       		.byte	0x1
 8491 23cd 21       		.uleb128 0x21
 8492 23ce E03A0000 		.4byte	.LASF643
 8493 23d2 02       		.byte	0x2
 8494 23d3 21       		.uleb128 0x21
 8495 23d4 9F080000 		.4byte	.LASF644
 8496 23d8 03       		.byte	0x3
 8497 23d9 21       		.uleb128 0x21
 8498 23da D90E0000 		.4byte	.LASF645
 8499 23de 04       		.byte	0x4
 8500 23df 00       		.byte	0
 8501 23e0 03       		.uleb128 0x3
 8502 23e1 0F090000 		.4byte	.LASF646
 8503 23e5 1A       		.byte	0x1a
 8504 23e6 65       		.byte	0x65
 8505 23e7 B4230000 		.4byte	0x23b4
 8506 23eb 15       		.uleb128 0x15
 8507 23ec 08       		.byte	0x8
 8508 23ed 1B       		.byte	0x1b
 8509 23ee F4       		.byte	0xf4
 8510 23ef 0D240000 		.4byte	0x240d
 8511 23f3 16       		.uleb128 0x16
 8512 23f4 6D637200 		.ascii	"mcr\000"
 8513 23f8 1B       		.byte	0x1b
 8514 23f9 FA       		.byte	0xfa
 8515 23fa F9000000 		.4byte	0xf9
 8516 23fe 00       		.byte	0
 8517 23ff 09       		.uleb128 0x9
 8518 2400 62747200 		.ascii	"btr\000"
 8519 2404 1B       		.byte	0x1b
 8520 2405 0001     		.2byte	0x100
 8521 2407 F9000000 		.4byte	0xf9
 8522 240b 04       		.byte	0x4
 8523 240c 00       		.byte	0
 8524 240d 18       		.uleb128 0x18
 8525 240e 4D2B0000 		.4byte	.LASF647
 8526 2412 1B       		.byte	0x1b
 8527 2413 0101     		.2byte	0x101
 8528 2415 EB230000 		.4byte	0x23eb
 8529 2419 06       		.uleb128 0x6
 8530 241a 0D240000 		.4byte	0x240d
 8531 241e 17       		.uleb128 0x17
 8532 241f 30       		.byte	0x30
 8533 2420 1B       		.byte	0x1b
 8534 2421 0601     		.2byte	0x106
 8535 2423 AA240000 		.4byte	0x24aa
 8536 2427 0A       		.uleb128 0xa
 8537 2428 C9240000 		.4byte	.LASF648
 8538 242c 1B       		.byte	0x1b
ARM GAS  /tmp/ccTUBOn1.s 			page 151


 8539 242d 0A01     		.2byte	0x10a
 8540 242f E0230000 		.4byte	0x23e0
 8541 2433 00       		.byte	0
 8542 2434 0A       		.uleb128 0xa
 8543 2435 863A0000 		.4byte	.LASF649
 8544 2439 1B       		.byte	0x1b
 8545 243a 0E01     		.2byte	0x10e
 8546 243c AA240000 		.4byte	0x24aa
 8547 2440 04       		.byte	0x4
 8548 2441 0A       		.uleb128 0xa
 8549 2442 FE0D0000 		.4byte	.LASF650
 8550 2446 1B       		.byte	0x1b
 8551 2447 1201     		.2byte	0x112
 8552 2449 E7020000 		.4byte	0x2e7
 8553 244d 08       		.byte	0x8
 8554 244e 0A       		.uleb128 0xa
 8555 244f 96340000 		.4byte	.LASF651
 8556 2453 1B       		.byte	0x1b
 8557 2454 1601     		.2byte	0x116
 8558 2456 E7020000 		.4byte	0x2e7
 8559 245a 10       		.byte	0x10
 8560 245b 0A       		.uleb128 0xa
 8561 245c 0C2B0000 		.4byte	.LASF652
 8562 2460 1B       		.byte	0x1b
 8563 2461 2301     		.2byte	0x123
 8564 2463 950D0000 		.4byte	0xd95
 8565 2467 18       		.byte	0x18
 8566 2468 0A       		.uleb128 0xa
 8567 2469 F3110000 		.4byte	.LASF653
 8568 246d 1B       		.byte	0x1b
 8569 246e 2A01     		.2byte	0x12a
 8570 2470 950D0000 		.4byte	0xd95
 8571 2474 1C       		.byte	0x1c
 8572 2475 0A       		.uleb128 0xa
 8573 2476 5D1B0000 		.4byte	.LASF654
 8574 247a 1B       		.byte	0x1b
 8575 247b 3001     		.2byte	0x130
 8576 247d 950D0000 		.4byte	0xd95
 8577 2481 20       		.byte	0x20
 8578 2482 0A       		.uleb128 0xa
 8579 2483 E8050000 		.4byte	.LASF655
 8580 2487 1B       		.byte	0x1b
 8581 2488 3501     		.2byte	0x135
 8582 248a 950D0000 		.4byte	0xd95
 8583 248e 24       		.byte	0x24
 8584 248f 0A       		.uleb128 0xa
 8585 2490 9E0D0000 		.4byte	.LASF656
 8586 2494 1B       		.byte	0x1b
 8587 2495 3901     		.2byte	0x139
 8588 2497 950D0000 		.4byte	0xd95
 8589 249b 28       		.byte	0x28
 8590 249c 09       		.uleb128 0x9
 8591 249d 63616E00 		.ascii	"can\000"
 8592 24a1 1B       		.byte	0x1b
 8593 24a2 3F01     		.2byte	0x13f
 8594 24a4 B0240000 		.4byte	0x24b0
 8595 24a8 2C       		.byte	0x2c
ARM GAS  /tmp/ccTUBOn1.s 			page 152


 8596 24a9 00       		.byte	0
 8597 24aa 0B       		.uleb128 0xb
 8598 24ab 04       		.byte	0x4
 8599 24ac 19240000 		.4byte	0x2419
 8600 24b0 0B       		.uleb128 0xb
 8601 24b1 04       		.byte	0x4
 8602 24b2 35070000 		.4byte	0x735
 8603 24b6 18       		.uleb128 0x18
 8604 24b7 46060000 		.4byte	.LASF657
 8605 24bb 1B       		.byte	0x1b
 8606 24bc 4001     		.2byte	0x140
 8607 24be 1E240000 		.4byte	0x241e
 8608 24c2 13       		.uleb128 0x13
 8609 24c3 CA370000 		.4byte	.LASF658
 8610 24c7 1B       		.byte	0x1b
 8611 24c8 4B01     		.2byte	0x14b
 8612 24ca B6240000 		.4byte	0x24b6
 8613 24ce 20       		.uleb128 0x20
 8614 24cf 07       		.byte	0x7
 8615 24d0 01       		.byte	0x1
 8616 24d1 49000000 		.4byte	0x49
 8617 24d5 1C       		.byte	0x1c
 8618 24d6 4C       		.byte	0x4c
 8619 24d7 00250000 		.4byte	0x2500
 8620 24db 21       		.uleb128 0x21
 8621 24dc 7D090000 		.4byte	.LASF659
 8622 24e0 00       		.byte	0
 8623 24e1 21       		.uleb128 0x21
 8624 24e2 9B180000 		.4byte	.LASF660
 8625 24e6 01       		.byte	0x1
 8626 24e7 21       		.uleb128 0x21
 8627 24e8 0F0A0000 		.4byte	.LASF661
 8628 24ec 02       		.byte	0x2
 8629 24ed 21       		.uleb128 0x21
 8630 24ee 8F070000 		.4byte	.LASF662
 8631 24f2 03       		.byte	0x3
 8632 24f3 21       		.uleb128 0x21
 8633 24f4 C7050000 		.4byte	.LASF663
 8634 24f8 04       		.byte	0x4
 8635 24f9 21       		.uleb128 0x21
 8636 24fa 25200000 		.4byte	.LASF664
 8637 24fe 05       		.byte	0x5
 8638 24ff 00       		.byte	0
 8639 2500 03       		.uleb128 0x3
 8640 2501 151A0000 		.4byte	.LASF665
 8641 2505 1C       		.byte	0x1c
 8642 2506 53       		.byte	0x53
 8643 2507 CE240000 		.4byte	0x24ce
 8644 250b 18       		.uleb128 0x18
 8645 250c EC070000 		.4byte	.LASF666
 8646 2510 1D       		.byte	0x1d
 8647 2511 6A01     		.2byte	0x16a
 8648 2513 D9000000 		.4byte	0xd9
 8649 2517 18       		.uleb128 0x18
 8650 2518 76060000 		.4byte	.LASF667
 8651 251c 1D       		.byte	0x1d
 8652 251d 6F01     		.2byte	0x16f
ARM GAS  /tmp/ccTUBOn1.s 			page 153


 8653 251f F9000000 		.4byte	0xf9
 8654 2523 24       		.uleb128 0x24
 8655 2524 07       		.byte	0x7
 8656 2525 01       		.byte	0x1
 8657 2526 49000000 		.4byte	0x49
 8658 252a 1D       		.byte	0x1d
 8659 252b 7401     		.2byte	0x174
 8660 252d 44250000 		.4byte	0x2544
 8661 2531 21       		.uleb128 0x21
 8662 2532 A2070000 		.4byte	.LASF668
 8663 2536 01       		.byte	0x1
 8664 2537 21       		.uleb128 0x21
 8665 2538 F0000000 		.4byte	.LASF669
 8666 253c 02       		.byte	0x2
 8667 253d 21       		.uleb128 0x21
 8668 253e 230E0000 		.4byte	.LASF670
 8669 2542 03       		.byte	0x3
 8670 2543 00       		.byte	0
 8671 2544 18       		.uleb128 0x18
 8672 2545 BE3F0000 		.4byte	.LASF671
 8673 2549 1D       		.byte	0x1d
 8674 254a 7801     		.2byte	0x178
 8675 254c 23250000 		.4byte	0x2523
 8676 2550 24       		.uleb128 0x24
 8677 2551 07       		.byte	0x7
 8678 2552 01       		.byte	0x1
 8679 2553 49000000 		.4byte	0x49
 8680 2557 1D       		.byte	0x1d
 8681 2558 7D01     		.2byte	0x17d
 8682 255a 71250000 		.4byte	0x2571
 8683 255e 21       		.uleb128 0x21
 8684 255f 4E170000 		.4byte	.LASF672
 8685 2563 01       		.byte	0x1
 8686 2564 21       		.uleb128 0x21
 8687 2565 B23E0000 		.4byte	.LASF673
 8688 2569 02       		.byte	0x2
 8689 256a 21       		.uleb128 0x21
 8690 256b 77100000 		.4byte	.LASF674
 8691 256f 03       		.byte	0x3
 8692 2570 00       		.byte	0
 8693 2571 18       		.uleb128 0x18
 8694 2572 410A0000 		.4byte	.LASF675
 8695 2576 1D       		.byte	0x1d
 8696 2577 8101     		.2byte	0x181
 8697 2579 50250000 		.4byte	0x2550
 8698 257d 17       		.uleb128 0x17
 8699 257e 0C       		.byte	0xc
 8700 257f 1D       		.byte	0x1d
 8701 2580 8601     		.2byte	0x186
 8702 2582 AE250000 		.4byte	0x25ae
 8703 2586 0A       		.uleb128 0xa
 8704 2587 3F090000 		.4byte	.LASF676
 8705 258b 1D       		.byte	0x1d
 8706 258c 8801     		.2byte	0x188
 8707 258e 44250000 		.4byte	0x2544
 8708 2592 00       		.byte	0
 8709 2593 0A       		.uleb128 0xa
ARM GAS  /tmp/ccTUBOn1.s 			page 154


 8710 2594 30060000 		.4byte	.LASF677
 8711 2598 1D       		.byte	0x1d
 8712 2599 8901     		.2byte	0x189
 8713 259b F9000000 		.4byte	0xf9
 8714 259f 04       		.byte	0x4
 8715 25a0 0A       		.uleb128 0xa
 8716 25a1 B0400000 		.4byte	.LASF678
 8717 25a5 1D       		.byte	0x1d
 8718 25a6 8C01     		.2byte	0x18c
 8719 25a8 71250000 		.4byte	0x2571
 8720 25ac 08       		.byte	0x8
 8721 25ad 00       		.byte	0
 8722 25ae 18       		.uleb128 0x18
 8723 25af D6030000 		.4byte	.LASF679
 8724 25b3 1D       		.byte	0x1d
 8725 25b4 8E01     		.2byte	0x18e
 8726 25b6 7D250000 		.4byte	0x257d
 8727 25ba 06       		.uleb128 0x6
 8728 25bb AE250000 		.4byte	0x25ae
 8729 25bf 18       		.uleb128 0x18
 8730 25c0 85070000 		.4byte	.LASF680
 8731 25c4 1D       		.byte	0x1d
 8732 25c5 9301     		.2byte	0x193
 8733 25c7 CB250000 		.4byte	0x25cb
 8734 25cb 0C       		.uleb128 0xc
 8735 25cc 85070000 		.4byte	.LASF680
 8736 25d0 38       		.byte	0x38
 8737 25d1 1D       		.byte	0x1d
 8738 25d2 9801     		.2byte	0x198
 8739 25d4 68260000 		.4byte	0x2668
 8740 25d8 0A       		.uleb128 0xa
 8741 25d9 C9240000 		.4byte	.LASF648
 8742 25dd 1D       		.byte	0x1d
 8743 25de 9C01     		.2byte	0x19c
 8744 25e0 00250000 		.4byte	0x2500
 8745 25e4 00       		.byte	0
 8746 25e5 0A       		.uleb128 0xa
 8747 25e6 863A0000 		.4byte	.LASF649
 8748 25ea 1D       		.byte	0x1d
 8749 25eb A001     		.2byte	0x1a0
 8750 25ed 68260000 		.4byte	0x2668
 8751 25f1 04       		.byte	0x4
 8752 25f2 0A       		.uleb128 0xa
 8753 25f3 8E020000 		.4byte	.LASF681
 8754 25f7 1D       		.byte	0x1d
 8755 25f8 A401     		.2byte	0x1a4
 8756 25fa 17250000 		.4byte	0x2517
 8757 25fe 08       		.byte	0x8
 8758 25ff 0A       		.uleb128 0xa
 8759 2600 40150000 		.4byte	.LASF682
 8760 2604 1D       		.byte	0x1d
 8761 2605 A901     		.2byte	0x1a9
 8762 2607 110D0000 		.4byte	0xd11
 8763 260b 0C       		.byte	0xc
 8764 260c 0A       		.uleb128 0xa
 8765 260d 880A0000 		.4byte	.LASF683
 8766 2611 1D       		.byte	0x1d
ARM GAS  /tmp/ccTUBOn1.s 			page 155


 8767 2612 B201     		.2byte	0x1b2
 8768 2614 B2020000 		.4byte	0x2b2
 8769 2618 1C       		.byte	0x1c
 8770 2619 0A       		.uleb128 0xa
 8771 261a A4180000 		.4byte	.LASF684
 8772 261e 1D       		.byte	0x1d
 8773 261f B601     		.2byte	0x1b6
 8774 2621 0B250000 		.4byte	0x250b
 8775 2625 20       		.byte	0x20
 8776 2626 0A       		.uleb128 0xa
 8777 2627 AF0C0000 		.4byte	.LASF685
 8778 262b 1D       		.byte	0x1d
 8779 262c BA01     		.2byte	0x1ba
 8780 262e F9000000 		.4byte	0xf9
 8781 2632 24       		.byte	0x24
 8782 2633 0A       		.uleb128 0xa
 8783 2634 120D0000 		.4byte	.LASF686
 8784 2638 1D       		.byte	0x1d
 8785 2639 BE01     		.2byte	0x1be
 8786 263b F9000000 		.4byte	0xf9
 8787 263f 28       		.byte	0x28
 8788 2640 0A       		.uleb128 0xa
 8789 2641 2E020000 		.4byte	.LASF687
 8790 2645 1D       		.byte	0x1d
 8791 2646 C201     		.2byte	0x1c2
 8792 2648 6E260000 		.4byte	0x266e
 8793 264c 2C       		.byte	0x2c
 8794 264d 0A       		.uleb128 0xa
 8795 264e FA030000 		.4byte	.LASF688
 8796 2652 1D       		.byte	0x1d
 8797 2653 C601     		.2byte	0x1c6
 8798 2655 6E260000 		.4byte	0x266e
 8799 2659 30       		.byte	0x30
 8800 265a 09       		.uleb128 0x9
 8801 265b 69326300 		.ascii	"i2c\000"
 8802 265f 1D       		.byte	0x1d
 8803 2660 CA01     		.2byte	0x1ca
 8804 2662 74260000 		.4byte	0x2674
 8805 2666 34       		.byte	0x34
 8806 2667 00       		.byte	0
 8807 2668 0B       		.uleb128 0xb
 8808 2669 04       		.byte	0x4
 8809 266a BA250000 		.4byte	0x25ba
 8810 266e 0B       		.uleb128 0xb
 8811 266f 04       		.byte	0x4
 8812 2670 29210000 		.4byte	0x2129
 8813 2674 0B       		.uleb128 0xb
 8814 2675 04       		.byte	0x4
 8815 2676 59080000 		.4byte	0x859
 8816 267a 13       		.uleb128 0x13
 8817 267b 0E1E0000 		.4byte	.LASF689
 8818 267f 1D       		.byte	0x1d
 8819 2680 E401     		.2byte	0x1e4
 8820 2682 BF250000 		.4byte	0x25bf
 8821 2686 20       		.uleb128 0x20
 8822 2687 07       		.byte	0x7
 8823 2688 01       		.byte	0x1
ARM GAS  /tmp/ccTUBOn1.s 			page 156


 8824 2689 49000000 		.4byte	0x49
 8825 268d 1E       		.byte	0x1e
 8826 268e 31       		.byte	0x31
 8827 268f B2260000 		.4byte	0x26b2
 8828 2693 21       		.uleb128 0x21
 8829 2694 713D0000 		.4byte	.LASF690
 8830 2698 00       		.byte	0
 8831 2699 21       		.uleb128 0x21
 8832 269a B6320000 		.4byte	.LASF691
 8833 269e 01       		.byte	0x1
 8834 269f 21       		.uleb128 0x21
 8835 26a0 FD070000 		.4byte	.LASF692
 8836 26a4 02       		.byte	0x2
 8837 26a5 21       		.uleb128 0x21
 8838 26a6 BC210000 		.4byte	.LASF693
 8839 26aa 03       		.byte	0x3
 8840 26ab 21       		.uleb128 0x21
 8841 26ac 0B300000 		.4byte	.LASF694
 8842 26b0 04       		.byte	0x4
 8843 26b1 00       		.byte	0
 8844 26b2 03       		.uleb128 0x3
 8845 26b3 93360000 		.4byte	.LASF695
 8846 26b7 1E       		.byte	0x1e
 8847 26b8 37       		.byte	0x37
 8848 26b9 86260000 		.4byte	0x2686
 8849 26bd 03       		.uleb128 0x3
 8850 26be 962A0000 		.4byte	.LASF696
 8851 26c2 1E       		.byte	0x1e
 8852 26c3 3C       		.byte	0x3c
 8853 26c4 C8260000 		.4byte	0x26c8
 8854 26c8 0C       		.uleb128 0xc
 8855 26c9 962A0000 		.4byte	.LASF696
 8856 26cd 18       		.byte	0x18
 8857 26ce 1F       		.byte	0x1f
 8858 26cf 3101     		.2byte	0x131
 8859 26d1 24270000 		.4byte	0x2724
 8860 26d5 0A       		.uleb128 0xa
 8861 26d6 C9240000 		.4byte	.LASF648
 8862 26da 1F       		.byte	0x1f
 8863 26db 3501     		.2byte	0x135
 8864 26dd B2260000 		.4byte	0x26b2
 8865 26e1 00       		.byte	0
 8866 26e2 0A       		.uleb128 0xa
 8867 26e3 863A0000 		.4byte	.LASF649
 8868 26e7 1F       		.byte	0x1f
 8869 26e8 3901     		.2byte	0x139
 8870 26ea 29290000 		.4byte	0x2929
 8871 26ee 04       		.byte	0x4
 8872 26ef 0A       		.uleb128 0xa
 8873 26f0 01340000 		.4byte	.LASF697
 8874 26f4 1F       		.byte	0x1f
 8875 26f5 4101     		.2byte	0x141
 8876 26f7 F9000000 		.4byte	0xf9
 8877 26fb 08       		.byte	0x8
 8878 26fc 09       		.uleb128 0x9
 8879 26fd 74696D00 		.ascii	"tim\000"
 8880 2701 1F       		.byte	0x1f
ARM GAS  /tmp/ccTUBOn1.s 			page 157


 8881 2702 4501     		.2byte	0x145
 8882 2704 2F290000 		.4byte	0x292f
 8883 2708 0C       		.byte	0xc
 8884 2709 0A       		.uleb128 0xa
 8885 270a 3F320000 		.4byte	.LASF698
 8886 270e 1F       		.byte	0x1f
 8887 270f 4901     		.2byte	0x149
 8888 2711 18210000 		.4byte	0x2118
 8889 2715 10       		.byte	0x10
 8890 2716 0A       		.uleb128 0xa
 8891 2717 28080000 		.4byte	.LASF699
 8892 271b 1F       		.byte	0x1f
 8893 271c 4D01     		.2byte	0x14d
 8894 271e 18210000 		.4byte	0x2118
 8895 2722 14       		.byte	0x14
 8896 2723 00       		.byte	0
 8897 2724 03       		.uleb128 0x3
 8898 2725 762C0000 		.4byte	.LASF700
 8899 2729 1E       		.byte	0x1e
 8900 272a 43       		.byte	0x43
 8901 272b 2F270000 		.4byte	0x272f
 8902 272f 0B       		.uleb128 0xb
 8903 2730 04       		.byte	0x4
 8904 2731 35270000 		.4byte	0x2735
 8905 2735 0D       		.uleb128 0xd
 8906 2736 40270000 		.4byte	0x2740
 8907 273a 0E       		.uleb128 0xe
 8908 273b 40270000 		.4byte	0x2740
 8909 273f 00       		.byte	0
 8910 2740 0B       		.uleb128 0xb
 8911 2741 04       		.byte	0x4
 8912 2742 BD260000 		.4byte	0x26bd
 8913 2746 17       		.uleb128 0x17
 8914 2747 60       		.byte	0x60
 8915 2748 20       		.byte	0x20
 8916 2749 9E01     		.2byte	0x19e
 8917 274b 52280000 		.4byte	0x2852
 8918 274f 09       		.uleb128 0x9
 8919 2750 43523100 		.ascii	"CR1\000"
 8920 2754 20       		.byte	0x20
 8921 2755 9F01     		.2byte	0x19f
 8922 2757 04010000 		.4byte	0x104
 8923 275b 00       		.byte	0
 8924 275c 09       		.uleb128 0x9
 8925 275d 43523200 		.ascii	"CR2\000"
 8926 2761 20       		.byte	0x20
 8927 2762 A001     		.2byte	0x1a0
 8928 2764 04010000 		.4byte	0x104
 8929 2768 04       		.byte	0x4
 8930 2769 0A       		.uleb128 0xa
 8931 276a C0360000 		.4byte	.LASF701
 8932 276e 20       		.byte	0x20
 8933 276f A101     		.2byte	0x1a1
 8934 2771 04010000 		.4byte	0x104
 8935 2775 08       		.byte	0x8
 8936 2776 0A       		.uleb128 0xa
 8937 2777 4D390000 		.4byte	.LASF702
ARM GAS  /tmp/ccTUBOn1.s 			page 158


 8938 277b 20       		.byte	0x20
 8939 277c A201     		.2byte	0x1a2
 8940 277e 04010000 		.4byte	0x104
 8941 2782 0C       		.byte	0xc
 8942 2783 09       		.uleb128 0x9
 8943 2784 535200   		.ascii	"SR\000"
 8944 2787 20       		.byte	0x20
 8945 2788 A301     		.2byte	0x1a3
 8946 278a 04010000 		.4byte	0x104
 8947 278e 10       		.byte	0x10
 8948 278f 09       		.uleb128 0x9
 8949 2790 45475200 		.ascii	"EGR\000"
 8950 2794 20       		.byte	0x20
 8951 2795 A401     		.2byte	0x1a4
 8952 2797 04010000 		.4byte	0x104
 8953 279b 14       		.byte	0x14
 8954 279c 0A       		.uleb128 0xa
 8955 279d 2E3F0000 		.4byte	.LASF703
 8956 27a1 20       		.byte	0x20
 8957 27a2 A501     		.2byte	0x1a5
 8958 27a4 04010000 		.4byte	0x104
 8959 27a8 18       		.byte	0x18
 8960 27a9 0A       		.uleb128 0xa
 8961 27aa 343F0000 		.4byte	.LASF704
 8962 27ae 20       		.byte	0x20
 8963 27af A601     		.2byte	0x1a6
 8964 27b1 04010000 		.4byte	0x104
 8965 27b5 1C       		.byte	0x1c
 8966 27b6 0A       		.uleb128 0xa
 8967 27b7 F50A0000 		.4byte	.LASF705
 8968 27bb 20       		.byte	0x20
 8969 27bc A701     		.2byte	0x1a7
 8970 27be 04010000 		.4byte	0x104
 8971 27c2 20       		.byte	0x20
 8972 27c3 09       		.uleb128 0x9
 8973 27c4 434E5400 		.ascii	"CNT\000"
 8974 27c8 20       		.byte	0x20
 8975 27c9 A801     		.2byte	0x1a8
 8976 27cb 04010000 		.4byte	0x104
 8977 27cf 24       		.byte	0x24
 8978 27d0 09       		.uleb128 0x9
 8979 27d1 50534300 		.ascii	"PSC\000"
 8980 27d5 20       		.byte	0x20
 8981 27d6 A901     		.2byte	0x1a9
 8982 27d8 04010000 		.4byte	0x104
 8983 27dc 28       		.byte	0x28
 8984 27dd 09       		.uleb128 0x9
 8985 27de 41525200 		.ascii	"ARR\000"
 8986 27e2 20       		.byte	0x20
 8987 27e3 AA01     		.2byte	0x1aa
 8988 27e5 04010000 		.4byte	0x104
 8989 27e9 2C       		.byte	0x2c
 8990 27ea 09       		.uleb128 0x9
 8991 27eb 52435200 		.ascii	"RCR\000"
 8992 27ef 20       		.byte	0x20
 8993 27f0 AB01     		.2byte	0x1ab
 8994 27f2 04010000 		.4byte	0x104
ARM GAS  /tmp/ccTUBOn1.s 			page 159


 8995 27f6 30       		.byte	0x30
 8996 27f7 09       		.uleb128 0x9
 8997 27f8 43435200 		.ascii	"CCR\000"
 8998 27fc 20       		.byte	0x20
 8999 27fd AC01     		.2byte	0x1ac
 9000 27ff C9070000 		.4byte	0x7c9
 9001 2803 34       		.byte	0x34
 9002 2804 0A       		.uleb128 0xa
 9003 2805 A0030000 		.4byte	.LASF706
 9004 2809 20       		.byte	0x20
 9005 280a AD01     		.2byte	0x1ad
 9006 280c 04010000 		.4byte	0x104
 9007 2810 44       		.byte	0x44
 9008 2811 09       		.uleb128 0x9
 9009 2812 44435200 		.ascii	"DCR\000"
 9010 2816 20       		.byte	0x20
 9011 2817 AE01     		.2byte	0x1ae
 9012 2819 04010000 		.4byte	0x104
 9013 281d 48       		.byte	0x48
 9014 281e 0A       		.uleb128 0xa
 9015 281f 23250000 		.4byte	.LASF707
 9016 2823 20       		.byte	0x20
 9017 2824 AF01     		.2byte	0x1af
 9018 2826 04010000 		.4byte	0x104
 9019 282a 4C       		.byte	0x4c
 9020 282b 09       		.uleb128 0x9
 9021 282c 4F5200   		.ascii	"OR\000"
 9022 282f 20       		.byte	0x20
 9023 2830 B001     		.2byte	0x1b0
 9024 2832 04010000 		.4byte	0x104
 9025 2836 50       		.byte	0x50
 9026 2837 0A       		.uleb128 0xa
 9027 2838 3A3F0000 		.4byte	.LASF708
 9028 283c 20       		.byte	0x20
 9029 283d B101     		.2byte	0x1b1
 9030 283f 04010000 		.4byte	0x104
 9031 2843 54       		.byte	0x54
 9032 2844 0A       		.uleb128 0xa
 9033 2845 F0150000 		.4byte	.LASF709
 9034 2849 20       		.byte	0x20
 9035 284a B201     		.2byte	0x1b2
 9036 284c B4070000 		.4byte	0x7b4
 9037 2850 58       		.byte	0x58
 9038 2851 00       		.byte	0
 9039 2852 18       		.uleb128 0x18
 9040 2853 94350000 		.4byte	.LASF710
 9041 2857 20       		.byte	0x20
 9042 2858 B301     		.2byte	0x1b3
 9043 285a 46270000 		.4byte	0x2746
 9044 285e 20       		.uleb128 0x20
 9045 285f 07       		.byte	0x7
 9046 2860 01       		.byte	0x1
 9047 2861 49000000 		.4byte	0x49
 9048 2865 1F       		.byte	0x1f
 9049 2866 EE       		.byte	0xee
 9050 2867 78280000 		.4byte	0x2878
 9051 286b 21       		.uleb128 0x21
ARM GAS  /tmp/ccTUBOn1.s 			page 160


 9052 286c D80C0000 		.4byte	.LASF711
 9053 2870 00       		.byte	0
 9054 2871 21       		.uleb128 0x21
 9055 2872 D92C0000 		.4byte	.LASF712
 9056 2876 01       		.byte	0x1
 9057 2877 00       		.byte	0
 9058 2878 03       		.uleb128 0x3
 9059 2879 553B0000 		.4byte	.LASF713
 9060 287d 1F       		.byte	0x1f
 9061 287e F1       		.byte	0xf1
 9062 287f 5E280000 		.4byte	0x285e
 9063 2883 03       		.uleb128 0x3
 9064 2884 14200000 		.4byte	.LASF714
 9065 2888 1F       		.byte	0x1f
 9066 2889 F6       		.byte	0xf6
 9067 288a F9000000 		.4byte	0xf9
 9068 288e 20       		.uleb128 0x20
 9069 288f 07       		.byte	0x7
 9070 2890 01       		.byte	0x1
 9071 2891 49000000 		.4byte	0x49
 9072 2895 1F       		.byte	0x1f
 9073 2896 FB       		.byte	0xfb
 9074 2897 A8280000 		.4byte	0x28a8
 9075 289b 21       		.uleb128 0x21
 9076 289c FC2B0000 		.4byte	.LASF715
 9077 28a0 00       		.byte	0
 9078 28a1 21       		.uleb128 0x21
 9079 28a2 E0350000 		.4byte	.LASF716
 9080 28a6 01       		.byte	0x1
 9081 28a7 00       		.byte	0
 9082 28a8 03       		.uleb128 0x3
 9083 28a9 02090000 		.4byte	.LASF717
 9084 28ad 1F       		.byte	0x1f
 9085 28ae FE       		.byte	0xfe
 9086 28af 8E280000 		.4byte	0x288e
 9087 28b3 17       		.uleb128 0x17
 9088 28b4 1C       		.byte	0x1c
 9089 28b5 1F       		.byte	0x1f
 9090 28b6 0901     		.2byte	0x109
 9091 28b8 18290000 		.4byte	0x2918
 9092 28bc 0A       		.uleb128 0xa
 9093 28bd C30C0000 		.4byte	.LASF718
 9094 28c1 1F       		.byte	0x1f
 9095 28c2 0D01     		.2byte	0x10d
 9096 28c4 78280000 		.4byte	0x2878
 9097 28c8 00       		.byte	0
 9098 28c9 0A       		.uleb128 0xa
 9099 28ca FB3D0000 		.4byte	.LASF719
 9100 28ce 1F       		.byte	0x1f
 9101 28cf 1301     		.2byte	0x113
 9102 28d1 83280000 		.4byte	0x2883
 9103 28d5 04       		.byte	0x4
 9104 28d6 0A       		.uleb128 0xa
 9105 28d7 30200000 		.4byte	.LASF720
 9106 28db 1F       		.byte	0x1f
 9107 28dc 1701     		.2byte	0x117
 9108 28de 24270000 		.4byte	0x2724
ARM GAS  /tmp/ccTUBOn1.s 			page 161


 9109 28e2 08       		.byte	0x8
 9110 28e3 0A       		.uleb128 0xa
 9111 28e4 801D0000 		.4byte	.LASF721
 9112 28e8 1F       		.byte	0x1f
 9113 28e9 1B01     		.2byte	0x11b
 9114 28eb 24270000 		.4byte	0x2724
 9115 28ef 0C       		.byte	0xc
 9116 28f0 0A       		.uleb128 0xa
 9117 28f1 9C100000 		.4byte	.LASF722
 9118 28f5 1F       		.byte	0x1f
 9119 28f6 1F01     		.2byte	0x11f
 9120 28f8 24270000 		.4byte	0x2724
 9121 28fc 10       		.byte	0x10
 9122 28fd 0A       		.uleb128 0xa
 9123 28fe 681E0000 		.4byte	.LASF487
 9124 2902 1F       		.byte	0x1f
 9125 2903 2501     		.2byte	0x125
 9126 2905 A8280000 		.4byte	0x28a8
 9127 2909 14       		.byte	0x14
 9128 290a 0A       		.uleb128 0xa
 9129 290b 28140000 		.4byte	.LASF723
 9130 290f 1F       		.byte	0x1f
 9131 2910 2B01     		.2byte	0x12b
 9132 2912 F9000000 		.4byte	0xf9
 9133 2916 18       		.byte	0x18
 9134 2917 00       		.byte	0
 9135 2918 18       		.uleb128 0x18
 9136 2919 B8150000 		.4byte	.LASF724
 9137 291d 1F       		.byte	0x1f
 9138 291e 2C01     		.2byte	0x12c
 9139 2920 B3280000 		.4byte	0x28b3
 9140 2924 06       		.uleb128 0x6
 9141 2925 18290000 		.4byte	0x2918
 9142 2929 0B       		.uleb128 0xb
 9143 292a 04       		.byte	0x4
 9144 292b 24290000 		.4byte	0x2924
 9145 292f 0B       		.uleb128 0xb
 9146 2930 04       		.byte	0x4
 9147 2931 52280000 		.4byte	0x2852
 9148 2935 13       		.uleb128 0x13
 9149 2936 91190000 		.4byte	.LASF725
 9150 293a 1F       		.byte	0x1f
 9151 293b 8A01     		.2byte	0x18a
 9152 293d BD260000 		.4byte	0x26bd
 9153 2941 20       		.uleb128 0x20
 9154 2942 07       		.byte	0x7
 9155 2943 01       		.byte	0x1
 9156 2944 49000000 		.4byte	0x49
 9157 2948 21       		.byte	0x21
 9158 2949 55       		.byte	0x55
 9159 294a 61290000 		.4byte	0x2961
 9160 294e 21       		.uleb128 0x21
 9161 294f 8F090000 		.4byte	.LASF726
 9162 2953 00       		.byte	0
 9163 2954 21       		.uleb128 0x21
 9164 2955 77160000 		.4byte	.LASF727
 9165 2959 01       		.byte	0x1
ARM GAS  /tmp/ccTUBOn1.s 			page 162


 9166 295a 21       		.uleb128 0x21
 9167 295b 80410000 		.4byte	.LASF728
 9168 295f 02       		.byte	0x2
 9169 2960 00       		.byte	0
 9170 2961 03       		.uleb128 0x3
 9171 2962 D0280000 		.4byte	.LASF729
 9172 2966 21       		.byte	0x21
 9173 2967 59       		.byte	0x59
 9174 2968 41290000 		.4byte	0x2941
 9175 296c 03       		.uleb128 0x3
 9176 296d 3C2E0000 		.4byte	.LASF730
 9177 2971 21       		.byte	0x21
 9178 2972 5E       		.byte	0x5e
 9179 2973 77290000 		.4byte	0x2977
 9180 2977 28       		.uleb128 0x28
 9181 2978 3C2E0000 		.4byte	.LASF730
 9182 297c 5801     		.2byte	0x158
 9183 297e 21       		.byte	0x21
 9184 297f 78       		.byte	0x78
 9185 2980 E4290000 		.4byte	0x29e4
 9186 2984 16       		.uleb128 0x16
 9187 2985 766D7400 		.ascii	"vmt\000"
 9188 2989 21       		.byte	0x21
 9189 298a 7A       		.byte	0x7a
 9190 298b 7A2A0000 		.4byte	0x2a7a
 9191 298f 00       		.byte	0
 9192 2990 08       		.uleb128 0x8
 9193 2991 ED110000 		.4byte	.LASF731
 9194 2995 21       		.byte	0x21
 9195 2996 7B       		.byte	0x7b
 9196 2997 950D0000 		.4byte	0xd95
 9197 299b 04       		.byte	0x4
 9198 299c 08       		.uleb128 0x8
 9199 299d C9240000 		.4byte	.LASF648
 9200 29a1 21       		.byte	0x21
 9201 29a2 7B       		.byte	0x7b
 9202 29a3 61290000 		.4byte	0x2961
 9203 29a7 08       		.byte	0x8
 9204 29a8 08       		.uleb128 0x8
 9205 29a9 71130000 		.4byte	.LASF732
 9206 29ad 21       		.byte	0x21
 9207 29ae 7B       		.byte	0x7b
 9208 29af 400E0000 		.4byte	0xe40
 9209 29b3 0C       		.byte	0xc
 9210 29b4 08       		.uleb128 0x8
 9211 29b5 AD1E0000 		.4byte	.LASF733
 9212 29b9 21       		.byte	0x21
 9213 29ba 7B       		.byte	0x7b
 9214 29bb 4B0E0000 		.4byte	0xe4b
 9215 29bf 30       		.byte	0x30
 9216 29c0 16       		.uleb128 0x16
 9217 29c1 696200   		.ascii	"ib\000"
 9218 29c4 21       		.byte	0x21
 9219 29c5 7B       		.byte	0x7b
 9220 29c6 802A0000 		.4byte	0x2a80
 9221 29ca 54       		.byte	0x54
 9222 29cb 16       		.uleb128 0x16
ARM GAS  /tmp/ccTUBOn1.s 			page 163


 9223 29cc 6F6200   		.ascii	"ob\000"
 9224 29cf 21       		.byte	0x21
 9225 29d0 7B       		.byte	0x7b
 9226 29d1 802A0000 		.4byte	0x2a80
 9227 29d5 D4       		.byte	0xd4
 9228 29d6 23       		.uleb128 0x23
 9229 29d7 B42B0000 		.4byte	.LASF734
 9230 29db 21       		.byte	0x21
 9231 29dc 7B       		.byte	0x7b
 9232 29dd 902A0000 		.4byte	0x2a90
 9233 29e1 5401     		.2byte	0x154
 9234 29e3 00       		.byte	0
 9235 29e4 1E       		.uleb128 0x1e
 9236 29e5 53443300 		.ascii	"SD3\000"
 9237 29e9 22       		.byte	0x22
 9238 29ea 1501     		.2byte	0x115
 9239 29ec 6C290000 		.4byte	0x296c
 9240 29f0 1E       		.uleb128 0x1e
 9241 29f1 53443400 		.ascii	"SD4\000"
 9242 29f5 22       		.byte	0x22
 9243 29f6 1801     		.2byte	0x118
 9244 29f8 6C290000 		.4byte	0x296c
 9245 29fc 1E       		.uleb128 0x1e
 9246 29fd 53443600 		.ascii	"SD6\000"
 9247 2a01 22       		.byte	0x22
 9248 2a02 1E01     		.2byte	0x11e
 9249 2a04 6C290000 		.4byte	0x296c
 9250 2a08 07       		.uleb128 0x7
 9251 2a09 8C100000 		.4byte	.LASF735
 9252 2a0d 20       		.byte	0x20
 9253 2a0e 21       		.byte	0x21
 9254 2a0f 6D       		.byte	0x6d
 9255 2a10 752A0000 		.4byte	0x2a75
 9256 2a14 08       		.uleb128 0x8
 9257 2a15 74280000 		.4byte	.LASF736
 9258 2a19 21       		.byte	0x21
 9259 2a1a 6E       		.byte	0x6e
 9260 2a1b 750E0000 		.4byte	0xe75
 9261 2a1f 00       		.byte	0
 9262 2a20 08       		.uleb128 0x8
 9263 2a21 9D070000 		.4byte	.LASF737
 9264 2a25 21       		.byte	0x21
 9265 2a26 6E       		.byte	0x6e
 9266 2a27 940E0000 		.4byte	0xe94
 9267 2a2b 04       		.byte	0x4
 9268 2a2c 16       		.uleb128 0x16
 9269 2a2d 70757400 		.ascii	"put\000"
 9270 2a31 21       		.byte	0x21
 9271 2a32 6E       		.byte	0x6e
 9272 2a33 AE0E0000 		.4byte	0xeae
 9273 2a37 08       		.byte	0x8
 9274 2a38 16       		.uleb128 0x16
 9275 2a39 67657400 		.ascii	"get\000"
 9276 2a3d 21       		.byte	0x21
 9277 2a3e 6E       		.byte	0x6e
 9278 2a3f C30E0000 		.4byte	0xec3
 9279 2a43 0C       		.byte	0xc
ARM GAS  /tmp/ccTUBOn1.s 			page 164


 9280 2a44 08       		.uleb128 0x8
 9281 2a45 04220000 		.4byte	.LASF738
 9282 2a49 21       		.byte	0x21
 9283 2a4a 6E       		.byte	0x6e
 9284 2a4b 68210000 		.4byte	0x2168
 9285 2a4f 10       		.byte	0x10
 9286 2a50 08       		.uleb128 0x8
 9287 2a51 E9270000 		.4byte	.LASF739
 9288 2a55 21       		.byte	0x21
 9289 2a56 6E       		.byte	0x6e
 9290 2a57 82210000 		.4byte	0x2182
 9291 2a5b 14       		.byte	0x14
 9292 2a5c 08       		.uleb128 0x8
 9293 2a5d 9B3A0000 		.4byte	.LASF740
 9294 2a61 21       		.byte	0x21
 9295 2a62 6E       		.byte	0x6e
 9296 2a63 A6210000 		.4byte	0x21a6
 9297 2a67 18       		.byte	0x18
 9298 2a68 08       		.uleb128 0x8
 9299 2a69 1C0D0000 		.4byte	.LASF741
 9300 2a6d 21       		.byte	0x21
 9301 2a6e 6E       		.byte	0x6e
 9302 2a6f CA210000 		.4byte	0x21ca
 9303 2a73 1C       		.byte	0x1c
 9304 2a74 00       		.byte	0
 9305 2a75 06       		.uleb128 0x6
 9306 2a76 082A0000 		.4byte	0x2a08
 9307 2a7a 0B       		.uleb128 0xb
 9308 2a7b 04       		.byte	0x4
 9309 2a7c 752A0000 		.4byte	0x2a75
 9310 2a80 11       		.uleb128 0x11
 9311 2a81 C9000000 		.4byte	0xc9
 9312 2a85 902A0000 		.4byte	0x2a90
 9313 2a89 12       		.uleb128 0x12
 9314 2a8a B7000000 		.4byte	0xb7
 9315 2a8e 7F       		.byte	0x7f
 9316 2a8f 00       		.byte	0
 9317 2a90 0B       		.uleb128 0xb
 9318 2a91 04       		.byte	0x4
 9319 2a92 51090000 		.4byte	0x951
 9320 2a96 20       		.uleb128 0x20
 9321 2a97 07       		.byte	0x7
 9322 2a98 01       		.byte	0x1
 9323 2a99 49000000 		.4byte	0x49
 9324 2a9d 23       		.byte	0x23
 9325 2a9e 46       		.byte	0x46
 9326 2a9f C22A0000 		.4byte	0x2ac2
 9327 2aa3 21       		.uleb128 0x21
 9328 2aa4 A00A0000 		.4byte	.LASF742
 9329 2aa8 00       		.byte	0
 9330 2aa9 21       		.uleb128 0x21
 9331 2aaa F3040000 		.4byte	.LASF743
 9332 2aae 01       		.byte	0x1
 9333 2aaf 21       		.uleb128 0x21
 9334 2ab0 C53B0000 		.4byte	.LASF744
 9335 2ab4 02       		.byte	0x2
 9336 2ab5 21       		.uleb128 0x21
ARM GAS  /tmp/ccTUBOn1.s 			page 165


 9337 2ab6 CA1D0000 		.4byte	.LASF745
 9338 2aba 03       		.byte	0x3
 9339 2abb 21       		.uleb128 0x21
 9340 2abc 1A210000 		.4byte	.LASF746
 9341 2ac0 04       		.byte	0x4
 9342 2ac1 00       		.byte	0
 9343 2ac2 03       		.uleb128 0x3
 9344 2ac3 9B050000 		.4byte	.LASF747
 9345 2ac7 23       		.byte	0x23
 9346 2ac8 4C       		.byte	0x4c
 9347 2ac9 962A0000 		.4byte	0x2a96
 9348 2acd 18       		.uleb128 0x18
 9349 2ace DE370000 		.4byte	.LASF748
 9350 2ad2 24       		.byte	0x24
 9351 2ad3 9601     		.2byte	0x196
 9352 2ad5 D92A0000 		.4byte	0x2ad9
 9353 2ad9 0C       		.uleb128 0xc
 9354 2ada DE370000 		.4byte	.LASF748
 9355 2ade 30       		.byte	0x30
 9356 2adf 24       		.byte	0x24
 9357 2ae0 BA01     		.2byte	0x1ba
 9358 2ae2 5C2B0000 		.4byte	0x2b5c
 9359 2ae6 0A       		.uleb128 0xa
 9360 2ae7 C9240000 		.4byte	.LASF648
 9361 2aeb 24       		.byte	0x24
 9362 2aec BE01     		.2byte	0x1be
 9363 2aee C22A0000 		.4byte	0x2ac2
 9364 2af2 00       		.byte	0
 9365 2af3 0A       		.uleb128 0xa
 9366 2af4 863A0000 		.4byte	.LASF649
 9367 2af8 24       		.byte	0x24
 9368 2af9 C201     		.2byte	0x1c2
 9369 2afb CE2B0000 		.4byte	0x2bce
 9370 2aff 04       		.byte	0x4
 9371 2b00 0A       		.uleb128 0xa
 9372 2b01 880A0000 		.4byte	.LASF683
 9373 2b05 24       		.byte	0x24
 9374 2b06 C701     		.2byte	0x1c7
 9375 2b08 B2020000 		.4byte	0x2b2
 9376 2b0c 08       		.byte	0x8
 9377 2b0d 0A       		.uleb128 0xa
 9378 2b0e 40150000 		.4byte	.LASF682
 9379 2b12 24       		.byte	0x24
 9380 2b13 CD01     		.2byte	0x1cd
 9381 2b15 110D0000 		.4byte	0xd11
 9382 2b19 0C       		.byte	0xc
 9383 2b1a 09       		.uleb128 0x9
 9384 2b1b 73706900 		.ascii	"spi\000"
 9385 2b1f 24       		.byte	0x24
 9386 2b20 D601     		.2byte	0x1d6
 9387 2b22 D42B0000 		.4byte	0x2bd4
 9388 2b26 1C       		.byte	0x1c
 9389 2b27 0A       		.uleb128 0xa
 9390 2b28 2E020000 		.4byte	.LASF687
 9391 2b2c 24       		.byte	0x24
 9392 2b2d DA01     		.2byte	0x1da
 9393 2b2f 6E260000 		.4byte	0x266e
ARM GAS  /tmp/ccTUBOn1.s 			page 166


 9394 2b33 20       		.byte	0x20
 9395 2b34 0A       		.uleb128 0xa
 9396 2b35 FA030000 		.4byte	.LASF688
 9397 2b39 24       		.byte	0x24
 9398 2b3a DE01     		.2byte	0x1de
 9399 2b3c 6E260000 		.4byte	0x266e
 9400 2b40 24       		.byte	0x24
 9401 2b41 0A       		.uleb128 0xa
 9402 2b42 AF0C0000 		.4byte	.LASF685
 9403 2b46 24       		.byte	0x24
 9404 2b47 E201     		.2byte	0x1e2
 9405 2b49 F9000000 		.4byte	0xf9
 9406 2b4d 28       		.byte	0x28
 9407 2b4e 0A       		.uleb128 0xa
 9408 2b4f 120D0000 		.4byte	.LASF686
 9409 2b53 24       		.byte	0x24
 9410 2b54 E601     		.2byte	0x1e6
 9411 2b56 F9000000 		.4byte	0xf9
 9412 2b5a 2C       		.byte	0x2c
 9413 2b5b 00       		.byte	0
 9414 2b5c 18       		.uleb128 0x18
 9415 2b5d 95020000 		.4byte	.LASF749
 9416 2b61 24       		.byte	0x24
 9417 2b62 9E01     		.2byte	0x19e
 9418 2b64 682B0000 		.4byte	0x2b68
 9419 2b68 0B       		.uleb128 0xb
 9420 2b69 04       		.byte	0x4
 9421 2b6a 6E2B0000 		.4byte	0x2b6e
 9422 2b6e 0D       		.uleb128 0xd
 9423 2b6f 792B0000 		.4byte	0x2b79
 9424 2b73 0E       		.uleb128 0xe
 9425 2b74 792B0000 		.4byte	0x2b79
 9426 2b78 00       		.byte	0
 9427 2b79 0B       		.uleb128 0xb
 9428 2b7a 04       		.byte	0x4
 9429 2b7b CD2A0000 		.4byte	0x2acd
 9430 2b7f 17       		.uleb128 0x17
 9431 2b80 0C       		.byte	0xc
 9432 2b81 24       		.byte	0x24
 9433 2b82 A301     		.2byte	0x1a3
 9434 2b84 BD2B0000 		.4byte	0x2bbd
 9435 2b88 0A       		.uleb128 0xa
 9436 2b89 BA0D0000 		.4byte	.LASF750
 9437 2b8d 24       		.byte	0x24
 9438 2b8e A701     		.2byte	0x1a7
 9439 2b90 5C2B0000 		.4byte	0x2b5c
 9440 2b94 00       		.byte	0
 9441 2b95 0A       		.uleb128 0xa
 9442 2b96 88090000 		.4byte	.LASF751
 9443 2b9a 24       		.byte	0x24
 9444 2b9b AC01     		.2byte	0x1ac
 9445 2b9d 96230000 		.4byte	0x2396
 9446 2ba1 04       		.byte	0x4
 9447 2ba2 0A       		.uleb128 0xa
 9448 2ba3 0C0D0000 		.4byte	.LASF752
 9449 2ba7 24       		.byte	0x24
 9450 2ba8 B001     		.2byte	0x1b0
ARM GAS  /tmp/ccTUBOn1.s 			page 167


 9451 2baa D9000000 		.4byte	0xd9
 9452 2bae 08       		.byte	0x8
 9453 2baf 09       		.uleb128 0x9
 9454 2bb0 63723100 		.ascii	"cr1\000"
 9455 2bb4 24       		.byte	0x24
 9456 2bb5 B401     		.2byte	0x1b4
 9457 2bb7 D9000000 		.4byte	0xd9
 9458 2bbb 0A       		.byte	0xa
 9459 2bbc 00       		.byte	0
 9460 2bbd 18       		.uleb128 0x18
 9461 2bbe 19250000 		.4byte	.LASF753
 9462 2bc2 24       		.byte	0x24
 9463 2bc3 B501     		.2byte	0x1b5
 9464 2bc5 7F2B0000 		.4byte	0x2b7f
 9465 2bc9 06       		.uleb128 0x6
 9466 2bca BD2B0000 		.4byte	0x2bbd
 9467 2bce 0B       		.uleb128 0xb
 9468 2bcf 04       		.byte	0x4
 9469 2bd0 C92B0000 		.4byte	0x2bc9
 9470 2bd4 0B       		.uleb128 0xb
 9471 2bd5 04       		.byte	0x4
 9472 2bd6 E2080000 		.4byte	0x8e2
 9473 2bda 13       		.uleb128 0x13
 9474 2bdb E3270000 		.4byte	.LASF754
 9475 2bdf 24       		.byte	0x24
 9476 2be0 F201     		.2byte	0x1f2
 9477 2be2 CD2A0000 		.4byte	0x2acd
 9478 2be6 03       		.uleb128 0x3
 9479 2be7 281E0000 		.4byte	.LASF755
 9480 2beb 25       		.byte	0x25
 9481 2bec FA       		.byte	0xfa
 9482 2bed F12B0000 		.4byte	0x2bf1
 9483 2bf1 10       		.uleb128 0x10
 9484 2bf2 281E0000 		.4byte	.LASF755
 9485 2bf6 8002     		.2byte	0x280
 9486 2bf8 26       		.byte	0x26
 9487 2bf9 7701     		.2byte	0x177
 9488 2bfb 1D2D0000 		.4byte	0x2d1d
 9489 2bff 0A       		.uleb128 0xa
 9490 2c00 C9240000 		.4byte	.LASF648
 9491 2c04 26       		.byte	0x26
 9492 2c05 7B01     		.2byte	0x17b
 9493 2c07 552D0000 		.4byte	0x2d55
 9494 2c0b 00       		.byte	0
 9495 2c0c 0A       		.uleb128 0xa
 9496 2c0d 863A0000 		.4byte	.LASF649
 9497 2c11 26       		.byte	0x26
 9498 2c12 7F01     		.2byte	0x17f
 9499 2c14 78360000 		.4byte	0x3678
 9500 2c18 04       		.byte	0x4
 9501 2c19 0A       		.uleb128 0xa
 9502 2c1a 4A380000 		.4byte	.LASF756
 9503 2c1e 26       		.byte	0x26
 9504 2c1f 8301     		.2byte	0x183
 9505 2c21 D9000000 		.4byte	0xd9
 9506 2c25 08       		.byte	0x8
 9507 2c26 0A       		.uleb128 0xa
ARM GAS  /tmp/ccTUBOn1.s 			page 168


 9508 2c27 C53D0000 		.4byte	.LASF757
 9509 2c2b 26       		.byte	0x26
 9510 2c2c 8701     		.2byte	0x187
 9511 2c2e D9000000 		.4byte	0xd9
 9512 2c32 0A       		.byte	0xa
 9513 2c33 09       		.uleb128 0x9
 9514 2c34 65706300 		.ascii	"epc\000"
 9515 2c38 26       		.byte	0x26
 9516 2c39 8B01     		.2byte	0x18b
 9517 2c3b 7E360000 		.4byte	0x367e
 9518 2c3f 0C       		.byte	0xc
 9519 2c40 0A       		.uleb128 0xa
 9520 2c41 EB0A0000 		.4byte	.LASF758
 9521 2c45 26       		.byte	0x26
 9522 2c46 9201     		.2byte	0x192
 9523 2c48 94360000 		.4byte	0x3694
 9524 2c4c 1C       		.byte	0x1c
 9525 2c4d 0A       		.uleb128 0xa
 9526 2c4e E6130000 		.4byte	.LASF759
 9527 2c52 26       		.byte	0x26
 9528 2c53 9901     		.2byte	0x199
 9529 2c55 94360000 		.4byte	0x3694
 9530 2c59 28       		.byte	0x28
 9531 2c5a 0A       		.uleb128 0xa
 9532 2c5b 3F0E0000 		.4byte	.LASF760
 9533 2c5f 26       		.byte	0x26
 9534 2c60 9D01     		.2byte	0x19d
 9535 2c62 9A2D0000 		.4byte	0x2d9a
 9536 2c66 34       		.byte	0x34
 9537 2c67 0A       		.uleb128 0xa
 9538 2c68 DD070000 		.4byte	.LASF761
 9539 2c6c 26       		.byte	0x26
 9540 2c6d A101     		.2byte	0x1a1
 9541 2c6f 3A0E0000 		.4byte	0xe3a
 9542 2c73 38       		.byte	0x38
 9543 2c74 0A       		.uleb128 0xa
 9544 2c75 30270000 		.4byte	.LASF762
 9545 2c79 26       		.byte	0x26
 9546 2c7a A501     		.2byte	0x1a5
 9547 2c7c 14010000 		.4byte	0x114
 9548 2c80 3C       		.byte	0x3c
 9549 2c81 0A       		.uleb128 0xa
 9550 2c82 24330000 		.4byte	.LASF763
 9551 2c86 26       		.byte	0x26
 9552 2c87 A901     		.2byte	0x1a9
 9553 2c89 1A2E0000 		.4byte	0x2e1a
 9554 2c8d 40       		.byte	0x40
 9555 2c8e 0A       		.uleb128 0xa
 9556 2c8f 9A0A0000 		.4byte	.LASF764
 9557 2c93 26       		.byte	0x26
 9558 2c94 AD01     		.2byte	0x1ad
 9559 2c96 1B170000 		.4byte	0x171b
 9560 2c9a 44       		.byte	0x44
 9561 2c9b 0A       		.uleb128 0xa
 9562 2c9c C3230000 		.4byte	.LASF765
 9563 2ca0 26       		.byte	0x26
 9564 2ca1 B101     		.2byte	0x1b1
ARM GAS  /tmp/ccTUBOn1.s 			page 169


 9565 2ca3 D9000000 		.4byte	0xd9
 9566 2ca7 4C       		.byte	0x4c
 9567 2ca8 0A       		.uleb128 0xa
 9568 2ca9 8A1D0000 		.4byte	.LASF488
 9569 2cad 26       		.byte	0x26
 9570 2cae B501     		.2byte	0x1b5
 9571 2cb0 C9000000 		.4byte	0xc9
 9572 2cb4 4E       		.byte	0x4e
 9573 2cb5 0A       		.uleb128 0xa
 9574 2cb6 9B2C0000 		.4byte	.LASF766
 9575 2cba 26       		.byte	0x26
 9576 2cbb B901     		.2byte	0x1b9
 9577 2cbd C9000000 		.4byte	0xc9
 9578 2cc1 4F       		.byte	0x4f
 9579 2cc2 09       		.uleb128 0x9
 9580 2cc3 6F746700 		.ascii	"otg\000"
 9581 2cc7 26       		.byte	0x26
 9582 2cc8 C101     		.2byte	0x1c1
 9583 2cca A4360000 		.4byte	0x36a4
 9584 2cce 50       		.byte	0x50
 9585 2ccf 0A       		.uleb128 0xa
 9586 2cd0 FA170000 		.4byte	.LASF767
 9587 2cd4 26       		.byte	0x26
 9588 2cd5 C501     		.2byte	0x1c5
 9589 2cd7 AA360000 		.4byte	0x36aa
 9590 2cdb 54       		.byte	0x54
 9591 2cdc 0A       		.uleb128 0xa
 9592 2cdd BC350000 		.4byte	.LASF768
 9593 2ce1 26       		.byte	0x26
 9594 2ce2 C901     		.2byte	0x1c9
 9595 2ce4 F9000000 		.4byte	0xf9
 9596 2ce8 58       		.byte	0x58
 9597 2ce9 0A       		.uleb128 0xa
 9598 2cea C2150000 		.4byte	.LASF769
 9599 2cee 26       		.byte	0x26
 9600 2cef CD01     		.2byte	0x1cd
 9601 2cf1 F9000000 		.4byte	0xf9
 9602 2cf5 5C       		.byte	0x5c
 9603 2cf6 0A       		.uleb128 0xa
 9604 2cf7 470C0000 		.4byte	.LASF770
 9605 2cfb 26       		.byte	0x26
 9606 2cfc D101     		.2byte	0x1d1
 9607 2cfe B2020000 		.4byte	0x2b2
 9608 2d02 60       		.byte	0x60
 9609 2d03 09       		.uleb128 0x9
 9610 2d04 747200   		.ascii	"tr\000"
 9611 2d07 26       		.byte	0x26
 9612 2d08 D601     		.2byte	0x1d6
 9613 2d0a B2020000 		.4byte	0x2b2
 9614 2d0e 64       		.byte	0x64
 9615 2d0f 0A       		.uleb128 0xa
 9616 2d10 50220000 		.4byte	.LASF771
 9617 2d14 26       		.byte	0x26
 9618 2d15 DA01     		.2byte	0x1da
 9619 2d17 B0360000 		.4byte	0x36b0
 9620 2d1b 68       		.byte	0x68
 9621 2d1c 00       		.byte	0
ARM GAS  /tmp/ccTUBOn1.s 			page 170


 9622 2d1d 03       		.uleb128 0x3
 9623 2d1e BF020000 		.4byte	.LASF772
 9624 2d22 25       		.byte	0x25
 9625 2d23 FF       		.byte	0xff
 9626 2d24 C9000000 		.4byte	0xc9
 9627 2d28 24       		.uleb128 0x24
 9628 2d29 07       		.byte	0x7
 9629 2d2a 01       		.byte	0x1
 9630 2d2b 49000000 		.4byte	0x49
 9631 2d2f 25       		.byte	0x25
 9632 2d30 0401     		.2byte	0x104
 9633 2d32 552D0000 		.4byte	0x2d55
 9634 2d36 21       		.uleb128 0x21
 9635 2d37 813F0000 		.4byte	.LASF773
 9636 2d3b 00       		.byte	0
 9637 2d3c 21       		.uleb128 0x21
 9638 2d3d 21000000 		.4byte	.LASF774
 9639 2d41 01       		.byte	0x1
 9640 2d42 21       		.uleb128 0x21
 9641 2d43 64200000 		.4byte	.LASF775
 9642 2d47 02       		.byte	0x2
 9643 2d48 21       		.uleb128 0x21
 9644 2d49 E2290000 		.4byte	.LASF776
 9645 2d4d 03       		.byte	0x3
 9646 2d4e 21       		.uleb128 0x21
 9647 2d4f 5F0C0000 		.4byte	.LASF777
 9648 2d53 04       		.byte	0x4
 9649 2d54 00       		.byte	0
 9650 2d55 18       		.uleb128 0x18
 9651 2d56 89410000 		.4byte	.LASF778
 9652 2d5a 25       		.byte	0x25
 9653 2d5b 0A01     		.2byte	0x10a
 9654 2d5d 282D0000 		.4byte	0x2d28
 9655 2d61 24       		.uleb128 0x24
 9656 2d62 07       		.byte	0x7
 9657 2d63 01       		.byte	0x1
 9658 2d64 49000000 		.4byte	0x49
 9659 2d68 25       		.byte	0x25
 9660 2d69 1801     		.2byte	0x118
 9661 2d6b 9A2D0000 		.4byte	0x2d9a
 9662 2d6f 21       		.uleb128 0x21
 9663 2d70 6F320000 		.4byte	.LASF779
 9664 2d74 00       		.byte	0
 9665 2d75 21       		.uleb128 0x21
 9666 2d76 831B0000 		.4byte	.LASF780
 9667 2d7a 01       		.byte	0x1
 9668 2d7b 21       		.uleb128 0x21
 9669 2d7c 5F2E0000 		.4byte	.LASF781
 9670 2d80 02       		.byte	0x2
 9671 2d81 21       		.uleb128 0x21
 9672 2d82 E1240000 		.4byte	.LASF782
 9673 2d86 03       		.byte	0x3
 9674 2d87 21       		.uleb128 0x21
 9675 2d88 89230000 		.4byte	.LASF783
 9676 2d8c 04       		.byte	0x4
 9677 2d8d 21       		.uleb128 0x21
 9678 2d8e 601D0000 		.4byte	.LASF784
ARM GAS  /tmp/ccTUBOn1.s 			page 171


 9679 2d92 05       		.byte	0x5
 9680 2d93 21       		.uleb128 0x21
 9681 2d94 201A0000 		.4byte	.LASF785
 9682 2d98 06       		.byte	0x6
 9683 2d99 00       		.byte	0
 9684 2d9a 18       		.uleb128 0x18
 9685 2d9b B11D0000 		.4byte	.LASF786
 9686 2d9f 25       		.byte	0x25
 9687 2da0 2001     		.2byte	0x120
 9688 2da2 612D0000 		.4byte	0x2d61
 9689 2da6 24       		.uleb128 0x24
 9690 2da7 07       		.byte	0x7
 9691 2da8 01       		.byte	0x1
 9692 2da9 49000000 		.4byte	0x49
 9693 2dad 25       		.byte	0x25
 9694 2dae 2501     		.2byte	0x125
 9695 2db0 D92D0000 		.4byte	0x2dd9
 9696 2db4 21       		.uleb128 0x21
 9697 2db5 B5290000 		.4byte	.LASF787
 9698 2db9 00       		.byte	0
 9699 2dba 21       		.uleb128 0x21
 9700 2dbb 703B0000 		.4byte	.LASF788
 9701 2dbf 01       		.byte	0x1
 9702 2dc0 21       		.uleb128 0x21
 9703 2dc1 D8210000 		.4byte	.LASF789
 9704 2dc5 02       		.byte	0x2
 9705 2dc6 21       		.uleb128 0x21
 9706 2dc7 B9220000 		.4byte	.LASF790
 9707 2dcb 03       		.byte	0x3
 9708 2dcc 21       		.uleb128 0x21
 9709 2dcd F43F0000 		.4byte	.LASF791
 9710 2dd1 04       		.byte	0x4
 9711 2dd2 21       		.uleb128 0x21
 9712 2dd3 46210000 		.4byte	.LASF792
 9713 2dd7 05       		.byte	0x5
 9714 2dd8 00       		.byte	0
 9715 2dd9 18       		.uleb128 0x18
 9716 2dda 192B0000 		.4byte	.LASF793
 9717 2dde 25       		.byte	0x25
 9718 2ddf 2C01     		.2byte	0x12c
 9719 2de1 A62D0000 		.4byte	0x2da6
 9720 2de5 17       		.uleb128 0x17
 9721 2de6 08       		.byte	0x8
 9722 2de7 25       		.byte	0x25
 9723 2de8 3101     		.2byte	0x131
 9724 2dea 092E0000 		.4byte	0x2e09
 9725 2dee 0A       		.uleb128 0xa
 9726 2def DF400000 		.4byte	.LASF794
 9727 2df3 25       		.byte	0x25
 9728 2df4 3501     		.2byte	0x135
 9729 2df6 14010000 		.4byte	0x114
 9730 2dfa 00       		.byte	0
 9731 2dfb 0A       		.uleb128 0xa
 9732 2dfc 7B070000 		.4byte	.LASF795
 9733 2e00 25       		.byte	0x25
 9734 2e01 3901     		.2byte	0x139
 9735 2e03 6F0E0000 		.4byte	0xe6f
ARM GAS  /tmp/ccTUBOn1.s 			page 172


 9736 2e07 04       		.byte	0x4
 9737 2e08 00       		.byte	0
 9738 2e09 18       		.uleb128 0x18
 9739 2e0a E0230000 		.4byte	.LASF796
 9740 2e0e 25       		.byte	0x25
 9741 2e0f 3A01     		.2byte	0x13a
 9742 2e11 E52D0000 		.4byte	0x2de5
 9743 2e15 06       		.uleb128 0x6
 9744 2e16 092E0000 		.4byte	0x2e09
 9745 2e1a 18       		.uleb128 0x18
 9746 2e1b 2D400000 		.4byte	.LASF797
 9747 2e1f 25       		.byte	0x25
 9748 2e20 4201     		.2byte	0x142
 9749 2e22 262E0000 		.4byte	0x2e26
 9750 2e26 0B       		.uleb128 0xb
 9751 2e27 04       		.byte	0x4
 9752 2e28 2C2E0000 		.4byte	0x2e2c
 9753 2e2c 0D       		.uleb128 0xd
 9754 2e2d 372E0000 		.4byte	0x2e37
 9755 2e31 0E       		.uleb128 0xe
 9756 2e32 372E0000 		.4byte	0x2e37
 9757 2e36 00       		.byte	0
 9758 2e37 0B       		.uleb128 0xb
 9759 2e38 04       		.byte	0x4
 9760 2e39 E62B0000 		.4byte	0x2be6
 9761 2e3d 18       		.uleb128 0x18
 9762 2e3e 15270000 		.4byte	.LASF798
 9763 2e42 25       		.byte	0x25
 9764 2e43 4B01     		.2byte	0x14b
 9765 2e45 492E0000 		.4byte	0x2e49
 9766 2e49 0B       		.uleb128 0xb
 9767 2e4a 04       		.byte	0x4
 9768 2e4b 4F2E0000 		.4byte	0x2e4f
 9769 2e4f 0D       		.uleb128 0xd
 9770 2e50 5F2E0000 		.4byte	0x2e5f
 9771 2e54 0E       		.uleb128 0xe
 9772 2e55 372E0000 		.4byte	0x2e37
 9773 2e59 0E       		.uleb128 0xe
 9774 2e5a 1D2D0000 		.4byte	0x2d1d
 9775 2e5e 00       		.byte	0
 9776 2e5f 18       		.uleb128 0x18
 9777 2e60 0E110000 		.4byte	.LASF799
 9778 2e64 25       		.byte	0x25
 9779 2e65 5401     		.2byte	0x154
 9780 2e67 6B2E0000 		.4byte	0x2e6b
 9781 2e6b 0B       		.uleb128 0xb
 9782 2e6c 04       		.byte	0x4
 9783 2e6d 712E0000 		.4byte	0x2e71
 9784 2e71 0D       		.uleb128 0xd
 9785 2e72 812E0000 		.4byte	0x2e81
 9786 2e76 0E       		.uleb128 0xe
 9787 2e77 372E0000 		.4byte	0x2e37
 9788 2e7b 0E       		.uleb128 0xe
 9789 2e7c D92D0000 		.4byte	0x2dd9
 9790 2e80 00       		.byte	0
 9791 2e81 18       		.uleb128 0x18
 9792 2e82 3F290000 		.4byte	.LASF800
ARM GAS  /tmp/ccTUBOn1.s 			page 173


 9793 2e86 25       		.byte	0x25
 9794 2e87 6001     		.2byte	0x160
 9795 2e89 8D2E0000 		.4byte	0x2e8d
 9796 2e8d 0B       		.uleb128 0xb
 9797 2e8e 04       		.byte	0x4
 9798 2e8f 932E0000 		.4byte	0x2e93
 9799 2e93 1F       		.uleb128 0x1f
 9800 2e94 04170000 		.4byte	0x1704
 9801 2e98 A22E0000 		.4byte	0x2ea2
 9802 2e9c 0E       		.uleb128 0xe
 9803 2e9d 372E0000 		.4byte	0x2e37
 9804 2ea1 00       		.byte	0
 9805 2ea2 18       		.uleb128 0x18
 9806 2ea3 691B0000 		.4byte	.LASF801
 9807 2ea7 25       		.byte	0x25
 9808 2ea8 6501     		.2byte	0x165
 9809 2eaa AE2E0000 		.4byte	0x2eae
 9810 2eae 0B       		.uleb128 0xb
 9811 2eaf 04       		.byte	0x4
 9812 2eb0 B42E0000 		.4byte	0x2eb4
 9813 2eb4 1F       		.uleb128 0x1f
 9814 2eb5 D22E0000 		.4byte	0x2ed2
 9815 2eb9 D22E0000 		.4byte	0x2ed2
 9816 2ebd 0E       		.uleb128 0xe
 9817 2ebe 372E0000 		.4byte	0x2e37
 9818 2ec2 0E       		.uleb128 0xe
 9819 2ec3 C9000000 		.4byte	0xc9
 9820 2ec7 0E       		.uleb128 0xe
 9821 2ec8 C9000000 		.4byte	0xc9
 9822 2ecc 0E       		.uleb128 0xe
 9823 2ecd D9000000 		.4byte	0xd9
 9824 2ed1 00       		.byte	0
 9825 2ed2 0B       		.uleb128 0xb
 9826 2ed3 04       		.byte	0x4
 9827 2ed4 152E0000 		.4byte	0x2e15
 9828 2ed8 15       		.uleb128 0x15
 9829 2ed9 20       		.byte	0x20
 9830 2eda 27       		.byte	0x27
 9831 2edb 35       		.byte	0x35
 9832 2edc 412F0000 		.4byte	0x2f41
 9833 2ee0 08       		.uleb128 0x8
 9834 2ee1 A6050000 		.4byte	.LASF802
 9835 2ee5 27       		.byte	0x27
 9836 2ee6 36       		.byte	0x36
 9837 2ee7 04010000 		.4byte	0x104
 9838 2eeb 00       		.byte	0
 9839 2eec 08       		.uleb128 0x8
 9840 2eed 7F160000 		.4byte	.LASF803
 9841 2ef1 27       		.byte	0x27
 9842 2ef2 38       		.byte	0x38
 9843 2ef3 04010000 		.4byte	0x104
 9844 2ef7 04       		.byte	0x4
 9845 2ef8 08       		.uleb128 0x8
 9846 2ef9 D2040000 		.4byte	.LASF804
 9847 2efd 27       		.byte	0x27
 9848 2efe 39       		.byte	0x39
 9849 2eff 04010000 		.4byte	0x104
ARM GAS  /tmp/ccTUBOn1.s 			page 174


 9850 2f03 08       		.byte	0x8
 9851 2f04 08       		.uleb128 0x8
 9852 2f05 712F0000 		.4byte	.LASF805
 9853 2f09 27       		.byte	0x27
 9854 2f0a 3A       		.byte	0x3a
 9855 2f0b 04010000 		.4byte	0x104
 9856 2f0f 0C       		.byte	0xc
 9857 2f10 08       		.uleb128 0x8
 9858 2f11 D1210000 		.4byte	.LASF806
 9859 2f15 27       		.byte	0x27
 9860 2f16 3C       		.byte	0x3c
 9861 2f17 04010000 		.4byte	0x104
 9862 2f1b 10       		.byte	0x10
 9863 2f1c 08       		.uleb128 0x8
 9864 2f1d E4160000 		.4byte	.LASF807
 9865 2f21 27       		.byte	0x27
 9866 2f22 3E       		.byte	0x3e
 9867 2f23 04010000 		.4byte	0x104
 9868 2f27 14       		.byte	0x14
 9869 2f28 08       		.uleb128 0x8
 9870 2f29 76050000 		.4byte	.LASF808
 9871 2f2d 27       		.byte	0x27
 9872 2f2e 3F       		.byte	0x3f
 9873 2f2f 04010000 		.4byte	0x104
 9874 2f33 18       		.byte	0x18
 9875 2f34 08       		.uleb128 0x8
 9876 2f35 42380000 		.4byte	.LASF809
 9877 2f39 27       		.byte	0x27
 9878 2f3a 40       		.byte	0x40
 9879 2f3b 04010000 		.4byte	0x104
 9880 2f3f 1C       		.byte	0x1c
 9881 2f40 00       		.byte	0
 9882 2f41 03       		.uleb128 0x3
 9883 2f42 A22E0000 		.4byte	.LASF810
 9884 2f46 27       		.byte	0x27
 9885 2f47 41       		.byte	0x41
 9886 2f48 D82E0000 		.4byte	0x2ed8
 9887 2f4c 15       		.uleb128 0x15
 9888 2f4d 20       		.byte	0x20
 9889 2f4e 27       		.byte	0x27
 9890 2f4f 46       		.byte	0x46
 9891 2f50 B52F0000 		.4byte	0x2fb5
 9892 2f54 08       		.uleb128 0x8
 9893 2f55 D5170000 		.4byte	.LASF811
 9894 2f59 27       		.byte	0x27
 9895 2f5a 47       		.byte	0x47
 9896 2f5b 04010000 		.4byte	0x104
 9897 2f5f 00       		.byte	0
 9898 2f60 08       		.uleb128 0x8
 9899 2f61 640E0000 		.4byte	.LASF812
 9900 2f65 27       		.byte	0x27
 9901 2f66 49       		.byte	0x49
 9902 2f67 04010000 		.4byte	0x104
 9903 2f6b 04       		.byte	0x4
 9904 2f6c 08       		.uleb128 0x8
 9905 2f6d 8B360000 		.4byte	.LASF813
 9906 2f71 27       		.byte	0x27
ARM GAS  /tmp/ccTUBOn1.s 			page 175


 9907 2f72 4A       		.byte	0x4a
 9908 2f73 04010000 		.4byte	0x104
 9909 2f77 08       		.byte	0x8
 9910 2f78 08       		.uleb128 0x8
 9911 2f79 611E0000 		.4byte	.LASF814
 9912 2f7d 27       		.byte	0x27
 9913 2f7e 4C       		.byte	0x4c
 9914 2f7f 04010000 		.4byte	0x104
 9915 2f83 0C       		.byte	0xc
 9916 2f84 08       		.uleb128 0x8
 9917 2f85 0A260000 		.4byte	.LASF815
 9918 2f89 27       		.byte	0x27
 9919 2f8a 4D       		.byte	0x4d
 9920 2f8b 04010000 		.4byte	0x104
 9921 2f8f 10       		.byte	0x10
 9922 2f90 08       		.uleb128 0x8
 9923 2f91 E4160000 		.4byte	.LASF807
 9924 2f95 27       		.byte	0x27
 9925 2f96 4F       		.byte	0x4f
 9926 2f97 04010000 		.4byte	0x104
 9927 2f9b 14       		.byte	0x14
 9928 2f9c 08       		.uleb128 0x8
 9929 2f9d AB0A0000 		.4byte	.LASF816
 9930 2fa1 27       		.byte	0x27
 9931 2fa2 50       		.byte	0x50
 9932 2fa3 04010000 		.4byte	0x104
 9933 2fa7 18       		.byte	0x18
 9934 2fa8 08       		.uleb128 0x8
 9935 2fa9 74360000 		.4byte	.LASF817
 9936 2fad 27       		.byte	0x27
 9937 2fae 52       		.byte	0x52
 9938 2faf 04010000 		.4byte	0x104
 9939 2fb3 1C       		.byte	0x1c
 9940 2fb4 00       		.byte	0
 9941 2fb5 03       		.uleb128 0x3
 9942 2fb6 970C0000 		.4byte	.LASF818
 9943 2fba 27       		.byte	0x27
 9944 2fbb 53       		.byte	0x53
 9945 2fbc 4C2F0000 		.4byte	0x2f4c
 9946 2fc0 15       		.uleb128 0x15
 9947 2fc1 20       		.byte	0x20
 9948 2fc2 27       		.byte	0x27
 9949 2fc3 58       		.byte	0x58
 9950 2fc4 29300000 		.4byte	0x3029
 9951 2fc8 08       		.uleb128 0x8
 9952 2fc9 522F0000 		.4byte	.LASF819
 9953 2fcd 27       		.byte	0x27
 9954 2fce 59       		.byte	0x59
 9955 2fcf 04010000 		.4byte	0x104
 9956 2fd3 00       		.byte	0
 9957 2fd4 08       		.uleb128 0x8
 9958 2fd5 640E0000 		.4byte	.LASF812
 9959 2fd9 27       		.byte	0x27
 9960 2fda 5B       		.byte	0x5b
 9961 2fdb 04010000 		.4byte	0x104
 9962 2fdf 04       		.byte	0x4
 9963 2fe0 08       		.uleb128 0x8
ARM GAS  /tmp/ccTUBOn1.s 			page 176


 9964 2fe1 B1280000 		.4byte	.LASF820
 9965 2fe5 27       		.byte	0x27
 9966 2fe6 5C       		.byte	0x5c
 9967 2fe7 04010000 		.4byte	0x104
 9968 2feb 08       		.byte	0x8
 9969 2fec 08       		.uleb128 0x8
 9970 2fed 611E0000 		.4byte	.LASF814
 9971 2ff1 27       		.byte	0x27
 9972 2ff2 5E       		.byte	0x5e
 9973 2ff3 04010000 		.4byte	0x104
 9974 2ff7 0C       		.byte	0xc
 9975 2ff8 08       		.uleb128 0x8
 9976 2ff9 D7380000 		.4byte	.LASF821
 9977 2ffd 27       		.byte	0x27
 9978 2ffe 5F       		.byte	0x5f
 9979 2fff 04010000 		.4byte	0x104
 9980 3003 10       		.byte	0x10
 9981 3004 08       		.uleb128 0x8
 9982 3005 E4160000 		.4byte	.LASF807
 9983 3009 27       		.byte	0x27
 9984 300a 61       		.byte	0x61
 9985 300b 04010000 		.4byte	0x104
 9986 300f 14       		.byte	0x14
 9987 3010 08       		.uleb128 0x8
 9988 3011 76050000 		.4byte	.LASF808
 9989 3015 27       		.byte	0x27
 9990 3016 62       		.byte	0x62
 9991 3017 04010000 		.4byte	0x104
 9992 301b 18       		.byte	0x18
 9993 301c 08       		.uleb128 0x8
 9994 301d 74360000 		.4byte	.LASF817
 9995 3021 27       		.byte	0x27
 9996 3022 63       		.byte	0x63
 9997 3023 04010000 		.4byte	0x104
 9998 3027 1C       		.byte	0x1c
 9999 3028 00       		.byte	0
 10000 3029 03       		.uleb128 0x3
 10001 302a E5260000 		.4byte	.LASF822
 10002 302e 27       		.byte	0x27
 10003 302f 64       		.byte	0x64
 10004 3030 C02F0000 		.4byte	0x2fc0
 10005 3034 29       		.uleb128 0x29
 10006 3035 00100100 		.4byte	0x11000
 10007 3039 27       		.byte	0x27
 10008 303a 69       		.byte	0x69
 10009 303b 11330000 		.4byte	0x3311
 10010 303f 08       		.uleb128 0x8
 10011 3040 D5070000 		.4byte	.LASF823
 10012 3044 27       		.byte	0x27
 10013 3045 6A       		.byte	0x6a
 10014 3046 04010000 		.4byte	0x104
 10015 304a 00       		.byte	0
 10016 304b 08       		.uleb128 0x8
 10017 304c BE130000 		.4byte	.LASF824
 10018 3050 27       		.byte	0x27
 10019 3051 6B       		.byte	0x6b
 10020 3052 04010000 		.4byte	0x104
ARM GAS  /tmp/ccTUBOn1.s 			page 177


 10021 3056 04       		.byte	0x4
 10022 3057 08       		.uleb128 0x8
 10023 3058 230B0000 		.4byte	.LASF825
 10024 305c 27       		.byte	0x27
 10025 305d 6C       		.byte	0x6c
 10026 305e 04010000 		.4byte	0x104
 10027 3062 08       		.byte	0x8
 10028 3063 08       		.uleb128 0x8
 10029 3064 56400000 		.4byte	.LASF826
 10030 3068 27       		.byte	0x27
 10031 3069 6D       		.byte	0x6d
 10032 306a 04010000 		.4byte	0x104
 10033 306e 0C       		.byte	0xc
 10034 306f 08       		.uleb128 0x8
 10035 3070 BD200000 		.4byte	.LASF827
 10036 3074 27       		.byte	0x27
 10037 3075 6E       		.byte	0x6e
 10038 3076 04010000 		.4byte	0x104
 10039 307a 10       		.byte	0x10
 10040 307b 08       		.uleb128 0x8
 10041 307c C2110000 		.4byte	.LASF828
 10042 3080 27       		.byte	0x27
 10043 3081 6F       		.byte	0x6f
 10044 3082 04010000 		.4byte	0x104
 10045 3086 14       		.byte	0x14
 10046 3087 08       		.uleb128 0x8
 10047 3088 5D2C0000 		.4byte	.LASF829
 10048 308c 27       		.byte	0x27
 10049 308d 70       		.byte	0x70
 10050 308e 04010000 		.4byte	0x104
 10051 3092 18       		.byte	0x18
 10052 3093 08       		.uleb128 0x8
 10053 3094 310C0000 		.4byte	.LASF830
 10054 3098 27       		.byte	0x27
 10055 3099 71       		.byte	0x71
 10056 309a 04010000 		.4byte	0x104
 10057 309e 1C       		.byte	0x1c
 10058 309f 08       		.uleb128 0x8
 10059 30a0 290C0000 		.4byte	.LASF831
 10060 30a4 27       		.byte	0x27
 10061 30a5 73       		.byte	0x73
 10062 30a6 04010000 		.4byte	0x104
 10063 30aa 20       		.byte	0x20
 10064 30ab 08       		.uleb128 0x8
 10065 30ac 55330000 		.4byte	.LASF832
 10066 30b0 27       		.byte	0x27
 10067 30b1 75       		.byte	0x75
 10068 30b2 04010000 		.4byte	0x104
 10069 30b6 24       		.byte	0x24
 10070 30b7 08       		.uleb128 0x8
 10071 30b8 A7010000 		.4byte	.LASF833
 10072 30bc 27       		.byte	0x27
 10073 30bd 76       		.byte	0x76
 10074 30be 04010000 		.4byte	0x104
 10075 30c2 28       		.byte	0x28
 10076 30c3 08       		.uleb128 0x8
 10077 30c4 922C0000 		.4byte	.LASF834
ARM GAS  /tmp/ccTUBOn1.s 			page 178


 10078 30c8 27       		.byte	0x27
 10079 30c9 78       		.byte	0x78
 10080 30ca 04010000 		.4byte	0x104
 10081 30ce 2C       		.byte	0x2c
 10082 30cf 08       		.uleb128 0x8
 10083 30d0 66190000 		.4byte	.LASF835
 10084 30d4 27       		.byte	0x27
 10085 30d5 7A       		.byte	0x7a
 10086 30d6 04010000 		.4byte	0x104
 10087 30da 30       		.byte	0x30
 10088 30db 08       		.uleb128 0x8
 10089 30dc 75190000 		.4byte	.LASF836
 10090 30e0 27       		.byte	0x27
 10091 30e1 7B       		.byte	0x7b
 10092 30e2 04010000 		.4byte	0x104
 10093 30e6 34       		.byte	0x34
 10094 30e7 08       		.uleb128 0x8
 10095 30e8 89030000 		.4byte	.LASF837
 10096 30ec 27       		.byte	0x27
 10097 30ed 7C       		.byte	0x7c
 10098 30ee 04010000 		.4byte	0x104
 10099 30f2 38       		.byte	0x38
 10100 30f3 16       		.uleb128 0x16
 10101 30f4 43494400 		.ascii	"CID\000"
 10102 30f8 27       		.byte	0x27
 10103 30f9 7D       		.byte	0x7d
 10104 30fa 04010000 		.4byte	0x104
 10105 30fe 3C       		.byte	0x3c
 10106 30ff 08       		.uleb128 0x8
 10107 3100 A01C0000 		.4byte	.LASF838
 10108 3104 27       		.byte	0x27
 10109 3105 7E       		.byte	0x7e
 10110 3106 21330000 		.4byte	0x3321
 10111 310a 40       		.byte	0x40
 10112 310b 23       		.uleb128 0x23
 10113 310c ED3A0000 		.4byte	.LASF839
 10114 3110 27       		.byte	0x27
 10115 3111 7F       		.byte	0x7f
 10116 3112 04010000 		.4byte	0x104
 10117 3116 0001     		.2byte	0x100
 10118 3118 23       		.uleb128 0x23
 10119 3119 41040000 		.4byte	.LASF840
 10120 311d 27       		.byte	0x27
 10121 311e 81       		.byte	0x81
 10122 311f 6D090000 		.4byte	0x96d
 10123 3123 0401     		.2byte	0x104
 10124 3125 23       		.uleb128 0x23
 10125 3126 84220000 		.4byte	.LASF841
 10126 312a 27       		.byte	0x27
 10127 312b 83       		.byte	0x83
 10128 312c 36330000 		.4byte	0x3336
 10129 3130 4001     		.2byte	0x140
 10130 3132 23       		.uleb128 0x23
 10131 3133 B6270000 		.4byte	.LASF842
 10132 3137 27       		.byte	0x27
 10133 3138 84       		.byte	0x84
 10134 3139 04010000 		.4byte	0x104
ARM GAS  /tmp/ccTUBOn1.s 			page 179


 10135 313d 0004     		.2byte	0x400
 10136 313f 23       		.uleb128 0x23
 10137 3140 7C3F0000 		.4byte	.LASF843
 10138 3144 27       		.byte	0x27
 10139 3145 85       		.byte	0x85
 10140 3146 04010000 		.4byte	0x104
 10141 314a 0404     		.2byte	0x404
 10142 314c 23       		.uleb128 0x23
 10143 314d F7060000 		.4byte	.LASF844
 10144 3151 27       		.byte	0x27
 10145 3152 86       		.byte	0x86
 10146 3153 04010000 		.4byte	0x104
 10147 3157 0804     		.2byte	0x408
 10148 3159 23       		.uleb128 0x23
 10149 315a 2D140000 		.4byte	.LASF845
 10150 315e 27       		.byte	0x27
 10151 315f 88       		.byte	0x88
 10152 3160 04010000 		.4byte	0x104
 10153 3164 0C04     		.2byte	0x40c
 10154 3166 23       		.uleb128 0x23
 10155 3167 67050000 		.4byte	.LASF846
 10156 316b 27       		.byte	0x27
 10157 316c 89       		.byte	0x89
 10158 316d 04010000 		.4byte	0x104
 10159 3171 1004     		.2byte	0x410
 10160 3173 23       		.uleb128 0x23
 10161 3174 81060000 		.4byte	.LASF847
 10162 3178 27       		.byte	0x27
 10163 3179 8B       		.byte	0x8b
 10164 317a 04010000 		.4byte	0x104
 10165 317e 1404     		.2byte	0x414
 10166 3180 23       		.uleb128 0x23
 10167 3181 DD130000 		.4byte	.LASF848
 10168 3185 27       		.byte	0x27
 10169 3186 8D       		.byte	0x8d
 10170 3187 04010000 		.4byte	0x104
 10171 318b 1804     		.2byte	0x418
 10172 318d 23       		.uleb128 0x23
 10173 318e 63310000 		.4byte	.LASF849
 10174 3192 27       		.byte	0x27
 10175 3193 8F       		.byte	0x8f
 10176 3194 4B330000 		.4byte	0x334b
 10177 3198 1C04     		.2byte	0x41c
 10178 319a 23       		.uleb128 0x23
 10179 319b AB040000 		.4byte	.LASF850
 10180 319f 27       		.byte	0x27
 10181 31a0 90       		.byte	0x90
 10182 31a1 04010000 		.4byte	0x104
 10183 31a5 4004     		.2byte	0x440
 10184 31a7 23       		.uleb128 0x23
 10185 31a8 B7340000 		.4byte	.LASF851
 10186 31ac 27       		.byte	0x27
 10187 31ad 92       		.byte	0x92
 10188 31ae 60330000 		.4byte	0x3360
 10189 31b2 4404     		.2byte	0x444
 10190 31b4 2A       		.uleb128 0x2a
 10191 31b5 686300   		.ascii	"hc\000"
ARM GAS  /tmp/ccTUBOn1.s 			page 180


 10192 31b8 27       		.byte	0x27
 10193 31b9 93       		.byte	0x93
 10194 31ba 65330000 		.4byte	0x3365
 10195 31be 0005     		.2byte	0x500
 10196 31c0 23       		.uleb128 0x23
 10197 31c1 76020000 		.4byte	.LASF852
 10198 31c5 27       		.byte	0x27
 10199 31c6 94       		.byte	0x94
 10200 31c7 85330000 		.4byte	0x3385
 10201 31cb 0007     		.2byte	0x700
 10202 31cd 23       		.uleb128 0x23
 10203 31ce FB2F0000 		.4byte	.LASF853
 10204 31d2 27       		.byte	0x27
 10205 31d3 95       		.byte	0x95
 10206 31d4 04010000 		.4byte	0x104
 10207 31d8 0008     		.2byte	0x800
 10208 31da 23       		.uleb128 0x23
 10209 31db 7C3C0000 		.4byte	.LASF854
 10210 31df 27       		.byte	0x27
 10211 31e0 96       		.byte	0x96
 10212 31e1 04010000 		.4byte	0x104
 10213 31e5 0408     		.2byte	0x804
 10214 31e7 23       		.uleb128 0x23
 10215 31e8 8A1F0000 		.4byte	.LASF855
 10216 31ec 27       		.byte	0x27
 10217 31ed 97       		.byte	0x97
 10218 31ee 04010000 		.4byte	0x104
 10219 31f2 0808     		.2byte	0x808
 10220 31f4 23       		.uleb128 0x23
 10221 31f5 BE070000 		.4byte	.LASF856
 10222 31f9 27       		.byte	0x27
 10223 31fa 98       		.byte	0x98
 10224 31fb 04010000 		.4byte	0x104
 10225 31ff 0C08     		.2byte	0x80c
 10226 3201 23       		.uleb128 0x23
 10227 3202 B6130000 		.4byte	.LASF857
 10228 3206 27       		.byte	0x27
 10229 3207 99       		.byte	0x99
 10230 3208 04010000 		.4byte	0x104
 10231 320c 1008     		.2byte	0x810
 10232 320e 23       		.uleb128 0x23
 10233 320f E4360000 		.4byte	.LASF858
 10234 3213 27       		.byte	0x27
 10235 3214 9B       		.byte	0x9b
 10236 3215 04010000 		.4byte	0x104
 10237 3219 1408     		.2byte	0x814
 10238 321b 23       		.uleb128 0x23
 10239 321c E8370000 		.4byte	.LASF859
 10240 3220 27       		.byte	0x27
 10241 3221 9D       		.byte	0x9d
 10242 3222 04010000 		.4byte	0x104
 10243 3226 1808     		.2byte	0x818
 10244 3228 23       		.uleb128 0x23
 10245 3229 55320000 		.4byte	.LASF860
 10246 322d 27       		.byte	0x27
 10247 322e 9F       		.byte	0x9f
 10248 322f 04010000 		.4byte	0x104
ARM GAS  /tmp/ccTUBOn1.s 			page 181


 10249 3233 1C08     		.2byte	0x81c
 10250 3235 23       		.uleb128 0x23
 10251 3236 2F090000 		.4byte	.LASF861
 10252 323a 27       		.byte	0x27
 10253 323b A1       		.byte	0xa1
 10254 323c 04010000 		.4byte	0x104
 10255 3240 2008     		.2byte	0x820
 10256 3242 23       		.uleb128 0x23
 10257 3243 15080000 		.4byte	.LASF862
 10258 3247 27       		.byte	0x27
 10259 3248 A2       		.byte	0xa2
 10260 3249 04010000 		.4byte	0x104
 10261 324d 2408     		.2byte	0x824
 10262 324f 23       		.uleb128 0x23
 10263 3250 85020000 		.4byte	.LASF863
 10264 3254 27       		.byte	0x27
 10265 3255 A3       		.byte	0xa3
 10266 3256 04010000 		.4byte	0x104
 10267 325a 2808     		.2byte	0x828
 10268 325c 23       		.uleb128 0x23
 10269 325d 8F0A0000 		.4byte	.LASF864
 10270 3261 27       		.byte	0x27
 10271 3262 A5       		.byte	0xa5
 10272 3263 04010000 		.4byte	0x104
 10273 3267 2C08     		.2byte	0x82c
 10274 3269 23       		.uleb128 0x23
 10275 326a 060A0000 		.4byte	.LASF865
 10276 326e 27       		.byte	0x27
 10277 326f A7       		.byte	0xa7
 10278 3270 04010000 		.4byte	0x104
 10279 3274 3008     		.2byte	0x830
 10280 3276 23       		.uleb128 0x23
 10281 3277 50070000 		.4byte	.LASF866
 10282 327b 27       		.byte	0x27
 10283 327c A8       		.byte	0xa8
 10284 327d 04010000 		.4byte	0x104
 10285 3281 3408     		.2byte	0x834
 10286 3283 23       		.uleb128 0x23
 10287 3284 380A0000 		.4byte	.LASF867
 10288 3288 27       		.byte	0x27
 10289 3289 AA       		.byte	0xaa
 10290 328a 04010000 		.4byte	0x104
 10291 328e 3808     		.2byte	0x838
 10292 3290 23       		.uleb128 0x23
 10293 3291 7F0A0000 		.4byte	.LASF868
 10294 3295 27       		.byte	0x27
 10295 3296 AB       		.byte	0xab
 10296 3297 04010000 		.4byte	0x104
 10297 329b 3C08     		.2byte	0x83c
 10298 329d 23       		.uleb128 0x23
 10299 329e 590B0000 		.4byte	.LASF869
 10300 32a2 27       		.byte	0x27
 10301 32a3 AC       		.byte	0xac
 10302 32a4 9A330000 		.4byte	0x339a
 10303 32a8 4008     		.2byte	0x840
 10304 32aa 23       		.uleb128 0x23
 10305 32ab 571D0000 		.4byte	.LASF870
ARM GAS  /tmp/ccTUBOn1.s 			page 182


 10306 32af 27       		.byte	0x27
 10307 32b0 AD       		.byte	0xad
 10308 32b1 9A330000 		.4byte	0x339a
 10309 32b5 8008     		.2byte	0x880
 10310 32b7 23       		.uleb128 0x23
 10311 32b8 321E0000 		.4byte	.LASF871
 10312 32bc 27       		.byte	0x27
 10313 32bd AE       		.byte	0xae
 10314 32be 9A330000 		.4byte	0x339a
 10315 32c2 C008     		.2byte	0x8c0
 10316 32c4 2A       		.uleb128 0x2a
 10317 32c5 696500   		.ascii	"ie\000"
 10318 32c8 27       		.byte	0x27
 10319 32c9 AF       		.byte	0xaf
 10320 32ca 9F330000 		.4byte	0x339f
 10321 32ce 0009     		.2byte	0x900
 10322 32d0 2A       		.uleb128 0x2a
 10323 32d1 6F6500   		.ascii	"oe\000"
 10324 32d4 27       		.byte	0x27
 10325 32d5 B0       		.byte	0xb0
 10326 32d6 AF330000 		.4byte	0x33af
 10327 32da 000B     		.2byte	0xb00
 10328 32dc 23       		.uleb128 0x23
 10329 32dd AC110000 		.4byte	.LASF872
 10330 32e1 27       		.byte	0x27
 10331 32e2 B1       		.byte	0xb1
 10332 32e3 85330000 		.4byte	0x3385
 10333 32e7 000D     		.2byte	0xd00
 10334 32e9 23       		.uleb128 0x23
 10335 32ea 953C0000 		.4byte	.LASF873
 10336 32ee 27       		.byte	0x27
 10337 32ef B2       		.byte	0xb2
 10338 32f0 04010000 		.4byte	0x104
 10339 32f4 000E     		.2byte	0xe00
 10340 32f6 23       		.uleb128 0x23
 10341 32f7 C01A0000 		.4byte	.LASF874
 10342 32fb 27       		.byte	0x27
 10343 32fc B4       		.byte	0xb4
 10344 32fd CF330000 		.4byte	0x33cf
 10345 3301 040E     		.2byte	0xe04
 10346 3303 23       		.uleb128 0x23
 10347 3304 0E100000 		.4byte	.LASF875
 10348 3308 27       		.byte	0x27
 10349 3309 B5       		.byte	0xb5
 10350 330a EB330000 		.4byte	0x33eb
 10351 330e 0010     		.2byte	0x1000
 10352 3310 00       		.byte	0
 10353 3311 11       		.uleb128 0x11
 10354 3312 04010000 		.4byte	0x104
 10355 3316 21330000 		.4byte	0x3321
 10356 331a 12       		.uleb128 0x12
 10357 331b B7000000 		.4byte	0xb7
 10358 331f 2F       		.byte	0x2f
 10359 3320 00       		.byte	0
 10360 3321 05       		.uleb128 0x5
 10361 3322 11330000 		.4byte	0x3311
 10362 3326 11       		.uleb128 0x11
ARM GAS  /tmp/ccTUBOn1.s 			page 183


 10363 3327 04010000 		.4byte	0x104
 10364 332b 36330000 		.4byte	0x3336
 10365 332f 12       		.uleb128 0x12
 10366 3330 B7000000 		.4byte	0xb7
 10367 3334 AF       		.byte	0xaf
 10368 3335 00       		.byte	0
 10369 3336 05       		.uleb128 0x5
 10370 3337 26330000 		.4byte	0x3326
 10371 333b 11       		.uleb128 0x11
 10372 333c 04010000 		.4byte	0x104
 10373 3340 4B330000 		.4byte	0x334b
 10374 3344 12       		.uleb128 0x12
 10375 3345 B7000000 		.4byte	0xb7
 10376 3349 08       		.byte	0x8
 10377 334a 00       		.byte	0
 10378 334b 05       		.uleb128 0x5
 10379 334c 3B330000 		.4byte	0x333b
 10380 3350 11       		.uleb128 0x11
 10381 3351 04010000 		.4byte	0x104
 10382 3355 60330000 		.4byte	0x3360
 10383 3359 12       		.uleb128 0x12
 10384 335a B7000000 		.4byte	0xb7
 10385 335e 2E       		.byte	0x2e
 10386 335f 00       		.byte	0
 10387 3360 05       		.uleb128 0x5
 10388 3361 50330000 		.4byte	0x3350
 10389 3365 11       		.uleb128 0x11
 10390 3366 412F0000 		.4byte	0x2f41
 10391 336a 75330000 		.4byte	0x3375
 10392 336e 12       		.uleb128 0x12
 10393 336f B7000000 		.4byte	0xb7
 10394 3373 0F       		.byte	0xf
 10395 3374 00       		.byte	0
 10396 3375 11       		.uleb128 0x11
 10397 3376 04010000 		.4byte	0x104
 10398 337a 85330000 		.4byte	0x3385
 10399 337e 12       		.uleb128 0x12
 10400 337f B7000000 		.4byte	0xb7
 10401 3383 3F       		.byte	0x3f
 10402 3384 00       		.byte	0
 10403 3385 05       		.uleb128 0x5
 10404 3386 75330000 		.4byte	0x3375
 10405 338a 11       		.uleb128 0x11
 10406 338b 04010000 		.4byte	0x104
 10407 338f 9A330000 		.4byte	0x339a
 10408 3393 12       		.uleb128 0x12
 10409 3394 B7000000 		.4byte	0xb7
 10410 3398 0F       		.byte	0xf
 10411 3399 00       		.byte	0
 10412 339a 05       		.uleb128 0x5
 10413 339b 8A330000 		.4byte	0x338a
 10414 339f 11       		.uleb128 0x11
 10415 33a0 B52F0000 		.4byte	0x2fb5
 10416 33a4 AF330000 		.4byte	0x33af
 10417 33a8 12       		.uleb128 0x12
 10418 33a9 B7000000 		.4byte	0xb7
 10419 33ad 0F       		.byte	0xf
ARM GAS  /tmp/ccTUBOn1.s 			page 184


 10420 33ae 00       		.byte	0
 10421 33af 11       		.uleb128 0x11
 10422 33b0 29300000 		.4byte	0x3029
 10423 33b4 BF330000 		.4byte	0x33bf
 10424 33b8 12       		.uleb128 0x12
 10425 33b9 B7000000 		.4byte	0xb7
 10426 33bd 0F       		.byte	0xf
 10427 33be 00       		.byte	0
 10428 33bf 11       		.uleb128 0x11
 10429 33c0 04010000 		.4byte	0x104
 10430 33c4 CF330000 		.4byte	0x33cf
 10431 33c8 12       		.uleb128 0x12
 10432 33c9 B7000000 		.4byte	0xb7
 10433 33cd 7E       		.byte	0x7e
 10434 33ce 00       		.byte	0
 10435 33cf 05       		.uleb128 0x5
 10436 33d0 BF330000 		.4byte	0x33bf
 10437 33d4 11       		.uleb128 0x11
 10438 33d5 04010000 		.4byte	0x104
 10439 33d9 EB330000 		.4byte	0x33eb
 10440 33dd 12       		.uleb128 0x12
 10441 33de B7000000 		.4byte	0xb7
 10442 33e2 0F       		.byte	0xf
 10443 33e3 2B       		.uleb128 0x2b
 10444 33e4 B7000000 		.4byte	0xb7
 10445 33e8 FF03     		.2byte	0x3ff
 10446 33ea 00       		.byte	0
 10447 33eb 05       		.uleb128 0x5
 10448 33ec D4330000 		.4byte	0x33d4
 10449 33f0 03       		.uleb128 0x3
 10450 33f1 A4400000 		.4byte	.LASF876
 10451 33f5 27       		.byte	0x27
 10452 33f6 B6       		.byte	0xb6
 10453 33f7 34300000 		.4byte	0x3034
 10454 33fb 15       		.uleb128 0x15
 10455 33fc 0C       		.byte	0xc
 10456 33fd 26       		.byte	0x26
 10457 33fe C6       		.byte	0xc6
 10458 33ff 28340000 		.4byte	0x3428
 10459 3403 08       		.uleb128 0x8
 10460 3404 740D0000 		.4byte	.LASF877
 10461 3408 26       		.byte	0x26
 10462 3409 C7       		.byte	0xc7
 10463 340a F9000000 		.4byte	0xf9
 10464 340e 00       		.byte	0
 10465 340f 08       		.uleb128 0x8
 10466 3410 75110000 		.4byte	.LASF878
 10467 3414 26       		.byte	0x26
 10468 3415 C8       		.byte	0xc8
 10469 3416 F9000000 		.4byte	0xf9
 10470 341a 04       		.byte	0x4
 10471 341b 08       		.uleb128 0x8
 10472 341c C91A0000 		.4byte	.LASF879
 10473 3420 26       		.byte	0x26
 10474 3421 C9       		.byte	0xc9
 10475 3422 F9000000 		.4byte	0xf9
 10476 3426 08       		.byte	0x8
ARM GAS  /tmp/ccTUBOn1.s 			page 185


 10477 3427 00       		.byte	0
 10478 3428 03       		.uleb128 0x3
 10479 3429 99110000 		.4byte	.LASF880
 10480 342d 26       		.byte	0x26
 10481 342e CA       		.byte	0xca
 10482 342f FB330000 		.4byte	0x33fb
 10483 3433 06       		.uleb128 0x6
 10484 3434 28340000 		.4byte	0x3428
 10485 3438 15       		.uleb128 0x15
 10486 3439 04       		.byte	0x4
 10487 343a 26       		.byte	0x26
 10488 343b DD       		.byte	0xdd
 10489 343c 4D340000 		.4byte	0x344d
 10490 3440 08       		.uleb128 0x8
 10491 3441 8F3C0000 		.4byte	.LASF881
 10492 3445 26       		.byte	0x26
 10493 3446 E1       		.byte	0xe1
 10494 3447 6F0E0000 		.4byte	0xe6f
 10495 344b 00       		.byte	0
 10496 344c 00       		.byte	0
 10497 344d 15       		.uleb128 0x15
 10498 344e 04       		.byte	0x4
 10499 344f 26       		.byte	0x26
 10500 3450 E3       		.byte	0xe3
 10501 3451 62340000 		.4byte	0x3462
 10502 3455 08       		.uleb128 0x8
 10503 3456 FE0D0000 		.4byte	.LASF650
 10504 345a 26       		.byte	0x26
 10505 345b E7       		.byte	0xe7
 10506 345c 62340000 		.4byte	0x3462
 10507 3460 00       		.byte	0
 10508 3461 00       		.byte	0
 10509 3462 0B       		.uleb128 0xb
 10510 3463 04       		.byte	0x4
 10511 3464 4B0E0000 		.4byte	0xe4b
 10512 3468 1C       		.uleb128 0x1c
 10513 3469 04       		.byte	0x4
 10514 346a 26       		.byte	0x26
 10515 346b DC       		.byte	0xdc
 10516 346c 87340000 		.4byte	0x3487
 10517 3470 2C       		.uleb128 0x2c
 10518 3471 25350000 		.4byte	.LASF882
 10519 3475 26       		.byte	0x26
 10520 3476 E2       		.byte	0xe2
 10521 3477 38340000 		.4byte	0x3438
 10522 347b 2C       		.uleb128 0x2c
 10523 347c F5320000 		.4byte	.LASF883
 10524 3480 26       		.byte	0x26
 10525 3481 E8       		.byte	0xe8
 10526 3482 4D340000 		.4byte	0x344d
 10527 3486 00       		.byte	0
 10528 3487 15       		.uleb128 0x15
 10529 3488 14       		.byte	0x14
 10530 3489 26       		.byte	0x26
 10531 348a CF       		.byte	0xcf
 10532 348b CC340000 		.4byte	0x34cc
 10533 348f 08       		.uleb128 0x8
ARM GAS  /tmp/ccTUBOn1.s 			page 186


 10534 3490 F80B0000 		.4byte	.LASF884
 10535 3494 26       		.byte	0x26
 10536 3495 D3       		.byte	0xd3
 10537 3496 04170000 		.4byte	0x1704
 10538 349a 00       		.byte	0
 10539 349b 08       		.uleb128 0x8
 10540 349c 0D200000 		.4byte	.LASF885
 10541 34a0 26       		.byte	0x26
 10542 34a1 D7       		.byte	0xd7
 10543 34a2 14010000 		.4byte	0x114
 10544 34a6 04       		.byte	0x4
 10545 34a7 08       		.uleb128 0x8
 10546 34a8 5F3B0000 		.4byte	.LASF886
 10547 34ac 26       		.byte	0x26
 10548 34ad DB       		.byte	0xdb
 10549 34ae 14010000 		.4byte	0x114
 10550 34b2 08       		.byte	0x8
 10551 34b3 08       		.uleb128 0x8
 10552 34b4 C30C0000 		.4byte	.LASF718
 10553 34b8 26       		.byte	0x26
 10554 34b9 E9       		.byte	0xe9
 10555 34ba 68340000 		.4byte	0x3468
 10556 34be 0C       		.byte	0xc
 10557 34bf 08       		.uleb128 0x8
 10558 34c0 0C1B0000 		.4byte	.LASF887
 10559 34c4 26       		.byte	0x26
 10560 34c5 ED       		.byte	0xed
 10561 34c6 14010000 		.4byte	0x114
 10562 34ca 10       		.byte	0x10
 10563 34cb 00       		.byte	0
 10564 34cc 03       		.uleb128 0x3
 10565 34cd A81C0000 		.4byte	.LASF888
 10566 34d1 26       		.byte	0x26
 10567 34d2 EE       		.byte	0xee
 10568 34d3 87340000 		.4byte	0x3487
 10569 34d7 17       		.uleb128 0x17
 10570 34d8 04       		.byte	0x4
 10571 34d9 26       		.byte	0x26
 10572 34da 0101     		.2byte	0x101
 10573 34dc EE340000 		.4byte	0x34ee
 10574 34e0 0A       		.uleb128 0xa
 10575 34e1 BC110000 		.4byte	.LASF889
 10576 34e5 26       		.byte	0x26
 10577 34e6 0501     		.2byte	0x105
 10578 34e8 3A0E0000 		.4byte	0xe3a
 10579 34ec 00       		.byte	0
 10580 34ed 00       		.byte	0
 10581 34ee 17       		.uleb128 0x17
 10582 34ef 04       		.byte	0x4
 10583 34f0 26       		.byte	0x26
 10584 34f1 0701     		.2byte	0x107
 10585 34f3 05350000 		.4byte	0x3505
 10586 34f7 0A       		.uleb128 0xa
 10587 34f8 96340000 		.4byte	.LASF651
 10588 34fc 26       		.byte	0x26
 10589 34fd 0B01     		.2byte	0x10b
 10590 34ff 05350000 		.4byte	0x3505
ARM GAS  /tmp/ccTUBOn1.s 			page 187


 10591 3503 00       		.byte	0
 10592 3504 00       		.byte	0
 10593 3505 0B       		.uleb128 0xb
 10594 3506 04       		.byte	0x4
 10595 3507 400E0000 		.4byte	0xe40
 10596 350b 25       		.uleb128 0x25
 10597 350c 04       		.byte	0x4
 10598 350d 26       		.byte	0x26
 10599 350e 0001     		.2byte	0x100
 10600 3510 2D350000 		.4byte	0x352d
 10601 3514 1D       		.uleb128 0x1d
 10602 3515 25350000 		.4byte	.LASF882
 10603 3519 26       		.byte	0x26
 10604 351a 0601     		.2byte	0x106
 10605 351c D7340000 		.4byte	0x34d7
 10606 3520 1D       		.uleb128 0x1d
 10607 3521 F5320000 		.4byte	.LASF883
 10608 3525 26       		.byte	0x26
 10609 3526 0C01     		.2byte	0x10c
 10610 3528 EE340000 		.4byte	0x34ee
 10611 352c 00       		.byte	0
 10612 352d 15       		.uleb128 0x15
 10613 352e 14       		.byte	0x14
 10614 352f 26       		.byte	0x26
 10615 3530 F3       		.byte	0xf3
 10616 3531 74350000 		.4byte	0x3574
 10617 3535 08       		.uleb128 0x8
 10618 3536 EA080000 		.4byte	.LASF890
 10619 353a 26       		.byte	0x26
 10620 353b F7       		.byte	0xf7
 10621 353c 04170000 		.4byte	0x1704
 10622 3540 00       		.byte	0
 10623 3541 08       		.uleb128 0x8
 10624 3542 B5210000 		.4byte	.LASF891
 10625 3546 26       		.byte	0x26
 10626 3547 FB       		.byte	0xfb
 10627 3548 14010000 		.4byte	0x114
 10628 354c 04       		.byte	0x4
 10629 354d 08       		.uleb128 0x8
 10630 354e A90C0000 		.4byte	.LASF892
 10631 3552 26       		.byte	0x26
 10632 3553 FF       		.byte	0xff
 10633 3554 14010000 		.4byte	0x114
 10634 3558 08       		.byte	0x8
 10635 3559 0A       		.uleb128 0xa
 10636 355a C30C0000 		.4byte	.LASF718
 10637 355e 26       		.byte	0x26
 10638 355f 0D01     		.2byte	0x10d
 10639 3561 0B350000 		.4byte	0x350b
 10640 3565 0C       		.byte	0xc
 10641 3566 0A       		.uleb128 0xa
 10642 3567 0C1B0000 		.4byte	.LASF887
 10643 356b 26       		.byte	0x26
 10644 356c 1101     		.2byte	0x111
 10645 356e 14010000 		.4byte	0x114
 10646 3572 10       		.byte	0x10
 10647 3573 00       		.byte	0
ARM GAS  /tmp/ccTUBOn1.s 			page 188


 10648 3574 18       		.uleb128 0x18
 10649 3575 3E310000 		.4byte	.LASF893
 10650 3579 26       		.byte	0x26
 10651 357a 1201     		.2byte	0x112
 10652 357c 2D350000 		.4byte	0x352d
 10653 3580 17       		.uleb128 0x17
 10654 3581 24       		.byte	0x24
 10655 3582 26       		.byte	0x26
 10656 3583 1801     		.2byte	0x118
 10657 3585 0C360000 		.4byte	0x360c
 10658 3589 0A       		.uleb128 0xa
 10659 358a 2E410000 		.4byte	.LASF894
 10660 358e 26       		.byte	0x26
 10661 358f 1C01     		.2byte	0x11c
 10662 3591 F9000000 		.4byte	0xf9
 10663 3595 00       		.byte	0
 10664 3596 0A       		.uleb128 0xa
 10665 3597 C10D0000 		.4byte	.LASF895
 10666 359b 26       		.byte	0x26
 10667 359c 2701     		.2byte	0x127
 10668 359e 3D2E0000 		.4byte	0x2e3d
 10669 35a2 04       		.byte	0x4
 10670 35a3 0A       		.uleb128 0xa
 10671 35a4 9C280000 		.4byte	.LASF896
 10672 35a8 26       		.byte	0x26
 10673 35a9 2D01     		.2byte	0x12d
 10674 35ab 3D2E0000 		.4byte	0x2e3d
 10675 35af 08       		.byte	0x8
 10676 35b0 0A       		.uleb128 0xa
 10677 35b1 D6130000 		.4byte	.LASF897
 10678 35b5 26       		.byte	0x26
 10679 35b6 3301     		.2byte	0x133
 10680 35b8 3D2E0000 		.4byte	0x2e3d
 10681 35bc 0C       		.byte	0xc
 10682 35bd 0A       		.uleb128 0xa
 10683 35be 1C410000 		.4byte	.LASF898
 10684 35c2 26       		.byte	0x26
 10685 35c3 3901     		.2byte	0x139
 10686 35c5 D9000000 		.4byte	0xd9
 10687 35c9 10       		.byte	0x10
 10688 35ca 0A       		.uleb128 0xa
 10689 35cb 091C0000 		.4byte	.LASF899
 10690 35cf 26       		.byte	0x26
 10691 35d0 3F01     		.2byte	0x13f
 10692 35d2 D9000000 		.4byte	0xd9
 10693 35d6 12       		.byte	0x12
 10694 35d7 0A       		.uleb128 0xa
 10695 35d8 563E0000 		.4byte	.LASF900
 10696 35dc 26       		.byte	0x26
 10697 35dd 4401     		.2byte	0x144
 10698 35df 0C360000 		.4byte	0x360c
 10699 35e3 14       		.byte	0x14
 10700 35e4 0A       		.uleb128 0xa
 10701 35e5 38180000 		.4byte	.LASF901
 10702 35e9 26       		.byte	0x26
 10703 35ea 4901     		.2byte	0x149
 10704 35ec 12360000 		.4byte	0x3612
ARM GAS  /tmp/ccTUBOn1.s 			page 189


 10705 35f0 18       		.byte	0x18
 10706 35f1 0A       		.uleb128 0xa
 10707 35f2 051F0000 		.4byte	.LASF902
 10708 35f6 26       		.byte	0x26
 10709 35f7 5001     		.2byte	0x150
 10710 35f9 D9000000 		.4byte	0xd9
 10711 35fd 1C       		.byte	0x1c
 10712 35fe 0A       		.uleb128 0xa
 10713 35ff 213D0000 		.4byte	.LASF903
 10714 3603 26       		.byte	0x26
 10715 3604 5601     		.2byte	0x156
 10716 3606 3A0E0000 		.4byte	0xe3a
 10717 360a 20       		.byte	0x20
 10718 360b 00       		.byte	0
 10719 360c 0B       		.uleb128 0xb
 10720 360d 04       		.byte	0x4
 10721 360e CC340000 		.4byte	0x34cc
 10722 3612 0B       		.uleb128 0xb
 10723 3613 04       		.byte	0x4
 10724 3614 74350000 		.4byte	0x3574
 10725 3618 18       		.uleb128 0x18
 10726 3619 6D340000 		.4byte	.LASF904
 10727 361d 26       		.byte	0x26
 10728 361e 5701     		.2byte	0x157
 10729 3620 80350000 		.4byte	0x3580
 10730 3624 06       		.uleb128 0x6
 10731 3625 18360000 		.4byte	0x3618
 10732 3629 17       		.uleb128 0x17
 10733 362a 10       		.byte	0x10
 10734 362b 26       		.byte	0x26
 10735 362c 5C01     		.2byte	0x15c
 10736 362e 67360000 		.4byte	0x3667
 10737 3632 0A       		.uleb128 0xa
 10738 3633 C7070000 		.4byte	.LASF905
 10739 3637 26       		.byte	0x26
 10740 3638 6101     		.2byte	0x161
 10741 363a 5F2E0000 		.4byte	0x2e5f
 10742 363e 00       		.byte	0
 10743 363f 0A       		.uleb128 0xa
 10744 3640 823B0000 		.4byte	.LASF906
 10745 3644 26       		.byte	0x26
 10746 3645 6601     		.2byte	0x166
 10747 3647 A22E0000 		.4byte	0x2ea2
 10748 364b 04       		.byte	0x4
 10749 364c 0A       		.uleb128 0xa
 10750 364d CC1F0000 		.4byte	.LASF907
 10751 3651 26       		.byte	0x26
 10752 3652 6C01     		.2byte	0x16c
 10753 3654 812E0000 		.4byte	0x2e81
 10754 3658 08       		.byte	0x8
 10755 3659 0A       		.uleb128 0xa
 10756 365a 00040000 		.4byte	.LASF908
 10757 365e 26       		.byte	0x26
 10758 365f 7001     		.2byte	0x170
 10759 3661 1A2E0000 		.4byte	0x2e1a
 10760 3665 0C       		.byte	0xc
 10761 3666 00       		.byte	0
ARM GAS  /tmp/ccTUBOn1.s 			page 190


 10762 3667 18       		.uleb128 0x18
 10763 3668 471E0000 		.4byte	.LASF909
 10764 366c 26       		.byte	0x26
 10765 366d 7201     		.2byte	0x172
 10766 366f 29360000 		.4byte	0x3629
 10767 3673 06       		.uleb128 0x6
 10768 3674 67360000 		.4byte	0x3667
 10769 3678 0B       		.uleb128 0xb
 10770 3679 04       		.byte	0x4
 10771 367a 73360000 		.4byte	0x3673
 10772 367e 11       		.uleb128 0x11
 10773 367f 8E360000 		.4byte	0x368e
 10774 3683 8E360000 		.4byte	0x368e
 10775 3687 12       		.uleb128 0x12
 10776 3688 B7000000 		.4byte	0xb7
 10777 368c 03       		.byte	0x3
 10778 368d 00       		.byte	0
 10779 368e 0B       		.uleb128 0xb
 10780 368f 04       		.byte	0x4
 10781 3690 24360000 		.4byte	0x3624
 10782 3694 11       		.uleb128 0x11
 10783 3695 9A030000 		.4byte	0x39a
 10784 3699 A4360000 		.4byte	0x36a4
 10785 369d 12       		.uleb128 0x12
 10786 369e B7000000 		.4byte	0xb7
 10787 36a2 02       		.byte	0x2
 10788 36a3 00       		.byte	0
 10789 36a4 0B       		.uleb128 0xb
 10790 36a5 04       		.byte	0x4
 10791 36a6 F0330000 		.4byte	0x33f0
 10792 36aa 0B       		.uleb128 0xb
 10793 36ab 04       		.byte	0x4
 10794 36ac 33340000 		.4byte	0x3433
 10795 36b0 11       		.uleb128 0x11
 10796 36b1 7D090000 		.4byte	0x97d
 10797 36b5 C0360000 		.4byte	0x36c0
 10798 36b9 12       		.uleb128 0x12
 10799 36ba B7000000 		.4byte	0xb7
 10800 36be 42       		.byte	0x42
 10801 36bf 00       		.byte	0
 10802 36c0 13       		.uleb128 0x13
 10803 36c1 B0010000 		.4byte	.LASF910
 10804 36c5 26       		.byte	0x26
 10805 36c6 0602     		.2byte	0x206
 10806 36c8 E62B0000 		.4byte	0x2be6
 10807 36cc 03       		.uleb128 0x3
 10808 36cd 430B0000 		.4byte	.LASF911
 10809 36d1 28       		.byte	0x28
 10810 36d2 22       		.byte	0x22
 10811 36d3 D7360000 		.4byte	0x36d7
 10812 36d7 0B       		.uleb128 0xb
 10813 36d8 04       		.byte	0x4
 10814 36d9 DD360000 		.4byte	0x36dd
 10815 36dd 2D       		.uleb128 0x2d
 10816 36de 7C080000 		.4byte	.LASF1017
 10817 36e2 03       		.uleb128 0x3
 10818 36e3 2C160000 		.4byte	.LASF912
ARM GAS  /tmp/ccTUBOn1.s 			page 191


 10819 36e7 29       		.byte	0x29
 10820 36e8 2C       		.byte	0x2c
 10821 36e9 74000000 		.4byte	0x74
 10822 36ed 03       		.uleb128 0x3
 10823 36ee 77300000 		.4byte	.LASF913
 10824 36f2 29       		.byte	0x29
 10825 36f3 72       		.byte	0x72
 10826 36f4 74000000 		.4byte	0x74
 10827 36f8 18       		.uleb128 0x18
 10828 36f9 571A0000 		.4byte	.LASF914
 10829 36fd 04       		.byte	0x4
 10830 36fe 6501     		.2byte	0x165
 10831 3700 B7000000 		.4byte	0xb7
 10832 3704 1C       		.uleb128 0x1c
 10833 3705 04       		.byte	0x4
 10834 3706 29       		.byte	0x29
 10835 3707 A6       		.byte	0xa6
 10836 3708 23370000 		.4byte	0x3723
 10837 370c 2C       		.uleb128 0x2c
 10838 370d 7B250000 		.4byte	.LASF915
 10839 3711 29       		.byte	0x29
 10840 3712 A8       		.byte	0xa8
 10841 3713 F8360000 		.4byte	0x36f8
 10842 3717 2C       		.uleb128 0x2c
 10843 3718 6E190000 		.4byte	.LASF916
 10844 371c 29       		.byte	0x29
 10845 371d A9       		.byte	0xa9
 10846 371e 23370000 		.4byte	0x3723
 10847 3722 00       		.byte	0
 10848 3723 11       		.uleb128 0x11
 10849 3724 49000000 		.4byte	0x49
 10850 3728 33370000 		.4byte	0x3733
 10851 372c 12       		.uleb128 0x12
 10852 372d B7000000 		.4byte	0xb7
 10853 3731 03       		.byte	0x3
 10854 3732 00       		.byte	0
 10855 3733 15       		.uleb128 0x15
 10856 3734 08       		.byte	0x8
 10857 3735 29       		.byte	0x29
 10858 3736 A3       		.byte	0xa3
 10859 3737 54370000 		.4byte	0x3754
 10860 373b 08       		.uleb128 0x8
 10861 373c C7160000 		.4byte	.LASF917
 10862 3740 29       		.byte	0x29
 10863 3741 A5       		.byte	0xa5
 10864 3742 A6000000 		.4byte	0xa6
 10865 3746 00       		.byte	0
 10866 3747 08       		.uleb128 0x8
 10867 3748 90250000 		.4byte	.LASF918
 10868 374c 29       		.byte	0x29
 10869 374d AA       		.byte	0xaa
 10870 374e 04370000 		.4byte	0x3704
 10871 3752 04       		.byte	0x4
 10872 3753 00       		.byte	0
 10873 3754 03       		.uleb128 0x3
 10874 3755 4B1C0000 		.4byte	.LASF919
 10875 3759 29       		.byte	0x29
ARM GAS  /tmp/ccTUBOn1.s 			page 192


 10876 375a AB       		.byte	0xab
 10877 375b 33370000 		.4byte	0x3733
 10878 375f 03       		.uleb128 0x3
 10879 3760 2E390000 		.4byte	.LASF920
 10880 3764 29       		.byte	0x29
 10881 3765 AF       		.byte	0xaf
 10882 3766 CC360000 		.4byte	0x36cc
 10883 376a 0B       		.uleb128 0xb
 10884 376b 04       		.byte	0x4
 10885 376c D80B0000 		.4byte	0xbd8
 10886 3770 03       		.uleb128 0x3
 10887 3771 F2200000 		.4byte	.LASF921
 10888 3775 2A       		.byte	0x2a
 10889 3776 16       		.byte	0x16
 10890 3777 86000000 		.4byte	0x86
 10891 377b 07       		.uleb128 0x7
 10892 377c 2A2C0000 		.4byte	.LASF922
 10893 3780 18       		.byte	0x18
 10894 3781 2A       		.byte	0x2a
 10895 3782 2F       		.byte	0x2f
 10896 3783 CE370000 		.4byte	0x37ce
 10897 3787 08       		.uleb128 0x8
 10898 3788 431D0000 		.4byte	.LASF923
 10899 378c 2A       		.byte	0x2a
 10900 378d 31       		.byte	0x31
 10901 378e CE370000 		.4byte	0x37ce
 10902 3792 00       		.byte	0
 10903 3793 16       		.uleb128 0x16
 10904 3794 5F6B00   		.ascii	"_k\000"
 10905 3797 2A       		.byte	0x2a
 10906 3798 32       		.byte	0x32
 10907 3799 A6000000 		.4byte	0xa6
 10908 379d 04       		.byte	0x4
 10909 379e 08       		.uleb128 0x8
 10910 379f 37290000 		.4byte	.LASF924
 10911 37a3 2A       		.byte	0x2a
 10912 37a4 32       		.byte	0x32
 10913 37a5 A6000000 		.4byte	0xa6
 10914 37a9 08       		.byte	0x8
 10915 37aa 08       		.uleb128 0x8
 10916 37ab 67290000 		.4byte	.LASF925
 10917 37af 2A       		.byte	0x2a
 10918 37b0 32       		.byte	0x32
 10919 37b1 A6000000 		.4byte	0xa6
 10920 37b5 0C       		.byte	0xc
 10921 37b6 08       		.uleb128 0x8
 10922 37b7 5F0E0000 		.4byte	.LASF926
 10923 37bb 2A       		.byte	0x2a
 10924 37bc 32       		.byte	0x32
 10925 37bd A6000000 		.4byte	0xa6
 10926 37c1 10       		.byte	0x10
 10927 37c2 16       		.uleb128 0x16
 10928 37c3 5F7800   		.ascii	"_x\000"
 10929 37c6 2A       		.byte	0x2a
 10930 37c7 33       		.byte	0x33
 10931 37c8 D4370000 		.4byte	0x37d4
 10932 37cc 14       		.byte	0x14
ARM GAS  /tmp/ccTUBOn1.s 			page 193


 10933 37cd 00       		.byte	0
 10934 37ce 0B       		.uleb128 0xb
 10935 37cf 04       		.byte	0x4
 10936 37d0 7B370000 		.4byte	0x377b
 10937 37d4 11       		.uleb128 0x11
 10938 37d5 70370000 		.4byte	0x3770
 10939 37d9 E4370000 		.4byte	0x37e4
 10940 37dd 12       		.uleb128 0x12
 10941 37de B7000000 		.4byte	0xb7
 10942 37e2 00       		.byte	0
 10943 37e3 00       		.byte	0
 10944 37e4 07       		.uleb128 0x7
 10945 37e5 422D0000 		.4byte	.LASF927
 10946 37e9 24       		.byte	0x24
 10947 37ea 2A       		.byte	0x2a
 10948 37eb 37       		.byte	0x37
 10949 37ec 5D380000 		.4byte	0x385d
 10950 37f0 08       		.uleb128 0x8
 10951 37f1 AD130000 		.4byte	.LASF928
 10952 37f5 2A       		.byte	0x2a
 10953 37f6 39       		.byte	0x39
 10954 37f7 A6000000 		.4byte	0xa6
 10955 37fb 00       		.byte	0
 10956 37fc 08       		.uleb128 0x8
 10957 37fd FB100000 		.4byte	.LASF929
 10958 3801 2A       		.byte	0x2a
 10959 3802 3A       		.byte	0x3a
 10960 3803 A6000000 		.4byte	0xa6
 10961 3807 04       		.byte	0x4
 10962 3808 08       		.uleb128 0x8
 10963 3809 97190000 		.4byte	.LASF930
 10964 380d 2A       		.byte	0x2a
 10965 380e 3B       		.byte	0x3b
 10966 380f A6000000 		.4byte	0xa6
 10967 3813 08       		.byte	0x8
 10968 3814 08       		.uleb128 0x8
 10969 3815 DB1B0000 		.4byte	.LASF931
 10970 3819 2A       		.byte	0x2a
 10971 381a 3C       		.byte	0x3c
 10972 381b A6000000 		.4byte	0xa6
 10973 381f 0C       		.byte	0xc
 10974 3820 08       		.uleb128 0x8
 10975 3821 EF020000 		.4byte	.LASF932
 10976 3825 2A       		.byte	0x2a
 10977 3826 3D       		.byte	0x3d
 10978 3827 A6000000 		.4byte	0xa6
 10979 382b 10       		.byte	0x10
 10980 382c 08       		.uleb128 0x8
 10981 382d 3B110000 		.4byte	.LASF933
 10982 3831 2A       		.byte	0x2a
 10983 3832 3E       		.byte	0x3e
 10984 3833 A6000000 		.4byte	0xa6
 10985 3837 14       		.byte	0x14
 10986 3838 08       		.uleb128 0x8
 10987 3839 450D0000 		.4byte	.LASF934
 10988 383d 2A       		.byte	0x2a
 10989 383e 3F       		.byte	0x3f
ARM GAS  /tmp/ccTUBOn1.s 			page 194


 10990 383f A6000000 		.4byte	0xa6
 10991 3843 18       		.byte	0x18
 10992 3844 08       		.uleb128 0x8
 10993 3845 E10A0000 		.4byte	.LASF935
 10994 3849 2A       		.byte	0x2a
 10995 384a 40       		.byte	0x40
 10996 384b A6000000 		.4byte	0xa6
 10997 384f 1C       		.byte	0x1c
 10998 3850 08       		.uleb128 0x8
 10999 3851 5E0D0000 		.4byte	.LASF936
 11000 3855 2A       		.byte	0x2a
 11001 3856 41       		.byte	0x41
 11002 3857 A6000000 		.4byte	0xa6
 11003 385b 20       		.byte	0x20
 11004 385c 00       		.byte	0
 11005 385d 28       		.uleb128 0x28
 11006 385e 371F0000 		.4byte	.LASF937
 11007 3862 0801     		.2byte	0x108
 11008 3864 2A       		.byte	0x2a
 11009 3865 4A       		.byte	0x4a
 11010 3866 9D380000 		.4byte	0x389d
 11011 386a 08       		.uleb128 0x8
 11012 386b 431C0000 		.4byte	.LASF938
 11013 386f 2A       		.byte	0x2a
 11014 3870 4B       		.byte	0x4b
 11015 3871 9D380000 		.4byte	0x389d
 11016 3875 00       		.byte	0
 11017 3876 08       		.uleb128 0x8
 11018 3877 BB050000 		.4byte	.LASF939
 11019 387b 2A       		.byte	0x2a
 11020 387c 4C       		.byte	0x4c
 11021 387d 9D380000 		.4byte	0x389d
 11022 3881 80       		.byte	0x80
 11023 3882 23       		.uleb128 0x23
 11024 3883 09030000 		.4byte	.LASF940
 11025 3887 2A       		.byte	0x2a
 11026 3888 4E       		.byte	0x4e
 11027 3889 70370000 		.4byte	0x3770
 11028 388d 0001     		.2byte	0x100
 11029 388f 23       		.uleb128 0x23
 11030 3890 94320000 		.4byte	.LASF941
 11031 3894 2A       		.byte	0x2a
 11032 3895 51       		.byte	0x51
 11033 3896 70370000 		.4byte	0x3770
 11034 389a 0401     		.2byte	0x104
 11035 389c 00       		.byte	0
 11036 389d 11       		.uleb128 0x11
 11037 389e 9A030000 		.4byte	0x39a
 11038 38a2 AD380000 		.4byte	0x38ad
 11039 38a6 12       		.uleb128 0x12
 11040 38a7 B7000000 		.4byte	0xb7
 11041 38ab 1F       		.byte	0x1f
 11042 38ac 00       		.byte	0
 11043 38ad 28       		.uleb128 0x28
 11044 38ae 3D020000 		.4byte	.LASF942
 11045 38b2 9001     		.2byte	0x190
 11046 38b4 2A       		.byte	0x2a
ARM GAS  /tmp/ccTUBOn1.s 			page 195


 11047 38b5 5D       		.byte	0x5d
 11048 38b6 EB380000 		.4byte	0x38eb
 11049 38ba 08       		.uleb128 0x8
 11050 38bb 431D0000 		.4byte	.LASF923
 11051 38bf 2A       		.byte	0x2a
 11052 38c0 5E       		.byte	0x5e
 11053 38c1 EB380000 		.4byte	0x38eb
 11054 38c5 00       		.byte	0
 11055 38c6 08       		.uleb128 0x8
 11056 38c7 58030000 		.4byte	.LASF943
 11057 38cb 2A       		.byte	0x2a
 11058 38cc 5F       		.byte	0x5f
 11059 38cd A6000000 		.4byte	0xa6
 11060 38d1 04       		.byte	0x4
 11061 38d2 08       		.uleb128 0x8
 11062 38d3 0F310000 		.4byte	.LASF944
 11063 38d7 2A       		.byte	0x2a
 11064 38d8 61       		.byte	0x61
 11065 38d9 F1380000 		.4byte	0x38f1
 11066 38dd 08       		.byte	0x8
 11067 38de 08       		.uleb128 0x8
 11068 38df 371F0000 		.4byte	.LASF937
 11069 38e3 2A       		.byte	0x2a
 11070 38e4 62       		.byte	0x62
 11071 38e5 5D380000 		.4byte	0x385d
 11072 38e9 88       		.byte	0x88
 11073 38ea 00       		.byte	0
 11074 38eb 0B       		.uleb128 0xb
 11075 38ec 04       		.byte	0x4
 11076 38ed AD380000 		.4byte	0x38ad
 11077 38f1 11       		.uleb128 0x11
 11078 38f2 01390000 		.4byte	0x3901
 11079 38f6 01390000 		.4byte	0x3901
 11080 38fa 12       		.uleb128 0x12
 11081 38fb B7000000 		.4byte	0xb7
 11082 38ff 1F       		.byte	0x1f
 11083 3900 00       		.byte	0
 11084 3901 0B       		.uleb128 0xb
 11085 3902 04       		.byte	0x4
 11086 3903 07390000 		.4byte	0x3907
 11087 3907 2E       		.uleb128 0x2e
 11088 3908 07       		.uleb128 0x7
 11089 3909 DA240000 		.4byte	.LASF945
 11090 390d 08       		.byte	0x8
 11091 390e 2A       		.byte	0x2a
 11092 390f 75       		.byte	0x75
 11093 3910 2D390000 		.4byte	0x392d
 11094 3914 08       		.uleb128 0x8
 11095 3915 841F0000 		.4byte	.LASF946
 11096 3919 2A       		.byte	0x2a
 11097 391a 76       		.byte	0x76
 11098 391b 2D390000 		.4byte	0x392d
 11099 391f 00       		.byte	0
 11100 3920 08       		.uleb128 0x8
 11101 3921 D60F0000 		.4byte	.LASF947
 11102 3925 2A       		.byte	0x2a
 11103 3926 77       		.byte	0x77
ARM GAS  /tmp/ccTUBOn1.s 			page 196


 11104 3927 A6000000 		.4byte	0xa6
 11105 392b 04       		.byte	0x4
 11106 392c 00       		.byte	0
 11107 392d 0B       		.uleb128 0xb
 11108 392e 04       		.byte	0x4
 11109 392f 49000000 		.4byte	0x49
 11110 3933 07       		.uleb128 0x7
 11111 3934 EC300000 		.4byte	.LASF948
 11112 3938 68       		.byte	0x68
 11113 3939 2A       		.byte	0x2a
 11114 393a B5       		.byte	0xb5
 11115 393b 5D3A0000 		.4byte	0x3a5d
 11116 393f 16       		.uleb128 0x16
 11117 3940 5F7000   		.ascii	"_p\000"
 11118 3943 2A       		.byte	0x2a
 11119 3944 B6       		.byte	0xb6
 11120 3945 2D390000 		.4byte	0x392d
 11121 3949 00       		.byte	0
 11122 394a 16       		.uleb128 0x16
 11123 394b 5F7200   		.ascii	"_r\000"
 11124 394e 2A       		.byte	0x2a
 11125 394f B7       		.byte	0xb7
 11126 3950 A6000000 		.4byte	0xa6
 11127 3954 04       		.byte	0x4
 11128 3955 16       		.uleb128 0x16
 11129 3956 5F7700   		.ascii	"_w\000"
 11130 3959 2A       		.byte	0x2a
 11131 395a B8       		.byte	0xb8
 11132 395b A6000000 		.4byte	0xa6
 11133 395f 08       		.byte	0x8
 11134 3960 08       		.uleb128 0x8
 11135 3961 1C040000 		.4byte	.LASF949
 11136 3965 2A       		.byte	0x2a
 11137 3966 B9       		.byte	0xb9
 11138 3967 50000000 		.4byte	0x50
 11139 396b 0C       		.byte	0xc
 11140 396c 08       		.uleb128 0x8
 11141 396d 2B360000 		.4byte	.LASF950
 11142 3971 2A       		.byte	0x2a
 11143 3972 BA       		.byte	0xba
 11144 3973 50000000 		.4byte	0x50
 11145 3977 0E       		.byte	0xe
 11146 3978 16       		.uleb128 0x16
 11147 3979 5F626600 		.ascii	"_bf\000"
 11148 397d 2A       		.byte	0x2a
 11149 397e BB       		.byte	0xbb
 11150 397f 08390000 		.4byte	0x3908
 11151 3983 10       		.byte	0x10
 11152 3984 08       		.uleb128 0x8
 11153 3985 72070000 		.4byte	.LASF951
 11154 3989 2A       		.byte	0x2a
 11155 398a BC       		.byte	0xbc
 11156 398b A6000000 		.4byte	0xa6
 11157 398f 18       		.byte	0x18
 11158 3990 08       		.uleb128 0x8
 11159 3991 921D0000 		.4byte	.LASF952
 11160 3995 2A       		.byte	0x2a
ARM GAS  /tmp/ccTUBOn1.s 			page 197


 11161 3996 C3       		.byte	0xc3
 11162 3997 9A030000 		.4byte	0x39a
 11163 399b 1C       		.byte	0x1c
 11164 399c 08       		.uleb128 0x8
 11165 399d A82A0000 		.4byte	.LASF953
 11166 39a1 2A       		.byte	0x2a
 11167 39a2 C5       		.byte	0xc5
 11168 39a3 B83B0000 		.4byte	0x3bb8
 11169 39a7 20       		.byte	0x20
 11170 39a8 08       		.uleb128 0x8
 11171 39a9 E6110000 		.4byte	.LASF954
 11172 39ad 2A       		.byte	0x2a
 11173 39ae C7       		.byte	0xc7
 11174 39af DC3B0000 		.4byte	0x3bdc
 11175 39b3 24       		.byte	0x24
 11176 39b4 08       		.uleb128 0x8
 11177 39b5 B3220000 		.4byte	.LASF955
 11178 39b9 2A       		.byte	0x2a
 11179 39ba CA       		.byte	0xca
 11180 39bb 003C0000 		.4byte	0x3c00
 11181 39bf 28       		.byte	0x28
 11182 39c0 08       		.uleb128 0x8
 11183 39c1 242B0000 		.4byte	.LASF956
 11184 39c5 2A       		.byte	0x2a
 11185 39c6 CB       		.byte	0xcb
 11186 39c7 1A3C0000 		.4byte	0x3c1a
 11187 39cb 2C       		.byte	0x2c
 11188 39cc 16       		.uleb128 0x16
 11189 39cd 5F756200 		.ascii	"_ub\000"
 11190 39d1 2A       		.byte	0x2a
 11191 39d2 CE       		.byte	0xce
 11192 39d3 08390000 		.4byte	0x3908
 11193 39d7 30       		.byte	0x30
 11194 39d8 16       		.uleb128 0x16
 11195 39d9 5F757000 		.ascii	"_up\000"
 11196 39dd 2A       		.byte	0x2a
 11197 39de CF       		.byte	0xcf
 11198 39df 2D390000 		.4byte	0x392d
 11199 39e3 38       		.byte	0x38
 11200 39e4 16       		.uleb128 0x16
 11201 39e5 5F757200 		.ascii	"_ur\000"
 11202 39e9 2A       		.byte	0x2a
 11203 39ea D0       		.byte	0xd0
 11204 39eb A6000000 		.4byte	0xa6
 11205 39ef 3C       		.byte	0x3c
 11206 39f0 08       		.uleb128 0x8
 11207 39f1 7A2F0000 		.4byte	.LASF957
 11208 39f5 2A       		.byte	0x2a
 11209 39f6 D3       		.byte	0xd3
 11210 39f7 DE1C0000 		.4byte	0x1cde
 11211 39fb 40       		.byte	0x40
 11212 39fc 08       		.uleb128 0x8
 11213 39fd 7F020000 		.4byte	.LASF958
 11214 3a01 2A       		.byte	0x2a
 11215 3a02 D4       		.byte	0xd4
 11216 3a03 203C0000 		.4byte	0x3c20
 11217 3a07 43       		.byte	0x43
ARM GAS  /tmp/ccTUBOn1.s 			page 198


 11218 3a08 16       		.uleb128 0x16
 11219 3a09 5F6C6200 		.ascii	"_lb\000"
 11220 3a0d 2A       		.byte	0x2a
 11221 3a0e D7       		.byte	0xd7
 11222 3a0f 08390000 		.4byte	0x3908
 11223 3a13 44       		.byte	0x44
 11224 3a14 08       		.uleb128 0x8
 11225 3a15 6C110000 		.4byte	.LASF959
 11226 3a19 2A       		.byte	0x2a
 11227 3a1a DA       		.byte	0xda
 11228 3a1b A6000000 		.4byte	0xa6
 11229 3a1f 4C       		.byte	0x4c
 11230 3a20 08       		.uleb128 0x8
 11231 3a21 A4240000 		.4byte	.LASF960
 11232 3a25 2A       		.byte	0x2a
 11233 3a26 DB       		.byte	0xdb
 11234 3a27 E2360000 		.4byte	0x36e2
 11235 3a2b 50       		.byte	0x50
 11236 3a2c 08       		.uleb128 0x8
 11237 3a2d 27210000 		.4byte	.LASF961
 11238 3a31 2A       		.byte	0x2a
 11239 3a32 DE       		.byte	0xde
 11240 3a33 7B3A0000 		.4byte	0x3a7b
 11241 3a37 54       		.byte	0x54
 11242 3a38 08       		.uleb128 0x8
 11243 3a39 E5040000 		.4byte	.LASF962
 11244 3a3d 2A       		.byte	0x2a
 11245 3a3e E2       		.byte	0xe2
 11246 3a3f 5F370000 		.4byte	0x375f
 11247 3a43 58       		.byte	0x58
 11248 3a44 08       		.uleb128 0x8
 11249 3a45 34020000 		.4byte	.LASF963
 11250 3a49 2A       		.byte	0x2a
 11251 3a4a E4       		.byte	0xe4
 11252 3a4b 54370000 		.4byte	0x3754
 11253 3a4f 5C       		.byte	0x5c
 11254 3a50 08       		.uleb128 0x8
 11255 3a51 133B0000 		.4byte	.LASF964
 11256 3a55 2A       		.byte	0x2a
 11257 3a56 E5       		.byte	0xe5
 11258 3a57 A6000000 		.4byte	0xa6
 11259 3a5b 64       		.byte	0x64
 11260 3a5c 00       		.byte	0
 11261 3a5d 1F       		.uleb128 0x1f
 11262 3a5e A6000000 		.4byte	0xa6
 11263 3a62 7B3A0000 		.4byte	0x3a7b
 11264 3a66 0E       		.uleb128 0xe
 11265 3a67 7B3A0000 		.4byte	0x3a7b
 11266 3a6b 0E       		.uleb128 0xe
 11267 3a6c 9A030000 		.4byte	0x39a
 11268 3a70 0E       		.uleb128 0xe
 11269 3a71 6A370000 		.4byte	0x376a
 11270 3a75 0E       		.uleb128 0xe
 11271 3a76 A6000000 		.4byte	0xa6
 11272 3a7a 00       		.byte	0
 11273 3a7b 0B       		.uleb128 0xb
 11274 3a7c 04       		.byte	0x4
ARM GAS  /tmp/ccTUBOn1.s 			page 199


 11275 3a7d 863A0000 		.4byte	0x3a86
 11276 3a81 06       		.uleb128 0x6
 11277 3a82 7B3A0000 		.4byte	0x3a7b
 11278 3a86 10       		.uleb128 0x10
 11279 3a87 3B250000 		.4byte	.LASF965
 11280 3a8b 2804     		.2byte	0x428
 11281 3a8d 2A       		.byte	0x2a
 11282 3a8e 6002     		.2byte	0x260
 11283 3a90 B83B0000 		.4byte	0x3bb8
 11284 3a94 0A       		.uleb128 0xa
 11285 3a95 7C1B0000 		.4byte	.LASF966
 11286 3a99 2A       		.byte	0x2a
 11287 3a9a 6202     		.2byte	0x262
 11288 3a9c A6000000 		.4byte	0xa6
 11289 3aa0 00       		.byte	0
 11290 3aa1 0A       		.uleb128 0xa
 11291 3aa2 F6130000 		.4byte	.LASF967
 11292 3aa6 2A       		.byte	0x2a
 11293 3aa7 6702     		.2byte	0x267
 11294 3aa9 773C0000 		.4byte	0x3c77
 11295 3aad 04       		.byte	0x4
 11296 3aae 0A       		.uleb128 0xa
 11297 3aaf D80D0000 		.4byte	.LASF968
 11298 3ab3 2A       		.byte	0x2a
 11299 3ab4 6702     		.2byte	0x267
 11300 3ab6 773C0000 		.4byte	0x3c77
 11301 3aba 08       		.byte	0x8
 11302 3abb 0A       		.uleb128 0xa
 11303 3abc C80C0000 		.4byte	.LASF969
 11304 3ac0 2A       		.byte	0x2a
 11305 3ac1 6702     		.2byte	0x267
 11306 3ac3 773C0000 		.4byte	0x3c77
 11307 3ac7 0C       		.byte	0xc
 11308 3ac8 0A       		.uleb128 0xa
 11309 3ac9 53030000 		.4byte	.LASF970
 11310 3acd 2A       		.byte	0x2a
 11311 3ace 6902     		.2byte	0x269
 11312 3ad0 A6000000 		.4byte	0xa6
 11313 3ad4 10       		.byte	0x10
 11314 3ad5 0A       		.uleb128 0xa
 11315 3ad6 4D180000 		.4byte	.LASF971
 11316 3ada 2A       		.byte	0x2a
 11317 3adb 6A02     		.2byte	0x26a
 11318 3add 593E0000 		.4byte	0x3e59
 11319 3ae1 14       		.byte	0x14
 11320 3ae2 0A       		.uleb128 0xa
 11321 3ae3 01380000 		.4byte	.LASF972
 11322 3ae7 2A       		.byte	0x2a
 11323 3ae8 6D02     		.2byte	0x26d
 11324 3aea A6000000 		.4byte	0xa6
 11325 3aee 30       		.byte	0x30
 11326 3aef 0A       		.uleb128 0xa
 11327 3af0 A93B0000 		.4byte	.LASF973
 11328 3af4 2A       		.byte	0x2a
 11329 3af5 6E02     		.2byte	0x26e
 11330 3af7 6E3E0000 		.4byte	0x3e6e
 11331 3afb 34       		.byte	0x34
ARM GAS  /tmp/ccTUBOn1.s 			page 200


 11332 3afc 0A       		.uleb128 0xa
 11333 3afd 97380000 		.4byte	.LASF974
 11334 3b01 2A       		.byte	0x2a
 11335 3b02 7002     		.2byte	0x270
 11336 3b04 A6000000 		.4byte	0xa6
 11337 3b08 38       		.byte	0x38
 11338 3b09 0A       		.uleb128 0xa
 11339 3b0a 4D1F0000 		.4byte	.LASF975
 11340 3b0e 2A       		.byte	0x2a
 11341 3b0f 7202     		.2byte	0x272
 11342 3b11 7F3E0000 		.4byte	0x3e7f
 11343 3b15 3C       		.byte	0x3c
 11344 3b16 0A       		.uleb128 0xa
 11345 3b17 D00C0000 		.4byte	.LASF976
 11346 3b1b 2A       		.byte	0x2a
 11347 3b1c 7502     		.2byte	0x275
 11348 3b1e CE370000 		.4byte	0x37ce
 11349 3b22 40       		.byte	0x40
 11350 3b23 0A       		.uleb128 0xa
 11351 3b24 B90C0000 		.4byte	.LASF977
 11352 3b28 2A       		.byte	0x2a
 11353 3b29 7602     		.2byte	0x276
 11354 3b2b A6000000 		.4byte	0xa6
 11355 3b2f 44       		.byte	0x44
 11356 3b30 0A       		.uleb128 0xa
 11357 3b31 7A330000 		.4byte	.LASF978
 11358 3b35 2A       		.byte	0x2a
 11359 3b36 7702     		.2byte	0x277
 11360 3b38 CE370000 		.4byte	0x37ce
 11361 3b3c 48       		.byte	0x48
 11362 3b3d 0A       		.uleb128 0xa
 11363 3b3e FB230000 		.4byte	.LASF979
 11364 3b42 2A       		.byte	0x2a
 11365 3b43 7802     		.2byte	0x278
 11366 3b45 853E0000 		.4byte	0x3e85
 11367 3b49 4C       		.byte	0x4c
 11368 3b4a 0A       		.uleb128 0xa
 11369 3b4b 67040000 		.4byte	.LASF980
 11370 3b4f 2A       		.byte	0x2a
 11371 3b50 7B02     		.2byte	0x27b
 11372 3b52 A6000000 		.4byte	0xa6
 11373 3b56 50       		.byte	0x50
 11374 3b57 0A       		.uleb128 0xa
 11375 3b58 30180000 		.4byte	.LASF981
 11376 3b5c 2A       		.byte	0x2a
 11377 3b5d 7C02     		.2byte	0x27c
 11378 3b5f 6A370000 		.4byte	0x376a
 11379 3b63 54       		.byte	0x54
 11380 3b64 0A       		.uleb128 0xa
 11381 3b65 D0070000 		.4byte	.LASF982
 11382 3b69 2A       		.byte	0x2a
 11383 3b6a 9F02     		.2byte	0x29f
 11384 3b6c 373E0000 		.4byte	0x3e37
 11385 3b70 58       		.byte	0x58
 11386 3b71 1A       		.uleb128 0x1a
 11387 3b72 3D020000 		.4byte	.LASF942
 11388 3b76 2A       		.byte	0x2a
ARM GAS  /tmp/ccTUBOn1.s 			page 201


 11389 3b77 A302     		.2byte	0x2a3
 11390 3b79 EB380000 		.4byte	0x38eb
 11391 3b7d 4801     		.2byte	0x148
 11392 3b7f 1A       		.uleb128 0x1a
 11393 3b80 BD2C0000 		.4byte	.LASF983
 11394 3b84 2A       		.byte	0x2a
 11395 3b85 A402     		.2byte	0x2a4
 11396 3b87 AD380000 		.4byte	0x38ad
 11397 3b8b 4C01     		.2byte	0x14c
 11398 3b8d 1A       		.uleb128 0x1a
 11399 3b8e 8E040000 		.4byte	.LASF984
 11400 3b92 2A       		.byte	0x2a
 11401 3b93 A802     		.2byte	0x2a8
 11402 3b95 963E0000 		.4byte	0x3e96
 11403 3b99 DC02     		.2byte	0x2dc
 11404 3b9b 1A       		.uleb128 0x1a
 11405 3b9c B62F0000 		.4byte	.LASF985
 11406 3ba0 2A       		.byte	0x2a
 11407 3ba1 AD02     		.2byte	0x2ad
 11408 3ba3 3C3C0000 		.4byte	0x3c3c
 11409 3ba7 E002     		.2byte	0x2e0
 11410 3ba9 1A       		.uleb128 0x1a
 11411 3baa 2A090000 		.4byte	.LASF986
 11412 3bae 2A       		.byte	0x2a
 11413 3baf AF02     		.2byte	0x2af
 11414 3bb1 A23E0000 		.4byte	0x3ea2
 11415 3bb5 EC02     		.2byte	0x2ec
 11416 3bb7 00       		.byte	0
 11417 3bb8 0B       		.uleb128 0xb
 11418 3bb9 04       		.byte	0x4
 11419 3bba 5D3A0000 		.4byte	0x3a5d
 11420 3bbe 1F       		.uleb128 0x1f
 11421 3bbf A6000000 		.4byte	0xa6
 11422 3bc3 DC3B0000 		.4byte	0x3bdc
 11423 3bc7 0E       		.uleb128 0xe
 11424 3bc8 7B3A0000 		.4byte	0x3a7b
 11425 3bcc 0E       		.uleb128 0xe
 11426 3bcd 9A030000 		.4byte	0x39a
 11427 3bd1 0E       		.uleb128 0xe
 11428 3bd2 CD0B0000 		.4byte	0xbcd
 11429 3bd6 0E       		.uleb128 0xe
 11430 3bd7 A6000000 		.4byte	0xa6
 11431 3bdb 00       		.byte	0
 11432 3bdc 0B       		.uleb128 0xb
 11433 3bdd 04       		.byte	0x4
 11434 3bde BE3B0000 		.4byte	0x3bbe
 11435 3be2 1F       		.uleb128 0x1f
 11436 3be3 ED360000 		.4byte	0x36ed
 11437 3be7 003C0000 		.4byte	0x3c00
 11438 3beb 0E       		.uleb128 0xe
 11439 3bec 7B3A0000 		.4byte	0x3a7b
 11440 3bf0 0E       		.uleb128 0xe
 11441 3bf1 9A030000 		.4byte	0x39a
 11442 3bf5 0E       		.uleb128 0xe
 11443 3bf6 ED360000 		.4byte	0x36ed
 11444 3bfa 0E       		.uleb128 0xe
 11445 3bfb A6000000 		.4byte	0xa6
ARM GAS  /tmp/ccTUBOn1.s 			page 202


 11446 3bff 00       		.byte	0
 11447 3c00 0B       		.uleb128 0xb
 11448 3c01 04       		.byte	0x4
 11449 3c02 E23B0000 		.4byte	0x3be2
 11450 3c06 1F       		.uleb128 0x1f
 11451 3c07 A6000000 		.4byte	0xa6
 11452 3c0b 1A3C0000 		.4byte	0x3c1a
 11453 3c0f 0E       		.uleb128 0xe
 11454 3c10 7B3A0000 		.4byte	0x3a7b
 11455 3c14 0E       		.uleb128 0xe
 11456 3c15 9A030000 		.4byte	0x39a
 11457 3c19 00       		.byte	0
 11458 3c1a 0B       		.uleb128 0xb
 11459 3c1b 04       		.byte	0x4
 11460 3c1c 063C0000 		.4byte	0x3c06
 11461 3c20 11       		.uleb128 0x11
 11462 3c21 49000000 		.4byte	0x49
 11463 3c25 303C0000 		.4byte	0x3c30
 11464 3c29 12       		.uleb128 0x12
 11465 3c2a B7000000 		.4byte	0xb7
 11466 3c2e 00       		.byte	0
 11467 3c2f 00       		.byte	0
 11468 3c30 18       		.uleb128 0x18
 11469 3c31 E63D0000 		.4byte	.LASF987
 11470 3c35 2A       		.byte	0x2a
 11471 3c36 1F01     		.2byte	0x11f
 11472 3c38 33390000 		.4byte	0x3933
 11473 3c3c 0C       		.uleb128 0xc
 11474 3c3d 7C2B0000 		.4byte	.LASF988
 11475 3c41 0C       		.byte	0xc
 11476 3c42 2A       		.byte	0x2a
 11477 3c43 2301     		.2byte	0x123
 11478 3c45 713C0000 		.4byte	0x3c71
 11479 3c49 0A       		.uleb128 0xa
 11480 3c4a 431D0000 		.4byte	.LASF923
 11481 3c4e 2A       		.byte	0x2a
 11482 3c4f 2501     		.2byte	0x125
 11483 3c51 713C0000 		.4byte	0x3c71
 11484 3c55 00       		.byte	0
 11485 3c56 0A       		.uleb128 0xa
 11486 3c57 06250000 		.4byte	.LASF989
 11487 3c5b 2A       		.byte	0x2a
 11488 3c5c 2601     		.2byte	0x126
 11489 3c5e A6000000 		.4byte	0xa6
 11490 3c62 04       		.byte	0x4
 11491 3c63 0A       		.uleb128 0xa
 11492 3c64 DD270000 		.4byte	.LASF990
 11493 3c68 2A       		.byte	0x2a
 11494 3c69 2701     		.2byte	0x127
 11495 3c6b 773C0000 		.4byte	0x3c77
 11496 3c6f 08       		.byte	0x8
 11497 3c70 00       		.byte	0
 11498 3c71 0B       		.uleb128 0xb
 11499 3c72 04       		.byte	0x4
 11500 3c73 3C3C0000 		.4byte	0x3c3c
 11501 3c77 0B       		.uleb128 0xb
 11502 3c78 04       		.byte	0x4
ARM GAS  /tmp/ccTUBOn1.s 			page 203


 11503 3c79 303C0000 		.4byte	0x3c30
 11504 3c7d 0C       		.uleb128 0xc
 11505 3c7e 9C400000 		.4byte	.LASF991
 11506 3c82 0E       		.byte	0xe
 11507 3c83 2A       		.byte	0x2a
 11508 3c84 3F01     		.2byte	0x13f
 11509 3c86 B23C0000 		.4byte	0x3cb2
 11510 3c8a 0A       		.uleb128 0xa
 11511 3c8b 96220000 		.4byte	.LASF992
 11512 3c8f 2A       		.byte	0x2a
 11513 3c90 4001     		.2byte	0x140
 11514 3c92 B23C0000 		.4byte	0x3cb2
 11515 3c96 00       		.byte	0
 11516 3c97 0A       		.uleb128 0xa
 11517 3c98 EE3F0000 		.4byte	.LASF993
 11518 3c9c 2A       		.byte	0x2a
 11519 3c9d 4101     		.2byte	0x141
 11520 3c9f B23C0000 		.4byte	0x3cb2
 11521 3ca3 06       		.byte	0x6
 11522 3ca4 0A       		.uleb128 0xa
 11523 3ca5 0D250000 		.4byte	.LASF994
 11524 3ca9 2A       		.byte	0x2a
 11525 3caa 4201     		.2byte	0x142
 11526 3cac 62000000 		.4byte	0x62
 11527 3cb0 0C       		.byte	0xc
 11528 3cb1 00       		.byte	0
 11529 3cb2 11       		.uleb128 0x11
 11530 3cb3 62000000 		.4byte	0x62
 11531 3cb7 C23C0000 		.4byte	0x3cc2
 11532 3cbb 12       		.uleb128 0x12
 11533 3cbc B7000000 		.4byte	0xb7
 11534 3cc0 02       		.byte	0x2
 11535 3cc1 00       		.byte	0
 11536 3cc2 17       		.uleb128 0x17
 11537 3cc3 D0       		.byte	0xd0
 11538 3cc4 2A       		.byte	0x2a
 11539 3cc5 8002     		.2byte	0x280
 11540 3cc7 C33D0000 		.4byte	0x3dc3
 11541 3ccb 0A       		.uleb128 0xa
 11542 3ccc 070C0000 		.4byte	.LASF995
 11543 3cd0 2A       		.byte	0x2a
 11544 3cd1 8202     		.2byte	0x282
 11545 3cd3 B7000000 		.4byte	0xb7
 11546 3cd7 00       		.byte	0
 11547 3cd8 0A       		.uleb128 0xa
 11548 3cd9 BF0F0000 		.4byte	.LASF996
 11549 3cdd 2A       		.byte	0x2a
 11550 3cde 8302     		.2byte	0x283
 11551 3ce0 6A370000 		.4byte	0x376a
 11552 3ce4 04       		.byte	0x4
 11553 3ce5 0A       		.uleb128 0xa
 11554 3ce6 6E250000 		.4byte	.LASF997
 11555 3cea 2A       		.byte	0x2a
 11556 3ceb 8402     		.2byte	0x284
 11557 3ced C33D0000 		.4byte	0x3dc3
 11558 3cf1 08       		.byte	0x8
 11559 3cf2 0A       		.uleb128 0xa
ARM GAS  /tmp/ccTUBOn1.s 			page 204


 11560 3cf3 8D160000 		.4byte	.LASF998
 11561 3cf7 2A       		.byte	0x2a
 11562 3cf8 8502     		.2byte	0x285
 11563 3cfa E4370000 		.4byte	0x37e4
 11564 3cfe 24       		.byte	0x24
 11565 3cff 0A       		.uleb128 0xa
 11566 3d00 65360000 		.4byte	.LASF999
 11567 3d04 2A       		.byte	0x2a
 11568 3d05 8602     		.2byte	0x286
 11569 3d07 A6000000 		.4byte	0xa6
 11570 3d0b 48       		.byte	0x48
 11571 3d0c 0A       		.uleb128 0xa
 11572 3d0d 7A280000 		.4byte	.LASF1000
 11573 3d11 2A       		.byte	0x2a
 11574 3d12 8702     		.2byte	0x287
 11575 3d14 9F000000 		.4byte	0x9f
 11576 3d18 50       		.byte	0x50
 11577 3d19 0A       		.uleb128 0xa
 11578 3d1a 773F0000 		.4byte	.LASF1001
 11579 3d1e 2A       		.byte	0x2a
 11580 3d1f 8802     		.2byte	0x288
 11581 3d21 7D3C0000 		.4byte	0x3c7d
 11582 3d25 58       		.byte	0x58
 11583 3d26 0A       		.uleb128 0xa
 11584 3d27 A92F0000 		.4byte	.LASF1002
 11585 3d2b 2A       		.byte	0x2a
 11586 3d2c 8902     		.2byte	0x289
 11587 3d2e 54370000 		.4byte	0x3754
 11588 3d32 68       		.byte	0x68
 11589 3d33 0A       		.uleb128 0xa
 11590 3d34 47090000 		.4byte	.LASF1003
 11591 3d38 2A       		.byte	0x2a
 11592 3d39 8A02     		.2byte	0x28a
 11593 3d3b 54370000 		.4byte	0x3754
 11594 3d3f 70       		.byte	0x70
 11595 3d40 0A       		.uleb128 0xa
 11596 3d41 1A060000 		.4byte	.LASF1004
 11597 3d45 2A       		.byte	0x2a
 11598 3d46 8B02     		.2byte	0x28b
 11599 3d48 54370000 		.4byte	0x3754
 11600 3d4c 78       		.byte	0x78
 11601 3d4d 0A       		.uleb128 0xa
 11602 3d4e 50250000 		.4byte	.LASF1005
 11603 3d52 2A       		.byte	0x2a
 11604 3d53 8C02     		.2byte	0x28c
 11605 3d55 D33D0000 		.4byte	0x3dd3
 11606 3d59 80       		.byte	0x80
 11607 3d5a 0A       		.uleb128 0xa
 11608 3d5b 741D0000 		.4byte	.LASF1006
 11609 3d5f 2A       		.byte	0x2a
 11610 3d60 8D02     		.2byte	0x28d
 11611 3d62 E33D0000 		.4byte	0x3de3
 11612 3d66 88       		.byte	0x88
 11613 3d67 0A       		.uleb128 0xa
 11614 3d68 272D0000 		.4byte	.LASF1007
 11615 3d6c 2A       		.byte	0x2a
 11616 3d6d 8E02     		.2byte	0x28e
ARM GAS  /tmp/ccTUBOn1.s 			page 205


 11617 3d6f A6000000 		.4byte	0xa6
 11618 3d73 A0       		.byte	0xa0
 11619 3d74 0A       		.uleb128 0xa
 11620 3d75 63130000 		.4byte	.LASF1008
 11621 3d79 2A       		.byte	0x2a
 11622 3d7a 8F02     		.2byte	0x28f
 11623 3d7c 54370000 		.4byte	0x3754
 11624 3d80 A4       		.byte	0xa4
 11625 3d81 0A       		.uleb128 0xa
 11626 3d82 86000000 		.4byte	.LASF1009
 11627 3d86 2A       		.byte	0x2a
 11628 3d87 9002     		.2byte	0x290
 11629 3d89 54370000 		.4byte	0x3754
 11630 3d8d AC       		.byte	0xac
 11631 3d8e 0A       		.uleb128 0xa
 11632 3d8f 4E0E0000 		.4byte	.LASF1010
 11633 3d93 2A       		.byte	0x2a
 11634 3d94 9102     		.2byte	0x291
 11635 3d96 54370000 		.4byte	0x3754
 11636 3d9a B4       		.byte	0xb4
 11637 3d9b 0A       		.uleb128 0xa
 11638 3d9c DD1F0000 		.4byte	.LASF1011
 11639 3da0 2A       		.byte	0x2a
 11640 3da1 9202     		.2byte	0x292
 11641 3da3 54370000 		.4byte	0x3754
 11642 3da7 BC       		.byte	0xbc
 11643 3da8 0A       		.uleb128 0xa
 11644 3da9 A5250000 		.4byte	.LASF1012
 11645 3dad 2A       		.byte	0x2a
 11646 3dae 9302     		.2byte	0x293
 11647 3db0 54370000 		.4byte	0x3754
 11648 3db4 C4       		.byte	0xc4
 11649 3db5 0A       		.uleb128 0xa
 11650 3db6 9D310000 		.4byte	.LASF1013
 11651 3dba 2A       		.byte	0x2a
 11652 3dbb 9402     		.2byte	0x294
 11653 3dbd A6000000 		.4byte	0xa6
 11654 3dc1 CC       		.byte	0xcc
 11655 3dc2 00       		.byte	0
 11656 3dc3 11       		.uleb128 0x11
 11657 3dc4 D80B0000 		.4byte	0xbd8
 11658 3dc8 D33D0000 		.4byte	0x3dd3
 11659 3dcc 12       		.uleb128 0x12
 11660 3dcd B7000000 		.4byte	0xb7
 11661 3dd1 19       		.byte	0x19
 11662 3dd2 00       		.byte	0
 11663 3dd3 11       		.uleb128 0x11
 11664 3dd4 D80B0000 		.4byte	0xbd8
 11665 3dd8 E33D0000 		.4byte	0x3de3
 11666 3ddc 12       		.uleb128 0x12
 11667 3ddd B7000000 		.4byte	0xb7
 11668 3de1 07       		.byte	0x7
 11669 3de2 00       		.byte	0
 11670 3de3 11       		.uleb128 0x11
 11671 3de4 D80B0000 		.4byte	0xbd8
 11672 3de8 F33D0000 		.4byte	0x3df3
 11673 3dec 12       		.uleb128 0x12
ARM GAS  /tmp/ccTUBOn1.s 			page 206


 11674 3ded B7000000 		.4byte	0xb7
 11675 3df1 17       		.byte	0x17
 11676 3df2 00       		.byte	0
 11677 3df3 17       		.uleb128 0x17
 11678 3df4 F0       		.byte	0xf0
 11679 3df5 2A       		.byte	0x2a
 11680 3df6 9902     		.2byte	0x299
 11681 3df8 173E0000 		.4byte	0x3e17
 11682 3dfc 0A       		.uleb128 0xa
 11683 3dfd 1B3B0000 		.4byte	.LASF1014
 11684 3e01 2A       		.byte	0x2a
 11685 3e02 9C02     		.2byte	0x29c
 11686 3e04 173E0000 		.4byte	0x3e17
 11687 3e08 00       		.byte	0
 11688 3e09 0A       		.uleb128 0xa
 11689 3e0a 1F140000 		.4byte	.LASF1015
 11690 3e0e 2A       		.byte	0x2a
 11691 3e0f 9D02     		.2byte	0x29d
 11692 3e11 273E0000 		.4byte	0x3e27
 11693 3e15 78       		.byte	0x78
 11694 3e16 00       		.byte	0
 11695 3e17 11       		.uleb128 0x11
 11696 3e18 2D390000 		.4byte	0x392d
 11697 3e1c 273E0000 		.4byte	0x3e27
 11698 3e20 12       		.uleb128 0x12
 11699 3e21 B7000000 		.4byte	0xb7
 11700 3e25 1D       		.byte	0x1d
 11701 3e26 00       		.byte	0
 11702 3e27 11       		.uleb128 0x11
 11703 3e28 B7000000 		.4byte	0xb7
 11704 3e2c 373E0000 		.4byte	0x3e37
 11705 3e30 12       		.uleb128 0x12
 11706 3e31 B7000000 		.4byte	0xb7
 11707 3e35 1D       		.byte	0x1d
 11708 3e36 00       		.byte	0
 11709 3e37 25       		.uleb128 0x25
 11710 3e38 F0       		.byte	0xf0
 11711 3e39 2A       		.byte	0x2a
 11712 3e3a 7E02     		.2byte	0x27e
 11713 3e3c 593E0000 		.4byte	0x3e59
 11714 3e40 1D       		.uleb128 0x1d
 11715 3e41 3B250000 		.4byte	.LASF965
 11716 3e45 2A       		.byte	0x2a
 11717 3e46 9502     		.2byte	0x295
 11718 3e48 C23C0000 		.4byte	0x3cc2
 11719 3e4c 1D       		.uleb128 0x1d
 11720 3e4d FC040000 		.4byte	.LASF1016
 11721 3e51 2A       		.byte	0x2a
 11722 3e52 9E02     		.2byte	0x29e
 11723 3e54 F33D0000 		.4byte	0x3df3
 11724 3e58 00       		.byte	0
 11725 3e59 11       		.uleb128 0x11
 11726 3e5a D80B0000 		.4byte	0xbd8
 11727 3e5e 693E0000 		.4byte	0x3e69
 11728 3e62 12       		.uleb128 0x12
 11729 3e63 B7000000 		.4byte	0xb7
 11730 3e67 18       		.byte	0x18
ARM GAS  /tmp/ccTUBOn1.s 			page 207


 11731 3e68 00       		.byte	0
 11732 3e69 2D       		.uleb128 0x2d
 11733 3e6a BE2F0000 		.4byte	.LASF1018
 11734 3e6e 0B       		.uleb128 0xb
 11735 3e6f 04       		.byte	0x4
 11736 3e70 693E0000 		.4byte	0x3e69
 11737 3e74 0D       		.uleb128 0xd
 11738 3e75 7F3E0000 		.4byte	0x3e7f
 11739 3e79 0E       		.uleb128 0xe
 11740 3e7a 7B3A0000 		.4byte	0x3a7b
 11741 3e7e 00       		.byte	0
 11742 3e7f 0B       		.uleb128 0xb
 11743 3e80 04       		.byte	0x4
 11744 3e81 743E0000 		.4byte	0x3e74
 11745 3e85 0B       		.uleb128 0xb
 11746 3e86 04       		.byte	0x4
 11747 3e87 CE370000 		.4byte	0x37ce
 11748 3e8b 0D       		.uleb128 0xd
 11749 3e8c 963E0000 		.4byte	0x3e96
 11750 3e90 0E       		.uleb128 0xe
 11751 3e91 A6000000 		.4byte	0xa6
 11752 3e95 00       		.byte	0
 11753 3e96 0B       		.uleb128 0xb
 11754 3e97 04       		.byte	0x4
 11755 3e98 9C3E0000 		.4byte	0x3e9c
 11756 3e9c 0B       		.uleb128 0xb
 11757 3e9d 04       		.byte	0x4
 11758 3e9e 8B3E0000 		.4byte	0x3e8b
 11759 3ea2 11       		.uleb128 0x11
 11760 3ea3 303C0000 		.4byte	0x3c30
 11761 3ea7 B23E0000 		.4byte	0x3eb2
 11762 3eab 12       		.uleb128 0x12
 11763 3eac B7000000 		.4byte	0xb7
 11764 3eb0 02       		.byte	0x2
 11765 3eb1 00       		.byte	0
 11766 3eb2 13       		.uleb128 0x13
 11767 3eb3 2A2F0000 		.4byte	.LASF1019
 11768 3eb7 2A       		.byte	0x2a
 11769 3eb8 2E03     		.2byte	0x32e
 11770 3eba 7B3A0000 		.4byte	0x3a7b
 11771 3ebe 13       		.uleb128 0x13
 11772 3ebf 1A310000 		.4byte	.LASF1020
 11773 3ec3 2A       		.byte	0x2a
 11774 3ec4 2F03     		.2byte	0x32f
 11775 3ec6 813A0000 		.4byte	0x3a81
 11776 3eca 02       		.uleb128 0x2
 11777 3ecb 08       		.byte	0x8
 11778 3ecc 04       		.byte	0x4
 11779 3ecd 08310000 		.4byte	.LASF1021
 11780 3ed1 2F       		.uleb128 0x2f
 11781 3ed2 96260000 		.4byte	.LASF1192
 11782 3ed6 05       		.byte	0x5
 11783 3ed7 01       		.byte	0x1
 11784 3ed8 37000000 		.4byte	0x37
 11785 3edc 2B       		.byte	0x2b
 11786 3edd 8202     		.2byte	0x282
 11787 3edf FC3E0000 		.4byte	0x3efc
ARM GAS  /tmp/ccTUBOn1.s 			page 208


 11788 3ee3 30       		.uleb128 0x30
 11789 3ee4 9C230000 		.4byte	.LASF1022
 11790 3ee8 7F       		.sleb128 -1
 11791 3ee9 21       		.uleb128 0x21
 11792 3eea 80040000 		.4byte	.LASF1023
 11793 3eee 00       		.byte	0
 11794 3eef 21       		.uleb128 0x21
 11795 3ef0 45230000 		.4byte	.LASF1024
 11796 3ef4 01       		.byte	0x1
 11797 3ef5 21       		.uleb128 0x21
 11798 3ef6 B2380000 		.4byte	.LASF1025
 11799 3efa 02       		.byte	0x2
 11800 3efb 00       		.byte	0
 11801 3efc 13       		.uleb128 0x13
 11802 3efd 1E3F0000 		.4byte	.LASF1026
 11803 3f01 2B       		.byte	0x2b
 11804 3f02 8D02     		.2byte	0x28d
 11805 3f04 D13E0000 		.4byte	0x3ed1
 11806 3f08 11       		.uleb128 0x11
 11807 3f09 D9000000 		.4byte	0xd9
 11808 3f0d 193F0000 		.4byte	0x3f19
 11809 3f11 2B       		.uleb128 0x2b
 11810 3f12 B7000000 		.4byte	0xb7
 11811 3f16 4902     		.2byte	0x249
 11812 3f18 00       		.byte	0
 11813 3f19 31       		.uleb128 0x31
 11814 3f1a A8320000 		.4byte	.LASF1027
 11815 3f1e 01       		.byte	0x1
 11816 3f1f 2F       		.byte	0x2f
 11817 3f20 083F0000 		.4byte	0x3f08
 11818 3f24 05       		.uleb128 0x5
 11819 3f25 03       		.byte	0x3
 11820 3f26 00000000 		.4byte	VirtAddVarTab
 11821 3f2a 32       		.uleb128 0x32
 11822 3f2b 0C200000 		.4byte	0x200c
 11823 3f2f 01       		.byte	0x1
 11824 3f30 30       		.byte	0x30
 11825 3f31 05       		.uleb128 0x5
 11826 3f32 03       		.byte	0x3
 11827 3f33 00000000 		.4byte	conf_general_permanent_nrf_found
 11828 3f37 31       		.uleb128 0x31
 11829 3f38 47330000 		.4byte	.LASF1028
 11830 3f3c 01       		.byte	0x1
 11831 3f3d 33       		.byte	0x33
 11832 3f3e 2B170000 		.4byte	0x172b
 11833 3f42 05       		.uleb128 0x5
 11834 3f43 03       		.byte	0x3
 11835 3f44 00000000 		.4byte	mcconf
 11836 3f48 31       		.uleb128 0x31
 11837 3f49 A0350000 		.4byte	.LASF1029
 11838 3f4d 01       		.byte	0x1
 11839 3f4e 33       		.byte	0x33
 11840 3f4f 2B170000 		.4byte	0x172b
 11841 3f53 05       		.uleb128 0x5
 11842 3f54 03       		.byte	0x3
 11843 3f55 00000000 		.4byte	mcconf_old
 11844 3f59 33       		.uleb128 0x33
ARM GAS  /tmp/ccTUBOn1.s 			page 209


 11845 3f5a 962D0000 		.4byte	.LASF1040
 11846 3f5e 01       		.byte	0x1
 11847 3f5f C204     		.2byte	0x4c2
 11848 3f61 A6000000 		.4byte	0xa6
 11849 3f65 00000000 		.4byte	.LFB273
 11850 3f69 00020000 		.4byte	.LFE273-.LFB273
 11851 3f6d 01       		.uleb128 0x1
 11852 3f6e 9C       		.byte	0x9c
 11853 3f6f 39420000 		.4byte	0x4239
 11854 3f73 34       		.uleb128 0x34
 11855 3f74 2E0D0000 		.4byte	.LASF1030
 11856 3f78 01       		.byte	0x1
 11857 3f79 C204     		.2byte	0x4c2
 11858 3f7b 04170000 		.4byte	0x1704
 11859 3f7f 00000000 		.4byte	.LLST145
 11860 3f83 34       		.uleb128 0x34
 11861 3f84 DD090000 		.4byte	.LASF1031
 11862 3f88 01       		.byte	0x1
 11863 3f89 C204     		.2byte	0x4c2
 11864 3f8b 25000000 		.4byte	0x25
 11865 3f8f 21000000 		.4byte	.LLST146
 11866 3f93 34       		.uleb128 0x34
 11867 3f94 A1190000 		.4byte	.LASF1032
 11868 3f98 01       		.byte	0x1
 11869 3f99 C304     		.2byte	0x4c3
 11870 3f9b 25000000 		.4byte	0x25
 11871 3f9f 6D000000 		.4byte	.LLST147
 11872 3fa3 34       		.uleb128 0x34
 11873 3fa4 21180000 		.4byte	.LASF1033
 11874 3fa8 01       		.byte	0x1
 11875 3fa9 C304     		.2byte	0x4c3
 11876 3fab 25000000 		.4byte	0x25
 11877 3faf B9000000 		.4byte	.LLST148
 11878 3fb3 34       		.uleb128 0x34
 11879 3fb4 20400000 		.4byte	.LASF1034
 11880 3fb8 01       		.byte	0x1
 11881 3fb9 C304     		.2byte	0x4c3
 11882 3fbb 25000000 		.4byte	0x25
 11883 3fbf D9000000 		.4byte	.LLST149
 11884 3fc3 34       		.uleb128 0x34
 11885 3fc4 57380000 		.4byte	.LASF1035
 11886 3fc8 01       		.byte	0x1
 11887 3fc9 C304     		.2byte	0x4c3
 11888 3fcb 25000000 		.4byte	0x25
 11889 3fcf 25010000 		.4byte	.LLST150
 11890 3fd3 35       		.uleb128 0x35
 11891 3fd4 981C0000 		.4byte	.LASF1036
 11892 3fd8 01       		.byte	0x1
 11893 3fd9 C404     		.2byte	0x4c4
 11894 3fdb 0D1E0000 		.4byte	0x1e0d
 11895 3fdf 03       		.uleb128 0x3
 11896 3fe0 91       		.byte	0x91
 11897 3fe1 847E     		.sleb128 -252
 11898 3fe3 36       		.uleb128 0x36
 11899 3fe4 7E050000 		.4byte	.LASF1037
 11900 3fe8 01       		.byte	0x1
 11901 3fe9 C504     		.2byte	0x4c5
ARM GAS  /tmp/ccTUBOn1.s 			page 210


 11902 3feb C9000000 		.4byte	0xc9
 11903 3fef 45010000 		.4byte	.LLST151
 11904 3ff3 36       		.uleb128 0x36
 11905 3ff4 28250000 		.4byte	.LASF1038
 11906 3ff8 01       		.byte	0x1
 11907 3ff9 E204     		.2byte	0x4e2
 11908 3ffb A6000000 		.4byte	0xa6
 11909 3fff 63010000 		.4byte	.LLST152
 11910 4003 37       		.uleb128 0x37
 11911 4004 72657300 		.ascii	"res\000"
 11912 4008 01       		.byte	0x1
 11913 4009 F804     		.2byte	0x4f8
 11914 400b A6000000 		.4byte	0xa6
 11915 400f B1010000 		.4byte	.LLST153
 11916 4013 36       		.uleb128 0x36
 11917 4014 2F100000 		.4byte	.LASF1039
 11918 4018 01       		.byte	0x1
 11919 4019 FB04     		.2byte	0x4fb
 11920 401b A6000000 		.4byte	0xa6
 11921 401f DA010000 		.4byte	.LLST154
 11922 4023 38       		.uleb128 0x38
 11923 4024 68020000 		.4byte	.Ldebug_ranges0+0x268
 11924 4028 9E400000 		.4byte	0x409e
 11925 402c 37       		.uleb128 0x37
 11926 402d 6900     		.ascii	"i\000"
 11927 402f 01       		.byte	0x1
 11928 4030 E604     		.2byte	0x4e6
 11929 4032 A6000000 		.4byte	0xa6
 11930 4036 FA010000 		.4byte	.LLST155
 11931 403a 39       		.uleb128 0x39
 11932 403b DA000000 		.4byte	.LVL563
 11933 403f C9600000 		.4byte	0x60c9
 11934 4043 4E400000 		.4byte	0x404e
 11935 4047 3A       		.uleb128 0x3a
 11936 4048 01       		.uleb128 0x1
 11937 4049 50       		.byte	0x50
 11938 404a 02       		.uleb128 0x2
 11939 404b 75       		.byte	0x75
 11940 404c 00       		.sleb128 0
 11941 404d 00       		.byte	0
 11942 404e 39       		.uleb128 0x39
 11943 404f EE000000 		.4byte	.LVL564
 11944 4053 D4600000 		.4byte	0x60d4
 11945 4057 67400000 		.4byte	0x4067
 11946 405b 3A       		.uleb128 0x3a
 11947 405c 01       		.uleb128 0x1
 11948 405d 50       		.byte	0x50
 11949 405e 02       		.uleb128 0x2
 11950 405f 75       		.byte	0x75
 11951 4060 00       		.sleb128 0
 11952 4061 3A       		.uleb128 0x3a
 11953 4062 01       		.uleb128 0x1
 11954 4063 51       		.byte	0x51
 11955 4064 01       		.uleb128 0x1
 11956 4065 30       		.byte	0x30
 11957 4066 00       		.byte	0
 11958 4067 39       		.uleb128 0x39
ARM GAS  /tmp/ccTUBOn1.s 			page 211


 11959 4068 FE000000 		.4byte	.LVL565
 11960 406c DF600000 		.4byte	0x60df
 11961 4070 80400000 		.4byte	0x4080
 11962 4074 3A       		.uleb128 0x3a
 11963 4075 01       		.uleb128 0x1
 11964 4076 50       		.byte	0x50
 11965 4077 02       		.uleb128 0x2
 11966 4078 75       		.byte	0x75
 11967 4079 00       		.sleb128 0
 11968 407a 3A       		.uleb128 0x3a
 11969 407b 01       		.uleb128 0x1
 11970 407c 51       		.byte	0x51
 11971 407d 01       		.uleb128 0x1
 11972 407e 30       		.byte	0x30
 11973 407f 00       		.byte	0
 11974 4080 3B       		.uleb128 0x3b
 11975 4081 0C010000 		.4byte	.LVL567
 11976 4085 EA600000 		.4byte	0x60ea
 11977 4089 3A       		.uleb128 0x3a
 11978 408a 01       		.uleb128 0x1
 11979 408b 50       		.byte	0x50
 11980 408c 02       		.uleb128 0x2
 11981 408d 75       		.byte	0x75
 11982 408e 00       		.sleb128 0
 11983 408f 3A       		.uleb128 0x3a
 11984 4090 01       		.uleb128 0x1
 11985 4091 51       		.byte	0x51
 11986 4092 01       		.uleb128 0x1
 11987 4093 31       		.byte	0x31
 11988 4094 3A       		.uleb128 0x3a
 11989 4095 02       		.uleb128 0x2
 11990 4096 90       		.byte	0x90
 11991 4097 40       		.uleb128 0x40
 11992 4098 03       		.uleb128 0x3
 11993 4099 F5       		.byte	0xf5
 11994 409a 50       		.uleb128 0x50
 11995 409b 25       		.uleb128 0x25
 11996 409c 00       		.byte	0
 11997 409d 00       		.byte	0
 11998 409e 3C       		.uleb128 0x3c
 11999 409f 36010000 		.4byte	.LBB85
 12000 40a3 14000000 		.4byte	.LBE85-.LBB85
 12001 40a7 CC400000 		.4byte	0x40cc
 12002 40ab 37       		.uleb128 0x37
 12003 40ac 6900     		.ascii	"i\000"
 12004 40ae 01       		.byte	0x1
 12005 40af FC04     		.2byte	0x4fc
 12006 40b1 A6000000 		.4byte	0xa6
 12007 40b5 25020000 		.4byte	.LLST156
 12008 40b9 3D       		.uleb128 0x3d
 12009 40ba 3A010000 		.4byte	.LVL576
 12010 40be F5600000 		.4byte	0x60f5
 12011 40c2 3D       		.uleb128 0x3d
 12012 40c3 42010000 		.4byte	.LVL579
 12013 40c7 00610000 		.4byte	0x6100
 12014 40cb 00       		.byte	0
 12015 40cc 3C       		.uleb128 0x3c
ARM GAS  /tmp/ccTUBOn1.s 			page 212


 12016 40cd 4A010000 		.4byte	.LBB86
 12017 40d1 1C000000 		.4byte	.LBE86-.LBB86
 12018 40d5 F8400000 		.4byte	0x40f8
 12019 40d9 37       		.uleb128 0x37
 12020 40da 6900     		.ascii	"i\000"
 12021 40dc 01       		.byte	0x1
 12022 40dd 0705     		.2byte	0x507
 12023 40df A6000000 		.4byte	0xa6
 12024 40e3 7D020000 		.4byte	.LLST157
 12025 40e7 3B       		.uleb128 0x3b
 12026 40e8 58010000 		.4byte	.LVL582
 12027 40ec 0B610000 		.4byte	0x610b
 12028 40f0 3A       		.uleb128 0x3a
 12029 40f1 01       		.uleb128 0x1
 12030 40f2 50       		.byte	0x50
 12031 40f3 02       		.uleb128 0x2
 12032 40f4 74       		.byte	0x74
 12033 40f5 00       		.sleb128 0
 12034 40f6 00       		.byte	0
 12035 40f7 00       		.byte	0
 12036 40f8 3D       		.uleb128 0x3d
 12037 40f9 24000000 		.4byte	.LVL553
 12038 40fd 16610000 		.4byte	0x6116
 12039 4101 39       		.uleb128 0x39
 12040 4102 2E000000 		.4byte	.LVL554
 12041 4106 21610000 		.4byte	0x6121
 12042 410a 1C410000 		.4byte	0x411c
 12043 410e 3A       		.uleb128 0x3a
 12044 410f 01       		.uleb128 0x1
 12045 4110 50       		.byte	0x50
 12046 4111 03       		.uleb128 0x3
 12047 4112 91       		.byte	0x91
 12048 4113 847E     		.sleb128 -252
 12049 4115 3A       		.uleb128 0x3a
 12050 4116 01       		.uleb128 0x1
 12051 4117 52       		.byte	0x52
 12052 4118 02       		.uleb128 0x2
 12053 4119 08       		.byte	0x8
 12054 411a CC       		.byte	0xcc
 12055 411b 00       		.byte	0
 12056 411c 3D       		.uleb128 0x3d
 12057 411d 38000000 		.4byte	.LVL556
 12058 4121 30610000 		.4byte	0x6130
 12059 4125 39       		.uleb128 0x39
 12060 4126 44000000 		.4byte	.LVL557
 12061 412a 21610000 		.4byte	0x6121
 12062 412e 40410000 		.4byte	0x4140
 12063 4132 3A       		.uleb128 0x3a
 12064 4133 01       		.uleb128 0x1
 12065 4134 50       		.byte	0x50
 12066 4135 02       		.uleb128 0x2
 12067 4136 77       		.byte	0x77
 12068 4137 00       		.sleb128 0
 12069 4138 3A       		.uleb128 0x3a
 12070 4139 01       		.uleb128 0x1
 12071 413a 52       		.byte	0x52
 12072 413b 03       		.uleb128 0x3
ARM GAS  /tmp/ccTUBOn1.s 			page 213


 12073 413c 0A       		.byte	0xa
 12074 413d C801     		.2byte	0x1c8
 12075 413f 00       		.byte	0
 12076 4140 39       		.uleb128 0x39
 12077 4141 BC000000 		.4byte	.LVL558
 12078 4145 3B610000 		.4byte	0x613b
 12079 4149 54410000 		.4byte	0x4154
 12080 414d 3A       		.uleb128 0x3a
 12081 414e 01       		.uleb128 0x1
 12082 414f 50       		.byte	0x50
 12083 4150 02       		.uleb128 0x2
 12084 4151 77       		.byte	0x77
 12085 4152 00       		.sleb128 0
 12086 4153 00       		.byte	0
 12087 4154 3D       		.uleb128 0x3d
 12088 4155 C0000000 		.4byte	.LVL559
 12089 4159 46610000 		.4byte	0x6146
 12090 415d 39       		.uleb128 0x39
 12091 415e 2E010000 		.4byte	.LVL573
 12092 4162 39420000 		.4byte	0x4239
 12093 4166 7D410000 		.4byte	0x417d
 12094 416a 3A       		.uleb128 0x3a
 12095 416b 02       		.uleb128 0x2
 12096 416c 90       		.byte	0x90
 12097 416d 40       		.uleb128 0x40
 12098 416e 03       		.uleb128 0x3
 12099 416f F5       		.byte	0xf5
 12100 4170 50       		.uleb128 0x50
 12101 4171 25       		.uleb128 0x25
 12102 4172 3A       		.uleb128 0x3a
 12103 4173 01       		.uleb128 0x1
 12104 4174 50       		.byte	0x50
 12105 4175 01       		.uleb128 0x1
 12106 4176 30       		.byte	0x30
 12107 4177 3A       		.uleb128 0x3a
 12108 4178 01       		.uleb128 0x1
 12109 4179 51       		.byte	0x51
 12110 417a 01       		.uleb128 0x1
 12111 417b 30       		.byte	0x30
 12112 417c 00       		.byte	0
 12113 417d 39       		.uleb128 0x39
 12114 417e 8C010000 		.4byte	.LVL586
 12115 4182 445B0000 		.4byte	0x5b44
 12116 4186 92410000 		.4byte	0x4192
 12117 418a 3A       		.uleb128 0x3a
 12118 418b 01       		.uleb128 0x1
 12119 418c 50       		.byte	0x50
 12120 418d 03       		.uleb128 0x3
 12121 418e 91       		.byte	0x91
 12122 418f 847E     		.sleb128 -252
 12123 4191 00       		.byte	0
 12124 4192 39       		.uleb128 0x39
 12125 4193 92010000 		.4byte	.LVL587
 12126 4197 51610000 		.4byte	0x6151
 12127 419b A7410000 		.4byte	0x41a7
 12128 419f 3A       		.uleb128 0x3a
 12129 41a0 01       		.uleb128 0x1
ARM GAS  /tmp/ccTUBOn1.s 			page 214


 12130 41a1 50       		.byte	0x50
 12131 41a2 03       		.uleb128 0x3
 12132 41a3 91       		.byte	0x91
 12133 41a4 847E     		.sleb128 -252
 12134 41a6 00       		.byte	0
 12135 41a7 39       		.uleb128 0x39
 12136 41a8 9A010000 		.4byte	.LVL588
 12137 41ac 5C610000 		.4byte	0x615c
 12138 41b0 C1410000 		.4byte	0x41c1
 12139 41b4 3A       		.uleb128 0x3a
 12140 41b5 01       		.uleb128 0x1
 12141 41b6 50       		.byte	0x50
 12142 41b7 01       		.uleb128 0x1
 12143 41b8 41       		.byte	0x41
 12144 41b9 3A       		.uleb128 0x3a
 12145 41ba 01       		.uleb128 0x1
 12146 41bb 51       		.byte	0x51
 12147 41bc 03       		.uleb128 0x3
 12148 41bd 91       		.byte	0x91
 12149 41be 847E     		.sleb128 -252
 12150 41c0 00       		.byte	0
 12151 41c1 39       		.uleb128 0x39
 12152 41c2 A2010000 		.4byte	.LVL589
 12153 41c6 F5600000 		.4byte	0x60f5
 12154 41ca D6410000 		.4byte	0x41d6
 12155 41ce 3A       		.uleb128 0x3a
 12156 41cf 01       		.uleb128 0x1
 12157 41d0 50       		.byte	0x50
 12158 41d1 03       		.uleb128 0x3
 12159 41d2 0A       		.byte	0xa
 12160 41d3 1027     		.2byte	0x2710
 12161 41d5 00       		.byte	0
 12162 41d6 3D       		.uleb128 0x3d
 12163 41d7 A6010000 		.4byte	.LVL590
 12164 41db 30610000 		.4byte	0x6130
 12165 41df 39       		.uleb128 0x39
 12166 41e0 B2010000 		.4byte	.LVL591
 12167 41e4 21610000 		.4byte	0x6121
 12168 41e8 FA410000 		.4byte	0x41fa
 12169 41ec 3A       		.uleb128 0x3a
 12170 41ed 01       		.uleb128 0x1
 12171 41ee 50       		.byte	0x50
 12172 41ef 02       		.uleb128 0x2
 12173 41f0 77       		.byte	0x77
 12174 41f1 00       		.sleb128 0
 12175 41f2 3A       		.uleb128 0x3a
 12176 41f3 01       		.uleb128 0x1
 12177 41f4 52       		.byte	0x52
 12178 41f5 03       		.uleb128 0x3
 12179 41f6 0A       		.byte	0xa
 12180 41f7 C801     		.2byte	0x1c8
 12181 41f9 00       		.byte	0
 12182 41fa 39       		.uleb128 0x39
 12183 41fb B8010000 		.4byte	.LVL592
 12184 41ff 96590000 		.4byte	0x5996
 12185 4203 0E420000 		.4byte	0x420e
 12186 4207 3A       		.uleb128 0x3a
ARM GAS  /tmp/ccTUBOn1.s 			page 215


 12187 4208 01       		.uleb128 0x1
 12188 4209 50       		.byte	0x50
 12189 420a 02       		.uleb128 0x2
 12190 420b 77       		.byte	0x77
 12191 420c 00       		.sleb128 0
 12192 420d 00       		.byte	0
 12193 420e 39       		.uleb128 0x39
 12194 420f C0010000 		.4byte	.LVL593
 12195 4213 67610000 		.4byte	0x6167
 12196 4217 27420000 		.4byte	0x4227
 12197 421b 3A       		.uleb128 0x3a
 12198 421c 01       		.uleb128 0x1
 12199 421d 50       		.byte	0x50
 12200 421e 01       		.uleb128 0x1
 12201 421f 3E       		.byte	0x3e
 12202 4220 3A       		.uleb128 0x3a
 12203 4221 01       		.uleb128 0x1
 12204 4222 51       		.byte	0x51
 12205 4223 02       		.uleb128 0x2
 12206 4224 77       		.byte	0x77
 12207 4225 00       		.sleb128 0
 12208 4226 00       		.byte	0
 12209 4227 3B       		.uleb128 0x3b
 12210 4228 C8010000 		.4byte	.LVL594
 12211 422c F5600000 		.4byte	0x60f5
 12212 4230 3A       		.uleb128 0x3a
 12213 4231 01       		.uleb128 0x1
 12214 4232 50       		.byte	0x50
 12215 4233 03       		.uleb128 0x3
 12216 4234 0A       		.byte	0xa
 12217 4235 1027     		.2byte	0x2710
 12218 4237 00       		.byte	0
 12219 4238 00       		.byte	0
 12220 4239 33       		.uleb128 0x33
 12221 423a 15070000 		.4byte	.LASF1041
 12222 423e 01       		.byte	0x1
 12223 423f 0A04     		.2byte	0x40a
 12224 4241 A6000000 		.4byte	0xa6
 12225 4245 00000000 		.4byte	.LFB272
 12226 4249 7C030000 		.4byte	.LFE272-.LFB272
 12227 424d 01       		.uleb128 0x1
 12228 424e 9C       		.byte	0x9c
 12229 424f 57470000 		.4byte	0x4757
 12230 4253 34       		.uleb128 0x34
 12231 4254 DD090000 		.4byte	.LASF1031
 12232 4258 01       		.byte	0x1
 12233 4259 0A04     		.2byte	0x40a
 12234 425b 25000000 		.4byte	0x25
 12235 425f B4020000 		.4byte	.LLST118
 12236 4263 34       		.uleb128 0x34
 12237 4264 C7400000 		.4byte	.LASF1042
 12238 4268 01       		.byte	0x1
 12239 4269 0B04     		.2byte	0x40b
 12240 426b 04170000 		.4byte	0x1704
 12241 426f 28030000 		.4byte	.LLST119
 12242 4273 34       		.uleb128 0x34
 12243 4274 BF030000 		.4byte	.LASF1043
ARM GAS  /tmp/ccTUBOn1.s 			page 216


 12244 4278 01       		.byte	0x1
 12245 4279 0B04     		.2byte	0x40b
 12246 427b 04170000 		.4byte	0x1704
 12247 427f 49030000 		.4byte	.LLST120
 12248 4283 36       		.uleb128 0x36
 12249 4284 5D200000 		.4byte	.LASF1044
 12250 4288 01       		.byte	0x1
 12251 4289 0C04     		.2byte	0x40c
 12252 428b A6000000 		.4byte	0xa6
 12253 428f 6A030000 		.4byte	.LLST121
 12254 4293 36       		.uleb128 0x36
 12255 4294 F1130000 		.4byte	.LASF1045
 12256 4298 01       		.byte	0x1
 12257 4299 3204     		.2byte	0x432
 12258 429b 92010000 		.4byte	0x192
 12259 429f B1030000 		.4byte	.LLST122
 12260 42a3 36       		.uleb128 0x36
 12261 42a4 15410000 		.4byte	.LASF1046
 12262 42a8 01       		.byte	0x1
 12263 42a9 3304     		.2byte	0x433
 12264 42ab 25000000 		.4byte	0x25
 12265 42af E5030000 		.4byte	.LLST123
 12266 42b3 35       		.uleb128 0x35
 12267 42b4 9E360000 		.4byte	.LASF1047
 12268 42b8 01       		.byte	0x1
 12269 42b9 3904     		.2byte	0x439
 12270 42bb 25000000 		.4byte	0x25
 12271 42bf 03       		.uleb128 0x3
 12272 42c0 91       		.byte	0x91
 12273 42c1 B47F     		.sleb128 -76
 12274 42c3 36       		.uleb128 0x36
 12275 42c4 AB0D0000 		.4byte	.LASF1048
 12276 42c8 01       		.byte	0x1
 12277 42c9 3C04     		.2byte	0x43c
 12278 42cb 25000000 		.4byte	0x25
 12279 42cf 11040000 		.4byte	.LLST124
 12280 42d3 37       		.uleb128 0x37
 12281 42d4 7200     		.ascii	"r\000"
 12282 42d6 01       		.byte	0x1
 12283 42d7 4E04     		.2byte	0x44e
 12284 42d9 25000000 		.4byte	0x25
 12285 42dd 6D040000 		.4byte	.LLST125
 12286 42e1 37       		.uleb128 0x37
 12287 42e2 6C00     		.ascii	"l\000"
 12288 42e4 01       		.byte	0x1
 12289 42e5 4F04     		.2byte	0x44f
 12290 42e7 25000000 		.4byte	0x25
 12291 42eb B4040000 		.4byte	.LLST126
 12292 42ef 35       		.uleb128 0x35
 12293 42f0 492E0000 		.4byte	.LASF1049
 12294 42f4 01       		.byte	0x1
 12295 42f5 5004     		.2byte	0x450
 12296 42f7 25000000 		.4byte	0x25
 12297 42fb 03       		.uleb128 0x3
 12298 42fc 91       		.byte	0x91
 12299 42fd B87F     		.sleb128 -72
 12300 42ff 35       		.uleb128 0x35
ARM GAS  /tmp/ccTUBOn1.s 			page 217


 12301 4300 890B0000 		.4byte	.LASF1050
 12302 4304 01       		.byte	0x1
 12303 4305 5904     		.2byte	0x459
 12304 4307 25000000 		.4byte	0x25
 12305 430b 03       		.uleb128 0x3
 12306 430c 91       		.byte	0x91
 12307 430d BC7F     		.sleb128 -68
 12308 430f 37       		.uleb128 0x37
 12309 4310 72657300 		.ascii	"res\000"
 12310 4314 01       		.byte	0x1
 12311 4315 5A04     		.2byte	0x45a
 12312 4317 A6000000 		.4byte	0xa6
 12313 431b 14050000 		.4byte	.LLST127
 12314 431f 36       		.uleb128 0x36
 12315 4320 D03F0000 		.4byte	.LASF1051
 12316 4324 01       		.byte	0x1
 12317 4325 5C04     		.2byte	0x45c
 12318 4327 25000000 		.4byte	0x25
 12319 432b 3C050000 		.4byte	.LLST128
 12320 432f 36       		.uleb128 0x36
 12321 4330 CA3F0000 		.4byte	.LASF1052
 12322 4334 01       		.byte	0x1
 12323 4335 5D04     		.2byte	0x45d
 12324 4337 25000000 		.4byte	0x25
 12325 433b 62050000 		.4byte	.LLST129
 12326 433f 36       		.uleb128 0x36
 12327 4340 A0060000 		.4byte	.LASF1053
 12328 4344 01       		.byte	0x1
 12329 4345 5E04     		.2byte	0x45e
 12330 4347 25000000 		.4byte	0x25
 12331 434b 88050000 		.4byte	.LLST130
 12332 434f 36       		.uleb128 0x36
 12333 4350 BE3B0000 		.4byte	.LASF1054
 12334 4354 01       		.byte	0x1
 12335 4355 5F04     		.2byte	0x45f
 12336 4357 25000000 		.4byte	0x25
 12337 435b AE050000 		.4byte	.LLST131
 12338 435f 36       		.uleb128 0x36
 12339 4360 68320000 		.4byte	.LASF1055
 12340 4364 01       		.byte	0x1
 12341 4365 6004     		.2byte	0x460
 12342 4367 25000000 		.4byte	0x25
 12343 436b D4050000 		.4byte	.LLST132
 12344 436f 36       		.uleb128 0x36
 12345 4370 B0040000 		.4byte	.LASF1056
 12346 4374 01       		.byte	0x1
 12347 4375 6104     		.2byte	0x461
 12348 4377 25000000 		.4byte	0x25
 12349 437b FA050000 		.4byte	.LLST133
 12350 437f 36       		.uleb128 0x36
 12351 4380 2D280000 		.4byte	.LASF1057
 12352 4384 01       		.byte	0x1
 12353 4385 6204     		.2byte	0x462
 12354 4387 04170000 		.4byte	0x1704
 12355 438b 20060000 		.4byte	.LLST134
 12356 438f 36       		.uleb128 0x36
 12357 4390 72270000 		.4byte	.LASF1058
ARM GAS  /tmp/ccTUBOn1.s 			page 218


 12358 4394 01       		.byte	0x1
 12359 4395 6304     		.2byte	0x463
 12360 4397 25000000 		.4byte	0x25
 12361 439b 46060000 		.4byte	.LLST135
 12362 439f 3C       		.uleb128 0x3c
 12363 43a0 76000000 		.4byte	.LBB71
 12364 43a4 12000000 		.4byte	.LBE71-.LBB71
 12365 43a8 D8430000 		.4byte	0x43d8
 12366 43ac 37       		.uleb128 0x37
 12367 43ad 6900     		.ascii	"i\000"
 12368 43af 01       		.byte	0x1
 12369 43b0 2104     		.2byte	0x421
 12370 43b2 A6000000 		.4byte	0xa6
 12371 43b6 6C060000 		.4byte	.LLST136
 12372 43ba 39       		.uleb128 0x39
 12373 43bb 7C000000 		.4byte	.LVL475
 12374 43bf F5600000 		.4byte	0x60f5
 12375 43c3 CE430000 		.4byte	0x43ce
 12376 43c7 3A       		.uleb128 0x3a
 12377 43c8 01       		.uleb128 0x1
 12378 43c9 50       		.byte	0x50
 12379 43ca 02       		.uleb128 0x2
 12380 43cb 08       		.byte	0x8
 12381 43cc 64       		.byte	0x64
 12382 43cd 00       		.byte	0
 12383 43ce 3D       		.uleb128 0x3d
 12384 43cf 84000000 		.4byte	.LVL478
 12385 43d3 72610000 		.4byte	0x6172
 12386 43d7 00       		.byte	0
 12387 43d8 3C       		.uleb128 0x3c
 12388 43d9 E2000000 		.4byte	.LBB72
 12389 43dd 7A000000 		.4byte	.LBE72-.LBB72
 12390 43e1 6F440000 		.4byte	0x446f
 12391 43e5 37       		.uleb128 0x37
 12392 43e6 6900     		.ascii	"i\000"
 12393 43e8 01       		.byte	0x1
 12394 43e9 3D04     		.2byte	0x43d
 12395 43eb 25000000 		.4byte	0x25
 12396 43ef B3060000 		.4byte	.LLST137
 12397 43f3 3E       		.uleb128 0x3e
 12398 43f4 00020000 		.4byte	.Ldebug_ranges0+0x200
 12399 43f8 36       		.uleb128 0x36
 12400 43f9 F3330000 		.4byte	.LASF1059
 12401 43fd 01       		.byte	0x1
 12402 43fe 3E04     		.2byte	0x43e
 12403 4400 25000000 		.4byte	0x25
 12404 4404 EB060000 		.4byte	.LLST138
 12405 4408 39       		.uleb128 0x39
 12406 4409 34010000 		.4byte	.LVL494
 12407 440d 7D610000 		.4byte	0x617d
 12408 4411 23440000 		.4byte	0x4423
 12409 4415 3A       		.uleb128 0x3a
 12410 4416 02       		.uleb128 0x2
 12411 4417 90       		.byte	0x90
 12412 4418 40       		.uleb128 0x40
 12413 4419 03       		.uleb128 0x3
 12414 441a F5       		.byte	0xf5
ARM GAS  /tmp/ccTUBOn1.s 			page 219


 12415 441b 50       		.uleb128 0x50
 12416 441c 25       		.uleb128 0x25
 12417 441d 3A       		.uleb128 0x3a
 12418 441e 01       		.uleb128 0x1
 12419 441f 50       		.byte	0x50
 12420 4420 01       		.uleb128 0x1
 12421 4421 35       		.byte	0x35
 12422 4422 00       		.byte	0
 12423 4423 3D       		.uleb128 0x3d
 12424 4424 3C010000 		.4byte	.LVL496
 12425 4428 72610000 		.4byte	0x6172
 12426 442c 39       		.uleb128 0x39
 12427 442d 4A010000 		.4byte	.LVL497
 12428 4431 88610000 		.4byte	0x6188
 12429 4435 48440000 		.4byte	0x4448
 12430 4439 3A       		.uleb128 0x3a
 12431 443a 01       		.uleb128 0x1
 12432 443b 50       		.byte	0x50
 12433 443c 02       		.uleb128 0x2
 12434 443d 78       		.byte	0x78
 12435 443e 00       		.sleb128 0
 12436 443f 3A       		.uleb128 0x3a
 12437 4440 02       		.uleb128 0x2
 12438 4441 90       		.byte	0x90
 12439 4442 40       		.uleb128 0x40
 12440 4443 03       		.uleb128 0x3
 12441 4444 F5       		.byte	0xf5
 12442 4445 55       		.uleb128 0x55
 12443 4446 25       		.uleb128 0x25
 12444 4447 00       		.byte	0
 12445 4448 3D       		.uleb128 0x3d
 12446 4449 4E010000 		.4byte	.LVL498
 12447 444d 93610000 		.4byte	0x6193
 12448 4451 3D       		.uleb128 0x3d
 12449 4452 52010000 		.4byte	.LVL499
 12450 4456 9E610000 		.4byte	0x619e
 12451 445a 3B       		.uleb128 0x3b
 12452 445b 58010000 		.4byte	.LVL500
 12453 445f 3B610000 		.4byte	0x613b
 12454 4463 3A       		.uleb128 0x3a
 12455 4464 01       		.uleb128 0x1
 12456 4465 50       		.byte	0x50
 12457 4466 05       		.uleb128 0x5
 12458 4467 03       		.byte	0x3
 12459 4468 00000000 		.4byte	.LANCHOR2
 12460 446c 00       		.byte	0
 12461 446d 00       		.byte	0
 12462 446e 00       		.byte	0
 12463 446f 38       		.uleb128 0x38
 12464 4470 20020000 		.4byte	.Ldebug_ranges0+0x220
 12465 4474 C5440000 		.4byte	0x44c5
 12466 4478 37       		.uleb128 0x37
 12467 4479 746300   		.ascii	"tc\000"
 12468 447c 01       		.byte	0x1
 12469 447d 6904     		.2byte	0x469
 12470 447f 25000000 		.4byte	0x25
 12471 4483 17070000 		.4byte	.LLST139
ARM GAS  /tmp/ccTUBOn1.s 			page 220


 12472 4487 37       		.uleb128 0x37
 12473 4488 627700   		.ascii	"bw\000"
 12474 448b 01       		.byte	0x1
 12475 448c 6A04     		.2byte	0x46a
 12476 448e 25000000 		.4byte	0x25
 12477 4492 2F070000 		.4byte	.LLST140
 12478 4496 37       		.uleb128 0x37
 12479 4497 6B7000   		.ascii	"kp\000"
 12480 449a 01       		.byte	0x1
 12481 449b 6B04     		.2byte	0x46b
 12482 449d 25000000 		.4byte	0x25
 12483 44a1 47070000 		.4byte	.LLST141
 12484 44a5 37       		.uleb128 0x37
 12485 44a6 6B6900   		.ascii	"ki\000"
 12486 44a9 01       		.byte	0x1
 12487 44aa 6C04     		.2byte	0x46c
 12488 44ac 25000000 		.4byte	0x25
 12489 44b0 71070000 		.4byte	.LLST142
 12490 44b4 36       		.uleb128 0x36
 12491 44b5 A5030000 		.4byte	.LASF1060
 12492 44b9 01       		.byte	0x1
 12493 44ba 6D04     		.2byte	0x46d
 12494 44bc 25000000 		.4byte	0x25
 12495 44c0 94070000 		.4byte	.LLST143
 12496 44c4 00       		.byte	0
 12497 44c5 38       		.uleb128 0x38
 12498 44c6 50020000 		.4byte	.Ldebug_ranges0+0x250
 12499 44ca EF440000 		.4byte	0x44ef
 12500 44ce 37       		.uleb128 0x37
 12501 44cf 6900     		.ascii	"i\000"
 12502 44d1 01       		.byte	0x1
 12503 44d2 8C04     		.2byte	0x48c
 12504 44d4 A6000000 		.4byte	0xa6
 12505 44d8 B6070000 		.4byte	.LLST144
 12506 44dc 3D       		.uleb128 0x3d
 12507 44dd 68020000 		.4byte	.LVL530
 12508 44e1 F5600000 		.4byte	0x60f5
 12509 44e5 3D       		.uleb128 0x3d
 12510 44e6 70020000 		.4byte	.LVL533
 12511 44ea A9610000 		.4byte	0x61a9
 12512 44ee 00       		.byte	0
 12513 44ef 3D       		.uleb128 0x3d
 12514 44f0 16000000 		.4byte	.LVL470
 12515 44f4 30610000 		.4byte	0x6130
 12516 44f8 39       		.uleb128 0x39
 12517 44f9 24000000 		.4byte	.LVL471
 12518 44fd 21610000 		.4byte	0x6121
 12519 4501 13450000 		.4byte	0x4513
 12520 4505 3A       		.uleb128 0x3a
 12521 4506 01       		.uleb128 0x1
 12522 4507 50       		.byte	0x50
 12523 4508 02       		.uleb128 0x2
 12524 4509 75       		.byte	0x75
 12525 450a 00       		.sleb128 0
 12526 450b 3A       		.uleb128 0x3a
 12527 450c 01       		.uleb128 0x1
 12528 450d 52       		.byte	0x52
ARM GAS  /tmp/ccTUBOn1.s 			page 221


 12529 450e 03       		.uleb128 0x3
 12530 450f 0A       		.byte	0xa
 12531 4510 C801     		.2byte	0x1c8
 12532 4512 00       		.byte	0
 12533 4513 39       		.uleb128 0x39
 12534 4514 30000000 		.4byte	.LVL472
 12535 4518 21610000 		.4byte	0x6121
 12536 451c 37450000 		.4byte	0x4537
 12537 4520 3A       		.uleb128 0x3a
 12538 4521 01       		.uleb128 0x1
 12539 4522 50       		.byte	0x50
 12540 4523 05       		.uleb128 0x5
 12541 4524 03       		.byte	0x3
 12542 4525 00000000 		.4byte	.LANCHOR2
 12543 4529 3A       		.uleb128 0x3a
 12544 452a 01       		.uleb128 0x1
 12545 452b 51       		.byte	0x51
 12546 452c 02       		.uleb128 0x2
 12547 452d 75       		.byte	0x75
 12548 452e 00       		.sleb128 0
 12549 452f 3A       		.uleb128 0x3a
 12550 4530 01       		.uleb128 0x1
 12551 4531 52       		.byte	0x52
 12552 4532 03       		.uleb128 0x3
 12553 4533 0A       		.byte	0xa
 12554 4534 C801     		.2byte	0x1c8
 12555 4536 00       		.byte	0
 12556 4537 39       		.uleb128 0x39
 12557 4538 74000000 		.4byte	.LVL473
 12558 453c 3B610000 		.4byte	0x613b
 12559 4540 4B450000 		.4byte	0x454b
 12560 4544 3A       		.uleb128 0x3a
 12561 4545 01       		.uleb128 0x1
 12562 4546 50       		.byte	0x50
 12563 4547 02       		.uleb128 0x2
 12564 4548 75       		.byte	0x75
 12565 4549 00       		.sleb128 0
 12566 454a 00       		.byte	0
 12567 454b 3D       		.uleb128 0x3d
 12568 454c 8C000000 		.4byte	.LVL480
 12569 4550 72610000 		.4byte	0x6172
 12570 4554 39       		.uleb128 0x39
 12571 4555 9A000000 		.4byte	.LVL481
 12572 4559 F5600000 		.4byte	0x60f5
 12573 455d 69450000 		.4byte	0x4569
 12574 4561 3A       		.uleb128 0x3a
 12575 4562 01       		.uleb128 0x1
 12576 4563 50       		.byte	0x50
 12577 4564 03       		.uleb128 0x3
 12578 4565 0A       		.byte	0xa
 12579 4566 1027     		.2byte	0x2710
 12580 4568 00       		.byte	0
 12581 4569 3D       		.uleb128 0x3d
 12582 456a 9E000000 		.4byte	.LVL482
 12583 456e B4610000 		.4byte	0x61b4
 12584 4572 3D       		.uleb128 0x3d
 12585 4573 A4000000 		.4byte	.LVL484
ARM GAS  /tmp/ccTUBOn1.s 			page 222


 12586 4577 BF610000 		.4byte	0x61bf
 12587 457b 3D       		.uleb128 0x3d
 12588 457c AC000000 		.4byte	.LVL486
 12589 4580 CA610000 		.4byte	0x61ca
 12590 4584 39       		.uleb128 0x39
 12591 4585 B8000000 		.4byte	.LVL487
 12592 4589 88610000 		.4byte	0x6188
 12593 458d A5450000 		.4byte	0x45a5
 12594 4591 3A       		.uleb128 0x3a
 12595 4592 01       		.uleb128 0x1
 12596 4593 50       		.byte	0x50
 12597 4594 03       		.uleb128 0x3
 12598 4595 0A       		.byte	0xa
 12599 4596 60EA     		.2byte	0xea60
 12600 4598 3A       		.uleb128 0x3a
 12601 4599 02       		.uleb128 0x2
 12602 459a 90       		.byte	0x90
 12603 459b 40       		.uleb128 0x40
 12604 459c 07       		.uleb128 0x7
 12605 459d F4       		.byte	0xf4
 12606 459e 25       		.uleb128 0x25
 12607 459f 04       		.byte	0x4
 12608 45a0 00000000 		.4byte	0
 12609 45a4 00       		.byte	0
 12610 45a5 3D       		.uleb128 0x3d
 12611 45a6 BC000000 		.4byte	.LVL488
 12612 45aa D5610000 		.4byte	0x61d5
 12613 45ae 39       		.uleb128 0x39
 12614 45af E2000000 		.4byte	.LVL489
 12615 45b3 E0610000 		.4byte	0x61e0
 12616 45b7 C3450000 		.4byte	0x45c3
 12617 45bb 3A       		.uleb128 0x3a
 12618 45bc 01       		.uleb128 0x1
 12619 45bd 50       		.byte	0x50
 12620 45be 03       		.uleb128 0x3
 12621 45bf 91       		.byte	0x91
 12622 45c0 B47F     		.sleb128 -76
 12623 45c2 00       		.byte	0
 12624 45c3 39       		.uleb128 0x39
 12625 45c4 74010000 		.4byte	.LVL504
 12626 45c8 7D610000 		.4byte	0x617d
 12627 45cc DF450000 		.4byte	0x45df
 12628 45d0 3A       		.uleb128 0x3a
 12629 45d1 02       		.uleb128 0x2
 12630 45d2 90       		.byte	0x90
 12631 45d3 40       		.uleb128 0x40
 12632 45d4 03       		.uleb128 0x3
 12633 45d5 F5       		.byte	0xf5
 12634 45d6 50       		.uleb128 0x50
 12635 45d7 25       		.uleb128 0x25
 12636 45d8 3A       		.uleb128 0x3a
 12637 45d9 01       		.uleb128 0x1
 12638 45da 50       		.byte	0x50
 12639 45db 02       		.uleb128 0x2
 12640 45dc 08       		.byte	0x8
 12641 45dd 64       		.byte	0x64
 12642 45de 00       		.byte	0
ARM GAS  /tmp/ccTUBOn1.s 			page 223


 12643 45df 39       		.uleb128 0x39
 12644 45e0 84010000 		.4byte	.LVL507
 12645 45e4 EB610000 		.4byte	0x61eb
 12646 45e8 00460000 		.4byte	0x4600
 12647 45ec 3A       		.uleb128 0x3a
 12648 45ed 02       		.uleb128 0x2
 12649 45ee 90       		.byte	0x90
 12650 45ef 40       		.uleb128 0x40
 12651 45f0 03       		.uleb128 0x3
 12652 45f1 F5       		.byte	0xf5
 12653 45f2 50       		.uleb128 0x50
 12654 45f3 25       		.uleb128 0x25
 12655 45f4 3A       		.uleb128 0x3a
 12656 45f5 01       		.uleb128 0x1
 12657 45f6 50       		.byte	0x50
 12658 45f7 02       		.uleb128 0x2
 12659 45f8 08       		.byte	0x8
 12660 45f9 64       		.byte	0x64
 12661 45fa 3A       		.uleb128 0x3a
 12662 45fb 01       		.uleb128 0x1
 12663 45fc 51       		.byte	0x51
 12664 45fd 01       		.uleb128 0x1
 12665 45fe 30       		.byte	0x30
 12666 45ff 00       		.byte	0
 12667 4600 39       		.uleb128 0x39
 12668 4601 B2010000 		.4byte	.LVL511
 12669 4605 F6610000 		.4byte	0x61f6
 12670 4609 2D460000 		.4byte	0x462d
 12671 460d 3A       		.uleb128 0x3a
 12672 460e 01       		.uleb128 0x1
 12673 460f 50       		.byte	0x50
 12674 4610 03       		.uleb128 0x3
 12675 4611 91       		.byte	0x91
 12676 4612 B87F     		.sleb128 -72
 12677 4614 3A       		.uleb128 0x3a
 12678 4615 02       		.uleb128 0x2
 12679 4616 90       		.byte	0x90
 12680 4617 40       		.uleb128 0x40
 12681 4618 07       		.uleb128 0x7
 12682 4619 F4       		.byte	0xf4
 12683 461a 25       		.uleb128 0x25
 12684 461b 04       		.byte	0x4
 12685 461c 0000C8C3 		.4byte	0xc3c80000
 12686 4620 3A       		.uleb128 0x3a
 12687 4621 02       		.uleb128 0x2
 12688 4622 90       		.byte	0x90
 12689 4623 41       		.uleb128 0x41
 12690 4624 07       		.uleb128 0x7
 12691 4625 F4       		.byte	0xf4
 12692 4626 25       		.uleb128 0x25
 12693 4627 04       		.byte	0x4
 12694 4628 0000C843 		.4byte	0x43c80000
 12695 462c 00       		.byte	0
 12696 462d 39       		.uleb128 0x39
 12697 462e BE010000 		.4byte	.LVL512
 12698 4632 3B610000 		.4byte	0x613b
 12699 4636 41460000 		.4byte	0x4641
ARM GAS  /tmp/ccTUBOn1.s 			page 224


 12700 463a 3A       		.uleb128 0x3a
 12701 463b 01       		.uleb128 0x1
 12702 463c 50       		.byte	0x50
 12703 463d 02       		.uleb128 0x2
 12704 463e 75       		.byte	0x75
 12705 463f 00       		.sleb128 0
 12706 4640 00       		.byte	0
 12707 4641 39       		.uleb128 0x39
 12708 4642 E2010000 		.4byte	.LVL513
 12709 4646 8B4B0000 		.4byte	0x4b8b
 12710 464a 76460000 		.4byte	0x4676
 12711 464e 3A       		.uleb128 0x3a
 12712 464f 02       		.uleb128 0x2
 12713 4650 90       		.byte	0x90
 12714 4651 41       		.uleb128 0x41
 12715 4652 07       		.uleb128 0x7
 12716 4653 F4       		.byte	0xf4
 12717 4654 25       		.uleb128 0x25
 12718 4655 04       		.byte	0x4
 12719 4656 9A99993E 		.4byte	0x3e99999a
 12720 465a 3A       		.uleb128 0x3a
 12721 465b 02       		.uleb128 0x2
 12722 465c 90       		.byte	0x90
 12723 465d 42       		.uleb128 0x42
 12724 465e 07       		.uleb128 0x7
 12725 465f F4       		.byte	0xf4
 12726 4660 25       		.uleb128 0x25
 12727 4661 04       		.byte	0x4
 12728 4662 0000E144 		.4byte	0x44e10000
 12729 4666 3A       		.uleb128 0x3a
 12730 4667 02       		.uleb128 0x2
 12731 4668 90       		.byte	0x90
 12732 4669 43       		.uleb128 0x43
 12733 466a 03       		.uleb128 0x3
 12734 466b F5       		.byte	0xf5
 12735 466c 51       		.uleb128 0x51
 12736 466d 25       		.uleb128 0x25
 12737 466e 3A       		.uleb128 0x3a
 12738 466f 01       		.uleb128 0x1
 12739 4670 50       		.byte	0x50
 12740 4671 03       		.uleb128 0x3
 12741 4672 91       		.byte	0x91
 12742 4673 BC7F     		.sleb128 -68
 12743 4675 00       		.byte	0
 12744 4676 39       		.uleb128 0x39
 12745 4677 4A020000 		.4byte	.LVL524
 12746 467b 88610000 		.4byte	0x6188
 12747 467f 92460000 		.4byte	0x4692
 12748 4683 3A       		.uleb128 0x3a
 12749 4684 01       		.uleb128 0x1
 12750 4685 50       		.byte	0x50
 12751 4686 02       		.uleb128 0x2
 12752 4687 78       		.byte	0x78
 12753 4688 00       		.sleb128 0
 12754 4689 3A       		.uleb128 0x3a
 12755 468a 02       		.uleb128 0x2
 12756 468b 90       		.byte	0x90
ARM GAS  /tmp/ccTUBOn1.s 			page 225


 12757 468c 40       		.uleb128 0x40
 12758 468d 03       		.uleb128 0x3
 12759 468e F5       		.byte	0xf5
 12760 468f 55       		.uleb128 0x55
 12761 4690 25       		.uleb128 0x25
 12762 4691 00       		.byte	0
 12763 4692 3D       		.uleb128 0x3d
 12764 4693 4E020000 		.4byte	.LVL525
 12765 4697 93610000 		.4byte	0x6193
 12766 469b 3D       		.uleb128 0x3d
 12767 469c 52020000 		.4byte	.LVL526
 12768 46a0 9E610000 		.4byte	0x619e
 12769 46a4 39       		.uleb128 0x39
 12770 46a5 58020000 		.4byte	.LVL527
 12771 46a9 3B610000 		.4byte	0x613b
 12772 46ad B8460000 		.4byte	0x46b8
 12773 46b1 3A       		.uleb128 0x3a
 12774 46b2 01       		.uleb128 0x1
 12775 46b3 50       		.byte	0x50
 12776 46b4 02       		.uleb128 0x2
 12777 46b5 75       		.byte	0x75
 12778 46b6 00       		.sleb128 0
 12779 46b7 00       		.byte	0
 12780 46b8 39       		.uleb128 0x39
 12781 46b9 62020000 		.4byte	.LVL528
 12782 46bd F5600000 		.4byte	0x60f5
 12783 46c1 CC460000 		.4byte	0x46cc
 12784 46c5 3A       		.uleb128 0x3a
 12785 46c6 01       		.uleb128 0x1
 12786 46c7 50       		.byte	0x50
 12787 46c8 02       		.uleb128 0x2
 12788 46c9 74       		.byte	0x74
 12789 46ca 00       		.sleb128 0
 12790 46cb 00       		.byte	0
 12791 46cc 39       		.uleb128 0x39
 12792 46cd 96020000 		.4byte	.LVL535
 12793 46d1 57470000 		.4byte	0x4757
 12794 46d5 E6460000 		.4byte	0x46e6
 12795 46d9 3A       		.uleb128 0x3a
 12796 46da 01       		.uleb128 0x1
 12797 46db 50       		.byte	0x50
 12798 46dc 02       		.uleb128 0x2
 12799 46dd 76       		.byte	0x76
 12800 46de 00       		.sleb128 0
 12801 46df 3A       		.uleb128 0x3a
 12802 46e0 01       		.uleb128 0x1
 12803 46e1 51       		.byte	0x51
 12804 46e2 02       		.uleb128 0x2
 12805 46e3 77       		.byte	0x77
 12806 46e4 00       		.sleb128 0
 12807 46e5 00       		.byte	0
 12808 46e6 39       		.uleb128 0x39
 12809 46e7 CC020000 		.4byte	.LVL541
 12810 46eb 88610000 		.4byte	0x6188
 12811 46ef FC460000 		.4byte	0x46fc
 12812 46f3 3A       		.uleb128 0x3a
 12813 46f4 02       		.uleb128 0x2
ARM GAS  /tmp/ccTUBOn1.s 			page 226


 12814 46f5 90       		.byte	0x90
 12815 46f6 40       		.uleb128 0x40
 12816 46f7 03       		.uleb128 0x3
 12817 46f8 F5       		.byte	0xf5
 12818 46f9 55       		.uleb128 0x55
 12819 46fa 25       		.uleb128 0x25
 12820 46fb 00       		.byte	0
 12821 46fc 3D       		.uleb128 0x3d
 12822 46fd D0020000 		.4byte	.LVL542
 12823 4701 93610000 		.4byte	0x6193
 12824 4705 3D       		.uleb128 0x3d
 12825 4706 D4020000 		.4byte	.LVL543
 12826 470a 9E610000 		.4byte	0x619e
 12827 470e 39       		.uleb128 0x39
 12828 470f DA020000 		.4byte	.LVL544
 12829 4713 3B610000 		.4byte	0x613b
 12830 4717 22470000 		.4byte	0x4722
 12831 471b 3A       		.uleb128 0x3a
 12832 471c 01       		.uleb128 0x1
 12833 471d 50       		.byte	0x50
 12834 471e 02       		.uleb128 0x2
 12835 471f 74       		.byte	0x74
 12836 4720 00       		.sleb128 0
 12837 4721 00       		.byte	0
 12838 4722 39       		.uleb128 0x39
 12839 4723 00030000 		.4byte	.LVL545
 12840 4727 3B610000 		.4byte	0x613b
 12841 472b 36470000 		.4byte	0x4736
 12842 472f 3A       		.uleb128 0x3a
 12843 4730 01       		.uleb128 0x1
 12844 4731 50       		.byte	0x50
 12845 4732 02       		.uleb128 0x2
 12846 4733 74       		.byte	0x74
 12847 4734 00       		.sleb128 0
 12848 4735 00       		.byte	0
 12849 4736 39       		.uleb128 0x39
 12850 4737 14030000 		.4byte	.LVL549
 12851 473b 3B610000 		.4byte	0x613b
 12852 473f 4D470000 		.4byte	0x474d
 12853 4743 3A       		.uleb128 0x3a
 12854 4744 01       		.uleb128 0x1
 12855 4745 50       		.byte	0x50
 12856 4746 05       		.uleb128 0x5
 12857 4747 03       		.byte	0x3
 12858 4748 00000000 		.4byte	.LANCHOR2
 12859 474c 00       		.byte	0
 12860 474d 3D       		.uleb128 0x3d
 12861 474e 1E030000 		.4byte	.LVL551
 12862 4752 01620000 		.4byte	0x6201
 12863 4756 00       		.byte	0
 12864 4757 33       		.uleb128 0x33
 12865 4758 99090000 		.4byte	.LASF1061
 12866 475c 01       		.byte	0x1
 12867 475d 7B03     		.2byte	0x37b
 12868 475f A6000000 		.4byte	0xa6
 12869 4763 00000000 		.4byte	.LFB271
 12870 4767 4C020000 		.4byte	.LFE271-.LFB271
ARM GAS  /tmp/ccTUBOn1.s 			page 227


 12871 476b 01       		.uleb128 0x1
 12872 476c 9C       		.byte	0x9c
 12873 476d 8B4B0000 		.4byte	0x4b8b
 12874 4771 34       		.uleb128 0x34
 12875 4772 94230000 		.4byte	.LASF1062
 12876 4776 01       		.byte	0x1
 12877 4777 7B03     		.2byte	0x37b
 12878 4779 25000000 		.4byte	0x25
 12879 477d FD070000 		.4byte	.LLST103
 12880 4781 34       		.uleb128 0x34
 12881 4782 C7400000 		.4byte	.LASF1042
 12882 4786 01       		.byte	0x1
 12883 4787 7C03     		.2byte	0x37c
 12884 4789 04170000 		.4byte	0x1704
 12885 478d 39080000 		.4byte	.LLST104
 12886 4791 34       		.uleb128 0x34
 12887 4792 BF030000 		.4byte	.LASF1043
 12888 4796 01       		.byte	0x1
 12889 4797 7C03     		.2byte	0x37c
 12890 4799 04170000 		.4byte	0x1704
 12891 479d 5A080000 		.4byte	.LLST105
 12892 47a1 36       		.uleb128 0x36
 12893 47a2 5D200000 		.4byte	.LASF1044
 12894 47a6 01       		.byte	0x1
 12895 47a7 7D03     		.2byte	0x37d
 12896 47a9 A6000000 		.4byte	0xa6
 12897 47ad 7B080000 		.4byte	.LLST106
 12898 47b1 36       		.uleb128 0x36
 12899 47b2 F1130000 		.4byte	.LASF1045
 12900 47b6 01       		.byte	0x1
 12901 47b7 9A03     		.2byte	0x39a
 12902 47b9 92010000 		.4byte	0x192
 12903 47bd F2080000 		.4byte	.LLST107
 12904 47c1 36       		.uleb128 0x36
 12905 47c2 15410000 		.4byte	.LASF1046
 12906 47c6 01       		.byte	0x1
 12907 47c7 9B03     		.2byte	0x39b
 12908 47c9 25000000 		.4byte	0x25
 12909 47cd 1B090000 		.4byte	.LLST108
 12910 47d1 35       		.uleb128 0x35
 12911 47d2 02200000 		.4byte	.LASF300
 12912 47d6 01       		.byte	0x1
 12913 47d7 A503     		.2byte	0x3a5
 12914 47d9 1B170000 		.4byte	0x171b
 12915 47dd 02       		.uleb128 0x2
 12916 47de 91       		.byte	0x91
 12917 47df 40       		.sleb128 -64
 12918 47e0 37       		.uleb128 0x37
 12919 47e1 72657300 		.ascii	"res\000"
 12920 47e5 01       		.byte	0x1
 12921 47e6 A603     		.2byte	0x3a6
 12922 47e8 04170000 		.4byte	0x1704
 12923 47ec 47090000 		.4byte	.LLST109
 12924 47f0 3C       		.uleb128 0x3c
 12925 47f1 58000000 		.4byte	.LBB62
 12926 47f5 12000000 		.4byte	.LBE62-.LBB62
 12927 47f9 29480000 		.4byte	0x4829
ARM GAS  /tmp/ccTUBOn1.s 			page 228


 12928 47fd 37       		.uleb128 0x37
 12929 47fe 6900     		.ascii	"i\000"
 12930 4800 01       		.byte	0x1
 12931 4801 8903     		.2byte	0x389
 12932 4803 A6000000 		.4byte	0xa6
 12933 4807 95090000 		.4byte	.LLST110
 12934 480b 39       		.uleb128 0x39
 12935 480c 5E000000 		.4byte	.LVL407
 12936 4810 F5600000 		.4byte	0x60f5
 12937 4814 1F480000 		.4byte	0x481f
 12938 4818 3A       		.uleb128 0x3a
 12939 4819 01       		.uleb128 0x1
 12940 481a 50       		.byte	0x50
 12941 481b 02       		.uleb128 0x2
 12942 481c 08       		.byte	0x8
 12943 481d 64       		.byte	0x64
 12944 481e 00       		.byte	0
 12945 481f 3D       		.uleb128 0x3d
 12946 4820 66000000 		.4byte	.LVL410
 12947 4824 72610000 		.4byte	0x6172
 12948 4828 00       		.byte	0
 12949 4829 3C       		.uleb128 0x3c
 12950 482a CA010000 		.4byte	.LBB69
 12951 482e 0C000000 		.4byte	.LBE69-.LBB69
 12952 4832 45480000 		.4byte	0x4845
 12953 4836 37       		.uleb128 0x37
 12954 4837 6900     		.ascii	"i\000"
 12955 4839 01       		.byte	0x1
 12956 483a B003     		.2byte	0x3b0
 12957 483c A6000000 		.4byte	0xa6
 12958 4840 DC090000 		.4byte	.LLST117
 12959 4844 00       		.byte	0
 12960 4845 38       		.uleb128 0x38
 12961 4846 C0010000 		.4byte	.Ldebug_ranges0+0x1c0
 12962 484a DD490000 		.4byte	0x49dd
 12963 484e 36       		.uleb128 0x36
 12964 484f 45240000 		.4byte	.LASF1063
 12965 4853 01       		.byte	0x1
 12966 4854 BF03     		.2byte	0x3bf
 12967 4856 25000000 		.4byte	0x25
 12968 485a 260A0000 		.4byte	.LLST111
 12969 485e 36       		.uleb128 0x36
 12970 485f EE350000 		.4byte	.LASF1064
 12971 4863 01       		.byte	0x1
 12972 4864 C003     		.2byte	0x3c0
 12973 4866 25000000 		.4byte	0x25
 12974 486a 460A0000 		.4byte	.LLST112
 12975 486e 36       		.uleb128 0x36
 12976 486f AB350000 		.4byte	.LASF1065
 12977 4873 01       		.byte	0x1
 12978 4874 C103     		.2byte	0x3c1
 12979 4876 25000000 		.4byte	0x25
 12980 487a 5A0A0000 		.4byte	.LLST113
 12981 487e 36       		.uleb128 0x36
 12982 487f 59150000 		.4byte	.LASF1066
 12983 4883 01       		.byte	0x1
 12984 4884 CD03     		.2byte	0x3cd
ARM GAS  /tmp/ccTUBOn1.s 			page 229


 12985 4886 25000000 		.4byte	0x25
 12986 488a B20A0000 		.4byte	.LLST114
 12987 488e 36       		.uleb128 0x36
 12988 488f 5D030000 		.4byte	.LASF1067
 12989 4893 01       		.byte	0x1
 12990 4894 CE03     		.2byte	0x3ce
 12991 4896 25000000 		.4byte	0x25
 12992 489a C60A0000 		.4byte	.LLST115
 12993 489e 38       		.uleb128 0x38
 12994 489f D8010000 		.4byte	.Ldebug_ranges0+0x1d8
 12995 48a3 E9480000 		.4byte	0x48e9
 12996 48a7 37       		.uleb128 0x37
 12997 48a8 6900     		.ascii	"i\000"
 12998 48aa 01       		.byte	0x1
 12999 48ab C303     		.2byte	0x3c3
 13000 48ad A6000000 		.4byte	0xa6
 13001 48b1 E90A0000 		.4byte	.LLST116
 13002 48b5 39       		.uleb128 0x39
 13003 48b6 0E010000 		.4byte	.LVL432
 13004 48ba 0D620000 		.4byte	0x620d
 13005 48be CB480000 		.4byte	0x48cb
 13006 48c2 3A       		.uleb128 0x3a
 13007 48c3 02       		.uleb128 0x2
 13008 48c4 90       		.byte	0x90
 13009 48c5 40       		.uleb128 0x40
 13010 48c6 03       		.uleb128 0x3
 13011 48c7 F5       		.byte	0xf5
 13012 48c8 50       		.uleb128 0x50
 13013 48c9 25       		.uleb128 0x25
 13014 48ca 00       		.byte	0
 13015 48cb 39       		.uleb128 0x39
 13016 48cc 16010000 		.4byte	.LVL434
 13017 48d0 F5600000 		.4byte	0x60f5
 13018 48d4 DF480000 		.4byte	0x48df
 13019 48d8 3A       		.uleb128 0x3a
 13020 48d9 01       		.uleb128 0x1
 13021 48da 50       		.byte	0x50
 13022 48db 02       		.uleb128 0x2
 13023 48dc 08       		.byte	0x8
 13024 48dd 32       		.byte	0x32
 13025 48de 00       		.byte	0
 13026 48df 3D       		.uleb128 0x3d
 13027 48e0 16020000 		.4byte	.LVL463
 13028 48e4 18620000 		.4byte	0x6218
 13029 48e8 00       		.byte	0
 13030 48e9 3C       		.uleb128 0x3c
 13031 48ea 7C010000 		.4byte	.LBB67
 13032 48ee 36000000 		.4byte	.LBE67-.LBB67
 13033 48f2 53490000 		.4byte	0x4953
 13034 48f6 35       		.uleb128 0x35
 13035 48f7 24360000 		.4byte	.LASF136
 13036 48fb 01       		.byte	0x1
 13037 48fc D103     		.2byte	0x3d1
 13038 48fe 25000000 		.4byte	0x25
 13039 4902 03       		.uleb128 0x3
 13040 4903 91       		.byte	0x91
 13041 4904 B87F     		.sleb128 -72
ARM GAS  /tmp/ccTUBOn1.s 			page 230


 13042 4906 35       		.uleb128 0x35
 13043 4907 16300000 		.4byte	.LASF1068
 13044 490b 01       		.byte	0x1
 13045 490c D103     		.2byte	0x3d1
 13046 490e 25000000 		.4byte	0x25
 13047 4912 03       		.uleb128 0x3
 13048 4913 91       		.byte	0x91
 13049 4914 BC7F     		.sleb128 -68
 13050 4916 35       		.uleb128 0x35
 13051 4917 513C0000 		.4byte	.LASF1069
 13052 491b 01       		.byte	0x1
 13053 491c D203     		.2byte	0x3d2
 13054 491e 04170000 		.4byte	0x1704
 13055 4922 03       		.uleb128 0x3
 13056 4923 91       		.byte	0x91
 13057 4924 B77F     		.sleb128 -73
 13058 4926 3B       		.uleb128 0x3b
 13059 4927 8E010000 		.4byte	.LVL444
 13060 492b 23620000 		.4byte	0x6223
 13061 492f 3A       		.uleb128 0x3a
 13062 4930 02       		.uleb128 0x2
 13063 4931 90       		.byte	0x90
 13064 4932 40       		.uleb128 0x40
 13065 4933 03       		.uleb128 0x3
 13066 4934 F5       		.byte	0xf5
 13067 4935 50       		.uleb128 0x50
 13068 4936 25       		.uleb128 0x25
 13069 4937 3A       		.uleb128 0x3a
 13070 4938 01       		.uleb128 0x1
 13071 4939 50       		.byte	0x50
 13072 493a 01       		.uleb128 0x1
 13073 493b 30       		.byte	0x30
 13074 493c 3A       		.uleb128 0x3a
 13075 493d 01       		.uleb128 0x1
 13076 493e 51       		.byte	0x51
 13077 493f 03       		.uleb128 0x3
 13078 4940 91       		.byte	0x91
 13079 4941 B87F     		.sleb128 -72
 13080 4943 3A       		.uleb128 0x3a
 13081 4944 01       		.uleb128 0x1
 13082 4945 52       		.byte	0x52
 13083 4946 03       		.uleb128 0x3
 13084 4947 91       		.byte	0x91
 13085 4948 BC7F     		.sleb128 -68
 13086 494a 3A       		.uleb128 0x3a
 13087 494b 01       		.uleb128 0x1
 13088 494c 53       		.byte	0x53
 13089 494d 03       		.uleb128 0x3
 13090 494e 91       		.byte	0x91
 13091 494f B77F     		.sleb128 -73
 13092 4951 00       		.byte	0
 13093 4952 00       		.byte	0
 13094 4953 39       		.uleb128 0x39
 13095 4954 E6000000 		.4byte	.LVL427
 13096 4958 3B610000 		.4byte	0x613b
 13097 495c 67490000 		.4byte	0x4967
 13098 4960 3A       		.uleb128 0x3a
ARM GAS  /tmp/ccTUBOn1.s 			page 231


 13099 4961 01       		.uleb128 0x1
 13100 4962 50       		.byte	0x50
 13101 4963 02       		.uleb128 0x2
 13102 4964 78       		.byte	0x78
 13103 4965 00       		.sleb128 0
 13104 4966 00       		.byte	0
 13105 4967 39       		.uleb128 0x39
 13106 4968 F2000000 		.4byte	.LVL428
 13107 496c 0D620000 		.4byte	0x620d
 13108 4970 85490000 		.4byte	0x4985
 13109 4974 3A       		.uleb128 0x3a
 13110 4975 02       		.uleb128 0x2
 13111 4976 90       		.byte	0x90
 13112 4977 40       		.uleb128 0x40
 13113 4978 03       		.uleb128 0x3
 13114 4979 F5       		.byte	0xf5
 13115 497a 50       		.uleb128 0x50
 13116 497b 25       		.uleb128 0x25
 13117 497c 3A       		.uleb128 0x3a
 13118 497d 02       		.uleb128 0x2
 13119 497e 90       		.byte	0x90
 13120 497f 41       		.uleb128 0x41
 13121 4980 03       		.uleb128 0x3
 13122 4981 F5       		.byte	0xf5
 13123 4982 52       		.uleb128 0x52
 13124 4983 25       		.uleb128 0x25
 13125 4984 00       		.byte	0
 13126 4985 39       		.uleb128 0x39
 13127 4986 FA000000 		.4byte	.LVL429
 13128 498a F5600000 		.4byte	0x60f5
 13129 498e 9A490000 		.4byte	0x499a
 13130 4992 3A       		.uleb128 0x3a
 13131 4993 01       		.uleb128 0x1
 13132 4994 50       		.byte	0x50
 13133 4995 03       		.uleb128 0x3
 13134 4996 0A       		.byte	0xa
 13135 4997 1027     		.2byte	0x2710
 13136 4999 00       		.byte	0
 13137 499a 3D       		.uleb128 0x3d
 13138 499b FE000000 		.4byte	.LVL430
 13139 499f 18620000 		.4byte	0x6218
 13140 49a3 3D       		.uleb128 0x3d
 13141 49a4 30010000 		.4byte	.LVL435
 13142 49a8 18620000 		.4byte	0x6218
 13143 49ac 39       		.uleb128 0x39
 13144 49ad 40010000 		.4byte	.LVL438
 13145 49b1 2E620000 		.4byte	0x622e
 13146 49b5 CA490000 		.4byte	0x49ca
 13147 49b9 3A       		.uleb128 0x3a
 13148 49ba 02       		.uleb128 0x2
 13149 49bb 90       		.byte	0x90
 13150 49bc 40       		.uleb128 0x40
 13151 49bd 03       		.uleb128 0x3
 13152 49be F5       		.byte	0xf5
 13153 49bf 55       		.uleb128 0x55
 13154 49c0 25       		.uleb128 0x25
 13155 49c1 3A       		.uleb128 0x3a
ARM GAS  /tmp/ccTUBOn1.s 			page 232


 13156 49c2 02       		.uleb128 0x2
 13157 49c3 90       		.byte	0x90
 13158 49c4 41       		.uleb128 0x41
 13159 49c5 03       		.uleb128 0x3
 13160 49c6 F5       		.byte	0xf5
 13161 49c7 51       		.uleb128 0x51
 13162 49c8 25       		.uleb128 0x25
 13163 49c9 00       		.byte	0
 13164 49ca 3B       		.uleb128 0x3b
 13165 49cb 50010000 		.4byte	.LVL440
 13166 49cf 2E620000 		.4byte	0x622e
 13167 49d3 3A       		.uleb128 0x3a
 13168 49d4 02       		.uleb128 0x2
 13169 49d5 90       		.byte	0x90
 13170 49d6 40       		.uleb128 0x40
 13171 49d7 03       		.uleb128 0x3
 13172 49d8 F5       		.byte	0xf5
 13173 49d9 52       		.uleb128 0x52
 13174 49da 25       		.uleb128 0x25
 13175 49db 00       		.byte	0
 13176 49dc 00       		.byte	0
 13177 49dd 3D       		.uleb128 0x3d
 13178 49de 16000000 		.4byte	.LVL402
 13179 49e2 30610000 		.4byte	0x6130
 13180 49e6 39       		.uleb128 0x39
 13181 49e7 26000000 		.4byte	.LVL403
 13182 49eb 21610000 		.4byte	0x6121
 13183 49ef 014A0000 		.4byte	0x4a01
 13184 49f3 3A       		.uleb128 0x3a
 13185 49f4 01       		.uleb128 0x1
 13186 49f5 50       		.byte	0x50
 13187 49f6 02       		.uleb128 0x2
 13188 49f7 78       		.byte	0x78
 13189 49f8 00       		.sleb128 0
 13190 49f9 3A       		.uleb128 0x3a
 13191 49fa 01       		.uleb128 0x1
 13192 49fb 52       		.byte	0x52
 13193 49fc 03       		.uleb128 0x3
 13194 49fd 0A       		.byte	0xa
 13195 49fe C801     		.2byte	0x1c8
 13196 4a00 00       		.byte	0
 13197 4a01 39       		.uleb128 0x39
 13198 4a02 32000000 		.4byte	.LVL404
 13199 4a06 21610000 		.4byte	0x6121
 13200 4a0a 254A0000 		.4byte	0x4a25
 13201 4a0e 3A       		.uleb128 0x3a
 13202 4a0f 01       		.uleb128 0x1
 13203 4a10 50       		.byte	0x50
 13204 4a11 05       		.uleb128 0x5
 13205 4a12 03       		.byte	0x3
 13206 4a13 00000000 		.4byte	.LANCHOR2
 13207 4a17 3A       		.uleb128 0x3a
 13208 4a18 01       		.uleb128 0x1
 13209 4a19 51       		.byte	0x51
 13210 4a1a 02       		.uleb128 0x2
 13211 4a1b 78       		.byte	0x78
 13212 4a1c 00       		.sleb128 0
ARM GAS  /tmp/ccTUBOn1.s 			page 233


 13213 4a1d 3A       		.uleb128 0x3a
 13214 4a1e 01       		.uleb128 0x1
 13215 4a1f 52       		.byte	0x52
 13216 4a20 03       		.uleb128 0x3
 13217 4a21 0A       		.byte	0xa
 13218 4a22 C801     		.2byte	0x1c8
 13219 4a24 00       		.byte	0
 13220 4a25 39       		.uleb128 0x39
 13221 4a26 56000000 		.4byte	.LVL405
 13222 4a2a 3B610000 		.4byte	0x613b
 13223 4a2e 394A0000 		.4byte	0x4a39
 13224 4a32 3A       		.uleb128 0x3a
 13225 4a33 01       		.uleb128 0x1
 13226 4a34 50       		.byte	0x50
 13227 4a35 02       		.uleb128 0x2
 13228 4a36 78       		.byte	0x78
 13229 4a37 00       		.sleb128 0
 13230 4a38 00       		.byte	0
 13231 4a39 3D       		.uleb128 0x3d
 13232 4a3a 6E000000 		.4byte	.LVL412
 13233 4a3e 72610000 		.4byte	0x6172
 13234 4a42 39       		.uleb128 0x39
 13235 4a43 7E000000 		.4byte	.LVL413
 13236 4a47 F5600000 		.4byte	0x60f5
 13237 4a4b 574A0000 		.4byte	0x4a57
 13238 4a4f 3A       		.uleb128 0x3a
 13239 4a50 01       		.uleb128 0x1
 13240 4a51 50       		.byte	0x50
 13241 4a52 03       		.uleb128 0x3
 13242 4a53 0A       		.byte	0xa
 13243 4a54 1027     		.2byte	0x2710
 13244 4a56 00       		.byte	0
 13245 4a57 3D       		.uleb128 0x3d
 13246 4a58 82000000 		.4byte	.LVL414
 13247 4a5c B4610000 		.4byte	0x61b4
 13248 4a60 3D       		.uleb128 0x3d
 13249 4a61 88000000 		.4byte	.LVL416
 13250 4a65 BF610000 		.4byte	0x61bf
 13251 4a69 3D       		.uleb128 0x3d
 13252 4a6a 90000000 		.4byte	.LVL418
 13253 4a6e CA610000 		.4byte	0x61ca
 13254 4a72 39       		.uleb128 0x39
 13255 4a73 9C000000 		.4byte	.LVL419
 13256 4a77 88610000 		.4byte	0x6188
 13257 4a7b 934A0000 		.4byte	0x4a93
 13258 4a7f 3A       		.uleb128 0x3a
 13259 4a80 01       		.uleb128 0x1
 13260 4a81 50       		.byte	0x50
 13261 4a82 03       		.uleb128 0x3
 13262 4a83 0A       		.byte	0xa
 13263 4a84 60EA     		.2byte	0xea60
 13264 4a86 3A       		.uleb128 0x3a
 13265 4a87 02       		.uleb128 0x2
 13266 4a88 90       		.byte	0x90
 13267 4a89 40       		.uleb128 0x40
 13268 4a8a 07       		.uleb128 0x7
 13269 4a8b F4       		.byte	0xf4
ARM GAS  /tmp/ccTUBOn1.s 			page 234


 13270 4a8c 25       		.uleb128 0x25
 13271 4a8d 04       		.byte	0x4
 13272 4a8e 00000000 		.4byte	0
 13273 4a92 00       		.byte	0
 13274 4a93 3D       		.uleb128 0x3d
 13275 4a94 A0000000 		.4byte	.LVL420
 13276 4a98 D5610000 		.4byte	0x61d5
 13277 4a9c 39       		.uleb128 0x39
 13278 4a9d AA000000 		.4byte	.LVL421
 13279 4aa1 3B610000 		.4byte	0x613b
 13280 4aa5 B04A0000 		.4byte	0x4ab0
 13281 4aa9 3A       		.uleb128 0x3a
 13282 4aaa 01       		.uleb128 0x1
 13283 4aab 50       		.byte	0x50
 13284 4aac 02       		.uleb128 0x2
 13285 4aad 78       		.byte	0x78
 13286 4aae 00       		.sleb128 0
 13287 4aaf 00       		.byte	0
 13288 4ab0 39       		.uleb128 0x39
 13289 4ab1 B4000000 		.4byte	.LVL422
 13290 4ab5 39620000 		.4byte	0x6239
 13291 4ab9 CC4A0000 		.4byte	0x4acc
 13292 4abd 3A       		.uleb128 0x3a
 13293 4abe 02       		.uleb128 0x2
 13294 4abf 90       		.byte	0x90
 13295 4ac0 40       		.uleb128 0x40
 13296 4ac1 03       		.uleb128 0x3
 13297 4ac2 F5       		.byte	0xf5
 13298 4ac3 50       		.uleb128 0x50
 13299 4ac4 25       		.uleb128 0x25
 13300 4ac5 3A       		.uleb128 0x3a
 13301 4ac6 01       		.uleb128 0x1
 13302 4ac7 50       		.byte	0x50
 13303 4ac8 02       		.uleb128 0x2
 13304 4ac9 91       		.byte	0x91
 13305 4aca 40       		.sleb128 -64
 13306 4acb 00       		.byte	0
 13307 4acc 3D       		.uleb128 0x3d
 13308 4acd BA000000 		.4byte	.LVL424
 13309 4ad1 CA610000 		.4byte	0x61ca
 13310 4ad5 39       		.uleb128 0x39
 13311 4ad6 C6000000 		.4byte	.LVL425
 13312 4ada 88610000 		.4byte	0x6188
 13313 4ade F64A0000 		.4byte	0x4af6
 13314 4ae2 3A       		.uleb128 0x3a
 13315 4ae3 01       		.uleb128 0x1
 13316 4ae4 50       		.byte	0x50
 13317 4ae5 03       		.uleb128 0x3
 13318 4ae6 0A       		.byte	0xa
 13319 4ae7 60EA     		.2byte	0xea60
 13320 4ae9 3A       		.uleb128 0x3a
 13321 4aea 02       		.uleb128 0x2
 13322 4aeb 90       		.byte	0x90
 13323 4aec 40       		.uleb128 0x40
 13324 4aed 07       		.uleb128 0x7
 13325 4aee F4       		.byte	0xf4
 13326 4aef 25       		.uleb128 0x25
ARM GAS  /tmp/ccTUBOn1.s 			page 235


 13327 4af0 04       		.byte	0x4
 13328 4af1 00000000 		.4byte	0
 13329 4af5 00       		.byte	0
 13330 4af6 3D       		.uleb128 0x3d
 13331 4af7 CA000000 		.4byte	.LVL426
 13332 4afb D5610000 		.4byte	0x61d5
 13333 4aff 39       		.uleb128 0x39
 13334 4b00 E2010000 		.4byte	.LVL453
 13335 4b04 88610000 		.4byte	0x6188
 13336 4b08 1B4B0000 		.4byte	0x4b1b
 13337 4b0c 3A       		.uleb128 0x3a
 13338 4b0d 01       		.uleb128 0x1
 13339 4b0e 50       		.byte	0x50
 13340 4b0f 02       		.uleb128 0x2
 13341 4b10 77       		.byte	0x77
 13342 4b11 00       		.sleb128 0
 13343 4b12 3A       		.uleb128 0x3a
 13344 4b13 02       		.uleb128 0x2
 13345 4b14 90       		.byte	0x90
 13346 4b15 40       		.uleb128 0x40
 13347 4b16 03       		.uleb128 0x3
 13348 4b17 F5       		.byte	0xf5
 13349 4b18 54       		.uleb128 0x54
 13350 4b19 25       		.uleb128 0x25
 13351 4b1a 00       		.byte	0
 13352 4b1b 3D       		.uleb128 0x3d
 13353 4b1c E6010000 		.4byte	.LVL454
 13354 4b20 93610000 		.4byte	0x6193
 13355 4b24 3D       		.uleb128 0x3d
 13356 4b25 EA010000 		.4byte	.LVL455
 13357 4b29 9E610000 		.4byte	0x619e
 13358 4b2d 39       		.uleb128 0x39
 13359 4b2e F0010000 		.4byte	.LVL456
 13360 4b32 3B610000 		.4byte	0x613b
 13361 4b36 444B0000 		.4byte	0x4b44
 13362 4b3a 3A       		.uleb128 0x3a
 13363 4b3b 01       		.uleb128 0x1
 13364 4b3c 50       		.byte	0x50
 13365 4b3d 05       		.uleb128 0x5
 13366 4b3e 03       		.byte	0x3
 13367 4b3f 00000000 		.4byte	.LANCHOR2
 13368 4b43 00       		.byte	0
 13369 4b44 39       		.uleb128 0x39
 13370 4b45 FC010000 		.4byte	.LVL457
 13371 4b49 67610000 		.4byte	0x6167
 13372 4b4d 604B0000 		.4byte	0x4b60
 13373 4b51 3A       		.uleb128 0x3a
 13374 4b52 01       		.uleb128 0x1
 13375 4b53 50       		.byte	0x50
 13376 4b54 01       		.uleb128 0x1
 13377 4b55 3E       		.byte	0x3e
 13378 4b56 3A       		.uleb128 0x3a
 13379 4b57 01       		.uleb128 0x1
 13380 4b58 51       		.byte	0x51
 13381 4b59 05       		.uleb128 0x5
 13382 4b5a 03       		.byte	0x3
 13383 4b5b 00000000 		.4byte	.LANCHOR2
ARM GAS  /tmp/ccTUBOn1.s 			page 236


 13384 4b5f 00       		.byte	0
 13385 4b60 39       		.uleb128 0x39
 13386 4b61 26020000 		.4byte	.LVL466
 13387 4b65 96590000 		.4byte	0x5996
 13388 4b69 774B0000 		.4byte	0x4b77
 13389 4b6d 3A       		.uleb128 0x3a
 13390 4b6e 01       		.uleb128 0x1
 13391 4b6f 50       		.byte	0x50
 13392 4b70 05       		.uleb128 0x5
 13393 4b71 03       		.byte	0x3
 13394 4b72 00000000 		.4byte	.LANCHOR2
 13395 4b76 00       		.byte	0
 13396 4b77 3B       		.uleb128 0x3b
 13397 4b78 2E020000 		.4byte	.LVL468
 13398 4b7c 3B610000 		.4byte	0x613b
 13399 4b80 3A       		.uleb128 0x3a
 13400 4b81 01       		.uleb128 0x1
 13401 4b82 50       		.byte	0x50
 13402 4b83 05       		.uleb128 0x5
 13403 4b84 03       		.byte	0x3
 13404 4b85 00000000 		.4byte	.LANCHOR2
 13405 4b89 00       		.byte	0
 13406 4b8a 00       		.byte	0
 13407 4b8b 33       		.uleb128 0x33
 13408 4b8c 1A230000 		.4byte	.LASF1070
 13409 4b90 01       		.byte	0x1
 13410 4b91 EA02     		.2byte	0x2ea
 13411 4b93 04170000 		.4byte	0x1704
 13412 4b97 00000000 		.4byte	.LFB270
 13413 4b9b C4020000 		.4byte	.LFE270-.LFB270
 13414 4b9f 01       		.uleb128 0x1
 13415 4ba0 9C       		.byte	0x9c
 13416 4ba1 884F0000 		.4byte	0x4f88
 13417 4ba5 34       		.uleb128 0x34
 13418 4ba6 94230000 		.4byte	.LASF1062
 13419 4baa 01       		.byte	0x1
 13420 4bab EA02     		.2byte	0x2ea
 13421 4bad 25000000 		.4byte	0x25
 13422 4bb1 300B0000 		.4byte	.LLST80
 13423 4bb5 34       		.uleb128 0x34
 13424 4bb6 732E0000 		.4byte	.LASF1071
 13425 4bba 01       		.byte	0x1
 13426 4bbb EA02     		.2byte	0x2ea
 13427 4bbd 25000000 		.4byte	0x25
 13428 4bc1 980B0000 		.4byte	.LLST81
 13429 4bc5 34       		.uleb128 0x34
 13430 4bc6 59190000 		.4byte	.LASF1072
 13431 4bca 01       		.byte	0x1
 13432 4bcb EB02     		.2byte	0x2eb
 13433 4bcd 25000000 		.4byte	0x25
 13434 4bd1 E40B0000 		.4byte	.LLST82
 13435 4bd5 3F       		.uleb128 0x3f
 13436 4bd6 72657300 		.ascii	"res\000"
 13437 4bda 01       		.byte	0x1
 13438 4bdb EB02     		.2byte	0x2eb
 13439 4bdd 25000000 		.4byte	0x25
 13440 4be1 300C0000 		.4byte	.LLST83
ARM GAS  /tmp/ccTUBOn1.s 			page 237


 13441 4be5 34       		.uleb128 0x34
 13442 4be6 500A0000 		.4byte	.LASF1073
 13443 4bea 01       		.byte	0x1
 13444 4beb EB02     		.2byte	0x2eb
 13445 4bed 884F0000 		.4byte	0x4f88
 13446 4bf1 500C0000 		.4byte	.LLST84
 13447 4bf5 36       		.uleb128 0x36
 13448 4bf6 5D200000 		.4byte	.LASF1044
 13449 4bfa 01       		.byte	0x1
 13450 4bfb EC02     		.2byte	0x2ec
 13451 4bfd 04170000 		.4byte	0x1704
 13452 4c01 6E0C0000 		.4byte	.LLST85
 13453 4c05 36       		.uleb128 0x36
 13454 4c06 F1130000 		.4byte	.LASF1045
 13455 4c0a 01       		.byte	0x1
 13456 4c0b 0903     		.2byte	0x309
 13457 4c0d 92010000 		.4byte	0x192
 13458 4c11 990C0000 		.4byte	.LLST86
 13459 4c15 36       		.uleb128 0x36
 13460 4c16 15410000 		.4byte	.LASF1046
 13461 4c1a 01       		.byte	0x1
 13462 4c1b 0A03     		.2byte	0x30a
 13463 4c1d 25000000 		.4byte	0x25
 13464 4c21 C20C0000 		.4byte	.LLST87
 13465 4c25 37       		.uleb128 0x37
 13466 4c26 636E7400 		.ascii	"cnt\000"
 13467 4c2a 01       		.byte	0x1
 13468 4c2b 1003     		.2byte	0x310
 13469 4c2d A6000000 		.4byte	0xa6
 13470 4c31 FA0C0000 		.4byte	.LLST88
 13471 4c35 36       		.uleb128 0x36
 13472 4c36 CB220000 		.4byte	.LASF1074
 13473 4c3a 01       		.byte	0x1
 13474 4c3b 1103     		.2byte	0x311
 13475 4c3d 25000000 		.4byte	0x25
 13476 4c41 580D0000 		.4byte	.LLST89
 13477 4c45 36       		.uleb128 0x36
 13478 4c46 F3140000 		.4byte	.LASF1075
 13479 4c4a 01       		.byte	0x1
 13480 4c4b 1603     		.2byte	0x316
 13481 4c4d 25000000 		.4byte	0x25
 13482 4c51 700D0000 		.4byte	.LLST90
 13483 4c55 36       		.uleb128 0x36
 13484 4c56 81030000 		.4byte	.LASF1076
 13485 4c5a 01       		.byte	0x1
 13486 4c5b 1703     		.2byte	0x317
 13487 4c5d 25000000 		.4byte	0x25
 13488 4c61 AC0D0000 		.4byte	.LLST91
 13489 4c65 36       		.uleb128 0x36
 13490 4c66 050F0000 		.4byte	.LASF1077
 13491 4c6a 01       		.byte	0x1
 13492 4c6b 1F03     		.2byte	0x31f
 13493 4c6d 25000000 		.4byte	0x25
 13494 4c71 E80D0000 		.4byte	.LLST92
 13495 4c75 36       		.uleb128 0x36
 13496 4c76 151C0000 		.4byte	.LASF1078
 13497 4c7a 01       		.byte	0x1
ARM GAS  /tmp/ccTUBOn1.s 			page 238


 13498 4c7b 2003     		.2byte	0x320
 13499 4c7d B2000000 		.4byte	0xb2
 13500 4c81 240E0000 		.4byte	.LLST93
 13501 4c85 3C       		.uleb128 0x3c
 13502 4c86 5C000000 		.4byte	.LBB48
 13503 4c8a 12000000 		.4byte	.LBE48-.LBB48
 13504 4c8e BE4C0000 		.4byte	0x4cbe
 13505 4c92 37       		.uleb128 0x37
 13506 4c93 6900     		.ascii	"i\000"
 13507 4c95 01       		.byte	0x1
 13508 4c96 F802     		.2byte	0x2f8
 13509 4c98 A6000000 		.4byte	0xa6
 13510 4c9c 480E0000 		.4byte	.LLST94
 13511 4ca0 39       		.uleb128 0x39
 13512 4ca1 62000000 		.4byte	.LVL325
 13513 4ca5 F5600000 		.4byte	0x60f5
 13514 4ca9 B44C0000 		.4byte	0x4cb4
 13515 4cad 3A       		.uleb128 0x3a
 13516 4cae 01       		.uleb128 0x1
 13517 4caf 50       		.byte	0x50
 13518 4cb0 02       		.uleb128 0x2
 13519 4cb1 08       		.byte	0x8
 13520 4cb2 64       		.byte	0x64
 13521 4cb3 00       		.byte	0
 13522 4cb4 3D       		.uleb128 0x3d
 13523 4cb5 6A000000 		.4byte	.LVL328
 13524 4cb9 72610000 		.4byte	0x6172
 13525 4cbd 00       		.byte	0
 13526 4cbe 3C       		.uleb128 0x3c
 13527 4cbf BA000000 		.4byte	.LBB49
 13528 4cc3 1E000000 		.4byte	.LBE49-.LBB49
 13529 4cc7 F24C0000 		.4byte	0x4cf2
 13530 4ccb 37       		.uleb128 0x37
 13531 4ccc 6900     		.ascii	"i\000"
 13532 4cce 01       		.byte	0x1
 13533 4ccf 1803     		.2byte	0x318
 13534 4cd1 A6000000 		.4byte	0xa6
 13535 4cd5 8F0E0000 		.4byte	.LLST95
 13536 4cd9 3D       		.uleb128 0x3d
 13537 4cda C2000000 		.4byte	.LVL341
 13538 4cde 44620000 		.4byte	0x6244
 13539 4ce2 3B       		.uleb128 0x3b
 13540 4ce3 D0000000 		.4byte	.LVL343
 13541 4ce7 F5600000 		.4byte	0x60f5
 13542 4ceb 3A       		.uleb128 0x3a
 13543 4cec 01       		.uleb128 0x1
 13544 4ced 50       		.byte	0x50
 13545 4cee 01       		.uleb128 0x1
 13546 4cef 3A       		.byte	0x3a
 13547 4cf0 00       		.byte	0
 13548 4cf1 00       		.byte	0
 13549 4cf2 38       		.uleb128 0x38
 13550 4cf3 58010000 		.4byte	.Ldebug_ranges0+0x158
 13551 4cf7 3E4D0000 		.4byte	0x4d3e
 13552 4cfb 36       		.uleb128 0x36
 13553 4cfc BA230000 		.4byte	.LASF1079
 13554 4d00 01       		.byte	0x1
ARM GAS  /tmp/ccTUBOn1.s 			page 239


 13555 4d01 2903     		.2byte	0x329
 13556 4d03 25000000 		.4byte	0x25
 13557 4d07 C50E0000 		.4byte	.LLST96
 13558 4d0b 39       		.uleb128 0x39
 13559 4d0c 06010000 		.4byte	.LVL348
 13560 4d10 4F620000 		.4byte	0x624f
 13561 4d14 214D0000 		.4byte	0x4d21
 13562 4d18 3A       		.uleb128 0x3a
 13563 4d19 02       		.uleb128 0x2
 13564 4d1a 90       		.byte	0x90
 13565 4d1b 40       		.uleb128 0x40
 13566 4d1c 03       		.uleb128 0x3
 13567 4d1d F5       		.byte	0xf5
 13568 4d1e 54       		.uleb128 0x54
 13569 4d1f 25       		.uleb128 0x25
 13570 4d20 00       		.byte	0
 13571 4d21 39       		.uleb128 0x39
 13572 4d22 16010000 		.4byte	.LVL350
 13573 4d26 F5600000 		.4byte	0x60f5
 13574 4d2a 344D0000 		.4byte	0x4d34
 13575 4d2e 3A       		.uleb128 0x3a
 13576 4d2f 01       		.uleb128 0x1
 13577 4d30 50       		.byte	0x50
 13578 4d31 01       		.uleb128 0x1
 13579 4d32 3A       		.byte	0x3a
 13580 4d33 00       		.byte	0
 13581 4d34 3D       		.uleb128 0x3d
 13582 4d35 1A010000 		.4byte	.LVL351
 13583 4d39 44620000 		.4byte	0x6244
 13584 4d3d 00       		.byte	0
 13585 4d3e 38       		.uleb128 0x38
 13586 4d3f 98010000 		.4byte	.Ldebug_ranges0+0x198
 13587 4d43 F94D0000 		.4byte	0x4df9
 13588 4d47 36       		.uleb128 0x36
 13589 4d48 CB040000 		.4byte	.LASF1080
 13590 4d4c 01       		.byte	0x1
 13591 4d4d 4803     		.2byte	0x348
 13592 4d4f 25000000 		.4byte	0x25
 13593 4d53 FD0E0000 		.4byte	.LLST97
 13594 4d57 36       		.uleb128 0x36
 13595 4d58 A2290000 		.4byte	.LASF1081
 13596 4d5c 01       		.byte	0x1
 13597 4d5d 4903     		.2byte	0x349
 13598 4d5f 25000000 		.4byte	0x25
 13599 4d63 390F0000 		.4byte	.LLST98
 13600 4d67 36       		.uleb128 0x36
 13601 4d68 C5290000 		.4byte	.LASF1082
 13602 4d6c 01       		.byte	0x1
 13603 4d6d 4A03     		.2byte	0x34a
 13604 4d6f 25000000 		.4byte	0x25
 13605 4d73 7B0F0000 		.4byte	.LLST99
 13606 4d77 36       		.uleb128 0x36
 13607 4d78 12250000 		.4byte	.LASF1083
 13608 4d7c 01       		.byte	0x1
 13609 4d7d 4B03     		.2byte	0x34b
 13610 4d7f 25000000 		.4byte	0x25
 13611 4d83 B70F0000 		.4byte	.LLST100
ARM GAS  /tmp/ccTUBOn1.s 			page 240


 13612 4d87 36       		.uleb128 0x36
 13613 4d88 C8210000 		.4byte	.LASF1084
 13614 4d8c 01       		.byte	0x1
 13615 4d8d 4C03     		.2byte	0x34c
 13616 4d8f 25000000 		.4byte	0x25
 13617 4d93 F30F0000 		.4byte	.LLST101
 13618 4d97 3C       		.uleb128 0x3c
 13619 4d98 B4010000 		.4byte	.LBB55
 13620 4d9c 32000000 		.4byte	.LBE55-.LBB55
 13621 4da0 E64D0000 		.4byte	0x4de6
 13622 4da4 37       		.uleb128 0x37
 13623 4da5 6900     		.ascii	"i\000"
 13624 4da7 01       		.byte	0x1
 13625 4da8 4E03     		.2byte	0x34e
 13626 4daa A6000000 		.4byte	0xa6
 13627 4dae 17100000 		.4byte	.LLST102
 13628 4db2 3D       		.uleb128 0x3d
 13629 4db3 BC010000 		.4byte	.LVL366
 13630 4db7 5A620000 		.4byte	0x625a
 13631 4dbb 3D       		.uleb128 0x3d
 13632 4dbc C4010000 		.4byte	.LVL368
 13633 4dc0 65620000 		.4byte	0x6265
 13634 4dc4 3D       		.uleb128 0x3d
 13635 4dc5 CC010000 		.4byte	.LVL370
 13636 4dc9 70620000 		.4byte	0x6270
 13637 4dcd 3D       		.uleb128 0x3d
 13638 4dce D4010000 		.4byte	.LVL372
 13639 4dd2 7B620000 		.4byte	0x627b
 13640 4dd6 3B       		.uleb128 0x3b
 13641 4dd7 DE010000 		.4byte	.LVL374
 13642 4ddb F5600000 		.4byte	0x60f5
 13643 4ddf 3A       		.uleb128 0x3a
 13644 4de0 01       		.uleb128 0x1
 13645 4de1 50       		.byte	0x50
 13646 4de2 01       		.uleb128 0x1
 13647 4de3 3A       		.byte	0x3a
 13648 4de4 00       		.byte	0
 13649 4de5 00       		.byte	0
 13650 4de6 3D       		.uleb128 0x3d
 13651 4de7 90020000 		.4byte	.LVL398
 13652 4deb 01620000 		.4byte	0x6201
 13653 4def 3D       		.uleb128 0x3d
 13654 4df0 96020000 		.4byte	.LVL400
 13655 4df4 01620000 		.4byte	0x6201
 13656 4df8 00       		.byte	0
 13657 4df9 3D       		.uleb128 0x3d
 13658 4dfa 1E000000 		.4byte	.LVL320
 13659 4dfe 30610000 		.4byte	0x6130
 13660 4e02 39       		.uleb128 0x39
 13661 4e03 2C000000 		.4byte	.LVL321
 13662 4e07 21610000 		.4byte	0x6121
 13663 4e0b 1D4E0000 		.4byte	0x4e1d
 13664 4e0f 3A       		.uleb128 0x3a
 13665 4e10 01       		.uleb128 0x1
 13666 4e11 50       		.byte	0x50
 13667 4e12 02       		.uleb128 0x2
 13668 4e13 75       		.byte	0x75
ARM GAS  /tmp/ccTUBOn1.s 			page 241


 13669 4e14 00       		.sleb128 0
 13670 4e15 3A       		.uleb128 0x3a
 13671 4e16 01       		.uleb128 0x1
 13672 4e17 52       		.byte	0x52
 13673 4e18 03       		.uleb128 0x3
 13674 4e19 0A       		.byte	0xa
 13675 4e1a C801     		.2byte	0x1c8
 13676 4e1c 00       		.byte	0
 13677 4e1d 39       		.uleb128 0x39
 13678 4e1e 38000000 		.4byte	.LVL322
 13679 4e22 21610000 		.4byte	0x6121
 13680 4e26 414E0000 		.4byte	0x4e41
 13681 4e2a 3A       		.uleb128 0x3a
 13682 4e2b 01       		.uleb128 0x1
 13683 4e2c 50       		.byte	0x50
 13684 4e2d 05       		.uleb128 0x5
 13685 4e2e 03       		.byte	0x3
 13686 4e2f 00000000 		.4byte	.LANCHOR2
 13687 4e33 3A       		.uleb128 0x3a
 13688 4e34 01       		.uleb128 0x1
 13689 4e35 51       		.byte	0x51
 13690 4e36 02       		.uleb128 0x2
 13691 4e37 75       		.byte	0x75
 13692 4e38 00       		.sleb128 0
 13693 4e39 3A       		.uleb128 0x3a
 13694 4e3a 01       		.uleb128 0x1
 13695 4e3b 52       		.byte	0x52
 13696 4e3c 03       		.uleb128 0x3
 13697 4e3d 0A       		.byte	0xa
 13698 4e3e C801     		.2byte	0x1c8
 13699 4e40 00       		.byte	0
 13700 4e41 39       		.uleb128 0x39
 13701 4e42 5A000000 		.4byte	.LVL323
 13702 4e46 3B610000 		.4byte	0x613b
 13703 4e4a 554E0000 		.4byte	0x4e55
 13704 4e4e 3A       		.uleb128 0x3a
 13705 4e4f 01       		.uleb128 0x1
 13706 4e50 50       		.byte	0x50
 13707 4e51 02       		.uleb128 0x2
 13708 4e52 75       		.byte	0x75
 13709 4e53 00       		.sleb128 0
 13710 4e54 00       		.byte	0
 13711 4e55 3D       		.uleb128 0x3d
 13712 4e56 72000000 		.4byte	.LVL330
 13713 4e5a 72610000 		.4byte	0x6172
 13714 4e5e 39       		.uleb128 0x39
 13715 4e5f 80000000 		.4byte	.LVL331
 13716 4e63 F5600000 		.4byte	0x60f5
 13717 4e67 734E0000 		.4byte	0x4e73
 13718 4e6b 3A       		.uleb128 0x3a
 13719 4e6c 01       		.uleb128 0x1
 13720 4e6d 50       		.byte	0x50
 13721 4e6e 03       		.uleb128 0x3
 13722 4e6f 0A       		.byte	0xa
 13723 4e70 1027     		.2byte	0x2710
 13724 4e72 00       		.byte	0
 13725 4e73 3D       		.uleb128 0x3d
ARM GAS  /tmp/ccTUBOn1.s 			page 242


 13726 4e74 84000000 		.4byte	.LVL332
 13727 4e78 B4610000 		.4byte	0x61b4
 13728 4e7c 3D       		.uleb128 0x3d
 13729 4e7d 8A000000 		.4byte	.LVL334
 13730 4e81 BF610000 		.4byte	0x61bf
 13731 4e85 3D       		.uleb128 0x3d
 13732 4e86 92000000 		.4byte	.LVL336
 13733 4e8a CA610000 		.4byte	0x61ca
 13734 4e8e 39       		.uleb128 0x39
 13735 4e8f A2000000 		.4byte	.LVL337
 13736 4e93 88610000 		.4byte	0x6188
 13737 4e97 AB4E0000 		.4byte	0x4eab
 13738 4e9b 3A       		.uleb128 0x3a
 13739 4e9c 01       		.uleb128 0x1
 13740 4e9d 50       		.byte	0x50
 13741 4e9e 03       		.uleb128 0x3
 13742 4e9f 0A       		.byte	0xa
 13743 4ea0 60EA     		.2byte	0xea60
 13744 4ea2 3A       		.uleb128 0x3a
 13745 4ea3 02       		.uleb128 0x2
 13746 4ea4 90       		.byte	0x90
 13747 4ea5 40       		.uleb128 0x40
 13748 4ea6 03       		.uleb128 0x3
 13749 4ea7 F5       		.byte	0xf5
 13750 4ea8 50       		.uleb128 0x50
 13751 4ea9 25       		.uleb128 0x25
 13752 4eaa 00       		.byte	0
 13753 4eab 3D       		.uleb128 0x3d
 13754 4eac A6000000 		.4byte	.LVL338
 13755 4eb0 D5610000 		.4byte	0x61d5
 13756 4eb4 39       		.uleb128 0x39
 13757 4eb5 B2000000 		.4byte	.LVL339
 13758 4eb9 4F620000 		.4byte	0x624f
 13759 4ebd D24E0000 		.4byte	0x4ed2
 13760 4ec1 3A       		.uleb128 0x3a
 13761 4ec2 02       		.uleb128 0x2
 13762 4ec3 90       		.byte	0x90
 13763 4ec4 40       		.uleb128 0x40
 13764 4ec5 03       		.uleb128 0x3
 13765 4ec6 F5       		.byte	0xf5
 13766 4ec7 54       		.uleb128 0x54
 13767 4ec8 25       		.uleb128 0x25
 13768 4ec9 3A       		.uleb128 0x3a
 13769 4eca 02       		.uleb128 0x2
 13770 4ecb 90       		.byte	0x90
 13771 4ecc 41       		.uleb128 0x41
 13772 4ecd 03       		.uleb128 0x3
 13773 4ece F5       		.byte	0xf5
 13774 4ecf 50       		.uleb128 0x50
 13775 4ed0 25       		.uleb128 0x25
 13776 4ed1 00       		.byte	0
 13777 4ed2 3D       		.uleb128 0x3d
 13778 4ed3 66010000 		.4byte	.LVL355
 13779 4ed7 44620000 		.4byte	0x6244
 13780 4edb 39       		.uleb128 0x39
 13781 4edc 88010000 		.4byte	.LVL357
 13782 4ee0 3B610000 		.4byte	0x613b
ARM GAS  /tmp/ccTUBOn1.s 			page 243


 13783 4ee4 F24E0000 		.4byte	0x4ef2
 13784 4ee8 3A       		.uleb128 0x3a
 13785 4ee9 01       		.uleb128 0x1
 13786 4eea 50       		.byte	0x50
 13787 4eeb 05       		.uleb128 0x5
 13788 4eec 03       		.byte	0x3
 13789 4eed 00000000 		.4byte	.LANCHOR2
 13790 4ef1 00       		.byte	0
 13791 4ef2 39       		.uleb128 0x39
 13792 4ef3 A0010000 		.4byte	.LVL361
 13793 4ef7 F5600000 		.4byte	0x60f5
 13794 4efb 074F0000 		.4byte	0x4f07
 13795 4eff 3A       		.uleb128 0x3a
 13796 4f00 01       		.uleb128 0x1
 13797 4f01 50       		.byte	0x50
 13798 4f02 03       		.uleb128 0x3
 13799 4f03 0A       		.byte	0xa
 13800 4f04 1027     		.2byte	0x2710
 13801 4f06 00       		.byte	0
 13802 4f07 39       		.uleb128 0x39
 13803 4f08 42020000 		.4byte	.LVL385
 13804 4f0c 88610000 		.4byte	0x6188
 13805 4f10 234F0000 		.4byte	0x4f23
 13806 4f14 3A       		.uleb128 0x3a
 13807 4f15 01       		.uleb128 0x1
 13808 4f16 50       		.byte	0x50
 13809 4f17 02       		.uleb128 0x2
 13810 4f18 78       		.byte	0x78
 13811 4f19 00       		.sleb128 0
 13812 4f1a 3A       		.uleb128 0x3a
 13813 4f1b 02       		.uleb128 0x2
 13814 4f1c 90       		.byte	0x90
 13815 4f1d 40       		.uleb128 0x40
 13816 4f1e 03       		.uleb128 0x3
 13817 4f1f F5       		.byte	0xf5
 13818 4f20 58       		.uleb128 0x58
 13819 4f21 25       		.uleb128 0x25
 13820 4f22 00       		.byte	0
 13821 4f23 3D       		.uleb128 0x3d
 13822 4f24 46020000 		.4byte	.LVL386
 13823 4f28 93610000 		.4byte	0x6193
 13824 4f2c 3D       		.uleb128 0x3d
 13825 4f2d 4A020000 		.4byte	.LVL387
 13826 4f31 9E610000 		.4byte	0x619e
 13827 4f35 39       		.uleb128 0x39
 13828 4f36 50020000 		.4byte	.LVL388
 13829 4f3a 3B610000 		.4byte	0x613b
 13830 4f3e 4C4F0000 		.4byte	0x4f4c
 13831 4f42 3A       		.uleb128 0x3a
 13832 4f43 01       		.uleb128 0x1
 13833 4f44 50       		.byte	0x50
 13834 4f45 05       		.uleb128 0x5
 13835 4f46 03       		.byte	0x3
 13836 4f47 00000000 		.4byte	.LANCHOR2
 13837 4f4b 00       		.byte	0
 13838 4f4c 39       		.uleb128 0x39
 13839 4f4d 66020000 		.4byte	.LVL391
ARM GAS  /tmp/ccTUBOn1.s 			page 244


 13840 4f51 F5600000 		.4byte	0x60f5
 13841 4f55 614F0000 		.4byte	0x4f61
 13842 4f59 3A       		.uleb128 0x3a
 13843 4f5a 01       		.uleb128 0x1
 13844 4f5b 50       		.byte	0x50
 13845 4f5c 03       		.uleb128 0x3
 13846 4f5d 0A       		.byte	0xa
 13847 4f5e 1027     		.2byte	0x2710
 13848 4f60 00       		.byte	0
 13849 4f61 39       		.uleb128 0x39
 13850 4f62 78020000 		.4byte	.LVL393
 13851 4f66 F5600000 		.4byte	0x60f5
 13852 4f6a 764F0000 		.4byte	0x4f76
 13853 4f6e 3A       		.uleb128 0x3a
 13854 4f6f 01       		.uleb128 0x1
 13855 4f70 50       		.byte	0x50
 13856 4f71 03       		.uleb128 0x3
 13857 4f72 0A       		.byte	0xa
 13858 4f73 1027     		.2byte	0x2710
 13859 4f75 00       		.byte	0
 13860 4f76 3B       		.uleb128 0x3b
 13861 4f77 88020000 		.4byte	.LVL396
 13862 4f7b F5600000 		.4byte	0x60f5
 13863 4f7f 3A       		.uleb128 0x3a
 13864 4f80 01       		.uleb128 0x1
 13865 4f81 50       		.byte	0x50
 13866 4f82 03       		.uleb128 0x3
 13867 4f83 0A       		.byte	0xa
 13868 4f84 1027     		.2byte	0x2710
 13869 4f86 00       		.byte	0
 13870 4f87 00       		.byte	0
 13871 4f88 0B       		.uleb128 0xb
 13872 4f89 04       		.byte	0x4
 13873 4f8a 25000000 		.4byte	0x25
 13874 4f8e 33       		.uleb128 0x33
 13875 4f8f 8F1A0000 		.4byte	.LASF1085
 13876 4f93 01       		.byte	0x1
 13877 4f94 B602     		.2byte	0x2b6
 13878 4f96 C9000000 		.4byte	0xc9
 13879 4f9a 00000000 		.4byte	.LFB269
 13880 4f9e 04010000 		.4byte	.LFE269-.LFB269
 13881 4fa2 01       		.uleb128 0x1
 13882 4fa3 9C       		.byte	0x9c
 13883 4fa4 E84F0000 		.4byte	0x4fe8
 13884 4fa8 40       		.uleb128 0x40
 13885 4fa9 BB270000 		.4byte	.LASF1086
 13886 4fad 01       		.byte	0x1
 13887 4fae B602     		.2byte	0x2b6
 13888 4fb0 25000000 		.4byte	0x25
 13889 4fb4 02       		.uleb128 0x2
 13890 4fb5 90       		.byte	0x90
 13891 4fb6 40       		.uleb128 0x40
 13892 4fb7 34       		.uleb128 0x34
 13893 4fb8 C5170000 		.4byte	.LASF1087
 13894 4fbc 01       		.byte	0x1
 13895 4fbd B602     		.2byte	0x2b6
 13896 4fbf 25000000 		.4byte	0x25
ARM GAS  /tmp/ccTUBOn1.s 			page 245


 13897 4fc3 4D100000 		.4byte	.LLST77
 13898 4fc7 37       		.uleb128 0x37
 13899 4fc8 44544700 		.ascii	"DTG\000"
 13900 4fcc 01       		.byte	0x1
 13901 4fcd B702     		.2byte	0x2b7
 13902 4fcf C9000000 		.4byte	0xc9
 13903 4fd3 71100000 		.4byte	.LLST78
 13904 4fd7 36       		.uleb128 0x36
 13905 4fd8 77410000 		.4byte	.LASF1088
 13906 4fdc 01       		.byte	0x1
 13907 4fdd B802     		.2byte	0x2b8
 13908 4fdf 25000000 		.4byte	0x25
 13909 4fe3 31110000 		.4byte	.LLST79
 13910 4fe7 00       		.byte	0
 13911 4fe8 33       		.uleb128 0x33
 13912 4fe9 24010000 		.4byte	.LASF1089
 13913 4fed 01       		.byte	0x1
 13914 4fee 2402     		.2byte	0x224
 13915 4ff0 04170000 		.4byte	0x1704
 13916 4ff4 00000000 		.4byte	.LFB268
 13917 4ff8 F8020000 		.4byte	.LFE268-.LFB268
 13918 4ffc 01       		.uleb128 0x1
 13919 4ffd 9C       		.byte	0x9c
 13920 4ffe F8530000 		.4byte	0x53f8
 13921 5002 34       		.uleb128 0x34
 13922 5003 94230000 		.4byte	.LASF1062
 13923 5007 01       		.byte	0x1
 13924 5008 2402     		.2byte	0x224
 13925 500a 25000000 		.4byte	0x25
 13926 500e 1B120000 		.4byte	.LLST60
 13927 5012 34       		.uleb128 0x34
 13928 5013 732E0000 		.4byte	.LASF1071
 13929 5017 01       		.byte	0x1
 13930 5018 2402     		.2byte	0x224
 13931 501a 25000000 		.4byte	0x25
 13932 501e 57120000 		.4byte	.LLST61
 13933 5022 34       		.uleb128 0x34
 13934 5023 390C0000 		.4byte	.LASF1090
 13935 5027 01       		.byte	0x1
 13936 5028 2502     		.2byte	0x225
 13937 502a 25000000 		.4byte	0x25
 13938 502e CB120000 		.4byte	.LLST62
 13939 5032 3F       		.uleb128 0x3f
 13940 5033 72657300 		.ascii	"res\000"
 13941 5037 01       		.byte	0x1
 13942 5038 2502     		.2byte	0x225
 13943 503a 25000000 		.4byte	0x25
 13944 503e 3F130000 		.4byte	.LLST63
 13945 5042 34       		.uleb128 0x34
 13946 5043 500A0000 		.4byte	.LASF1073
 13947 5047 01       		.byte	0x1
 13948 5048 2502     		.2byte	0x225
 13949 504a 884F0000 		.4byte	0x4f88
 13950 504e 7B130000 		.4byte	.LLST64
 13951 5052 36       		.uleb128 0x36
 13952 5053 F1130000 		.4byte	.LASF1045
 13953 5057 01       		.byte	0x1
ARM GAS  /tmp/ccTUBOn1.s 			page 246


 13954 5058 4602     		.2byte	0x246
 13955 505a 92010000 		.4byte	0x192
 13956 505e 99130000 		.4byte	.LLST65
 13957 5062 36       		.uleb128 0x36
 13958 5063 15410000 		.4byte	.LASF1046
 13959 5067 01       		.byte	0x1
 13960 5068 4702     		.2byte	0x247
 13961 506a 25000000 		.4byte	0x25
 13962 506e C2130000 		.4byte	.LLST66
 13963 5072 36       		.uleb128 0x36
 13964 5073 DE3D0000 		.4byte	.LASF1091
 13965 5077 01       		.byte	0x1
 13966 5078 5102     		.2byte	0x251
 13967 507a 04170000 		.4byte	0x1704
 13968 507e 06140000 		.4byte	.LLST67
 13969 5082 36       		.uleb128 0x36
 13970 5083 A9080000 		.4byte	.LASF1092
 13971 5087 01       		.byte	0x1
 13972 5088 9A02     		.2byte	0x29a
 13973 508a 25000000 		.4byte	0x25
 13974 508e 55140000 		.4byte	.LLST68
 13975 5092 36       		.uleb128 0x36
 13976 5093 0E320000 		.4byte	.LASF1093
 13977 5097 01       		.byte	0x1
 13978 5098 9B02     		.2byte	0x29b
 13979 509a 25000000 		.4byte	0x25
 13980 509e 79140000 		.4byte	.LLST69
 13981 50a2 36       		.uleb128 0x36
 13982 50a3 3B1E0000 		.4byte	.LASF1094
 13983 50a7 01       		.byte	0x1
 13984 50a8 9C02     		.2byte	0x29c
 13985 50aa 25000000 		.4byte	0x25
 13986 50ae BB140000 		.4byte	.LLST70
 13987 50b2 36       		.uleb128 0x36
 13988 50b3 81030000 		.4byte	.LASF1076
 13989 50b7 01       		.byte	0x1
 13990 50b8 9D02     		.2byte	0x29d
 13991 50ba 25000000 		.4byte	0x25
 13992 50be F1140000 		.4byte	.LLST71
 13993 50c2 3C       		.uleb128 0x3c
 13994 50c3 70000000 		.4byte	.LBB32
 13995 50c7 12000000 		.4byte	.LBE32-.LBB32
 13996 50cb FB500000 		.4byte	0x50fb
 13997 50cf 37       		.uleb128 0x37
 13998 50d0 6900     		.ascii	"i\000"
 13999 50d2 01       		.byte	0x1
 14000 50d3 3502     		.2byte	0x235
 14001 50d5 A6000000 		.4byte	0xa6
 14002 50d9 15150000 		.4byte	.LLST72
 14003 50dd 39       		.uleb128 0x39
 14004 50de 76000000 		.4byte	.LVL214
 14005 50e2 F5600000 		.4byte	0x60f5
 14006 50e6 F1500000 		.4byte	0x50f1
 14007 50ea 3A       		.uleb128 0x3a
 14008 50eb 01       		.uleb128 0x1
 14009 50ec 50       		.byte	0x50
 14010 50ed 02       		.uleb128 0x2
ARM GAS  /tmp/ccTUBOn1.s 			page 247


 14011 50ee 08       		.byte	0x8
 14012 50ef 64       		.byte	0x64
 14013 50f0 00       		.byte	0
 14014 50f1 3D       		.uleb128 0x3d
 14015 50f2 7E000000 		.4byte	.LVL217
 14016 50f6 72610000 		.4byte	0x6172
 14017 50fa 00       		.byte	0
 14018 50fb 38       		.uleb128 0x38
 14019 50fc C8000000 		.4byte	.Ldebug_ranges0+0xc8
 14020 5100 F9510000 		.4byte	0x51f9
 14021 5104 37       		.uleb128 0x37
 14022 5105 6900     		.ascii	"i\000"
 14023 5107 01       		.byte	0x1
 14024 5108 5202     		.2byte	0x252
 14025 510a A6000000 		.4byte	0xa6
 14026 510e 5C150000 		.4byte	.LLST73
 14027 5112 3E       		.uleb128 0x3e
 14028 5113 F8000000 		.4byte	.Ldebug_ranges0+0xf8
 14029 5117 37       		.uleb128 0x37
 14030 5118 636E7400 		.ascii	"cnt\000"
 14031 511c 01       		.byte	0x1
 14032 511d 7202     		.2byte	0x272
 14033 511f A6000000 		.4byte	0xa6
 14034 5123 9E150000 		.4byte	.LLST74
 14035 5127 36       		.uleb128 0x36
 14036 5128 E30E0000 		.4byte	.LASF1095
 14037 512c 01       		.byte	0x1
 14038 512d 7302     		.2byte	0x273
 14039 512f 04170000 		.4byte	0x1704
 14040 5133 E1150000 		.4byte	.LLST75
 14041 5137 3D       		.uleb128 0x3d
 14042 5138 F0000000 		.4byte	.LVL232
 14043 513c 44620000 		.4byte	0x6244
 14044 5140 39       		.uleb128 0x39
 14045 5141 08010000 		.4byte	.LVL234
 14046 5145 F5600000 		.4byte	0x60f5
 14047 5149 53510000 		.4byte	0x5153
 14048 514d 3A       		.uleb128 0x3a
 14049 514e 01       		.uleb128 0x1
 14050 514f 50       		.byte	0x50
 14051 5150 01       		.uleb128 0x1
 14052 5151 3A       		.byte	0x3a
 14053 5152 00       		.byte	0
 14054 5153 3D       		.uleb128 0x3d
 14055 5154 0C010000 		.4byte	.LVL235
 14056 5158 44620000 		.4byte	0x6244
 14057 515c 39       		.uleb128 0x39
 14058 515d 0C020000 		.4byte	.LVL269
 14059 5161 86620000 		.4byte	0x6286
 14060 5165 70510000 		.4byte	0x5170
 14061 5169 3A       		.uleb128 0x3a
 14062 516a 01       		.uleb128 0x1
 14063 516b 50       		.byte	0x50
 14064 516c 02       		.uleb128 0x2
 14065 516d 7A       		.byte	0x7a
 14066 516e 00       		.sleb128 0
 14067 516f 00       		.byte	0
ARM GAS  /tmp/ccTUBOn1.s 			page 248


 14068 5170 3D       		.uleb128 0x3d
 14069 5171 64020000 		.4byte	.LVL283
 14070 5175 91620000 		.4byte	0x6291
 14071 5179 3D       		.uleb128 0x3d
 14072 517a 68020000 		.4byte	.LVL284
 14073 517e 9E610000 		.4byte	0x619e
 14074 5182 3D       		.uleb128 0x3d
 14075 5183 7C020000 		.4byte	.LVL285
 14076 5187 91620000 		.4byte	0x6291
 14077 518b 39       		.uleb128 0x39
 14078 518c 82020000 		.4byte	.LVL286
 14079 5190 3B610000 		.4byte	0x613b
 14080 5194 9F510000 		.4byte	0x519f
 14081 5198 3A       		.uleb128 0x3a
 14082 5199 01       		.uleb128 0x1
 14083 519a 50       		.byte	0x50
 14084 519b 02       		.uleb128 0x2
 14085 519c 76       		.byte	0x76
 14086 519d 00       		.sleb128 0
 14087 519e 00       		.byte	0
 14088 519f 39       		.uleb128 0x39
 14089 51a0 8A020000 		.4byte	.LVL287
 14090 51a4 F5600000 		.4byte	0x60f5
 14091 51a8 B4510000 		.4byte	0x51b4
 14092 51ac 3A       		.uleb128 0x3a
 14093 51ad 01       		.uleb128 0x1
 14094 51ae 50       		.byte	0x50
 14095 51af 03       		.uleb128 0x3
 14096 51b0 0A       		.byte	0xa
 14097 51b1 1027     		.2byte	0x2710
 14098 51b3 00       		.byte	0
 14099 51b4 3D       		.uleb128 0x3d
 14100 51b5 8E020000 		.4byte	.LVL288
 14101 51b9 91620000 		.4byte	0x6291
 14102 51bd 39       		.uleb128 0x39
 14103 51be 96020000 		.4byte	.LVL289
 14104 51c2 9C620000 		.4byte	0x629c
 14105 51c6 D3510000 		.4byte	0x51d3
 14106 51ca 3A       		.uleb128 0x3a
 14107 51cb 02       		.uleb128 0x2
 14108 51cc 90       		.byte	0x90
 14109 51cd 40       		.uleb128 0x40
 14110 51ce 03       		.uleb128 0x3
 14111 51cf F5       		.byte	0xf5
 14112 51d0 53       		.uleb128 0x53
 14113 51d1 25       		.uleb128 0x25
 14114 51d2 00       		.byte	0
 14115 51d3 3D       		.uleb128 0x3d
 14116 51d4 9C020000 		.4byte	.LVL290
 14117 51d8 91620000 		.4byte	0x6291
 14118 51dc 3D       		.uleb128 0x3d
 14119 51dd A0020000 		.4byte	.LVL291
 14120 51e1 9E610000 		.4byte	0x619e
 14121 51e5 3D       		.uleb128 0x3d
 14122 51e6 B4020000 		.4byte	.LVL292
 14123 51ea 91620000 		.4byte	0x6291
 14124 51ee 3D       		.uleb128 0x3d
ARM GAS  /tmp/ccTUBOn1.s 			page 249


 14125 51ef B8020000 		.4byte	.LVL293
 14126 51f3 9E610000 		.4byte	0x619e
 14127 51f7 00       		.byte	0
 14128 51f8 00       		.byte	0
 14129 51f9 38       		.uleb128 0x38
 14130 51fa 40010000 		.4byte	.Ldebug_ranges0+0x140
 14131 51fe 3B520000 		.4byte	0x523b
 14132 5202 37       		.uleb128 0x37
 14133 5203 6900     		.ascii	"i\000"
 14134 5205 01       		.byte	0x1
 14135 5206 9E02     		.2byte	0x29e
 14136 5208 A6000000 		.4byte	0xa6
 14137 520c 22160000 		.4byte	.LLST76
 14138 5210 3D       		.uleb128 0x3d
 14139 5211 7E010000 		.4byte	.LVL249
 14140 5215 44620000 		.4byte	0x6244
 14141 5219 3D       		.uleb128 0x3d
 14142 521a 96010000 		.4byte	.LVL251
 14143 521e A9610000 		.4byte	0x61a9
 14144 5222 3D       		.uleb128 0x3d
 14145 5223 9E010000 		.4byte	.LVL253
 14146 5227 A7620000 		.4byte	0x62a7
 14147 522b 3B       		.uleb128 0x3b
 14148 522c A8010000 		.4byte	.LVL255
 14149 5230 F5600000 		.4byte	0x60f5
 14150 5234 3A       		.uleb128 0x3a
 14151 5235 01       		.uleb128 0x1
 14152 5236 50       		.byte	0x50
 14153 5237 01       		.uleb128 0x1
 14154 5238 3A       		.byte	0x3a
 14155 5239 00       		.byte	0
 14156 523a 00       		.byte	0
 14157 523b 3D       		.uleb128 0x3d
 14158 523c 1E000000 		.4byte	.LVL209
 14159 5240 30610000 		.4byte	0x6130
 14160 5244 39       		.uleb128 0x39
 14161 5245 2C000000 		.4byte	.LVL210
 14162 5249 21610000 		.4byte	0x6121
 14163 524d 5F520000 		.4byte	0x525f
 14164 5251 3A       		.uleb128 0x3a
 14165 5252 01       		.uleb128 0x1
 14166 5253 50       		.byte	0x50
 14167 5254 02       		.uleb128 0x2
 14168 5255 76       		.byte	0x76
 14169 5256 00       		.sleb128 0
 14170 5257 3A       		.uleb128 0x3a
 14171 5258 01       		.uleb128 0x1
 14172 5259 52       		.byte	0x52
 14173 525a 03       		.uleb128 0x3
 14174 525b 0A       		.byte	0xa
 14175 525c C801     		.2byte	0x1c8
 14176 525e 00       		.byte	0
 14177 525f 39       		.uleb128 0x39
 14178 5260 38000000 		.4byte	.LVL211
 14179 5264 21610000 		.4byte	0x6121
 14180 5268 83520000 		.4byte	0x5283
 14181 526c 3A       		.uleb128 0x3a
ARM GAS  /tmp/ccTUBOn1.s 			page 250


 14182 526d 01       		.uleb128 0x1
 14183 526e 50       		.byte	0x50
 14184 526f 05       		.uleb128 0x5
 14185 5270 03       		.byte	0x3
 14186 5271 00000000 		.4byte	.LANCHOR2
 14187 5275 3A       		.uleb128 0x3a
 14188 5276 01       		.uleb128 0x1
 14189 5277 51       		.byte	0x51
 14190 5278 02       		.uleb128 0x2
 14191 5279 76       		.byte	0x76
 14192 527a 00       		.sleb128 0
 14193 527b 3A       		.uleb128 0x3a
 14194 527c 01       		.uleb128 0x1
 14195 527d 52       		.byte	0x52
 14196 527e 03       		.uleb128 0x3
 14197 527f 0A       		.byte	0xa
 14198 5280 C801     		.2byte	0x1c8
 14199 5282 00       		.byte	0
 14200 5283 39       		.uleb128 0x39
 14201 5284 6E000000 		.4byte	.LVL212
 14202 5288 3B610000 		.4byte	0x613b
 14203 528c 97520000 		.4byte	0x5297
 14204 5290 3A       		.uleb128 0x3a
 14205 5291 01       		.uleb128 0x1
 14206 5292 50       		.byte	0x50
 14207 5293 02       		.uleb128 0x2
 14208 5294 76       		.byte	0x76
 14209 5295 00       		.sleb128 0
 14210 5296 00       		.byte	0
 14211 5297 3D       		.uleb128 0x3d
 14212 5298 86000000 		.4byte	.LVL219
 14213 529c 72610000 		.4byte	0x6172
 14214 52a0 39       		.uleb128 0x39
 14215 52a1 96000000 		.4byte	.LVL220
 14216 52a5 F5600000 		.4byte	0x60f5
 14217 52a9 B5520000 		.4byte	0x52b5
 14218 52ad 3A       		.uleb128 0x3a
 14219 52ae 01       		.uleb128 0x1
 14220 52af 50       		.byte	0x50
 14221 52b0 03       		.uleb128 0x3
 14222 52b1 0A       		.byte	0xa
 14223 52b2 1027     		.2byte	0x2710
 14224 52b4 00       		.byte	0
 14225 52b5 3D       		.uleb128 0x3d
 14226 52b6 9A000000 		.4byte	.LVL221
 14227 52ba B4610000 		.4byte	0x61b4
 14228 52be 3D       		.uleb128 0x3d
 14229 52bf A0000000 		.4byte	.LVL223
 14230 52c3 BF610000 		.4byte	0x61bf
 14231 52c7 3D       		.uleb128 0x3d
 14232 52c8 A8000000 		.4byte	.LVL225
 14233 52cc CA610000 		.4byte	0x61ca
 14234 52d0 39       		.uleb128 0x39
 14235 52d1 B8000000 		.4byte	.LVL226
 14236 52d5 88610000 		.4byte	0x6188
 14237 52d9 F1520000 		.4byte	0x52f1
 14238 52dd 3A       		.uleb128 0x3a
ARM GAS  /tmp/ccTUBOn1.s 			page 251


 14239 52de 01       		.uleb128 0x1
 14240 52df 50       		.byte	0x50
 14241 52e0 03       		.uleb128 0x3
 14242 52e1 0A       		.byte	0xa
 14243 52e2 60EA     		.2byte	0xea60
 14244 52e4 3A       		.uleb128 0x3a
 14245 52e5 02       		.uleb128 0x2
 14246 52e6 90       		.byte	0x90
 14247 52e7 40       		.uleb128 0x40
 14248 52e8 07       		.uleb128 0x7
 14249 52e9 F4       		.byte	0xf4
 14250 52ea 25       		.uleb128 0x25
 14251 52eb 04       		.byte	0x4
 14252 52ec 00000000 		.4byte	0
 14253 52f0 00       		.byte	0
 14254 52f1 3D       		.uleb128 0x3d
 14255 52f2 BC000000 		.4byte	.LVL227
 14256 52f6 D5610000 		.4byte	0x61d5
 14257 52fa 3D       		.uleb128 0x3d
 14258 52fb C0000000 		.4byte	.LVL228
 14259 52ff 91620000 		.4byte	0x6291
 14260 5303 39       		.uleb128 0x39
 14261 5304 C8000000 		.4byte	.LVL229
 14262 5308 9C620000 		.4byte	0x629c
 14263 530c 19530000 		.4byte	0x5319
 14264 5310 3A       		.uleb128 0x3a
 14265 5311 02       		.uleb128 0x2
 14266 5312 90       		.byte	0x90
 14267 5313 40       		.uleb128 0x40
 14268 5314 03       		.uleb128 0x3
 14269 5315 F5       		.byte	0xf5
 14270 5316 53       		.uleb128 0x53
 14271 5317 25       		.uleb128 0x25
 14272 5318 00       		.byte	0
 14273 5319 3D       		.uleb128 0x3d
 14274 531a 4C010000 		.4byte	.LVL243
 14275 531e 91620000 		.4byte	0x6291
 14276 5322 39       		.uleb128 0x39
 14277 5323 54010000 		.4byte	.LVL244
 14278 5327 B2620000 		.4byte	0x62b2
 14279 532b 38530000 		.4byte	0x5338
 14280 532f 3A       		.uleb128 0x3a
 14281 5330 02       		.uleb128 0x2
 14282 5331 90       		.byte	0x90
 14283 5332 40       		.uleb128 0x40
 14284 5333 03       		.uleb128 0x3
 14285 5334 F5       		.byte	0xf5
 14286 5335 50       		.uleb128 0x50
 14287 5336 25       		.uleb128 0x25
 14288 5337 00       		.byte	0
 14289 5338 39       		.uleb128 0x39
 14290 5339 BA010000 		.4byte	.LVL258
 14291 533d 88610000 		.4byte	0x6188
 14292 5341 54530000 		.4byte	0x5354
 14293 5345 3A       		.uleb128 0x3a
 14294 5346 01       		.uleb128 0x1
 14295 5347 50       		.byte	0x50
ARM GAS  /tmp/ccTUBOn1.s 			page 252


 14296 5348 02       		.uleb128 0x2
 14297 5349 78       		.byte	0x78
 14298 534a 00       		.sleb128 0
 14299 534b 3A       		.uleb128 0x3a
 14300 534c 02       		.uleb128 0x2
 14301 534d 90       		.byte	0x90
 14302 534e 40       		.uleb128 0x40
 14303 534f 03       		.uleb128 0x3
 14304 5350 F5       		.byte	0xf5
 14305 5351 58       		.uleb128 0x58
 14306 5352 25       		.uleb128 0x25
 14307 5353 00       		.byte	0
 14308 5354 39       		.uleb128 0x39
 14309 5355 C0010000 		.4byte	.LVL259
 14310 5359 3B610000 		.4byte	0x613b
 14311 535d 6B530000 		.4byte	0x536b
 14312 5361 3A       		.uleb128 0x3a
 14313 5362 01       		.uleb128 0x1
 14314 5363 50       		.byte	0x50
 14315 5364 05       		.uleb128 0x5
 14316 5365 03       		.byte	0x3
 14317 5366 00000000 		.4byte	.LANCHOR2
 14318 536a 00       		.byte	0
 14319 536b 3D       		.uleb128 0x3d
 14320 536c C4010000 		.4byte	.LVL260
 14321 5370 93610000 		.4byte	0x6193
 14322 5374 39       		.uleb128 0x39
 14323 5375 CC010000 		.4byte	.LVL261
 14324 5379 9C620000 		.4byte	0x629c
 14325 537d 8E530000 		.4byte	0x538e
 14326 5381 3A       		.uleb128 0x3a
 14327 5382 02       		.uleb128 0x2
 14328 5383 90       		.byte	0x90
 14329 5384 40       		.uleb128 0x40
 14330 5385 07       		.uleb128 0x7
 14331 5386 F4       		.byte	0xf4
 14332 5387 25       		.uleb128 0x25
 14333 5388 04       		.byte	0x4
 14334 5389 00000000 		.4byte	0
 14335 538d 00       		.byte	0
 14336 538e 39       		.uleb128 0x39
 14337 538f 1C020000 		.4byte	.LVL271
 14338 5393 9C620000 		.4byte	0x629c
 14339 5397 A8530000 		.4byte	0x53a8
 14340 539b 3A       		.uleb128 0x3a
 14341 539c 02       		.uleb128 0x2
 14342 539d 90       		.byte	0x90
 14343 539e 40       		.uleb128 0x40
 14344 539f 07       		.uleb128 0x7
 14345 53a0 F4       		.byte	0xf4
 14346 53a1 25       		.uleb128 0x25
 14347 53a2 04       		.byte	0x4
 14348 53a3 00000000 		.4byte	0
 14349 53a7 00       		.byte	0
 14350 53a8 39       		.uleb128 0x39
 14351 53a9 26020000 		.4byte	.LVL272
 14352 53ad 88610000 		.4byte	0x6188
ARM GAS  /tmp/ccTUBOn1.s 			page 253


 14353 53b1 C4530000 		.4byte	0x53c4
 14354 53b5 3A       		.uleb128 0x3a
 14355 53b6 01       		.uleb128 0x1
 14356 53b7 50       		.byte	0x50
 14357 53b8 02       		.uleb128 0x2
 14358 53b9 78       		.byte	0x78
 14359 53ba 00       		.sleb128 0
 14360 53bb 3A       		.uleb128 0x3a
 14361 53bc 02       		.uleb128 0x2
 14362 53bd 90       		.byte	0x90
 14363 53be 40       		.uleb128 0x40
 14364 53bf 03       		.uleb128 0x3
 14365 53c0 F5       		.byte	0xf5
 14366 53c1 58       		.uleb128 0x58
 14367 53c2 25       		.uleb128 0x25
 14368 53c3 00       		.byte	0
 14369 53c4 39       		.uleb128 0x39
 14370 53c5 2C020000 		.4byte	.LVL273
 14371 53c9 3B610000 		.4byte	0x613b
 14372 53cd DB530000 		.4byte	0x53db
 14373 53d1 3A       		.uleb128 0x3a
 14374 53d2 01       		.uleb128 0x1
 14375 53d3 50       		.byte	0x50
 14376 53d4 05       		.uleb128 0x5
 14377 53d5 03       		.byte	0x3
 14378 53d6 00000000 		.4byte	.LANCHOR2
 14379 53da 00       		.byte	0
 14380 53db 3D       		.uleb128 0x3d
 14381 53dc 30020000 		.4byte	.LVL274
 14382 53e0 93610000 		.4byte	0x6193
 14383 53e4 3B       		.uleb128 0x3b
 14384 53e5 56020000 		.4byte	.LVL280
 14385 53e9 3B610000 		.4byte	0x613b
 14386 53ed 3A       		.uleb128 0x3a
 14387 53ee 01       		.uleb128 0x1
 14388 53ef 50       		.byte	0x50
 14389 53f0 05       		.uleb128 0x5
 14390 53f1 03       		.byte	0x3
 14391 53f2 00000000 		.4byte	.LANCHOR2
 14392 53f6 00       		.byte	0
 14393 53f7 00       		.byte	0
 14394 53f8 33       		.uleb128 0x33
 14395 53f9 571F0000 		.4byte	.LASF1096
 14396 53fd 01       		.byte	0x1
 14397 53fe 4C01     		.2byte	0x14c
 14398 5400 04170000 		.4byte	0x1704
 14399 5404 00000000 		.4byte	.LFB267
 14400 5408 48030000 		.4byte	.LFE267-.LFB267
 14401 540c 01       		.uleb128 0x1
 14402 540d 9C       		.byte	0x9c
 14403 540e 8A590000 		.4byte	0x598a
 14404 5412 34       		.uleb128 0x34
 14405 5413 94230000 		.4byte	.LASF1062
 14406 5417 01       		.byte	0x1
 14407 5418 4C01     		.2byte	0x14c
 14408 541a 25000000 		.4byte	0x25
 14409 541e 58160000 		.4byte	.LLST36
ARM GAS  /tmp/ccTUBOn1.s 			page 254


 14410 5422 34       		.uleb128 0x34
 14411 5423 0A2C0000 		.4byte	.LASF1097
 14412 5427 01       		.byte	0x1
 14413 5428 4C01     		.2byte	0x14c
 14414 542a 25000000 		.4byte	0x25
 14415 542e B0160000 		.4byte	.LLST37
 14416 5432 34       		.uleb128 0x34
 14417 5433 E1150000 		.4byte	.LASF1098
 14418 5437 01       		.byte	0x1
 14419 5438 4C01     		.2byte	0x14c
 14420 543a 25000000 		.4byte	0x25
 14421 543e D0160000 		.4byte	.LLST38
 14422 5442 34       		.uleb128 0x34
 14423 5443 350E0000 		.4byte	.LASF1099
 14424 5447 01       		.byte	0x1
 14425 5448 4D01     		.2byte	0x14d
 14426 544a 884F0000 		.4byte	0x4f88
 14427 544e 28170000 		.4byte	.LLST39
 14428 5452 34       		.uleb128 0x34
 14429 5453 AA230000 		.4byte	.LASF1100
 14430 5457 01       		.byte	0x1
 14431 5458 4D01     		.2byte	0x14d
 14432 545a 884F0000 		.4byte	0x4f88
 14433 545e 46170000 		.4byte	.LLST40
 14434 5462 34       		.uleb128 0x34
 14435 5463 02200000 		.4byte	.LASF300
 14436 5467 01       		.byte	0x1
 14437 5468 4D01     		.2byte	0x14d
 14438 546a 8A590000 		.4byte	0x598a
 14439 546e 64170000 		.4byte	.LLST41
 14440 5472 34       		.uleb128 0x34
 14441 5473 F1170000 		.4byte	.LASF1101
 14442 5477 01       		.byte	0x1
 14443 5478 4D01     		.2byte	0x14d
 14444 547a 90590000 		.4byte	0x5990
 14445 547e 82170000 		.4byte	.LLST42
 14446 5482 36       		.uleb128 0x36
 14447 5483 6C310000 		.4byte	.LASF1102
 14448 5487 01       		.byte	0x1
 14449 5488 4F01     		.2byte	0x14f
 14450 548a A6000000 		.4byte	0xa6
 14451 548e A2170000 		.4byte	.LLST43
 14452 5492 41       		.uleb128 0x41
 14453 5493 16150000 		.4byte	.LASF1103
 14454 5497 01       		.byte	0x1
 14455 5498 5001     		.2byte	0x150
 14456 549a 75100000 		.4byte	0x1075
 14457 549e 04       		.byte	0x4
 14458 549f 0000003F 		.4byte	0x3f000000
 14459 54a3 36       		.uleb128 0x36
 14460 54a4 F1130000 		.4byte	.LASF1045
 14461 54a8 01       		.byte	0x1
 14462 54a9 6D01     		.2byte	0x16d
 14463 54ab 92010000 		.4byte	0x192
 14464 54af F1170000 		.4byte	.LLST44
 14465 54b3 36       		.uleb128 0x36
 14466 54b4 15410000 		.4byte	.LASF1046
ARM GAS  /tmp/ccTUBOn1.s 			page 255


 14467 54b8 01       		.byte	0x1
 14468 54b9 6E01     		.2byte	0x16e
 14469 54bb 25000000 		.4byte	0x25
 14470 54bf 0F180000 		.4byte	.LLST45
 14471 54c3 36       		.uleb128 0x36
 14472 54c4 DE3D0000 		.4byte	.LASF1091
 14473 54c8 01       		.byte	0x1
 14474 54c9 7801     		.2byte	0x178
 14475 54cb 04170000 		.4byte	0x1704
 14476 54cf 2F180000 		.4byte	.LLST46
 14477 54d3 36       		.uleb128 0x36
 14478 54d4 342D0000 		.4byte	.LASF1104
 14479 54d8 01       		.byte	0x1
 14480 54d9 C201     		.2byte	0x1c2
 14481 54db A6000000 		.4byte	0xa6
 14482 54df 8A180000 		.4byte	.LLST47
 14483 54e3 36       		.uleb128 0x36
 14484 54e4 28060000 		.4byte	.LASF1105
 14485 54e8 01       		.byte	0x1
 14486 54e9 ED01     		.2byte	0x1ed
 14487 54eb 25000000 		.4byte	0x25
 14488 54ef DF180000 		.4byte	.LLST48
 14489 54f3 36       		.uleb128 0x36
 14490 54f4 85320000 		.4byte	.LASF1106
 14491 54f8 01       		.byte	0x1
 14492 54f9 EE01     		.2byte	0x1ee
 14493 54fb 25000000 		.4byte	0x25
 14494 54ff 03190000 		.4byte	.LLST49
 14495 5503 36       		.uleb128 0x36
 14496 5504 EB3C0000 		.4byte	.LASF1107
 14497 5508 01       		.byte	0x1
 14498 5509 FA01     		.2byte	0x1fa
 14499 550b 25000000 		.4byte	0x25
 14500 550f 27190000 		.4byte	.LLST50
 14501 5513 37       		.uleb128 0x37
 14502 5514 72706D00 		.ascii	"rpm\000"
 14503 5518 01       		.byte	0x1
 14504 5519 FB01     		.2byte	0x1fb
 14505 551b 25000000 		.4byte	0x25
 14506 551f 71190000 		.4byte	.LLST51
 14507 5523 3C       		.uleb128 0x3c
 14508 5524 72000000 		.4byte	.LBB15
 14509 5528 12000000 		.4byte	.LBE15-.LBB15
 14510 552c 5C550000 		.4byte	0x555c
 14511 5530 37       		.uleb128 0x37
 14512 5531 6900     		.ascii	"i\000"
 14513 5533 01       		.byte	0x1
 14514 5534 6101     		.2byte	0x161
 14515 5536 A6000000 		.4byte	0xa6
 14516 553a 97190000 		.4byte	.LLST52
 14517 553e 39       		.uleb128 0x39
 14518 553f 78000000 		.4byte	.LVL99
 14519 5543 F5600000 		.4byte	0x60f5
 14520 5547 52550000 		.4byte	0x5552
 14521 554b 3A       		.uleb128 0x3a
 14522 554c 01       		.uleb128 0x1
 14523 554d 50       		.byte	0x50
ARM GAS  /tmp/ccTUBOn1.s 			page 256


 14524 554e 02       		.uleb128 0x2
 14525 554f 08       		.byte	0x8
 14526 5550 64       		.byte	0x64
 14527 5551 00       		.byte	0
 14528 5552 3D       		.uleb128 0x3d
 14529 5553 80000000 		.4byte	.LVL102
 14530 5557 72610000 		.4byte	0x6172
 14531 555b 00       		.byte	0
 14532 555c 38       		.uleb128 0x38
 14533 555d 48000000 		.4byte	.Ldebug_ranges0+0x48
 14534 5561 47560000 		.4byte	0x5647
 14535 5565 37       		.uleb128 0x37
 14536 5566 6900     		.ascii	"i\000"
 14537 5568 01       		.byte	0x1
 14538 5569 7901     		.2byte	0x179
 14539 556b A6000000 		.4byte	0xa6
 14540 556f DE190000 		.4byte	.LLST53
 14541 5573 3E       		.uleb128 0x3e
 14542 5574 70000000 		.4byte	.Ldebug_ranges0+0x70
 14543 5578 37       		.uleb128 0x37
 14544 5579 636E7400 		.ascii	"cnt\000"
 14545 557d 01       		.byte	0x1
 14546 557e 9001     		.2byte	0x190
 14547 5580 A6000000 		.4byte	0xa6
 14548 5584 151A0000 		.4byte	.LLST54
 14549 5588 36       		.uleb128 0x36
 14550 5589 E30E0000 		.4byte	.LASF1095
 14551 558d 01       		.byte	0x1
 14552 558e 9101     		.2byte	0x191
 14553 5590 04170000 		.4byte	0x1704
 14554 5594 581A0000 		.4byte	.LLST55
 14555 5598 3D       		.uleb128 0x3d
 14556 5599 D8000000 		.4byte	.LVL116
 14557 559d 44620000 		.4byte	0x6244
 14558 55a1 39       		.uleb128 0x39
 14559 55a2 F0000000 		.4byte	.LVL118
 14560 55a6 F5600000 		.4byte	0x60f5
 14561 55aa B4550000 		.4byte	0x55b4
 14562 55ae 3A       		.uleb128 0x3a
 14563 55af 01       		.uleb128 0x1
 14564 55b0 50       		.byte	0x50
 14565 55b1 01       		.uleb128 0x1
 14566 55b2 3A       		.byte	0x3a
 14567 55b3 00       		.byte	0
 14568 55b4 3D       		.uleb128 0x3d
 14569 55b5 F4000000 		.4byte	.LVL119
 14570 55b9 44620000 		.4byte	0x6244
 14571 55bd 39       		.uleb128 0x39
 14572 55be 8C020000 		.4byte	.LVL186
 14573 55c2 86620000 		.4byte	0x6286
 14574 55c6 D0550000 		.4byte	0x55d0
 14575 55ca 3A       		.uleb128 0x3a
 14576 55cb 01       		.uleb128 0x1
 14577 55cc 50       		.byte	0x50
 14578 55cd 01       		.uleb128 0x1
 14579 55ce 31       		.byte	0x31
 14580 55cf 00       		.byte	0
ARM GAS  /tmp/ccTUBOn1.s 			page 257


 14581 55d0 3D       		.uleb128 0x3d
 14582 55d1 DA020000 		.4byte	.LVL199
 14583 55d5 91620000 		.4byte	0x6291
 14584 55d9 3D       		.uleb128 0x3d
 14585 55da DE020000 		.4byte	.LVL200
 14586 55de 9E610000 		.4byte	0x619e
 14587 55e2 3D       		.uleb128 0x3d
 14588 55e3 F0020000 		.4byte	.LVL201
 14589 55e7 91620000 		.4byte	0x6291
 14590 55eb 39       		.uleb128 0x39
 14591 55ec F6020000 		.4byte	.LVL202
 14592 55f0 3B610000 		.4byte	0x613b
 14593 55f4 FF550000 		.4byte	0x55ff
 14594 55f8 3A       		.uleb128 0x3a
 14595 55f9 01       		.uleb128 0x1
 14596 55fa 50       		.byte	0x50
 14597 55fb 02       		.uleb128 0x2
 14598 55fc 76       		.byte	0x76
 14599 55fd 00       		.sleb128 0
 14600 55fe 00       		.byte	0
 14601 55ff 39       		.uleb128 0x39
 14602 5600 FE020000 		.4byte	.LVL203
 14603 5604 F5600000 		.4byte	0x60f5
 14604 5608 14560000 		.4byte	0x5614
 14605 560c 3A       		.uleb128 0x3a
 14606 560d 01       		.uleb128 0x1
 14607 560e 50       		.byte	0x50
 14608 560f 03       		.uleb128 0x3
 14609 5610 0A       		.byte	0xa
 14610 5611 1027     		.2byte	0x2710
 14611 5613 00       		.byte	0
 14612 5614 3D       		.uleb128 0x3d
 14613 5615 02030000 		.4byte	.LVL204
 14614 5619 91620000 		.4byte	0x6291
 14615 561d 39       		.uleb128 0x39
 14616 561e 0A030000 		.4byte	.LVL205
 14617 5622 9C620000 		.4byte	0x629c
 14618 5626 33560000 		.4byte	0x5633
 14619 562a 3A       		.uleb128 0x3a
 14620 562b 02       		.uleb128 0x2
 14621 562c 90       		.byte	0x90
 14622 562d 40       		.uleb128 0x40
 14623 562e 03       		.uleb128 0x3
 14624 562f F5       		.byte	0xf5
 14625 5630 54       		.uleb128 0x54
 14626 5631 25       		.uleb128 0x25
 14627 5632 00       		.byte	0
 14628 5633 3D       		.uleb128 0x3d
 14629 5634 10030000 		.4byte	.LVL206
 14630 5638 91620000 		.4byte	0x6291
 14631 563c 3D       		.uleb128 0x3d
 14632 563d 14030000 		.4byte	.LVL207
 14633 5641 9E610000 		.4byte	0x619e
 14634 5645 00       		.byte	0
 14635 5646 00       		.byte	0
 14636 5647 38       		.uleb128 0x38
 14637 5648 B0000000 		.4byte	.Ldebug_ranges0+0xb0
ARM GAS  /tmp/ccTUBOn1.s 			page 258


 14638 564c 77560000 		.4byte	0x5677
 14639 5650 37       		.uleb128 0x37
 14640 5651 6900     		.ascii	"i\000"
 14641 5653 01       		.byte	0x1
 14642 5654 C301     		.2byte	0x1c3
 14643 5656 A6000000 		.4byte	0xa6
 14644 565a 991A0000 		.4byte	.LLST56
 14645 565e 3D       		.uleb128 0x3d
 14646 565f 64010000 		.4byte	.LVL136
 14647 5663 F5600000 		.4byte	0x60f5
 14648 5667 3B       		.uleb128 0x3b
 14649 5668 70010000 		.4byte	.LVL139
 14650 566c BD620000 		.4byte	0x62bd
 14651 5670 3A       		.uleb128 0x3a
 14652 5671 01       		.uleb128 0x1
 14653 5672 50       		.byte	0x50
 14654 5673 01       		.uleb128 0x1
 14655 5674 30       		.byte	0x30
 14656 5675 00       		.byte	0
 14657 5676 00       		.byte	0
 14658 5677 3C       		.uleb128 0x3c
 14659 5678 8E010000 		.4byte	.LBB25
 14660 567c 1A000000 		.4byte	.LBE25-.LBB25
 14661 5680 AB560000 		.4byte	0x56ab
 14662 5684 37       		.uleb128 0x37
 14663 5685 6900     		.ascii	"i\000"
 14664 5687 01       		.byte	0x1
 14665 5688 CF01     		.2byte	0x1cf
 14666 568a A6000000 		.4byte	0xa6
 14667 568e F11A0000 		.4byte	.LLST57
 14668 5692 3D       		.uleb128 0x3d
 14669 5693 92010000 		.4byte	.LVL145
 14670 5697 F5600000 		.4byte	0x60f5
 14671 569b 3B       		.uleb128 0x3b
 14672 569c 9C010000 		.4byte	.LVL148
 14673 56a0 BD620000 		.4byte	0x62bd
 14674 56a4 3A       		.uleb128 0x3a
 14675 56a5 01       		.uleb128 0x1
 14676 56a6 50       		.byte	0x50
 14677 56a7 01       		.uleb128 0x1
 14678 56a8 30       		.byte	0x30
 14679 56a9 00       		.byte	0
 14680 56aa 00       		.byte	0
 14681 56ab 3C       		.uleb128 0x3c
 14682 56ac C0010000 		.4byte	.LBB26
 14683 56b0 1C000000 		.4byte	.LBE26-.LBB26
 14684 56b4 D9560000 		.4byte	0x56d9
 14685 56b8 37       		.uleb128 0x37
 14686 56b9 6900     		.ascii	"i\000"
 14687 56bb 01       		.byte	0x1
 14688 56bc DE01     		.2byte	0x1de
 14689 56be A6000000 		.4byte	0xa6
 14690 56c2 381B0000 		.4byte	.LLST58
 14691 56c6 3D       		.uleb128 0x3d
 14692 56c7 C4010000 		.4byte	.LVL154
 14693 56cb F5600000 		.4byte	0x60f5
 14694 56cf 3D       		.uleb128 0x3d
ARM GAS  /tmp/ccTUBOn1.s 			page 259


 14695 56d0 CC010000 		.4byte	.LVL157
 14696 56d4 44620000 		.4byte	0x6244
 14697 56d8 00       		.byte	0
 14698 56d9 3C       		.uleb128 0x3c
 14699 56da 00020000 		.4byte	.LBB27
 14700 56de 2A000000 		.4byte	.LBE27-.LBB27
 14701 56e2 20570000 		.4byte	0x5720
 14702 56e6 37       		.uleb128 0x37
 14703 56e7 6900     		.ascii	"i\000"
 14704 56e9 01       		.byte	0x1
 14705 56ea EF01     		.2byte	0x1ef
 14706 56ec A6000000 		.4byte	0xa6
 14707 56f0 7F1B0000 		.4byte	.LLST59
 14708 56f4 3D       		.uleb128 0x3d
 14709 56f5 0A020000 		.4byte	.LVL166
 14710 56f9 A9610000 		.4byte	0x61a9
 14711 56fd 39       		.uleb128 0x39
 14712 56fe 14020000 		.4byte	.LVL168
 14713 5702 F5600000 		.4byte	0x60f5
 14714 5706 10570000 		.4byte	0x5710
 14715 570a 3A       		.uleb128 0x3a
 14716 570b 01       		.uleb128 0x1
 14717 570c 50       		.byte	0x50
 14718 570d 01       		.uleb128 0x1
 14719 570e 3A       		.byte	0x3a
 14720 570f 00       		.byte	0
 14721 5710 3B       		.uleb128 0x3b
 14722 5711 22020000 		.4byte	.LVL172
 14723 5715 BD620000 		.4byte	0x62bd
 14724 5719 3A       		.uleb128 0x3a
 14725 571a 01       		.uleb128 0x1
 14726 571b 50       		.byte	0x50
 14727 571c 01       		.uleb128 0x1
 14728 571d 30       		.byte	0x30
 14729 571e 00       		.byte	0
 14730 571f 00       		.byte	0
 14731 5720 3D       		.uleb128 0x3d
 14732 5721 22000000 		.4byte	.LVL94
 14733 5725 30610000 		.4byte	0x6130
 14734 5729 39       		.uleb128 0x39
 14735 572a 30000000 		.4byte	.LVL95
 14736 572e 21610000 		.4byte	0x6121
 14737 5732 44570000 		.4byte	0x5744
 14738 5736 3A       		.uleb128 0x3a
 14739 5737 01       		.uleb128 0x1
 14740 5738 50       		.byte	0x50
 14741 5739 02       		.uleb128 0x2
 14742 573a 76       		.byte	0x76
 14743 573b 00       		.sleb128 0
 14744 573c 3A       		.uleb128 0x3a
 14745 573d 01       		.uleb128 0x1
 14746 573e 52       		.byte	0x52
 14747 573f 03       		.uleb128 0x3
 14748 5740 0A       		.byte	0xa
 14749 5741 C801     		.2byte	0x1c8
 14750 5743 00       		.byte	0
 14751 5744 39       		.uleb128 0x39
ARM GAS  /tmp/ccTUBOn1.s 			page 260


 14752 5745 3C000000 		.4byte	.LVL96
 14753 5749 21610000 		.4byte	0x6121
 14754 574d 68570000 		.4byte	0x5768
 14755 5751 3A       		.uleb128 0x3a
 14756 5752 01       		.uleb128 0x1
 14757 5753 50       		.byte	0x50
 14758 5754 05       		.uleb128 0x5
 14759 5755 03       		.byte	0x3
 14760 5756 00000000 		.4byte	.LANCHOR2
 14761 575a 3A       		.uleb128 0x3a
 14762 575b 01       		.uleb128 0x1
 14763 575c 51       		.byte	0x51
 14764 575d 02       		.uleb128 0x2
 14765 575e 76       		.byte	0x76
 14766 575f 00       		.sleb128 0
 14767 5760 3A       		.uleb128 0x3a
 14768 5761 01       		.uleb128 0x1
 14769 5762 52       		.byte	0x52
 14770 5763 03       		.uleb128 0x3
 14771 5764 0A       		.byte	0xa
 14772 5765 C801     		.2byte	0x1c8
 14773 5767 00       		.byte	0
 14774 5768 39       		.uleb128 0x39
 14775 5769 70000000 		.4byte	.LVL97
 14776 576d 3B610000 		.4byte	0x613b
 14777 5771 7C570000 		.4byte	0x577c
 14778 5775 3A       		.uleb128 0x3a
 14779 5776 01       		.uleb128 0x1
 14780 5777 50       		.byte	0x50
 14781 5778 02       		.uleb128 0x2
 14782 5779 76       		.byte	0x76
 14783 577a 00       		.sleb128 0
 14784 577b 00       		.byte	0
 14785 577c 39       		.uleb128 0x39
 14786 577d 8C000000 		.4byte	.LVL104
 14787 5781 F5600000 		.4byte	0x60f5
 14788 5785 91570000 		.4byte	0x5791
 14789 5789 3A       		.uleb128 0x3a
 14790 578a 01       		.uleb128 0x1
 14791 578b 50       		.byte	0x50
 14792 578c 03       		.uleb128 0x3
 14793 578d 0A       		.byte	0xa
 14794 578e 1027     		.2byte	0x2710
 14795 5790 00       		.byte	0
 14796 5791 3D       		.uleb128 0x3d
 14797 5792 90000000 		.4byte	.LVL105
 14798 5796 B4610000 		.4byte	0x61b4
 14799 579a 3D       		.uleb128 0x3d
 14800 579b 96000000 		.4byte	.LVL107
 14801 579f BF610000 		.4byte	0x61bf
 14802 57a3 3D       		.uleb128 0x3d
 14803 57a4 9E000000 		.4byte	.LVL109
 14804 57a8 CA610000 		.4byte	0x61ca
 14805 57ac 39       		.uleb128 0x39
 14806 57ad AA000000 		.4byte	.LVL110
 14807 57b1 88610000 		.4byte	0x6188
 14808 57b5 CD570000 		.4byte	0x57cd
ARM GAS  /tmp/ccTUBOn1.s 			page 261


 14809 57b9 3A       		.uleb128 0x3a
 14810 57ba 01       		.uleb128 0x1
 14811 57bb 50       		.byte	0x50
 14812 57bc 03       		.uleb128 0x3
 14813 57bd 0A       		.byte	0xa
 14814 57be 60EA     		.2byte	0xea60
 14815 57c0 3A       		.uleb128 0x3a
 14816 57c1 02       		.uleb128 0x2
 14817 57c2 90       		.byte	0x90
 14818 57c3 40       		.uleb128 0x40
 14819 57c4 07       		.uleb128 0x7
 14820 57c5 F4       		.byte	0xf4
 14821 57c6 25       		.uleb128 0x25
 14822 57c7 04       		.byte	0x4
 14823 57c8 00000000 		.4byte	0
 14824 57cc 00       		.byte	0
 14825 57cd 3D       		.uleb128 0x3d
 14826 57ce AE000000 		.4byte	.LVL111
 14827 57d2 D5610000 		.4byte	0x61d5
 14828 57d6 3D       		.uleb128 0x3d
 14829 57d7 B2000000 		.4byte	.LVL112
 14830 57db 91620000 		.4byte	0x6291
 14831 57df 39       		.uleb128 0x39
 14832 57e0 BA000000 		.4byte	.LVL113
 14833 57e4 9C620000 		.4byte	0x629c
 14834 57e8 F5570000 		.4byte	0x57f5
 14835 57ec 3A       		.uleb128 0x3a
 14836 57ed 02       		.uleb128 0x2
 14837 57ee 90       		.byte	0x90
 14838 57ef 40       		.uleb128 0x40
 14839 57f0 03       		.uleb128 0x3
 14840 57f1 F5       		.byte	0xf5
 14841 57f2 54       		.uleb128 0x54
 14842 57f3 25       		.uleb128 0x25
 14843 57f4 00       		.byte	0
 14844 57f5 3D       		.uleb128 0x3d
 14845 57f6 32010000 		.4byte	.LVL127
 14846 57fa C8620000 		.4byte	0x62c8
 14847 57fe 3D       		.uleb128 0x3d
 14848 57ff 36010000 		.4byte	.LVL128
 14849 5803 91620000 		.4byte	0x6291
 14850 5807 39       		.uleb128 0x39
 14851 5808 3E010000 		.4byte	.LVL129
 14852 580c B2620000 		.4byte	0x62b2
 14853 5810 1D580000 		.4byte	0x581d
 14854 5814 3A       		.uleb128 0x3a
 14855 5815 02       		.uleb128 0x2
 14856 5816 90       		.byte	0x90
 14857 5817 40       		.uleb128 0x40
 14858 5818 03       		.uleb128 0x3
 14859 5819 F5       		.byte	0xf5
 14860 581a 50       		.uleb128 0x50
 14861 581b 25       		.uleb128 0x25
 14862 581c 00       		.byte	0
 14863 581d 39       		.uleb128 0x39
 14864 581e 46010000 		.4byte	.LVL130
 14865 5822 F5600000 		.4byte	0x60f5
ARM GAS  /tmp/ccTUBOn1.s 			page 262


 14866 5826 32580000 		.4byte	0x5832
 14867 582a 3A       		.uleb128 0x3a
 14868 582b 01       		.uleb128 0x1
 14869 582c 50       		.byte	0x50
 14870 582d 03       		.uleb128 0x3
 14871 582e 0A       		.byte	0xa
 14872 582f A00F     		.2byte	0xfa0
 14873 5831 00       		.byte	0
 14874 5832 3D       		.uleb128 0x3d
 14875 5833 4A010000 		.4byte	.LVL131
 14876 5837 91620000 		.4byte	0x6291
 14877 583b 39       		.uleb128 0x39
 14878 583c 52010000 		.4byte	.LVL132
 14879 5840 9C620000 		.4byte	0x629c
 14880 5844 55580000 		.4byte	0x5855
 14881 5848 3A       		.uleb128 0x3a
 14882 5849 02       		.uleb128 0x2
 14883 584a 90       		.byte	0x90
 14884 584b 40       		.uleb128 0x40
 14885 584c 07       		.uleb128 0x7
 14886 584d F4       		.byte	0xf4
 14887 584e 25       		.uleb128 0x25
 14888 584f 04       		.byte	0x4
 14889 5850 00000000 		.4byte	0
 14890 5854 00       		.byte	0
 14891 5855 39       		.uleb128 0x39
 14892 5856 58010000 		.4byte	.LVL133
 14893 585a BD620000 		.4byte	0x62bd
 14894 585e 68580000 		.4byte	0x5868
 14895 5862 3A       		.uleb128 0x3a
 14896 5863 01       		.uleb128 0x1
 14897 5864 50       		.byte	0x50
 14898 5865 01       		.uleb128 0x1
 14899 5866 30       		.byte	0x30
 14900 5867 00       		.byte	0
 14901 5868 3D       		.uleb128 0x3d
 14902 5869 80010000 		.4byte	.LVL141
 14903 586d D3620000 		.4byte	0x62d3
 14904 5871 39       		.uleb128 0x39
 14905 5872 86010000 		.4byte	.LVL142
 14906 5876 BD620000 		.4byte	0x62bd
 14907 587a 84580000 		.4byte	0x5884
 14908 587e 3A       		.uleb128 0x3a
 14909 587f 01       		.uleb128 0x1
 14910 5880 50       		.byte	0x50
 14911 5881 01       		.uleb128 0x1
 14912 5882 30       		.byte	0x30
 14913 5883 00       		.byte	0
 14914 5884 39       		.uleb128 0x39
 14915 5885 AE010000 		.4byte	.LVL150
 14916 5889 DE620000 		.4byte	0x62de
 14917 588d 98580000 		.4byte	0x5898
 14918 5891 3A       		.uleb128 0x3a
 14919 5892 01       		.uleb128 0x1
 14920 5893 50       		.byte	0x50
 14921 5894 02       		.uleb128 0x2
 14922 5895 7B       		.byte	0x7b
ARM GAS  /tmp/ccTUBOn1.s 			page 263


 14923 5896 00       		.sleb128 0
 14924 5897 00       		.byte	0
 14925 5898 3D       		.uleb128 0x3d
 14926 5899 B6010000 		.4byte	.LVL151
 14927 589d D3620000 		.4byte	0x62d3
 14928 58a1 3D       		.uleb128 0x3d
 14929 58a2 E0010000 		.4byte	.LVL159
 14930 58a6 91620000 		.4byte	0x6291
 14931 58aa 39       		.uleb128 0x39
 14932 58ab E8010000 		.4byte	.LVL160
 14933 58af B2620000 		.4byte	0x62b2
 14934 58b3 C0580000 		.4byte	0x58c0
 14935 58b7 3A       		.uleb128 0x3a
 14936 58b8 02       		.uleb128 0x2
 14937 58b9 90       		.byte	0x90
 14938 58ba 40       		.uleb128 0x40
 14939 58bb 03       		.uleb128 0x3
 14940 58bc F5       		.byte	0xf5
 14941 58bd 52       		.uleb128 0x52
 14942 58be 25       		.uleb128 0x25
 14943 58bf 00       		.byte	0
 14944 58c0 3D       		.uleb128 0x3d
 14945 58c1 EC010000 		.4byte	.LVL161
 14946 58c5 D3620000 		.4byte	0x62d3
 14947 58c9 39       		.uleb128 0x39
 14948 58ca F2010000 		.4byte	.LVL162
 14949 58ce BD620000 		.4byte	0x62bd
 14950 58d2 DC580000 		.4byte	0x58dc
 14951 58d6 3A       		.uleb128 0x3a
 14952 58d7 01       		.uleb128 0x1
 14953 58d8 50       		.byte	0x50
 14954 58d9 01       		.uleb128 0x1
 14955 58da 30       		.byte	0x30
 14956 58db 00       		.byte	0
 14957 58dc 3D       		.uleb128 0x3d
 14958 58dd 2E020000 		.4byte	.LVL174
 14959 58e1 D3620000 		.4byte	0x62d3
 14960 58e5 3D       		.uleb128 0x3d
 14961 58e6 36020000 		.4byte	.LVL176
 14962 58ea 91620000 		.4byte	0x6291
 14963 58ee 3D       		.uleb128 0x3d
 14964 58ef 3A020000 		.4byte	.LVL177
 14965 58f3 9E610000 		.4byte	0x619e
 14966 58f7 39       		.uleb128 0x39
 14967 58f8 64020000 		.4byte	.LVL181
 14968 58fc 3B610000 		.4byte	0x613b
 14969 5900 0E590000 		.4byte	0x590e
 14970 5904 3A       		.uleb128 0x3a
 14971 5905 01       		.uleb128 0x1
 14972 5906 50       		.byte	0x50
 14973 5907 05       		.uleb128 0x5
 14974 5908 03       		.byte	0x3
 14975 5909 00000000 		.4byte	.LANCHOR2
 14976 590d 00       		.byte	0
 14977 590e 39       		.uleb128 0x39
 14978 590f 6E020000 		.4byte	.LVL182
 14979 5913 88610000 		.4byte	0x6188
ARM GAS  /tmp/ccTUBOn1.s 			page 264


 14980 5917 2A590000 		.4byte	0x592a
 14981 591b 3A       		.uleb128 0x3a
 14982 591c 01       		.uleb128 0x1
 14983 591d 50       		.byte	0x50
 14984 591e 02       		.uleb128 0x2
 14985 591f 79       		.byte	0x79
 14986 5920 00       		.sleb128 0
 14987 5921 3A       		.uleb128 0x3a
 14988 5922 02       		.uleb128 0x2
 14989 5923 90       		.byte	0x90
 14990 5924 40       		.uleb128 0x40
 14991 5925 03       		.uleb128 0x3
 14992 5926 F5       		.byte	0xf5
 14993 5927 55       		.uleb128 0x55
 14994 5928 25       		.uleb128 0x25
 14995 5929 00       		.byte	0
 14996 592a 3D       		.uleb128 0x3d
 14997 592b 72020000 		.4byte	.LVL183
 14998 592f 93610000 		.4byte	0x6193
 14999 5933 39       		.uleb128 0x39
 15000 5934 9E020000 		.4byte	.LVL188
 15001 5938 9C620000 		.4byte	0x629c
 15002 593c 4D590000 		.4byte	0x594d
 15003 5940 3A       		.uleb128 0x3a
 15004 5941 02       		.uleb128 0x2
 15005 5942 90       		.byte	0x90
 15006 5943 40       		.uleb128 0x40
 15007 5944 07       		.uleb128 0x7
 15008 5945 F4       		.byte	0xf4
 15009 5946 25       		.uleb128 0x25
 15010 5947 04       		.byte	0x4
 15011 5948 00000000 		.4byte	0
 15012 594c 00       		.byte	0
 15013 594d 39       		.uleb128 0x39
 15014 594e A8020000 		.4byte	.LVL189
 15015 5952 88610000 		.4byte	0x6188
 15016 5956 69590000 		.4byte	0x5969
 15017 595a 3A       		.uleb128 0x3a
 15018 595b 01       		.uleb128 0x1
 15019 595c 50       		.byte	0x50
 15020 595d 02       		.uleb128 0x2
 15021 595e 79       		.byte	0x79
 15022 595f 00       		.sleb128 0
 15023 5960 3A       		.uleb128 0x3a
 15024 5961 02       		.uleb128 0x2
 15025 5962 90       		.byte	0x90
 15026 5963 40       		.uleb128 0x40
 15027 5964 03       		.uleb128 0x3
 15028 5965 F5       		.byte	0xf5
 15029 5966 55       		.uleb128 0x55
 15030 5967 25       		.uleb128 0x25
 15031 5968 00       		.byte	0
 15032 5969 39       		.uleb128 0x39
 15033 596a AE020000 		.4byte	.LVL190
 15034 596e 3B610000 		.4byte	0x613b
 15035 5972 80590000 		.4byte	0x5980
 15036 5976 3A       		.uleb128 0x3a
ARM GAS  /tmp/ccTUBOn1.s 			page 265


 15037 5977 01       		.uleb128 0x1
 15038 5978 50       		.byte	0x50
 15039 5979 05       		.uleb128 0x5
 15040 597a 03       		.byte	0x3
 15041 597b 00000000 		.4byte	.LANCHOR2
 15042 597f 00       		.byte	0
 15043 5980 3D       		.uleb128 0x3d
 15044 5981 B2020000 		.4byte	.LVL191
 15045 5985 93610000 		.4byte	0x6193
 15046 5989 00       		.byte	0
 15047 598a 0B       		.uleb128 0xb
 15048 598b 04       		.byte	0x4
 15049 598c BE000000 		.4byte	0xbe
 15050 5990 0B       		.uleb128 0xb
 15051 5991 04       		.byte	0x4
 15052 5992 A6000000 		.4byte	0xa6
 15053 5996 33       		.uleb128 0x33
 15054 5997 5F380000 		.4byte	.LASF1108
 15055 599b 01       		.byte	0x1
 15056 599c 2801     		.2byte	0x128
 15057 599e 04170000 		.4byte	0x1704
 15058 59a2 00000000 		.4byte	.LFB266
 15059 59a6 70000000 		.4byte	.LFE266-.LFB266
 15060 59aa 01       		.uleb128 0x1
 15061 59ab 9C       		.byte	0x9c
 15062 59ac A65A0000 		.4byte	0x5aa6
 15063 59b0 34       		.uleb128 0x34
 15064 59b1 E12B0000 		.4byte	.LASF1109
 15065 59b5 01       		.byte	0x1
 15066 59b6 2801     		.2byte	0x128
 15067 59b8 A65A0000 		.4byte	0x5aa6
 15068 59bc C61B0000 		.4byte	.LLST31
 15069 59c0 36       		.uleb128 0x36
 15070 59c1 480E0000 		.4byte	.LASF1110
 15071 59c5 01       		.byte	0x1
 15072 59c6 3101     		.2byte	0x131
 15073 59c8 04170000 		.4byte	0x1704
 15074 59cc FF1B0000 		.4byte	.LLST32
 15075 59d0 36       		.uleb128 0x36
 15076 59d1 173D0000 		.4byte	.LASF1111
 15077 59d5 01       		.byte	0x1
 15078 59d6 3201     		.2byte	0x132
 15079 59d8 3A0E0000 		.4byte	0xe3a
 15080 59dc 2A1C0000 		.4byte	.LLST33
 15081 59e0 38       		.uleb128 0x38
 15082 59e1 30000000 		.4byte	.Ldebug_ranges0+0x30
 15083 59e5 225A0000 		.4byte	0x5a22
 15084 59e9 37       		.uleb128 0x37
 15085 59ea 6900     		.ascii	"i\000"
 15086 59ec 01       		.byte	0x1
 15087 59ed 3801     		.2byte	0x138
 15088 59ef B7000000 		.4byte	0xb7
 15089 59f3 581C0000 		.4byte	.LLST34
 15090 59f7 42       		.uleb128 0x42
 15091 59f8 32000000 		.4byte	.LBB13
 15092 59fc 1E000000 		.4byte	.LBE13-.LBB13
 15093 5a00 37       		.uleb128 0x37
ARM GAS  /tmp/ccTUBOn1.s 			page 266


 15094 5a01 76617200 		.ascii	"var\000"
 15095 5a05 01       		.byte	0x1
 15096 5a06 3901     		.2byte	0x139
 15097 5a08 D9000000 		.4byte	0xd9
 15098 5a0c 6C1C0000 		.4byte	.LLST35
 15099 5a10 3B       		.uleb128 0x3b
 15100 5a11 42000000 		.4byte	.LVL85
 15101 5a15 E9620000 		.4byte	0x62e9
 15102 5a19 3A       		.uleb128 0x3a
 15103 5a1a 01       		.uleb128 0x1
 15104 5a1b 50       		.byte	0x50
 15105 5a1c 02       		.uleb128 0x2
 15106 5a1d 74       		.byte	0x74
 15107 5a1e 00       		.sleb128 0
 15108 5a1f 00       		.byte	0
 15109 5a20 00       		.byte	0
 15110 5a21 00       		.byte	0
 15111 5a22 3D       		.uleb128 0x3d
 15112 5a23 08000000 		.4byte	.LVL74
 15113 5a27 93610000 		.4byte	0x6193
 15114 5a2b 3D       		.uleb128 0x3d
 15115 5a2c 0C000000 		.4byte	.LVL75
 15116 5a30 9E610000 		.4byte	0x619e
 15117 5a34 3D       		.uleb128 0x3d
 15118 5a35 10000000 		.4byte	.LVL76
 15119 5a39 F4620000 		.4byte	0x62f4
 15120 5a3d 3D       		.uleb128 0x3d
 15121 5a3e 14000000 		.4byte	.LVL77
 15122 5a42 D5610000 		.4byte	0x61d5
 15123 5a46 3D       		.uleb128 0x3d
 15124 5a47 18000000 		.4byte	.LVL78
 15125 5a4b FF620000 		.4byte	0x62ff
 15126 5a4f 3D       		.uleb128 0x3d
 15127 5a50 1C000000 		.4byte	.LVL79
 15128 5a54 0A630000 		.4byte	0x630a
 15129 5a58 39       		.uleb128 0x39
 15130 5a59 22000000 		.4byte	.LVL80
 15131 5a5d 16630000 		.4byte	0x6316
 15132 5a61 6C5A0000 		.4byte	0x5a6c
 15133 5a65 3A       		.uleb128 0x3a
 15134 5a66 01       		.uleb128 0x1
 15135 5a67 50       		.byte	0x50
 15136 5a68 02       		.uleb128 0x2
 15137 5a69 08       		.byte	0x8
 15138 5a6a F2       		.byte	0xf2
 15139 5a6b 00       		.byte	0
 15140 5a6c 3D       		.uleb128 0x3d
 15141 5a6d 54000000 		.4byte	.LVL87
 15142 5a71 22630000 		.4byte	0x6322
 15143 5a75 3D       		.uleb128 0x3d
 15144 5a76 58000000 		.4byte	.LVL88
 15145 5a7a 2E630000 		.4byte	0x632e
 15146 5a7e 39       		.uleb128 0x39
 15147 5a7f 60000000 		.4byte	.LVL89
 15148 5a83 F5600000 		.4byte	0x60f5
 15149 5a87 935A0000 		.4byte	0x5a93
 15150 5a8b 3A       		.uleb128 0x3a
ARM GAS  /tmp/ccTUBOn1.s 			page 267


 15151 5a8c 01       		.uleb128 0x1
 15152 5a8d 50       		.byte	0x50
 15153 5a8e 03       		.uleb128 0x3
 15154 5a8f 0A       		.byte	0xa
 15155 5a90 E803     		.2byte	0x3e8
 15156 5a92 00       		.byte	0
 15157 5a93 3D       		.uleb128 0x3d
 15158 5a94 64000000 		.4byte	.LVL90
 15159 5a98 93610000 		.4byte	0x6193
 15160 5a9c 3D       		.uleb128 0x3d
 15161 5a9d 68000000 		.4byte	.LVL91
 15162 5aa1 39630000 		.4byte	0x6339
 15163 5aa5 00       		.byte	0
 15164 5aa6 0B       		.uleb128 0xb
 15165 5aa7 04       		.byte	0x4
 15166 5aa8 2B170000 		.4byte	0x172b
 15167 5aac 43       		.uleb128 0x43
 15168 5aad 33160000 		.4byte	.LASF1113
 15169 5ab1 01       		.byte	0x1
 15170 5ab2 0E01     		.2byte	0x10e
 15171 5ab4 00000000 		.4byte	.LFB265
 15172 5ab8 42000000 		.4byte	.LFE265-.LFB265
 15173 5abc 01       		.uleb128 0x1
 15174 5abd 9C       		.byte	0x9c
 15175 5abe 445B0000 		.4byte	0x5b44
 15176 5ac2 34       		.uleb128 0x34
 15177 5ac3 E12B0000 		.4byte	.LASF1109
 15178 5ac7 01       		.byte	0x1
 15179 5ac8 0E01     		.2byte	0x10e
 15180 5aca A65A0000 		.4byte	0x5aa6
 15181 5ace A71C0000 		.4byte	.LLST27
 15182 5ad2 36       		.uleb128 0x36
 15183 5ad3 480E0000 		.4byte	.LASF1110
 15184 5ad7 01       		.byte	0x1
 15185 5ad8 0F01     		.2byte	0x10f
 15186 5ada 04170000 		.4byte	0x1704
 15187 5ade C51C0000 		.4byte	.LLST28
 15188 5ae2 36       		.uleb128 0x36
 15189 5ae3 173D0000 		.4byte	.LASF1111
 15190 5ae7 01       		.byte	0x1
 15191 5ae8 1001     		.2byte	0x110
 15192 5aea 3A0E0000 		.4byte	0xe3a
 15193 5aee E51C0000 		.4byte	.LLST29
 15194 5af2 44       		.uleb128 0x44
 15195 5af3 76617200 		.ascii	"var\000"
 15196 5af7 01       		.byte	0x1
 15197 5af8 1101     		.2byte	0x111
 15198 5afa D9000000 		.4byte	0xd9
 15199 5afe 02       		.uleb128 0x2
 15200 5aff 91       		.byte	0x91
 15201 5b00 66       		.sleb128 -26
 15202 5b01 3C       		.uleb128 0x3c
 15203 5b02 0C000000 		.4byte	.LBB11
 15204 5b06 2C000000 		.4byte	.LBE11-.LBB11
 15205 5b0a 335B0000 		.4byte	0x5b33
 15206 5b0e 37       		.uleb128 0x37
 15207 5b0f 6900     		.ascii	"i\000"
ARM GAS  /tmp/ccTUBOn1.s 			page 268


 15208 5b11 01       		.byte	0x1
 15209 5b12 1301     		.2byte	0x113
 15210 5b14 B7000000 		.4byte	0xb7
 15211 5b18 031D0000 		.4byte	.LLST30
 15212 5b1c 3B       		.uleb128 0x3b
 15213 5b1d 30000000 		.4byte	.LVL70
 15214 5b21 44630000 		.4byte	0x6344
 15215 5b25 3A       		.uleb128 0x3a
 15216 5b26 01       		.uleb128 0x1
 15217 5b27 50       		.byte	0x50
 15218 5b28 02       		.uleb128 0x2
 15219 5b29 74       		.byte	0x74
 15220 5b2a 00       		.sleb128 0
 15221 5b2b 3A       		.uleb128 0x3a
 15222 5b2c 01       		.uleb128 0x1
 15223 5b2d 51       		.byte	0x51
 15224 5b2e 02       		.uleb128 0x2
 15225 5b2f 91       		.byte	0x91
 15226 5b30 66       		.sleb128 -26
 15227 5b31 00       		.byte	0
 15228 5b32 00       		.byte	0
 15229 5b33 3B       		.uleb128 0x3b
 15230 5b34 3E000000 		.4byte	.LVL72
 15231 5b38 4F630000 		.4byte	0x634f
 15232 5b3c 3A       		.uleb128 0x3a
 15233 5b3d 01       		.uleb128 0x1
 15234 5b3e 50       		.byte	0x50
 15235 5b3f 02       		.uleb128 0x2
 15236 5b40 77       		.byte	0x77
 15237 5b41 00       		.sleb128 0
 15238 5b42 00       		.byte	0
 15239 5b43 00       		.byte	0
 15240 5b44 45       		.uleb128 0x45
 15241 5b45 6F350000 		.4byte	.LASF1112
 15242 5b49 01       		.byte	0x1
 15243 5b4a E3       		.byte	0xe3
 15244 5b4b 04170000 		.4byte	0x1704
 15245 5b4f 00000000 		.4byte	.LFB264
 15246 5b53 70000000 		.4byte	.LFE264-.LFB264
 15247 5b57 01       		.uleb128 0x1
 15248 5b58 9C       		.byte	0x9c
 15249 5b59 445C0000 		.4byte	0x5c44
 15250 5b5d 46       		.uleb128 0x46
 15251 5b5e E12B0000 		.4byte	.LASF1109
 15252 5b62 01       		.byte	0x1
 15253 5b63 E3       		.byte	0xe3
 15254 5b64 445C0000 		.4byte	0x5c44
 15255 5b68 171D0000 		.4byte	.LLST22
 15256 5b6c 47       		.uleb128 0x47
 15257 5b6d 480E0000 		.4byte	.LASF1110
 15258 5b71 01       		.byte	0x1
 15259 5b72 EC       		.byte	0xec
 15260 5b73 04170000 		.4byte	0x1704
 15261 5b77 501D0000 		.4byte	.LLST23
 15262 5b7b 47       		.uleb128 0x47
 15263 5b7c 173D0000 		.4byte	.LASF1111
 15264 5b80 01       		.byte	0x1
ARM GAS  /tmp/ccTUBOn1.s 			page 269


 15265 5b81 ED       		.byte	0xed
 15266 5b82 3A0E0000 		.4byte	0xe3a
 15267 5b86 7B1D0000 		.4byte	.LLST24
 15268 5b8a 48       		.uleb128 0x48
 15269 5b8b 76617200 		.ascii	"var\000"
 15270 5b8f 01       		.byte	0x1
 15271 5b90 EE       		.byte	0xee
 15272 5b91 D9000000 		.4byte	0xd9
 15273 5b95 A91D0000 		.4byte	.LLST25
 15274 5b99 38       		.uleb128 0x38
 15275 5b9a 18000000 		.4byte	.Ldebug_ranges0+0x18
 15276 5b9e C05B0000 		.4byte	0x5bc0
 15277 5ba2 48       		.uleb128 0x48
 15278 5ba3 6900     		.ascii	"i\000"
 15279 5ba5 01       		.byte	0x1
 15280 5ba6 F4       		.byte	0xf4
 15281 5ba7 B7000000 		.4byte	0xb7
 15282 5bab E41D0000 		.4byte	.LLST26
 15283 5baf 3B       		.uleb128 0x3b
 15284 5bb0 42000000 		.4byte	.LVL59
 15285 5bb4 E9620000 		.4byte	0x62e9
 15286 5bb8 3A       		.uleb128 0x3a
 15287 5bb9 01       		.uleb128 0x1
 15288 5bba 50       		.byte	0x50
 15289 5bbb 02       		.uleb128 0x2
 15290 5bbc 74       		.byte	0x74
 15291 5bbd 00       		.sleb128 0
 15292 5bbe 00       		.byte	0
 15293 5bbf 00       		.byte	0
 15294 5bc0 3D       		.uleb128 0x3d
 15295 5bc1 08000000 		.4byte	.LVL48
 15296 5bc5 93610000 		.4byte	0x6193
 15297 5bc9 3D       		.uleb128 0x3d
 15298 5bca 0C000000 		.4byte	.LVL49
 15299 5bce 9E610000 		.4byte	0x619e
 15300 5bd2 3D       		.uleb128 0x3d
 15301 5bd3 10000000 		.4byte	.LVL50
 15302 5bd7 F4620000 		.4byte	0x62f4
 15303 5bdb 3D       		.uleb128 0x3d
 15304 5bdc 14000000 		.4byte	.LVL51
 15305 5be0 D5610000 		.4byte	0x61d5
 15306 5be4 3D       		.uleb128 0x3d
 15307 5be5 18000000 		.4byte	.LVL52
 15308 5be9 FF620000 		.4byte	0x62ff
 15309 5bed 3D       		.uleb128 0x3d
 15310 5bee 1C000000 		.4byte	.LVL53
 15311 5bf2 0A630000 		.4byte	0x630a
 15312 5bf6 39       		.uleb128 0x39
 15313 5bf7 22000000 		.4byte	.LVL54
 15314 5bfb 16630000 		.4byte	0x6316
 15315 5bff 0A5C0000 		.4byte	0x5c0a
 15316 5c03 3A       		.uleb128 0x3a
 15317 5c04 01       		.uleb128 0x1
 15318 5c05 50       		.byte	0x50
 15319 5c06 02       		.uleb128 0x2
 15320 5c07 08       		.byte	0x8
 15321 5c08 F2       		.byte	0xf2
ARM GAS  /tmp/ccTUBOn1.s 			page 270


 15322 5c09 00       		.byte	0
 15323 5c0a 3D       		.uleb128 0x3d
 15324 5c0b 54000000 		.4byte	.LVL61
 15325 5c0f 22630000 		.4byte	0x6322
 15326 5c13 3D       		.uleb128 0x3d
 15327 5c14 58000000 		.4byte	.LVL62
 15328 5c18 2E630000 		.4byte	0x632e
 15329 5c1c 39       		.uleb128 0x39
 15330 5c1d 60000000 		.4byte	.LVL63
 15331 5c21 F5600000 		.4byte	0x60f5
 15332 5c25 315C0000 		.4byte	0x5c31
 15333 5c29 3A       		.uleb128 0x3a
 15334 5c2a 01       		.uleb128 0x1
 15335 5c2b 50       		.byte	0x50
 15336 5c2c 03       		.uleb128 0x3
 15337 5c2d 0A       		.byte	0xa
 15338 5c2e E803     		.2byte	0x3e8
 15339 5c30 00       		.byte	0
 15340 5c31 3D       		.uleb128 0x3d
 15341 5c32 64000000 		.4byte	.LVL64
 15342 5c36 93610000 		.4byte	0x6193
 15343 5c3a 3D       		.uleb128 0x3d
 15344 5c3b 68000000 		.4byte	.LVL65
 15345 5c3f 39630000 		.4byte	0x6339
 15346 5c43 00       		.byte	0
 15347 5c44 0B       		.uleb128 0xb
 15348 5c45 04       		.byte	0x4
 15349 5c46 0D1E0000 		.4byte	0x1e0d
 15350 5c4a 49       		.uleb128 0x49
 15351 5c4b 0E3C0000 		.4byte	.LASF1114
 15352 5c4f 01       		.byte	0x1
 15353 5c50 C8       		.byte	0xc8
 15354 5c51 00000000 		.4byte	.LFB263
 15355 5c55 42000000 		.4byte	.LFE263-.LFB263
 15356 5c59 01       		.uleb128 0x1
 15357 5c5a 9C       		.byte	0x9c
 15358 5c5b DC5C0000 		.4byte	0x5cdc
 15359 5c5f 46       		.uleb128 0x46
 15360 5c60 E12B0000 		.4byte	.LASF1109
 15361 5c64 01       		.byte	0x1
 15362 5c65 C8       		.byte	0xc8
 15363 5c66 445C0000 		.4byte	0x5c44
 15364 5c6a F81D0000 		.4byte	.LLST18
 15365 5c6e 47       		.uleb128 0x47
 15366 5c6f 480E0000 		.4byte	.LASF1110
 15367 5c73 01       		.byte	0x1
 15368 5c74 C9       		.byte	0xc9
 15369 5c75 04170000 		.4byte	0x1704
 15370 5c79 161E0000 		.4byte	.LLST19
 15371 5c7d 47       		.uleb128 0x47
 15372 5c7e 173D0000 		.4byte	.LASF1111
 15373 5c82 01       		.byte	0x1
 15374 5c83 CA       		.byte	0xca
 15375 5c84 3A0E0000 		.4byte	0xe3a
 15376 5c88 361E0000 		.4byte	.LLST20
 15377 5c8c 4A       		.uleb128 0x4a
 15378 5c8d 76617200 		.ascii	"var\000"
ARM GAS  /tmp/ccTUBOn1.s 			page 271


 15379 5c91 01       		.byte	0x1
 15380 5c92 CB       		.byte	0xcb
 15381 5c93 D9000000 		.4byte	0xd9
 15382 5c97 02       		.uleb128 0x2
 15383 5c98 91       		.byte	0x91
 15384 5c99 66       		.sleb128 -26
 15385 5c9a 3C       		.uleb128 0x3c
 15386 5c9b 0C000000 		.4byte	.LBB8
 15387 5c9f 2C000000 		.4byte	.LBE8-.LBB8
 15388 5ca3 CB5C0000 		.4byte	0x5ccb
 15389 5ca7 48       		.uleb128 0x48
 15390 5ca8 6900     		.ascii	"i\000"
 15391 5caa 01       		.byte	0x1
 15392 5cab CD       		.byte	0xcd
 15393 5cac B7000000 		.4byte	0xb7
 15394 5cb0 541E0000 		.4byte	.LLST21
 15395 5cb4 3B       		.uleb128 0x3b
 15396 5cb5 30000000 		.4byte	.LVL44
 15397 5cb9 44630000 		.4byte	0x6344
 15398 5cbd 3A       		.uleb128 0x3a
 15399 5cbe 01       		.uleb128 0x1
 15400 5cbf 50       		.byte	0x50
 15401 5cc0 02       		.uleb128 0x2
 15402 5cc1 74       		.byte	0x74
 15403 5cc2 00       		.sleb128 0
 15404 5cc3 3A       		.uleb128 0x3a
 15405 5cc4 01       		.uleb128 0x1
 15406 5cc5 51       		.byte	0x51
 15407 5cc6 02       		.uleb128 0x2
 15408 5cc7 91       		.byte	0x91
 15409 5cc8 66       		.sleb128 -26
 15410 5cc9 00       		.byte	0
 15411 5cca 00       		.byte	0
 15412 5ccb 3B       		.uleb128 0x3b
 15413 5ccc 3E000000 		.4byte	.LVL46
 15414 5cd0 5A630000 		.4byte	0x635a
 15415 5cd4 3A       		.uleb128 0x3a
 15416 5cd5 01       		.uleb128 0x1
 15417 5cd6 50       		.byte	0x50
 15418 5cd7 02       		.uleb128 0x2
 15419 5cd8 77       		.byte	0x77
 15420 5cd9 00       		.sleb128 0
 15421 5cda 00       		.byte	0
 15422 5cdb 00       		.byte	0
 15423 5cdc 4B       		.uleb128 0x4b
 15424 5cdd 9F0F0000 		.4byte	.LASF1118
 15425 5ce1 01       		.byte	0x1
 15426 5ce2 A4       		.byte	0xa4
 15427 5ce3 04170000 		.4byte	0x1704
 15428 5ce7 00000000 		.4byte	.LFB262
 15429 5ceb 56000000 		.4byte	.LFE262-.LFB262
 15430 5cef 01       		.uleb128 0x1
 15431 5cf0 9C       		.byte	0x9c
 15432 5cf1 CE5D0000 		.4byte	0x5dce
 15433 5cf5 4C       		.uleb128 0x4c
 15434 5cf6 7600     		.ascii	"v\000"
 15435 5cf8 01       		.byte	0x1
ARM GAS  /tmp/ccTUBOn1.s 			page 272


 15436 5cf9 A4       		.byte	0xa4
 15437 5cfa CE5D0000 		.4byte	0x5dce
 15438 5cfe 681E0000 		.4byte	.LLST4
 15439 5d02 46       		.uleb128 0x46
 15440 5d03 8A1D0000 		.4byte	.LASF488
 15441 5d07 01       		.byte	0x1
 15442 5d08 A4       		.byte	0xa4
 15443 5d09 A6000000 		.4byte	0xa6
 15444 5d0d 891E0000 		.4byte	.LLST5
 15445 5d11 46       		.uleb128 0x46
 15446 5d12 07340000 		.4byte	.LASF1115
 15447 5d16 01       		.byte	0x1
 15448 5d17 A4       		.byte	0xa4
 15449 5d18 D9000000 		.4byte	0xd9
 15450 5d1c A71E0000 		.4byte	.LLST6
 15451 5d20 47       		.uleb128 0x47
 15452 5d21 480E0000 		.4byte	.LASF1110
 15453 5d25 01       		.byte	0x1
 15454 5d26 A5       		.byte	0xa5
 15455 5d27 04170000 		.4byte	0x1704
 15456 5d2b C81E0000 		.4byte	.LLST7
 15457 5d2f 4D       		.uleb128 0x4d
 15458 5d30 B93F0000 		.4byte	.LASF1116
 15459 5d34 01       		.byte	0x1
 15460 5d35 A6       		.byte	0xa6
 15461 5d36 D9000000 		.4byte	0xd9
 15462 5d3a 05       		.uleb128 0x5
 15463 5d3b 75       		.byte	0x75
 15464 5d3c 00       		.sleb128 0
 15465 5d3d 40       		.byte	0x40
 15466 5d3e 25       		.byte	0x25
 15467 5d3f 9F       		.byte	0x9f
 15468 5d40 4D       		.uleb128 0x4d
 15469 5d41 C5370000 		.4byte	.LASF1117
 15470 5d45 01       		.byte	0x1
 15471 5d46 A6       		.byte	0xa6
 15472 5d47 D9000000 		.4byte	0xd9
 15473 5d4b 01       		.uleb128 0x1
 15474 5d4c 55       		.byte	0x55
 15475 5d4d 3D       		.uleb128 0x3d
 15476 5d4e 10000000 		.4byte	.LVL12
 15477 5d52 FF620000 		.4byte	0x62ff
 15478 5d56 3D       		.uleb128 0x3d
 15479 5d57 16000000 		.4byte	.LVL13
 15480 5d5b 0A630000 		.4byte	0x630a
 15481 5d5f 39       		.uleb128 0x39
 15482 5d60 1C000000 		.4byte	.LVL14
 15483 5d64 16630000 		.4byte	0x6316
 15484 5d68 735D0000 		.4byte	0x5d73
 15485 5d6c 3A       		.uleb128 0x3a
 15486 5d6d 01       		.uleb128 0x1
 15487 5d6e 50       		.byte	0x50
 15488 5d6f 02       		.uleb128 0x2
 15489 5d70 08       		.byte	0x8
 15490 5d71 F2       		.byte	0xf2
 15491 5d72 00       		.byte	0
 15492 5d73 39       		.uleb128 0x39
ARM GAS  /tmp/ccTUBOn1.s 			page 273


 15493 5d74 24000000 		.4byte	.LVL15
 15494 5d78 E9620000 		.4byte	0x62e9
 15495 5d7c 8F5D0000 		.4byte	0x5d8f
 15496 5d80 3A       		.uleb128 0x3a
 15497 5d81 01       		.uleb128 0x1
 15498 5d82 50       		.byte	0x50
 15499 5d83 02       		.uleb128 0x2
 15500 5d84 74       		.byte	0x74
 15501 5d85 00       		.sleb128 0
 15502 5d86 3A       		.uleb128 0x3a
 15503 5d87 01       		.uleb128 0x1
 15504 5d88 51       		.byte	0x51
 15505 5d89 04       		.uleb128 0x4
 15506 5d8a 75       		.byte	0x75
 15507 5d8b 00       		.sleb128 0
 15508 5d8c 40       		.byte	0x40
 15509 5d8d 25       		.byte	0x25
 15510 5d8e 00       		.byte	0
 15511 5d8f 3D       		.uleb128 0x3d
 15512 5d90 2E000000 		.4byte	.LVL17
 15513 5d94 22630000 		.4byte	0x6322
 15514 5d98 3D       		.uleb128 0x3d
 15515 5d99 32000000 		.4byte	.LVL18
 15516 5d9d 2E630000 		.4byte	0x632e
 15517 5da1 39       		.uleb128 0x39
 15518 5da2 40000000 		.4byte	.LVL20
 15519 5da6 E9620000 		.4byte	0x62e9
 15520 5daa BB5D0000 		.4byte	0x5dbb
 15521 5dae 3A       		.uleb128 0x3a
 15522 5daf 01       		.uleb128 0x1
 15523 5db0 50       		.byte	0x50
 15524 5db1 02       		.uleb128 0x2
 15525 5db2 74       		.byte	0x74
 15526 5db3 01       		.sleb128 1
 15527 5db4 3A       		.uleb128 0x3a
 15528 5db5 01       		.uleb128 0x1
 15529 5db6 51       		.byte	0x51
 15530 5db7 02       		.uleb128 0x2
 15531 5db8 75       		.byte	0x75
 15532 5db9 00       		.sleb128 0
 15533 5dba 00       		.byte	0
 15534 5dbb 3D       		.uleb128 0x3d
 15535 5dbc 4E000000 		.4byte	.LVL22
 15536 5dc0 22630000 		.4byte	0x6322
 15537 5dc4 3D       		.uleb128 0x3d
 15538 5dc5 52000000 		.4byte	.LVL23
 15539 5dc9 2E630000 		.4byte	0x632e
 15540 5dcd 00       		.byte	0
 15541 5dce 0B       		.uleb128 0xb
 15542 5dcf 04       		.byte	0x4
 15543 5dd0 00200000 		.4byte	0x2000
 15544 5dd4 4B       		.uleb128 0x4b
 15545 5dd5 B1100000 		.4byte	.LASF1119
 15546 5dd9 01       		.byte	0x1
 15547 5dda 95       		.byte	0x95
 15548 5ddb 04170000 		.4byte	0x1704
 15549 5ddf 00000000 		.4byte	.LFB261
ARM GAS  /tmp/ccTUBOn1.s 			page 274


 15550 5de3 40000000 		.4byte	.LFE261-.LFB261
 15551 5de7 01       		.uleb128 0x1
 15552 5de8 9C       		.byte	0x9c
 15553 5de9 9E5E0000 		.4byte	0x5e9e
 15554 5ded 4C       		.uleb128 0x4c
 15555 5dee 7600     		.ascii	"v\000"
 15556 5df0 01       		.byte	0x1
 15557 5df1 95       		.byte	0x95
 15558 5df2 CE5D0000 		.4byte	0x5dce
 15559 5df6 FE1E0000 		.4byte	.LLST0
 15560 5dfa 46       		.uleb128 0x46
 15561 5dfb 8A1D0000 		.4byte	.LASF488
 15562 5dff 01       		.byte	0x1
 15563 5e00 95       		.byte	0x95
 15564 5e01 A6000000 		.4byte	0xa6
 15565 5e05 1C1F0000 		.4byte	.LLST1
 15566 5e09 46       		.uleb128 0x46
 15567 5e0a 07340000 		.4byte	.LASF1115
 15568 5e0e 01       		.byte	0x1
 15569 5e0f 95       		.byte	0x95
 15570 5e10 D9000000 		.4byte	0xd9
 15571 5e14 3D1F0000 		.4byte	.LLST2
 15572 5e18 47       		.uleb128 0x47
 15573 5e19 480E0000 		.4byte	.LASF1110
 15574 5e1d 01       		.byte	0x1
 15575 5e1e 96       		.byte	0x96
 15576 5e1f 04170000 		.4byte	0x1704
 15577 5e23 5E1F0000 		.4byte	.LLST3
 15578 5e27 4D       		.uleb128 0x4d
 15579 5e28 B93F0000 		.4byte	.LASF1116
 15580 5e2c 01       		.byte	0x1
 15581 5e2d 97       		.byte	0x97
 15582 5e2e D9000000 		.4byte	0xd9
 15583 5e32 02       		.uleb128 0x2
 15584 5e33 91       		.byte	0x91
 15585 5e34 6C       		.sleb128 -20
 15586 5e35 4D       		.uleb128 0x4d
 15587 5e36 C5370000 		.4byte	.LASF1117
 15588 5e3a 01       		.byte	0x1
 15589 5e3b 97       		.byte	0x97
 15590 5e3c D9000000 		.4byte	0xd9
 15591 5e40 02       		.uleb128 0x2
 15592 5e41 91       		.byte	0x91
 15593 5e42 6E       		.sleb128 -18
 15594 5e43 38       		.uleb128 0x38
 15595 5e44 00000000 		.4byte	.Ldebug_ranges0+0
 15596 5e48 6D5E0000 		.4byte	0x5e6d
 15597 5e4c 4A       		.uleb128 0x4a
 15598 5e4d 72657300 		.ascii	"res\000"
 15599 5e51 01       		.byte	0x1
 15600 5e52 9B       		.byte	0x9b
 15601 5e53 F9000000 		.4byte	0xf9
 15602 5e57 14       		.uleb128 0x14
 15603 5e58 91       		.byte	0x91
 15604 5e59 6C       		.sleb128 -20
 15605 5e5a 94       		.byte	0x94
 15606 5e5b 02       		.byte	0x2
ARM GAS  /tmp/ccTUBOn1.s 			page 275


 15607 5e5c 0A       		.byte	0xa
 15608 5e5d FFFF     		.2byte	0xffff
 15609 5e5f 1A       		.byte	0x1a
 15610 5e60 40       		.byte	0x40
 15611 5e61 24       		.byte	0x24
 15612 5e62 91       		.byte	0x91
 15613 5e63 6E       		.sleb128 -18
 15614 5e64 94       		.byte	0x94
 15615 5e65 02       		.byte	0x2
 15616 5e66 0A       		.byte	0xa
 15617 5e67 FFFF     		.2byte	0xffff
 15618 5e69 1A       		.byte	0x1a
 15619 5e6a 21       		.byte	0x21
 15620 5e6b 9F       		.byte	0x9f
 15621 5e6c 00       		.byte	0
 15622 5e6d 39       		.uleb128 0x39
 15623 5e6e 14000000 		.4byte	.LVL4
 15624 5e72 44630000 		.4byte	0x6344
 15625 5e76 875E0000 		.4byte	0x5e87
 15626 5e7a 3A       		.uleb128 0x3a
 15627 5e7b 01       		.uleb128 0x1
 15628 5e7c 50       		.byte	0x50
 15629 5e7d 02       		.uleb128 0x2
 15630 5e7e 74       		.byte	0x74
 15631 5e7f 00       		.sleb128 0
 15632 5e80 3A       		.uleb128 0x3a
 15633 5e81 01       		.uleb128 0x1
 15634 5e82 51       		.byte	0x51
 15635 5e83 02       		.uleb128 0x2
 15636 5e84 91       		.byte	0x91
 15637 5e85 6C       		.sleb128 -20
 15638 5e86 00       		.byte	0
 15639 5e87 3B       		.uleb128 0x3b
 15640 5e88 28000000 		.4byte	.LVL7
 15641 5e8c 44630000 		.4byte	0x6344
 15642 5e90 3A       		.uleb128 0x3a
 15643 5e91 01       		.uleb128 0x1
 15644 5e92 50       		.byte	0x50
 15645 5e93 02       		.uleb128 0x2
 15646 5e94 74       		.byte	0x74
 15647 5e95 01       		.sleb128 1
 15648 5e96 3A       		.uleb128 0x3a
 15649 5e97 01       		.uleb128 0x1
 15650 5e98 51       		.byte	0x51
 15651 5e99 02       		.uleb128 0x2
 15652 5e9a 91       		.byte	0x91
 15653 5e9b 6E       		.sleb128 -18
 15654 5e9c 00       		.byte	0
 15655 5e9d 00       		.byte	0
 15656 5e9e 45       		.uleb128 0x45
 15657 5e9f 472D0000 		.4byte	.LASF1120
 15658 5ea3 01       		.byte	0x1
 15659 5ea4 91       		.byte	0x91
 15660 5ea5 04170000 		.4byte	0x1704
 15661 5ea9 00000000 		.4byte	.LFB260
 15662 5ead 08000000 		.4byte	.LFE260-.LFB260
 15663 5eb1 01       		.uleb128 0x1
ARM GAS  /tmp/ccTUBOn1.s 			page 276


 15664 5eb2 9C       		.byte	0x9c
 15665 5eb3 F35E0000 		.4byte	0x5ef3
 15666 5eb7 4C       		.uleb128 0x4c
 15667 5eb8 7600     		.ascii	"v\000"
 15668 5eba 01       		.byte	0x1
 15669 5ebb 91       		.byte	0x91
 15670 5ebc CE5D0000 		.4byte	0x5dce
 15671 5ec0 941F0000 		.4byte	.LLST16
 15672 5ec4 46       		.uleb128 0x46
 15673 5ec5 8A1D0000 		.4byte	.LASF488
 15674 5ec9 01       		.byte	0x1
 15675 5eca 91       		.byte	0x91
 15676 5ecb A6000000 		.4byte	0xa6
 15677 5ecf B51F0000 		.4byte	.LLST17
 15678 5ed3 4E       		.uleb128 0x4e
 15679 5ed4 08000000 		.4byte	.LVL40
 15680 5ed8 DC5C0000 		.4byte	0x5cdc
 15681 5edc 3A       		.uleb128 0x3a
 15682 5edd 01       		.uleb128 0x1
 15683 5ede 50       		.byte	0x50
 15684 5edf 03       		.uleb128 0x3
 15685 5ee0 F3       		.byte	0xf3
 15686 5ee1 01       		.uleb128 0x1
 15687 5ee2 50       		.byte	0x50
 15688 5ee3 3A       		.uleb128 0x3a
 15689 5ee4 01       		.uleb128 0x1
 15690 5ee5 51       		.byte	0x51
 15691 5ee6 03       		.uleb128 0x3
 15692 5ee7 F3       		.byte	0xf3
 15693 5ee8 01       		.uleb128 0x1
 15694 5ee9 51       		.byte	0x51
 15695 5eea 3A       		.uleb128 0x3a
 15696 5eeb 01       		.uleb128 0x1
 15697 5eec 52       		.byte	0x52
 15698 5eed 03       		.uleb128 0x3
 15699 5eee 0A       		.byte	0xa
 15700 5eef A00F     		.2byte	0xfa0
 15701 5ef1 00       		.byte	0
 15702 5ef2 00       		.byte	0
 15703 5ef3 45       		.uleb128 0x45
 15704 5ef4 AF0B0000 		.4byte	.LASF1121
 15705 5ef8 01       		.byte	0x1
 15706 5ef9 81       		.byte	0x81
 15707 5efa 04170000 		.4byte	0x1704
 15708 5efe 00000000 		.4byte	.LFB259
 15709 5f02 08000000 		.4byte	.LFE259-.LFB259
 15710 5f06 01       		.uleb128 0x1
 15711 5f07 9C       		.byte	0x9c
 15712 5f08 485F0000 		.4byte	0x5f48
 15713 5f0c 4C       		.uleb128 0x4c
 15714 5f0d 7600     		.ascii	"v\000"
 15715 5f0f 01       		.byte	0x1
 15716 5f10 81       		.byte	0x81
 15717 5f11 CE5D0000 		.4byte	0x5dce
 15718 5f15 D61F0000 		.4byte	.LLST14
 15719 5f19 46       		.uleb128 0x46
 15720 5f1a 8A1D0000 		.4byte	.LASF488
ARM GAS  /tmp/ccTUBOn1.s 			page 277


 15721 5f1e 01       		.byte	0x1
 15722 5f1f 81       		.byte	0x81
 15723 5f20 A6000000 		.4byte	0xa6
 15724 5f24 F71F0000 		.4byte	.LLST15
 15725 5f28 4E       		.uleb128 0x4e
 15726 5f29 08000000 		.4byte	.LVL38
 15727 5f2d DC5C0000 		.4byte	0x5cdc
 15728 5f31 3A       		.uleb128 0x3a
 15729 5f32 01       		.uleb128 0x1
 15730 5f33 50       		.byte	0x50
 15731 5f34 03       		.uleb128 0x3
 15732 5f35 F3       		.byte	0xf3
 15733 5f36 01       		.uleb128 0x1
 15734 5f37 50       		.byte	0x50
 15735 5f38 3A       		.uleb128 0x3a
 15736 5f39 01       		.uleb128 0x1
 15737 5f3a 51       		.byte	0x51
 15738 5f3b 03       		.uleb128 0x3
 15739 5f3c F3       		.byte	0xf3
 15740 5f3d 01       		.uleb128 0x1
 15741 5f3e 51       		.byte	0x51
 15742 5f3f 3A       		.uleb128 0x3a
 15743 5f40 01       		.uleb128 0x1
 15744 5f41 52       		.byte	0x52
 15745 5f42 03       		.uleb128 0x3
 15746 5f43 0A       		.byte	0xa
 15747 5f44 B80B     		.2byte	0xbb8
 15748 5f46 00       		.byte	0
 15749 5f47 00       		.byte	0
 15750 5f48 45       		.uleb128 0x45
 15751 5f49 BC180000 		.4byte	.LASF1122
 15752 5f4d 01       		.byte	0x1
 15753 5f4e 71       		.byte	0x71
 15754 5f4f 04170000 		.4byte	0x1704
 15755 5f53 00000000 		.4byte	.LFB258
 15756 5f57 08000000 		.4byte	.LFE258-.LFB258
 15757 5f5b 01       		.uleb128 0x1
 15758 5f5c 9C       		.byte	0x9c
 15759 5f5d 9D5F0000 		.4byte	0x5f9d
 15760 5f61 4C       		.uleb128 0x4c
 15761 5f62 7600     		.ascii	"v\000"
 15762 5f64 01       		.byte	0x1
 15763 5f65 71       		.byte	0x71
 15764 5f66 CE5D0000 		.4byte	0x5dce
 15765 5f6a 18200000 		.4byte	.LLST12
 15766 5f6e 46       		.uleb128 0x46
 15767 5f6f 8A1D0000 		.4byte	.LASF488
 15768 5f73 01       		.byte	0x1
 15769 5f74 71       		.byte	0x71
 15770 5f75 A6000000 		.4byte	0xa6
 15771 5f79 39200000 		.4byte	.LLST13
 15772 5f7d 4E       		.uleb128 0x4e
 15773 5f7e 08000000 		.4byte	.LVL36
 15774 5f82 D45D0000 		.4byte	0x5dd4
 15775 5f86 3A       		.uleb128 0x3a
 15776 5f87 01       		.uleb128 0x1
 15777 5f88 50       		.byte	0x50
ARM GAS  /tmp/ccTUBOn1.s 			page 278


 15778 5f89 03       		.uleb128 0x3
 15779 5f8a F3       		.byte	0xf3
 15780 5f8b 01       		.uleb128 0x1
 15781 5f8c 50       		.byte	0x50
 15782 5f8d 3A       		.uleb128 0x3a
 15783 5f8e 01       		.uleb128 0x1
 15784 5f8f 51       		.byte	0x51
 15785 5f90 03       		.uleb128 0x3
 15786 5f91 F3       		.byte	0xf3
 15787 5f92 01       		.uleb128 0x1
 15788 5f93 51       		.byte	0x51
 15789 5f94 3A       		.uleb128 0x3a
 15790 5f95 01       		.uleb128 0x1
 15791 5f96 52       		.byte	0x52
 15792 5f97 03       		.uleb128 0x3
 15793 5f98 0A       		.byte	0xa
 15794 5f99 A00F     		.2byte	0xfa0
 15795 5f9b 00       		.byte	0
 15796 5f9c 00       		.byte	0
 15797 5f9d 45       		.uleb128 0x45
 15798 5f9e 12030000 		.4byte	.LASF1123
 15799 5fa2 01       		.byte	0x1
 15800 5fa3 61       		.byte	0x61
 15801 5fa4 04170000 		.4byte	0x1704
 15802 5fa8 00000000 		.4byte	.LFB257
 15803 5fac 08000000 		.4byte	.LFE257-.LFB257
 15804 5fb0 01       		.uleb128 0x1
 15805 5fb1 9C       		.byte	0x9c
 15806 5fb2 F25F0000 		.4byte	0x5ff2
 15807 5fb6 4C       		.uleb128 0x4c
 15808 5fb7 7600     		.ascii	"v\000"
 15809 5fb9 01       		.byte	0x1
 15810 5fba 61       		.byte	0x61
 15811 5fbb CE5D0000 		.4byte	0x5dce
 15812 5fbf 5A200000 		.4byte	.LLST10
 15813 5fc3 46       		.uleb128 0x46
 15814 5fc4 8A1D0000 		.4byte	.LASF488
 15815 5fc8 01       		.byte	0x1
 15816 5fc9 61       		.byte	0x61
 15817 5fca A6000000 		.4byte	0xa6
 15818 5fce 7B200000 		.4byte	.LLST11
 15819 5fd2 4E       		.uleb128 0x4e
 15820 5fd3 08000000 		.4byte	.LVL34
 15821 5fd7 D45D0000 		.4byte	0x5dd4
 15822 5fdb 3A       		.uleb128 0x3a
 15823 5fdc 01       		.uleb128 0x1
 15824 5fdd 50       		.byte	0x50
 15825 5fde 03       		.uleb128 0x3
 15826 5fdf F3       		.byte	0xf3
 15827 5fe0 01       		.uleb128 0x1
 15828 5fe1 50       		.byte	0x50
 15829 5fe2 3A       		.uleb128 0x3a
 15830 5fe3 01       		.uleb128 0x1
 15831 5fe4 51       		.byte	0x51
 15832 5fe5 03       		.uleb128 0x3
 15833 5fe6 F3       		.byte	0xf3
 15834 5fe7 01       		.uleb128 0x1
ARM GAS  /tmp/ccTUBOn1.s 			page 279


 15835 5fe8 51       		.byte	0x51
 15836 5fe9 3A       		.uleb128 0x3a
 15837 5fea 01       		.uleb128 0x1
 15838 5feb 52       		.byte	0x52
 15839 5fec 03       		.uleb128 0x3
 15840 5fed 0A       		.byte	0xa
 15841 5fee B80B     		.2byte	0xbb8
 15842 5ff0 00       		.byte	0
 15843 5ff1 00       		.byte	0
 15844 5ff2 49       		.uleb128 0x49
 15845 5ff3 47190000 		.4byte	.LASF1124
 15846 5ff7 01       		.byte	0x1
 15847 5ff8 39       		.byte	0x39
 15848 5ff9 00000000 		.4byte	.LFB256
 15849 5ffd 90000000 		.4byte	.LFE256-.LFB256
 15850 6001 01       		.uleb128 0x1
 15851 6002 9C       		.byte	0x9c
 15852 6003 C9600000 		.4byte	0x60c9
 15853 6007 48       		.uleb128 0x48
 15854 6008 696E6400 		.ascii	"ind\000"
 15855 600c 01       		.byte	0x1
 15856 600d 3D       		.byte	0x3d
 15857 600e A6000000 		.4byte	0xa6
 15858 6012 9C200000 		.4byte	.LLST8
 15859 6016 3C       		.uleb128 0x3c
 15860 6017 18000000 		.4byte	.LBB4
 15861 601b 16000000 		.4byte	.LBE4-.LBB4
 15862 601f 31600000 		.4byte	0x6031
 15863 6023 48       		.uleb128 0x48
 15864 6024 6900     		.ascii	"i\000"
 15865 6026 01       		.byte	0x1
 15866 6027 3E       		.byte	0x3e
 15867 6028 B7000000 		.4byte	0xb7
 15868 602c 9C200000 		.4byte	.LLST8
 15869 6030 00       		.byte	0
 15870 6031 3C       		.uleb128 0x3c
 15871 6032 2E000000 		.4byte	.LBB5
 15872 6036 16000000 		.4byte	.LBE5-.LBB5
 15873 603a 48600000 		.4byte	0x6048
 15874 603e 4F       		.uleb128 0x4f
 15875 603f 6900     		.ascii	"i\000"
 15876 6041 01       		.byte	0x1
 15877 6042 42       		.byte	0x42
 15878 6043 B7000000 		.4byte	0xb7
 15879 6047 00       		.byte	0
 15880 6048 3C       		.uleb128 0x3c
 15881 6049 44000000 		.4byte	.LBB6
 15882 604d 16000000 		.4byte	.LBE6-.LBB6
 15883 6051 5F600000 		.4byte	0x605f
 15884 6055 4F       		.uleb128 0x4f
 15885 6056 6900     		.ascii	"i\000"
 15886 6058 01       		.byte	0x1
 15887 6059 46       		.byte	0x46
 15888 605a B7000000 		.4byte	0xb7
 15889 605e 00       		.byte	0
 15890 605f 3C       		.uleb128 0x3c
 15891 6060 5A000000 		.4byte	.LBB7
ARM GAS  /tmp/ccTUBOn1.s 			page 280


 15892 6064 0C000000 		.4byte	.LBE7-.LBB7
 15893 6068 76600000 		.4byte	0x6076
 15894 606c 4F       		.uleb128 0x4f
 15895 606d 6900     		.ascii	"i\000"
 15896 606f 01       		.byte	0x1
 15897 6070 4A       		.byte	0x4a
 15898 6071 B7000000 		.4byte	0xb7
 15899 6075 00       		.byte	0
 15900 6076 39       		.uleb128 0x39
 15901 6077 0E000000 		.4byte	.LVL24
 15902 607b 65630000 		.4byte	0x6365
 15903 607f 99600000 		.4byte	0x6099
 15904 6083 3A       		.uleb128 0x3a
 15905 6084 01       		.uleb128 0x1
 15906 6085 50       		.byte	0x50
 15907 6086 05       		.uleb128 0x5
 15908 6087 03       		.byte	0x3
 15909 6088 00000000 		.4byte	.LANCHOR0
 15910 608c 3A       		.uleb128 0x3a
 15911 608d 01       		.uleb128 0x1
 15912 608e 51       		.byte	0x51
 15913 608f 01       		.uleb128 0x1
 15914 6090 30       		.byte	0x30
 15915 6091 3A       		.uleb128 0x3a
 15916 6092 01       		.uleb128 0x1
 15917 6093 52       		.byte	0x52
 15918 6094 03       		.uleb128 0x3
 15919 6095 0A       		.byte	0xa
 15920 6096 9404     		.2byte	0x494
 15921 6098 00       		.byte	0
 15922 6099 3D       		.uleb128 0x3d
 15923 609a 6A000000 		.4byte	.LVL29
 15924 609e 0A630000 		.4byte	0x630a
 15925 60a2 39       		.uleb128 0x39
 15926 60a3 70000000 		.4byte	.LVL30
 15927 60a7 16630000 		.4byte	0x6316
 15928 60ab B6600000 		.4byte	0x60b6
 15929 60af 3A       		.uleb128 0x3a
 15930 60b0 01       		.uleb128 0x1
 15931 60b1 50       		.byte	0x50
 15932 60b2 02       		.uleb128 0x2
 15933 60b3 08       		.byte	0x8
 15934 60b4 F2       		.byte	0xf2
 15935 60b5 00       		.byte	0
 15936 60b6 3D       		.uleb128 0x3d
 15937 60b7 74000000 		.4byte	.LVL31
 15938 60bb 74630000 		.4byte	0x6374
 15939 60bf 50       		.uleb128 0x50
 15940 60c0 7C000000 		.4byte	.LVL32
 15941 60c4 22630000 		.4byte	0x6322
 15942 60c8 00       		.byte	0
 15943 60c9 51       		.uleb128 0x51
 15944 60ca 20390000 		.4byte	.LASF1125
 15945 60ce 20390000 		.4byte	.LASF1125
 15946 60d2 2C       		.byte	0x2c
 15947 60d3 2C       		.byte	0x2c
 15948 60d4 51       		.uleb128 0x51
ARM GAS  /tmp/ccTUBOn1.s 			page 281


 15949 60d5 BA2B0000 		.4byte	.LASF1126
 15950 60d9 BA2B0000 		.4byte	.LASF1126
 15951 60dd 2C       		.byte	0x2c
 15952 60de 30       		.byte	0x30
 15953 60df 51       		.uleb128 0x51
 15954 60e0 D8250000 		.4byte	.LASF1127
 15955 60e4 D8250000 		.4byte	.LASF1127
 15956 60e8 2C       		.byte	0x2c
 15957 60e9 32       		.byte	0x32
 15958 60ea 51       		.uleb128 0x51
 15959 60eb 8E1B0000 		.4byte	.LASF1128
 15960 60ef 8E1B0000 		.4byte	.LASF1128
 15961 60f3 2C       		.byte	0x2c
 15962 60f4 2D       		.byte	0x2d
 15963 60f5 51       		.uleb128 0x51
 15964 60f6 4C350000 		.4byte	.LASF1129
 15965 60fa 4C350000 		.4byte	.LASF1129
 15966 60fe 2D       		.byte	0x2d
 15967 60ff 96       		.byte	0x96
 15968 6100 51       		.uleb128 0x51
 15969 6101 00000000 		.4byte	.LASF1130
 15970 6105 00000000 		.4byte	.LASF1130
 15971 6109 2C       		.byte	0x2c
 15972 610a 35       		.byte	0x35
 15973 610b 51       		.uleb128 0x51
 15974 610c C43E0000 		.4byte	.LASF1131
 15975 6110 C43E0000 		.4byte	.LASF1131
 15976 6114 2C       		.byte	0x2c
 15977 6115 34       		.byte	0x34
 15978 6116 51       		.uleb128 0x51
 15979 6117 FD380000 		.4byte	.LASF1132
 15980 611b FD380000 		.4byte	.LASF1132
 15981 611f 2E       		.byte	0x2e
 15982 6120 1A       		.byte	0x1a
 15983 6121 52       		.uleb128 0x52
 15984 6122 38090000 		.4byte	.LASF1184
 15985 6126 52310000 		.4byte	.LASF1186
 15986 612a 36       		.byte	0x36
 15987 612b 00       		.byte	0
 15988 612c 38090000 		.4byte	.LASF1184
 15989 6130 51       		.uleb128 0x51
 15990 6131 33370000 		.4byte	.LASF1133
 15991 6135 33370000 		.4byte	.LASF1133
 15992 6139 17       		.byte	0x17
 15993 613a 1C       		.byte	0x1c
 15994 613b 51       		.uleb128 0x51
 15995 613c 701E0000 		.4byte	.LASF1134
 15996 6140 701E0000 		.4byte	.LASF1134
 15997 6144 17       		.byte	0x17
 15998 6145 1D       		.byte	0x1d
 15999 6146 51       		.uleb128 0x51
 16000 6147 C3000000 		.4byte	.LASF1135
 16001 614b C3000000 		.4byte	.LASF1135
 16002 614f 2C       		.byte	0x2c
 16003 6150 36       		.byte	0x36
 16004 6151 51       		.uleb128 0x51
 16005 6152 44260000 		.4byte	.LASF1136
ARM GAS  /tmp/ccTUBOn1.s 			page 282


 16006 6156 44260000 		.4byte	.LASF1136
 16007 615a 2E       		.byte	0x2e
 16008 615b 1B       		.byte	0x1b
 16009 615c 51       		.uleb128 0x51
 16010 615d 572B0000 		.4byte	.LASF1137
 16011 6161 572B0000 		.4byte	.LASF1137
 16012 6165 2F       		.byte	0x2f
 16013 6166 28       		.byte	0x28
 16014 6167 51       		.uleb128 0x51
 16015 6168 C92F0000 		.4byte	.LASF1138
 16016 616c C92F0000 		.4byte	.LASF1138
 16017 6170 2F       		.byte	0x2f
 16018 6171 27       		.byte	0x27
 16019 6172 51       		.uleb128 0x51
 16020 6173 ED1C0000 		.4byte	.LASF1139
 16021 6177 ED1C0000 		.4byte	.LASF1139
 16022 617b 17       		.byte	0x17
 16023 617c 22       		.byte	0x22
 16024 617d 51       		.uleb128 0x51
 16025 617e A10E0000 		.4byte	.LASF1140
 16026 6182 A10E0000 		.4byte	.LASF1140
 16027 6186 30       		.byte	0x30
 16028 6187 48       		.byte	0x48
 16029 6188 51       		.uleb128 0x51
 16030 6189 B23C0000 		.4byte	.LASF1141
 16031 618d B23C0000 		.4byte	.LASF1141
 16032 6191 31       		.byte	0x31
 16033 6192 28       		.byte	0x28
 16034 6193 51       		.uleb128 0x51
 16035 6194 C3310000 		.4byte	.LASF1142
 16036 6198 C3310000 		.4byte	.LASF1142
 16037 619c 17       		.byte	0x17
 16038 619d 20       		.byte	0x20
 16039 619e 51       		.uleb128 0x51
 16040 619f 1C300000 		.4byte	.LASF1143
 16041 61a3 1C300000 		.4byte	.LASF1143
 16042 61a7 17       		.byte	0x17
 16043 61a8 30       		.byte	0x30
 16044 61a9 51       		.uleb128 0x51
 16045 61aa 6D290000 		.4byte	.LASF1144
 16046 61ae 6D290000 		.4byte	.LASF1144
 16047 61b2 17       		.byte	0x17
 16048 61b3 34       		.byte	0x34
 16049 61b4 51       		.uleb128 0x51
 16050 61b5 2E1A0000 		.4byte	.LASF1145
 16051 61b9 2E1A0000 		.4byte	.LASF1145
 16052 61bd 31       		.byte	0x31
 16053 61be 2B       		.byte	0x2b
 16054 61bf 51       		.uleb128 0x51
 16055 61c0 14020000 		.4byte	.LASF1146
 16056 61c4 14020000 		.4byte	.LASF1146
 16057 61c8 31       		.byte	0x31
 16058 61c9 30       		.byte	0x30
 16059 61ca 51       		.uleb128 0x51
 16060 61cb 491D0000 		.4byte	.LASF1147
 16061 61cf 491D0000 		.4byte	.LASF1147
 16062 61d3 31       		.byte	0x31
ARM GAS  /tmp/ccTUBOn1.s 			page 283


 16063 61d4 29       		.byte	0x29
 16064 61d5 51       		.uleb128 0x51
 16065 61d6 311D0000 		.4byte	.LASF1148
 16066 61da 311D0000 		.4byte	.LASF1148
 16067 61de 17       		.byte	0x17
 16068 61df 1F       		.byte	0x1f
 16069 61e0 51       		.uleb128 0x51
 16070 61e1 2D330000 		.4byte	.LASF1149
 16071 61e5 2D330000 		.4byte	.LASF1149
 16072 61e9 32       		.byte	0x32
 16073 61ea 20       		.byte	0x20
 16074 61eb 51       		.uleb128 0x51
 16075 61ec 6B0E0000 		.4byte	.LASF1150
 16076 61f0 6B0E0000 		.4byte	.LASF1150
 16077 61f4 30       		.byte	0x30
 16078 61f5 4A       		.byte	0x4a
 16079 61f6 51       		.uleb128 0x51
 16080 61f7 7C0F0000 		.4byte	.LASF1151
 16081 61fb 7C0F0000 		.4byte	.LASF1151
 16082 61ff 32       		.byte	0x32
 16083 6200 1E       		.byte	0x1e
 16084 6201 53       		.uleb128 0x53
 16085 6202 14310000 		.4byte	.LASF1152
 16086 6206 14310000 		.4byte	.LASF1152
 16087 620a 2B       		.byte	0x2b
 16088 620b 6E01     		.2byte	0x16e
 16089 620d 51       		.uleb128 0x51
 16090 620e 2B2B0000 		.4byte	.LASF1153
 16091 6212 2B2B0000 		.4byte	.LASF1153
 16092 6216 30       		.byte	0x30
 16093 6217 2B       		.byte	0x2b
 16094 6218 51       		.uleb128 0x51
 16095 6219 152E0000 		.4byte	.LASF1154
 16096 621d 152E0000 		.4byte	.LASF1154
 16097 6221 33       		.byte	0x33
 16098 6222 21       		.byte	0x21
 16099 6223 51       		.uleb128 0x51
 16100 6224 F53B0000 		.4byte	.LASF1155
 16101 6228 F53B0000 		.4byte	.LASF1155
 16102 622c 30       		.byte	0x30
 16103 622d 47       		.byte	0x47
 16104 622e 51       		.uleb128 0x51
 16105 622f 603F0000 		.4byte	.LASF1156
 16106 6233 603F0000 		.4byte	.LASF1156
 16107 6237 32       		.byte	0x32
 16108 6238 24       		.byte	0x24
 16109 6239 51       		.uleb128 0x51
 16110 623a CA100000 		.4byte	.LASF1157
 16111 623e CA100000 		.4byte	.LASF1157
 16112 6242 30       		.byte	0x30
 16113 6243 4C       		.byte	0x4c
 16114 6244 51       		.uleb128 0x51
 16115 6245 D71A0000 		.4byte	.LASF1158
 16116 6249 D71A0000 		.4byte	.LASF1158
 16117 624d 17       		.byte	0x17
 16118 624e 32       		.byte	0x32
 16119 624f 51       		.uleb128 0x51
ARM GAS  /tmp/ccTUBOn1.s 			page 284


 16120 6250 ED210000 		.4byte	.LASF1159
 16121 6254 ED210000 		.4byte	.LASF1159
 16122 6258 30       		.byte	0x30
 16123 6259 2A       		.byte	0x2a
 16124 625a 51       		.uleb128 0x51
 16125 625b 042E0000 		.4byte	.LASF1160
 16126 625f 042E0000 		.4byte	.LASF1160
 16127 6263 30       		.byte	0x30
 16128 6264 46       		.byte	0x46
 16129 6265 51       		.uleb128 0x51
 16130 6266 6C2D0000 		.4byte	.LASF1161
 16131 626a 6C2D0000 		.4byte	.LASF1161
 16132 626e 30       		.byte	0x30
 16133 626f 45       		.byte	0x45
 16134 6270 51       		.uleb128 0x51
 16135 6271 A4210000 		.4byte	.LASF1162
 16136 6275 A4210000 		.4byte	.LASF1162
 16137 6279 30       		.byte	0x30
 16138 627a 3D       		.byte	0x3d
 16139 627b 51       		.uleb128 0x51
 16140 627c 58210000 		.4byte	.LASF1163
 16141 6280 58210000 		.4byte	.LASF1163
 16142 6284 30       		.byte	0x30
 16143 6285 3C       		.byte	0x3c
 16144 6286 51       		.uleb128 0x51
 16145 6287 DC330000 		.4byte	.LASF1164
 16146 628b DC330000 		.4byte	.LASF1164
 16147 628f 16       		.byte	0x16
 16148 6290 44       		.byte	0x44
 16149 6291 51       		.uleb128 0x51
 16150 6292 E7400000 		.4byte	.LASF1165
 16151 6296 E7400000 		.4byte	.LASF1165
 16152 629a 17       		.byte	0x17
 16153 629b 21       		.byte	0x21
 16154 629c 51       		.uleb128 0x51
 16155 629d 383A0000 		.4byte	.LASF1166
 16156 62a1 383A0000 		.4byte	.LASF1166
 16157 62a5 17       		.byte	0x17
 16158 62a6 29       		.byte	0x29
 16159 62a7 51       		.uleb128 0x51
 16160 62a8 EC160000 		.4byte	.LASF1167
 16161 62ac EC160000 		.4byte	.LASF1167
 16162 62b0 17       		.byte	0x17
 16163 62b1 39       		.byte	0x39
 16164 62b2 51       		.uleb128 0x51
 16165 62b3 663C0000 		.4byte	.LASF1168
 16166 62b7 663C0000 		.4byte	.LASF1168
 16167 62bb 17       		.byte	0x17
 16168 62bc 25       		.byte	0x25
 16169 62bd 51       		.uleb128 0x51
 16170 62be 85140000 		.4byte	.LASF1169
 16171 62c2 85140000 		.4byte	.LASF1169
 16172 62c6 17       		.byte	0x17
 16173 62c7 3F       		.byte	0x3f
 16174 62c8 51       		.uleb128 0x51
 16175 62c9 D7320000 		.4byte	.LASF1170
 16176 62cd D7320000 		.4byte	.LASF1170
ARM GAS  /tmp/ccTUBOn1.s 			page 285


 16177 62d1 16       		.byte	0x16
 16178 62d2 3A       		.byte	0x3a
 16179 62d3 51       		.uleb128 0x51
 16180 62d4 52390000 		.4byte	.LASF1171
 16181 62d8 52390000 		.4byte	.LASF1171
 16182 62dc 16       		.byte	0x16
 16183 62dd 3D       		.byte	0x3d
 16184 62de 51       		.uleb128 0x51
 16185 62df E3280000 		.4byte	.LASF1172
 16186 62e3 E3280000 		.4byte	.LASF1172
 16187 62e7 16       		.byte	0x16
 16188 62e8 3B       		.byte	0x3b
 16189 62e9 51       		.uleb128 0x51
 16190 62ea 6C400000 		.4byte	.LASF1173
 16191 62ee 6C400000 		.4byte	.LASF1173
 16192 62f2 34       		.byte	0x34
 16193 62f3 51       		.byte	0x51
 16194 62f4 51       		.uleb128 0x51
 16195 62f5 54270000 		.4byte	.LASF1174
 16196 62f9 54270000 		.4byte	.LASF1174
 16197 62fd 32       		.byte	0x32
 16198 62fe 32       		.byte	0x32
 16199 62ff 51       		.uleb128 0x51
 16200 6300 C5360000 		.4byte	.LASF1175
 16201 6304 C5360000 		.4byte	.LASF1175
 16202 6308 31       		.byte	0x31
 16203 6309 2D       		.byte	0x2d
 16204 630a 53       		.uleb128 0x53
 16205 630b 60180000 		.4byte	.LASF1176
 16206 630f 60180000 		.4byte	.LASF1176
 16207 6313 15       		.byte	0x15
 16208 6314 B801     		.2byte	0x1b8
 16209 6316 53       		.uleb128 0x53
 16210 6317 CC290000 		.4byte	.LASF1177
 16211 631b CC290000 		.4byte	.LASF1177
 16212 631f 15       		.byte	0x15
 16213 6320 DB01     		.2byte	0x1db
 16214 6322 53       		.uleb128 0x53
 16215 6323 58300000 		.4byte	.LASF1178
 16216 6327 58300000 		.4byte	.LASF1178
 16217 632b 15       		.byte	0x15
 16218 632c B901     		.2byte	0x1b9
 16219 632e 51       		.uleb128 0x51
 16220 632f 82110000 		.4byte	.LASF1179
 16221 6333 82110000 		.4byte	.LASF1179
 16222 6337 31       		.byte	0x31
 16223 6338 2C       		.byte	0x2c
 16224 6339 51       		.uleb128 0x51
 16225 633a 2B3D0000 		.4byte	.LASF1180
 16226 633e 2B3D0000 		.4byte	.LASF1180
 16227 6342 32       		.byte	0x32
 16228 6343 33       		.byte	0x33
 16229 6344 51       		.uleb128 0x51
 16230 6345 053E0000 		.4byte	.LASF1181
 16231 6349 053E0000 		.4byte	.LASF1181
 16232 634d 34       		.byte	0x34
 16233 634e 50       		.byte	0x50
ARM GAS  /tmp/ccTUBOn1.s 			page 286


 16234 634f 51       		.uleb128 0x51
 16235 6350 FD130000 		.4byte	.LASF1182
 16236 6354 FD130000 		.4byte	.LASF1182
 16237 6358 35       		.byte	0x35
 16238 6359 15       		.byte	0x15
 16239 635a 51       		.uleb128 0x51
 16240 635b 49280000 		.4byte	.LASF1183
 16241 635f 49280000 		.4byte	.LASF1183
 16242 6363 35       		.byte	0x35
 16243 6364 16       		.byte	0x16
 16244 6365 52       		.uleb128 0x52
 16245 6366 1E200000 		.4byte	.LASF1185
 16246 636a 5B070000 		.4byte	.LASF1187
 16247 636e 36       		.byte	0x36
 16248 636f 00       		.byte	0
 16249 6370 1E200000 		.4byte	.LASF1185
 16250 6374 51       		.uleb128 0x51
 16251 6375 A02A0000 		.4byte	.LASF1188
 16252 6379 A02A0000 		.4byte	.LASF1188
 16253 637d 34       		.byte	0x34
 16254 637e 4F       		.byte	0x4f
 16255 637f 00       		.byte	0
 16256              		.section	.debug_abbrev,"",%progbits
 16257              	.Ldebug_abbrev0:
 16258 0000 01       		.uleb128 0x1
 16259 0001 11       		.uleb128 0x11
 16260 0002 01       		.byte	0x1
 16261 0003 25       		.uleb128 0x25
 16262 0004 0E       		.uleb128 0xe
 16263 0005 13       		.uleb128 0x13
 16264 0006 0B       		.uleb128 0xb
 16265 0007 03       		.uleb128 0x3
 16266 0008 0E       		.uleb128 0xe
 16267 0009 1B       		.uleb128 0x1b
 16268 000a 0E       		.uleb128 0xe
 16269 000b 55       		.uleb128 0x55
 16270 000c 17       		.uleb128 0x17
 16271 000d 11       		.uleb128 0x11
 16272 000e 01       		.uleb128 0x1
 16273 000f 10       		.uleb128 0x10
 16274 0010 17       		.uleb128 0x17
 16275 0011 00       		.byte	0
 16276 0012 00       		.byte	0
 16277 0013 02       		.uleb128 0x2
 16278 0014 24       		.uleb128 0x24
 16279 0015 00       		.byte	0
 16280 0016 0B       		.uleb128 0xb
 16281 0017 0B       		.uleb128 0xb
 16282 0018 3E       		.uleb128 0x3e
 16283 0019 0B       		.uleb128 0xb
 16284 001a 03       		.uleb128 0x3
 16285 001b 0E       		.uleb128 0xe
 16286 001c 00       		.byte	0
 16287 001d 00       		.byte	0
 16288 001e 03       		.uleb128 0x3
 16289 001f 16       		.uleb128 0x16
 16290 0020 00       		.byte	0
ARM GAS  /tmp/ccTUBOn1.s 			page 287


 16291 0021 03       		.uleb128 0x3
 16292 0022 0E       		.uleb128 0xe
 16293 0023 3A       		.uleb128 0x3a
 16294 0024 0B       		.uleb128 0xb
 16295 0025 3B       		.uleb128 0x3b
 16296 0026 0B       		.uleb128 0xb
 16297 0027 49       		.uleb128 0x49
 16298 0028 13       		.uleb128 0x13
 16299 0029 00       		.byte	0
 16300 002a 00       		.byte	0
 16301 002b 04       		.uleb128 0x4
 16302 002c 24       		.uleb128 0x24
 16303 002d 00       		.byte	0
 16304 002e 0B       		.uleb128 0xb
 16305 002f 0B       		.uleb128 0xb
 16306 0030 3E       		.uleb128 0x3e
 16307 0031 0B       		.uleb128 0xb
 16308 0032 03       		.uleb128 0x3
 16309 0033 08       		.uleb128 0x8
 16310 0034 00       		.byte	0
 16311 0035 00       		.byte	0
 16312 0036 05       		.uleb128 0x5
 16313 0037 35       		.uleb128 0x35
 16314 0038 00       		.byte	0
 16315 0039 49       		.uleb128 0x49
 16316 003a 13       		.uleb128 0x13
 16317 003b 00       		.byte	0
 16318 003c 00       		.byte	0
 16319 003d 06       		.uleb128 0x6
 16320 003e 26       		.uleb128 0x26
 16321 003f 00       		.byte	0
 16322 0040 49       		.uleb128 0x49
 16323 0041 13       		.uleb128 0x13
 16324 0042 00       		.byte	0
 16325 0043 00       		.byte	0
 16326 0044 07       		.uleb128 0x7
 16327 0045 13       		.uleb128 0x13
 16328 0046 01       		.byte	0x1
 16329 0047 03       		.uleb128 0x3
 16330 0048 0E       		.uleb128 0xe
 16331 0049 0B       		.uleb128 0xb
 16332 004a 0B       		.uleb128 0xb
 16333 004b 3A       		.uleb128 0x3a
 16334 004c 0B       		.uleb128 0xb
 16335 004d 3B       		.uleb128 0x3b
 16336 004e 0B       		.uleb128 0xb
 16337 004f 01       		.uleb128 0x1
 16338 0050 13       		.uleb128 0x13
 16339 0051 00       		.byte	0
 16340 0052 00       		.byte	0
 16341 0053 08       		.uleb128 0x8
 16342 0054 0D       		.uleb128 0xd
 16343 0055 00       		.byte	0
 16344 0056 03       		.uleb128 0x3
 16345 0057 0E       		.uleb128 0xe
 16346 0058 3A       		.uleb128 0x3a
 16347 0059 0B       		.uleb128 0xb
ARM GAS  /tmp/ccTUBOn1.s 			page 288


 16348 005a 3B       		.uleb128 0x3b
 16349 005b 0B       		.uleb128 0xb
 16350 005c 49       		.uleb128 0x49
 16351 005d 13       		.uleb128 0x13
 16352 005e 38       		.uleb128 0x38
 16353 005f 0B       		.uleb128 0xb
 16354 0060 00       		.byte	0
 16355 0061 00       		.byte	0
 16356 0062 09       		.uleb128 0x9
 16357 0063 0D       		.uleb128 0xd
 16358 0064 00       		.byte	0
 16359 0065 03       		.uleb128 0x3
 16360 0066 08       		.uleb128 0x8
 16361 0067 3A       		.uleb128 0x3a
 16362 0068 0B       		.uleb128 0xb
 16363 0069 3B       		.uleb128 0x3b
 16364 006a 05       		.uleb128 0x5
 16365 006b 49       		.uleb128 0x49
 16366 006c 13       		.uleb128 0x13
 16367 006d 38       		.uleb128 0x38
 16368 006e 0B       		.uleb128 0xb
 16369 006f 00       		.byte	0
 16370 0070 00       		.byte	0
 16371 0071 0A       		.uleb128 0xa
 16372 0072 0D       		.uleb128 0xd
 16373 0073 00       		.byte	0
 16374 0074 03       		.uleb128 0x3
 16375 0075 0E       		.uleb128 0xe
 16376 0076 3A       		.uleb128 0x3a
 16377 0077 0B       		.uleb128 0xb
 16378 0078 3B       		.uleb128 0x3b
 16379 0079 05       		.uleb128 0x5
 16380 007a 49       		.uleb128 0x49
 16381 007b 13       		.uleb128 0x13
 16382 007c 38       		.uleb128 0x38
 16383 007d 0B       		.uleb128 0xb
 16384 007e 00       		.byte	0
 16385 007f 00       		.byte	0
 16386 0080 0B       		.uleb128 0xb
 16387 0081 0F       		.uleb128 0xf
 16388 0082 00       		.byte	0
 16389 0083 0B       		.uleb128 0xb
 16390 0084 0B       		.uleb128 0xb
 16391 0085 49       		.uleb128 0x49
 16392 0086 13       		.uleb128 0x13
 16393 0087 00       		.byte	0
 16394 0088 00       		.byte	0
 16395 0089 0C       		.uleb128 0xc
 16396 008a 13       		.uleb128 0x13
 16397 008b 01       		.byte	0x1
 16398 008c 03       		.uleb128 0x3
 16399 008d 0E       		.uleb128 0xe
 16400 008e 0B       		.uleb128 0xb
 16401 008f 0B       		.uleb128 0xb
 16402 0090 3A       		.uleb128 0x3a
 16403 0091 0B       		.uleb128 0xb
 16404 0092 3B       		.uleb128 0x3b
ARM GAS  /tmp/ccTUBOn1.s 			page 289


 16405 0093 05       		.uleb128 0x5
 16406 0094 01       		.uleb128 0x1
 16407 0095 13       		.uleb128 0x13
 16408 0096 00       		.byte	0
 16409 0097 00       		.byte	0
 16410 0098 0D       		.uleb128 0xd
 16411 0099 15       		.uleb128 0x15
 16412 009a 01       		.byte	0x1
 16413 009b 27       		.uleb128 0x27
 16414 009c 19       		.uleb128 0x19
 16415 009d 01       		.uleb128 0x1
 16416 009e 13       		.uleb128 0x13
 16417 009f 00       		.byte	0
 16418 00a0 00       		.byte	0
 16419 00a1 0E       		.uleb128 0xe
 16420 00a2 05       		.uleb128 0x5
 16421 00a3 00       		.byte	0
 16422 00a4 49       		.uleb128 0x49
 16423 00a5 13       		.uleb128 0x13
 16424 00a6 00       		.byte	0
 16425 00a7 00       		.byte	0
 16426 00a8 0F       		.uleb128 0xf
 16427 00a9 0F       		.uleb128 0xf
 16428 00aa 00       		.byte	0
 16429 00ab 0B       		.uleb128 0xb
 16430 00ac 0B       		.uleb128 0xb
 16431 00ad 00       		.byte	0
 16432 00ae 00       		.byte	0
 16433 00af 10       		.uleb128 0x10
 16434 00b0 13       		.uleb128 0x13
 16435 00b1 01       		.byte	0x1
 16436 00b2 03       		.uleb128 0x3
 16437 00b3 0E       		.uleb128 0xe
 16438 00b4 0B       		.uleb128 0xb
 16439 00b5 05       		.uleb128 0x5
 16440 00b6 3A       		.uleb128 0x3a
 16441 00b7 0B       		.uleb128 0xb
 16442 00b8 3B       		.uleb128 0x3b
 16443 00b9 05       		.uleb128 0x5
 16444 00ba 01       		.uleb128 0x1
 16445 00bb 13       		.uleb128 0x13
 16446 00bc 00       		.byte	0
 16447 00bd 00       		.byte	0
 16448 00be 11       		.uleb128 0x11
 16449 00bf 01       		.uleb128 0x1
 16450 00c0 01       		.byte	0x1
 16451 00c1 49       		.uleb128 0x49
 16452 00c2 13       		.uleb128 0x13
 16453 00c3 01       		.uleb128 0x1
 16454 00c4 13       		.uleb128 0x13
 16455 00c5 00       		.byte	0
 16456 00c6 00       		.byte	0
 16457 00c7 12       		.uleb128 0x12
 16458 00c8 21       		.uleb128 0x21
 16459 00c9 00       		.byte	0
 16460 00ca 49       		.uleb128 0x49
 16461 00cb 13       		.uleb128 0x13
ARM GAS  /tmp/ccTUBOn1.s 			page 290


 16462 00cc 2F       		.uleb128 0x2f
 16463 00cd 0B       		.uleb128 0xb
 16464 00ce 00       		.byte	0
 16465 00cf 00       		.byte	0
 16466 00d0 13       		.uleb128 0x13
 16467 00d1 34       		.uleb128 0x34
 16468 00d2 00       		.byte	0
 16469 00d3 03       		.uleb128 0x3
 16470 00d4 0E       		.uleb128 0xe
 16471 00d5 3A       		.uleb128 0x3a
 16472 00d6 0B       		.uleb128 0xb
 16473 00d7 3B       		.uleb128 0x3b
 16474 00d8 05       		.uleb128 0x5
 16475 00d9 49       		.uleb128 0x49
 16476 00da 13       		.uleb128 0x13
 16477 00db 3F       		.uleb128 0x3f
 16478 00dc 19       		.uleb128 0x19
 16479 00dd 3C       		.uleb128 0x3c
 16480 00de 19       		.uleb128 0x19
 16481 00df 00       		.byte	0
 16482 00e0 00       		.byte	0
 16483 00e1 14       		.uleb128 0x14
 16484 00e2 34       		.uleb128 0x34
 16485 00e3 00       		.byte	0
 16486 00e4 03       		.uleb128 0x3
 16487 00e5 0E       		.uleb128 0xe
 16488 00e6 3A       		.uleb128 0x3a
 16489 00e7 0B       		.uleb128 0xb
 16490 00e8 3B       		.uleb128 0x3b
 16491 00e9 0B       		.uleb128 0xb
 16492 00ea 49       		.uleb128 0x49
 16493 00eb 13       		.uleb128 0x13
 16494 00ec 3F       		.uleb128 0x3f
 16495 00ed 19       		.uleb128 0x19
 16496 00ee 3C       		.uleb128 0x3c
 16497 00ef 19       		.uleb128 0x19
 16498 00f0 00       		.byte	0
 16499 00f1 00       		.byte	0
 16500 00f2 15       		.uleb128 0x15
 16501 00f3 13       		.uleb128 0x13
 16502 00f4 01       		.byte	0x1
 16503 00f5 0B       		.uleb128 0xb
 16504 00f6 0B       		.uleb128 0xb
 16505 00f7 3A       		.uleb128 0x3a
 16506 00f8 0B       		.uleb128 0xb
 16507 00f9 3B       		.uleb128 0x3b
 16508 00fa 0B       		.uleb128 0xb
 16509 00fb 01       		.uleb128 0x1
 16510 00fc 13       		.uleb128 0x13
 16511 00fd 00       		.byte	0
 16512 00fe 00       		.byte	0
 16513 00ff 16       		.uleb128 0x16
 16514 0100 0D       		.uleb128 0xd
 16515 0101 00       		.byte	0
 16516 0102 03       		.uleb128 0x3
 16517 0103 08       		.uleb128 0x8
 16518 0104 3A       		.uleb128 0x3a
ARM GAS  /tmp/ccTUBOn1.s 			page 291


 16519 0105 0B       		.uleb128 0xb
 16520 0106 3B       		.uleb128 0x3b
 16521 0107 0B       		.uleb128 0xb
 16522 0108 49       		.uleb128 0x49
 16523 0109 13       		.uleb128 0x13
 16524 010a 38       		.uleb128 0x38
 16525 010b 0B       		.uleb128 0xb
 16526 010c 00       		.byte	0
 16527 010d 00       		.byte	0
 16528 010e 17       		.uleb128 0x17
 16529 010f 13       		.uleb128 0x13
 16530 0110 01       		.byte	0x1
 16531 0111 0B       		.uleb128 0xb
 16532 0112 0B       		.uleb128 0xb
 16533 0113 3A       		.uleb128 0x3a
 16534 0114 0B       		.uleb128 0xb
 16535 0115 3B       		.uleb128 0x3b
 16536 0116 05       		.uleb128 0x5
 16537 0117 01       		.uleb128 0x1
 16538 0118 13       		.uleb128 0x13
 16539 0119 00       		.byte	0
 16540 011a 00       		.byte	0
 16541 011b 18       		.uleb128 0x18
 16542 011c 16       		.uleb128 0x16
 16543 011d 00       		.byte	0
 16544 011e 03       		.uleb128 0x3
 16545 011f 0E       		.uleb128 0xe
 16546 0120 3A       		.uleb128 0x3a
 16547 0121 0B       		.uleb128 0xb
 16548 0122 3B       		.uleb128 0x3b
 16549 0123 05       		.uleb128 0x5
 16550 0124 49       		.uleb128 0x49
 16551 0125 13       		.uleb128 0x13
 16552 0126 00       		.byte	0
 16553 0127 00       		.byte	0
 16554 0128 19       		.uleb128 0x19
 16555 0129 13       		.uleb128 0x13
 16556 012a 01       		.byte	0x1
 16557 012b 0B       		.uleb128 0xb
 16558 012c 05       		.uleb128 0x5
 16559 012d 3A       		.uleb128 0x3a
 16560 012e 0B       		.uleb128 0xb
 16561 012f 3B       		.uleb128 0x3b
 16562 0130 05       		.uleb128 0x5
 16563 0131 01       		.uleb128 0x1
 16564 0132 13       		.uleb128 0x13
 16565 0133 00       		.byte	0
 16566 0134 00       		.byte	0
 16567 0135 1A       		.uleb128 0x1a
 16568 0136 0D       		.uleb128 0xd
 16569 0137 00       		.byte	0
 16570 0138 03       		.uleb128 0x3
 16571 0139 0E       		.uleb128 0xe
 16572 013a 3A       		.uleb128 0x3a
 16573 013b 0B       		.uleb128 0xb
 16574 013c 3B       		.uleb128 0x3b
 16575 013d 05       		.uleb128 0x5
ARM GAS  /tmp/ccTUBOn1.s 			page 292


 16576 013e 49       		.uleb128 0x49
 16577 013f 13       		.uleb128 0x13
 16578 0140 38       		.uleb128 0x38
 16579 0141 05       		.uleb128 0x5
 16580 0142 00       		.byte	0
 16581 0143 00       		.byte	0
 16582 0144 1B       		.uleb128 0x1b
 16583 0145 0D       		.uleb128 0xd
 16584 0146 00       		.byte	0
 16585 0147 03       		.uleb128 0x3
 16586 0148 08       		.uleb128 0x8
 16587 0149 3A       		.uleb128 0x3a
 16588 014a 0B       		.uleb128 0xb
 16589 014b 3B       		.uleb128 0x3b
 16590 014c 05       		.uleb128 0x5
 16591 014d 49       		.uleb128 0x49
 16592 014e 13       		.uleb128 0x13
 16593 014f 38       		.uleb128 0x38
 16594 0150 05       		.uleb128 0x5
 16595 0151 00       		.byte	0
 16596 0152 00       		.byte	0
 16597 0153 1C       		.uleb128 0x1c
 16598 0154 17       		.uleb128 0x17
 16599 0155 01       		.byte	0x1
 16600 0156 0B       		.uleb128 0xb
 16601 0157 0B       		.uleb128 0xb
 16602 0158 3A       		.uleb128 0x3a
 16603 0159 0B       		.uleb128 0xb
 16604 015a 3B       		.uleb128 0x3b
 16605 015b 0B       		.uleb128 0xb
 16606 015c 01       		.uleb128 0x1
 16607 015d 13       		.uleb128 0x13
 16608 015e 00       		.byte	0
 16609 015f 00       		.byte	0
 16610 0160 1D       		.uleb128 0x1d
 16611 0161 0D       		.uleb128 0xd
 16612 0162 00       		.byte	0
 16613 0163 03       		.uleb128 0x3
 16614 0164 0E       		.uleb128 0xe
 16615 0165 3A       		.uleb128 0x3a
 16616 0166 0B       		.uleb128 0xb
 16617 0167 3B       		.uleb128 0x3b
 16618 0168 05       		.uleb128 0x5
 16619 0169 49       		.uleb128 0x49
 16620 016a 13       		.uleb128 0x13
 16621 016b 00       		.byte	0
 16622 016c 00       		.byte	0
 16623 016d 1E       		.uleb128 0x1e
 16624 016e 34       		.uleb128 0x34
 16625 016f 00       		.byte	0
 16626 0170 03       		.uleb128 0x3
 16627 0171 08       		.uleb128 0x8
 16628 0172 3A       		.uleb128 0x3a
 16629 0173 0B       		.uleb128 0xb
 16630 0174 3B       		.uleb128 0x3b
 16631 0175 05       		.uleb128 0x5
 16632 0176 49       		.uleb128 0x49
ARM GAS  /tmp/ccTUBOn1.s 			page 293


 16633 0177 13       		.uleb128 0x13
 16634 0178 3F       		.uleb128 0x3f
 16635 0179 19       		.uleb128 0x19
 16636 017a 3C       		.uleb128 0x3c
 16637 017b 19       		.uleb128 0x19
 16638 017c 00       		.byte	0
 16639 017d 00       		.byte	0
 16640 017e 1F       		.uleb128 0x1f
 16641 017f 15       		.uleb128 0x15
 16642 0180 01       		.byte	0x1
 16643 0181 27       		.uleb128 0x27
 16644 0182 19       		.uleb128 0x19
 16645 0183 49       		.uleb128 0x49
 16646 0184 13       		.uleb128 0x13
 16647 0185 01       		.uleb128 0x1
 16648 0186 13       		.uleb128 0x13
 16649 0187 00       		.byte	0
 16650 0188 00       		.byte	0
 16651 0189 20       		.uleb128 0x20
 16652 018a 04       		.uleb128 0x4
 16653 018b 01       		.byte	0x1
 16654 018c 3E       		.uleb128 0x3e
 16655 018d 0B       		.uleb128 0xb
 16656 018e 0B       		.uleb128 0xb
 16657 018f 0B       		.uleb128 0xb
 16658 0190 49       		.uleb128 0x49
 16659 0191 13       		.uleb128 0x13
 16660 0192 3A       		.uleb128 0x3a
 16661 0193 0B       		.uleb128 0xb
 16662 0194 3B       		.uleb128 0x3b
 16663 0195 0B       		.uleb128 0xb
 16664 0196 01       		.uleb128 0x1
 16665 0197 13       		.uleb128 0x13
 16666 0198 00       		.byte	0
 16667 0199 00       		.byte	0
 16668 019a 21       		.uleb128 0x21
 16669 019b 28       		.uleb128 0x28
 16670 019c 00       		.byte	0
 16671 019d 03       		.uleb128 0x3
 16672 019e 0E       		.uleb128 0xe
 16673 019f 1C       		.uleb128 0x1c
 16674 01a0 0B       		.uleb128 0xb
 16675 01a1 00       		.byte	0
 16676 01a2 00       		.byte	0
 16677 01a3 22       		.uleb128 0x22
 16678 01a4 13       		.uleb128 0x13
 16679 01a5 01       		.byte	0x1
 16680 01a6 0B       		.uleb128 0xb
 16681 01a7 05       		.uleb128 0x5
 16682 01a8 3A       		.uleb128 0x3a
 16683 01a9 0B       		.uleb128 0xb
 16684 01aa 3B       		.uleb128 0x3b
 16685 01ab 0B       		.uleb128 0xb
 16686 01ac 01       		.uleb128 0x1
 16687 01ad 13       		.uleb128 0x13
 16688 01ae 00       		.byte	0
 16689 01af 00       		.byte	0
ARM GAS  /tmp/ccTUBOn1.s 			page 294


 16690 01b0 23       		.uleb128 0x23
 16691 01b1 0D       		.uleb128 0xd
 16692 01b2 00       		.byte	0
 16693 01b3 03       		.uleb128 0x3
 16694 01b4 0E       		.uleb128 0xe
 16695 01b5 3A       		.uleb128 0x3a
 16696 01b6 0B       		.uleb128 0xb
 16697 01b7 3B       		.uleb128 0x3b
 16698 01b8 0B       		.uleb128 0xb
 16699 01b9 49       		.uleb128 0x49
 16700 01ba 13       		.uleb128 0x13
 16701 01bb 38       		.uleb128 0x38
 16702 01bc 05       		.uleb128 0x5
 16703 01bd 00       		.byte	0
 16704 01be 00       		.byte	0
 16705 01bf 24       		.uleb128 0x24
 16706 01c0 04       		.uleb128 0x4
 16707 01c1 01       		.byte	0x1
 16708 01c2 3E       		.uleb128 0x3e
 16709 01c3 0B       		.uleb128 0xb
 16710 01c4 0B       		.uleb128 0xb
 16711 01c5 0B       		.uleb128 0xb
 16712 01c6 49       		.uleb128 0x49
 16713 01c7 13       		.uleb128 0x13
 16714 01c8 3A       		.uleb128 0x3a
 16715 01c9 0B       		.uleb128 0xb
 16716 01ca 3B       		.uleb128 0x3b
 16717 01cb 05       		.uleb128 0x5
 16718 01cc 01       		.uleb128 0x1
 16719 01cd 13       		.uleb128 0x13
 16720 01ce 00       		.byte	0
 16721 01cf 00       		.byte	0
 16722 01d0 25       		.uleb128 0x25
 16723 01d1 17       		.uleb128 0x17
 16724 01d2 01       		.byte	0x1
 16725 01d3 0B       		.uleb128 0xb
 16726 01d4 0B       		.uleb128 0xb
 16727 01d5 3A       		.uleb128 0x3a
 16728 01d6 0B       		.uleb128 0xb
 16729 01d7 3B       		.uleb128 0x3b
 16730 01d8 05       		.uleb128 0x5
 16731 01d9 01       		.uleb128 0x1
 16732 01da 13       		.uleb128 0x13
 16733 01db 00       		.byte	0
 16734 01dc 00       		.byte	0
 16735 01dd 26       		.uleb128 0x26
 16736 01de 21       		.uleb128 0x21
 16737 01df 00       		.byte	0
 16738 01e0 00       		.byte	0
 16739 01e1 00       		.byte	0
 16740 01e2 27       		.uleb128 0x27
 16741 01e3 0D       		.uleb128 0xd
 16742 01e4 00       		.byte	0
 16743 01e5 03       		.uleb128 0x3
 16744 01e6 08       		.uleb128 0x8
 16745 01e7 3A       		.uleb128 0x3a
 16746 01e8 0B       		.uleb128 0xb
ARM GAS  /tmp/ccTUBOn1.s 			page 295


 16747 01e9 3B       		.uleb128 0x3b
 16748 01ea 0B       		.uleb128 0xb
 16749 01eb 49       		.uleb128 0x49
 16750 01ec 13       		.uleb128 0x13
 16751 01ed 00       		.byte	0
 16752 01ee 00       		.byte	0
 16753 01ef 28       		.uleb128 0x28
 16754 01f0 13       		.uleb128 0x13
 16755 01f1 01       		.byte	0x1
 16756 01f2 03       		.uleb128 0x3
 16757 01f3 0E       		.uleb128 0xe
 16758 01f4 0B       		.uleb128 0xb
 16759 01f5 05       		.uleb128 0x5
 16760 01f6 3A       		.uleb128 0x3a
 16761 01f7 0B       		.uleb128 0xb
 16762 01f8 3B       		.uleb128 0x3b
 16763 01f9 0B       		.uleb128 0xb
 16764 01fa 01       		.uleb128 0x1
 16765 01fb 13       		.uleb128 0x13
 16766 01fc 00       		.byte	0
 16767 01fd 00       		.byte	0
 16768 01fe 29       		.uleb128 0x29
 16769 01ff 13       		.uleb128 0x13
 16770 0200 01       		.byte	0x1
 16771 0201 0B       		.uleb128 0xb
 16772 0202 06       		.uleb128 0x6
 16773 0203 3A       		.uleb128 0x3a
 16774 0204 0B       		.uleb128 0xb
 16775 0205 3B       		.uleb128 0x3b
 16776 0206 0B       		.uleb128 0xb
 16777 0207 01       		.uleb128 0x1
 16778 0208 13       		.uleb128 0x13
 16779 0209 00       		.byte	0
 16780 020a 00       		.byte	0
 16781 020b 2A       		.uleb128 0x2a
 16782 020c 0D       		.uleb128 0xd
 16783 020d 00       		.byte	0
 16784 020e 03       		.uleb128 0x3
 16785 020f 08       		.uleb128 0x8
 16786 0210 3A       		.uleb128 0x3a
 16787 0211 0B       		.uleb128 0xb
 16788 0212 3B       		.uleb128 0x3b
 16789 0213 0B       		.uleb128 0xb
 16790 0214 49       		.uleb128 0x49
 16791 0215 13       		.uleb128 0x13
 16792 0216 38       		.uleb128 0x38
 16793 0217 05       		.uleb128 0x5
 16794 0218 00       		.byte	0
 16795 0219 00       		.byte	0
 16796 021a 2B       		.uleb128 0x2b
 16797 021b 21       		.uleb128 0x21
 16798 021c 00       		.byte	0
 16799 021d 49       		.uleb128 0x49
 16800 021e 13       		.uleb128 0x13
 16801 021f 2F       		.uleb128 0x2f
 16802 0220 05       		.uleb128 0x5
 16803 0221 00       		.byte	0
ARM GAS  /tmp/ccTUBOn1.s 			page 296


 16804 0222 00       		.byte	0
 16805 0223 2C       		.uleb128 0x2c
 16806 0224 0D       		.uleb128 0xd
 16807 0225 00       		.byte	0
 16808 0226 03       		.uleb128 0x3
 16809 0227 0E       		.uleb128 0xe
 16810 0228 3A       		.uleb128 0x3a
 16811 0229 0B       		.uleb128 0xb
 16812 022a 3B       		.uleb128 0x3b
 16813 022b 0B       		.uleb128 0xb
 16814 022c 49       		.uleb128 0x49
 16815 022d 13       		.uleb128 0x13
 16816 022e 00       		.byte	0
 16817 022f 00       		.byte	0
 16818 0230 2D       		.uleb128 0x2d
 16819 0231 13       		.uleb128 0x13
 16820 0232 00       		.byte	0
 16821 0233 03       		.uleb128 0x3
 16822 0234 0E       		.uleb128 0xe
 16823 0235 3C       		.uleb128 0x3c
 16824 0236 19       		.uleb128 0x19
 16825 0237 00       		.byte	0
 16826 0238 00       		.byte	0
 16827 0239 2E       		.uleb128 0x2e
 16828 023a 15       		.uleb128 0x15
 16829 023b 00       		.byte	0
 16830 023c 27       		.uleb128 0x27
 16831 023d 19       		.uleb128 0x19
 16832 023e 00       		.byte	0
 16833 023f 00       		.byte	0
 16834 0240 2F       		.uleb128 0x2f
 16835 0241 04       		.uleb128 0x4
 16836 0242 01       		.byte	0x1
 16837 0243 03       		.uleb128 0x3
 16838 0244 0E       		.uleb128 0xe
 16839 0245 3E       		.uleb128 0x3e
 16840 0246 0B       		.uleb128 0xb
 16841 0247 0B       		.uleb128 0xb
 16842 0248 0B       		.uleb128 0xb
 16843 0249 49       		.uleb128 0x49
 16844 024a 13       		.uleb128 0x13
 16845 024b 3A       		.uleb128 0x3a
 16846 024c 0B       		.uleb128 0xb
 16847 024d 3B       		.uleb128 0x3b
 16848 024e 05       		.uleb128 0x5
 16849 024f 01       		.uleb128 0x1
 16850 0250 13       		.uleb128 0x13
 16851 0251 00       		.byte	0
 16852 0252 00       		.byte	0
 16853 0253 30       		.uleb128 0x30
 16854 0254 28       		.uleb128 0x28
 16855 0255 00       		.byte	0
 16856 0256 03       		.uleb128 0x3
 16857 0257 0E       		.uleb128 0xe
 16858 0258 1C       		.uleb128 0x1c
 16859 0259 0D       		.uleb128 0xd
 16860 025a 00       		.byte	0
ARM GAS  /tmp/ccTUBOn1.s 			page 297


 16861 025b 00       		.byte	0
 16862 025c 31       		.uleb128 0x31
 16863 025d 34       		.uleb128 0x34
 16864 025e 00       		.byte	0
 16865 025f 03       		.uleb128 0x3
 16866 0260 0E       		.uleb128 0xe
 16867 0261 3A       		.uleb128 0x3a
 16868 0262 0B       		.uleb128 0xb
 16869 0263 3B       		.uleb128 0x3b
 16870 0264 0B       		.uleb128 0xb
 16871 0265 49       		.uleb128 0x49
 16872 0266 13       		.uleb128 0x13
 16873 0267 3F       		.uleb128 0x3f
 16874 0268 19       		.uleb128 0x19
 16875 0269 02       		.uleb128 0x2
 16876 026a 18       		.uleb128 0x18
 16877 026b 00       		.byte	0
 16878 026c 00       		.byte	0
 16879 026d 32       		.uleb128 0x32
 16880 026e 34       		.uleb128 0x34
 16881 026f 00       		.byte	0
 16882 0270 47       		.uleb128 0x47
 16883 0271 13       		.uleb128 0x13
 16884 0272 3A       		.uleb128 0x3a
 16885 0273 0B       		.uleb128 0xb
 16886 0274 3B       		.uleb128 0x3b
 16887 0275 0B       		.uleb128 0xb
 16888 0276 02       		.uleb128 0x2
 16889 0277 18       		.uleb128 0x18
 16890 0278 00       		.byte	0
 16891 0279 00       		.byte	0
 16892 027a 33       		.uleb128 0x33
 16893 027b 2E       		.uleb128 0x2e
 16894 027c 01       		.byte	0x1
 16895 027d 3F       		.uleb128 0x3f
 16896 027e 19       		.uleb128 0x19
 16897 027f 03       		.uleb128 0x3
 16898 0280 0E       		.uleb128 0xe
 16899 0281 3A       		.uleb128 0x3a
 16900 0282 0B       		.uleb128 0xb
 16901 0283 3B       		.uleb128 0x3b
 16902 0284 05       		.uleb128 0x5
 16903 0285 27       		.uleb128 0x27
 16904 0286 19       		.uleb128 0x19
 16905 0287 49       		.uleb128 0x49
 16906 0288 13       		.uleb128 0x13
 16907 0289 11       		.uleb128 0x11
 16908 028a 01       		.uleb128 0x1
 16909 028b 12       		.uleb128 0x12
 16910 028c 06       		.uleb128 0x6
 16911 028d 40       		.uleb128 0x40
 16912 028e 18       		.uleb128 0x18
 16913 028f 9742     		.uleb128 0x2117
 16914 0291 19       		.uleb128 0x19
 16915 0292 01       		.uleb128 0x1
 16916 0293 13       		.uleb128 0x13
 16917 0294 00       		.byte	0
ARM GAS  /tmp/ccTUBOn1.s 			page 298


 16918 0295 00       		.byte	0
 16919 0296 34       		.uleb128 0x34
 16920 0297 05       		.uleb128 0x5
 16921 0298 00       		.byte	0
 16922 0299 03       		.uleb128 0x3
 16923 029a 0E       		.uleb128 0xe
 16924 029b 3A       		.uleb128 0x3a
 16925 029c 0B       		.uleb128 0xb
 16926 029d 3B       		.uleb128 0x3b
 16927 029e 05       		.uleb128 0x5
 16928 029f 49       		.uleb128 0x49
 16929 02a0 13       		.uleb128 0x13
 16930 02a1 02       		.uleb128 0x2
 16931 02a2 17       		.uleb128 0x17
 16932 02a3 00       		.byte	0
 16933 02a4 00       		.byte	0
 16934 02a5 35       		.uleb128 0x35
 16935 02a6 34       		.uleb128 0x34
 16936 02a7 00       		.byte	0
 16937 02a8 03       		.uleb128 0x3
 16938 02a9 0E       		.uleb128 0xe
 16939 02aa 3A       		.uleb128 0x3a
 16940 02ab 0B       		.uleb128 0xb
 16941 02ac 3B       		.uleb128 0x3b
 16942 02ad 05       		.uleb128 0x5
 16943 02ae 49       		.uleb128 0x49
 16944 02af 13       		.uleb128 0x13
 16945 02b0 02       		.uleb128 0x2
 16946 02b1 18       		.uleb128 0x18
 16947 02b2 00       		.byte	0
 16948 02b3 00       		.byte	0
 16949 02b4 36       		.uleb128 0x36
 16950 02b5 34       		.uleb128 0x34
 16951 02b6 00       		.byte	0
 16952 02b7 03       		.uleb128 0x3
 16953 02b8 0E       		.uleb128 0xe
 16954 02b9 3A       		.uleb128 0x3a
 16955 02ba 0B       		.uleb128 0xb
 16956 02bb 3B       		.uleb128 0x3b
 16957 02bc 05       		.uleb128 0x5
 16958 02bd 49       		.uleb128 0x49
 16959 02be 13       		.uleb128 0x13
 16960 02bf 02       		.uleb128 0x2
 16961 02c0 17       		.uleb128 0x17
 16962 02c1 00       		.byte	0
 16963 02c2 00       		.byte	0
 16964 02c3 37       		.uleb128 0x37
 16965 02c4 34       		.uleb128 0x34
 16966 02c5 00       		.byte	0
 16967 02c6 03       		.uleb128 0x3
 16968 02c7 08       		.uleb128 0x8
 16969 02c8 3A       		.uleb128 0x3a
 16970 02c9 0B       		.uleb128 0xb
 16971 02ca 3B       		.uleb128 0x3b
 16972 02cb 05       		.uleb128 0x5
 16973 02cc 49       		.uleb128 0x49
 16974 02cd 13       		.uleb128 0x13
ARM GAS  /tmp/ccTUBOn1.s 			page 299


 16975 02ce 02       		.uleb128 0x2
 16976 02cf 17       		.uleb128 0x17
 16977 02d0 00       		.byte	0
 16978 02d1 00       		.byte	0
 16979 02d2 38       		.uleb128 0x38
 16980 02d3 0B       		.uleb128 0xb
 16981 02d4 01       		.byte	0x1
 16982 02d5 55       		.uleb128 0x55
 16983 02d6 17       		.uleb128 0x17
 16984 02d7 01       		.uleb128 0x1
 16985 02d8 13       		.uleb128 0x13
 16986 02d9 00       		.byte	0
 16987 02da 00       		.byte	0
 16988 02db 39       		.uleb128 0x39
 16989 02dc 898201   		.uleb128 0x4109
 16990 02df 01       		.byte	0x1
 16991 02e0 11       		.uleb128 0x11
 16992 02e1 01       		.uleb128 0x1
 16993 02e2 31       		.uleb128 0x31
 16994 02e3 13       		.uleb128 0x13
 16995 02e4 01       		.uleb128 0x1
 16996 02e5 13       		.uleb128 0x13
 16997 02e6 00       		.byte	0
 16998 02e7 00       		.byte	0
 16999 02e8 3A       		.uleb128 0x3a
 17000 02e9 8A8201   		.uleb128 0x410a
 17001 02ec 00       		.byte	0
 17002 02ed 02       		.uleb128 0x2
 17003 02ee 18       		.uleb128 0x18
 17004 02ef 9142     		.uleb128 0x2111
 17005 02f1 18       		.uleb128 0x18
 17006 02f2 00       		.byte	0
 17007 02f3 00       		.byte	0
 17008 02f4 3B       		.uleb128 0x3b
 17009 02f5 898201   		.uleb128 0x4109
 17010 02f8 01       		.byte	0x1
 17011 02f9 11       		.uleb128 0x11
 17012 02fa 01       		.uleb128 0x1
 17013 02fb 31       		.uleb128 0x31
 17014 02fc 13       		.uleb128 0x13
 17015 02fd 00       		.byte	0
 17016 02fe 00       		.byte	0
 17017 02ff 3C       		.uleb128 0x3c
 17018 0300 0B       		.uleb128 0xb
 17019 0301 01       		.byte	0x1
 17020 0302 11       		.uleb128 0x11
 17021 0303 01       		.uleb128 0x1
 17022 0304 12       		.uleb128 0x12
 17023 0305 06       		.uleb128 0x6
 17024 0306 01       		.uleb128 0x1
 17025 0307 13       		.uleb128 0x13
 17026 0308 00       		.byte	0
 17027 0309 00       		.byte	0
 17028 030a 3D       		.uleb128 0x3d
 17029 030b 898201   		.uleb128 0x4109
 17030 030e 00       		.byte	0
 17031 030f 11       		.uleb128 0x11
ARM GAS  /tmp/ccTUBOn1.s 			page 300


 17032 0310 01       		.uleb128 0x1
 17033 0311 31       		.uleb128 0x31
 17034 0312 13       		.uleb128 0x13
 17035 0313 00       		.byte	0
 17036 0314 00       		.byte	0
 17037 0315 3E       		.uleb128 0x3e
 17038 0316 0B       		.uleb128 0xb
 17039 0317 01       		.byte	0x1
 17040 0318 55       		.uleb128 0x55
 17041 0319 17       		.uleb128 0x17
 17042 031a 00       		.byte	0
 17043 031b 00       		.byte	0
 17044 031c 3F       		.uleb128 0x3f
 17045 031d 05       		.uleb128 0x5
 17046 031e 00       		.byte	0
 17047 031f 03       		.uleb128 0x3
 17048 0320 08       		.uleb128 0x8
 17049 0321 3A       		.uleb128 0x3a
 17050 0322 0B       		.uleb128 0xb
 17051 0323 3B       		.uleb128 0x3b
 17052 0324 05       		.uleb128 0x5
 17053 0325 49       		.uleb128 0x49
 17054 0326 13       		.uleb128 0x13
 17055 0327 02       		.uleb128 0x2
 17056 0328 17       		.uleb128 0x17
 17057 0329 00       		.byte	0
 17058 032a 00       		.byte	0
 17059 032b 40       		.uleb128 0x40
 17060 032c 05       		.uleb128 0x5
 17061 032d 00       		.byte	0
 17062 032e 03       		.uleb128 0x3
 17063 032f 0E       		.uleb128 0xe
 17064 0330 3A       		.uleb128 0x3a
 17065 0331 0B       		.uleb128 0xb
 17066 0332 3B       		.uleb128 0x3b
 17067 0333 05       		.uleb128 0x5
 17068 0334 49       		.uleb128 0x49
 17069 0335 13       		.uleb128 0x13
 17070 0336 02       		.uleb128 0x2
 17071 0337 18       		.uleb128 0x18
 17072 0338 00       		.byte	0
 17073 0339 00       		.byte	0
 17074 033a 41       		.uleb128 0x41
 17075 033b 34       		.uleb128 0x34
 17076 033c 00       		.byte	0
 17077 033d 03       		.uleb128 0x3
 17078 033e 0E       		.uleb128 0xe
 17079 033f 3A       		.uleb128 0x3a
 17080 0340 0B       		.uleb128 0xb
 17081 0341 3B       		.uleb128 0x3b
 17082 0342 05       		.uleb128 0x5
 17083 0343 49       		.uleb128 0x49
 17084 0344 13       		.uleb128 0x13
 17085 0345 1C       		.uleb128 0x1c
 17086 0346 0A       		.uleb128 0xa
 17087 0347 00       		.byte	0
 17088 0348 00       		.byte	0
ARM GAS  /tmp/ccTUBOn1.s 			page 301


 17089 0349 42       		.uleb128 0x42
 17090 034a 0B       		.uleb128 0xb
 17091 034b 01       		.byte	0x1
 17092 034c 11       		.uleb128 0x11
 17093 034d 01       		.uleb128 0x1
 17094 034e 12       		.uleb128 0x12
 17095 034f 06       		.uleb128 0x6
 17096 0350 00       		.byte	0
 17097 0351 00       		.byte	0
 17098 0352 43       		.uleb128 0x43
 17099 0353 2E       		.uleb128 0x2e
 17100 0354 01       		.byte	0x1
 17101 0355 3F       		.uleb128 0x3f
 17102 0356 19       		.uleb128 0x19
 17103 0357 03       		.uleb128 0x3
 17104 0358 0E       		.uleb128 0xe
 17105 0359 3A       		.uleb128 0x3a
 17106 035a 0B       		.uleb128 0xb
 17107 035b 3B       		.uleb128 0x3b
 17108 035c 05       		.uleb128 0x5
 17109 035d 27       		.uleb128 0x27
 17110 035e 19       		.uleb128 0x19
 17111 035f 11       		.uleb128 0x11
 17112 0360 01       		.uleb128 0x1
 17113 0361 12       		.uleb128 0x12
 17114 0362 06       		.uleb128 0x6
 17115 0363 40       		.uleb128 0x40
 17116 0364 18       		.uleb128 0x18
 17117 0365 9742     		.uleb128 0x2117
 17118 0367 19       		.uleb128 0x19
 17119 0368 01       		.uleb128 0x1
 17120 0369 13       		.uleb128 0x13
 17121 036a 00       		.byte	0
 17122 036b 00       		.byte	0
 17123 036c 44       		.uleb128 0x44
 17124 036d 34       		.uleb128 0x34
 17125 036e 00       		.byte	0
 17126 036f 03       		.uleb128 0x3
 17127 0370 08       		.uleb128 0x8
 17128 0371 3A       		.uleb128 0x3a
 17129 0372 0B       		.uleb128 0xb
 17130 0373 3B       		.uleb128 0x3b
 17131 0374 05       		.uleb128 0x5
 17132 0375 49       		.uleb128 0x49
 17133 0376 13       		.uleb128 0x13
 17134 0377 02       		.uleb128 0x2
 17135 0378 18       		.uleb128 0x18
 17136 0379 00       		.byte	0
 17137 037a 00       		.byte	0
 17138 037b 45       		.uleb128 0x45
 17139 037c 2E       		.uleb128 0x2e
 17140 037d 01       		.byte	0x1
 17141 037e 3F       		.uleb128 0x3f
 17142 037f 19       		.uleb128 0x19
 17143 0380 03       		.uleb128 0x3
 17144 0381 0E       		.uleb128 0xe
 17145 0382 3A       		.uleb128 0x3a
ARM GAS  /tmp/ccTUBOn1.s 			page 302


 17146 0383 0B       		.uleb128 0xb
 17147 0384 3B       		.uleb128 0x3b
 17148 0385 0B       		.uleb128 0xb
 17149 0386 27       		.uleb128 0x27
 17150 0387 19       		.uleb128 0x19
 17151 0388 49       		.uleb128 0x49
 17152 0389 13       		.uleb128 0x13
 17153 038a 11       		.uleb128 0x11
 17154 038b 01       		.uleb128 0x1
 17155 038c 12       		.uleb128 0x12
 17156 038d 06       		.uleb128 0x6
 17157 038e 40       		.uleb128 0x40
 17158 038f 18       		.uleb128 0x18
 17159 0390 9742     		.uleb128 0x2117
 17160 0392 19       		.uleb128 0x19
 17161 0393 01       		.uleb128 0x1
 17162 0394 13       		.uleb128 0x13
 17163 0395 00       		.byte	0
 17164 0396 00       		.byte	0
 17165 0397 46       		.uleb128 0x46
 17166 0398 05       		.uleb128 0x5
 17167 0399 00       		.byte	0
 17168 039a 03       		.uleb128 0x3
 17169 039b 0E       		.uleb128 0xe
 17170 039c 3A       		.uleb128 0x3a
 17171 039d 0B       		.uleb128 0xb
 17172 039e 3B       		.uleb128 0x3b
 17173 039f 0B       		.uleb128 0xb
 17174 03a0 49       		.uleb128 0x49
 17175 03a1 13       		.uleb128 0x13
 17176 03a2 02       		.uleb128 0x2
 17177 03a3 17       		.uleb128 0x17
 17178 03a4 00       		.byte	0
 17179 03a5 00       		.byte	0
 17180 03a6 47       		.uleb128 0x47
 17181 03a7 34       		.uleb128 0x34
 17182 03a8 00       		.byte	0
 17183 03a9 03       		.uleb128 0x3
 17184 03aa 0E       		.uleb128 0xe
 17185 03ab 3A       		.uleb128 0x3a
 17186 03ac 0B       		.uleb128 0xb
 17187 03ad 3B       		.uleb128 0x3b
 17188 03ae 0B       		.uleb128 0xb
 17189 03af 49       		.uleb128 0x49
 17190 03b0 13       		.uleb128 0x13
 17191 03b1 02       		.uleb128 0x2
 17192 03b2 17       		.uleb128 0x17
 17193 03b3 00       		.byte	0
 17194 03b4 00       		.byte	0
 17195 03b5 48       		.uleb128 0x48
 17196 03b6 34       		.uleb128 0x34
 17197 03b7 00       		.byte	0
 17198 03b8 03       		.uleb128 0x3
 17199 03b9 08       		.uleb128 0x8
 17200 03ba 3A       		.uleb128 0x3a
 17201 03bb 0B       		.uleb128 0xb
 17202 03bc 3B       		.uleb128 0x3b
ARM GAS  /tmp/ccTUBOn1.s 			page 303


 17203 03bd 0B       		.uleb128 0xb
 17204 03be 49       		.uleb128 0x49
 17205 03bf 13       		.uleb128 0x13
 17206 03c0 02       		.uleb128 0x2
 17207 03c1 17       		.uleb128 0x17
 17208 03c2 00       		.byte	0
 17209 03c3 00       		.byte	0
 17210 03c4 49       		.uleb128 0x49
 17211 03c5 2E       		.uleb128 0x2e
 17212 03c6 01       		.byte	0x1
 17213 03c7 3F       		.uleb128 0x3f
 17214 03c8 19       		.uleb128 0x19
 17215 03c9 03       		.uleb128 0x3
 17216 03ca 0E       		.uleb128 0xe
 17217 03cb 3A       		.uleb128 0x3a
 17218 03cc 0B       		.uleb128 0xb
 17219 03cd 3B       		.uleb128 0x3b
 17220 03ce 0B       		.uleb128 0xb
 17221 03cf 27       		.uleb128 0x27
 17222 03d0 19       		.uleb128 0x19
 17223 03d1 11       		.uleb128 0x11
 17224 03d2 01       		.uleb128 0x1
 17225 03d3 12       		.uleb128 0x12
 17226 03d4 06       		.uleb128 0x6
 17227 03d5 40       		.uleb128 0x40
 17228 03d6 18       		.uleb128 0x18
 17229 03d7 9742     		.uleb128 0x2117
 17230 03d9 19       		.uleb128 0x19
 17231 03da 01       		.uleb128 0x1
 17232 03db 13       		.uleb128 0x13
 17233 03dc 00       		.byte	0
 17234 03dd 00       		.byte	0
 17235 03de 4A       		.uleb128 0x4a
 17236 03df 34       		.uleb128 0x34
 17237 03e0 00       		.byte	0
 17238 03e1 03       		.uleb128 0x3
 17239 03e2 08       		.uleb128 0x8
 17240 03e3 3A       		.uleb128 0x3a
 17241 03e4 0B       		.uleb128 0xb
 17242 03e5 3B       		.uleb128 0x3b
 17243 03e6 0B       		.uleb128 0xb
 17244 03e7 49       		.uleb128 0x49
 17245 03e8 13       		.uleb128 0x13
 17246 03e9 02       		.uleb128 0x2
 17247 03ea 18       		.uleb128 0x18
 17248 03eb 00       		.byte	0
 17249 03ec 00       		.byte	0
 17250 03ed 4B       		.uleb128 0x4b
 17251 03ee 2E       		.uleb128 0x2e
 17252 03ef 01       		.byte	0x1
 17253 03f0 03       		.uleb128 0x3
 17254 03f1 0E       		.uleb128 0xe
 17255 03f2 3A       		.uleb128 0x3a
 17256 03f3 0B       		.uleb128 0xb
 17257 03f4 3B       		.uleb128 0x3b
 17258 03f5 0B       		.uleb128 0xb
 17259 03f6 27       		.uleb128 0x27
ARM GAS  /tmp/ccTUBOn1.s 			page 304


 17260 03f7 19       		.uleb128 0x19
 17261 03f8 49       		.uleb128 0x49
 17262 03f9 13       		.uleb128 0x13
 17263 03fa 11       		.uleb128 0x11
 17264 03fb 01       		.uleb128 0x1
 17265 03fc 12       		.uleb128 0x12
 17266 03fd 06       		.uleb128 0x6
 17267 03fe 40       		.uleb128 0x40
 17268 03ff 18       		.uleb128 0x18
 17269 0400 9742     		.uleb128 0x2117
 17270 0402 19       		.uleb128 0x19
 17271 0403 01       		.uleb128 0x1
 17272 0404 13       		.uleb128 0x13
 17273 0405 00       		.byte	0
 17274 0406 00       		.byte	0
 17275 0407 4C       		.uleb128 0x4c
 17276 0408 05       		.uleb128 0x5
 17277 0409 00       		.byte	0
 17278 040a 03       		.uleb128 0x3
 17279 040b 08       		.uleb128 0x8
 17280 040c 3A       		.uleb128 0x3a
 17281 040d 0B       		.uleb128 0xb
 17282 040e 3B       		.uleb128 0x3b
 17283 040f 0B       		.uleb128 0xb
 17284 0410 49       		.uleb128 0x49
 17285 0411 13       		.uleb128 0x13
 17286 0412 02       		.uleb128 0x2
 17287 0413 17       		.uleb128 0x17
 17288 0414 00       		.byte	0
 17289 0415 00       		.byte	0
 17290 0416 4D       		.uleb128 0x4d
 17291 0417 34       		.uleb128 0x34
 17292 0418 00       		.byte	0
 17293 0419 03       		.uleb128 0x3
 17294 041a 0E       		.uleb128 0xe
 17295 041b 3A       		.uleb128 0x3a
 17296 041c 0B       		.uleb128 0xb
 17297 041d 3B       		.uleb128 0x3b
 17298 041e 0B       		.uleb128 0xb
 17299 041f 49       		.uleb128 0x49
 17300 0420 13       		.uleb128 0x13
 17301 0421 02       		.uleb128 0x2
 17302 0422 18       		.uleb128 0x18
 17303 0423 00       		.byte	0
 17304 0424 00       		.byte	0
 17305 0425 4E       		.uleb128 0x4e
 17306 0426 898201   		.uleb128 0x4109
 17307 0429 01       		.byte	0x1
 17308 042a 11       		.uleb128 0x11
 17309 042b 01       		.uleb128 0x1
 17310 042c 9542     		.uleb128 0x2115
 17311 042e 19       		.uleb128 0x19
 17312 042f 31       		.uleb128 0x31
 17313 0430 13       		.uleb128 0x13
 17314 0431 00       		.byte	0
 17315 0432 00       		.byte	0
 17316 0433 4F       		.uleb128 0x4f
ARM GAS  /tmp/ccTUBOn1.s 			page 305


 17317 0434 34       		.uleb128 0x34
 17318 0435 00       		.byte	0
 17319 0436 03       		.uleb128 0x3
 17320 0437 08       		.uleb128 0x8
 17321 0438 3A       		.uleb128 0x3a
 17322 0439 0B       		.uleb128 0xb
 17323 043a 3B       		.uleb128 0x3b
 17324 043b 0B       		.uleb128 0xb
 17325 043c 49       		.uleb128 0x49
 17326 043d 13       		.uleb128 0x13
 17327 043e 00       		.byte	0
 17328 043f 00       		.byte	0
 17329 0440 50       		.uleb128 0x50
 17330 0441 898201   		.uleb128 0x4109
 17331 0444 00       		.byte	0
 17332 0445 11       		.uleb128 0x11
 17333 0446 01       		.uleb128 0x1
 17334 0447 9542     		.uleb128 0x2115
 17335 0449 19       		.uleb128 0x19
 17336 044a 31       		.uleb128 0x31
 17337 044b 13       		.uleb128 0x13
 17338 044c 00       		.byte	0
 17339 044d 00       		.byte	0
 17340 044e 51       		.uleb128 0x51
 17341 044f 2E       		.uleb128 0x2e
 17342 0450 00       		.byte	0
 17343 0451 3F       		.uleb128 0x3f
 17344 0452 19       		.uleb128 0x19
 17345 0453 3C       		.uleb128 0x3c
 17346 0454 19       		.uleb128 0x19
 17347 0455 6E       		.uleb128 0x6e
 17348 0456 0E       		.uleb128 0xe
 17349 0457 03       		.uleb128 0x3
 17350 0458 0E       		.uleb128 0xe
 17351 0459 3A       		.uleb128 0x3a
 17352 045a 0B       		.uleb128 0xb
 17353 045b 3B       		.uleb128 0x3b
 17354 045c 0B       		.uleb128 0xb
 17355 045d 00       		.byte	0
 17356 045e 00       		.byte	0
 17357 045f 52       		.uleb128 0x52
 17358 0460 2E       		.uleb128 0x2e
 17359 0461 00       		.byte	0
 17360 0462 3F       		.uleb128 0x3f
 17361 0463 19       		.uleb128 0x19
 17362 0464 3C       		.uleb128 0x3c
 17363 0465 19       		.uleb128 0x19
 17364 0466 6E       		.uleb128 0x6e
 17365 0467 0E       		.uleb128 0xe
 17366 0468 03       		.uleb128 0x3
 17367 0469 0E       		.uleb128 0xe
 17368 046a 3A       		.uleb128 0x3a
 17369 046b 0B       		.uleb128 0xb
 17370 046c 3B       		.uleb128 0x3b
 17371 046d 0B       		.uleb128 0xb
 17372 046e 6E       		.uleb128 0x6e
 17373 046f 0E       		.uleb128 0xe
ARM GAS  /tmp/ccTUBOn1.s 			page 306


 17374 0470 00       		.byte	0
 17375 0471 00       		.byte	0
 17376 0472 53       		.uleb128 0x53
 17377 0473 2E       		.uleb128 0x2e
 17378 0474 00       		.byte	0
 17379 0475 3F       		.uleb128 0x3f
 17380 0476 19       		.uleb128 0x19
 17381 0477 3C       		.uleb128 0x3c
 17382 0478 19       		.uleb128 0x19
 17383 0479 6E       		.uleb128 0x6e
 17384 047a 0E       		.uleb128 0xe
 17385 047b 03       		.uleb128 0x3
 17386 047c 0E       		.uleb128 0xe
 17387 047d 3A       		.uleb128 0x3a
 17388 047e 0B       		.uleb128 0xb
 17389 047f 3B       		.uleb128 0x3b
 17390 0480 05       		.uleb128 0x5
 17391 0481 00       		.byte	0
 17392 0482 00       		.byte	0
 17393 0483 00       		.byte	0
 17394              		.section	.debug_loc,"",%progbits
 17395              	.Ldebug_loc0:
 17396              	.LLST145:
 17397 0000 00000000 		.4byte	.LVL552
 17398 0004 23000000 		.4byte	.LVL553-1
 17399 0008 0100     		.2byte	0x1
 17400 000a 50       		.byte	0x50
 17401 000b 23000000 		.4byte	.LVL553-1
 17402 000f 00020000 		.4byte	.LFE273
 17403 0013 0400     		.2byte	0x4
 17404 0015 F3       		.byte	0xf3
 17405 0016 01       		.uleb128 0x1
 17406 0017 50       		.byte	0x50
 17407 0018 9F       		.byte	0x9f
 17408 0019 00000000 		.4byte	0
 17409 001d 00000000 		.4byte	0
 17410              	.LLST146:
 17411 0021 00000000 		.4byte	.LVL552
 17412 0025 23000000 		.4byte	.LVL553-1
 17413 0029 0200     		.2byte	0x2
 17414 002b 90       		.byte	0x90
 17415 002c 40       		.uleb128 0x40
 17416 002d 23000000 		.4byte	.LVL553-1
 17417 0031 D0010000 		.4byte	.LVL595
 17418 0035 0200     		.2byte	0x2
 17419 0037 90       		.byte	0x90
 17420 0038 50       		.uleb128 0x50
 17421 0039 D0010000 		.4byte	.LVL595
 17422 003d D4010000 		.4byte	.LVL596
 17423 0041 0600     		.2byte	0x6
 17424 0043 F3       		.byte	0xf3
 17425 0044 03       		.uleb128 0x3
 17426 0045 F5       		.byte	0xf5
 17427 0046 40       		.uleb128 0x40
 17428 0047 25       		.uleb128 0x25
 17429 0048 9F       		.byte	0x9f
 17430 0049 D4010000 		.4byte	.LVL596
ARM GAS  /tmp/ccTUBOn1.s 			page 307


 17431 004d E4010000 		.4byte	.LVL599
 17432 0051 0200     		.2byte	0x2
 17433 0053 90       		.byte	0x90
 17434 0054 50       		.uleb128 0x50
 17435 0055 E4010000 		.4byte	.LVL599
 17436 0059 00020000 		.4byte	.LFE273
 17437 005d 0600     		.2byte	0x6
 17438 005f F3       		.byte	0xf3
 17439 0060 03       		.uleb128 0x3
 17440 0061 F5       		.byte	0xf5
 17441 0062 40       		.uleb128 0x40
 17442 0063 25       		.uleb128 0x25
 17443 0064 9F       		.byte	0x9f
 17444 0065 00000000 		.4byte	0
 17445 0069 00000000 		.4byte	0
 17446              	.LLST147:
 17447 006d 00000000 		.4byte	.LVL552
 17448 0071 23000000 		.4byte	.LVL553-1
 17449 0075 0200     		.2byte	0x2
 17450 0077 90       		.byte	0x90
 17451 0078 41       		.uleb128 0x41
 17452 0079 23000000 		.4byte	.LVL553-1
 17453 007d D0010000 		.4byte	.LVL595
 17454 0081 0200     		.2byte	0x2
 17455 0083 90       		.byte	0x90
 17456 0084 54       		.uleb128 0x54
 17457 0085 D0010000 		.4byte	.LVL595
 17458 0089 D4010000 		.4byte	.LVL596
 17459 008d 0600     		.2byte	0x6
 17460 008f F3       		.byte	0xf3
 17461 0090 03       		.uleb128 0x3
 17462 0091 F5       		.byte	0xf5
 17463 0092 41       		.uleb128 0x41
 17464 0093 25       		.uleb128 0x25
 17465 0094 9F       		.byte	0x9f
 17466 0095 D4010000 		.4byte	.LVL596
 17467 0099 E4010000 		.4byte	.LVL599
 17468 009d 0200     		.2byte	0x2
 17469 009f 90       		.byte	0x90
 17470 00a0 54       		.uleb128 0x54
 17471 00a1 E4010000 		.4byte	.LVL599
 17472 00a5 00020000 		.4byte	.LFE273
 17473 00a9 0600     		.2byte	0x6
 17474 00ab F3       		.byte	0xf3
 17475 00ac 03       		.uleb128 0x3
 17476 00ad F5       		.byte	0xf5
 17477 00ae 41       		.uleb128 0x41
 17478 00af 25       		.uleb128 0x25
 17479 00b0 9F       		.byte	0x9f
 17480 00b1 00000000 		.4byte	0
 17481 00b5 00000000 		.4byte	0
 17482              	.LLST148:
 17483 00b9 00000000 		.4byte	.LVL552
 17484 00bd 23000000 		.4byte	.LVL553-1
 17485 00c1 0200     		.2byte	0x2
 17486 00c3 90       		.byte	0x90
 17487 00c4 42       		.uleb128 0x42
ARM GAS  /tmp/ccTUBOn1.s 			page 308


 17488 00c5 23000000 		.4byte	.LVL553-1
 17489 00c9 00020000 		.4byte	.LFE273
 17490 00cd 0200     		.2byte	0x2
 17491 00cf 90       		.byte	0x90
 17492 00d0 53       		.uleb128 0x53
 17493 00d1 00000000 		.4byte	0
 17494 00d5 00000000 		.4byte	0
 17495              	.LLST149:
 17496 00d9 00000000 		.4byte	.LVL552
 17497 00dd 23000000 		.4byte	.LVL553-1
 17498 00e1 0200     		.2byte	0x2
 17499 00e3 90       		.byte	0x90
 17500 00e4 43       		.uleb128 0x43
 17501 00e5 23000000 		.4byte	.LVL553-1
 17502 00e9 D0010000 		.4byte	.LVL595
 17503 00ed 0200     		.2byte	0x2
 17504 00ef 90       		.byte	0x90
 17505 00f0 52       		.uleb128 0x52
 17506 00f1 D0010000 		.4byte	.LVL595
 17507 00f5 D4010000 		.4byte	.LVL596
 17508 00f9 0600     		.2byte	0x6
 17509 00fb F3       		.byte	0xf3
 17510 00fc 03       		.uleb128 0x3
 17511 00fd F5       		.byte	0xf5
 17512 00fe 43       		.uleb128 0x43
 17513 00ff 25       		.uleb128 0x25
 17514 0100 9F       		.byte	0x9f
 17515 0101 D4010000 		.4byte	.LVL596
 17516 0105 E4010000 		.4byte	.LVL599
 17517 0109 0200     		.2byte	0x2
 17518 010b 90       		.byte	0x90
 17519 010c 52       		.uleb128 0x52
 17520 010d E4010000 		.4byte	.LVL599
 17521 0111 00020000 		.4byte	.LFE273
 17522 0115 0600     		.2byte	0x6
 17523 0117 F3       		.byte	0xf3
 17524 0118 03       		.uleb128 0x3
 17525 0119 F5       		.byte	0xf5
 17526 011a 43       		.uleb128 0x43
 17527 011b 25       		.uleb128 0x25
 17528 011c 9F       		.byte	0x9f
 17529 011d 00000000 		.4byte	0
 17530 0121 00000000 		.4byte	0
 17531              	.LLST150:
 17532 0125 00000000 		.4byte	.LVL552
 17533 0129 23000000 		.4byte	.LVL553-1
 17534 012d 0200     		.2byte	0x2
 17535 012f 90       		.byte	0x90
 17536 0130 44       		.uleb128 0x44
 17537 0131 23000000 		.4byte	.LVL553-1
 17538 0135 00020000 		.4byte	.LFE273
 17539 0139 0200     		.2byte	0x2
 17540 013b 90       		.byte	0x90
 17541 013c 51       		.uleb128 0x51
 17542 013d 00000000 		.4byte	0
 17543 0141 00000000 		.4byte	0
 17544              	.LLST151:
ARM GAS  /tmp/ccTUBOn1.s 			page 309


 17545 0145 32000000 		.4byte	.LVL555
 17546 0149 12010000 		.4byte	.LVL568
 17547 014d 0100     		.2byte	0x1
 17548 014f 56       		.byte	0x56
 17549 0150 14010000 		.4byte	.LVL569
 17550 0154 E8010000 		.4byte	.LVL600
 17551 0158 0100     		.2byte	0x1
 17552 015a 56       		.byte	0x56
 17553 015b 00000000 		.4byte	0
 17554 015f 00000000 		.4byte	0
 17555              	.LLST152:
 17556 0163 BC000000 		.4byte	.LVL558
 17557 0167 CC000000 		.4byte	.LVL560
 17558 016b 0200     		.2byte	0x2
 17559 016d 30       		.byte	0x30
 17560 016e 9F       		.byte	0x9f
 17561 016f CC000000 		.4byte	.LVL560
 17562 0173 08010000 		.4byte	.LVL566
 17563 0177 0100     		.2byte	0x1
 17564 0179 58       		.byte	0x58
 17565 017a 08010000 		.4byte	.LVL566
 17566 017e 0C010000 		.4byte	.LVL567
 17567 0182 0300     		.2byte	0x3
 17568 0184 78       		.byte	0x78
 17569 0185 7F       		.sleb128 -1
 17570 0186 9F       		.byte	0x9f
 17571 0187 0C010000 		.4byte	.LVL567
 17572 018b D4010000 		.4byte	.LVL596
 17573 018f 0100     		.2byte	0x1
 17574 0191 58       		.byte	0x58
 17575 0192 D4010000 		.4byte	.LVL596
 17576 0196 D8010000 		.4byte	.LVL597
 17577 019a 0200     		.2byte	0x2
 17578 019c 30       		.byte	0x30
 17579 019d 9F       		.byte	0x9f
 17580 019e D8010000 		.4byte	.LVL597
 17581 01a2 E8010000 		.4byte	.LVL600
 17582 01a6 0100     		.2byte	0x1
 17583 01a8 58       		.byte	0x58
 17584 01a9 00000000 		.4byte	0
 17585 01ad 00000000 		.4byte	0
 17586              	.LLST153:
 17587 01b1 34010000 		.4byte	.LVL574
 17588 01b5 36010000 		.4byte	.LVL575
 17589 01b9 0100     		.2byte	0x1
 17590 01bb 50       		.byte	0x50
 17591 01bc 36010000 		.4byte	.LVL575
 17592 01c0 D4010000 		.4byte	.LVL596
 17593 01c4 0100     		.2byte	0x1
 17594 01c6 55       		.byte	0x55
 17595 01c7 D8010000 		.4byte	.LVL597
 17596 01cb DC010000 		.4byte	.LVL598
 17597 01cf 0100     		.2byte	0x1
 17598 01d1 55       		.byte	0x55
 17599 01d2 00000000 		.4byte	0
 17600 01d6 00000000 		.4byte	0
 17601              	.LLST154:
ARM GAS  /tmp/ccTUBOn1.s 			page 310


 17602 01da 34010000 		.4byte	.LVL574
 17603 01de D4010000 		.4byte	.LVL596
 17604 01e2 0200     		.2byte	0x2
 17605 01e4 31       		.byte	0x31
 17606 01e5 9F       		.byte	0x9f
 17607 01e6 D8010000 		.4byte	.LVL597
 17608 01ea 00020000 		.4byte	.LFE273
 17609 01ee 0200     		.2byte	0x2
 17610 01f0 31       		.byte	0x31
 17611 01f1 9F       		.byte	0x9f
 17612 01f2 00000000 		.4byte	0
 17613 01f6 00000000 		.4byte	0
 17614              	.LLST155:
 17615 01fa CC000000 		.4byte	.LVL560
 17616 01fe 1A010000 		.4byte	.LVL570
 17617 0202 0100     		.2byte	0x1
 17618 0204 54       		.byte	0x54
 17619 0205 1A010000 		.4byte	.LVL570
 17620 0209 1E010000 		.4byte	.LVL571
 17621 020d 0300     		.2byte	0x3
 17622 020f 74       		.byte	0x74
 17623 0210 7F       		.sleb128 -1
 17624 0211 9F       		.byte	0x9f
 17625 0212 1E010000 		.4byte	.LVL571
 17626 0216 22010000 		.4byte	.LVL572
 17627 021a 0100     		.2byte	0x1
 17628 021c 54       		.byte	0x54
 17629 021d 00000000 		.4byte	0
 17630 0221 00000000 		.4byte	0
 17631              	.LLST156:
 17632 0225 34010000 		.4byte	.LVL574
 17633 0229 36010000 		.4byte	.LVL575
 17634 022d 0200     		.2byte	0x2
 17635 022f 30       		.byte	0x30
 17636 0230 9F       		.byte	0x9f
 17637 0231 36010000 		.4byte	.LVL575
 17638 0235 3A010000 		.4byte	.LVL576
 17639 0239 0700     		.2byte	0x7
 17640 023b 0A       		.byte	0xa
 17641 023c A00F     		.2byte	0xfa0
 17642 023e 74       		.byte	0x74
 17643 023f 00       		.sleb128 0
 17644 0240 1C       		.byte	0x1c
 17645 0241 9F       		.byte	0x9f
 17646 0242 3A010000 		.4byte	.LVL576
 17647 0246 3C010000 		.4byte	.LVL577
 17648 024a 0700     		.2byte	0x7
 17649 024c 0A       		.byte	0xa
 17650 024d A10F     		.2byte	0xfa1
 17651 024f 74       		.byte	0x74
 17652 0250 00       		.sleb128 0
 17653 0251 1C       		.byte	0x1c
 17654 0252 9F       		.byte	0x9f
 17655 0253 3C010000 		.4byte	.LVL577
 17656 0257 52010000 		.4byte	.LVL581
 17657 025b 0700     		.2byte	0x7
 17658 025d 0A       		.byte	0xa
ARM GAS  /tmp/ccTUBOn1.s 			page 311


 17659 025e A00F     		.2byte	0xfa0
 17660 0260 74       		.byte	0x74
 17661 0261 00       		.sleb128 0
 17662 0262 1C       		.byte	0x1c
 17663 0263 9F       		.byte	0x9f
 17664 0264 D8010000 		.4byte	.LVL597
 17665 0268 E8010000 		.4byte	.LVL600
 17666 026c 0700     		.2byte	0x7
 17667 026e 0A       		.byte	0xa
 17668 026f A00F     		.2byte	0xfa0
 17669 0271 74       		.byte	0x74
 17670 0272 00       		.sleb128 0
 17671 0273 1C       		.byte	0x1c
 17672 0274 9F       		.byte	0x9f
 17673 0275 00000000 		.4byte	0
 17674 0279 00000000 		.4byte	0
 17675              	.LLST157:
 17676 027d 4A010000 		.4byte	.LVL580
 17677 0281 52010000 		.4byte	.LVL581
 17678 0285 0200     		.2byte	0x2
 17679 0287 30       		.byte	0x30
 17680 0288 9F       		.byte	0x9f
 17681 0289 52010000 		.4byte	.LVL581
 17682 028d 5A010000 		.4byte	.LVL583
 17683 0291 0100     		.2byte	0x1
 17684 0293 54       		.byte	0x54
 17685 0294 5A010000 		.4byte	.LVL583
 17686 0298 62010000 		.4byte	.LVL584
 17687 029c 0300     		.2byte	0x3
 17688 029e 74       		.byte	0x74
 17689 029f 7F       		.sleb128 -1
 17690 02a0 9F       		.byte	0x9f
 17691 02a1 62010000 		.4byte	.LVL584
 17692 02a5 66010000 		.4byte	.LVL585
 17693 02a9 0100     		.2byte	0x1
 17694 02ab 54       		.byte	0x54
 17695 02ac 00000000 		.4byte	0
 17696 02b0 00000000 		.4byte	0
 17697              	.LLST118:
 17698 02b4 00000000 		.4byte	.LVL469
 17699 02b8 15000000 		.4byte	.LVL470-1
 17700 02bc 0200     		.2byte	0x2
 17701 02be 90       		.byte	0x90
 17702 02bf 40       		.uleb128 0x40
 17703 02c0 15000000 		.4byte	.LVL470-1
 17704 02c4 62010000 		.4byte	.LVL501
 17705 02c8 0200     		.2byte	0x2
 17706 02ca 90       		.byte	0x90
 17707 02cb 52       		.uleb128 0x52
 17708 02cc 62010000 		.4byte	.LVL501
 17709 02d0 66010000 		.4byte	.LVL502
 17710 02d4 0600     		.2byte	0x6
 17711 02d6 F3       		.byte	0xf3
 17712 02d7 03       		.uleb128 0x3
 17713 02d8 F5       		.byte	0xf5
 17714 02d9 40       		.uleb128 0x40
 17715 02da 25       		.uleb128 0x25
ARM GAS  /tmp/ccTUBOn1.s 			page 312


 17716 02db 9F       		.byte	0x9f
 17717 02dc 66010000 		.4byte	.LVL502
 17718 02e0 9C020000 		.4byte	.LVL536
 17719 02e4 0200     		.2byte	0x2
 17720 02e6 90       		.byte	0x90
 17721 02e7 52       		.uleb128 0x52
 17722 02e8 9C020000 		.4byte	.LVL536
 17723 02ec A0020000 		.4byte	.LVL537
 17724 02f0 0600     		.2byte	0x6
 17725 02f2 F3       		.byte	0xf3
 17726 02f3 03       		.uleb128 0x3
 17727 02f4 F5       		.byte	0xf5
 17728 02f5 40       		.uleb128 0x40
 17729 02f6 25       		.uleb128 0x25
 17730 02f7 9F       		.byte	0x9f
 17731 02f8 A0020000 		.4byte	.LVL537
 17732 02fc 0A030000 		.4byte	.LVL547
 17733 0300 0200     		.2byte	0x2
 17734 0302 90       		.byte	0x90
 17735 0303 52       		.uleb128 0x52
 17736 0304 0A030000 		.4byte	.LVL547
 17737 0308 0E030000 		.4byte	.LVL548
 17738 030c 0600     		.2byte	0x6
 17739 030e F3       		.byte	0xf3
 17740 030f 03       		.uleb128 0x3
 17741 0310 F5       		.byte	0xf5
 17742 0311 40       		.uleb128 0x40
 17743 0312 25       		.uleb128 0x25
 17744 0313 9F       		.byte	0x9f
 17745 0314 0E030000 		.4byte	.LVL548
 17746 0318 7C030000 		.4byte	.LFE272
 17747 031c 0200     		.2byte	0x2
 17748 031e 90       		.byte	0x90
 17749 031f 52       		.uleb128 0x52
 17750 0320 00000000 		.4byte	0
 17751 0324 00000000 		.4byte	0
 17752              	.LLST119:
 17753 0328 00000000 		.4byte	.LVL469
 17754 032c 15000000 		.4byte	.LVL470-1
 17755 0330 0100     		.2byte	0x1
 17756 0332 50       		.byte	0x50
 17757 0333 15000000 		.4byte	.LVL470-1
 17758 0337 7C030000 		.4byte	.LFE272
 17759 033b 0400     		.2byte	0x4
 17760 033d F3       		.byte	0xf3
 17761 033e 01       		.uleb128 0x1
 17762 033f 50       		.byte	0x50
 17763 0340 9F       		.byte	0x9f
 17764 0341 00000000 		.4byte	0
 17765 0345 00000000 		.4byte	0
 17766              	.LLST120:
 17767 0349 00000000 		.4byte	.LVL469
 17768 034d 15000000 		.4byte	.LVL470-1
 17769 0351 0100     		.2byte	0x1
 17770 0353 51       		.byte	0x51
 17771 0354 15000000 		.4byte	.LVL470-1
 17772 0358 7C030000 		.4byte	.LFE272
ARM GAS  /tmp/ccTUBOn1.s 			page 313


 17773 035c 0400     		.2byte	0x4
 17774 035e F3       		.byte	0xf3
 17775 035f 01       		.uleb128 0x1
 17776 0360 51       		.byte	0x51
 17777 0361 9F       		.byte	0x9f
 17778 0362 00000000 		.4byte	0
 17779 0366 00000000 		.4byte	0
 17780              	.LLST121:
 17781 036a 00000000 		.4byte	.LVL469
 17782 036e 96020000 		.4byte	.LVL535
 17783 0372 0300     		.2byte	0x3
 17784 0374 09       		.byte	0x9
 17785 0375 FF       		.byte	0xff
 17786 0376 9F       		.byte	0x9f
 17787 0377 96020000 		.4byte	.LVL535
 17788 037b A0020000 		.4byte	.LVL537
 17789 037f 0100     		.2byte	0x1
 17790 0381 50       		.byte	0x50
 17791 0382 A0020000 		.4byte	.LVL537
 17792 0386 C8020000 		.4byte	.LVL540
 17793 038a 0300     		.2byte	0x3
 17794 038c 09       		.byte	0x9
 17795 038d FF       		.byte	0xff
 17796 038e 9F       		.byte	0x9f
 17797 038f C8020000 		.4byte	.LVL540
 17798 0393 04030000 		.4byte	.LVL546
 17799 0397 0300     		.2byte	0x3
 17800 0399 09       		.byte	0x9
 17801 039a F6       		.byte	0xf6
 17802 039b 9F       		.byte	0x9f
 17803 039c 0E030000 		.4byte	.LVL548
 17804 03a0 7C030000 		.4byte	.LFE272
 17805 03a4 0300     		.2byte	0x3
 17806 03a6 09       		.byte	0x9
 17807 03a7 FF       		.byte	0xff
 17808 03a8 9F       		.byte	0x9f
 17809 03a9 00000000 		.4byte	0
 17810 03ad 00000000 		.4byte	0
 17811              	.LLST122:
 17812 03b1 A0000000 		.4byte	.LVL483
 17813 03b5 A3000000 		.4byte	.LVL484-1
 17814 03b9 0100     		.2byte	0x1
 17815 03bb 50       		.byte	0x50
 17816 03bc A3000000 		.4byte	.LVL484-1
 17817 03c0 BC020000 		.4byte	.LVL539
 17818 03c4 0100     		.2byte	0x1
 17819 03c6 58       		.byte	0x58
 17820 03c7 BC020000 		.4byte	.LVL539
 17821 03cb CB020000 		.4byte	.LVL541-1
 17822 03cf 0100     		.2byte	0x1
 17823 03d1 50       		.byte	0x50
 17824 03d2 1A030000 		.4byte	.LVL550
 17825 03d6 7C030000 		.4byte	.LFE272
 17826 03da 0100     		.2byte	0x1
 17827 03dc 58       		.byte	0x58
 17828 03dd 00000000 		.4byte	0
 17829 03e1 00000000 		.4byte	0
ARM GAS  /tmp/ccTUBOn1.s 			page 314


 17830              	.LLST123:
 17831 03e5 A8000000 		.4byte	.LVL485
 17832 03e9 AB000000 		.4byte	.LVL486-1
 17833 03ed 0200     		.2byte	0x2
 17834 03ef 90       		.byte	0x90
 17835 03f0 40       		.uleb128 0x40
 17836 03f1 AB000000 		.4byte	.LVL486-1
 17837 03f5 04030000 		.4byte	.LVL546
 17838 03f9 0200     		.2byte	0x2
 17839 03fb 90       		.byte	0x90
 17840 03fc 55       		.uleb128 0x55
 17841 03fd 1A030000 		.4byte	.LVL550
 17842 0401 7C030000 		.4byte	.LFE272
 17843 0405 0200     		.2byte	0x2
 17844 0407 90       		.byte	0x90
 17845 0408 55       		.uleb128 0x55
 17846 0409 00000000 		.4byte	0
 17847 040d 00000000 		.4byte	0
 17848              	.LLST124:
 17849 0411 E2000000 		.4byte	.LVL489
 17850 0415 FE000000 		.4byte	.LVL491
 17851 0419 0600     		.2byte	0x6
 17852 041b 9E       		.byte	0x9e
 17853 041c 04       		.uleb128 0x4
 17854 041d 00000000 		.4byte	0
 17855 0421 FE000000 		.4byte	.LVL491
 17856 0425 2A010000 		.4byte	.LVL493
 17857 0429 0200     		.2byte	0x2
 17858 042b 90       		.byte	0x90
 17859 042c 50       		.uleb128 0x50
 17860 042d 2A010000 		.4byte	.LVL493
 17861 0431 38010000 		.4byte	.LVL495
 17862 0435 0600     		.2byte	0x6
 17863 0437 9E       		.byte	0x9e
 17864 0438 04       		.uleb128 0x4
 17865 0439 00000000 		.4byte	0
 17866 043d 38010000 		.4byte	.LVL495
 17867 0441 62010000 		.4byte	.LVL501
 17868 0445 0200     		.2byte	0x2
 17869 0447 90       		.byte	0x90
 17870 0448 50       		.uleb128 0x50
 17871 0449 66010000 		.4byte	.LVL502
 17872 044d 6A010000 		.4byte	.LVL503
 17873 0451 0600     		.2byte	0x6
 17874 0453 9E       		.byte	0x9e
 17875 0454 04       		.uleb128 0x4
 17876 0455 00000000 		.4byte	0
 17877 0459 6A010000 		.4byte	.LVL503
 17878 045d 98010000 		.4byte	.LVL510
 17879 0461 0200     		.2byte	0x2
 17880 0463 90       		.byte	0x90
 17881 0464 50       		.uleb128 0x50
 17882 0465 00000000 		.4byte	0
 17883 0469 00000000 		.4byte	0
 17884              	.LLST125:
 17885 046d 7A010000 		.4byte	.LVL505
 17886 0471 80010000 		.4byte	.LVL506
ARM GAS  /tmp/ccTUBOn1.s 			page 315


 17887 0475 0200     		.2byte	0x2
 17888 0477 90       		.byte	0x90
 17889 0478 40       		.uleb128 0x40
 17890 0479 80010000 		.4byte	.LVL506
 17891 047d 22020000 		.4byte	.LVL517
 17892 0481 0200     		.2byte	0x2
 17893 0483 90       		.byte	0x90
 17894 0484 51       		.uleb128 0x51
 17895 0485 22020000 		.4byte	.LVL517
 17896 0489 49020000 		.4byte	.LVL524-1
 17897 048d 0500     		.2byte	0x5
 17898 048f 03       		.byte	0x3
 17899 0490 E0000000 		.4byte	mcconf_old+224
 17900 0494 A0020000 		.4byte	.LVL537
 17901 0498 04030000 		.4byte	.LVL546
 17902 049c 0200     		.2byte	0x2
 17903 049e 90       		.byte	0x90
 17904 049f 51       		.uleb128 0x51
 17905 04a0 1A030000 		.4byte	.LVL550
 17906 04a4 7C030000 		.4byte	.LFE272
 17907 04a8 0200     		.2byte	0x2
 17908 04aa 90       		.byte	0x90
 17909 04ab 51       		.uleb128 0x51
 17910 04ac 00000000 		.4byte	0
 17911 04b0 00000000 		.4byte	0
 17912              	.LLST126:
 17913 04b4 88010000 		.4byte	.LVL508
 17914 04b8 8C010000 		.4byte	.LVL509
 17915 04bc 0C00     		.2byte	0xc
 17916 04be F5       		.byte	0xf5
 17917 04bf 40       		.uleb128 0x40
 17918 04c0 25       		.uleb128 0x25
 17919 04c1 F4       		.byte	0xf4
 17920 04c2 25       		.uleb128 0x25
 17921 04c3 04       		.byte	0x4
 17922 04c4 BD378635 		.4byte	0x358637bd
 17923 04c8 1E       		.byte	0x1e
 17924 04c9 9F       		.byte	0x9f
 17925 04ca 8C010000 		.4byte	.LVL509
 17926 04ce 0C020000 		.4byte	.LVL515
 17927 04d2 0C00     		.2byte	0xc
 17928 04d4 F5       		.byte	0xf5
 17929 04d5 53       		.uleb128 0x53
 17930 04d6 25       		.uleb128 0x25
 17931 04d7 F4       		.byte	0xf4
 17932 04d8 25       		.uleb128 0x25
 17933 04d9 04       		.byte	0x4
 17934 04da BD378635 		.4byte	0x358637bd
 17935 04de 1E       		.byte	0x1e
 17936 04df 9F       		.byte	0x9f
 17937 04e0 A0020000 		.4byte	.LVL537
 17938 04e4 04030000 		.4byte	.LVL546
 17939 04e8 0C00     		.2byte	0xc
 17940 04ea F5       		.byte	0xf5
 17941 04eb 53       		.uleb128 0x53
 17942 04ec 25       		.uleb128 0x25
 17943 04ed F4       		.byte	0xf4
ARM GAS  /tmp/ccTUBOn1.s 			page 316


 17944 04ee 25       		.uleb128 0x25
 17945 04ef 04       		.byte	0x4
 17946 04f0 BD378635 		.4byte	0x358637bd
 17947 04f4 1E       		.byte	0x1e
 17948 04f5 9F       		.byte	0x9f
 17949 04f6 1A030000 		.4byte	.LVL550
 17950 04fa 7C030000 		.4byte	.LFE272
 17951 04fe 0C00     		.2byte	0xc
 17952 0500 F5       		.byte	0xf5
 17953 0501 53       		.uleb128 0x53
 17954 0502 25       		.uleb128 0x25
 17955 0503 F4       		.byte	0xf4
 17956 0504 25       		.uleb128 0x25
 17957 0505 04       		.byte	0x4
 17958 0506 BD378635 		.4byte	0x358637bd
 17959 050a 1E       		.byte	0x1e
 17960 050b 9F       		.byte	0x9f
 17961 050c 00000000 		.4byte	0
 17962 0510 00000000 		.4byte	0
 17963              	.LLST127:
 17964 0514 E2010000 		.4byte	.LVL513
 17965 0518 12020000 		.4byte	.LVL516
 17966 051c 0600     		.2byte	0x6
 17967 051e 70       		.byte	0x70
 17968 051f 00       		.sleb128 0
 17969 0520 08       		.byte	0x8
 17970 0521 FF       		.byte	0xff
 17971 0522 1A       		.byte	0x1a
 17972 0523 9F       		.byte	0x9f
 17973 0524 A0020000 		.4byte	.LVL537
 17974 0528 A8020000 		.4byte	.LVL538
 17975 052c 0600     		.2byte	0x6
 17976 052e 70       		.byte	0x70
 17977 052f 00       		.sleb128 0
 17978 0530 08       		.byte	0x8
 17979 0531 FF       		.byte	0xff
 17980 0532 1A       		.byte	0x1a
 17981 0533 9F       		.byte	0x9f
 17982 0534 00000000 		.4byte	0
 17983 0538 00000000 		.4byte	0
 17984              	.LLST128:
 17985 053c E2010000 		.4byte	.LVL513
 17986 0540 04020000 		.4byte	.LVL514
 17987 0544 0500     		.2byte	0x5
 17988 0546 03       		.byte	0x3
 17989 0547 E0000000 		.4byte	mcconf_old+224
 17990 054b A0020000 		.4byte	.LVL537
 17991 054f CB020000 		.4byte	.LVL541-1
 17992 0553 0500     		.2byte	0x5
 17993 0555 03       		.byte	0x3
 17994 0556 E0000000 		.4byte	mcconf_old+224
 17995 055a 00000000 		.4byte	0
 17996 055e 00000000 		.4byte	0
 17997              	.LLST129:
 17998 0562 E2010000 		.4byte	.LVL513
 17999 0566 42020000 		.4byte	.LVL522
 18000 056a 0500     		.2byte	0x5
ARM GAS  /tmp/ccTUBOn1.s 			page 317


 18001 056c 03       		.byte	0x3
 18002 056d DC000000 		.4byte	mcconf_old+220
 18003 0571 A0020000 		.4byte	.LVL537
 18004 0575 CB020000 		.4byte	.LVL541-1
 18005 0579 0500     		.2byte	0x5
 18006 057b 03       		.byte	0x3
 18007 057c DC000000 		.4byte	mcconf_old+220
 18008 0580 00000000 		.4byte	0
 18009 0584 00000000 		.4byte	0
 18010              	.LLST130:
 18011 0588 E2010000 		.4byte	.LVL513
 18012 058c 32020000 		.4byte	.LVL519
 18013 0590 0500     		.2byte	0x5
 18014 0592 03       		.byte	0x3
 18015 0593 E4000000 		.4byte	mcconf_old+228
 18016 0597 A0020000 		.4byte	.LVL537
 18017 059b CB020000 		.4byte	.LVL541-1
 18018 059f 0500     		.2byte	0x5
 18019 05a1 03       		.byte	0x3
 18020 05a2 E4000000 		.4byte	mcconf_old+228
 18021 05a6 00000000 		.4byte	0
 18022 05aa 00000000 		.4byte	0
 18023              	.LLST131:
 18024 05ae E2010000 		.4byte	.LVL513
 18025 05b2 3E020000 		.4byte	.LVL521
 18026 05b6 0500     		.2byte	0x5
 18027 05b8 03       		.byte	0x3
 18028 05b9 AC000000 		.4byte	mcconf_old+172
 18029 05bd A0020000 		.4byte	.LVL537
 18030 05c1 CB020000 		.4byte	.LVL541-1
 18031 05c5 0500     		.2byte	0x5
 18032 05c7 03       		.byte	0x3
 18033 05c8 AC000000 		.4byte	mcconf_old+172
 18034 05cc 00000000 		.4byte	0
 18035 05d0 00000000 		.4byte	0
 18036              	.LLST132:
 18037 05d4 E2010000 		.4byte	.LVL513
 18038 05d8 46020000 		.4byte	.LVL523
 18039 05dc 0500     		.2byte	0x5
 18040 05de 03       		.byte	0x3
 18041 05df B0000000 		.4byte	mcconf_old+176
 18042 05e3 A0020000 		.4byte	.LVL537
 18043 05e7 CB020000 		.4byte	.LVL541-1
 18044 05eb 0500     		.2byte	0x5
 18045 05ed 03       		.byte	0x3
 18046 05ee B0000000 		.4byte	mcconf_old+176
 18047 05f2 00000000 		.4byte	0
 18048 05f6 00000000 		.4byte	0
 18049              	.LLST133:
 18050 05fa E2010000 		.4byte	.LVL513
 18051 05fe 2E020000 		.4byte	.LVL518
 18052 0602 0500     		.2byte	0x5
 18053 0604 03       		.byte	0x3
 18054 0605 E8000000 		.4byte	mcconf_old+232
 18055 0609 A0020000 		.4byte	.LVL537
 18056 060d CB020000 		.4byte	.LVL541-1
 18057 0611 0500     		.2byte	0x5
ARM GAS  /tmp/ccTUBOn1.s 			page 318


 18058 0613 03       		.byte	0x3
 18059 0614 E8000000 		.4byte	mcconf_old+232
 18060 0618 00000000 		.4byte	0
 18061 061c 00000000 		.4byte	0
 18062              	.LLST134:
 18063 0620 E2010000 		.4byte	.LVL513
 18064 0624 49020000 		.4byte	.LVL524-1
 18065 0628 0500     		.2byte	0x5
 18066 062a 03       		.byte	0x3
 18067 062b 2C010000 		.4byte	mcconf_old+300
 18068 062f A0020000 		.4byte	.LVL537
 18069 0633 CB020000 		.4byte	.LVL541-1
 18070 0637 0500     		.2byte	0x5
 18071 0639 03       		.byte	0x3
 18072 063a 2C010000 		.4byte	mcconf_old+300
 18073 063e 00000000 		.4byte	0
 18074 0642 00000000 		.4byte	0
 18075              	.LLST135:
 18076 0646 E2010000 		.4byte	.LVL513
 18077 064a 49020000 		.4byte	.LVL524-1
 18078 064e 0500     		.2byte	0x5
 18079 0650 03       		.byte	0x3
 18080 0651 30010000 		.4byte	mcconf_old+304
 18081 0655 A0020000 		.4byte	.LVL537
 18082 0659 CB020000 		.4byte	.LVL541-1
 18083 065d 0500     		.2byte	0x5
 18084 065f 03       		.byte	0x3
 18085 0660 30010000 		.4byte	mcconf_old+304
 18086 0664 00000000 		.4byte	0
 18087 0668 00000000 		.4byte	0
 18088              	.LLST136:
 18089 066c 74000000 		.4byte	.LVL473
 18090 0670 76000000 		.4byte	.LVL474
 18091 0674 0200     		.2byte	0x2
 18092 0676 30       		.byte	0x30
 18093 0677 9F       		.byte	0x9f
 18094 0678 76000000 		.4byte	.LVL474
 18095 067c 7C000000 		.4byte	.LVL475
 18096 0680 0700     		.2byte	0x7
 18097 0682 0A       		.byte	0xa
 18098 0683 F401     		.2byte	0x1f4
 18099 0685 74       		.byte	0x74
 18100 0686 00       		.sleb128 0
 18101 0687 1C       		.byte	0x1c
 18102 0688 9F       		.byte	0x9f
 18103 0689 7C000000 		.4byte	.LVL475
 18104 068d 7E000000 		.4byte	.LVL476
 18105 0691 0700     		.2byte	0x7
 18106 0693 0A       		.byte	0xa
 18107 0694 F501     		.2byte	0x1f5
 18108 0696 74       		.byte	0x74
 18109 0697 00       		.sleb128 0
 18110 0698 1C       		.byte	0x1c
 18111 0699 9F       		.byte	0x9f
 18112 069a 7E000000 		.4byte	.LVL476
 18113 069e 88000000 		.4byte	.LVL479
 18114 06a2 0700     		.2byte	0x7
ARM GAS  /tmp/ccTUBOn1.s 			page 319


 18115 06a4 0A       		.byte	0xa
 18116 06a5 F401     		.2byte	0x1f4
 18117 06a7 74       		.byte	0x74
 18118 06a8 00       		.sleb128 0
 18119 06a9 1C       		.byte	0x1c
 18120 06aa 9F       		.byte	0x9f
 18121 06ab 00000000 		.4byte	0
 18122 06af 00000000 		.4byte	0
 18123              	.LLST137:
 18124 06b3 E6000000 		.4byte	.LVL490
 18125 06b7 18010000 		.4byte	.LVL492
 18126 06bb 0200     		.2byte	0x2
 18127 06bd 90       		.byte	0x90
 18128 06be 50       		.uleb128 0x50
 18129 06bf 18010000 		.4byte	.LVL492
 18130 06c3 2A010000 		.4byte	.LVL493
 18131 06c7 0200     		.2byte	0x2
 18132 06c9 90       		.byte	0x90
 18133 06ca 4F       		.uleb128 0x4f
 18134 06cb 2A010000 		.4byte	.LVL493
 18135 06cf 62010000 		.4byte	.LVL501
 18136 06d3 0200     		.2byte	0x2
 18137 06d5 90       		.byte	0x90
 18138 06d6 50       		.uleb128 0x50
 18139 06d7 66010000 		.4byte	.LVL502
 18140 06db 6A010000 		.4byte	.LVL503
 18141 06df 0200     		.2byte	0x2
 18142 06e1 90       		.byte	0x90
 18143 06e2 50       		.uleb128 0x50
 18144 06e3 00000000 		.4byte	0
 18145 06e7 00000000 		.4byte	0
 18146              	.LLST138:
 18147 06eb FE000000 		.4byte	.LVL491
 18148 06ef 2A010000 		.4byte	.LVL493
 18149 06f3 0200     		.2byte	0x2
 18150 06f5 90       		.byte	0x90
 18151 06f6 51       		.uleb128 0x51
 18152 06f7 38010000 		.4byte	.LVL495
 18153 06fb 3B010000 		.4byte	.LVL496-1
 18154 06ff 0200     		.2byte	0x2
 18155 0701 90       		.byte	0x90
 18156 0702 40       		.uleb128 0x40
 18157 0703 3B010000 		.4byte	.LVL496-1
 18158 0707 66010000 		.4byte	.LVL502
 18159 070b 0200     		.2byte	0x2
 18160 070d 90       		.byte	0x90
 18161 070e 51       		.uleb128 0x51
 18162 070f 00000000 		.4byte	0
 18163 0713 00000000 		.4byte	0
 18164              	.LLST139:
 18165 0717 3A020000 		.4byte	.LVL520
 18166 071b A0020000 		.4byte	.LVL537
 18167 071f 0600     		.2byte	0x6
 18168 0721 9E       		.byte	0x9e
 18169 0722 04       		.uleb128 0x4
 18170 0723 00007A44 		.4byte	0x447a0000
 18171 0727 00000000 		.4byte	0
ARM GAS  /tmp/ccTUBOn1.s 			page 320


 18172 072b 00000000 		.4byte	0
 18173              	.LLST140:
 18174 072f 3A020000 		.4byte	.LVL520
 18175 0733 A0020000 		.4byte	.LVL537
 18176 0737 0600     		.2byte	0x6
 18177 0739 9E       		.byte	0x9e
 18178 073a 04       		.uleb128 0x4
 18179 073b FFFF7944 		.4byte	0x4479ffff
 18180 073f 00000000 		.4byte	0
 18181 0743 00000000 		.4byte	0
 18182              	.LLST141:
 18183 0747 3A020000 		.4byte	.LVL520
 18184 074b 49020000 		.4byte	.LVL524-1
 18185 074f 0200     		.2byte	0x2
 18186 0751 90       		.byte	0x90
 18187 0752 4B       		.uleb128 0x4b
 18188 0753 49020000 		.4byte	.LVL524-1
 18189 0757 A0020000 		.4byte	.LVL537
 18190 075b 0C00     		.2byte	0xc
 18191 075d F5       		.byte	0xf5
 18192 075e 53       		.uleb128 0x53
 18193 075f 25       		.uleb128 0x25
 18194 0760 F4       		.byte	0xf4
 18195 0761 25       		.uleb128 0x25
 18196 0762 04       		.byte	0x4
 18197 0763 FFFF7944 		.4byte	0x4479ffff
 18198 0767 1E       		.byte	0x1e
 18199 0768 9F       		.byte	0x9f
 18200 0769 00000000 		.4byte	0
 18201 076d 00000000 		.4byte	0
 18202              	.LLST142:
 18203 0771 3A020000 		.4byte	.LVL520
 18204 0775 49020000 		.4byte	.LVL524-1
 18205 0779 1100     		.2byte	0x11
 18206 077b 03       		.byte	0x3
 18207 077c E0000000 		.4byte	mcconf_old+224
 18208 0780 F6       		.byte	0xf6
 18209 0781 04       		.byte	0x4
 18210 0782 25       		.uleb128 0x25
 18211 0783 F4       		.byte	0xf4
 18212 0784 25       		.uleb128 0x25
 18213 0785 04       		.byte	0x4
 18214 0786 FFFF7944 		.4byte	0x4479ffff
 18215 078a 1E       		.byte	0x1e
 18216 078b 9F       		.byte	0x9f
 18217 078c 00000000 		.4byte	0
 18218 0790 00000000 		.4byte	0
 18219              	.LLST143:
 18220 0794 3A020000 		.4byte	.LVL520
 18221 0798 49020000 		.4byte	.LVL524-1
 18222 079c 1000     		.2byte	0x10
 18223 079e F4       		.byte	0xf4
 18224 079f 25       		.uleb128 0x25
 18225 07a0 04       		.byte	0x4
 18226 07a1 6F12833A 		.4byte	0x3a83126f
 18227 07a5 F5       		.byte	0xf5
 18228 07a6 4F       		.uleb128 0x4f
ARM GAS  /tmp/ccTUBOn1.s 			page 321


 18229 07a7 25       		.uleb128 0x25
 18230 07a8 F5       		.byte	0xf5
 18231 07a9 4F       		.uleb128 0x4f
 18232 07aa 25       		.uleb128 0x25
 18233 07ab 1E       		.byte	0x1e
 18234 07ac 1B       		.byte	0x1b
 18235 07ad 9F       		.byte	0x9f
 18236 07ae 00000000 		.4byte	0
 18237 07b2 00000000 		.4byte	0
 18238              	.LLST144:
 18239 07b6 62020000 		.4byte	.LVL528
 18240 07ba 64020000 		.4byte	.LVL529
 18241 07be 0200     		.2byte	0x2
 18242 07c0 30       		.byte	0x30
 18243 07c1 9F       		.byte	0x9f
 18244 07c2 64020000 		.4byte	.LVL529
 18245 07c6 68020000 		.4byte	.LVL530
 18246 07ca 0700     		.2byte	0x7
 18247 07cc 0A       		.byte	0xa
 18248 07cd E803     		.2byte	0x3e8
 18249 07cf 74       		.byte	0x74
 18250 07d0 00       		.sleb128 0
 18251 07d1 1C       		.byte	0x1c
 18252 07d2 9F       		.byte	0x9f
 18253 07d3 68020000 		.4byte	.LVL530
 18254 07d7 6A020000 		.4byte	.LVL531
 18255 07db 0700     		.2byte	0x7
 18256 07dd 0A       		.byte	0xa
 18257 07de E903     		.2byte	0x3e9
 18258 07e0 74       		.byte	0x74
 18259 07e1 00       		.sleb128 0
 18260 07e2 1C       		.byte	0x1c
 18261 07e3 9F       		.byte	0x9f
 18262 07e4 6A020000 		.4byte	.LVL531
 18263 07e8 82020000 		.4byte	.LVL534
 18264 07ec 0700     		.2byte	0x7
 18265 07ee 0A       		.byte	0xa
 18266 07ef E803     		.2byte	0x3e8
 18267 07f1 74       		.byte	0x74
 18268 07f2 00       		.sleb128 0
 18269 07f3 1C       		.byte	0x1c
 18270 07f4 9F       		.byte	0x9f
 18271 07f5 00000000 		.4byte	0
 18272 07f9 00000000 		.4byte	0
 18273              	.LLST103:
 18274 07fd 00000000 		.4byte	.LVL401
 18275 0801 15000000 		.4byte	.LVL402-1
 18276 0805 0200     		.2byte	0x2
 18277 0807 90       		.byte	0x90
 18278 0808 40       		.uleb128 0x40
 18279 0809 15000000 		.4byte	.LVL402-1
 18280 080d 04020000 		.4byte	.LVL458
 18281 0811 0200     		.2byte	0x2
 18282 0813 90       		.byte	0x90
 18283 0814 50       		.uleb128 0x50
 18284 0815 04020000 		.4byte	.LVL458
 18285 0819 08020000 		.4byte	.LVL459
ARM GAS  /tmp/ccTUBOn1.s 			page 322


 18286 081d 0600     		.2byte	0x6
 18287 081f F3       		.byte	0xf3
 18288 0820 03       		.uleb128 0x3
 18289 0821 F5       		.byte	0xf5
 18290 0822 40       		.uleb128 0x40
 18291 0823 25       		.uleb128 0x25
 18292 0824 9F       		.byte	0x9f
 18293 0825 08020000 		.4byte	.LVL459
 18294 0829 4C020000 		.4byte	.LFE271
 18295 082d 0200     		.2byte	0x2
 18296 082f 90       		.byte	0x90
 18297 0830 50       		.uleb128 0x50
 18298 0831 00000000 		.4byte	0
 18299 0835 00000000 		.4byte	0
 18300              	.LLST104:
 18301 0839 00000000 		.4byte	.LVL401
 18302 083d 15000000 		.4byte	.LVL402-1
 18303 0841 0100     		.2byte	0x1
 18304 0843 50       		.byte	0x50
 18305 0844 15000000 		.4byte	.LVL402-1
 18306 0848 4C020000 		.4byte	.LFE271
 18307 084c 0400     		.2byte	0x4
 18308 084e F3       		.byte	0xf3
 18309 084f 01       		.uleb128 0x1
 18310 0850 50       		.byte	0x50
 18311 0851 9F       		.byte	0x9f
 18312 0852 00000000 		.4byte	0
 18313 0856 00000000 		.4byte	0
 18314              	.LLST105:
 18315 085a 00000000 		.4byte	.LVL401
 18316 085e 15000000 		.4byte	.LVL402-1
 18317 0862 0100     		.2byte	0x1
 18318 0864 51       		.byte	0x51
 18319 0865 15000000 		.4byte	.LVL402-1
 18320 0869 4C020000 		.4byte	.LFE271
 18321 086d 0400     		.2byte	0x4
 18322 086f F3       		.byte	0xf3
 18323 0870 01       		.uleb128 0x1
 18324 0871 51       		.byte	0x51
 18325 0872 9F       		.byte	0x9f
 18326 0873 00000000 		.4byte	0
 18327 0877 00000000 		.4byte	0
 18328              	.LLST106:
 18329 087b 00000000 		.4byte	.LVL401
 18330 087f AC010000 		.4byte	.LVL446
 18331 0883 0300     		.2byte	0x3
 18332 0885 09       		.byte	0x9
 18333 0886 FF       		.byte	0xff
 18334 0887 9F       		.byte	0x9f
 18335 0888 AC010000 		.4byte	.LVL446
 18336 088c B2010000 		.4byte	.LVL447
 18337 0890 0200     		.2byte	0x2
 18338 0892 32       		.byte	0x32
 18339 0893 9F       		.byte	0x9f
 18340 0894 B2010000 		.4byte	.LVL447
 18341 0898 D8010000 		.4byte	.LVL452
 18342 089c 0300     		.2byte	0x3
ARM GAS  /tmp/ccTUBOn1.s 			page 323


 18343 089e 09       		.byte	0x9
 18344 089f FF       		.byte	0xff
 18345 08a0 9F       		.byte	0x9f
 18346 08a1 D8010000 		.4byte	.LVL452
 18347 08a5 FC010000 		.4byte	.LVL457
 18348 08a9 0100     		.2byte	0x1
 18349 08ab 54       		.byte	0x54
 18350 08ac 08020000 		.4byte	.LVL459
 18351 08b0 10020000 		.4byte	.LVL461
 18352 08b4 0300     		.2byte	0x3
 18353 08b6 09       		.byte	0x9
 18354 08b7 FF       		.byte	0xff
 18355 08b8 9F       		.byte	0x9f
 18356 08b9 10020000 		.4byte	.LVL461
 18357 08bd 12020000 		.4byte	.LVL462
 18358 08c1 0200     		.2byte	0x2
 18359 08c3 30       		.byte	0x30
 18360 08c4 9F       		.byte	0x9f
 18361 08c5 12020000 		.4byte	.LVL462
 18362 08c9 20020000 		.4byte	.LVL465
 18363 08cd 0300     		.2byte	0x3
 18364 08cf 09       		.byte	0x9
 18365 08d0 FF       		.byte	0xff
 18366 08d1 9F       		.byte	0x9f
 18367 08d2 20020000 		.4byte	.LVL465
 18368 08d6 28020000 		.4byte	.LVL467
 18369 08da 0100     		.2byte	0x1
 18370 08dc 54       		.byte	0x54
 18371 08dd 28020000 		.4byte	.LVL467
 18372 08e1 4C020000 		.4byte	.LFE271
 18373 08e5 0300     		.2byte	0x3
 18374 08e7 09       		.byte	0x9
 18375 08e8 FF       		.byte	0xff
 18376 08e9 9F       		.byte	0x9f
 18377 08ea 00000000 		.4byte	0
 18378 08ee 00000000 		.4byte	0
 18379              	.LLST107:
 18380 08f2 84000000 		.4byte	.LVL415
 18381 08f6 87000000 		.4byte	.LVL416-1
 18382 08fa 0100     		.2byte	0x1
 18383 08fc 50       		.byte	0x50
 18384 08fd 87000000 		.4byte	.LVL416-1
 18385 0901 FC010000 		.4byte	.LVL457
 18386 0905 0100     		.2byte	0x1
 18387 0907 57       		.byte	0x57
 18388 0908 08020000 		.4byte	.LVL459
 18389 090c 28020000 		.4byte	.LVL467
 18390 0910 0100     		.2byte	0x1
 18391 0912 57       		.byte	0x57
 18392 0913 00000000 		.4byte	0
 18393 0917 00000000 		.4byte	0
 18394              	.LLST108:
 18395 091b 8C000000 		.4byte	.LVL417
 18396 091f 8F000000 		.4byte	.LVL418-1
 18397 0923 0200     		.2byte	0x2
 18398 0925 90       		.byte	0x90
 18399 0926 40       		.uleb128 0x40
ARM GAS  /tmp/ccTUBOn1.s 			page 324


 18400 0927 8F000000 		.4byte	.LVL418-1
 18401 092b FC010000 		.4byte	.LVL457
 18402 092f 0200     		.2byte	0x2
 18403 0931 90       		.byte	0x90
 18404 0932 54       		.uleb128 0x54
 18405 0933 08020000 		.4byte	.LVL459
 18406 0937 28020000 		.4byte	.LVL467
 18407 093b 0200     		.2byte	0x2
 18408 093d 90       		.byte	0x90
 18409 093e 54       		.uleb128 0x54
 18410 093f 00000000 		.4byte	0
 18411 0943 00000000 		.4byte	0
 18412              	.LLST109:
 18413 0947 B6000000 		.4byte	.LVL423
 18414 094b 06010000 		.4byte	.LVL431
 18415 094f 0100     		.2byte	0x1
 18416 0951 54       		.byte	0x54
 18417 0952 AC010000 		.4byte	.LVL446
 18418 0956 B2010000 		.4byte	.LVL447
 18419 095a 0200     		.2byte	0x2
 18420 095c 31       		.byte	0x31
 18421 095d 9F       		.byte	0x9f
 18422 095e B2010000 		.4byte	.LVL447
 18423 0962 D8010000 		.4byte	.LVL452
 18424 0966 0100     		.2byte	0x1
 18425 0968 54       		.byte	0x54
 18426 0969 D8010000 		.4byte	.LVL452
 18427 096d FC010000 		.4byte	.LVL457
 18428 0971 0200     		.2byte	0x2
 18429 0973 31       		.byte	0x31
 18430 0974 9F       		.byte	0x9f
 18431 0975 10020000 		.4byte	.LVL461
 18432 0979 12020000 		.4byte	.LVL462
 18433 097d 0200     		.2byte	0x2
 18434 097f 31       		.byte	0x31
 18435 0980 9F       		.byte	0x9f
 18436 0981 20020000 		.4byte	.LVL465
 18437 0985 28020000 		.4byte	.LVL467
 18438 0989 0200     		.2byte	0x2
 18439 098b 31       		.byte	0x31
 18440 098c 9F       		.byte	0x9f
 18441 098d 00000000 		.4byte	0
 18442 0991 00000000 		.4byte	0
 18443              	.LLST110:
 18444 0995 56000000 		.4byte	.LVL405
 18445 0999 58000000 		.4byte	.LVL406
 18446 099d 0200     		.2byte	0x2
 18447 099f 30       		.byte	0x30
 18448 09a0 9F       		.byte	0x9f
 18449 09a1 58000000 		.4byte	.LVL406
 18450 09a5 5E000000 		.4byte	.LVL407
 18451 09a9 0700     		.2byte	0x7
 18452 09ab 0A       		.byte	0xa
 18453 09ac F401     		.2byte	0x1f4
 18454 09ae 74       		.byte	0x74
 18455 09af 00       		.sleb128 0
 18456 09b0 1C       		.byte	0x1c
ARM GAS  /tmp/ccTUBOn1.s 			page 325


 18457 09b1 9F       		.byte	0x9f
 18458 09b2 5E000000 		.4byte	.LVL407
 18459 09b6 60000000 		.4byte	.LVL408
 18460 09ba 0700     		.2byte	0x7
 18461 09bc 0A       		.byte	0xa
 18462 09bd F501     		.2byte	0x1f5
 18463 09bf 74       		.byte	0x74
 18464 09c0 00       		.sleb128 0
 18465 09c1 1C       		.byte	0x1c
 18466 09c2 9F       		.byte	0x9f
 18467 09c3 60000000 		.4byte	.LVL408
 18468 09c7 6A000000 		.4byte	.LVL411
 18469 09cb 0700     		.2byte	0x7
 18470 09cd 0A       		.byte	0xa
 18471 09ce F401     		.2byte	0x1f4
 18472 09d0 74       		.byte	0x74
 18473 09d1 00       		.sleb128 0
 18474 09d2 1C       		.byte	0x1c
 18475 09d3 9F       		.byte	0x9f
 18476 09d4 00000000 		.4byte	0
 18477 09d8 00000000 		.4byte	0
 18478              	.LLST117:
 18479 09dc BA010000 		.4byte	.LVL448
 18480 09e0 CA010000 		.4byte	.LVL449
 18481 09e4 0200     		.2byte	0x2
 18482 09e6 30       		.byte	0x30
 18483 09e7 9F       		.byte	0x9f
 18484 09e8 CA010000 		.4byte	.LVL449
 18485 09ec CE010000 		.4byte	.LVL450
 18486 09f0 0800     		.2byte	0x8
 18487 09f2 73       		.byte	0x73
 18488 09f3 00       		.sleb128 0
 18489 09f4 91       		.byte	0x91
 18490 09f5 00       		.sleb128 0
 18491 09f6 1C       		.byte	0x1c
 18492 09f7 23       		.byte	0x23
 18493 09f8 41       		.uleb128 0x41
 18494 09f9 9F       		.byte	0x9f
 18495 09fa CE010000 		.4byte	.LVL450
 18496 09fe D2010000 		.4byte	.LVL451
 18497 0a02 0800     		.2byte	0x8
 18498 0a04 73       		.byte	0x73
 18499 0a05 00       		.sleb128 0
 18500 0a06 91       		.byte	0x91
 18501 0a07 00       		.sleb128 0
 18502 0a08 1C       		.byte	0x1c
 18503 0a09 23       		.byte	0x23
 18504 0a0a 40       		.uleb128 0x40
 18505 0a0b 9F       		.byte	0x9f
 18506 0a0c D2010000 		.4byte	.LVL451
 18507 0a10 D8010000 		.4byte	.LVL452
 18508 0a14 0800     		.2byte	0x8
 18509 0a16 73       		.byte	0x73
 18510 0a17 00       		.sleb128 0
 18511 0a18 91       		.byte	0x91
 18512 0a19 00       		.sleb128 0
 18513 0a1a 1C       		.byte	0x1c
ARM GAS  /tmp/ccTUBOn1.s 			page 326


 18514 0a1b 23       		.byte	0x23
 18515 0a1c 41       		.uleb128 0x41
 18516 0a1d 9F       		.byte	0x9f
 18517 0a1e 00000000 		.4byte	0
 18518 0a22 00000000 		.4byte	0
 18519              	.LLST111:
 18520 0a26 06010000 		.4byte	.LVL431
 18521 0a2a B2010000 		.4byte	.LVL447
 18522 0a2e 0200     		.2byte	0x2
 18523 0a30 90       		.byte	0x90
 18524 0a31 55       		.uleb128 0x55
 18525 0a32 08020000 		.4byte	.LVL459
 18526 0a36 20020000 		.4byte	.LVL465
 18527 0a3a 0200     		.2byte	0x2
 18528 0a3c 90       		.byte	0x90
 18529 0a3d 55       		.uleb128 0x55
 18530 0a3e 00000000 		.4byte	0
 18531 0a42 00000000 		.4byte	0
 18532              	.LLST112:
 18533 0a46 1E020000 		.4byte	.LVL464
 18534 0a4a 20020000 		.4byte	.LVL465
 18535 0a4e 0200     		.2byte	0x2
 18536 0a50 90       		.byte	0x90
 18537 0a51 40       		.uleb128 0x40
 18538 0a52 00000000 		.4byte	0
 18539 0a56 00000000 		.4byte	0
 18540              	.LLST113:
 18541 0a5a 06010000 		.4byte	.LVL431
 18542 0a5e 34010000 		.4byte	.LVL436
 18543 0a62 0600     		.2byte	0x6
 18544 0a64 9E       		.byte	0x9e
 18545 0a65 04       		.uleb128 0x4
 18546 0a66 00000000 		.4byte	0
 18547 0a6a 34010000 		.4byte	.LVL436
 18548 0a6e 3C010000 		.4byte	.LVL437
 18549 0a72 0200     		.2byte	0x2
 18550 0a74 90       		.byte	0x90
 18551 0a75 40       		.uleb128 0x40
 18552 0a76 3C010000 		.4byte	.LVL437
 18553 0a7a 3F010000 		.4byte	.LVL438-1
 18554 0a7e 0200     		.2byte	0x2
 18555 0a80 90       		.byte	0x90
 18556 0a81 41       		.uleb128 0x41
 18557 0a82 3F010000 		.4byte	.LVL438-1
 18558 0a86 48010000 		.4byte	.LVL439
 18559 0a8a 0200     		.2byte	0x2
 18560 0a8c 90       		.byte	0x90
 18561 0a8d 51       		.uleb128 0x51
 18562 0a8e 48010000 		.4byte	.LVL439
 18563 0a92 4F010000 		.4byte	.LVL440-1
 18564 0a96 0200     		.2byte	0x2
 18565 0a98 90       		.byte	0x90
 18566 0a99 41       		.uleb128 0x41
 18567 0a9a 12020000 		.4byte	.LVL462
 18568 0a9e 20020000 		.4byte	.LVL465
 18569 0aa2 0600     		.2byte	0x6
 18570 0aa4 9E       		.byte	0x9e
ARM GAS  /tmp/ccTUBOn1.s 			page 327


 18571 0aa5 04       		.uleb128 0x4
 18572 0aa6 00000000 		.4byte	0
 18573 0aaa 00000000 		.4byte	0
 18574 0aae 00000000 		.4byte	0
 18575              	.LLST114:
 18576 0ab2 48010000 		.4byte	.LVL439
 18577 0ab6 72010000 		.4byte	.LVL443
 18578 0aba 0200     		.2byte	0x2
 18579 0abc 90       		.byte	0x90
 18580 0abd 51       		.uleb128 0x51
 18581 0abe 00000000 		.4byte	0
 18582 0ac2 00000000 		.4byte	0
 18583              	.LLST115:
 18584 0ac6 50010000 		.4byte	.LVL440
 18585 0aca 66010000 		.4byte	.LVL441
 18586 0ace 0500     		.2byte	0x5
 18587 0ad0 F5       		.byte	0xf5
 18588 0ad1 40       		.uleb128 0x40
 18589 0ad2 25       		.uleb128 0x25
 18590 0ad3 19       		.byte	0x19
 18591 0ad4 9F       		.byte	0x9f
 18592 0ad5 66010000 		.4byte	.LVL441
 18593 0ad9 6A010000 		.4byte	.LVL442
 18594 0add 0200     		.2byte	0x2
 18595 0adf 90       		.byte	0x90
 18596 0ae0 40       		.uleb128 0x40
 18597 0ae1 00000000 		.4byte	0
 18598 0ae5 00000000 		.4byte	0
 18599              	.LLST116:
 18600 0ae9 06010000 		.4byte	.LVL431
 18601 0aed 10010000 		.4byte	.LVL433
 18602 0af1 0100     		.2byte	0x1
 18603 0af3 54       		.byte	0x54
 18604 0af4 10010000 		.4byte	.LVL433
 18605 0af8 16010000 		.4byte	.LVL434
 18606 0afc 0300     		.2byte	0x3
 18607 0afe 74       		.byte	0x74
 18608 0aff 7F       		.sleb128 -1
 18609 0b00 9F       		.byte	0x9f
 18610 0b01 16010000 		.4byte	.LVL434
 18611 0b05 9E010000 		.4byte	.LVL445
 18612 0b09 0300     		.2byte	0x3
 18613 0b0b 74       		.byte	0x74
 18614 0b0c 01       		.sleb128 1
 18615 0b0d 9F       		.byte	0x9f
 18616 0b0e 08020000 		.4byte	.LVL459
 18617 0b12 0C020000 		.4byte	.LVL460
 18618 0b16 0300     		.2byte	0x3
 18619 0b18 74       		.byte	0x74
 18620 0b19 01       		.sleb128 1
 18621 0b1a 9F       		.byte	0x9f
 18622 0b1b 12020000 		.4byte	.LVL462
 18623 0b1f 20020000 		.4byte	.LVL465
 18624 0b23 0300     		.2byte	0x3
 18625 0b25 74       		.byte	0x74
 18626 0b26 01       		.sleb128 1
 18627 0b27 9F       		.byte	0x9f
ARM GAS  /tmp/ccTUBOn1.s 			page 328


 18628 0b28 00000000 		.4byte	0
 18629 0b2c 00000000 		.4byte	0
 18630              	.LLST80:
 18631 0b30 00000000 		.4byte	.LVL319
 18632 0b34 1D000000 		.4byte	.LVL320-1
 18633 0b38 0200     		.2byte	0x2
 18634 0b3a 90       		.byte	0x90
 18635 0b3b 40       		.uleb128 0x40
 18636 0b3c 1D000000 		.4byte	.LVL320-1
 18637 0b40 8C010000 		.4byte	.LVL358
 18638 0b44 0200     		.2byte	0x2
 18639 0b46 90       		.byte	0x90
 18640 0b47 54       		.uleb128 0x54
 18641 0b48 8C010000 		.4byte	.LVL358
 18642 0b4c 94010000 		.4byte	.LVL359
 18643 0b50 0600     		.2byte	0x6
 18644 0b52 F3       		.byte	0xf3
 18645 0b53 03       		.uleb128 0x3
 18646 0b54 F5       		.byte	0xf5
 18647 0b55 40       		.uleb128 0x40
 18648 0b56 25       		.uleb128 0x25
 18649 0b57 9F       		.byte	0x9f
 18650 0b58 94010000 		.4byte	.LVL359
 18651 0b5c A4010000 		.4byte	.LVL362
 18652 0b60 0200     		.2byte	0x2
 18653 0b62 90       		.byte	0x90
 18654 0b63 54       		.uleb128 0x54
 18655 0b64 A4010000 		.4byte	.LVL362
 18656 0b68 5A020000 		.4byte	.LVL390
 18657 0b6c 0600     		.2byte	0x6
 18658 0b6e F3       		.byte	0xf3
 18659 0b6f 03       		.uleb128 0x3
 18660 0b70 F5       		.byte	0xf5
 18661 0b71 40       		.uleb128 0x40
 18662 0b72 25       		.uleb128 0x25
 18663 0b73 9F       		.byte	0x9f
 18664 0b74 5A020000 		.4byte	.LVL390
 18665 0b78 8C020000 		.4byte	.LVL397
 18666 0b7c 0200     		.2byte	0x2
 18667 0b7e 90       		.byte	0x90
 18668 0b7f 54       		.uleb128 0x54
 18669 0b80 8C020000 		.4byte	.LVL397
 18670 0b84 C4020000 		.4byte	.LFE270
 18671 0b88 0600     		.2byte	0x6
 18672 0b8a F3       		.byte	0xf3
 18673 0b8b 03       		.uleb128 0x3
 18674 0b8c F5       		.byte	0xf5
 18675 0b8d 40       		.uleb128 0x40
 18676 0b8e 25       		.uleb128 0x25
 18677 0b8f 9F       		.byte	0x9f
 18678 0b90 00000000 		.4byte	0
 18679 0b94 00000000 		.4byte	0
 18680              	.LLST81:
 18681 0b98 00000000 		.4byte	.LVL319
 18682 0b9c 1D000000 		.4byte	.LVL320-1
 18683 0ba0 0200     		.2byte	0x2
 18684 0ba2 90       		.byte	0x90
ARM GAS  /tmp/ccTUBOn1.s 			page 329


 18685 0ba3 41       		.uleb128 0x41
 18686 0ba4 1D000000 		.4byte	.LVL320-1
 18687 0ba8 A8010000 		.4byte	.LVL363
 18688 0bac 0200     		.2byte	0x2
 18689 0bae 90       		.byte	0x90
 18690 0baf 53       		.uleb128 0x53
 18691 0bb0 A8010000 		.4byte	.LVL363
 18692 0bb4 5A020000 		.4byte	.LVL390
 18693 0bb8 0600     		.2byte	0x6
 18694 0bba F3       		.byte	0xf3
 18695 0bbb 03       		.uleb128 0x3
 18696 0bbc F5       		.byte	0xf5
 18697 0bbd 41       		.uleb128 0x41
 18698 0bbe 25       		.uleb128 0x25
 18699 0bbf 9F       		.byte	0x9f
 18700 0bc0 5A020000 		.4byte	.LVL390
 18701 0bc4 8C020000 		.4byte	.LVL397
 18702 0bc8 0200     		.2byte	0x2
 18703 0bca 90       		.byte	0x90
 18704 0bcb 53       		.uleb128 0x53
 18705 0bcc 8C020000 		.4byte	.LVL397
 18706 0bd0 C4020000 		.4byte	.LFE270
 18707 0bd4 0600     		.2byte	0x6
 18708 0bd6 F3       		.byte	0xf3
 18709 0bd7 03       		.uleb128 0x3
 18710 0bd8 F5       		.byte	0xf5
 18711 0bd9 41       		.uleb128 0x41
 18712 0bda 25       		.uleb128 0x25
 18713 0bdb 9F       		.byte	0x9f
 18714 0bdc 00000000 		.4byte	0
 18715 0be0 00000000 		.4byte	0
 18716              	.LLST82:
 18717 0be4 00000000 		.4byte	.LVL319
 18718 0be8 1D000000 		.4byte	.LVL320-1
 18719 0bec 0200     		.2byte	0x2
 18720 0bee 90       		.byte	0x90
 18721 0bef 42       		.uleb128 0x42
 18722 0bf0 1D000000 		.4byte	.LVL320-1
 18723 0bf4 B8010000 		.4byte	.LVL365
 18724 0bf8 0200     		.2byte	0x2
 18725 0bfa 90       		.byte	0x90
 18726 0bfb 55       		.uleb128 0x55
 18727 0bfc B8010000 		.4byte	.LVL365
 18728 0c00 5A020000 		.4byte	.LVL390
 18729 0c04 0600     		.2byte	0x6
 18730 0c06 F3       		.byte	0xf3
 18731 0c07 03       		.uleb128 0x3
 18732 0c08 F5       		.byte	0xf5
 18733 0c09 42       		.uleb128 0x42
 18734 0c0a 25       		.uleb128 0x25
 18735 0c0b 9F       		.byte	0x9f
 18736 0c0c 5A020000 		.4byte	.LVL390
 18737 0c10 8C020000 		.4byte	.LVL397
 18738 0c14 0200     		.2byte	0x2
 18739 0c16 90       		.byte	0x90
 18740 0c17 55       		.uleb128 0x55
 18741 0c18 8C020000 		.4byte	.LVL397
ARM GAS  /tmp/ccTUBOn1.s 			page 330


 18742 0c1c C4020000 		.4byte	.LFE270
 18743 0c20 0600     		.2byte	0x6
 18744 0c22 F3       		.byte	0xf3
 18745 0c23 03       		.uleb128 0x3
 18746 0c24 F5       		.byte	0xf5
 18747 0c25 42       		.uleb128 0x42
 18748 0c26 25       		.uleb128 0x25
 18749 0c27 9F       		.byte	0x9f
 18750 0c28 00000000 		.4byte	0
 18751 0c2c 00000000 		.4byte	0
 18752              	.LLST83:
 18753 0c30 00000000 		.4byte	.LVL319
 18754 0c34 1D000000 		.4byte	.LVL320-1
 18755 0c38 0200     		.2byte	0x2
 18756 0c3a 90       		.byte	0x90
 18757 0c3b 43       		.uleb128 0x43
 18758 0c3c 1D000000 		.4byte	.LVL320-1
 18759 0c40 C4020000 		.4byte	.LFE270
 18760 0c44 0200     		.2byte	0x2
 18761 0c46 90       		.byte	0x90
 18762 0c47 57       		.uleb128 0x57
 18763 0c48 00000000 		.4byte	0
 18764 0c4c 00000000 		.4byte	0
 18765              	.LLST84:
 18766 0c50 00000000 		.4byte	.LVL319
 18767 0c54 1D000000 		.4byte	.LVL320-1
 18768 0c58 0100     		.2byte	0x1
 18769 0c5a 50       		.byte	0x50
 18770 0c5b 1D000000 		.4byte	.LVL320-1
 18771 0c5f C4020000 		.4byte	.LFE270
 18772 0c63 0100     		.2byte	0x1
 18773 0c65 57       		.byte	0x57
 18774 0c66 00000000 		.4byte	0
 18775 0c6a 00000000 		.4byte	0
 18776              	.LLST85:
 18777 0c6e 00000000 		.4byte	.LVL319
 18778 0c72 38020000 		.4byte	.LVL384
 18779 0c76 0200     		.2byte	0x2
 18780 0c78 30       		.byte	0x30
 18781 0c79 9F       		.byte	0x9f
 18782 0c7a 38020000 		.4byte	.LVL384
 18783 0c7e 5A020000 		.4byte	.LVL390
 18784 0c82 0100     		.2byte	0x1
 18785 0c84 54       		.byte	0x54
 18786 0c85 5A020000 		.4byte	.LVL390
 18787 0c89 C4020000 		.4byte	.LFE270
 18788 0c8d 0200     		.2byte	0x2
 18789 0c8f 30       		.byte	0x30
 18790 0c90 9F       		.byte	0x9f
 18791 0c91 00000000 		.4byte	0
 18792 0c95 00000000 		.4byte	0
 18793              	.LLST86:
 18794 0c99 86000000 		.4byte	.LVL333
 18795 0c9d 89000000 		.4byte	.LVL334-1
 18796 0ca1 0100     		.2byte	0x1
 18797 0ca3 50       		.byte	0x50
 18798 0ca4 89000000 		.4byte	.LVL334-1
ARM GAS  /tmp/ccTUBOn1.s 			page 331


 18799 0ca8 82010000 		.4byte	.LVL356
 18800 0cac 0100     		.2byte	0x1
 18801 0cae 58       		.byte	0x58
 18802 0caf 94010000 		.4byte	.LVL359
 18803 0cb3 C4020000 		.4byte	.LFE270
 18804 0cb7 0100     		.2byte	0x1
 18805 0cb9 58       		.byte	0x58
 18806 0cba 00000000 		.4byte	0
 18807 0cbe 00000000 		.4byte	0
 18808              	.LLST87:
 18809 0cc2 8E000000 		.4byte	.LVL335
 18810 0cc6 91000000 		.4byte	.LVL336-1
 18811 0cca 0200     		.2byte	0x2
 18812 0ccc 90       		.byte	0x90
 18813 0ccd 40       		.uleb128 0x40
 18814 0cce 91000000 		.4byte	.LVL336-1
 18815 0cd2 82010000 		.4byte	.LVL356
 18816 0cd6 0200     		.2byte	0x2
 18817 0cd8 90       		.byte	0x90
 18818 0cd9 58       		.uleb128 0x58
 18819 0cda 94010000 		.4byte	.LVL359
 18820 0cde 54020000 		.4byte	.LVL389
 18821 0ce2 0200     		.2byte	0x2
 18822 0ce4 90       		.byte	0x90
 18823 0ce5 58       		.uleb128 0x58
 18824 0ce6 5A020000 		.4byte	.LVL390
 18825 0cea C4020000 		.4byte	.LFE270
 18826 0cee 0200     		.2byte	0x2
 18827 0cf0 90       		.byte	0x90
 18828 0cf1 58       		.uleb128 0x58
 18829 0cf2 00000000 		.4byte	0
 18830 0cf6 00000000 		.4byte	0
 18831              	.LLST88:
 18832 0cfa A6000000 		.4byte	.LVL338
 18833 0cfe FA000000 		.4byte	.LVL347
 18834 0d02 0200     		.2byte	0x2
 18835 0d04 30       		.byte	0x30
 18836 0d05 9F       		.byte	0x9f
 18837 0d06 FA000000 		.4byte	.LVL347
 18838 0d0a 0E010000 		.4byte	.LVL349
 18839 0d0e 0100     		.2byte	0x1
 18840 0d10 54       		.byte	0x54
 18841 0d11 0E010000 		.4byte	.LVL349
 18842 0d15 16010000 		.4byte	.LVL350
 18843 0d19 0300     		.2byte	0x3
 18844 0d1b 74       		.byte	0x74
 18845 0d1c 7F       		.sleb128 -1
 18846 0d1d 9F       		.byte	0x9f
 18847 0d1e 16010000 		.4byte	.LVL350
 18848 0d22 82010000 		.4byte	.LVL356
 18849 0d26 0100     		.2byte	0x1
 18850 0d28 54       		.byte	0x54
 18851 0d29 5A020000 		.4byte	.LVL390
 18852 0d2d 7C020000 		.4byte	.LVL394
 18853 0d31 0400     		.2byte	0x4
 18854 0d33 0A       		.byte	0xa
 18855 0d34 983A     		.2byte	0x3a98
ARM GAS  /tmp/ccTUBOn1.s 			page 332


 18856 0d36 9F       		.byte	0x9f
 18857 0d37 7C020000 		.4byte	.LVL394
 18858 0d3b 80020000 		.4byte	.LVL395
 18859 0d3f 0100     		.2byte	0x1
 18860 0d41 54       		.byte	0x54
 18861 0d42 80020000 		.4byte	.LVL395
 18862 0d46 8C020000 		.4byte	.LVL397
 18863 0d4a 0400     		.2byte	0x4
 18864 0d4c 0A       		.byte	0xa
 18865 0d4d 983A     		.2byte	0x3a98
 18866 0d4f 9F       		.byte	0x9f
 18867 0d50 00000000 		.4byte	0
 18868 0d54 00000000 		.4byte	0
 18869              	.LLST89:
 18870 0d58 A6000000 		.4byte	.LVL338
 18871 0d5c FA000000 		.4byte	.LVL347
 18872 0d60 0600     		.2byte	0x6
 18873 0d62 9E       		.byte	0x9e
 18874 0d63 04       		.uleb128 0x4
 18875 0d64 00000000 		.4byte	0
 18876 0d68 00000000 		.4byte	0
 18877 0d6c 00000000 		.4byte	0
 18878              	.LLST90:
 18879 0d70 B2000000 		.4byte	.LVL339
 18880 0d74 BE000000 		.4byte	.LVL340
 18881 0d78 0600     		.2byte	0x6
 18882 0d7a 9E       		.byte	0x9e
 18883 0d7b 04       		.uleb128 0x4
 18884 0d7c 00000000 		.4byte	0
 18885 0d80 BE000000 		.4byte	.LVL340
 18886 0d84 F0000000 		.4byte	.LVL346
 18887 0d88 0200     		.2byte	0x2
 18888 0d8a 90       		.byte	0x90
 18889 0d8b 51       		.uleb128 0x51
 18890 0d8c F0000000 		.4byte	.LVL346
 18891 0d90 82010000 		.4byte	.LVL356
 18892 0d94 0200     		.2byte	0x2
 18893 0d96 90       		.byte	0x90
 18894 0d97 5B       		.uleb128 0x5b
 18895 0d98 94010000 		.4byte	.LVL359
 18896 0d9c C4020000 		.4byte	.LFE270
 18897 0da0 0200     		.2byte	0x2
 18898 0da2 90       		.byte	0x90
 18899 0da3 5B       		.uleb128 0x5b
 18900 0da4 00000000 		.4byte	0
 18901 0da8 00000000 		.4byte	0
 18902              	.LLST91:
 18903 0dac B2000000 		.4byte	.LVL339
 18904 0db0 BE000000 		.4byte	.LVL340
 18905 0db4 0600     		.2byte	0x6
 18906 0db6 9E       		.byte	0x9e
 18907 0db7 04       		.uleb128 0x4
 18908 0db8 00000000 		.4byte	0
 18909 0dbc BE000000 		.4byte	.LVL340
 18910 0dc0 82010000 		.4byte	.LVL356
 18911 0dc4 0200     		.2byte	0x2
 18912 0dc6 90       		.byte	0x90
ARM GAS  /tmp/ccTUBOn1.s 			page 333


 18913 0dc7 50       		.uleb128 0x50
 18914 0dc8 94010000 		.4byte	.LVL359
 18915 0dcc 9C010000 		.4byte	.LVL360
 18916 0dd0 0200     		.2byte	0x2
 18917 0dd2 90       		.byte	0x90
 18918 0dd3 50       		.uleb128 0x50
 18919 0dd4 5A020000 		.4byte	.LVL390
 18920 0dd8 8C020000 		.4byte	.LVL397
 18921 0ddc 0200     		.2byte	0x2
 18922 0dde 90       		.byte	0x90
 18923 0ddf 50       		.uleb128 0x50
 18924 0de0 00000000 		.4byte	0
 18925 0de4 00000000 		.4byte	0
 18926              	.LLST92:
 18927 0de8 F0000000 		.4byte	.LVL346
 18928 0dec FA000000 		.4byte	.LVL347
 18929 0df0 0600     		.2byte	0x6
 18930 0df2 9E       		.byte	0x9e
 18931 0df3 04       		.uleb128 0x4
 18932 0df4 00000000 		.4byte	0
 18933 0df8 FA000000 		.4byte	.LVL347
 18934 0dfc 82010000 		.4byte	.LVL356
 18935 0e00 0200     		.2byte	0x2
 18936 0e02 90       		.byte	0x90
 18937 0e03 52       		.uleb128 0x52
 18938 0e04 94010000 		.4byte	.LVL359
 18939 0e08 AC010000 		.4byte	.LVL364
 18940 0e0c 0200     		.2byte	0x2
 18941 0e0e 90       		.byte	0x90
 18942 0e0f 52       		.uleb128 0x52
 18943 0e10 5A020000 		.4byte	.LVL390
 18944 0e14 8C020000 		.4byte	.LVL397
 18945 0e18 0200     		.2byte	0x2
 18946 0e1a 90       		.byte	0x90
 18947 0e1b 52       		.uleb128 0x52
 18948 0e1c 00000000 		.4byte	0
 18949 0e20 00000000 		.4byte	0
 18950              	.LLST93:
 18951 0e24 F0000000 		.4byte	.LVL346
 18952 0e28 82010000 		.4byte	.LVL356
 18953 0e2c 0400     		.2byte	0x4
 18954 0e2e 0A       		.byte	0xa
 18955 0e2f 983A     		.2byte	0x3a98
 18956 0e31 9F       		.byte	0x9f
 18957 0e32 94010000 		.4byte	.LVL359
 18958 0e36 C4020000 		.4byte	.LFE270
 18959 0e3a 0400     		.2byte	0x4
 18960 0e3c 0A       		.byte	0xa
 18961 0e3d 983A     		.2byte	0x3a98
 18962 0e3f 9F       		.byte	0x9f
 18963 0e40 00000000 		.4byte	0
 18964 0e44 00000000 		.4byte	0
 18965              	.LLST94:
 18966 0e48 5A000000 		.4byte	.LVL323
 18967 0e4c 5C000000 		.4byte	.LVL324
 18968 0e50 0200     		.2byte	0x2
 18969 0e52 30       		.byte	0x30
ARM GAS  /tmp/ccTUBOn1.s 			page 334


 18970 0e53 9F       		.byte	0x9f
 18971 0e54 5C000000 		.4byte	.LVL324
 18972 0e58 62000000 		.4byte	.LVL325
 18973 0e5c 0700     		.2byte	0x7
 18974 0e5e 0A       		.byte	0xa
 18975 0e5f F401     		.2byte	0x1f4
 18976 0e61 74       		.byte	0x74
 18977 0e62 00       		.sleb128 0
 18978 0e63 1C       		.byte	0x1c
 18979 0e64 9F       		.byte	0x9f
 18980 0e65 62000000 		.4byte	.LVL325
 18981 0e69 64000000 		.4byte	.LVL326
 18982 0e6d 0700     		.2byte	0x7
 18983 0e6f 0A       		.byte	0xa
 18984 0e70 F501     		.2byte	0x1f5
 18985 0e72 74       		.byte	0x74
 18986 0e73 00       		.sleb128 0
 18987 0e74 1C       		.byte	0x1c
 18988 0e75 9F       		.byte	0x9f
 18989 0e76 64000000 		.4byte	.LVL326
 18990 0e7a 6E000000 		.4byte	.LVL329
 18991 0e7e 0700     		.2byte	0x7
 18992 0e80 0A       		.byte	0xa
 18993 0e81 F401     		.2byte	0x1f4
 18994 0e83 74       		.byte	0x74
 18995 0e84 00       		.sleb128 0
 18996 0e85 1C       		.byte	0x1c
 18997 0e86 9F       		.byte	0x9f
 18998 0e87 00000000 		.4byte	0
 18999 0e8b 00000000 		.4byte	0
 19000              	.LLST95:
 19001 0e8f B2000000 		.4byte	.LVL339
 19002 0e93 BE000000 		.4byte	.LVL340
 19003 0e97 0200     		.2byte	0x2
 19004 0e99 30       		.byte	0x30
 19005 0e9a 9F       		.byte	0x9f
 19006 0e9b BE000000 		.4byte	.LVL340
 19007 0e9f D2000000 		.4byte	.LVL344
 19008 0ea3 0700     		.2byte	0x7
 19009 0ea5 0A       		.byte	0xa
 19010 0ea6 E803     		.2byte	0x3e8
 19011 0ea8 74       		.byte	0x74
 19012 0ea9 00       		.sleb128 0
 19013 0eaa 1C       		.byte	0x1c
 19014 0eab 9F       		.byte	0x9f
 19015 0eac D2000000 		.4byte	.LVL344
 19016 0eb0 D6000000 		.4byte	.LVL345
 19017 0eb4 0700     		.2byte	0x7
 19018 0eb6 0A       		.byte	0xa
 19019 0eb7 E703     		.2byte	0x3e7
 19020 0eb9 74       		.byte	0x74
 19021 0eba 00       		.sleb128 0
 19022 0ebb 1C       		.byte	0x1c
 19023 0ebc 9F       		.byte	0x9f
 19024 0ebd 00000000 		.4byte	0
 19025 0ec1 00000000 		.4byte	0
 19026              	.LLST96:
ARM GAS  /tmp/ccTUBOn1.s 			page 335


 19027 0ec5 1E010000 		.4byte	.LVL352
 19028 0ec9 62010000 		.4byte	.LVL354
 19029 0ecd 0200     		.2byte	0x2
 19030 0ecf 90       		.byte	0x90
 19031 0ed0 40       		.uleb128 0x40
 19032 0ed1 5A020000 		.4byte	.LVL390
 19033 0ed5 65020000 		.4byte	.LVL391-1
 19034 0ed9 0200     		.2byte	0x2
 19035 0edb 90       		.byte	0x90
 19036 0edc 40       		.uleb128 0x40
 19037 0edd 6A020000 		.4byte	.LVL392
 19038 0ee1 77020000 		.4byte	.LVL393-1
 19039 0ee5 0200     		.2byte	0x2
 19040 0ee7 90       		.byte	0x90
 19041 0ee8 40       		.uleb128 0x40
 19042 0ee9 7C020000 		.4byte	.LVL394
 19043 0eed 87020000 		.4byte	.LVL396-1
 19044 0ef1 0200     		.2byte	0x2
 19045 0ef3 90       		.byte	0x90
 19046 0ef4 40       		.uleb128 0x40
 19047 0ef5 00000000 		.4byte	0
 19048 0ef9 00000000 		.4byte	0
 19049              	.LLST97:
 19050 0efd A0010000 		.4byte	.LVL361
 19051 0f01 B8010000 		.4byte	.LVL365
 19052 0f05 0600     		.2byte	0x6
 19053 0f07 9E       		.byte	0x9e
 19054 0f08 04       		.uleb128 0x4
 19055 0f09 00000000 		.4byte	0
 19056 0f0d B8010000 		.4byte	.LVL365
 19057 0f11 EE010000 		.4byte	.LVL377
 19058 0f15 0200     		.2byte	0x2
 19059 0f17 90       		.byte	0x90
 19060 0f18 51       		.uleb128 0x51
 19061 0f19 EE010000 		.4byte	.LVL377
 19062 0f1d 0C020000 		.4byte	.LVL382
 19063 0f21 0200     		.2byte	0x2
 19064 0f23 90       		.byte	0x90
 19065 0f24 4F       		.uleb128 0x4f
 19066 0f25 92020000 		.4byte	.LVL399
 19067 0f29 95020000 		.4byte	.LVL400-1
 19068 0f2d 0200     		.2byte	0x2
 19069 0f2f 90       		.byte	0x90
 19070 0f30 4F       		.uleb128 0x4f
 19071 0f31 00000000 		.4byte	0
 19072 0f35 00000000 		.4byte	0
 19073              	.LLST98:
 19074 0f39 A0010000 		.4byte	.LVL361
 19075 0f3d B8010000 		.4byte	.LVL365
 19076 0f41 0600     		.2byte	0x6
 19077 0f43 9E       		.byte	0x9e
 19078 0f44 04       		.uleb128 0x4
 19079 0f45 00000000 		.4byte	0
 19080 0f49 B8010000 		.4byte	.LVL365
 19081 0f4d EE010000 		.4byte	.LVL377
 19082 0f51 0200     		.2byte	0x2
 19083 0f53 90       		.byte	0x90
ARM GAS  /tmp/ccTUBOn1.s 			page 336


 19084 0f54 52       		.uleb128 0x52
 19085 0f55 EE010000 		.4byte	.LVL377
 19086 0f59 F2010000 		.4byte	.LVL378
 19087 0f5d 0200     		.2byte	0x2
 19088 0f5f 90       		.byte	0x90
 19089 0f60 40       		.uleb128 0x40
 19090 0f61 F2010000 		.4byte	.LVL378
 19091 0f65 F6010000 		.4byte	.LVL379
 19092 0f69 0800     		.2byte	0x8
 19093 0f6b F5       		.byte	0xf5
 19094 0f6c 52       		.uleb128 0x52
 19095 0f6d 25       		.uleb128 0x25
 19096 0f6e F5       		.byte	0xf5
 19097 0f6f 50       		.uleb128 0x50
 19098 0f70 25       		.uleb128 0x25
 19099 0f71 1B       		.byte	0x1b
 19100 0f72 9F       		.byte	0x9f
 19101 0f73 00000000 		.4byte	0
 19102 0f77 00000000 		.4byte	0
 19103              	.LLST99:
 19104 0f7b A0010000 		.4byte	.LVL361
 19105 0f7f B8010000 		.4byte	.LVL365
 19106 0f83 0600     		.2byte	0x6
 19107 0f85 9E       		.byte	0x9e
 19108 0f86 04       		.uleb128 0x4
 19109 0f87 00000000 		.4byte	0
 19110 0f8b B8010000 		.4byte	.LVL365
 19111 0f8f F6010000 		.4byte	.LVL379
 19112 0f93 0200     		.2byte	0x2
 19113 0f95 90       		.byte	0x90
 19114 0f96 53       		.uleb128 0x53
 19115 0f97 F6010000 		.4byte	.LVL379
 19116 0f9b 38020000 		.4byte	.LVL384
 19117 0f9f 0200     		.2byte	0x2
 19118 0fa1 90       		.byte	0x90
 19119 0fa2 52       		.uleb128 0x52
 19120 0fa3 8C020000 		.4byte	.LVL397
 19121 0fa7 C4020000 		.4byte	.LFE270
 19122 0fab 0200     		.2byte	0x2
 19123 0fad 90       		.byte	0x90
 19124 0fae 52       		.uleb128 0x52
 19125 0faf 00000000 		.4byte	0
 19126 0fb3 00000000 		.4byte	0
 19127              	.LLST100:
 19128 0fb7 A0010000 		.4byte	.LVL361
 19129 0fbb B8010000 		.4byte	.LVL365
 19130 0fbf 0600     		.2byte	0x6
 19131 0fc1 9E       		.byte	0x9e
 19132 0fc2 04       		.uleb128 0x4
 19133 0fc3 00000000 		.4byte	0
 19134 0fc7 B8010000 		.4byte	.LVL365
 19135 0fcb FE010000 		.4byte	.LVL380
 19136 0fcf 0200     		.2byte	0x2
 19137 0fd1 90       		.byte	0x90
 19138 0fd2 54       		.uleb128 0x54
 19139 0fd3 FE010000 		.4byte	.LVL380
 19140 0fd7 20020000 		.4byte	.LVL383
ARM GAS  /tmp/ccTUBOn1.s 			page 337


 19141 0fdb 0200     		.2byte	0x2
 19142 0fdd 90       		.byte	0x90
 19143 0fde 51       		.uleb128 0x51
 19144 0fdf 92020000 		.4byte	.LVL399
 19145 0fe3 C4020000 		.4byte	.LFE270
 19146 0fe7 0200     		.2byte	0x2
 19147 0fe9 90       		.byte	0x90
 19148 0fea 51       		.uleb128 0x51
 19149 0feb 00000000 		.4byte	0
 19150 0fef 00000000 		.4byte	0
 19151              	.LLST101:
 19152 0ff3 A0010000 		.4byte	.LVL361
 19153 0ff7 B8010000 		.4byte	.LVL365
 19154 0ffb 0600     		.2byte	0x6
 19155 0ffd 9E       		.byte	0x9e
 19156 0ffe 04       		.uleb128 0x4
 19157 0fff 00000000 		.4byte	0
 19158 1003 B8010000 		.4byte	.LVL365
 19159 1007 0A020000 		.4byte	.LVL381
 19160 100b 0200     		.2byte	0x2
 19161 100d 90       		.byte	0x90
 19162 100e 50       		.uleb128 0x50
 19163 100f 00000000 		.4byte	0
 19164 1013 00000000 		.4byte	0
 19165              	.LLST102:
 19166 1017 A0010000 		.4byte	.LVL361
 19167 101b B8010000 		.4byte	.LVL365
 19168 101f 0200     		.2byte	0x2
 19169 1021 30       		.byte	0x30
 19170 1022 9F       		.byte	0x9f
 19171 1023 B8010000 		.4byte	.LVL365
 19172 1027 E0010000 		.4byte	.LVL375
 19173 102b 0700     		.2byte	0x7
 19174 102d 0A       		.byte	0xa
 19175 102e E803     		.2byte	0x3e8
 19176 1030 74       		.byte	0x74
 19177 1031 00       		.sleb128 0
 19178 1032 1C       		.byte	0x1c
 19179 1033 9F       		.byte	0x9f
 19180 1034 E0010000 		.4byte	.LVL375
 19181 1038 E4010000 		.4byte	.LVL376
 19182 103c 0700     		.2byte	0x7
 19183 103e 0A       		.byte	0xa
 19184 103f E703     		.2byte	0x3e7
 19185 1041 74       		.byte	0x74
 19186 1042 00       		.sleb128 0
 19187 1043 1C       		.byte	0x1c
 19188 1044 9F       		.byte	0x9f
 19189 1045 00000000 		.4byte	0
 19190 1049 00000000 		.4byte	0
 19191              	.LLST77:
 19192 104d 00000000 		.4byte	.LVL294
 19193 1051 10000000 		.4byte	.LVL295
 19194 1055 0200     		.2byte	0x2
 19195 1057 90       		.byte	0x90
 19196 1058 41       		.uleb128 0x41
 19197 1059 10000000 		.4byte	.LVL295
ARM GAS  /tmp/ccTUBOn1.s 			page 338


 19198 105d 04010000 		.4byte	.LFE269
 19199 1061 0600     		.2byte	0x6
 19200 1063 F3       		.byte	0xf3
 19201 1064 03       		.uleb128 0x3
 19202 1065 F5       		.byte	0xf5
 19203 1066 41       		.uleb128 0x41
 19204 1067 25       		.uleb128 0x25
 19205 1068 9F       		.byte	0x9f
 19206 1069 00000000 		.4byte	0
 19207 106d 00000000 		.4byte	0
 19208              	.LLST78:
 19209 1071 00000000 		.4byte	.LVL294
 19210 1075 7C000000 		.4byte	.LVL299
 19211 1079 0200     		.2byte	0x2
 19212 107b 30       		.byte	0x30
 19213 107c 9F       		.byte	0x9f
 19214 107d 7C000000 		.4byte	.LVL299
 19215 1081 80000000 		.4byte	.LVL300
 19216 1085 0100     		.2byte	0x1
 19217 1087 50       		.byte	0x50
 19218 1088 80000000 		.4byte	.LVL300
 19219 108c 82000000 		.4byte	.LVL301
 19220 1090 0200     		.2byte	0x2
 19221 1092 90       		.byte	0x90
 19222 1093 4F       		.uleb128 0x4f
 19223 1094 82000000 		.4byte	.LVL301
 19224 1098 84000000 		.4byte	.LVL302
 19225 109c 0100     		.2byte	0x1
 19226 109e 50       		.byte	0x50
 19227 109f 84000000 		.4byte	.LVL302
 19228 10a3 9C000000 		.4byte	.LVL305
 19229 10a7 0200     		.2byte	0x2
 19230 10a9 30       		.byte	0x30
 19231 10aa 9F       		.byte	0x9f
 19232 10ab 9C000000 		.4byte	.LVL305
 19233 10af A0000000 		.4byte	.LVL306
 19234 10b3 0100     		.2byte	0x1
 19235 10b5 50       		.byte	0x50
 19236 10b6 A0000000 		.4byte	.LVL306
 19237 10ba A2000000 		.4byte	.LVL307
 19238 10be 0200     		.2byte	0x2
 19239 10c0 90       		.byte	0x90
 19240 10c1 4F       		.uleb128 0x4f
 19241 10c2 A2000000 		.4byte	.LVL307
 19242 10c6 A4000000 		.4byte	.LVL308
 19243 10ca 0100     		.2byte	0x1
 19244 10cc 50       		.byte	0x50
 19245 10cd A4000000 		.4byte	.LVL308
 19246 10d1 B6000000 		.4byte	.LVL310
 19247 10d5 0200     		.2byte	0x2
 19248 10d7 30       		.byte	0x30
 19249 10d8 9F       		.byte	0x9f
 19250 10d9 B6000000 		.4byte	.LVL310
 19251 10dd BA000000 		.4byte	.LVL311
 19252 10e1 0100     		.2byte	0x1
 19253 10e3 50       		.byte	0x50
 19254 10e4 BA000000 		.4byte	.LVL311
ARM GAS  /tmp/ccTUBOn1.s 			page 339


 19255 10e8 D6000000 		.4byte	.LVL314
 19256 10ec 0200     		.2byte	0x2
 19257 10ee 30       		.byte	0x30
 19258 10ef 9F       		.byte	0x9f
 19259 10f0 D6000000 		.4byte	.LVL314
 19260 10f4 DA000000 		.4byte	.LVL315
 19261 10f8 0100     		.2byte	0x1
 19262 10fa 50       		.byte	0x50
 19263 10fb DA000000 		.4byte	.LVL315
 19264 10ff DC000000 		.4byte	.LVL316
 19265 1103 0200     		.2byte	0x2
 19266 1105 90       		.byte	0x90
 19267 1106 4F       		.uleb128 0x4f
 19268 1107 DC000000 		.4byte	.LVL316
 19269 110b DE000000 		.4byte	.LVL317
 19270 110f 0100     		.2byte	0x1
 19271 1111 50       		.byte	0x50
 19272 1112 DE000000 		.4byte	.LVL317
 19273 1116 E0000000 		.4byte	.LVL318
 19274 111a 0200     		.2byte	0x2
 19275 111c 30       		.byte	0x30
 19276 111d 9F       		.byte	0x9f
 19277 111e E0000000 		.4byte	.LVL318
 19278 1122 04010000 		.4byte	.LFE269
 19279 1126 0100     		.2byte	0x1
 19280 1128 50       		.byte	0x50
 19281 1129 00000000 		.4byte	0
 19282 112d 00000000 		.4byte	0
 19283              	.LLST79:
 19284 1131 1C000000 		.4byte	.LVL296
 19285 1135 68000000 		.4byte	.LVL297
 19286 1139 0200     		.2byte	0x2
 19287 113b 90       		.byte	0x90
 19288 113c 4F       		.uleb128 0x4f
 19289 113d 68000000 		.4byte	.LVL297
 19290 1141 6C000000 		.4byte	.LVL298
 19291 1145 0C00     		.2byte	0xc
 19292 1147 F5       		.byte	0xf5
 19293 1148 4C       		.uleb128 0x4c
 19294 1149 25       		.uleb128 0x25
 19295 114a F5       		.byte	0xf5
 19296 114b 41       		.uleb128 0x41
 19297 114c 25       		.uleb128 0x25
 19298 114d 1B       		.byte	0x1b
 19299 114e F5       		.byte	0xf5
 19300 114f 4D       		.uleb128 0x4d
 19301 1150 25       		.uleb128 0x25
 19302 1151 1E       		.byte	0x1e
 19303 1152 9F       		.byte	0x9f
 19304 1153 6C000000 		.4byte	.LVL298
 19305 1157 84000000 		.4byte	.LVL302
 19306 115b 1000     		.2byte	0x10
 19307 115d F5       		.byte	0xf5
 19308 115e 4C       		.uleb128 0x4c
 19309 115f 25       		.uleb128 0x25
 19310 1160 F5       		.byte	0xf5
 19311 1161 41       		.uleb128 0x41
ARM GAS  /tmp/ccTUBOn1.s 			page 340


 19312 1162 25       		.uleb128 0x25
 19313 1163 1B       		.byte	0x1b
 19314 1164 F4       		.byte	0xf4
 19315 1165 25       		.uleb128 0x25
 19316 1166 04       		.byte	0x4
 19317 1167 00007A44 		.4byte	0x447a0000
 19318 116b 1E       		.byte	0x1e
 19319 116c 9F       		.byte	0x9f
 19320 116d 84000000 		.4byte	.LVL302
 19321 1171 88000000 		.4byte	.LVL303
 19322 1175 0200     		.2byte	0x2
 19323 1177 90       		.byte	0x90
 19324 1178 4F       		.uleb128 0x4f
 19325 1179 88000000 		.4byte	.LVL303
 19326 117d 8C000000 		.4byte	.LVL304
 19327 1181 0C00     		.2byte	0xc
 19328 1183 F5       		.byte	0xf5
 19329 1184 4C       		.uleb128 0x4c
 19330 1185 25       		.uleb128 0x25
 19331 1186 F5       		.byte	0xf5
 19332 1187 41       		.uleb128 0x41
 19333 1188 25       		.uleb128 0x25
 19334 1189 1B       		.byte	0x1b
 19335 118a F5       		.byte	0xf5
 19336 118b 4D       		.uleb128 0x4d
 19337 118c 25       		.uleb128 0x25
 19338 118d 1E       		.byte	0x1e
 19339 118e 9F       		.byte	0x9f
 19340 118f 8C000000 		.4byte	.LVL304
 19341 1193 A4000000 		.4byte	.LVL308
 19342 1197 1000     		.2byte	0x10
 19343 1199 F5       		.byte	0xf5
 19344 119a 4C       		.uleb128 0x4c
 19345 119b 25       		.uleb128 0x25
 19346 119c F5       		.byte	0xf5
 19347 119d 41       		.uleb128 0x41
 19348 119e 25       		.uleb128 0x25
 19349 119f 1B       		.byte	0x1b
 19350 11a0 F4       		.byte	0xf4
 19351 11a1 25       		.uleb128 0x25
 19352 11a2 04       		.byte	0x4
 19353 11a3 00007A44 		.4byte	0x447a0000
 19354 11a7 1E       		.byte	0x1e
 19355 11a8 9F       		.byte	0x9f
 19356 11a9 A4000000 		.4byte	.LVL308
 19357 11ad AE000000 		.4byte	.LVL309
 19358 11b1 0200     		.2byte	0x2
 19359 11b3 90       		.byte	0x90
 19360 11b4 4F       		.uleb128 0x4f
 19361 11b5 AE000000 		.4byte	.LVL309
 19362 11b9 BA000000 		.4byte	.LVL311
 19363 11bd 0C00     		.2byte	0xc
 19364 11bf F5       		.byte	0xf5
 19365 11c0 4C       		.uleb128 0x4c
 19366 11c1 25       		.uleb128 0x25
 19367 11c2 F5       		.byte	0xf5
 19368 11c3 41       		.uleb128 0x41
ARM GAS  /tmp/ccTUBOn1.s 			page 341


 19369 11c4 25       		.uleb128 0x25
 19370 11c5 1B       		.byte	0x1b
 19371 11c6 F5       		.byte	0xf5
 19372 11c7 4D       		.uleb128 0x4d
 19373 11c8 25       		.uleb128 0x25
 19374 11c9 1E       		.byte	0x1e
 19375 11ca 9F       		.byte	0x9f
 19376 11cb BA000000 		.4byte	.LVL311
 19377 11cf C2000000 		.4byte	.LVL312
 19378 11d3 0200     		.2byte	0x2
 19379 11d5 90       		.byte	0x90
 19380 11d6 4F       		.uleb128 0x4f
 19381 11d7 C2000000 		.4byte	.LVL312
 19382 11db C6000000 		.4byte	.LVL313
 19383 11df 0C00     		.2byte	0xc
 19384 11e1 F5       		.byte	0xf5
 19385 11e2 4C       		.uleb128 0x4c
 19386 11e3 25       		.uleb128 0x25
 19387 11e4 F5       		.byte	0xf5
 19388 11e5 41       		.uleb128 0x41
 19389 11e6 25       		.uleb128 0x25
 19390 11e7 1B       		.byte	0x1b
 19391 11e8 F5       		.byte	0xf5
 19392 11e9 4D       		.uleb128 0x4d
 19393 11ea 25       		.uleb128 0x25
 19394 11eb 1E       		.byte	0x1e
 19395 11ec 9F       		.byte	0x9f
 19396 11ed C6000000 		.4byte	.LVL313
 19397 11f1 DE000000 		.4byte	.LVL317
 19398 11f5 1000     		.2byte	0x10
 19399 11f7 F5       		.byte	0xf5
 19400 11f8 4C       		.uleb128 0x4c
 19401 11f9 25       		.uleb128 0x25
 19402 11fa F5       		.byte	0xf5
 19403 11fb 41       		.uleb128 0x41
 19404 11fc 25       		.uleb128 0x25
 19405 11fd 1B       		.byte	0x1b
 19406 11fe F4       		.byte	0xf4
 19407 11ff 25       		.uleb128 0x25
 19408 1200 04       		.byte	0x4
 19409 1201 00007A44 		.4byte	0x447a0000
 19410 1205 1E       		.byte	0x1e
 19411 1206 9F       		.byte	0x9f
 19412 1207 DE000000 		.4byte	.LVL317
 19413 120b 04010000 		.4byte	.LFE269
 19414 120f 0200     		.2byte	0x2
 19415 1211 90       		.byte	0x90
 19416 1212 4F       		.uleb128 0x4f
 19417 1213 00000000 		.4byte	0
 19418 1217 00000000 		.4byte	0
 19419              	.LLST60:
 19420 121b 00000000 		.4byte	.LVL208
 19421 121f 1D000000 		.4byte	.LVL209-1
 19422 1223 0200     		.2byte	0x2
 19423 1225 90       		.byte	0x90
 19424 1226 40       		.uleb128 0x40
 19425 1227 1D000000 		.4byte	.LVL209-1
ARM GAS  /tmp/ccTUBOn1.s 			page 342


 19426 122b 66010000 		.4byte	.LVL246
 19427 122f 0200     		.2byte	0x2
 19428 1231 90       		.byte	0x90
 19429 1232 53       		.uleb128 0x53
 19430 1233 66010000 		.4byte	.LVL246
 19431 1237 06020000 		.4byte	.LVL268
 19432 123b 0600     		.2byte	0x6
 19433 123d F3       		.byte	0xf3
 19434 123e 03       		.uleb128 0x3
 19435 123f F5       		.byte	0xf5
 19436 1240 40       		.uleb128 0x40
 19437 1241 25       		.uleb128 0x25
 19438 1242 9F       		.byte	0x9f
 19439 1243 06020000 		.4byte	.LVL268
 19440 1247 F8020000 		.4byte	.LFE268
 19441 124b 0200     		.2byte	0x2
 19442 124d 90       		.byte	0x90
 19443 124e 53       		.uleb128 0x53
 19444 124f 00000000 		.4byte	0
 19445 1253 00000000 		.4byte	0
 19446              	.LLST61:
 19447 1257 00000000 		.4byte	.LVL208
 19448 125b 1D000000 		.4byte	.LVL209-1
 19449 125f 0200     		.2byte	0x2
 19450 1261 90       		.byte	0x90
 19451 1262 41       		.uleb128 0x41
 19452 1263 1D000000 		.4byte	.LVL209-1
 19453 1267 58010000 		.4byte	.LVL245
 19454 126b 0200     		.2byte	0x2
 19455 126d 90       		.byte	0x90
 19456 126e 50       		.uleb128 0x50
 19457 126f 58010000 		.4byte	.LVL245
 19458 1273 06020000 		.4byte	.LVL268
 19459 1277 0600     		.2byte	0x6
 19460 1279 F3       		.byte	0xf3
 19461 127a 03       		.uleb128 0x3
 19462 127b F5       		.byte	0xf5
 19463 127c 41       		.uleb128 0x41
 19464 127d 25       		.uleb128 0x25
 19465 127e 9F       		.byte	0x9f
 19466 127f 06020000 		.4byte	.LVL268
 19467 1283 34020000 		.4byte	.LVL275
 19468 1287 0200     		.2byte	0x2
 19469 1289 90       		.byte	0x90
 19470 128a 50       		.uleb128 0x50
 19471 128b 34020000 		.4byte	.LVL275
 19472 128f 3A020000 		.4byte	.LVL276
 19473 1293 0600     		.2byte	0x6
 19474 1295 F3       		.byte	0xf3
 19475 1296 03       		.uleb128 0x3
 19476 1297 F5       		.byte	0xf5
 19477 1298 41       		.uleb128 0x41
 19478 1299 25       		.uleb128 0x25
 19479 129a 9F       		.byte	0x9f
 19480 129b 3A020000 		.4byte	.LVL276
 19481 129f 5A020000 		.4byte	.LVL281
 19482 12a3 0200     		.2byte	0x2
ARM GAS  /tmp/ccTUBOn1.s 			page 343


 19483 12a5 90       		.byte	0x90
 19484 12a6 50       		.uleb128 0x50
 19485 12a7 5A020000 		.4byte	.LVL281
 19486 12ab 60020000 		.4byte	.LVL282
 19487 12af 0600     		.2byte	0x6
 19488 12b1 F3       		.byte	0xf3
 19489 12b2 03       		.uleb128 0x3
 19490 12b3 F5       		.byte	0xf5
 19491 12b4 41       		.uleb128 0x41
 19492 12b5 25       		.uleb128 0x25
 19493 12b6 9F       		.byte	0x9f
 19494 12b7 60020000 		.4byte	.LVL282
 19495 12bb F8020000 		.4byte	.LFE268
 19496 12bf 0200     		.2byte	0x2
 19497 12c1 90       		.byte	0x90
 19498 12c2 50       		.uleb128 0x50
 19499 12c3 00000000 		.4byte	0
 19500 12c7 00000000 		.4byte	0
 19501              	.LLST62:
 19502 12cb 00000000 		.4byte	.LVL208
 19503 12cf 1D000000 		.4byte	.LVL209-1
 19504 12d3 0200     		.2byte	0x2
 19505 12d5 90       		.byte	0x90
 19506 12d6 42       		.uleb128 0x42
 19507 12d7 1D000000 		.4byte	.LVL209-1
 19508 12db 6E010000 		.4byte	.LVL247
 19509 12df 0200     		.2byte	0x2
 19510 12e1 90       		.byte	0x90
 19511 12e2 52       		.uleb128 0x52
 19512 12e3 6E010000 		.4byte	.LVL247
 19513 12e7 06020000 		.4byte	.LVL268
 19514 12eb 0600     		.2byte	0x6
 19515 12ed F3       		.byte	0xf3
 19516 12ee 03       		.uleb128 0x3
 19517 12ef F5       		.byte	0xf5
 19518 12f0 42       		.uleb128 0x42
 19519 12f1 25       		.uleb128 0x25
 19520 12f2 9F       		.byte	0x9f
 19521 12f3 06020000 		.4byte	.LVL268
 19522 12f7 34020000 		.4byte	.LVL275
 19523 12fb 0200     		.2byte	0x2
 19524 12fd 90       		.byte	0x90
 19525 12fe 52       		.uleb128 0x52
 19526 12ff 34020000 		.4byte	.LVL275
 19527 1303 3A020000 		.4byte	.LVL276
 19528 1307 0600     		.2byte	0x6
 19529 1309 F3       		.byte	0xf3
 19530 130a 03       		.uleb128 0x3
 19531 130b F5       		.byte	0xf5
 19532 130c 42       		.uleb128 0x42
 19533 130d 25       		.uleb128 0x25
 19534 130e 9F       		.byte	0x9f
 19535 130f 3A020000 		.4byte	.LVL276
 19536 1313 5A020000 		.4byte	.LVL281
 19537 1317 0200     		.2byte	0x2
 19538 1319 90       		.byte	0x90
 19539 131a 52       		.uleb128 0x52
ARM GAS  /tmp/ccTUBOn1.s 			page 344


 19540 131b 5A020000 		.4byte	.LVL281
 19541 131f 60020000 		.4byte	.LVL282
 19542 1323 0600     		.2byte	0x6
 19543 1325 F3       		.byte	0xf3
 19544 1326 03       		.uleb128 0x3
 19545 1327 F5       		.byte	0xf5
 19546 1328 42       		.uleb128 0x42
 19547 1329 25       		.uleb128 0x25
 19548 132a 9F       		.byte	0x9f
 19549 132b 60020000 		.4byte	.LVL282
 19550 132f F8020000 		.4byte	.LFE268
 19551 1333 0200     		.2byte	0x2
 19552 1335 90       		.byte	0x90
 19553 1336 52       		.uleb128 0x52
 19554 1337 00000000 		.4byte	0
 19555 133b 00000000 		.4byte	0
 19556              	.LLST63:
 19557 133f 00000000 		.4byte	.LVL208
 19558 1343 1D000000 		.4byte	.LVL209-1
 19559 1347 0200     		.2byte	0x2
 19560 1349 90       		.byte	0x90
 19561 134a 43       		.uleb128 0x43
 19562 134b 1D000000 		.4byte	.LVL209-1
 19563 134f DE010000 		.4byte	.LVL264
 19564 1353 0200     		.2byte	0x2
 19565 1355 90       		.byte	0x90
 19566 1356 57       		.uleb128 0x57
 19567 1357 DE010000 		.4byte	.LVL264
 19568 135b 06020000 		.4byte	.LVL268
 19569 135f 0600     		.2byte	0x6
 19570 1361 F3       		.byte	0xf3
 19571 1362 03       		.uleb128 0x3
 19572 1363 F5       		.byte	0xf5
 19573 1364 43       		.uleb128 0x43
 19574 1365 25       		.uleb128 0x25
 19575 1366 9F       		.byte	0x9f
 19576 1367 06020000 		.4byte	.LVL268
 19577 136b F8020000 		.4byte	.LFE268
 19578 136f 0200     		.2byte	0x2
 19579 1371 90       		.byte	0x90
 19580 1372 57       		.uleb128 0x57
 19581 1373 00000000 		.4byte	0
 19582 1377 00000000 		.4byte	0
 19583              	.LLST64:
 19584 137b 00000000 		.4byte	.LVL208
 19585 137f 1D000000 		.4byte	.LVL209-1
 19586 1383 0100     		.2byte	0x1
 19587 1385 50       		.byte	0x50
 19588 1386 1D000000 		.4byte	.LVL209-1
 19589 138a F8020000 		.4byte	.LFE268
 19590 138e 0100     		.2byte	0x1
 19591 1390 57       		.byte	0x57
 19592 1391 00000000 		.4byte	0
 19593 1395 00000000 		.4byte	0
 19594              	.LLST65:
 19595 1399 9C000000 		.4byte	.LVL222
 19596 139d 9F000000 		.4byte	.LVL223-1
ARM GAS  /tmp/ccTUBOn1.s 			page 345


 19597 13a1 0100     		.2byte	0x1
 19598 13a3 50       		.byte	0x50
 19599 13a4 9F000000 		.4byte	.LVL223-1
 19600 13a8 50020000 		.4byte	.LVL279
 19601 13ac 0100     		.2byte	0x1
 19602 13ae 58       		.byte	0x58
 19603 13af 60020000 		.4byte	.LVL282
 19604 13b3 F8020000 		.4byte	.LFE268
 19605 13b7 0100     		.2byte	0x1
 19606 13b9 58       		.byte	0x58
 19607 13ba 00000000 		.4byte	0
 19608 13be 00000000 		.4byte	0
 19609              	.LLST66:
 19610 13c2 A4000000 		.4byte	.LVL224
 19611 13c6 A7000000 		.4byte	.LVL225-1
 19612 13ca 0200     		.2byte	0x2
 19613 13cc 90       		.byte	0x90
 19614 13cd 40       		.uleb128 0x40
 19615 13ce A7000000 		.4byte	.LVL225-1
 19616 13d2 EA010000 		.4byte	.LVL266
 19617 13d6 0200     		.2byte	0x2
 19618 13d8 90       		.byte	0x90
 19619 13d9 58       		.uleb128 0x58
 19620 13da 06020000 		.4byte	.LVL268
 19621 13de 34020000 		.4byte	.LVL275
 19622 13e2 0200     		.2byte	0x2
 19623 13e4 90       		.byte	0x90
 19624 13e5 58       		.uleb128 0x58
 19625 13e6 3A020000 		.4byte	.LVL276
 19626 13ea 50020000 		.4byte	.LVL279
 19627 13ee 0200     		.2byte	0x2
 19628 13f0 90       		.byte	0x90
 19629 13f1 58       		.uleb128 0x58
 19630 13f2 60020000 		.4byte	.LVL282
 19631 13f6 F8020000 		.4byte	.LFE268
 19632 13fa 0200     		.2byte	0x2
 19633 13fc 90       		.byte	0x90
 19634 13fd 58       		.uleb128 0x58
 19635 13fe 00000000 		.4byte	0
 19636 1402 00000000 		.4byte	0
 19637              	.LLST67:
 19638 1406 C8000000 		.4byte	.LVL229
 19639 140a 3A010000 		.4byte	.LVL239
 19640 140e 0200     		.2byte	0x2
 19641 1410 30       		.byte	0x30
 19642 1411 9F       		.byte	0x9f
 19643 1412 44010000 		.4byte	.LVL241
 19644 1416 48010000 		.4byte	.LVL242
 19645 141a 0100     		.2byte	0x1
 19646 141c 55       		.byte	0x55
 19647 141d 48010000 		.4byte	.LVL242
 19648 1421 06020000 		.4byte	.LVL268
 19649 1425 0200     		.2byte	0x2
 19650 1427 31       		.byte	0x31
 19651 1428 9F       		.byte	0x9f
 19652 1429 06020000 		.4byte	.LVL268
 19653 142d 3A020000 		.4byte	.LVL276
ARM GAS  /tmp/ccTUBOn1.s 			page 346


 19654 1431 0200     		.2byte	0x2
 19655 1433 30       		.byte	0x30
 19656 1434 9F       		.byte	0x9f
 19657 1435 3A020000 		.4byte	.LVL276
 19658 1439 4A020000 		.4byte	.LVL278
 19659 143d 0200     		.2byte	0x2
 19660 143f 31       		.byte	0x31
 19661 1440 9F       		.byte	0x9f
 19662 1441 60020000 		.4byte	.LVL282
 19663 1445 F8020000 		.4byte	.LFE268
 19664 1449 0200     		.2byte	0x2
 19665 144b 30       		.byte	0x30
 19666 144c 9F       		.byte	0x9f
 19667 144d 00000000 		.4byte	0
 19668 1451 00000000 		.4byte	0
 19669              	.LLST68:
 19670 1455 54010000 		.4byte	.LVL244
 19671 1459 76010000 		.4byte	.LVL248
 19672 145d 0600     		.2byte	0x6
 19673 145f 9E       		.byte	0x9e
 19674 1460 04       		.uleb128 0x4
 19675 1461 00000000 		.4byte	0
 19676 1465 76010000 		.4byte	.LVL248
 19677 1469 D6010000 		.4byte	.LVL262
 19678 146d 0200     		.2byte	0x2
 19679 146f 90       		.byte	0x90
 19680 1470 52       		.uleb128 0x52
 19681 1471 00000000 		.4byte	0
 19682 1475 00000000 		.4byte	0
 19683              	.LLST69:
 19684 1479 54010000 		.4byte	.LVL244
 19685 147d 76010000 		.4byte	.LVL248
 19686 1481 0600     		.2byte	0x6
 19687 1483 9E       		.byte	0x9e
 19688 1484 04       		.uleb128 0x4
 19689 1485 00000000 		.4byte	0
 19690 1489 76010000 		.4byte	.LVL248
 19691 148d D6010000 		.4byte	.LVL262
 19692 1491 0200     		.2byte	0x2
 19693 1493 90       		.byte	0x90
 19694 1494 51       		.uleb128 0x51
 19695 1495 D6010000 		.4byte	.LVL262
 19696 1499 DA010000 		.4byte	.LVL263
 19697 149d 0800     		.2byte	0x8
 19698 149f F5       		.byte	0xf5
 19699 14a0 51       		.uleb128 0x51
 19700 14a1 25       		.uleb128 0x25
 19701 14a2 F5       		.byte	0xf5
 19702 14a3 50       		.uleb128 0x50
 19703 14a4 25       		.uleb128 0x25
 19704 14a5 1B       		.byte	0x1b
 19705 14a6 9F       		.byte	0x9f
 19706 14a7 DA010000 		.4byte	.LVL263
 19707 14ab F6010000 		.4byte	.LVL267
 19708 14af 0200     		.2byte	0x2
 19709 14b1 90       		.byte	0x90
 19710 14b2 4E       		.uleb128 0x4e
ARM GAS  /tmp/ccTUBOn1.s 			page 347


 19711 14b3 00000000 		.4byte	0
 19712 14b7 00000000 		.4byte	0
 19713              	.LLST70:
 19714 14bb 54010000 		.4byte	.LVL244
 19715 14bf 76010000 		.4byte	.LVL248
 19716 14c3 0600     		.2byte	0x6
 19717 14c5 9E       		.byte	0x9e
 19718 14c6 04       		.uleb128 0x4
 19719 14c7 00000000 		.4byte	0
 19720 14cb 76010000 		.4byte	.LVL248
 19721 14cf D6010000 		.4byte	.LVL262
 19722 14d3 0200     		.2byte	0x2
 19723 14d5 90       		.byte	0x90
 19724 14d6 53       		.uleb128 0x53
 19725 14d7 D6010000 		.4byte	.LVL262
 19726 14db EA010000 		.4byte	.LVL266
 19727 14df 0800     		.2byte	0x8
 19728 14e1 F5       		.byte	0xf5
 19729 14e2 53       		.uleb128 0x53
 19730 14e3 25       		.uleb128 0x25
 19731 14e4 F5       		.byte	0xf5
 19732 14e5 50       		.uleb128 0x50
 19733 14e6 25       		.uleb128 0x25
 19734 14e7 1B       		.byte	0x1b
 19735 14e8 9F       		.byte	0x9f
 19736 14e9 00000000 		.4byte	0
 19737 14ed 00000000 		.4byte	0
 19738              	.LLST71:
 19739 14f1 54010000 		.4byte	.LVL244
 19740 14f5 76010000 		.4byte	.LVL248
 19741 14f9 0600     		.2byte	0x6
 19742 14fb 9E       		.byte	0x9e
 19743 14fc 04       		.uleb128 0x4
 19744 14fd 00000000 		.4byte	0
 19745 1501 76010000 		.4byte	.LVL248
 19746 1505 EA010000 		.4byte	.LVL266
 19747 1509 0200     		.2byte	0x2
 19748 150b 90       		.byte	0x90
 19749 150c 50       		.uleb128 0x50
 19750 150d 00000000 		.4byte	0
 19751 1511 00000000 		.4byte	0
 19752              	.LLST72:
 19753 1515 6E000000 		.4byte	.LVL212
 19754 1519 70000000 		.4byte	.LVL213
 19755 151d 0200     		.2byte	0x2
 19756 151f 30       		.byte	0x30
 19757 1520 9F       		.byte	0x9f
 19758 1521 70000000 		.4byte	.LVL213
 19759 1525 76000000 		.4byte	.LVL214
 19760 1529 0700     		.2byte	0x7
 19761 152b 0A       		.byte	0xa
 19762 152c F401     		.2byte	0x1f4
 19763 152e 74       		.byte	0x74
 19764 152f 00       		.sleb128 0
 19765 1530 1C       		.byte	0x1c
 19766 1531 9F       		.byte	0x9f
 19767 1532 76000000 		.4byte	.LVL214
ARM GAS  /tmp/ccTUBOn1.s 			page 348


 19768 1536 78000000 		.4byte	.LVL215
 19769 153a 0700     		.2byte	0x7
 19770 153c 0A       		.byte	0xa
 19771 153d F501     		.2byte	0x1f5
 19772 153f 74       		.byte	0x74
 19773 1540 00       		.sleb128 0
 19774 1541 1C       		.byte	0x1c
 19775 1542 9F       		.byte	0x9f
 19776 1543 78000000 		.4byte	.LVL215
 19777 1547 82000000 		.4byte	.LVL218
 19778 154b 0700     		.2byte	0x7
 19779 154d 0A       		.byte	0xa
 19780 154e F401     		.2byte	0x1f4
 19781 1550 74       		.byte	0x74
 19782 1551 00       		.sleb128 0
 19783 1552 1C       		.byte	0x1c
 19784 1553 9F       		.byte	0x9f
 19785 1554 00000000 		.4byte	0
 19786 1558 00000000 		.4byte	0
 19787              	.LLST73:
 19788 155c C8000000 		.4byte	.LVL229
 19789 1560 CC000000 		.4byte	.LVL230
 19790 1564 0200     		.2byte	0x2
 19791 1566 30       		.byte	0x30
 19792 1567 9F       		.byte	0x9f
 19793 1568 CC000000 		.4byte	.LVL230
 19794 156c 42020000 		.4byte	.LVL277
 19795 1570 0100     		.2byte	0x1
 19796 1572 59       		.byte	0x59
 19797 1573 42020000 		.4byte	.LVL277
 19798 1577 4A020000 		.4byte	.LVL278
 19799 157b 0300     		.2byte	0x3
 19800 157d 79       		.byte	0x79
 19801 157e 7F       		.sleb128 -1
 19802 157f 9F       		.byte	0x9f
 19803 1580 4A020000 		.4byte	.LVL278
 19804 1584 50020000 		.4byte	.LVL279
 19805 1588 0100     		.2byte	0x1
 19806 158a 59       		.byte	0x59
 19807 158b 60020000 		.4byte	.LVL282
 19808 158f F8020000 		.4byte	.LFE268
 19809 1593 0100     		.2byte	0x1
 19810 1595 59       		.byte	0x59
 19811 1596 00000000 		.4byte	0
 19812 159a 00000000 		.4byte	0
 19813              	.LLST74:
 19814 159e EC000000 		.4byte	.LVL231
 19815 15a2 00010000 		.4byte	.LVL233
 19816 15a6 0100     		.2byte	0x1
 19817 15a8 54       		.byte	0x54
 19818 15a9 00010000 		.4byte	.LVL233
 19819 15ad 08010000 		.4byte	.LVL234
 19820 15b1 0300     		.2byte	0x3
 19821 15b3 74       		.byte	0x74
 19822 15b4 7F       		.sleb128 -1
 19823 15b5 9F       		.byte	0x9f
 19824 15b6 08010000 		.4byte	.LVL234
ARM GAS  /tmp/ccTUBOn1.s 			page 349


 19825 15ba 44010000 		.4byte	.LVL241
 19826 15be 0100     		.2byte	0x1
 19827 15c0 54       		.byte	0x54
 19828 15c1 06020000 		.4byte	.LVL268
 19829 15c5 14020000 		.4byte	.LVL270
 19830 15c9 0100     		.2byte	0x1
 19831 15cb 54       		.byte	0x54
 19832 15cc 3A020000 		.4byte	.LVL276
 19833 15d0 50020000 		.4byte	.LVL279
 19834 15d4 0300     		.2byte	0x3
 19835 15d6 74       		.byte	0x74
 19836 15d7 7F       		.sleb128 -1
 19837 15d8 9F       		.byte	0x9f
 19838 15d9 00000000 		.4byte	0
 19839 15dd 00000000 		.4byte	0
 19840              	.LLST75:
 19841 15e1 EC000000 		.4byte	.LVL231
 19842 15e5 1A010000 		.4byte	.LVL236
 19843 15e9 0100     		.2byte	0x1
 19844 15eb 55       		.byte	0x55
 19845 15ec 1A010000 		.4byte	.LVL236
 19846 15f0 24010000 		.4byte	.LVL237
 19847 15f4 0200     		.2byte	0x2
 19848 15f6 31       		.byte	0x31
 19849 15f7 9F       		.byte	0x9f
 19850 15f8 30010000 		.4byte	.LVL238
 19851 15fc 3A010000 		.4byte	.LVL239
 19852 1600 0100     		.2byte	0x1
 19853 1602 55       		.byte	0x55
 19854 1603 06020000 		.4byte	.LVL268
 19855 1607 14020000 		.4byte	.LVL270
 19856 160b 0200     		.2byte	0x2
 19857 160d 31       		.byte	0x31
 19858 160e 9F       		.byte	0x9f
 19859 160f 3A020000 		.4byte	.LVL276
 19860 1613 4A020000 		.4byte	.LVL278
 19861 1617 0100     		.2byte	0x1
 19862 1619 55       		.byte	0x55
 19863 161a 00000000 		.4byte	0
 19864 161e 00000000 		.4byte	0
 19865              	.LLST76:
 19866 1622 54010000 		.4byte	.LVL244
 19867 1626 76010000 		.4byte	.LVL248
 19868 162a 0200     		.2byte	0x2
 19869 162c 30       		.byte	0x30
 19870 162d 9F       		.byte	0x9f
 19871 162e 76010000 		.4byte	.LVL248
 19872 1632 AA010000 		.4byte	.LVL256
 19873 1636 0700     		.2byte	0x7
 19874 1638 0A       		.byte	0xa
 19875 1639 D007     		.2byte	0x7d0
 19876 163b 75       		.byte	0x75
 19877 163c 00       		.sleb128 0
 19878 163d 1C       		.byte	0x1c
 19879 163e 9F       		.byte	0x9f
 19880 163f AA010000 		.4byte	.LVL256
 19881 1643 AE010000 		.4byte	.LVL257
ARM GAS  /tmp/ccTUBOn1.s 			page 350


 19882 1647 0700     		.2byte	0x7
 19883 1649 0A       		.byte	0xa
 19884 164a CF07     		.2byte	0x7cf
 19885 164c 75       		.byte	0x75
 19886 164d 00       		.sleb128 0
 19887 164e 1C       		.byte	0x1c
 19888 164f 9F       		.byte	0x9f
 19889 1650 00000000 		.4byte	0
 19890 1654 00000000 		.4byte	0
 19891              	.LLST36:
 19892 1658 00000000 		.4byte	.LVL93
 19893 165c 21000000 		.4byte	.LVL94-1
 19894 1660 0200     		.2byte	0x2
 19895 1662 90       		.byte	0x90
 19896 1663 40       		.uleb128 0x40
 19897 1664 21000000 		.4byte	.LVL94-1
 19898 1668 82020000 		.4byte	.LVL184
 19899 166c 0200     		.2byte	0x2
 19900 166e 90       		.byte	0x90
 19901 166f 54       		.uleb128 0x54
 19902 1670 82020000 		.4byte	.LVL184
 19903 1674 86020000 		.4byte	.LVL185
 19904 1678 0600     		.2byte	0x6
 19905 167a F3       		.byte	0xf3
 19906 167b 03       		.uleb128 0x3
 19907 167c F5       		.byte	0xf5
 19908 167d 40       		.uleb128 0x40
 19909 167e 25       		.uleb128 0x25
 19910 167f 9F       		.byte	0x9f
 19911 1680 86020000 		.4byte	.LVL185
 19912 1684 BA020000 		.4byte	.LVL192
 19913 1688 0200     		.2byte	0x2
 19914 168a 90       		.byte	0x90
 19915 168b 54       		.uleb128 0x54
 19916 168c BA020000 		.4byte	.LVL192
 19917 1690 BE020000 		.4byte	.LVL193
 19918 1694 0600     		.2byte	0x6
 19919 1696 F3       		.byte	0xf3
 19920 1697 03       		.uleb128 0x3
 19921 1698 F5       		.byte	0xf5
 19922 1699 40       		.uleb128 0x40
 19923 169a 25       		.uleb128 0x25
 19924 169b 9F       		.byte	0x9f
 19925 169c BE020000 		.4byte	.LVL193
 19926 16a0 48030000 		.4byte	.LFE267
 19927 16a4 0200     		.2byte	0x2
 19928 16a6 90       		.byte	0x90
 19929 16a7 54       		.uleb128 0x54
 19930 16a8 00000000 		.4byte	0
 19931 16ac 00000000 		.4byte	0
 19932              	.LLST37:
 19933 16b0 00000000 		.4byte	.LVL93
 19934 16b4 21000000 		.4byte	.LVL94-1
 19935 16b8 0200     		.2byte	0x2
 19936 16ba 90       		.byte	0x90
 19937 16bb 41       		.uleb128 0x41
 19938 16bc 21000000 		.4byte	.LVL94-1
ARM GAS  /tmp/ccTUBOn1.s 			page 351


 19939 16c0 48030000 		.4byte	.LFE267
 19940 16c4 0200     		.2byte	0x2
 19941 16c6 90       		.byte	0x90
 19942 16c7 53       		.uleb128 0x53
 19943 16c8 00000000 		.4byte	0
 19944 16cc 00000000 		.4byte	0
 19945              	.LLST38:
 19946 16d0 00000000 		.4byte	.LVL93
 19947 16d4 21000000 		.4byte	.LVL94-1
 19948 16d8 0200     		.2byte	0x2
 19949 16da 90       		.byte	0x90
 19950 16db 42       		.uleb128 0x42
 19951 16dc 21000000 		.4byte	.LVL94-1
 19952 16e0 04020000 		.4byte	.LVL164
 19953 16e4 0200     		.2byte	0x2
 19954 16e6 90       		.byte	0x90
 19955 16e7 52       		.uleb128 0x52
 19956 16e8 04020000 		.4byte	.LVL164
 19957 16ec 86020000 		.4byte	.LVL185
 19958 16f0 0600     		.2byte	0x6
 19959 16f2 F3       		.byte	0xf3
 19960 16f3 03       		.uleb128 0x3
 19961 16f4 F5       		.byte	0xf5
 19962 16f5 42       		.uleb128 0x42
 19963 16f6 25       		.uleb128 0x25
 19964 16f7 9F       		.byte	0x9f
 19965 16f8 86020000 		.4byte	.LVL185
 19966 16fc BA020000 		.4byte	.LVL192
 19967 1700 0200     		.2byte	0x2
 19968 1702 90       		.byte	0x90
 19969 1703 52       		.uleb128 0x52
 19970 1704 BA020000 		.4byte	.LVL192
 19971 1708 BE020000 		.4byte	.LVL193
 19972 170c 0600     		.2byte	0x6
 19973 170e F3       		.byte	0xf3
 19974 170f 03       		.uleb128 0x3
 19975 1710 F5       		.byte	0xf5
 19976 1711 42       		.uleb128 0x42
 19977 1712 25       		.uleb128 0x25
 19978 1713 9F       		.byte	0x9f
 19979 1714 BE020000 		.4byte	.LVL193
 19980 1718 48030000 		.4byte	.LFE267
 19981 171c 0200     		.2byte	0x2
 19982 171e 90       		.byte	0x90
 19983 171f 52       		.uleb128 0x52
 19984 1720 00000000 		.4byte	0
 19985 1724 00000000 		.4byte	0
 19986              	.LLST39:
 19987 1728 00000000 		.4byte	.LVL93
 19988 172c 21000000 		.4byte	.LVL94-1
 19989 1730 0100     		.2byte	0x1
 19990 1732 50       		.byte	0x50
 19991 1733 21000000 		.4byte	.LVL94-1
 19992 1737 48030000 		.4byte	.LFE267
 19993 173b 0100     		.2byte	0x1
 19994 173d 58       		.byte	0x58
 19995 173e 00000000 		.4byte	0
ARM GAS  /tmp/ccTUBOn1.s 			page 352


 19996 1742 00000000 		.4byte	0
 19997              	.LLST40:
 19998 1746 00000000 		.4byte	.LVL93
 19999 174a 21000000 		.4byte	.LVL94-1
 20000 174e 0100     		.2byte	0x1
 20001 1750 51       		.byte	0x51
 20002 1751 21000000 		.4byte	.LVL94-1
 20003 1755 48030000 		.4byte	.LFE267
 20004 1759 0100     		.2byte	0x1
 20005 175b 5A       		.byte	0x5a
 20006 175c 00000000 		.4byte	0
 20007 1760 00000000 		.4byte	0
 20008              	.LLST41:
 20009 1764 00000000 		.4byte	.LVL93
 20010 1768 21000000 		.4byte	.LVL94-1
 20011 176c 0100     		.2byte	0x1
 20012 176e 52       		.byte	0x52
 20013 176f 21000000 		.4byte	.LVL94-1
 20014 1773 48030000 		.4byte	.LFE267
 20015 1777 0100     		.2byte	0x1
 20016 1779 5B       		.byte	0x5b
 20017 177a 00000000 		.4byte	0
 20018 177e 00000000 		.4byte	0
 20019              	.LLST42:
 20020 1782 00000000 		.4byte	.LVL93
 20021 1786 21000000 		.4byte	.LVL94-1
 20022 178a 0100     		.2byte	0x1
 20023 178c 53       		.byte	0x53
 20024 178d 21000000 		.4byte	.LVL94-1
 20025 1791 48030000 		.4byte	.LFE267
 20026 1795 0300     		.2byte	0x3
 20027 1797 91       		.byte	0x91
 20028 1798 BC7F     		.sleb128 -68
 20029 179a 00000000 		.4byte	0
 20030 179e 00000000 		.4byte	0
 20031              	.LLST43:
 20032 17a2 00000000 		.4byte	.LVL93
 20033 17a6 2E010000 		.4byte	.LVL126
 20034 17aa 0200     		.2byte	0x2
 20035 17ac 30       		.byte	0x30
 20036 17ad 9F       		.byte	0x9f
 20037 17ae 2E010000 		.4byte	.LVL126
 20038 17b2 7C010000 		.4byte	.LVL140
 20039 17b6 0200     		.2byte	0x2
 20040 17b8 31       		.byte	0x31
 20041 17b9 9F       		.byte	0x9f
 20042 17ba 7C010000 		.4byte	.LVL140
 20043 17be 86020000 		.4byte	.LVL185
 20044 17c2 0100     		.2byte	0x1
 20045 17c4 55       		.byte	0x55
 20046 17c5 86020000 		.4byte	.LVL185
 20047 17c9 D2020000 		.4byte	.LVL196
 20048 17cd 0200     		.2byte	0x2
 20049 17cf 30       		.byte	0x30
 20050 17d0 9F       		.byte	0x9f
 20051 17d1 D2020000 		.4byte	.LVL196
 20052 17d5 D6020000 		.4byte	.LVL198
ARM GAS  /tmp/ccTUBOn1.s 			page 353


 20053 17d9 0200     		.2byte	0x2
 20054 17db 31       		.byte	0x31
 20055 17dc 9F       		.byte	0x9f
 20056 17dd D6020000 		.4byte	.LVL198
 20057 17e1 48030000 		.4byte	.LFE267
 20058 17e5 0200     		.2byte	0x2
 20059 17e7 30       		.byte	0x30
 20060 17e8 9F       		.byte	0x9f
 20061 17e9 00000000 		.4byte	0
 20062 17ed 00000000 		.4byte	0
 20063              	.LLST44:
 20064 17f1 92000000 		.4byte	.LVL106
 20065 17f5 95000000 		.4byte	.LVL107-1
 20066 17f9 0100     		.2byte	0x1
 20067 17fb 50       		.byte	0x50
 20068 17fc 95000000 		.4byte	.LVL107-1
 20069 1800 48030000 		.4byte	.LFE267
 20070 1804 0100     		.2byte	0x1
 20071 1806 59       		.byte	0x59
 20072 1807 00000000 		.4byte	0
 20073 180b 00000000 		.4byte	0
 20074              	.LLST45:
 20075 180f 9A000000 		.4byte	.LVL108
 20076 1813 9D000000 		.4byte	.LVL109-1
 20077 1817 0200     		.2byte	0x2
 20078 1819 90       		.byte	0x90
 20079 181a 40       		.uleb128 0x40
 20080 181b 9D000000 		.4byte	.LVL109-1
 20081 181f 48030000 		.4byte	.LFE267
 20082 1823 0200     		.2byte	0x2
 20083 1825 90       		.byte	0x90
 20084 1826 55       		.uleb128 0x55
 20085 1827 00000000 		.4byte	0
 20086 182b 00000000 		.4byte	0
 20087              	.LLST46:
 20088 182f BA000000 		.4byte	.LVL113
 20089 1833 22010000 		.4byte	.LVL123
 20090 1837 0200     		.2byte	0x2
 20091 1839 30       		.byte	0x30
 20092 183a 9F       		.byte	0x9f
 20093 183b 28010000 		.4byte	.LVL125
 20094 183f 2E010000 		.4byte	.LVL126
 20095 1843 0100     		.2byte	0x1
 20096 1845 55       		.byte	0x55
 20097 1846 2E010000 		.4byte	.LVL126
 20098 184a 86020000 		.4byte	.LVL185
 20099 184e 0200     		.2byte	0x2
 20100 1850 31       		.byte	0x31
 20101 1851 9F       		.byte	0x9f
 20102 1852 86020000 		.4byte	.LVL185
 20103 1856 BE020000 		.4byte	.LVL193
 20104 185a 0200     		.2byte	0x2
 20105 185c 30       		.byte	0x30
 20106 185d 9F       		.byte	0x9f
 20107 185e BE020000 		.4byte	.LVL193
 20108 1862 CC020000 		.4byte	.LVL195
 20109 1866 0200     		.2byte	0x2
ARM GAS  /tmp/ccTUBOn1.s 			page 354


 20110 1868 31       		.byte	0x31
 20111 1869 9F       		.byte	0x9f
 20112 186a D2020000 		.4byte	.LVL196
 20113 186e D6020000 		.4byte	.LVL198
 20114 1872 0200     		.2byte	0x2
 20115 1874 31       		.byte	0x31
 20116 1875 9F       		.byte	0x9f
 20117 1876 D6020000 		.4byte	.LVL198
 20118 187a 48030000 		.4byte	.LFE267
 20119 187e 0200     		.2byte	0x2
 20120 1880 30       		.byte	0x30
 20121 1881 9F       		.byte	0x9f
 20122 1882 00000000 		.4byte	0
 20123 1886 00000000 		.4byte	0
 20124              	.LLST47:
 20125 188a 5E010000 		.4byte	.LVL134
 20126 188e 60010000 		.4byte	.LVL135
 20127 1892 0100     		.2byte	0x1
 20128 1894 50       		.byte	0x50
 20129 1895 60010000 		.4byte	.LVL135
 20130 1899 7C010000 		.4byte	.LVL140
 20131 189d 0100     		.2byte	0x1
 20132 189f 55       		.byte	0x55
 20133 18a0 8C010000 		.4byte	.LVL143
 20134 18a4 8E010000 		.4byte	.LVL144
 20135 18a8 0100     		.2byte	0x1
 20136 18aa 50       		.byte	0x50
 20137 18ab 8E010000 		.4byte	.LVL144
 20138 18af F8010000 		.4byte	.LVL163
 20139 18b3 0100     		.2byte	0x1
 20140 18b5 56       		.byte	0x56
 20141 18b6 F8010000 		.4byte	.LVL163
 20142 18ba 06020000 		.4byte	.LVL165
 20143 18be 0100     		.2byte	0x1
 20144 18c0 50       		.byte	0x50
 20145 18c1 06020000 		.4byte	.LVL165
 20146 18c5 86020000 		.4byte	.LVL185
 20147 18c9 0100     		.2byte	0x1
 20148 18cb 56       		.byte	0x56
 20149 18cc D2020000 		.4byte	.LVL196
 20150 18d0 D4020000 		.4byte	.LVL197
 20151 18d4 0100     		.2byte	0x1
 20152 18d6 55       		.byte	0x55
 20153 18d7 00000000 		.4byte	0
 20154 18db 00000000 		.4byte	0
 20155              	.LLST48:
 20156 18df F8010000 		.4byte	.LVL163
 20157 18e3 06020000 		.4byte	.LVL165
 20158 18e7 0600     		.2byte	0x6
 20159 18e9 9E       		.byte	0x9e
 20160 18ea 04       		.uleb128 0x4
 20161 18eb 00000000 		.4byte	0
 20162 18ef 06020000 		.4byte	.LVL165
 20163 18f3 86020000 		.4byte	.LVL185
 20164 18f7 0200     		.2byte	0x2
 20165 18f9 90       		.byte	0x90
 20166 18fa 51       		.uleb128 0x51
ARM GAS  /tmp/ccTUBOn1.s 			page 355


 20167 18fb 00000000 		.4byte	0
 20168 18ff 00000000 		.4byte	0
 20169              	.LLST49:
 20170 1903 F8010000 		.4byte	.LVL163
 20171 1907 06020000 		.4byte	.LVL165
 20172 190b 0600     		.2byte	0x6
 20173 190d 9E       		.byte	0x9e
 20174 190e 04       		.uleb128 0x4
 20175 190f 00000000 		.4byte	0
 20176 1913 06020000 		.4byte	.LVL165
 20177 1917 82020000 		.4byte	.LVL184
 20178 191b 0200     		.2byte	0x2
 20179 191d 90       		.byte	0x90
 20180 191e 50       		.uleb128 0x50
 20181 191f 00000000 		.4byte	0
 20182 1923 00000000 		.4byte	0
 20183              	.LLST50:
 20184 1927 32020000 		.4byte	.LVL175
 20185 192b 35020000 		.4byte	.LVL176-1
 20186 192f 0200     		.2byte	0x2
 20187 1931 90       		.byte	0x90
 20188 1932 40       		.uleb128 0x40
 20189 1933 35020000 		.4byte	.LVL176-1
 20190 1937 54020000 		.4byte	.LVL178
 20191 193b 0200     		.2byte	0x2
 20192 193d 90       		.byte	0x90
 20193 193e 52       		.uleb128 0x52
 20194 193f 54020000 		.4byte	.LVL178
 20195 1943 58020000 		.4byte	.LVL179
 20196 1947 0200     		.2byte	0x2
 20197 1949 90       		.byte	0x90
 20198 194a 40       		.uleb128 0x40
 20199 194b 58020000 		.4byte	.LVL179
 20200 194f 5C020000 		.4byte	.LVL180
 20201 1953 0800     		.2byte	0x8
 20202 1955 F5       		.byte	0xf5
 20203 1956 4F       		.uleb128 0x4f
 20204 1957 25       		.uleb128 0x25
 20205 1958 F5       		.byte	0xf5
 20206 1959 4D       		.uleb128 0x4d
 20207 195a 25       		.uleb128 0x25
 20208 195b 1E       		.byte	0x1e
 20209 195c 9F       		.byte	0x9f
 20210 195d 5C020000 		.4byte	.LVL180
 20211 1961 63020000 		.4byte	.LVL181-1
 20212 1965 0200     		.2byte	0x2
 20213 1967 90       		.byte	0x90
 20214 1968 4F       		.uleb128 0x4f
 20215 1969 00000000 		.4byte	0
 20216 196d 00000000 		.4byte	0
 20217              	.LLST51:
 20218 1971 54020000 		.4byte	.LVL178
 20219 1975 5C020000 		.4byte	.LVL180
 20220 1979 0200     		.2byte	0x2
 20221 197b 90       		.byte	0x90
 20222 197c 4F       		.uleb128 0x4f
 20223 197d 5C020000 		.4byte	.LVL180
ARM GAS  /tmp/ccTUBOn1.s 			page 356


 20224 1981 82020000 		.4byte	.LVL184
 20225 1985 0800     		.2byte	0x8
 20226 1987 F5       		.byte	0xf5
 20227 1988 51       		.uleb128 0x51
 20228 1989 25       		.uleb128 0x25
 20229 198a F5       		.byte	0xf5
 20230 198b 50       		.uleb128 0x50
 20231 198c 25       		.uleb128 0x25
 20232 198d 1B       		.byte	0x1b
 20233 198e 9F       		.byte	0x9f
 20234 198f 00000000 		.4byte	0
 20235 1993 00000000 		.4byte	0
 20236              	.LLST52:
 20237 1997 70000000 		.4byte	.LVL97
 20238 199b 72000000 		.4byte	.LVL98
 20239 199f 0200     		.2byte	0x2
 20240 19a1 30       		.byte	0x30
 20241 19a2 9F       		.byte	0x9f
 20242 19a3 72000000 		.4byte	.LVL98
 20243 19a7 78000000 		.4byte	.LVL99
 20244 19ab 0700     		.2byte	0x7
 20245 19ad 0A       		.byte	0xa
 20246 19ae F401     		.2byte	0x1f4
 20247 19b0 74       		.byte	0x74
 20248 19b1 00       		.sleb128 0
 20249 19b2 1C       		.byte	0x1c
 20250 19b3 9F       		.byte	0x9f
 20251 19b4 78000000 		.4byte	.LVL99
 20252 19b8 7A000000 		.4byte	.LVL100
 20253 19bc 0700     		.2byte	0x7
 20254 19be 0A       		.byte	0xa
 20255 19bf F501     		.2byte	0x1f5
 20256 19c1 74       		.byte	0x74
 20257 19c2 00       		.sleb128 0
 20258 19c3 1C       		.byte	0x1c
 20259 19c4 9F       		.byte	0x9f
 20260 19c5 7A000000 		.4byte	.LVL100
 20261 19c9 84000000 		.4byte	.LVL103
 20262 19cd 0700     		.2byte	0x7
 20263 19cf 0A       		.byte	0xa
 20264 19d0 F401     		.2byte	0x1f4
 20265 19d2 74       		.byte	0x74
 20266 19d3 00       		.sleb128 0
 20267 19d4 1C       		.byte	0x1c
 20268 19d5 9F       		.byte	0x9f
 20269 19d6 00000000 		.4byte	0
 20270 19da 00000000 		.4byte	0
 20271              	.LLST53:
 20272 19de BA000000 		.4byte	.LVL113
 20273 19e2 C0000000 		.4byte	.LVL114
 20274 19e6 0200     		.2byte	0x2
 20275 19e8 30       		.byte	0x30
 20276 19e9 9F       		.byte	0x9f
 20277 19ea C0000000 		.4byte	.LVL114
 20278 19ee C6020000 		.4byte	.LVL194
 20279 19f2 0100     		.2byte	0x1
 20280 19f4 57       		.byte	0x57
ARM GAS  /tmp/ccTUBOn1.s 			page 357


 20281 19f5 C6020000 		.4byte	.LVL194
 20282 19f9 CC020000 		.4byte	.LVL195
 20283 19fd 0300     		.2byte	0x3
 20284 19ff 77       		.byte	0x77
 20285 1a00 7F       		.sleb128 -1
 20286 1a01 9F       		.byte	0x9f
 20287 1a02 CC020000 		.4byte	.LVL195
 20288 1a06 48030000 		.4byte	.LFE267
 20289 1a0a 0100     		.2byte	0x1
 20290 1a0c 57       		.byte	0x57
 20291 1a0d 00000000 		.4byte	0
 20292 1a11 00000000 		.4byte	0
 20293              	.LLST54:
 20294 1a15 D4000000 		.4byte	.LVL115
 20295 1a19 E8000000 		.4byte	.LVL117
 20296 1a1d 0100     		.2byte	0x1
 20297 1a1f 54       		.byte	0x54
 20298 1a20 E8000000 		.4byte	.LVL117
 20299 1a24 F0000000 		.4byte	.LVL118
 20300 1a28 0300     		.2byte	0x3
 20301 1a2a 74       		.byte	0x74
 20302 1a2b 7F       		.sleb128 -1
 20303 1a2c 9F       		.byte	0x9f
 20304 1a2d F0000000 		.4byte	.LVL118
 20305 1a31 28010000 		.4byte	.LVL125
 20306 1a35 0100     		.2byte	0x1
 20307 1a37 54       		.byte	0x54
 20308 1a38 86020000 		.4byte	.LVL185
 20309 1a3c 96020000 		.4byte	.LVL187
 20310 1a40 0100     		.2byte	0x1
 20311 1a42 54       		.byte	0x54
 20312 1a43 BE020000 		.4byte	.LVL193
 20313 1a47 D2020000 		.4byte	.LVL196
 20314 1a4b 0300     		.2byte	0x3
 20315 1a4d 74       		.byte	0x74
 20316 1a4e 7F       		.sleb128 -1
 20317 1a4f 9F       		.byte	0x9f
 20318 1a50 00000000 		.4byte	0
 20319 1a54 00000000 		.4byte	0
 20320              	.LLST55:
 20321 1a58 D4000000 		.4byte	.LVL115
 20322 1a5c FE000000 		.4byte	.LVL120
 20323 1a60 0100     		.2byte	0x1
 20324 1a62 55       		.byte	0x55
 20325 1a63 FE000000 		.4byte	.LVL120
 20326 1a67 0A010000 		.4byte	.LVL121
 20327 1a6b 0200     		.2byte	0x2
 20328 1a6d 31       		.byte	0x31
 20329 1a6e 9F       		.byte	0x9f
 20330 1a6f 18010000 		.4byte	.LVL122
 20331 1a73 22010000 		.4byte	.LVL123
 20332 1a77 0100     		.2byte	0x1
 20333 1a79 55       		.byte	0x55
 20334 1a7a 86020000 		.4byte	.LVL185
 20335 1a7e 96020000 		.4byte	.LVL187
 20336 1a82 0200     		.2byte	0x2
 20337 1a84 31       		.byte	0x31
ARM GAS  /tmp/ccTUBOn1.s 			page 358


 20338 1a85 9F       		.byte	0x9f
 20339 1a86 BE020000 		.4byte	.LVL193
 20340 1a8a CC020000 		.4byte	.LVL195
 20341 1a8e 0100     		.2byte	0x1
 20342 1a90 55       		.byte	0x55
 20343 1a91 00000000 		.4byte	0
 20344 1a95 00000000 		.4byte	0
 20345              	.LLST56:
 20346 1a99 5E010000 		.4byte	.LVL134
 20347 1a9d 60010000 		.4byte	.LVL135
 20348 1aa1 0200     		.2byte	0x2
 20349 1aa3 30       		.byte	0x30
 20350 1aa4 9F       		.byte	0x9f
 20351 1aa5 60010000 		.4byte	.LVL135
 20352 1aa9 64010000 		.4byte	.LVL136
 20353 1aad 0700     		.2byte	0x7
 20354 1aaf 0A       		.byte	0xa
 20355 1ab0 D007     		.2byte	0x7d0
 20356 1ab2 74       		.byte	0x74
 20357 1ab3 00       		.sleb128 0
 20358 1ab4 1C       		.byte	0x1c
 20359 1ab5 9F       		.byte	0x9f
 20360 1ab6 64010000 		.4byte	.LVL136
 20361 1aba 66010000 		.4byte	.LVL137
 20362 1abe 0700     		.2byte	0x7
 20363 1ac0 0A       		.byte	0xa
 20364 1ac1 D107     		.2byte	0x7d1
 20365 1ac3 74       		.byte	0x74
 20366 1ac4 00       		.sleb128 0
 20367 1ac5 1C       		.byte	0x1c
 20368 1ac6 9F       		.byte	0x9f
 20369 1ac7 66010000 		.4byte	.LVL137
 20370 1acb 7C010000 		.4byte	.LVL140
 20371 1acf 0700     		.2byte	0x7
 20372 1ad1 0A       		.byte	0xa
 20373 1ad2 D007     		.2byte	0x7d0
 20374 1ad4 74       		.byte	0x74
 20375 1ad5 00       		.sleb128 0
 20376 1ad6 1C       		.byte	0x1c
 20377 1ad7 9F       		.byte	0x9f
 20378 1ad8 D2020000 		.4byte	.LVL196
 20379 1adc D6020000 		.4byte	.LVL198
 20380 1ae0 0700     		.2byte	0x7
 20381 1ae2 0A       		.byte	0xa
 20382 1ae3 D007     		.2byte	0x7d0
 20383 1ae5 74       		.byte	0x74
 20384 1ae6 00       		.sleb128 0
 20385 1ae7 1C       		.byte	0x1c
 20386 1ae8 9F       		.byte	0x9f
 20387 1ae9 00000000 		.4byte	0
 20388 1aed 00000000 		.4byte	0
 20389              	.LLST57:
 20390 1af1 8C010000 		.4byte	.LVL143
 20391 1af5 8E010000 		.4byte	.LVL144
 20392 1af9 0200     		.2byte	0x2
 20393 1afb 30       		.byte	0x30
 20394 1afc 9F       		.byte	0x9f
ARM GAS  /tmp/ccTUBOn1.s 			page 359


 20395 1afd 8E010000 		.4byte	.LVL144
 20396 1b01 92010000 		.4byte	.LVL145
 20397 1b05 0700     		.2byte	0x7
 20398 1b07 0A       		.byte	0xa
 20399 1b08 B80B     		.2byte	0xbb8
 20400 1b0a 74       		.byte	0x74
 20401 1b0b 00       		.sleb128 0
 20402 1b0c 1C       		.byte	0x1c
 20403 1b0d 9F       		.byte	0x9f
 20404 1b0e 92010000 		.4byte	.LVL145
 20405 1b12 94010000 		.4byte	.LVL146
 20406 1b16 0700     		.2byte	0x7
 20407 1b18 0A       		.byte	0xa
 20408 1b19 B90B     		.2byte	0xbb9
 20409 1b1b 74       		.byte	0x74
 20410 1b1c 00       		.sleb128 0
 20411 1b1d 1C       		.byte	0x1c
 20412 1b1e 9F       		.byte	0x9f
 20413 1b1f 94010000 		.4byte	.LVL146
 20414 1b23 A8010000 		.4byte	.LVL149
 20415 1b27 0700     		.2byte	0x7
 20416 1b29 0A       		.byte	0xa
 20417 1b2a B80B     		.2byte	0xbb8
 20418 1b2c 74       		.byte	0x74
 20419 1b2d 00       		.sleb128 0
 20420 1b2e 1C       		.byte	0x1c
 20421 1b2f 9F       		.byte	0x9f
 20422 1b30 00000000 		.4byte	0
 20423 1b34 00000000 		.4byte	0
 20424              	.LLST58:
 20425 1b38 BE010000 		.4byte	.LVL152
 20426 1b3c C0010000 		.4byte	.LVL153
 20427 1b40 0200     		.2byte	0x2
 20428 1b42 30       		.byte	0x30
 20429 1b43 9F       		.byte	0x9f
 20430 1b44 C0010000 		.4byte	.LVL153
 20431 1b48 C4010000 		.4byte	.LVL154
 20432 1b4c 0700     		.2byte	0x7
 20433 1b4e 0A       		.byte	0xa
 20434 1b4f 8813     		.2byte	0x1388
 20435 1b51 74       		.byte	0x74
 20436 1b52 00       		.sleb128 0
 20437 1b53 1C       		.byte	0x1c
 20438 1b54 9F       		.byte	0x9f
 20439 1b55 C4010000 		.4byte	.LVL154
 20440 1b59 C6010000 		.4byte	.LVL155
 20441 1b5d 0700     		.2byte	0x7
 20442 1b5f 0A       		.byte	0xa
 20443 1b60 8913     		.2byte	0x1389
 20444 1b62 74       		.byte	0x74
 20445 1b63 00       		.sleb128 0
 20446 1b64 1C       		.byte	0x1c
 20447 1b65 9F       		.byte	0x9f
 20448 1b66 C6010000 		.4byte	.LVL155
 20449 1b6a DC010000 		.4byte	.LVL158
 20450 1b6e 0700     		.2byte	0x7
 20451 1b70 0A       		.byte	0xa
ARM GAS  /tmp/ccTUBOn1.s 			page 360


 20452 1b71 8813     		.2byte	0x1388
 20453 1b73 74       		.byte	0x74
 20454 1b74 00       		.sleb128 0
 20455 1b75 1C       		.byte	0x1c
 20456 1b76 9F       		.byte	0x9f
 20457 1b77 00000000 		.4byte	0
 20458 1b7b 00000000 		.4byte	0
 20459              	.LLST59:
 20460 1b7f F8010000 		.4byte	.LVL163
 20461 1b83 06020000 		.4byte	.LVL165
 20462 1b87 0200     		.2byte	0x2
 20463 1b89 30       		.byte	0x30
 20464 1b8a 9F       		.byte	0x9f
 20465 1b8b 06020000 		.4byte	.LVL165
 20466 1b8f 16020000 		.4byte	.LVL169
 20467 1b93 0700     		.2byte	0x7
 20468 1b95 0A       		.byte	0xa
 20469 1b96 B80B     		.2byte	0xbb8
 20470 1b98 74       		.byte	0x74
 20471 1b99 00       		.sleb128 0
 20472 1b9a 1C       		.byte	0x1c
 20473 1b9b 9F       		.byte	0x9f
 20474 1b9c 16020000 		.4byte	.LVL169
 20475 1ba0 1A020000 		.4byte	.LVL170
 20476 1ba4 0700     		.2byte	0x7
 20477 1ba6 0A       		.byte	0xa
 20478 1ba7 B70B     		.2byte	0xbb7
 20479 1ba9 74       		.byte	0x74
 20480 1baa 00       		.sleb128 0
 20481 1bab 1C       		.byte	0x1c
 20482 1bac 9F       		.byte	0x9f
 20483 1bad 1C020000 		.4byte	.LVL171
 20484 1bb1 2A020000 		.4byte	.LVL173
 20485 1bb5 0700     		.2byte	0x7
 20486 1bb7 0A       		.byte	0xa
 20487 1bb8 B80B     		.2byte	0xbb8
 20488 1bba 74       		.byte	0x74
 20489 1bbb 00       		.sleb128 0
 20490 1bbc 1C       		.byte	0x1c
 20491 1bbd 9F       		.byte	0x9f
 20492 1bbe 00000000 		.4byte	0
 20493 1bc2 00000000 		.4byte	0
 20494              	.LLST31:
 20495 1bc6 00000000 		.4byte	.LVL73
 20496 1bca 07000000 		.4byte	.LVL74-1
 20497 1bce 0100     		.2byte	0x1
 20498 1bd0 50       		.byte	0x50
 20499 1bd1 07000000 		.4byte	.LVL74-1
 20500 1bd5 24000000 		.4byte	.LVL81
 20501 1bd9 0100     		.2byte	0x1
 20502 1bdb 55       		.byte	0x55
 20503 1bdc 24000000 		.4byte	.LVL81
 20504 1be0 2E000000 		.4byte	.LVL82
 20505 1be4 0300     		.2byte	0x3
 20506 1be6 75       		.byte	0x75
 20507 1be7 7F       		.sleb128 -1
 20508 1be8 9F       		.byte	0x9f
ARM GAS  /tmp/ccTUBOn1.s 			page 361


 20509 1be9 2E000000 		.4byte	.LVL82
 20510 1bed 70000000 		.4byte	.LFE266
 20511 1bf1 0400     		.2byte	0x4
 20512 1bf3 F3       		.byte	0xf3
 20513 1bf4 01       		.uleb128 0x1
 20514 1bf5 50       		.byte	0x50
 20515 1bf6 9F       		.byte	0x9f
 20516 1bf7 00000000 		.4byte	0
 20517 1bfb 00000000 		.4byte	0
 20518              	.LLST32:
 20519 1bff 18000000 		.4byte	.LVL78
 20520 1c03 50000000 		.4byte	.LVL86
 20521 1c07 0200     		.2byte	0x2
 20522 1c09 31       		.byte	0x31
 20523 1c0a 9F       		.byte	0x9f
 20524 1c0b 50000000 		.4byte	.LVL86
 20525 1c0f 6C000000 		.4byte	.LVL92
 20526 1c13 0100     		.2byte	0x1
 20527 1c15 54       		.byte	0x54
 20528 1c16 6C000000 		.4byte	.LVL92
 20529 1c1a 70000000 		.4byte	.LFE266
 20530 1c1e 0200     		.2byte	0x2
 20531 1c20 31       		.byte	0x31
 20532 1c21 9F       		.byte	0x9f
 20533 1c22 00000000 		.4byte	0
 20534 1c26 00000000 		.4byte	0
 20535              	.LLST33:
 20536 1c2a 18000000 		.4byte	.LVL78
 20537 1c2e 24000000 		.4byte	.LVL81
 20538 1c32 0100     		.2byte	0x1
 20539 1c34 55       		.byte	0x55
 20540 1c35 24000000 		.4byte	.LVL81
 20541 1c39 2E000000 		.4byte	.LVL82
 20542 1c3d 0300     		.2byte	0x3
 20543 1c3f 75       		.byte	0x75
 20544 1c40 7F       		.sleb128 -1
 20545 1c41 9F       		.byte	0x9f
 20546 1c42 2E000000 		.4byte	.LVL82
 20547 1c46 70000000 		.4byte	.LFE266
 20548 1c4a 0400     		.2byte	0x4
 20549 1c4c F3       		.byte	0xf3
 20550 1c4d 01       		.uleb128 0x1
 20551 1c4e 50       		.byte	0x50
 20552 1c4f 9F       		.byte	0x9f
 20553 1c50 00000000 		.4byte	0
 20554 1c54 00000000 		.4byte	0
 20555              	.LLST34:
 20556 1c58 22000000 		.4byte	.LVL80
 20557 1c5c 2E000000 		.4byte	.LVL82
 20558 1c60 0200     		.2byte	0x2
 20559 1c62 30       		.byte	0x30
 20560 1c63 9F       		.byte	0x9f
 20561 1c64 00000000 		.4byte	0
 20562 1c68 00000000 		.4byte	0
 20563              	.LLST35:
 20564 1c6c 36000000 		.4byte	.LVL83
 20565 1c70 3E000000 		.4byte	.LVL84
ARM GAS  /tmp/ccTUBOn1.s 			page 362


 20566 1c74 0D00     		.2byte	0xd
 20567 1c76 75       		.byte	0x75
 20568 1c77 00       		.sleb128 0
 20569 1c78 94       		.byte	0x94
 20570 1c79 01       		.byte	0x1
 20571 1c7a 08       		.byte	0x8
 20572 1c7b FF       		.byte	0xff
 20573 1c7c 1A       		.byte	0x1a
 20574 1c7d 71       		.byte	0x71
 20575 1c7e 00       		.sleb128 0
 20576 1c7f 38       		.byte	0x38
 20577 1c80 24       		.byte	0x24
 20578 1c81 21       		.byte	0x21
 20579 1c82 9F       		.byte	0x9f
 20580 1c83 3E000000 		.4byte	.LVL84
 20581 1c87 41000000 		.4byte	.LVL85-1
 20582 1c8b 1200     		.2byte	0x12
 20583 1c8d 75       		.byte	0x75
 20584 1c8e 00       		.sleb128 0
 20585 1c8f 94       		.byte	0x94
 20586 1c90 01       		.byte	0x1
 20587 1c91 08       		.byte	0x8
 20588 1c92 FF       		.byte	0xff
 20589 1c93 1A       		.byte	0x1a
 20590 1c94 75       		.byte	0x75
 20591 1c95 7F       		.sleb128 -1
 20592 1c96 94       		.byte	0x94
 20593 1c97 01       		.byte	0x1
 20594 1c98 08       		.byte	0x8
 20595 1c99 FF       		.byte	0xff
 20596 1c9a 1A       		.byte	0x1a
 20597 1c9b 38       		.byte	0x38
 20598 1c9c 24       		.byte	0x24
 20599 1c9d 21       		.byte	0x21
 20600 1c9e 9F       		.byte	0x9f
 20601 1c9f 00000000 		.4byte	0
 20602 1ca3 00000000 		.4byte	0
 20603              	.LLST27:
 20604 1ca7 00000000 		.4byte	.LVL67
 20605 1cab 12000000 		.4byte	.LVL69
 20606 1caf 0100     		.2byte	0x1
 20607 1cb1 50       		.byte	0x50
 20608 1cb2 12000000 		.4byte	.LVL69
 20609 1cb6 42000000 		.4byte	.LFE265
 20610 1cba 0100     		.2byte	0x1
 20611 1cbc 57       		.byte	0x57
 20612 1cbd 00000000 		.4byte	0
 20613 1cc1 00000000 		.4byte	0
 20614              	.LLST28:
 20615 1cc5 00000000 		.4byte	.LVL67
 20616 1cc9 38000000 		.4byte	.LVL71
 20617 1ccd 0200     		.2byte	0x2
 20618 1ccf 31       		.byte	0x31
 20619 1cd0 9F       		.byte	0x9f
 20620 1cd1 38000000 		.4byte	.LVL71
 20621 1cd5 3E000000 		.4byte	.LVL72
 20622 1cd9 0200     		.2byte	0x2
ARM GAS  /tmp/ccTUBOn1.s 			page 363


 20623 1cdb 30       		.byte	0x30
 20624 1cdc 9F       		.byte	0x9f
 20625 1cdd 00000000 		.4byte	0
 20626 1ce1 00000000 		.4byte	0
 20627              	.LLST29:
 20628 1ce5 04000000 		.4byte	.LVL68
 20629 1ce9 12000000 		.4byte	.LVL69
 20630 1ced 0100     		.2byte	0x1
 20631 1cef 50       		.byte	0x50
 20632 1cf0 12000000 		.4byte	.LVL69
 20633 1cf4 42000000 		.4byte	.LFE265
 20634 1cf8 0100     		.2byte	0x1
 20635 1cfa 57       		.byte	0x57
 20636 1cfb 00000000 		.4byte	0
 20637 1cff 00000000 		.4byte	0
 20638              	.LLST30:
 20639 1d03 04000000 		.4byte	.LVL68
 20640 1d07 12000000 		.4byte	.LVL69
 20641 1d0b 0200     		.2byte	0x2
 20642 1d0d 30       		.byte	0x30
 20643 1d0e 9F       		.byte	0x9f
 20644 1d0f 00000000 		.4byte	0
 20645 1d13 00000000 		.4byte	0
 20646              	.LLST22:
 20647 1d17 00000000 		.4byte	.LVL47
 20648 1d1b 07000000 		.4byte	.LVL48-1
 20649 1d1f 0100     		.2byte	0x1
 20650 1d21 50       		.byte	0x50
 20651 1d22 07000000 		.4byte	.LVL48-1
 20652 1d26 24000000 		.4byte	.LVL55
 20653 1d2a 0100     		.2byte	0x1
 20654 1d2c 55       		.byte	0x55
 20655 1d2d 24000000 		.4byte	.LVL55
 20656 1d31 2E000000 		.4byte	.LVL56
 20657 1d35 0300     		.2byte	0x3
 20658 1d37 75       		.byte	0x75
 20659 1d38 7F       		.sleb128 -1
 20660 1d39 9F       		.byte	0x9f
 20661 1d3a 2E000000 		.4byte	.LVL56
 20662 1d3e 70000000 		.4byte	.LFE264
 20663 1d42 0400     		.2byte	0x4
 20664 1d44 F3       		.byte	0xf3
 20665 1d45 01       		.uleb128 0x1
 20666 1d46 50       		.byte	0x50
 20667 1d47 9F       		.byte	0x9f
 20668 1d48 00000000 		.4byte	0
 20669 1d4c 00000000 		.4byte	0
 20670              	.LLST23:
 20671 1d50 18000000 		.4byte	.LVL52
 20672 1d54 50000000 		.4byte	.LVL60
 20673 1d58 0200     		.2byte	0x2
 20674 1d5a 31       		.byte	0x31
 20675 1d5b 9F       		.byte	0x9f
 20676 1d5c 50000000 		.4byte	.LVL60
 20677 1d60 6C000000 		.4byte	.LVL66
 20678 1d64 0100     		.2byte	0x1
 20679 1d66 54       		.byte	0x54
ARM GAS  /tmp/ccTUBOn1.s 			page 364


 20680 1d67 6C000000 		.4byte	.LVL66
 20681 1d6b 70000000 		.4byte	.LFE264
 20682 1d6f 0200     		.2byte	0x2
 20683 1d71 31       		.byte	0x31
 20684 1d72 9F       		.byte	0x9f
 20685 1d73 00000000 		.4byte	0
 20686 1d77 00000000 		.4byte	0
 20687              	.LLST24:
 20688 1d7b 18000000 		.4byte	.LVL52
 20689 1d7f 24000000 		.4byte	.LVL55
 20690 1d83 0100     		.2byte	0x1
 20691 1d85 55       		.byte	0x55
 20692 1d86 24000000 		.4byte	.LVL55
 20693 1d8a 2E000000 		.4byte	.LVL56
 20694 1d8e 0300     		.2byte	0x3
 20695 1d90 75       		.byte	0x75
 20696 1d91 7F       		.sleb128 -1
 20697 1d92 9F       		.byte	0x9f
 20698 1d93 2E000000 		.4byte	.LVL56
 20699 1d97 70000000 		.4byte	.LFE264
 20700 1d9b 0400     		.2byte	0x4
 20701 1d9d F3       		.byte	0xf3
 20702 1d9e 01       		.uleb128 0x1
 20703 1d9f 50       		.byte	0x50
 20704 1da0 9F       		.byte	0x9f
 20705 1da1 00000000 		.4byte	0
 20706 1da5 00000000 		.4byte	0
 20707              	.LLST25:
 20708 1da9 36000000 		.4byte	.LVL57
 20709 1dad 3E000000 		.4byte	.LVL58
 20710 1db1 0D00     		.2byte	0xd
 20711 1db3 75       		.byte	0x75
 20712 1db4 00       		.sleb128 0
 20713 1db5 94       		.byte	0x94
 20714 1db6 01       		.byte	0x1
 20715 1db7 08       		.byte	0x8
 20716 1db8 FF       		.byte	0xff
 20717 1db9 1A       		.byte	0x1a
 20718 1dba 71       		.byte	0x71
 20719 1dbb 00       		.sleb128 0
 20720 1dbc 38       		.byte	0x38
 20721 1dbd 24       		.byte	0x24
 20722 1dbe 21       		.byte	0x21
 20723 1dbf 9F       		.byte	0x9f
 20724 1dc0 3E000000 		.4byte	.LVL58
 20725 1dc4 41000000 		.4byte	.LVL59-1
 20726 1dc8 1200     		.2byte	0x12
 20727 1dca 75       		.byte	0x75
 20728 1dcb 00       		.sleb128 0
 20729 1dcc 94       		.byte	0x94
 20730 1dcd 01       		.byte	0x1
 20731 1dce 08       		.byte	0x8
 20732 1dcf FF       		.byte	0xff
 20733 1dd0 1A       		.byte	0x1a
 20734 1dd1 75       		.byte	0x75
 20735 1dd2 7F       		.sleb128 -1
 20736 1dd3 94       		.byte	0x94
ARM GAS  /tmp/ccTUBOn1.s 			page 365


 20737 1dd4 01       		.byte	0x1
 20738 1dd5 08       		.byte	0x8
 20739 1dd6 FF       		.byte	0xff
 20740 1dd7 1A       		.byte	0x1a
 20741 1dd8 38       		.byte	0x38
 20742 1dd9 24       		.byte	0x24
 20743 1dda 21       		.byte	0x21
 20744 1ddb 9F       		.byte	0x9f
 20745 1ddc 00000000 		.4byte	0
 20746 1de0 00000000 		.4byte	0
 20747              	.LLST26:
 20748 1de4 22000000 		.4byte	.LVL54
 20749 1de8 2E000000 		.4byte	.LVL56
 20750 1dec 0200     		.2byte	0x2
 20751 1dee 30       		.byte	0x30
 20752 1def 9F       		.byte	0x9f
 20753 1df0 00000000 		.4byte	0
 20754 1df4 00000000 		.4byte	0
 20755              	.LLST18:
 20756 1df8 00000000 		.4byte	.LVL41
 20757 1dfc 12000000 		.4byte	.LVL43
 20758 1e00 0100     		.2byte	0x1
 20759 1e02 50       		.byte	0x50
 20760 1e03 12000000 		.4byte	.LVL43
 20761 1e07 42000000 		.4byte	.LFE263
 20762 1e0b 0100     		.2byte	0x1
 20763 1e0d 57       		.byte	0x57
 20764 1e0e 00000000 		.4byte	0
 20765 1e12 00000000 		.4byte	0
 20766              	.LLST19:
 20767 1e16 00000000 		.4byte	.LVL41
 20768 1e1a 38000000 		.4byte	.LVL45
 20769 1e1e 0200     		.2byte	0x2
 20770 1e20 31       		.byte	0x31
 20771 1e21 9F       		.byte	0x9f
 20772 1e22 38000000 		.4byte	.LVL45
 20773 1e26 3E000000 		.4byte	.LVL46
 20774 1e2a 0200     		.2byte	0x2
 20775 1e2c 30       		.byte	0x30
 20776 1e2d 9F       		.byte	0x9f
 20777 1e2e 00000000 		.4byte	0
 20778 1e32 00000000 		.4byte	0
 20779              	.LLST20:
 20780 1e36 04000000 		.4byte	.LVL42
 20781 1e3a 12000000 		.4byte	.LVL43
 20782 1e3e 0100     		.2byte	0x1
 20783 1e40 50       		.byte	0x50
 20784 1e41 12000000 		.4byte	.LVL43
 20785 1e45 42000000 		.4byte	.LFE263
 20786 1e49 0100     		.2byte	0x1
 20787 1e4b 57       		.byte	0x57
 20788 1e4c 00000000 		.4byte	0
 20789 1e50 00000000 		.4byte	0
 20790              	.LLST21:
 20791 1e54 04000000 		.4byte	.LVL42
 20792 1e58 12000000 		.4byte	.LVL43
 20793 1e5c 0200     		.2byte	0x2
ARM GAS  /tmp/ccTUBOn1.s 			page 366


 20794 1e5e 30       		.byte	0x30
 20795 1e5f 9F       		.byte	0x9f
 20796 1e60 00000000 		.4byte	0
 20797 1e64 00000000 		.4byte	0
 20798              	.LLST4:
 20799 1e68 00000000 		.4byte	.LVL10
 20800 1e6c 0F000000 		.4byte	.LVL12-1
 20801 1e70 0100     		.2byte	0x1
 20802 1e72 50       		.byte	0x50
 20803 1e73 0F000000 		.4byte	.LVL12-1
 20804 1e77 56000000 		.4byte	.LFE262
 20805 1e7b 0400     		.2byte	0x4
 20806 1e7d F3       		.byte	0xf3
 20807 1e7e 01       		.uleb128 0x1
 20808 1e7f 50       		.byte	0x50
 20809 1e80 9F       		.byte	0x9f
 20810 1e81 00000000 		.4byte	0
 20811 1e85 00000000 		.4byte	0
 20812              	.LLST5:
 20813 1e89 00000000 		.4byte	.LVL10
 20814 1e8d 0F000000 		.4byte	.LVL12-1
 20815 1e91 0100     		.2byte	0x1
 20816 1e93 51       		.byte	0x51
 20817 1e94 0F000000 		.4byte	.LVL12-1
 20818 1e98 56000000 		.4byte	.LFE262
 20819 1e9c 0100     		.2byte	0x1
 20820 1e9e 56       		.byte	0x56
 20821 1e9f 00000000 		.4byte	0
 20822 1ea3 00000000 		.4byte	0
 20823              	.LLST6:
 20824 1ea7 00000000 		.4byte	.LVL10
 20825 1eab 0F000000 		.4byte	.LVL12-1
 20826 1eaf 0100     		.2byte	0x1
 20827 1eb1 52       		.byte	0x52
 20828 1eb2 0F000000 		.4byte	.LVL12-1
 20829 1eb6 56000000 		.4byte	.LFE262
 20830 1eba 0400     		.2byte	0x4
 20831 1ebc F3       		.byte	0xf3
 20832 1ebd 01       		.uleb128 0x1
 20833 1ebe 52       		.byte	0x52
 20834 1ebf 9F       		.byte	0x9f
 20835 1ec0 00000000 		.4byte	0
 20836 1ec4 00000000 		.4byte	0
 20837              	.LLST7:
 20838 1ec8 00000000 		.4byte	.LVL10
 20839 1ecc 2A000000 		.4byte	.LVL16
 20840 1ed0 0200     		.2byte	0x2
 20841 1ed2 31       		.byte	0x31
 20842 1ed3 9F       		.byte	0x9f
 20843 1ed4 2A000000 		.4byte	.LVL16
 20844 1ed8 36000000 		.4byte	.LVL19
 20845 1edc 0100     		.2byte	0x1
 20846 1ede 54       		.byte	0x54
 20847 1edf 36000000 		.4byte	.LVL19
 20848 1ee3 4A000000 		.4byte	.LVL21
 20849 1ee7 0200     		.2byte	0x2
 20850 1ee9 31       		.byte	0x31
ARM GAS  /tmp/ccTUBOn1.s 			page 367


 20851 1eea 9F       		.byte	0x9f
 20852 1eeb 4A000000 		.4byte	.LVL21
 20853 1eef 56000000 		.4byte	.LFE262
 20854 1ef3 0100     		.2byte	0x1
 20855 1ef5 54       		.byte	0x54
 20856 1ef6 00000000 		.4byte	0
 20857 1efa 00000000 		.4byte	0
 20858              	.LLST0:
 20859 1efe 00000000 		.4byte	.LVL0
 20860 1f02 10000000 		.4byte	.LVL3
 20861 1f06 0100     		.2byte	0x1
 20862 1f08 50       		.byte	0x50
 20863 1f09 10000000 		.4byte	.LVL3
 20864 1f0d 40000000 		.4byte	.LFE261
 20865 1f11 0100     		.2byte	0x1
 20866 1f13 55       		.byte	0x55
 20867 1f14 00000000 		.4byte	0
 20868 1f18 00000000 		.4byte	0
 20869              	.LLST1:
 20870 1f1c 00000000 		.4byte	.LVL0
 20871 1f20 0E000000 		.4byte	.LVL2
 20872 1f24 0100     		.2byte	0x1
 20873 1f26 51       		.byte	0x51
 20874 1f27 0E000000 		.4byte	.LVL2
 20875 1f2b 40000000 		.4byte	.LFE261
 20876 1f2f 0400     		.2byte	0x4
 20877 1f31 F3       		.byte	0xf3
 20878 1f32 01       		.uleb128 0x1
 20879 1f33 51       		.byte	0x51
 20880 1f34 9F       		.byte	0x9f
 20881 1f35 00000000 		.4byte	0
 20882 1f39 00000000 		.4byte	0
 20883              	.LLST2:
 20884 1f3d 00000000 		.4byte	.LVL0
 20885 1f41 06000000 		.4byte	.LVL1
 20886 1f45 0100     		.2byte	0x1
 20887 1f47 52       		.byte	0x52
 20888 1f48 06000000 		.4byte	.LVL1
 20889 1f4c 40000000 		.4byte	.LFE261
 20890 1f50 0400     		.2byte	0x4
 20891 1f52 F3       		.byte	0xf3
 20892 1f53 01       		.uleb128 0x1
 20893 1f54 52       		.byte	0x52
 20894 1f55 9F       		.byte	0x9f
 20895 1f56 00000000 		.4byte	0
 20896 1f5a 00000000 		.4byte	0
 20897              	.LLST3:
 20898 1f5e 00000000 		.4byte	.LVL0
 20899 1f62 18000000 		.4byte	.LVL5
 20900 1f66 0200     		.2byte	0x2
 20901 1f68 31       		.byte	0x31
 20902 1f69 9F       		.byte	0x9f
 20903 1f6a 18000000 		.4byte	.LVL5
 20904 1f6e 1C000000 		.4byte	.LVL6
 20905 1f72 0100     		.2byte	0x1
 20906 1f74 50       		.byte	0x50
 20907 1f75 1C000000 		.4byte	.LVL6
ARM GAS  /tmp/ccTUBOn1.s 			page 368


 20908 1f79 36000000 		.4byte	.LVL9
 20909 1f7d 0200     		.2byte	0x2
 20910 1f7f 31       		.byte	0x31
 20911 1f80 9F       		.byte	0x9f
 20912 1f81 36000000 		.4byte	.LVL9
 20913 1f85 40000000 		.4byte	.LFE261
 20914 1f89 0100     		.2byte	0x1
 20915 1f8b 50       		.byte	0x50
 20916 1f8c 00000000 		.4byte	0
 20917 1f90 00000000 		.4byte	0
 20918              	.LLST16:
 20919 1f94 00000000 		.4byte	.LVL39
 20920 1f98 07000000 		.4byte	.LVL40-1
 20921 1f9c 0100     		.2byte	0x1
 20922 1f9e 50       		.byte	0x50
 20923 1f9f 07000000 		.4byte	.LVL40-1
 20924 1fa3 08000000 		.4byte	.LFE260
 20925 1fa7 0400     		.2byte	0x4
 20926 1fa9 F3       		.byte	0xf3
 20927 1faa 01       		.uleb128 0x1
 20928 1fab 50       		.byte	0x50
 20929 1fac 9F       		.byte	0x9f
 20930 1fad 00000000 		.4byte	0
 20931 1fb1 00000000 		.4byte	0
 20932              	.LLST17:
 20933 1fb5 00000000 		.4byte	.LVL39
 20934 1fb9 07000000 		.4byte	.LVL40-1
 20935 1fbd 0100     		.2byte	0x1
 20936 1fbf 51       		.byte	0x51
 20937 1fc0 07000000 		.4byte	.LVL40-1
 20938 1fc4 08000000 		.4byte	.LFE260
 20939 1fc8 0400     		.2byte	0x4
 20940 1fca F3       		.byte	0xf3
 20941 1fcb 01       		.uleb128 0x1
 20942 1fcc 51       		.byte	0x51
 20943 1fcd 9F       		.byte	0x9f
 20944 1fce 00000000 		.4byte	0
 20945 1fd2 00000000 		.4byte	0
 20946              	.LLST14:
 20947 1fd6 00000000 		.4byte	.LVL37
 20948 1fda 07000000 		.4byte	.LVL38-1
 20949 1fde 0100     		.2byte	0x1
 20950 1fe0 50       		.byte	0x50
 20951 1fe1 07000000 		.4byte	.LVL38-1
 20952 1fe5 08000000 		.4byte	.LFE259
 20953 1fe9 0400     		.2byte	0x4
 20954 1feb F3       		.byte	0xf3
 20955 1fec 01       		.uleb128 0x1
 20956 1fed 50       		.byte	0x50
 20957 1fee 9F       		.byte	0x9f
 20958 1fef 00000000 		.4byte	0
 20959 1ff3 00000000 		.4byte	0
 20960              	.LLST15:
 20961 1ff7 00000000 		.4byte	.LVL37
 20962 1ffb 07000000 		.4byte	.LVL38-1
 20963 1fff 0100     		.2byte	0x1
 20964 2001 51       		.byte	0x51
ARM GAS  /tmp/ccTUBOn1.s 			page 369


 20965 2002 07000000 		.4byte	.LVL38-1
 20966 2006 08000000 		.4byte	.LFE259
 20967 200a 0400     		.2byte	0x4
 20968 200c F3       		.byte	0xf3
 20969 200d 01       		.uleb128 0x1
 20970 200e 51       		.byte	0x51
 20971 200f 9F       		.byte	0x9f
 20972 2010 00000000 		.4byte	0
 20973 2014 00000000 		.4byte	0
 20974              	.LLST12:
 20975 2018 00000000 		.4byte	.LVL35
 20976 201c 07000000 		.4byte	.LVL36-1
 20977 2020 0100     		.2byte	0x1
 20978 2022 50       		.byte	0x50
 20979 2023 07000000 		.4byte	.LVL36-1
 20980 2027 08000000 		.4byte	.LFE258
 20981 202b 0400     		.2byte	0x4
 20982 202d F3       		.byte	0xf3
 20983 202e 01       		.uleb128 0x1
 20984 202f 50       		.byte	0x50
 20985 2030 9F       		.byte	0x9f
 20986 2031 00000000 		.4byte	0
 20987 2035 00000000 		.4byte	0
 20988              	.LLST13:
 20989 2039 00000000 		.4byte	.LVL35
 20990 203d 07000000 		.4byte	.LVL36-1
 20991 2041 0100     		.2byte	0x1
 20992 2043 51       		.byte	0x51
 20993 2044 07000000 		.4byte	.LVL36-1
 20994 2048 08000000 		.4byte	.LFE258
 20995 204c 0400     		.2byte	0x4
 20996 204e F3       		.byte	0xf3
 20997 204f 01       		.uleb128 0x1
 20998 2050 51       		.byte	0x51
 20999 2051 9F       		.byte	0x9f
 21000 2052 00000000 		.4byte	0
 21001 2056 00000000 		.4byte	0
 21002              	.LLST10:
 21003 205a 00000000 		.4byte	.LVL33
 21004 205e 07000000 		.4byte	.LVL34-1
 21005 2062 0100     		.2byte	0x1
 21006 2064 50       		.byte	0x50
 21007 2065 07000000 		.4byte	.LVL34-1
 21008 2069 08000000 		.4byte	.LFE257
 21009 206d 0400     		.2byte	0x4
 21010 206f F3       		.byte	0xf3
 21011 2070 01       		.uleb128 0x1
 21012 2071 50       		.byte	0x50
 21013 2072 9F       		.byte	0x9f
 21014 2073 00000000 		.4byte	0
 21015 2077 00000000 		.4byte	0
 21016              	.LLST11:
 21017 207b 00000000 		.4byte	.LVL33
 21018 207f 07000000 		.4byte	.LVL34-1
 21019 2083 0100     		.2byte	0x1
 21020 2085 51       		.byte	0x51
 21021 2086 07000000 		.4byte	.LVL34-1
ARM GAS  /tmp/ccTUBOn1.s 			page 370


 21022 208a 08000000 		.4byte	.LFE257
 21023 208e 0400     		.2byte	0x4
 21024 2090 F3       		.byte	0xf3
 21025 2091 01       		.uleb128 0x1
 21026 2092 51       		.byte	0x51
 21027 2093 9F       		.byte	0x9f
 21028 2094 00000000 		.4byte	0
 21029 2098 00000000 		.4byte	0
 21030              	.LLST8:
 21031 209c 0E000000 		.4byte	.LVL24
 21032 20a0 18000000 		.4byte	.LVL25
 21033 20a4 0200     		.2byte	0x2
 21034 20a6 30       		.byte	0x30
 21035 20a7 9F       		.byte	0x9f
 21036 20a8 00000000 		.4byte	0
 21037 20ac 00000000 		.4byte	0
 21038              		.section	.debug_aranges,"",%progbits
 21039 0000 A4000000 		.4byte	0xa4
 21040 0004 0200     		.2byte	0x2
 21041 0006 00000000 		.4byte	.Ldebug_info0
 21042 000a 04       		.byte	0x4
 21043 000b 00       		.byte	0
 21044 000c 0000     		.2byte	0
 21045 000e 0000     		.2byte	0
 21046 0010 00000000 		.4byte	.LFB261
 21047 0014 40000000 		.4byte	.LFE261-.LFB261
 21048 0018 00000000 		.4byte	.LFB262
 21049 001c 56000000 		.4byte	.LFE262-.LFB262
 21050 0020 00000000 		.4byte	.LFB256
 21051 0024 90000000 		.4byte	.LFE256-.LFB256
 21052 0028 00000000 		.4byte	.LFB257
 21053 002c 08000000 		.4byte	.LFE257-.LFB257
 21054 0030 00000000 		.4byte	.LFB258
 21055 0034 08000000 		.4byte	.LFE258-.LFB258
 21056 0038 00000000 		.4byte	.LFB259
 21057 003c 08000000 		.4byte	.LFE259-.LFB259
 21058 0040 00000000 		.4byte	.LFB260
 21059 0044 08000000 		.4byte	.LFE260-.LFB260
 21060 0048 00000000 		.4byte	.LFB263
 21061 004c 42000000 		.4byte	.LFE263-.LFB263
 21062 0050 00000000 		.4byte	.LFB264
 21063 0054 70000000 		.4byte	.LFE264-.LFB264
 21064 0058 00000000 		.4byte	.LFB265
 21065 005c 42000000 		.4byte	.LFE265-.LFB265
 21066 0060 00000000 		.4byte	.LFB266
 21067 0064 70000000 		.4byte	.LFE266-.LFB266
 21068 0068 00000000 		.4byte	.LFB267
 21069 006c 48030000 		.4byte	.LFE267-.LFB267
 21070 0070 00000000 		.4byte	.LFB268
 21071 0074 F8020000 		.4byte	.LFE268-.LFB268
 21072 0078 00000000 		.4byte	.LFB269
 21073 007c 04010000 		.4byte	.LFE269-.LFB269
 21074 0080 00000000 		.4byte	.LFB270
 21075 0084 C4020000 		.4byte	.LFE270-.LFB270
 21076 0088 00000000 		.4byte	.LFB271
 21077 008c 4C020000 		.4byte	.LFE271-.LFB271
 21078 0090 00000000 		.4byte	.LFB272
ARM GAS  /tmp/ccTUBOn1.s 			page 371


 21079 0094 7C030000 		.4byte	.LFE272-.LFB272
 21080 0098 00000000 		.4byte	.LFB273
 21081 009c 00020000 		.4byte	.LFE273-.LFB273
 21082 00a0 00000000 		.4byte	0
 21083 00a4 00000000 		.4byte	0
 21084              		.section	.debug_ranges,"",%progbits
 21085              	.Ldebug_ranges0:
 21086 0000 2C000000 		.4byte	.LBB2
 21087 0004 34000000 		.4byte	.LBE2
 21088 0008 36000000 		.4byte	.LBB3
 21089 000c 3C000000 		.4byte	.LBE3
 21090 0010 00000000 		.4byte	0
 21091 0014 00000000 		.4byte	0
 21092 0018 28000000 		.4byte	.LBB9
 21093 001c 50000000 		.4byte	.LBE9
 21094 0020 6E000000 		.4byte	.LBB10
 21095 0024 70000000 		.4byte	.LBE10
 21096 0028 00000000 		.4byte	0
 21097 002c 00000000 		.4byte	0
 21098 0030 28000000 		.4byte	.LBB12
 21099 0034 50000000 		.4byte	.LBE12
 21100 0038 6E000000 		.4byte	.LBB14
 21101 003c 70000000 		.4byte	.LBE14
 21102 0040 00000000 		.4byte	0
 21103 0044 00000000 		.4byte	0
 21104 0048 BA000000 		.4byte	.LBB16
 21105 004c 28010000 		.4byte	.LBE16
 21106 0050 86020000 		.4byte	.LBB28
 21107 0054 96020000 		.4byte	.LBE28
 21108 0058 BE020000 		.4byte	.LBB29
 21109 005c D2020000 		.4byte	.LBE29
 21110 0060 D6020000 		.4byte	.LBB31
 21111 0064 48030000 		.4byte	.LBE31
 21112 0068 00000000 		.4byte	0
 21113 006c 00000000 		.4byte	0
 21114 0070 BC000000 		.4byte	.LBB17
 21115 0074 CC000000 		.4byte	.LBE17
 21116 0078 D0000000 		.4byte	.LBB18
 21117 007c 14010000 		.4byte	.LBE18
 21118 0080 18010000 		.4byte	.LBB19
 21119 0084 22010000 		.4byte	.LBE19
 21120 0088 86020000 		.4byte	.LBB20
 21121 008c 96020000 		.4byte	.LBE20
 21122 0090 BE020000 		.4byte	.LBB21
 21123 0094 C4020000 		.4byte	.LBE21
 21124 0098 C8020000 		.4byte	.LBB22
 21125 009c CC020000 		.4byte	.LBE22
 21126 00a0 D6020000 		.4byte	.LBB23
 21127 00a4 48030000 		.4byte	.LBE23
 21128 00a8 00000000 		.4byte	0
 21129 00ac 00000000 		.4byte	0
 21130 00b0 60010000 		.4byte	.LBB24
 21131 00b4 7C010000 		.4byte	.LBE24
 21132 00b8 D4020000 		.4byte	.LBB30
 21133 00bc D6020000 		.4byte	.LBE30
 21134 00c0 00000000 		.4byte	0
 21135 00c4 00000000 		.4byte	0
ARM GAS  /tmp/ccTUBOn1.s 			page 372


 21136 00c8 AC000000 		.4byte	.LBB33
 21137 00cc B0000000 		.4byte	.LBE33
 21138 00d0 C8000000 		.4byte	.LBB42
 21139 00d4 44010000 		.4byte	.LBE42
 21140 00d8 06020000 		.4byte	.LBB45
 21141 00dc 14020000 		.4byte	.LBE45
 21142 00e0 3A020000 		.4byte	.LBB46
 21143 00e4 50020000 		.4byte	.LBE46
 21144 00e8 60020000 		.4byte	.LBB47
 21145 00ec F8020000 		.4byte	.LBE47
 21146 00f0 00000000 		.4byte	0
 21147 00f4 00000000 		.4byte	0
 21148 00f8 AC000000 		.4byte	.LBB34
 21149 00fc B0000000 		.4byte	.LBE34
 21150 0100 C8000000 		.4byte	.LBB35
 21151 0104 E4000000 		.4byte	.LBE35
 21152 0108 E8000000 		.4byte	.LBB36
 21153 010c 2C010000 		.4byte	.LBE36
 21154 0110 30010000 		.4byte	.LBB37
 21155 0114 3A010000 		.4byte	.LBE37
 21156 0118 06020000 		.4byte	.LBB38
 21157 011c 14020000 		.4byte	.LBE38
 21158 0120 3A020000 		.4byte	.LBB39
 21159 0124 3E020000 		.4byte	.LBE39
 21160 0128 46020000 		.4byte	.LBB40
 21161 012c 4A020000 		.4byte	.LBE40
 21162 0130 60020000 		.4byte	.LBB41
 21163 0134 F8020000 		.4byte	.LBE41
 21164 0138 00000000 		.4byte	0
 21165 013c 00000000 		.4byte	0
 21166 0140 5A010000 		.4byte	.LBB43
 21167 0144 62010000 		.4byte	.LBE43
 21168 0148 72010000 		.4byte	.LBB44
 21169 014c B0010000 		.4byte	.LBE44
 21170 0150 00000000 		.4byte	0
 21171 0154 00000000 		.4byte	0
 21172 0158 DC000000 		.4byte	.LBB50
 21173 015c EC000000 		.4byte	.LBE50
 21174 0160 F0000000 		.4byte	.LBB51
 21175 0164 F4000000 		.4byte	.LBE51
 21176 0168 FA000000 		.4byte	.LBB52
 21177 016c 62010000 		.4byte	.LBE52
 21178 0170 74010000 		.4byte	.LBB53
 21179 0174 82010000 		.4byte	.LBE53
 21180 0178 5A020000 		.4byte	.LBB58
 21181 017c 5E020000 		.4byte	.LBE58
 21182 0180 6A020000 		.4byte	.LBB59
 21183 0184 70020000 		.4byte	.LBE59
 21184 0188 7C020000 		.4byte	.LBB60
 21185 018c 80020000 		.4byte	.LBE60
 21186 0190 00000000 		.4byte	0
 21187 0194 00000000 		.4byte	0
 21188 0198 98010000 		.4byte	.LBB54
 21189 019c 9C010000 		.4byte	.LBE54
 21190 01a0 A0010000 		.4byte	.LBB56
 21191 01a4 B0010000 		.4byte	.LBE56
 21192 01a8 B4010000 		.4byte	.LBB57
ARM GAS  /tmp/ccTUBOn1.s 			page 373


 21193 01ac 38020000 		.4byte	.LBE57
 21194 01b0 8C020000 		.4byte	.LBB61
 21195 01b4 C4020000 		.4byte	.LBE61
 21196 01b8 00000000 		.4byte	0
 21197 01bc 00000000 		.4byte	0
 21198 01c0 CE000000 		.4byte	.LBB63
 21199 01c4 B2010000 		.4byte	.LBE63
 21200 01c8 12020000 		.4byte	.LBB70
 21201 01cc 20020000 		.4byte	.LBE70
 21202 01d0 00000000 		.4byte	0
 21203 01d4 00000000 		.4byte	0
 21204 01d8 D4000000 		.4byte	.LBB64
 21205 01dc DC000000 		.4byte	.LBE64
 21206 01e0 FE000000 		.4byte	.LBB65
 21207 01e4 02010000 		.4byte	.LBE65
 21208 01e8 06010000 		.4byte	.LBB66
 21209 01ec 2C010000 		.4byte	.LBE66
 21210 01f0 12020000 		.4byte	.LBB68
 21211 01f4 20020000 		.4byte	.LBE68
 21212 01f8 00000000 		.4byte	0
 21213 01fc 00000000 		.4byte	0
 21214 0200 F4000000 		.4byte	.LBB73
 21215 0204 F8000000 		.4byte	.LBE73
 21216 0208 FE000000 		.4byte	.LBB74
 21217 020c 14010000 		.4byte	.LBE74
 21218 0210 2A010000 		.4byte	.LBB75
 21219 0214 5C010000 		.4byte	.LBE75
 21220 0218 00000000 		.4byte	0
 21221 021c 00000000 		.4byte	0
 21222 0220 E6010000 		.4byte	.LBB76
 21223 0224 EE010000 		.4byte	.LBE76
 21224 0228 F2010000 		.4byte	.LBB77
 21225 022c 08020000 		.4byte	.LBE77
 21226 0230 0C020000 		.4byte	.LBB78
 21227 0234 10020000 		.4byte	.LBE78
 21228 0238 16020000 		.4byte	.LBB79
 21229 023c 22020000 		.4byte	.LBE79
 21230 0240 26020000 		.4byte	.LBB80
 21231 0244 46020000 		.4byte	.LBE80
 21232 0248 00000000 		.4byte	0
 21233 024c 00000000 		.4byte	0
 21234 0250 5A020000 		.4byte	.LBB81
 21235 0254 5E020000 		.4byte	.LBE81
 21236 0258 64020000 		.4byte	.LBB82
 21237 025c 82020000 		.4byte	.LBE82
 21238 0260 00000000 		.4byte	0
 21239 0264 00000000 		.4byte	0
 21240 0268 C6000000 		.4byte	.LBB83
 21241 026c C8000000 		.4byte	.LBE83
 21242 0270 CC000000 		.4byte	.LBB84
 21243 0274 22010000 		.4byte	.LBE84
 21244 0278 00000000 		.4byte	0
 21245 027c 00000000 		.4byte	0
 21246 0280 00000000 		.4byte	.LFB261
 21247 0284 40000000 		.4byte	.LFE261
 21248 0288 00000000 		.4byte	.LFB262
 21249 028c 56000000 		.4byte	.LFE262
ARM GAS  /tmp/ccTUBOn1.s 			page 374


 21250 0290 00000000 		.4byte	.LFB256
 21251 0294 90000000 		.4byte	.LFE256
 21252 0298 00000000 		.4byte	.LFB257
 21253 029c 08000000 		.4byte	.LFE257
 21254 02a0 00000000 		.4byte	.LFB258
 21255 02a4 08000000 		.4byte	.LFE258
 21256 02a8 00000000 		.4byte	.LFB259
 21257 02ac 08000000 		.4byte	.LFE259
 21258 02b0 00000000 		.4byte	.LFB260
 21259 02b4 08000000 		.4byte	.LFE260
 21260 02b8 00000000 		.4byte	.LFB263
 21261 02bc 42000000 		.4byte	.LFE263
 21262 02c0 00000000 		.4byte	.LFB264
 21263 02c4 70000000 		.4byte	.LFE264
 21264 02c8 00000000 		.4byte	.LFB265
 21265 02cc 42000000 		.4byte	.LFE265
 21266 02d0 00000000 		.4byte	.LFB266
 21267 02d4 70000000 		.4byte	.LFE266
 21268 02d8 00000000 		.4byte	.LFB267
 21269 02dc 48030000 		.4byte	.LFE267
 21270 02e0 00000000 		.4byte	.LFB268
 21271 02e4 F8020000 		.4byte	.LFE268
 21272 02e8 00000000 		.4byte	.LFB269
 21273 02ec 04010000 		.4byte	.LFE269
 21274 02f0 00000000 		.4byte	.LFB270
 21275 02f4 C4020000 		.4byte	.LFE270
 21276 02f8 00000000 		.4byte	.LFB271
 21277 02fc 4C020000 		.4byte	.LFE271
 21278 0300 00000000 		.4byte	.LFB272
 21279 0304 7C030000 		.4byte	.LFE272
 21280 0308 00000000 		.4byte	.LFB273
 21281 030c 00020000 		.4byte	.LFE273
 21282 0310 00000000 		.4byte	0
 21283 0314 00000000 		.4byte	0
 21284              		.section	.debug_line,"",%progbits
 21285              	.Ldebug_line0:
 21286 0000 D20C0000 		.section	.debug_str,"MS",%progbits,1
 21286      0200C905 
 21286      00000201 
 21286      FB0E0D00 
 21286      01010101 
 21287              	.LASF1130:
 21288 0000 636F6D6D 		.ascii	"comm_can_detect_all_foc_res_size\000"
 21288      5F63616E 
 21288      5F646574 
 21288      6563745F 
 21288      616C6C5F 
 21289              	.LASF774:
 21290 0021 5553425F 		.ascii	"USB_STOP\000"
 21290      53544F50 
 21290      00
 21291              	.LASF446:
 21292 002a 4348554B 		.ascii	"CHUK_CTRL_TYPE_CURRENT\000"
 21292      5F435452 
 21292      4C5F5459 
 21292      50455F43 
 21292      55525245 
ARM GAS  /tmp/ccTUBOn1.s 			page 375


 21293              	.LASF135:
 21294 0041 706F7274 		.ascii	"port_intctx\000"
 21294      5F696E74 
 21294      63747800 
 21295              	.LASF401:
 21296 004d 6374726C 		.ascii	"ctrl_type\000"
 21296      5F747970 
 21296      6500
 21297              	.LASF269:
 21298 0057 6C5F6D61 		.ascii	"l_max_erpm_fbrake\000"
 21298      785F6572 
 21298      706D5F66 
 21298      6272616B 
 21298      6500
 21299              	.LASF157:
 21300 0069 63685F70 		.ascii	"ch_ptrsize\000"
 21300      74727369 
 21300      7A6500
 21301              	.LASF265:
 21302 0074 6C5F6162 		.ascii	"l_abs_current_max\000"
 21302      735F6375 
 21302      7272656E 
 21302      745F6D61 
 21302      7800
 21303              	.LASF1009:
 21304 0086 5F6D6272 		.ascii	"_mbrtowc_state\000"
 21304      746F7763 
 21304      5F737461 
 21304      746500
 21305              	.LASF568:
 21306 0095 434F4D4D 		.ascii	"COMM_EXT_NRF_ESB_SEND_DATA\000"
 21306      5F455854 
 21306      5F4E5246 
 21306      5F455342 
 21306      5F53454E 
 21307              	.LASF392:
 21308 00b0 50504D5F 		.ascii	"PPM_CTRL_TYPE_NONE\000"
 21308      4354524C 
 21308      5F545950 
 21308      455F4E4F 
 21308      4E4500
 21309              	.LASF1135:
 21310 00c3 636F6D6D 		.ascii	"comm_can_detect_all_foc_res_clear\000"
 21310      5F63616E 
 21310      5F646574 
 21310      6563745F 
 21310      616C6C5F 
 21311              	.LASF29:
 21312 00e5 6D73675F 		.ascii	"msg_t\000"
 21312      7400
 21313              	.LASF627:
 21314 00eb 61667268 		.ascii	"afrh\000"
 21314      00
 21315              	.LASF669:
 21316 00f0 4F504D4F 		.ascii	"OPMODE_SMBUS_DEVICE\000"
 21316      44455F53 
 21316      4D425553 
ARM GAS  /tmp/ccTUBOn1.s 			page 376


 21316      5F444556 
 21316      49434500 
 21317              	.LASF514:
 21318 0104 434F4D4D 		.ascii	"COMM_FW_VERSION\000"
 21318      5F46575F 
 21318      56455253 
 21318      494F4E00 
 21319              	.LASF594:
 21320 0114 464C4153 		.ascii	"FLASH_ERROR_PGA\000"
 21320      485F4552 
 21320      524F525F 
 21320      50474100 
 21321              	.LASF1089:
 21322 0124 636F6E66 		.ascii	"conf_general_measure_flux_linkage\000"
 21322      5F67656E 
 21322      6572616C 
 21322      5F6D6561 
 21322      73757265 
 21323              	.LASF542:
 21324 0146 434F4D4D 		.ascii	"COMM_DETECT_HALL_FOC\000"
 21324      5F444554 
 21324      4543545F 
 21324      48414C4C 
 21324      5F464F43 
 21325              	.LASF593:
 21326 015b 464C4153 		.ascii	"FLASH_ERROR_PGP\000"
 21326      485F4552 
 21326      524F525F 
 21326      50475000 
 21327              	.LASF592:
 21328 016b 464C4153 		.ascii	"FLASH_ERROR_PGS\000"
 21328      485F4552 
 21328      524F525F 
 21328      50475300 
 21329              	.LASF318:
 21330 017b 666F635F 		.ascii	"foc_observer_gain_slow\000"
 21330      6F627365 
 21330      72766572 
 21330      5F676169 
 21330      6E5F736C 
 21331              	.LASF467:
 21332 0192 4E52465F 		.ascii	"NRF_RETR_DELAY_750US\000"
 21332      52455452 
 21332      5F44454C 
 21332      41595F37 
 21332      35305553 
 21333              	.LASF833:
 21334 01a7 44494550 		.ascii	"DIEPTXF0\000"
 21334      54584630 
 21334      00
 21335              	.LASF910:
 21336 01b0 55534244 		.ascii	"USBD1\000"
 21336      3100
 21337              	.LASF642:
 21338 01b6 43414E5F 		.ascii	"CAN_STOP\000"
 21338      53544F50 
 21338      00
ARM GAS  /tmp/ccTUBOn1.s 			page 377


 21339              	.LASF341:
 21340 01bf 6770645F 		.ascii	"gpd_current_ki\000"
 21340      63757272 
 21340      656E745F 
 21340      6B6900
 21341              	.LASF170:
 21342 01ce 63665F6F 		.ascii	"cf_off_time\000"
 21342      66665F74 
 21342      696D6500 
 21343              	.LASF82:
 21344 01da 63685F73 		.ascii	"ch_system_t\000"
 21344      79737465 
 21344      6D5F7400 
 21345              	.LASF3:
 21346 01e6 5F5F7569 		.ascii	"__uint8_t\000"
 21346      6E74385F 
 21346      7400
 21347              	.LASF142:
 21348 01f0 77747365 		.ascii	"wtsemp\000"
 21348      6D7000
 21349              	.LASF579:
 21350 01f7 434F4D4D 		.ascii	"COMM_GET_IMU_DATA\000"
 21350      5F474554 
 21350      5F494D55 
 21350      5F444154 
 21350      4100
 21351              	.LASF403:
 21352 0209 68797374 		.ascii	"hyst\000"
 21352      00
 21353              	.LASF376:
 21354 020e 5F426F6F 		.ascii	"_Bool\000"
 21354      6C00
 21355              	.LASF1146:
 21356 0214 74696D65 		.ascii	"timeout_get_brake_current\000"
 21356      6F75745F 
 21356      6765745F 
 21356      6272616B 
 21356      655F6375 
 21357              	.LASF687:
 21358 022e 646D6172 		.ascii	"dmarx\000"
 21358      7800
 21359              	.LASF963:
 21360 0234 5F6D6273 		.ascii	"_mbstate\000"
 21360      74617465 
 21360      00
 21361              	.LASF942:
 21362 023d 5F617465 		.ascii	"_atexit\000"
 21362      78697400 
 21363              	.LASF608:
 21364 0245 73656C66 		.ascii	"selfindex\000"
 21364      696E6465 
 21364      7800
 21365              	.LASF439:
 21366 024f 63635F62 		.ascii	"cc_button_inverted\000"
 21366      7574746F 
 21366      6E5F696E 
 21366      76657274 
ARM GAS  /tmp/ccTUBOn1.s 			page 378


 21366      656400
 21367              	.LASF491:
 21368 0262 43414E5F 		.ascii	"CAN_STATUS_DISABLED\000"
 21368      53544154 
 21368      55535F44 
 21368      49534142 
 21368      4C454400 
 21369              	.LASF852:
 21370 0276 72657376 		.ascii	"resvd700\000"
 21370      64373030 
 21370      00
 21371              	.LASF958:
 21372 027f 5F6E6275 		.ascii	"_nbuf\000"
 21372      6600
 21373              	.LASF863:
 21374 0285 44564255 		.ascii	"DVBUSDIS\000"
 21374      53444953 
 21374      00
 21375              	.LASF681:
 21376 028e 6572726F 		.ascii	"errors\000"
 21376      727300
 21377              	.LASF749:
 21378 0295 73706963 		.ascii	"spicallback_t\000"
 21378      616C6C62 
 21378      61636B5F 
 21378      7400
 21379              	.LASF78:
 21380 02a3 76745F73 		.ascii	"vt_systime\000"
 21380      79737469 
 21380      6D6500
 21381              	.LASF364:
 21382 02ae 6D5F6472 		.ascii	"m_drv8301_oc_adj\000"
 21382      76383330 
 21382      315F6F63 
 21382      5F61646A 
 21382      00
 21383              	.LASF772:
 21384 02bf 75736265 		.ascii	"usbep_t\000"
 21384      705F7400 
 21385              	.LASF571:
 21386 02c7 434F4D4D 		.ascii	"COMM_DETECT_MOTOR_FLUX_LINKAGE_OPENLOOP\000"
 21386      5F444554 
 21386      4543545F 
 21386      4D4F544F 
 21386      525F464C 
 21387              	.LASF932:
 21388 02ef 5F5F746D 		.ascii	"__tm_mon\000"
 21388      5F6D6F6E 
 21388      00
 21389              	.LASF441:
 21390 02f8 766F6C74 		.ascii	"voltage_inverted\000"
 21390      6167655F 
 21390      696E7665 
 21390      72746564 
 21390      00
 21391              	.LASF940:
 21392 0309 5F666E74 		.ascii	"_fntypes\000"
ARM GAS  /tmp/ccTUBOn1.s 			page 379


 21392      79706573 
 21392      00
 21393              	.LASF1123:
 21394 0312 636F6E66 		.ascii	"conf_general_read_eeprom_var_hw\000"
 21394      5F67656E 
 21394      6572616C 
 21394      5F726561 
 21394      645F6565 
 21395              	.LASF151:
 21396 0332 6D5F6E65 		.ascii	"m_next\000"
 21396      787400
 21397              	.LASF631:
 21398 0339 50434461 		.ascii	"PCData\000"
 21398      746100
 21399              	.LASF275:
 21400 0340 6C5F736C 		.ascii	"l_slow_abs_current\000"
 21400      6F775F61 
 21400      62735F63 
 21400      75727265 
 21400      6E7400
 21401              	.LASF970:
 21402 0353 5F696E63 		.ascii	"_inc\000"
 21402      00
 21403              	.LASF943:
 21404 0358 5F696E64 		.ascii	"_ind\000"
 21404      00
 21405              	.LASF1067:
 21406 035d 64696666 		.ascii	"diff_mid\000"
 21406      5F6D6964 
 21406      00
 21407              	.LASF574:
 21408 0366 434F4D4D 		.ascii	"COMM_ERASE_NEW_APP_ALL_CAN\000"
 21408      5F455241 
 21408      53455F4E 
 21408      45575F41 
 21408      50505F41 
 21409              	.LASF1076:
 21410 0381 73616D70 		.ascii	"samples\000"
 21410      6C657300 
 21411              	.LASF837:
 21412 0389 47434346 		.ascii	"GCCFG\000"
 21412      4700
 21413              	.LASF264:
 21414 038f 6C5F696E 		.ascii	"l_in_current_min\000"
 21414      5F637572 
 21414      72656E74 
 21414      5F6D696E 
 21414      00
 21415              	.LASF706:
 21416 03a0 42445452 		.ascii	"BDTR\000"
 21416      00
 21417              	.LASF1060:
 21418 03a5 6761696E 		.ascii	"gain\000"
 21418      00
 21419              	.LASF566:
 21420 03aa 434F4D4D 		.ascii	"COMM_EXT_NRF_PRESENT\000"
 21420      5F455854 
ARM GAS  /tmp/ccTUBOn1.s 			page 380


 21420      5F4E5246 
 21420      5F505245 
 21420      53454E54 
 21421              	.LASF1043:
 21422 03bf 73656E64 		.ascii	"send_mcconf_on_success\000"
 21422      5F6D6363 
 21422      6F6E665F 
 21422      6F6E5F73 
 21422      75636365 
 21423              	.LASF679:
 21424 03d6 49324343 		.ascii	"I2CConfig\000"
 21424      6F6E6669 
 21424      6700
 21425              	.LASF18:
 21426 03e0 75696E74 		.ascii	"uint16_t\000"
 21426      31365F74 
 21426      00
 21427              	.LASF455:
 21428 03e9 4E52465F 		.ascii	"NRF_POWER_M18DBM\000"
 21428      504F5745 
 21428      525F4D31 
 21428      3844424D 
 21428      00
 21429              	.LASF688:
 21430 03fa 646D6174 		.ascii	"dmatx\000"
 21430      7800
 21431              	.LASF908:
 21432 0400 736F665F 		.ascii	"sof_cb\000"
 21432      636200
 21433              	.LASF312:
 21434 0407 666F635F 		.ascii	"foc_encoder_cos_gain\000"
 21434      656E636F 
 21434      6465725F 
 21434      636F735F 
 21434      6761696E 
 21435              	.LASF949:
 21436 041c 5F666C61 		.ascii	"_flags\000"
 21436      677300
 21437              	.LASF624:
 21438 0423 6F737065 		.ascii	"ospeedr\000"
 21438      65647200 
 21439              	.LASF597:
 21440 042b 464C4153 		.ascii	"FLASH_ERROR_OPERATION\000"
 21440      485F4552 
 21440      524F525F 
 21440      4F504552 
 21440      4154494F 
 21441              	.LASF840:
 21442 0441 44494550 		.ascii	"DIEPTXF\000"
 21442      54584600 
 21443              	.LASF176:
 21444 0449 656C5F6E 		.ascii	"el_next\000"
 21444      65787400 
 21445              	.LASF353:
 21446 0451 63635F73 		.ascii	"cc_startup_boost_duty\000"
 21446      74617274 
 21446      75705F62 
ARM GAS  /tmp/ccTUBOn1.s 			page 381


 21446      6F6F7374 
 21446      5F647574 
 21447              	.LASF980:
 21448 0467 5F637674 		.ascii	"_cvtlen\000"
 21448      6C656E00 
 21449              	.LASF59:
 21450 046f 63685F74 		.ascii	"ch_threads_queue\000"
 21450      68726561 
 21450      64735F71 
 21450      75657565 
 21450      00
 21451              	.LASF1023:
 21452 0480 5F5F6664 		.ascii	"__fdlibm_svid\000"
 21452      6C69626D 
 21452      5F737669 
 21452      6400
 21453              	.LASF984:
 21454 048e 5F736967 		.ascii	"_sig_func\000"
 21454      5F66756E 
 21454      6300
 21455              	.LASF266:
 21456 0498 6C5F6D69 		.ascii	"l_min_erpm\000"
 21456      6E5F6572 
 21456      706D00
 21457              	.LASF39:
 21458 04a3 705F6E65 		.ascii	"p_newer\000"
 21458      77657200 
 21459              	.LASF850:
 21460 04ab 48505254 		.ascii	"HPRT\000"
 21460      00
 21461              	.LASF1056:
 21462 04b0 6F6C645F 		.ascii	"old_observer_gain\000"
 21462      6F627365 
 21462      72766572 
 21462      5F676169 
 21462      6E00
 21463              	.LASF252:
 21464 04c2 43414E5F 		.ascii	"CAN_BAUD\000"
 21464      42415544 
 21464      00
 21465              	.LASF1080:
 21466 04cb 76715F61 		.ascii	"vq_avg\000"
 21466      766700
 21467              	.LASF804:
 21468 04d2 4843494E 		.ascii	"HCINT\000"
 21468      5400
 21469              	.LASF167:
 21470 04d8 63665F6F 		.ascii	"cf_off_flags\000"
 21470      66665F66 
 21470      6C616773 
 21470      00
 21471              	.LASF962:
 21472 04e5 5F6C6F63 		.ascii	"_lock\000"
 21472      6B00
 21473              	.LASF486:
 21474 04eb 72657472 		.ascii	"retries\000"
 21474      69657300 
ARM GAS  /tmp/ccTUBOn1.s 			page 382


 21475              	.LASF743:
 21476 04f3 5350495F 		.ascii	"SPI_STOP\000"
 21476      53544F50 
 21476      00
 21477              	.LASF1016:
 21478 04fc 5F756E75 		.ascii	"_unused\000"
 21478      73656400 
 21479              	.LASF424:
 21480 0504 4144435F 		.ascii	"ADC_CTRL_TYPE_CURRENT_NOREV_BRAKE_BUTTON\000"
 21480      4354524C 
 21480      5F545950 
 21480      455F4355 
 21480      5252454E 
 21481              	.LASF371:
 21482 052d 73695F67 		.ascii	"si_gear_ratio\000"
 21482      6561725F 
 21482      72617469 
 21482      6F00
 21483              	.LASF466:
 21484 053b 4E52465F 		.ascii	"NRF_RETR_DELAY_500US\000"
 21484      52455452 
 21484      5F44454C 
 21484      41595F35 
 21484      30305553 
 21485              	.LASF458:
 21486 0550 4E52465F 		.ascii	"NRF_POWER_0DBM\000"
 21486      504F5745 
 21486      525F3044 
 21486      424D00
 21487              	.LASF155:
 21488 055f 63685F73 		.ascii	"ch_size\000"
 21488      697A6500 
 21489              	.LASF846:
 21490 0567 48505458 		.ascii	"HPTXSTS\000"
 21490      53545300 
 21491              	.LASF623:
 21492 056f 6F747970 		.ascii	"otyper\000"
 21492      657200
 21493              	.LASF808:
 21494 0576 72657376 		.ascii	"resvd18\000"
 21494      64313800 
 21495              	.LASF1037:
 21496 057e 69645F6E 		.ascii	"id_new\000"
 21496      657700
 21497              	.LASF277:
 21498 0585 6C5F7465 		.ascii	"l_temp_fet_end\000"
 21498      6D705F66 
 21498      65745F65 
 21498      6E6400
 21499              	.LASF614:
 21500 0594 4F545950 		.ascii	"OTYPER\000"
 21500      455200
 21501              	.LASF747:
 21502 059b 73706973 		.ascii	"spistate_t\000"
 21502      74617465 
 21502      5F7400
 21503              	.LASF802:
ARM GAS  /tmp/ccTUBOn1.s 			page 383


 21504 05a6 48434348 		.ascii	"HCCHAR\000"
 21504      415200
 21505              	.LASF375:
 21506 05ad 73695F62 		.ascii	"si_battery_ah\000"
 21506      61747465 
 21506      72795F61 
 21506      6800
 21507              	.LASF939:
 21508 05bb 5F64736F 		.ascii	"_dso_handle\000"
 21508      5F68616E 
 21508      646C6500 
 21509              	.LASF663:
 21510 05c7 4932435F 		.ascii	"I2C_ACTIVE_RX\000"
 21510      41435449 
 21510      56455F52 
 21510      5800
 21511              	.LASF34:
 21512 05d5 74687265 		.ascii	"thread_t\000"
 21512      61645F74 
 21512      00
 21513              	.LASF178:
 21514 05de 656C5F65 		.ascii	"el_events\000"
 21514      76656E74 
 21514      7300
 21515              	.LASF655:
 21516 05e8 736C6565 		.ascii	"sleep_event\000"
 21516      705F6576 
 21516      656E7400 
 21517              	.LASF77:
 21518 05f4 63685F76 		.ascii	"ch_virtual_timers_list\000"
 21518      69727475 
 21518      616C5F74 
 21518      696D6572 
 21518      735F6C69 
 21519              	.LASF609:
 21520 060b 76656374 		.ascii	"vector\000"
 21520      6F7200
 21521              	.LASF19:
 21522 0612 696E7433 		.ascii	"int32_t\000"
 21522      325F7400 
 21523              	.LASF1004:
 21524 061a 5F776374 		.ascii	"_wctomb_state\000"
 21524      6F6D625F 
 21524      73746174 
 21524      6500
 21525              	.LASF1105:
 21526 0628 72706D5F 		.ascii	"rpm_sum\000"
 21526      73756D00 
 21527              	.LASF677:
 21528 0630 636C6F63 		.ascii	"clock_speed\000"
 21528      6B5F7370 
 21528      65656400 
 21529              	.LASF33:
 21530 063c 73797374 		.ascii	"systime_t\000"
 21530      696D655F 
 21530      7400
 21531              	.LASF657:
ARM GAS  /tmp/ccTUBOn1.s 			page 384


 21532 0646 43414E44 		.ascii	"CANDriver\000"
 21532      72697665 
 21532      7200
 21533              	.LASF165:
 21534 0650 63665F6F 		.ascii	"cf_off_stklimit\000"
 21534      66665F73 
 21534      746B6C69 
 21534      6D697400 
 21535              	.LASF116:
 21536 0660 4D304152 		.ascii	"M0AR\000"
 21536      00
 21537              	.LASF243:
 21538 0665 44525638 		.ascii	"DRV8301_OC_LIMIT\000"
 21538      3330315F 
 21538      4F435F4C 
 21538      494D4954 
 21538      00
 21539              	.LASF667:
 21540 0676 69326366 		.ascii	"i2cflags_t\000"
 21540      6C616773 
 21540      5F7400
 21541              	.LASF847:
 21542 0681 4841494E 		.ascii	"HAINT\000"
 21542      5400
 21543              	.LASF227:
 21544 0687 4641554C 		.ascii	"FAULT_CODE_OVER_TEMP_FET\000"
 21544      545F434F 
 21544      44455F4F 
 21544      5645525F 
 21544      54454D50 
 21545              	.LASF1053:
 21546 06a0 6F6C645F 		.ascii	"old_flux_linkage\000"
 21546      666C7578 
 21546      5F6C696E 
 21546      6B616765 
 21546      00
 21547              	.LASF481:
 21548 06b1 4E52465F 		.ascii	"NRF_RETR_DELAY\000"
 21548      52455452 
 21548      5F44454C 
 21548      415900
 21549              	.LASF562:
 21550 06c0 434F4D4D 		.ascii	"COMM_SET_MCCONF_TEMP\000"
 21550      5F534554 
 21550      5F4D4343 
 21550      4F4E465F 
 21550      54454D50 
 21551              	.LASF111:
 21552 06d5 46413152 		.ascii	"FA1R\000"
 21552      00
 21553              	.LASF199:
 21554 06da 50574D5F 		.ascii	"PWM_MODE_BIPOLAR\000"
 21554      4D4F4445 
 21554      5F424950 
 21554      4F4C4152 
 21554      00
 21555              	.LASF200:
ARM GAS  /tmp/ccTUBOn1.s 			page 385


 21556 06eb 6D635F70 		.ascii	"mc_pwm_mode\000"
 21556      776D5F6D 
 21556      6F646500 
 21557              	.LASF844:
 21558 06f7 48464E55 		.ascii	"HFNUM\000"
 21558      4D00
 21559              	.LASF194:
 21560 06fd 716E6F74 		.ascii	"qnotify_t\000"
 21560      6966795F 
 21560      7400
 21561              	.LASF248:
 21562 0707 43414E5F 		.ascii	"CAN_BAUD_125K\000"
 21562      42415544 
 21562      5F313235 
 21562      4B00
 21563              	.LASF1041:
 21564 0715 636F6E66 		.ascii	"conf_general_detect_apply_all_foc\000"
 21564      5F67656E 
 21564      6572616C 
 21564      5F646574 
 21564      6563745F 
 21565              	.LASF510:
 21566 0737 6170705F 		.ascii	"app_uart_baudrate\000"
 21566      75617274 
 21566      5F626175 
 21566      64726174 
 21566      6500
 21567              	.LASF607:
 21568 0749 69736869 		.ascii	"ishift\000"
 21568      667400
 21569              	.LASF866:
 21570 0750 44494550 		.ascii	"DIEPEMPMSK\000"
 21570      454D504D 
 21570      534B00
 21571              	.LASF1187:
 21572 075b 5F5F6275 		.ascii	"__builtin_memset\000"
 21572      696C7469 
 21572      6E5F6D65 
 21572      6D736574 
 21572      00
 21573              	.LASF189:
 21574 076c 715F746F 		.ascii	"q_top\000"
 21574      7000
 21575              	.LASF951:
 21576 0772 5F6C6266 		.ascii	"_lbfsize\000"
 21576      73697A65 
 21576      00
 21577              	.LASF795:
 21578 077b 75645F73 		.ascii	"ud_string\000"
 21578      7472696E 
 21578      6700
 21579              	.LASF680:
 21580 0785 49324344 		.ascii	"I2CDriver\000"
 21580      72697665 
 21580      7200
 21581              	.LASF662:
 21582 078f 4932435F 		.ascii	"I2C_ACTIVE_TX\000"
ARM GAS  /tmp/ccTUBOn1.s 			page 386


 21582      41435449 
 21582      56455F54 
 21582      5800
 21583              	.LASF737:
 21584 079d 72656164 		.ascii	"read\000"
 21584      00
 21585              	.LASF668:
 21586 07a2 4F504D4F 		.ascii	"OPMODE_I2C\000"
 21586      44455F49 
 21586      324300
 21587              	.LASF212:
 21588 07ad 4F55545F 		.ascii	"OUT_AUX_MODE_OFF\000"
 21588      4155585F 
 21588      4D4F4445 
 21588      5F4F4646 
 21588      00
 21589              	.LASF856:
 21590 07be 72657376 		.ascii	"resvd80C\000"
 21590      64383043 
 21590      00
 21591              	.LASF905:
 21592 07c7 6576656E 		.ascii	"event_cb\000"
 21592      745F6362 
 21592      00
 21593              	.LASF982:
 21594 07d0 5F6E6577 		.ascii	"_new\000"
 21594      00
 21595              	.LASF823:
 21596 07d5 474F5447 		.ascii	"GOTGCTL\000"
 21596      43544C00 
 21597              	.LASF761:
 21598 07dd 6570306E 		.ascii	"ep0next\000"
 21598      65787400 
 21599              	.LASF630:
 21600 07e5 50424461 		.ascii	"PBData\000"
 21600      746100
 21601              	.LASF666:
 21602 07ec 69326361 		.ascii	"i2caddr_t\000"
 21602      6464725F 
 21602      7400
 21603              	.LASF85:
 21604 07f6 76746C69 		.ascii	"vtlist\000"
 21604      737400
 21605              	.LASF692:
 21606 07fd 4943555F 		.ascii	"ICU_READY\000"
 21606      52454144 
 21606      5900
 21607              	.LASF387:
 21608 0807 6170705F 		.ascii	"app_use\000"
 21608      75736500 
 21609              	.LASF121:
 21610 080f 54524953 		.ascii	"TRISE\000"
 21610      4500
 21611              	.LASF862:
 21612 0815 72657376 		.ascii	"resvd824\000"
 21612      64383234 
 21612      00
ARM GAS  /tmp/ccTUBOn1.s 			page 387


 21613              	.LASF47:
 21614 081e 705F7761 		.ascii	"p_waiting\000"
 21614      6974696E 
 21614      6700
 21615              	.LASF699:
 21616 0828 70636372 		.ascii	"pccrp\000"
 21616      7000
 21617              	.LASF186:
 21618 082e 715F7761 		.ascii	"q_waiting\000"
 21618      6974696E 
 21618      6700
 21619              	.LASF93:
 21620 0838 43414E5F 		.ascii	"CAN_TxMailBox_TypeDef\000"
 21620      54784D61 
 21620      696C426F 
 21620      785F5479 
 21620      70654465 
 21621              	.LASF84:
 21622 084e 726C6973 		.ascii	"rlist\000"
 21622      7400
 21623              	.LASF55:
 21624 0854 74687265 		.ascii	"threads_list_t\000"
 21624      6164735F 
 21624      6C697374 
 21624      5F7400
 21625              	.LASF161:
 21626 0863 63665F6F 		.ascii	"cf_off_ctx\000"
 21626      66665F63 
 21626      747800
 21627              	.LASF195:
 21628 086e 696E7075 		.ascii	"input_queue_t\000"
 21628      745F7175 
 21628      6575655F 
 21628      7400
 21629              	.LASF1017:
 21630 087c 5F5F6C6F 		.ascii	"__lock\000"
 21630      636B00
 21631              	.LASF294:
 21632 0883 736C5F6D 		.ascii	"sl_min_erpm_cycle_int_limit\000"
 21632      696E5F65 
 21632      72706D5F 
 21632      6379636C 
 21632      655F696E 
 21633              	.LASF644:
 21634 089f 43414E5F 		.ascii	"CAN_READY\000"
 21634      52454144 
 21634      5900
 21635              	.LASF1092:
 21636 08a9 6176675F 		.ascii	"avg_voltage\000"
 21636      766F6C74 
 21636      61676500 
 21637              	.LASF163:
 21638 08b5 63665F6F 		.ascii	"cf_off_older\000"
 21638      66665F6F 
 21638      6C646572 
 21638      00
 21639              	.LASF303:
ARM GAS  /tmp/ccTUBOn1.s 			page 388


 21640 08c2 666F635F 		.ascii	"foc_current_ki\000"
 21640      63757272 
 21640      656E745F 
 21640      6B6900
 21641              	.LASF512:
 21642 08d1 6170705F 		.ascii	"app_nrf_conf\000"
 21642      6E72665F 
 21642      636F6E66 
 21642      00
 21643              	.LASF415:
 21644 08de 74635F6D 		.ascii	"tc_max_diff\000"
 21644      61785F64 
 21644      69666600 
 21645              	.LASF890:
 21646 08ea 72787175 		.ascii	"rxqueued\000"
 21646      65756564 
 21646      00
 21647              	.LASF302:
 21648 08f3 666F635F 		.ascii	"foc_current_kp\000"
 21648      63757272 
 21648      656E745F 
 21648      6B7000
 21649              	.LASF717:
 21650 0902 69637563 		.ascii	"icuchannel_t\000"
 21650      68616E6E 
 21650      656C5F74 
 21650      00
 21651              	.LASF646:
 21652 090f 63616E73 		.ascii	"canstate_t\000"
 21652      74617465 
 21652      5F7400
 21653              	.LASF113:
 21654 091a 7346696C 		.ascii	"sFilterRegister\000"
 21654      74657252 
 21654      65676973 
 21654      74657200 
 21655              	.LASF986:
 21656 092a 5F5F7366 		.ascii	"__sf\000"
 21656      00
 21657              	.LASF861:
 21658 092f 72657376 		.ascii	"resvd820\000"
 21658      64383230 
 21658      00
 21659              	.LASF1184:
 21660 0938 6D656D63 		.ascii	"memcpy\000"
 21660      707900
 21661              	.LASF676:
 21662 093f 6F705F6D 		.ascii	"op_mode\000"
 21662      6F646500 
 21663              	.LASF1003:
 21664 0947 5F6D6274 		.ascii	"_mbtowc_state\000"
 21664      6F77635F 
 21664      73746174 
 21664      6500
 21665              	.LASF337:
 21666 0955 6770645F 		.ascii	"gpd_buffer_notify_left\000"
 21666      62756666 
ARM GAS  /tmp/ccTUBOn1.s 			page 389


 21666      65725F6E 
 21666      6F746966 
 21666      795F6C65 
 21667              	.LASF368:
 21668 096c 6D5F6E74 		.ascii	"m_ntc_motor_beta\000"
 21668      635F6D6F 
 21668      746F725F 
 21668      62657461 
 21668      00
 21669              	.LASF659:
 21670 097d 4932435F 		.ascii	"I2C_UNINIT\000"
 21670      554E494E 
 21670      495400
 21671              	.LASF751:
 21672 0988 7373706F 		.ascii	"ssport\000"
 21672      727400
 21673              	.LASF726:
 21674 098f 53445F55 		.ascii	"SD_UNINIT\000"
 21674      4E494E49 
 21674      5400
 21675              	.LASF1061:
 21676 0999 636F6E66 		.ascii	"conf_general_autodetect_apply_sensors_foc\000"
 21676      5F67656E 
 21676      6572616C 
 21676      5F617574 
 21676      6F646574 
 21677              	.LASF411:
 21678 09c3 7468726F 		.ascii	"throttle_exp_mode\000"
 21678      74746C65 
 21678      5F657870 
 21678      5F6D6F64 
 21678      6500
 21679              	.LASF28:
 21680 09d5 74707269 		.ascii	"tprio_t\000"
 21680      6F5F7400 
 21681              	.LASF1031:
 21682 09dd 6D61785F 		.ascii	"max_power_loss\000"
 21682      706F7765 
 21682      725F6C6F 
 21682      737300
 21683              	.LASF215:
 21684 09ec 4F55545F 		.ascii	"OUT_AUX_MODE_ON_AFTER_10S\000"
 21684      4155585F 
 21684      4D4F4445 
 21684      5F4F4E5F 
 21684      41465445 
 21685              	.LASF865:
 21686 0a06 72657376 		.ascii	"resvd830\000"
 21686      64383330 
 21686      00
 21687              	.LASF661:
 21688 0a0f 4932435F 		.ascii	"I2C_READY\000"
 21688      52454144 
 21688      5900
 21689              	.LASF504:
 21690 0a19 7065726D 		.ascii	"permanent_uart_enabled\000"
 21690      616E656E 
ARM GAS  /tmp/ccTUBOn1.s 			page 390


 21690      745F7561 
 21690      72745F65 
 21690      6E61626C 
 21691              	.LASF464:
 21692 0a30 4E52465F 		.ascii	"NRF_CRC\000"
 21692      43524300 
 21693              	.LASF867:
 21694 0a38 72657376 		.ascii	"resvd838\000"
 21694      64383338 
 21694      00
 21695              	.LASF675:
 21696 0a41 69326364 		.ascii	"i2cdutycycle_t\000"
 21696      75747963 
 21696      79636C65 
 21696      5F7400
 21697              	.LASF1073:
 21698 0a50 6C696E6B 		.ascii	"linkage\000"
 21698      61676500 
 21699              	.LASF494:
 21700 0a58 43414E5F 		.ascii	"CAN_STATUS_1_2_3\000"
 21700      53544154 
 21700      55535F31 
 21700      5F325F33 
 21700      00
 21701              	.LASF561:
 21702 0a69 434F4D4D 		.ascii	"COMM_GET_VALUES_SETUP\000"
 21702      5F474554 
 21702      5F56414C 
 21702      5545535F 
 21702      53455455 
 21703              	.LASF868:
 21704 0a7f 72657376 		.ascii	"resvd83C\000"
 21704      64383343 
 21704      00
 21705              	.LASF683:
 21706 0a88 74687265 		.ascii	"thread\000"
 21706      616400
 21707              	.LASF864:
 21708 0a8f 44564255 		.ascii	"DVBUSPULSE\000"
 21708      5350554C 
 21708      534500
 21709              	.LASF764:
 21710 0a9a 73657475 		.ascii	"setup\000"
 21710      7000
 21711              	.LASF742:
 21712 0aa0 5350495F 		.ascii	"SPI_UNINIT\000"
 21712      554E494E 
 21712      495400
 21713              	.LASF816:
 21714 0aab 44545846 		.ascii	"DTXFSTS\000"
 21714      53545300 
 21715              	.LASF235:
 21716 0ab3 4641554C 		.ascii	"FAULT_CODE_ENCODER_SINCOS_ABOVE_MAX_AMPLITUDE\000"
 21716      545F434F 
 21716      44455F45 
 21716      4E434F44 
 21716      45525F53 
ARM GAS  /tmp/ccTUBOn1.s 			page 391


 21717              	.LASF935:
 21718 0ae1 5F5F746D 		.ascii	"__tm_yday\000"
 21718      5F796461 
 21718      7900
 21719              	.LASF758:
 21720 0aeb 696E5F70 		.ascii	"in_params\000"
 21720      6172616D 
 21720      7300
 21721              	.LASF705:
 21722 0af5 43434552 		.ascii	"CCER\000"
 21722      00
 21723              	.LASF128:
 21724 0afa 49325350 		.ascii	"I2SPR\000"
 21724      5200
 21725              	.LASF209:
 21726 0b00 464F435F 		.ascii	"FOC_SENSOR_MODE_ENCODER\000"
 21726      53454E53 
 21726      4F525F4D 
 21726      4F44455F 
 21726      454E434F 
 21727              	.LASF416:
 21728 0b18 70706D5F 		.ascii	"ppm_config\000"
 21728      636F6E66 
 21728      696700
 21729              	.LASF825:
 21730 0b23 47414842 		.ascii	"GAHBCFG\000"
 21730      43464700 
 21731              	.LASF399:
 21732 0b2b 50504D5F 		.ascii	"PPM_CTRL_TYPE_PID_NOREV\000"
 21732      4354524C 
 21732      5F545950 
 21732      455F5049 
 21732      445F4E4F 
 21733              	.LASF911:
 21734 0b43 5F4C4F43 		.ascii	"_LOCK_T\000"
 21734      4B5F5400 
 21735              	.LASF433:
 21736 0b4b 766F6C74 		.ascii	"voltage_start\000"
 21736      6167655F 
 21736      73746172 
 21736      7400
 21737              	.LASF869:
 21738 0b59 72657376 		.ascii	"resvd840\000"
 21738      64383430 
 21738      00
 21739              	.LASF124:
 21740 0b62 43524350 		.ascii	"CRCPR\000"
 21740      5200
 21741              	.LASF420:
 21742 0b68 4144435F 		.ascii	"ADC_CTRL_TYPE_CURRENT_REV_BUTTON\000"
 21742      4354524C 
 21742      5F545950 
 21742      455F4355 
 21742      5252454E 
 21743              	.LASF1050:
 21744 0b89 6C616D62 		.ascii	"lambda\000"
 21744      646100
ARM GAS  /tmp/ccTUBOn1.s 			page 392


 21745              	.LASF245:
 21746 0b90 44525638 		.ascii	"DRV8301_OC_REPORT_ONLY\000"
 21746      3330315F 
 21746      4F435F52 
 21746      45504F52 
 21746      545F4F4E 
 21747              	.LASF385:
 21748 0ba7 4150505F 		.ascii	"APP_NRF\000"
 21748      4E524600 
 21749              	.LASF1121:
 21750 0baf 636F6E66 		.ascii	"conf_general_store_eeprom_var_hw\000"
 21750      5F67656E 
 21750      6572616C 
 21750      5F73746F 
 21750      72655F65 
 21751              	.LASF6:
 21752 0bd0 5F5F7569 		.ascii	"__uint16_t\000"
 21752      6E743136 
 21752      5F7400
 21753              	.LASF533:
 21754 0bdb 434F4D4D 		.ascii	"COMM_SAMPLE_PRINT\000"
 21754      5F53414D 
 21754      504C455F 
 21754      5052494E 
 21754      5400
 21755              	.LASF444:
 21756 0bed 6164635F 		.ascii	"adc_config\000"
 21756      636F6E66 
 21756      696700
 21757              	.LASF884:
 21758 0bf8 74787175 		.ascii	"txqueued\000"
 21758      65756564 
 21758      00
 21759              	.LASF49:
 21760 0c01 705F6D73 		.ascii	"p_msg\000"
 21760      6700
 21761              	.LASF995:
 21762 0c07 5F756E75 		.ascii	"_unused_rand\000"
 21762      7365645F 
 21762      72616E64 
 21762      00
 21763              	.LASF357:
 21764 0c14 6D5F6661 		.ascii	"m_fault_stop_time_ms\000"
 21764      756C745F 
 21764      73746F70 
 21764      5F74696D 
 21764      655F6D73 
 21765              	.LASF831:
 21766 0c29 47525853 		.ascii	"GRXSTSP\000"
 21766      54535000 
 21767              	.LASF830:
 21768 0c31 47525853 		.ascii	"GRXSTSR\000"
 21768      54535200 
 21769              	.LASF1090:
 21770 0c39 6D696E5F 		.ascii	"min_erpm\000"
 21770      6572706D 
 21770      00
ARM GAS  /tmp/ccTUBOn1.s 			page 393


 21771              	.LASF117:
 21772 0c42 4D314152 		.ascii	"M1AR\000"
 21772      00
 21773              	.LASF770:
 21774 0c47 77616974 		.ascii	"wait\000"
 21774      00
 21775              	.LASF118:
 21776 0c4c 444D415F 		.ascii	"DMA_Stream_TypeDef\000"
 21776      53747265 
 21776      616D5F54 
 21776      79706544 
 21776      656600
 21777              	.LASF777:
 21778 0c5f 5553425F 		.ascii	"USB_ACTIVE\000"
 21778      41435449 
 21778      564500
 21779              	.LASF310:
 21780 0c6a 666F635F 		.ascii	"foc_encoder_sin_gain\000"
 21780      656E636F 
 21780      6465725F 
 21780      73696E5F 
 21780      6761696E 
 21781              	.LASF340:
 21782 0c7f 6770645F 		.ascii	"gpd_current_kp\000"
 21782      63757272 
 21782      656E745F 
 21782      6B7000
 21783              	.LASF344:
 21784 0c8e 735F7069 		.ascii	"s_pid_kd\000"
 21784      645F6B64 
 21784      00
 21785              	.LASF818:
 21786 0c97 73746D33 		.ascii	"stm32_otg_in_ep_t\000"
 21786      325F6F74 
 21786      675F696E 
 21786      5F65705F 
 21786      7400
 21787              	.LASF892:
 21788 0ca9 7278636E 		.ascii	"rxcnt\000"
 21788      7400
 21789              	.LASF685:
 21790 0caf 7278646D 		.ascii	"rxdmamode\000"
 21790      616D6F64 
 21790      6500
 21791              	.LASF977:
 21792 0cb9 5F726573 		.ascii	"_result_k\000"
 21792      756C745F 
 21792      6B00
 21793              	.LASF718:
 21794 0cc3 6D6F6465 		.ascii	"mode\000"
 21794      00
 21795              	.LASF969:
 21796 0cc8 5F737464 		.ascii	"_stderr\000"
 21796      65727200 
 21797              	.LASF976:
 21798 0cd0 5F726573 		.ascii	"_result\000"
 21798      756C7400 
ARM GAS  /tmp/ccTUBOn1.s 			page 394


 21799              	.LASF711:
 21800 0cd8 4943555F 		.ascii	"ICU_INPUT_ACTIVE_HIGH\000"
 21800      494E5055 
 21800      545F4143 
 21800      54495645 
 21800      5F484947 
 21801              	.LASF456:
 21802 0cee 4E52465F 		.ascii	"NRF_POWER_M12DBM\000"
 21802      504F5745 
 21802      525F4D31 
 21802      3244424D 
 21802      00
 21803              	.LASF166:
 21804 0cff 63665F6F 		.ascii	"cf_off_state\000"
 21804      66665F73 
 21804      74617465 
 21804      00
 21805              	.LASF752:
 21806 0d0c 73737061 		.ascii	"sspad\000"
 21806      6400
 21807              	.LASF686:
 21808 0d12 7478646D 		.ascii	"txdmamode\000"
 21808      616D6F64 
 21808      6500
 21809              	.LASF741:
 21810 0d1c 72656164 		.ascii	"readt\000"
 21810      7400
 21811              	.LASF314:
 21812 0d22 666F635F 		.ascii	"foc_motor_l\000"
 21812      6D6F746F 
 21812      725F6C00 
 21813              	.LASF1030:
 21814 0d2e 64657465 		.ascii	"detect_can\000"
 21814      63745F63 
 21814      616E00
 21815              	.LASF315:
 21816 0d39 666F635F 		.ascii	"foc_motor_r\000"
 21816      6D6F746F 
 21816      725F7200 
 21817              	.LASF934:
 21818 0d45 5F5F746D 		.ascii	"__tm_wday\000"
 21818      5F776461 
 21818      7900
 21819              	.LASF225:
 21820 0d4f 4641554C 		.ascii	"FAULT_CODE_DRV\000"
 21820      545F434F 
 21820      44455F44 
 21820      525600
 21821              	.LASF936:
 21822 0d5e 5F5F746D 		.ascii	"__tm_isdst\000"
 21822      5F697364 
 21822      737400
 21823              	.LASF133:
 21824 0d69 73746B61 		.ascii	"stkalign_t\000"
 21824      6C69676E 
 21824      5F7400
 21825              	.LASF877:
ARM GAS  /tmp/ccTUBOn1.s 			page 395


 21826 0d74 72785F66 		.ascii	"rx_fifo_size\000"
 21826      69666F5F 
 21826      73697A65 
 21826      00
 21827              	.LASF231:
 21828 0d81 4641554C 		.ascii	"FAULT_CODE_MCU_UNDER_VOLTAGE\000"
 21828      545F434F 
 21828      44455F4D 
 21828      43555F55 
 21828      4E444552 
 21829              	.LASF656:
 21830 0d9e 77616B65 		.ascii	"wakeup_event\000"
 21830      75705F65 
 21830      76656E74 
 21830      00
 21831              	.LASF1048:
 21832 0dab 695F6C61 		.ascii	"i_last\000"
 21832      737400
 21833              	.LASF72:
 21834 0db2 76745F70 		.ascii	"vt_prev\000"
 21834      72657600 
 21835              	.LASF750:
 21836 0dba 656E645F 		.ascii	"end_cb\000"
 21836      636200
 21837              	.LASF895:
 21838 0dc1 73657475 		.ascii	"setup_cb\000"
 21838      705F6362 
 21838      00
 21839              	.LASF4:
 21840 0dca 756E7369 		.ascii	"unsigned char\000"
 21840      676E6564 
 21840      20636861 
 21840      7200
 21841              	.LASF968:
 21842 0dd8 5F737464 		.ascii	"_stdout\000"
 21842      6F757400 
 21843              	.LASF175:
 21844 0de0 6576656E 		.ascii	"event_listener\000"
 21844      745F6C69 
 21844      7374656E 
 21844      657200
 21845              	.LASF346:
 21846 0def 735F7069 		.ascii	"s_pid_min_erpm\000"
 21846      645F6D69 
 21846      6E5F6572 
 21846      706D00
 21847              	.LASF650:
 21848 0dfe 74787175 		.ascii	"txqueue\000"
 21848      65756500 
 21849              	.LASF147:
 21850 0e06 735F636E 		.ascii	"s_cnt\000"
 21850      7400
 21851              	.LASF60:
 21852 0e0c 72656164 		.ascii	"ready_list_t\000"
 21852      795F6C69 
 21852      73745F74 
 21852      00
ARM GAS  /tmp/ccTUBOn1.s 			page 396


 21853              	.LASF56:
 21854 0e19 63685F74 		.ascii	"ch_thread\000"
 21854      68726561 
 21854      6400
 21855              	.LASF670:
 21856 0e23 4F504D4F 		.ascii	"OPMODE_SMBUS_HOST\000"
 21856      44455F53 
 21856      4D425553 
 21856      5F484F53 
 21856      5400
 21857              	.LASF1099:
 21858 0e35 696E745F 		.ascii	"int_limit\000"
 21858      6C696D69 
 21858      7400
 21859              	.LASF760:
 21860 0e3f 65703073 		.ascii	"ep0state\000"
 21860      74617465 
 21860      00
 21861              	.LASF1110:
 21862 0e48 69735F6F 		.ascii	"is_ok\000"
 21862      6B00
 21863              	.LASF1010:
 21864 0e4e 5F6D6273 		.ascii	"_mbsrtowcs_state\000"
 21864      72746F77 
 21864      63735F73 
 21864      74617465 
 21864      00
 21865              	.LASF926:
 21866 0e5f 5F776473 		.ascii	"_wds\000"
 21866      00
 21867              	.LASF812:
 21868 0e64 72657376 		.ascii	"resvd4\000"
 21868      643400
 21869              	.LASF1150:
 21870 0e6b 6D637077 		.ascii	"mcpwm_foc_measure_inductance_current\000"
 21870      6D5F666F 
 21870      635F6D65 
 21870      61737572 
 21870      655F696E 
 21871              	.LASF0:
 21872 0e90 666C6F61 		.ascii	"float\000"
 21872      7400
 21873              	.LASF490:
 21874 0e96 6E72665F 		.ascii	"nrf_config\000"
 21874      636F6E66 
 21874      696700
 21875              	.LASF1140:
 21876 0ea1 6D637077 		.ascii	"mcpwm_foc_measure_resistance\000"
 21876      6D5F666F 
 21876      635F6D65 
 21876      61737572 
 21876      655F7265 
 21877              	.LASF457:
 21878 0ebe 4E52465F 		.ascii	"NRF_POWER_M6DBM\000"
 21878      504F5745 
 21878      525F4D36 
 21878      44424D00 
ARM GAS  /tmp/ccTUBOn1.s 			page 397


 21879              	.LASF283:
 21880 0ece 6C5F7761 		.ascii	"l_watt_max\000"
 21880      74745F6D 
 21880      617800
 21881              	.LASF645:
 21882 0ed9 43414E5F 		.ascii	"CAN_SLEEP\000"
 21882      534C4545 
 21882      5000
 21883              	.LASF1095:
 21884 0ee3 73776974 		.ascii	"switch_done\000"
 21884      63685F64 
 21884      6F6E6500 
 21885              	.LASF304:
 21886 0eef 666F635F 		.ascii	"foc_f_sw\000"
 21886      665F7377 
 21886      00
 21887              	.LASF268:
 21888 0ef8 6C5F6572 		.ascii	"l_erpm_start\000"
 21888      706D5F73 
 21888      74617274 
 21888      00
 21889              	.LASF1077:
 21890 0f05 64757479 		.ascii	"duty_max\000"
 21890      5F6D6178 
 21890      00
 21891              	.LASF389:
 21892 0f0e 5448525F 		.ascii	"THR_EXP_NATURAL\000"
 21892      4558505F 
 21892      4E415455 
 21892      52414C00 
 21893              	.LASF641:
 21894 0f1e 43414E5F 		.ascii	"CAN_UNINIT\000"
 21894      554E494E 
 21894      495400
 21895              	.LASF407:
 21896 0f29 6D656469 		.ascii	"median_filter\000"
 21896      616E5F66 
 21896      696C7465 
 21896      7200
 21897              	.LASF79:
 21898 0f37 73797374 		.ascii	"system_debug_t\000"
 21898      656D5F64 
 21898      65627567 
 21898      5F7400
 21899              	.LASF276:
 21900 0f46 6C5F7465 		.ascii	"l_temp_fet_start\000"
 21900      6D705F66 
 21900      65745F73 
 21900      74617274 
 21900      00
 21901              	.LASF361:
 21902 0f57 6D5F7365 		.ascii	"m_sensor_port_mode\000"
 21902      6E736F72 
 21902      5F706F72 
 21902      745F6D6F 
 21902      646500
 21903              	.LASF442:
ARM GAS  /tmp/ccTUBOn1.s 			page 398


 21904 0f6a 766F6C74 		.ascii	"voltage2_inverted\000"
 21904      61676532 
 21904      5F696E76 
 21904      65727465 
 21904      6400
 21905              	.LASF1151:
 21906 0f7c 7574696C 		.ascii	"utils_truncate_number\000"
 21906      735F7472 
 21906      756E6361 
 21906      74655F6E 
 21906      756D6265 
 21907              	.LASF38:
 21908 0f92 705F6374 		.ascii	"p_ctx\000"
 21908      7800
 21909              	.LASF75:
 21910 0f98 76745F70 		.ascii	"vt_par\000"
 21910      617200
 21911              	.LASF1118:
 21912 0f9f 73746F72 		.ascii	"store_eeprom_var\000"
 21912      655F6565 
 21912      70726F6D 
 21912      5F766172 
 21912      00
 21913              	.LASF443:
 21914 0fb0 75706461 		.ascii	"update_rate_hz\000"
 21914      74655F72 
 21914      6174655F 
 21914      687A00
 21915              	.LASF996:
 21916 0fbf 5F737472 		.ascii	"_strtok_last\000"
 21916      746F6B5F 
 21916      6C617374 
 21916      00
 21917              	.LASF67:
 21918 0fcc 725F6375 		.ascii	"r_current\000"
 21918      7272656E 
 21918      7400
 21919              	.LASF947:
 21920 0fd6 5F73697A 		.ascii	"_size\000"
 21920      6500
 21921              	.LASF539:
 21922 0fdc 434F4D4D 		.ascii	"COMM_DETECT_MOTOR_R_L\000"
 21922      5F444554 
 21922      4543545F 
 21922      4D4F544F 
 21922      525F525F 
 21923              	.LASF544:
 21924 0ff2 434F4D4D 		.ascii	"COMM_ALIVE\000"
 21924      5F414C49 
 21924      564500
 21925              	.LASF126:
 21926 0ffd 54584352 		.ascii	"TXCRCR\000"
 21926      435200
 21927              	.LASF258:
 21928 1004 636F6D6D 		.ascii	"comm_mode\000"
 21928      5F6D6F64 
 21928      6500
ARM GAS  /tmp/ccTUBOn1.s 			page 399


 21929              	.LASF875:
 21930 100e 4649464F 		.ascii	"FIFO\000"
 21930      00
 21931              	.LASF226:
 21932 1013 4641554C 		.ascii	"FAULT_CODE_ABS_OVER_CURRENT\000"
 21932      545F434F 
 21932      44455F41 
 21932      42535F4F 
 21932      5645525F 
 21933              	.LASF1039:
 21934 102f 74696D65 		.ascii	"timeout\000"
 21934      6F757400 
 21935              	.LASF317:
 21936 1037 666F635F 		.ascii	"foc_observer_gain\000"
 21936      6F627365 
 21936      72766572 
 21936      5F676169 
 21936      6E00
 21937              	.LASF449:
 21938 1049 73746963 		.ascii	"stick_erpm_per_s_in_cc\000"
 21938      6B5F6572 
 21938      706D5F70 
 21938      65725F73 
 21938      5F696E5F 
 21939              	.LASF309:
 21940 1060 666F635F 		.ascii	"foc_encoder_sin_offset\000"
 21940      656E636F 
 21940      6465725F 
 21940      73696E5F 
 21940      6F666673 
 21941              	.LASF674:
 21942 1077 46415354 		.ascii	"FAST_DUTY_CYCLE_16_9\000"
 21942      5F445554 
 21942      595F4359 
 21942      434C455F 
 21942      31365F39 
 21943              	.LASF735:
 21944 108c 53657269 		.ascii	"SerialDriverVMT\000"
 21944      616C4472 
 21944      69766572 
 21944      564D5400 
 21945              	.LASF722:
 21946 109c 6F766572 		.ascii	"overflow_cb\000"
 21946      666C6F77 
 21946      5F636200 
 21947              	.LASF21:
 21948 10a8 75696E74 		.ascii	"uint64_t\000"
 21948      36345F74 
 21948      00
 21949              	.LASF1119:
 21950 10b1 72656164 		.ascii	"read_eeprom_var\000"
 21950      5F656570 
 21950      726F6D5F 
 21950      76617200 
 21951              	.LASF172:
 21952 10c1 63685F64 		.ascii	"ch_debug\000"
 21952      65627567 
ARM GAS  /tmp/ccTUBOn1.s 			page 400


 21952      00
 21953              	.LASF1157:
 21954 10ca 6D637077 		.ascii	"mcpwm_foc_hall_detect\000"
 21954      6D5F666F 
 21954      635F6861 
 21954      6C6C5F64 
 21954      65746563 
 21955              	.LASF480:
 21956 10e0 4E52465F 		.ascii	"NRF_RETR_DELAY_4000US\000"
 21956      52455452 
 21956      5F44454C 
 21956      41595F34 
 21956      30303055 
 21957              	.LASF105:
 21958 10f6 464D3152 		.ascii	"FM1R\000"
 21958      00
 21959              	.LASF929:
 21960 10fb 5F5F746D 		.ascii	"__tm_min\000"
 21960      5F6D696E 
 21960      00
 21961              	.LASF638:
 21962 1104 50414C43 		.ascii	"PALConfig\000"
 21962      6F6E6669 
 21962      6700
 21963              	.LASF799:
 21964 110e 75736265 		.ascii	"usbeventcb_t\000"
 21964      76656E74 
 21964      63625F74 
 21964      00
 21965              	.LASF575:
 21966 111b 434F4D4D 		.ascii	"COMM_WRITE_NEW_APP_DATA_ALL_CAN\000"
 21966      5F575249 
 21966      54455F4E 
 21966      45575F41 
 21966      50505F44 
 21967              	.LASF933:
 21968 113b 5F5F746D 		.ascii	"__tm_year\000"
 21968      5F796561 
 21968      7200
 21969              	.LASF174:
 21970 1145 6576656E 		.ascii	"event_listener_t\000"
 21970      745F6C69 
 21970      7374656E 
 21970      65725F74 
 21970      00
 21971              	.LASF473:
 21972 1156 4E52465F 		.ascii	"NRF_RETR_DELAY_2250US\000"
 21972      52455452 
 21972      5F44454C 
 21972      41595F32 
 21972      32353055 
 21973              	.LASF959:
 21974 116c 5F626C6B 		.ascii	"_blksize\000"
 21974      73697A65 
 21974      00
 21975              	.LASF878:
 21976 1175 6F74675F 		.ascii	"otg_ram_size\000"
ARM GAS  /tmp/ccTUBOn1.s 			page 401


 21976      72616D5F 
 21976      73697A65 
 21976      00
 21977              	.LASF1179:
 21978 1182 74696D65 		.ascii	"timeout_configure_IWDT\000"
 21978      6F75745F 
 21978      636F6E66 
 21978      69677572 
 21978      655F4957 
 21979              	.LASF880:
 21980 1199 73746D33 		.ascii	"stm32_otg_params_t\000"
 21980      325F6F74 
 21980      675F7061 
 21980      72616D73 
 21980      5F7400
 21981              	.LASF872:
 21982 11ac 72657376 		.ascii	"resvdD00\000"
 21982      64443030 
 21982      00
 21983              	.LASF125:
 21984 11b5 52584352 		.ascii	"RXCRCR\000"
 21984      435200
 21985              	.LASF889:
 21986 11bc 72786275 		.ascii	"rxbuf\000"
 21986      6600
 21987              	.LASF828:
 21988 11c2 47494E54 		.ascii	"GINTSTS\000"
 21988      53545300 
 21989              	.LASF584:
 21990 11ca 434F4D4D 		.ascii	"COMM_BM_DISCONNECT\000"
 21990      5F424D5F 
 21990      44495343 
 21990      4F4E4E45 
 21990      435400
 21991              	.LASF148:
 21992 11dd 63685F6D 		.ascii	"ch_mutex\000"
 21992      75746578 
 21992      00
 21993              	.LASF954:
 21994 11e6 5F777269 		.ascii	"_write\000"
 21994      746500
 21995              	.LASF731:
 21996 11ed 6576656E 		.ascii	"event\000"
 21996      7400
 21997              	.LASF653:
 21998 11f3 7478656D 		.ascii	"txempty_event\000"
 21998      7074795F 
 21998      6576656E 
 21998      7400
 21999              	.LASF347:
 22000 1201 735F7069 		.ascii	"s_pid_allow_braking\000"
 22000      645F616C 
 22000      6C6F775F 
 22000      6272616B 
 22000      696E6700 
 22001              	.LASF635:
 22002 1215 50474461 		.ascii	"PGData\000"
ARM GAS  /tmp/ccTUBOn1.s 			page 402


 22002      746100
 22003              	.LASF596:
 22004 121c 464C4153 		.ascii	"FLASH_ERROR_PROGRAM\000"
 22004      485F4552 
 22004      524F525F 
 22004      50524F47 
 22004      52414D00 
 22005              	.LASF493:
 22006 1230 43414E5F 		.ascii	"CAN_STATUS_1_2\000"
 22006      53544154 
 22006      55535F31 
 22006      5F3200
 22007              	.LASF1189:
 22008 123f 474E5520 		.ascii	"GNU C99 7.3.1 20180622 (release) [ARM/embedded-7-br"
 22008      43393920 
 22008      372E332E 
 22008      31203230 
 22008      31383036 
 22009 1272 616E6368 		.ascii	"anch revision 261907] -mcpu=cortex-m4 -mfloat-abi=h"
 22009      20726576 
 22009      6973696F 
 22009      6E203236 
 22009      31393037 
 22010 12a5 61726420 		.ascii	"ard -mfpu=fpv4-sp-d16 -mno-thumb-interwork -mthumb "
 22010      2D6D6670 
 22010      753D6670 
 22010      76342D73 
 22010      702D6431 
 22011 12d8 2D676764 		.ascii	"-ggdb -O2 -std=gnu99 -fomit-frame-pointer -falign-f"
 22011      62202D4F 
 22011      32202D73 
 22011      74643D67 
 22011      6E753939 
 22012 130b 756E6374 		.ascii	"unctions=16 -ffunction-sections -fdata-sections -fn"
 22012      696F6E73 
 22012      3D313620 
 22012      2D666675 
 22012      6E637469 
 22013 133e 6F2D636F 		.ascii	"o-common -fsingle-precision-constant\000"
 22013      6D6D6F6E 
 22013      202D6673 
 22013      696E676C 
 22013      652D7072 
 22014              	.LASF1008:
 22015 1363 5F6D6272 		.ascii	"_mbrlen_state\000"
 22015      6C656E5F 
 22015      73746174 
 22015      6500
 22016              	.LASF732:
 22017 1371 69717565 		.ascii	"iqueue\000"
 22017      756500
 22018              	.LASF640:
 22019 1378 70616C5F 		.ascii	"pal_default_config\000"
 22019      64656661 
 22019      756C745F 
 22019      636F6E66 
 22019      696700
ARM GAS  /tmp/ccTUBOn1.s 			page 403


 22020              	.LASF205:
 22021 138b 53454E53 		.ascii	"SENSOR_MODE_SENSORED\000"
 22021      4F525F4D 
 22021      4F44455F 
 22021      53454E53 
 22021      4F524544 
 22022              	.LASF162:
 22023 13a0 63665F6F 		.ascii	"cf_off_newer\000"
 22023      66665F6E 
 22023      65776572 
 22023      00
 22024              	.LASF928:
 22025 13ad 5F5F746D 		.ascii	"__tm_sec\000"
 22025      5F736563 
 22025      00
 22026              	.LASF857:
 22027 13b6 44494550 		.ascii	"DIEPMSK\000"
 22027      4D534B00 
 22028              	.LASF824:
 22029 13be 474F5447 		.ascii	"GOTGINT\000"
 22029      494E5400 
 22030              	.LASF345:
 22031 13c6 735F7069 		.ascii	"s_pid_kd_filter\000"
 22031      645F6B64 
 22031      5F66696C 
 22031      74657200 
 22032              	.LASF897:
 22033 13d6 6F75745F 		.ascii	"out_cb\000"
 22033      636200
 22034              	.LASF848:
 22035 13dd 4841494E 		.ascii	"HAINTMSK\000"
 22035      544D534B 
 22035      00
 22036              	.LASF759:
 22037 13e6 6F75745F 		.ascii	"out_params\000"
 22037      70617261 
 22037      6D7300
 22038              	.LASF1045:
 22039 13f1 746F7574 		.ascii	"tout\000"
 22039      00
 22040              	.LASF967:
 22041 13f6 5F737464 		.ascii	"_stdin\000"
 22041      696E00
 22042              	.LASF1182:
 22043 13fd 636F6E66 		.ascii	"confgenerator_set_defaults_mcconf\000"
 22043      67656E65 
 22043      7261746F 
 22043      725F7365 
 22043      745F6465 
 22044              	.LASF1015:
 22045 141f 5F6E6D61 		.ascii	"_nmalloc\000"
 22045      6C6C6F63 
 22045      00
 22046              	.LASF723:
 22047 1428 64696572 		.ascii	"dier\000"
 22047      00
 22048              	.LASF845:
ARM GAS  /tmp/ccTUBOn1.s 			page 404


 22049 142d 72657376 		.ascii	"resvd40C\000"
 22049      64343043 
 22049      00
 22050              	.LASF339:
 22051 1436 6770645F 		.ascii	"gpd_current_filter_const\000"
 22051      63757272 
 22051      656E745F 
 22051      66696C74 
 22051      65725F63 
 22052              	.LASF454:
 22053 144f 4E52465F 		.ascii	"NRF_SPEED\000"
 22053      53504545 
 22053      4400
 22054              	.LASF413:
 22055 1459 72616D70 		.ascii	"ramp_time_neg\000"
 22055      5F74696D 
 22055      655F6E65 
 22055      6700
 22056              	.LASF560:
 22057 1467 434F4D4D 		.ascii	"COMM_GPD_SET_BUFFER_INT_SCALE\000"
 22057      5F475044 
 22057      5F534554 
 22057      5F425546 
 22057      4645525F 
 22058              	.LASF1169:
 22059 1485 6D635F69 		.ascii	"mc_interface_get_tachometer_value\000"
 22059      6E746572 
 22059      66616365 
 22059      5F676574 
 22059      5F746163 
 22060              	.LASF69:
 22061 14a7 76697274 		.ascii	"virtual_timer_t\000"
 22061      75616C5F 
 22061      74696D65 
 22061      725F7400 
 22062              	.LASF64:
 22063 14b7 725F6374 		.ascii	"r_ctx\000"
 22063      7800
 22064              	.LASF71:
 22065 14bd 76745F6E 		.ascii	"vt_next\000"
 22065      65787400 
 22066              	.LASF236:
 22067 14c5 4641554C 		.ascii	"FAULT_CODE_FLASH_CORRUPTION\000"
 22067      545F434F 
 22067      44455F46 
 22067      4C415348 
 22067      5F434F52 
 22068              	.LASF372:
 22069 14e1 73695F77 		.ascii	"si_wheel_diameter\000"
 22069      6865656C 
 22069      5F646961 
 22069      6D657465 
 22069      7200
 22070              	.LASF1075:
 22071 14f3 64757479 		.ascii	"duty_still\000"
 22071      5F737469 
 22071      6C6C00
ARM GAS  /tmp/ccTUBOn1.s 			page 405


 22072              	.LASF517:
 22073 14fe 434F4D4D 		.ascii	"COMM_WRITE_NEW_APP_DATA\000"
 22073      5F575249 
 22073      54455F4E 
 22073      45575F41 
 22073      50505F44 
 22074              	.LASF1103:
 22075 1516 7370696E 		.ascii	"spinup_to_duty\000"
 22075      75705F74 
 22075      6F5F6475 
 22075      747900
 22076              	.LASF516:
 22077 1525 434F4D4D 		.ascii	"COMM_ERASE_NEW_APP\000"
 22077      5F455241 
 22077      53455F4E 
 22077      45575F41 
 22077      505000
 22078              	.LASF23:
 22079 1538 7274636E 		.ascii	"rtcnt_t\000"
 22079      745F7400 
 22080              	.LASF682:
 22081 1540 6D757465 		.ascii	"mutex\000"
 22081      7800
 22082              	.LASF206:
 22083 1546 53454E53 		.ascii	"SENSOR_MODE_HYBRID\000"
 22083      4F525F4D 
 22083      4F44455F 
 22083      48594252 
 22083      494400
 22084              	.LASF1066:
 22085 1559 64696666 		.ascii	"diff\000"
 22085      00
 22086              	.LASF590:
 22087 155e 464C4153 		.ascii	"FLASH_BUSY\000"
 22087      485F4255 
 22087      535900
 22088              	.LASF363:
 22089 1569 6D5F6472 		.ascii	"m_drv8301_oc_mode\000"
 22089      76383330 
 22089      315F6F63 
 22089      5F6D6F64 
 22089      6500
 22090              	.LASF287:
 22091 157b 6C6F5F63 		.ascii	"lo_current_max\000"
 22091      75727265 
 22091      6E745F6D 
 22091      617800
 22092              	.LASF307:
 22093 158a 666F635F 		.ascii	"foc_encoder_inverted\000"
 22093      656E636F 
 22093      6465725F 
 22093      696E7665 
 22093      72746564 
 22094              	.LASF354:
 22095 159f 63635F6D 		.ascii	"cc_min_current\000"
 22095      696E5F63 
 22095      75727265 
ARM GAS  /tmp/ccTUBOn1.s 			page 406


 22095      6E7400
 22096              	.LASF405:
 22097 15ae 70756C73 		.ascii	"pulse_end\000"
 22097      655F656E 
 22097      6400
 22098              	.LASF724:
 22099 15b8 49435543 		.ascii	"ICUConfig\000"
 22099      6F6E6669 
 22099      6700
 22100              	.LASF769:
 22101 15c2 74787065 		.ascii	"txpending\000"
 22101      6E64696E 
 22101      6700
 22102              	.LASF238:
 22103 15cc 53454E53 		.ascii	"SENSOR_PORT_MODE_ABI\000"
 22103      4F525F50 
 22103      4F52545F 
 22103      4D4F4445 
 22103      5F414249 
 22104              	.LASF1098:
 22105 15e1 6C6F775F 		.ascii	"low_duty\000"
 22105      64757479 
 22105      00
 22106              	.LASF612:
 22107 15ea 636C6561 		.ascii	"clear\000"
 22107      7200
 22108              	.LASF709:
 22109 15f0 43435852 		.ascii	"CCXR\000"
 22109      00
 22110              	.LASF421:
 22111 15f5 4144435F 		.ascii	"ADC_CTRL_TYPE_CURRENT_REV_BUTTON_BRAKE_ADC\000"
 22111      4354524C 
 22111      5F545950 
 22111      455F4355 
 22111      5252454E 
 22112              	.LASF114:
 22113 1620 43414E5F 		.ascii	"CAN_TypeDef\000"
 22113      54797065 
 22113      44656600 
 22114              	.LASF912:
 22115 162c 5F6F6666 		.ascii	"_off_t\000"
 22115      5F7400
 22116              	.LASF1113:
 22117 1633 636F6E66 		.ascii	"conf_general_read_mc_configuration\000"
 22117      5F67656E 
 22117      6572616C 
 22117      5F726561 
 22117      645F6D63 
 22118              	.LASF419:
 22119 1656 4144435F 		.ascii	"ADC_CTRL_TYPE_CURRENT_REV_CENTER\000"
 22119      4354524C 
 22119      5F545950 
 22119      455F4355 
 22119      5252454E 
 22120              	.LASF727:
 22121 1677 53445F53 		.ascii	"SD_STOP\000"
 22121      544F5000 
ARM GAS  /tmp/ccTUBOn1.s 			page 407


 22122              	.LASF803:
 22123 167f 72657376 		.ascii	"resvd8\000"
 22123      643800
 22124              	.LASF22:
 22125 1686 73697A65 		.ascii	"size_t\000"
 22125      5F7400
 22126              	.LASF998:
 22127 168d 5F6C6F63 		.ascii	"_localtime_buf\000"
 22127      616C7469 
 22127      6D655F62 
 22127      756600
 22128              	.LASF591:
 22129 169c 464C4153 		.ascii	"FLASH_ERROR_RD\000"
 22129      485F4552 
 22129      524F525F 
 22129      524400
 22130              	.LASF239:
 22131 16ab 53454E53 		.ascii	"SENSOR_PORT_MODE_AS5047_SPI\000"
 22131      4F525F50 
 22131      4F52545F 
 22131      4D4F4445 
 22131      5F415335 
 22132              	.LASF917:
 22133 16c7 5F5F636F 		.ascii	"__count\000"
 22133      756E7400 
 22134              	.LASF498:
 22135 16cf 74696D65 		.ascii	"timeout_msec\000"
 22135      6F75745F 
 22135      6D736563 
 22135      00
 22136              	.LASF17:
 22137 16dc 75696E74 		.ascii	"uint8_t\000"
 22137      385F7400 
 22138              	.LASF807:
 22139 16e4 72657376 		.ascii	"resvd14\000"
 22139      64313400 
 22140              	.LASF1167:
 22141 16ec 6D635F69 		.ascii	"mc_interface_get_tot_current\000"
 22141      6E746572 
 22141      66616365 
 22141      5F676574 
 22141      5F746F74 
 22142              	.LASF500:
 22143 1709 73656E64 		.ascii	"send_can_status\000"
 22143      5F63616E 
 22143      5F737461 
 22143      74757300 
 22144              	.LASF573:
 22145 1719 434F4D4D 		.ascii	"COMM_JUMP_TO_BOOTLOADER_ALL_CAN\000"
 22145      5F4A554D 
 22145      505F544F 
 22145      5F424F4F 
 22145      544C4F41 
 22146              	.LASF492:
 22147 1739 43414E5F 		.ascii	"CAN_STATUS_1\000"
 22147      53544154 
 22147      55535F31 
ARM GAS  /tmp/ccTUBOn1.s 			page 408


 22147      00
 22148              	.LASF66:
 22149 1746 725F6F6C 		.ascii	"r_older\000"
 22149      64657200 
 22150              	.LASF672:
 22151 174e 5354445F 		.ascii	"STD_DUTY_CYCLE\000"
 22151      44555459 
 22151      5F435943 
 22151      4C4500
 22152              	.LASF36:
 22153 175d 705F7072 		.ascii	"p_prev\000"
 22153      657600
 22154              	.LASF164:
 22155 1764 63665F6F 		.ascii	"cf_off_name\000"
 22155      66665F6E 
 22155      616D6500 
 22156              	.LASF540:
 22157 1770 434F4D4D 		.ascii	"COMM_DETECT_MOTOR_FLUX_LINKAGE\000"
 22157      5F444554 
 22157      4543545F 
 22157      4D4F544F 
 22157      525F464C 
 22158              	.LASF384:
 22159 178f 4150505F 		.ascii	"APP_NUNCHUK\000"
 22159      4E554E43 
 22159      48554B00 
 22160              	.LASF552:
 22161 179b 434F4D4D 		.ascii	"COMM_GPD_SET_FSW\000"
 22161      5F475044 
 22161      5F534554 
 22161      5F465357 
 22161      00
 22162              	.LASF292:
 22163 17ac 6C6F5F63 		.ascii	"lo_current_motor_min_now\000"
 22163      75727265 
 22163      6E745F6D 
 22163      6F746F72 
 22163      5F6D696E 
 22164              	.LASF1087:
 22165 17c5 636F7265 		.ascii	"core_clock_freq\000"
 22165      5F636C6F 
 22165      636B5F66 
 22165      72657100 
 22166              	.LASF811:
 22167 17d5 44494550 		.ascii	"DIEPCTL\000"
 22167      43544C00 
 22168              	.LASF272:
 22169 17dd 6C5F6D61 		.ascii	"l_max_vin\000"
 22169      785F7669 
 22169      6E00
 22170              	.LASF180:
 22171 17e7 656C5F77 		.ascii	"el_wflags\000"
 22171      666C6167 
 22171      7300
 22172              	.LASF1101:
 22173 17f1 68616C6C 		.ascii	"hall_res\000"
 22173      5F726573 
ARM GAS  /tmp/ccTUBOn1.s 			page 409


 22173      00
 22174              	.LASF767:
 22175 17fa 6F746770 		.ascii	"otgparams\000"
 22175      6172616D 
 22175      7300
 22176              	.LASF139:
 22177 1804 65786974 		.ascii	"exitcode\000"
 22177      636F6465 
 22177      00
 22178              	.LASF632:
 22179 180d 50444461 		.ascii	"PDData\000"
 22179      746100
 22180              	.LASF489:
 22181 1814 73656E64 		.ascii	"send_crc_ack\000"
 22181      5F637263 
 22181      5F61636B 
 22181      00
 22182              	.LASF1033:
 22183 1821 6D61785F 		.ascii	"max_current_in\000"
 22183      63757272 
 22183      656E745F 
 22183      696E00
 22184              	.LASF981:
 22185 1830 5F637674 		.ascii	"_cvtbuf\000"
 22185      62756600 
 22186              	.LASF901:
 22187 1838 6F75745F 		.ascii	"out_state\000"
 22187      73746174 
 22187      6500
 22188              	.LASF184:
 22189 1842 696F5F71 		.ascii	"io_queue_t\000"
 22189      75657565 
 22189      5F7400
 22190              	.LASF971:
 22191 184d 5F656D65 		.ascii	"_emergency\000"
 22191      7267656E 
 22191      637900
 22192              	.LASF379:
 22193 1858 4150505F 		.ascii	"APP_PPM\000"
 22193      50504D00 
 22194              	.LASF1176:
 22195 1860 464C4153 		.ascii	"FLASH_Unlock\000"
 22195      485F556E 
 22195      6C6F636B 
 22195      00
 22196              	.LASF422:
 22197 186d 4144435F 		.ascii	"ADC_CTRL_TYPE_CURRENT_REV_BUTTON_BRAKE_CENTER\000"
 22197      4354524C 
 22197      5F545950 
 22197      455F4355 
 22197      5252454E 
 22198              	.LASF660:
 22199 189b 4932435F 		.ascii	"I2C_STOP\000"
 22199      53544F50 
 22199      00
 22200              	.LASF684:
 22201 18a4 61646472 		.ascii	"addr\000"
ARM GAS  /tmp/ccTUBOn1.s 			page 410


 22201      00
 22202              	.LASF495:
 22203 18a9 43414E5F 		.ascii	"CAN_STATUS_1_2_3_4\000"
 22203      53544154 
 22203      55535F31 
 22203      5F325F33 
 22203      5F3400
 22204              	.LASF1122:
 22205 18bc 636F6E66 		.ascii	"conf_general_read_eeprom_var_custom\000"
 22205      5F67656E 
 22205      6572616C 
 22205      5F726561 
 22205      645F6565 
 22206              	.LASF99:
 22207 18e0 52463052 		.ascii	"RF0R\000"
 22207      00
 22208              	.LASF567:
 22209 18e5 434F4D4D 		.ascii	"COMM_EXT_NRF_ESB_SET_CH_ADDR\000"
 22209      5F455854 
 22209      5F4E5246 
 22209      5F455342 
 22209      5F534554 
 22210              	.LASF427:
 22211 1902 4144435F 		.ascii	"ADC_CTRL_TYPE_DUTY_REV_CENTER\000"
 22211      4354524C 
 22211      5F545950 
 22211      455F4455 
 22211      54595F52 
 22212              	.LASF400:
 22213 1920 70706D5F 		.ascii	"ppm_control_type\000"
 22213      636F6E74 
 22213      726F6C5F 
 22213      74797065 
 22213      00
 22214              	.LASF519:
 22215 1931 434F4D4D 		.ascii	"COMM_SET_DUTY\000"
 22215      5F534554 
 22215      5F445554 
 22215      5900
 22216              	.LASF615:
 22217 193f 4F535045 		.ascii	"OSPEEDR\000"
 22217      45445200 
 22218              	.LASF1124:
 22219 1947 636F6E66 		.ascii	"conf_general_init\000"
 22219      5F67656E 
 22219      6572616C 
 22219      5F696E69 
 22219      7400
 22220              	.LASF1072:
 22221 1959 6572706D 		.ascii	"erpm_per_sec\000"
 22221      5F706572 
 22221      5F736563 
 22221      00
 22222              	.LASF835:
 22223 1966 72657376 		.ascii	"resvd30\000"
 22223      64333000 
 22224              	.LASF916:
ARM GAS  /tmp/ccTUBOn1.s 			page 411


 22225 196e 5F5F7763 		.ascii	"__wchb\000"
 22225      686200
 22226              	.LASF836:
 22227 1975 72657376 		.ascii	"resvd34\000"
 22227      64333400 
 22228              	.LASF273:
 22229 197d 6C5F6261 		.ascii	"l_battery_cut_start\000"
 22229      74746572 
 22229      795F6375 
 22229      745F7374 
 22229      61727400 
 22230              	.LASF725:
 22231 1991 49435544 		.ascii	"ICUD4\000"
 22231      3400
 22232              	.LASF930:
 22233 1997 5F5F746D 		.ascii	"__tm_hour\000"
 22233      5F686F75 
 22233      7200
 22234              	.LASF1032:
 22235 19a1 6D696E5F 		.ascii	"min_current_in\000"
 22235      63757272 
 22235      656E745F 
 22235      696E00
 22236              	.LASF274:
 22237 19b0 6C5F6261 		.ascii	"l_battery_cut_end\000"
 22237      74746572 
 22237      795F6375 
 22237      745F656E 
 22237      6400
 22238              	.LASF602:
 22239 19c2 6D637077 		.ascii	"mcpwm_vzero\000"
 22239      6D5F767A 
 22239      65726F00 
 22240              	.LASF271:
 22241 19ce 6C5F6D69 		.ascii	"l_min_vin\000"
 22241      6E5F7669 
 22241      6E00
 22242              	.LASF474:
 22243 19d8 4E52465F 		.ascii	"NRF_RETR_DELAY_2500US\000"
 22243      52455452 
 22243      5F44454C 
 22243      41595F32 
 22243      35303055 
 22244              	.LASF232:
 22245 19ee 4641554C 		.ascii	"FAULT_CODE_BOOTING_FROM_WATCHDOG_RESET\000"
 22245      545F434F 
 22245      44455F42 
 22245      4F4F5449 
 22245      4E475F46 
 22246              	.LASF665:
 22247 1a15 69326373 		.ascii	"i2cstate_t\000"
 22247      74617465 
 22247      5F7400
 22248              	.LASF785:
 22249 1a20 5553425F 		.ascii	"USB_EP0_ERROR\000"
 22249      4550305F 
 22249      4552524F 
ARM GAS  /tmp/ccTUBOn1.s 			page 412


 22249      5200
 22250              	.LASF1145:
 22251 1a2e 74696D65 		.ascii	"timeout_get_timeout_msec\000"
 22251      6F75745F 
 22251      6765745F 
 22251      74696D65 
 22251      6F75745F 
 22252              	.LASF528:
 22253 1a47 434F4D4D 		.ascii	"COMM_GET_MCCONF\000"
 22253      5F474554 
 22253      5F4D4343 
 22253      4F4E4600 
 22254              	.LASF914:
 22255 1a57 77696E74 		.ascii	"wint_t\000"
 22255      5F7400
 22256              	.LASF576:
 22257 1a5e 434F4D4D 		.ascii	"COMM_PING_CAN\000"
 22257      5F50494E 
 22257      475F4341 
 22257      4E00
 22258              	.LASF313:
 22259 1a6c 666F635F 		.ascii	"foc_encoder_sincos_filter_constant\000"
 22259      656E636F 
 22259      6465725F 
 22259      73696E63 
 22259      6F735F66 
 22260              	.LASF1085:
 22261 1a8f 636F6E66 		.ascii	"conf_general_calculate_deadtime\000"
 22261      5F67656E 
 22261      6572616C 
 22261      5F63616C 
 22261      63756C61 
 22262              	.LASF100:
 22263 1aaf 52463152 		.ascii	"RF1R\000"
 22263      00
 22264              	.LASF251:
 22265 1ab4 43414E5F 		.ascii	"CAN_BAUD_1M\000"
 22265      42415544 
 22265      5F314D00 
 22266              	.LASF874:
 22267 1ac0 72657376 		.ascii	"resvdE04\000"
 22267      64453034 
 22267      00
 22268              	.LASF879:
 22269 1ac9 6E756D5F 		.ascii	"num_endpoints\000"
 22269      656E6470 
 22269      6F696E74 
 22269      7300
 22270              	.LASF1158:
 22271 1ad7 6D635F69 		.ascii	"mc_interface_get_duty_cycle_now\000"
 22271      6E746572 
 22271      66616365 
 22271      5F676574 
 22271      5F647574 
 22272              	.LASF545:
 22273 1af7 434F4D4D 		.ascii	"COMM_GET_DECODED_PPM\000"
 22273      5F474554 
ARM GAS  /tmp/ccTUBOn1.s 			page 413


 22273      5F444543 
 22273      4F444544 
 22273      5F50504D 
 22274              	.LASF887:
 22275 1b0c 746F7473 		.ascii	"totsize\000"
 22275      697A6500 
 22276              	.LASF311:
 22277 1b14 666F635F 		.ascii	"foc_encoder_cos_offset\000"
 22277      656E636F 
 22277      6465725F 
 22277      636F735F 
 22277      6F666673 
 22278              	.LASF219:
 22279 1b2b 4D4F544F 		.ascii	"MOTOR_TYPE_FOC\000"
 22279      525F5459 
 22279      50455F46 
 22279      4F4300
 22280              	.LASF233:
 22281 1b3a 4641554C 		.ascii	"FAULT_CODE_ENCODER_SPI\000"
 22281      545F434F 
 22281      44455F45 
 22281      4E434F44 
 22281      45525F53 
 22282              	.LASF293:
 22283 1b51 736C5F6D 		.ascii	"sl_min_erpm\000"
 22283      696E5F65 
 22283      72706D00 
 22284              	.LASF654:
 22285 1b5d 6572726F 		.ascii	"error_event\000"
 22285      725F6576 
 22285      656E7400 
 22286              	.LASF801:
 22287 1b69 75736267 		.ascii	"usbgetdescriptor_t\000"
 22287      65746465 
 22287      73637269 
 22287      70746F72 
 22287      5F7400
 22288              	.LASF966:
 22289 1b7c 5F657272 		.ascii	"_errno\000"
 22289      6E6F00
 22290              	.LASF780:
 22291 1b83 5553425F 		.ascii	"USB_EP0_TX\000"
 22291      4550305F 
 22291      545800
 22292              	.LASF1128:
 22293 1b8e 636F6D6D 		.ascii	"comm_can_detect_apply_all_foc\000"
 22293      5F63616E 
 22293      5F646574 
 22293      6563745F 
 22293      6170706C 
 22294              	.LASF223:
 22295 1bac 4641554C 		.ascii	"FAULT_CODE_OVER_VOLTAGE\000"
 22295      545F434F 
 22295      44455F4F 
 22295      5645525F 
 22295      564F4C54 
 22296              	.LASF359:
ARM GAS  /tmp/ccTUBOn1.s 			page 414


 22297 1bc4 6D5F6375 		.ascii	"m_current_backoff_gain\000"
 22297      7272656E 
 22297      745F6261 
 22297      636B6F66 
 22297      665F6761 
 22298              	.LASF931:
 22299 1bdb 5F5F746D 		.ascii	"__tm_mday\000"
 22299      5F6D6461 
 22299      7900
 22300              	.LASF404:
 22301 1be5 70756C73 		.ascii	"pulse_start\000"
 22301      655F7374 
 22301      61727400 
 22302              	.LASF362:
 22303 1bf1 6D5F696E 		.ascii	"m_invert_direction\000"
 22303      76657274 
 22303      5F646972 
 22303      65637469 
 22303      6F6E00
 22304              	.LASF606:
 22305 1c04 69666372 		.ascii	"ifcr\000"
 22305      00
 22306              	.LASF899:
 22307 1c09 6F75745F 		.ascii	"out_maxsize\000"
 22307      6D617873 
 22307      697A6500 
 22308              	.LASF1078:
 22309 1c15 6D61785F 		.ascii	"max_time\000"
 22309      74696D65 
 22309      00
 22310              	.LASF621:
 22311 1c1e 73746D33 		.ascii	"stm32_gpio_t\000"
 22311      325F6770 
 22311      696F5F74 
 22311      00
 22312              	.LASF548:
 22313 1c2b 434F4D4D 		.ascii	"COMM_FORWARD_CAN\000"
 22313      5F464F52 
 22313      57415244 
 22313      5F43414E 
 22313      00
 22314              	.LASF138:
 22315 1c3c 7264796D 		.ascii	"rdymsg\000"
 22315      736700
 22316              	.LASF938:
 22317 1c43 5F666E61 		.ascii	"_fnargs\000"
 22317      72677300 
 22318              	.LASF919:
 22319 1c4b 5F6D6273 		.ascii	"_mbstate_t\000"
 22319      74617465 
 22319      5F7400
 22320              	.LASF90:
 22321 1c56 54445452 		.ascii	"TDTR\000"
 22321      00
 22322              	.LASF282:
 22323 1c5b 6C5F6D61 		.ascii	"l_max_duty\000"
 22323      785F6475 
ARM GAS  /tmp/ccTUBOn1.s 			page 415


 22323      747900
 22324              	.LASF98:
 22325 1c66 43414E5F 		.ascii	"CAN_FilterRegister_TypeDef\000"
 22325      46696C74 
 22325      65725265 
 22325      67697374 
 22325      65725F54 
 22326              	.LASF537:
 22327 1c81 434F4D4D 		.ascii	"COMM_EXPERIMENT_SAMPLE\000"
 22327      5F455850 
 22327      4552494D 
 22327      454E545F 
 22327      53414D50 
 22328              	.LASF1036:
 22329 1c98 61707063 		.ascii	"appconf\000"
 22329      6F6E6600 
 22330              	.LASF838:
 22331 1ca0 72657376 		.ascii	"resvd58\000"
 22331      64353800 
 22332              	.LASF888:
 22333 1ca8 55534249 		.ascii	"USBInEndpointState\000"
 22333      6E456E64 
 22333      706F696E 
 22333      74537461 
 22333      746500
 22334              	.LASF37:
 22335 1cbb 705F7072 		.ascii	"p_prio\000"
 22335      696F00
 22336              	.LASF563:
 22337 1cc2 434F4D4D 		.ascii	"COMM_SET_MCCONF_TEMP_SETUP\000"
 22337      5F534554 
 22337      5F4D4343 
 22337      4F4E465F 
 22337      54454D50 
 22338              	.LASF185:
 22339 1cdd 696F5F71 		.ascii	"io_queue\000"
 22339      75657565 
 22339      00
 22340              	.LASF629:
 22341 1ce6 50414461 		.ascii	"PAData\000"
 22341      746100
 22342              	.LASF1139:
 22343 1ced 6D635F69 		.ascii	"mc_interface_get_fault\000"
 22343      6E746572 
 22343      66616365 
 22343      5F676574 
 22343      5F666175 
 22344              	.LASF13:
 22345 1d04 5F5F7569 		.ascii	"__uint64_t\000"
 22345      6E743634 
 22345      5F7400
 22346              	.LASF478:
 22347 1d0f 4E52465F 		.ascii	"NRF_RETR_DELAY_3500US\000"
 22347      52455452 
 22347      5F44454C 
 22347      41595F33 
 22347      35303055 
ARM GAS  /tmp/ccTUBOn1.s 			page 416


 22348              	.LASF330:
 22349 1d25 666F635F 		.ascii	"foc_sl_erpm\000"
 22349      736C5F65 
 22349      72706D00 
 22350              	.LASF1148:
 22351 1d31 6D635F69 		.ascii	"mc_interface_lock\000"
 22351      6E746572 
 22351      66616365 
 22351      5F6C6F63 
 22351      6B00
 22352              	.LASF923:
 22353 1d43 5F6E6578 		.ascii	"_next\000"
 22353      7400
 22354              	.LASF1147:
 22355 1d49 74696D65 		.ascii	"timeout_reset\000"
 22355      6F75745F 
 22355      72657365 
 22355      7400
 22356              	.LASF870:
 22357 1d57 72657376 		.ascii	"resvd880\000"
 22357      64383830 
 22357      00
 22358              	.LASF784:
 22359 1d60 5553425F 		.ascii	"USB_EP0_SENDING_STS\000"
 22359      4550305F 
 22359      53454E44 
 22359      494E475F 
 22359      53545300 
 22360              	.LASF1006:
 22361 1d74 5F736967 		.ascii	"_signal_buf\000"
 22361      6E616C5F 
 22361      62756600 
 22362              	.LASF721:
 22363 1d80 70657269 		.ascii	"period_cb\000"
 22363      6F645F63 
 22363      6200
 22364              	.LASF488:
 22365 1d8a 61646472 		.ascii	"address\000"
 22365      65737300 
 22366              	.LASF952:
 22367 1d92 5F636F6F 		.ascii	"_cookie\000"
 22367      6B696500 
 22368              	.LASF297:
 22369 1d9a 736C5F70 		.ascii	"sl_phase_advance_at_br\000"
 22369      68617365 
 22369      5F616476 
 22369      616E6365 
 22369      5F61745F 
 22370              	.LASF786:
 22371 1db1 75736265 		.ascii	"usbep0state_t\000"
 22371      70307374 
 22371      6174655F 
 22371      7400
 22372              	.LASF102:
 22373 1dbf 7354784D 		.ascii	"sTxMailBox\000"
 22373      61696C42 
 22373      6F7800
ARM GAS  /tmp/ccTUBOn1.s 			page 417


 22374              	.LASF745:
 22375 1dca 5350495F 		.ascii	"SPI_ACTIVE\000"
 22375      41435449 
 22375      564500
 22376              	.LASF188:
 22377 1dd5 715F6275 		.ascii	"q_buffer\000"
 22377      66666572 
 22377      00
 22378              	.LASF423:
 22379 1dde 4144435F 		.ascii	"ADC_CTRL_TYPE_CURRENT_NOREV_BRAKE_CENTER\000"
 22379      4354524C 
 22379      5F545950 
 22379      455F4355 
 22379      5252454E 
 22380              	.LASF35:
 22381 1e07 705F6E65 		.ascii	"p_next\000"
 22381      787400
 22382              	.LASF689:
 22383 1e0e 49324344 		.ascii	"I2CD2\000"
 22383      3200
 22384              	.LASF582:
 22385 1e14 434F4D4D 		.ascii	"COMM_BM_WRITE_FLASH\000"
 22385      5F424D5F 
 22385      57524954 
 22385      455F464C 
 22385      41534800 
 22386              	.LASF755:
 22387 1e28 55534244 		.ascii	"USBDriver\000"
 22387      72697665 
 22387      7200
 22388              	.LASF871:
 22389 1e32 72657376 		.ascii	"resvd8C0\000"
 22389      64384330 
 22389      00
 22390              	.LASF1094:
 22391 1e3b 6176675F 		.ascii	"avg_current\000"
 22391      63757272 
 22391      656E7400 
 22392              	.LASF909:
 22393 1e47 55534243 		.ascii	"USBConfig\000"
 22393      6F6E6669 
 22393      6700
 22394              	.LASF496:
 22395 1e51 43414E5F 		.ascii	"CAN_STATUS_MODE\000"
 22395      53544154 
 22395      55535F4D 
 22395      4F444500 
 22396              	.LASF814:
 22397 1e61 72657376 		.ascii	"resvdC\000"
 22397      644300
 22398              	.LASF487:
 22399 1e68 6368616E 		.ascii	"channel\000"
 22399      6E656C00 
 22400              	.LASF1134:
 22401 1e70 6D635F69 		.ascii	"mc_interface_set_configuration\000"
 22401      6E746572 
 22401      66616365 
ARM GAS  /tmp/ccTUBOn1.s 			page 418


 22401      5F736574 
 22401      5F636F6E 
 22402              	.LASF355:
 22403 1e8f 63635F67 		.ascii	"cc_gain\000"
 22403      61696E00 
 22404              	.LASF470:
 22405 1e97 4E52465F 		.ascii	"NRF_RETR_DELAY_1500US\000"
 22405      52455452 
 22405      5F44454C 
 22405      41595F31 
 22405      35303055 
 22406              	.LASF733:
 22407 1ead 6F717565 		.ascii	"oqueue\000"
 22407      756500
 22408              	.LASF26:
 22409 1eb4 74726566 		.ascii	"trefs_t\000"
 22409      735F7400 
 22410              	.LASF53:
 22411 1ebc 705F6D70 		.ascii	"p_mpool\000"
 22411      6F6F6C00 
 22412              	.LASF257:
 22413 1ec4 70776D5F 		.ascii	"pwm_mode\000"
 22413      6D6F6465 
 22413      00
 22414              	.LASF428:
 22415 1ecd 4144435F 		.ascii	"ADC_CTRL_TYPE_DUTY_REV_BUTTON\000"
 22415      4354524C 
 22415      5F545950 
 22415      455F4455 
 22415      54595F52 
 22416              	.LASF259:
 22417 1eeb 6D6F746F 		.ascii	"motor_type\000"
 22417      725F7479 
 22417      706500
 22418              	.LASF288:
 22419 1ef6 6C6F5F63 		.ascii	"lo_current_min\000"
 22419      75727265 
 22419      6E745F6D 
 22419      696E00
 22420              	.LASF902:
 22421 1f05 696E5F6D 		.ascii	"in_multiplier\000"
 22421      756C7469 
 22421      706C6965 
 22421      7200
 22422              	.LASF295:
 22423 1f13 736C5F6D 		.ascii	"sl_max_fullbreak_current_dir_change\000"
 22423      61785F66 
 22423      756C6C62 
 22423      7265616B 
 22423      5F637572 
 22424              	.LASF937:
 22425 1f37 5F6F6E5F 		.ascii	"_on_exit_args\000"
 22425      65786974 
 22425      5F617267 
 22425      7300
 22426              	.LASF24:
 22427 1f45 746D6F64 		.ascii	"tmode_t\000"
ARM GAS  /tmp/ccTUBOn1.s 			page 419


 22427      655F7400 
 22428              	.LASF975:
 22429 1f4d 5F5F636C 		.ascii	"__cleanup\000"
 22429      65616E75 
 22429      7000
 22430              	.LASF1096:
 22431 1f57 636F6E66 		.ascii	"conf_general_detect_motor_param\000"
 22431      5F67656E 
 22431      6572616C 
 22431      5F646574 
 22431      6563745F 
 22432              	.LASF256:
 22433 1f77 42415454 		.ascii	"BATTERY_TYPE\000"
 22433      4552595F 
 22433      54595045 
 22433      00
 22434              	.LASF946:
 22435 1f84 5F626173 		.ascii	"_base\000"
 22435      6500
 22436              	.LASF855:
 22437 1f8a 44535453 		.ascii	"DSTS\000"
 22437      00
 22438              	.LASF436:
 22439 1f8f 766F6C74 		.ascii	"voltage2_start\000"
 22439      61676532 
 22439      5F737461 
 22439      727400
 22440              	.LASF326:
 22441 1f9e 666F635F 		.ascii	"foc_sl_d_current_duty\000"
 22441      736C5F64 
 22441      5F637572 
 22441      72656E74 
 22441      5F647574 
 22442              	.LASF617:
 22443 1fb4 42535252 		.ascii	"BSRR\000"
 22443      00
 22444              	.LASF610:
 22445 1fb9 73746D33 		.ascii	"stm32_dma_stream_t\000"
 22445      325F646D 
 22445      615F7374 
 22445      7265616D 
 22445      5F7400
 22446              	.LASF907:
 22447 1fcc 72657175 		.ascii	"requests_hook_cb\000"
 22447      65737473 
 22447      5F686F6F 
 22447      6B5F6362 
 22447      00
 22448              	.LASF1011:
 22449 1fdd 5F776372 		.ascii	"_wcrtomb_state\000"
 22449      746F6D62 
 22449      5F737461 
 22449      746500
 22450              	.LASF475:
 22451 1fec 4E52465F 		.ascii	"NRF_RETR_DELAY_2750US\000"
 22451      52455452 
 22451      5F44454C 
ARM GAS  /tmp/ccTUBOn1.s 			page 420


 22451      41595F32 
 22451      37353055 
 22452              	.LASF300:
 22453 2002 68616C6C 		.ascii	"hall_table\000"
 22453      5F746162 
 22453      6C6500
 22454              	.LASF885:
 22455 200d 74787369 		.ascii	"txsize\000"
 22455      7A6500
 22456              	.LASF714:
 22457 2014 69637566 		.ascii	"icufreq_t\000"
 22457      7265715F 
 22457      7400
 22458              	.LASF1185:
 22459 201e 6D656D73 		.ascii	"memset\000"
 22459      657400
 22460              	.LASF664:
 22461 2025 4932435F 		.ascii	"I2C_LOCKED\000"
 22461      4C4F434B 
 22461      454400
 22462              	.LASF720:
 22463 2030 77696474 		.ascii	"width_cb\000"
 22463      685F6362 
 22463      00
 22464              	.LASF218:
 22465 2039 4D4F544F 		.ascii	"MOTOR_TYPE_DC\000"
 22465      525F5459 
 22465      50455F44 
 22465      4300
 22466              	.LASF471:
 22467 2047 4E52465F 		.ascii	"NRF_RETR_DELAY_1750US\000"
 22467      52455452 
 22467      5F44454C 
 22467      41595F31 
 22467      37353055 
 22468              	.LASF1044:
 22469 205d 72657375 		.ascii	"result\000"
 22469      6C7400
 22470              	.LASF775:
 22471 2064 5553425F 		.ascii	"USB_READY\000"
 22471      52454144 
 22471      5900
 22472              	.LASF393:
 22473 206e 50504D5F 		.ascii	"PPM_CTRL_TYPE_CURRENT\000"
 22473      4354524C 
 22473      5F545950 
 22473      455F4355 
 22473      5252454E 
 22474              	.LASF511:
 22475 2084 6170705F 		.ascii	"app_chuk_conf\000"
 22475      6368756B 
 22475      5F636F6E 
 22475      6600
 22476              	.LASF316:
 22477 2092 666F635F 		.ascii	"foc_motor_flux_linkage\000"
 22477      6D6F746F 
 22477      725F666C 
ARM GAS  /tmp/ccTUBOn1.s 			page 421


 22477      75785F6C 
 22477      696E6B61 
 22478              	.LASF338:
 22479 20a9 6770645F 		.ascii	"gpd_buffer_interpol\000"
 22479      62756666 
 22479      65725F69 
 22479      6E746572 
 22479      706F6C00 
 22480              	.LASF827:
 22481 20bd 47525354 		.ascii	"GRSTCTL\000"
 22481      43544C00 
 22482              	.LASF296:
 22483 20c5 736C5F63 		.ascii	"sl_cycle_int_limit\000"
 22483      79636C65 
 22483      5F696E74 
 22483      5F6C696D 
 22483      697400
 22484              	.LASF16:
 22485 20d8 696E7438 		.ascii	"int8_t\000"
 22485      5F7400
 22486              	.LASF526:
 22487 20df 434F4D4D 		.ascii	"COMM_SET_SERVO_POS\000"
 22487      5F534554 
 22487      5F534552 
 22487      564F5F50 
 22487      4F5300
 22488              	.LASF921:
 22489 20f2 5F5F554C 		.ascii	"__ULong\000"
 22489      6F6E6700 
 22490              	.LASF81:
 22491 20fa 70616E69 		.ascii	"panic_msg\000"
 22491      635F6D73 
 22491      6700
 22492              	.LASF499:
 22493 2104 74696D65 		.ascii	"timeout_brake_current\000"
 22493      6F75745F 
 22493      6272616B 
 22493      655F6375 
 22493      7272656E 
 22494              	.LASF746:
 22495 211a 5350495F 		.ascii	"SPI_COMPLETE\000"
 22495      434F4D50 
 22495      4C455445 
 22495      00
 22496              	.LASF961:
 22497 2127 5F646174 		.ascii	"_data\000"
 22497      6100
 22498              	.LASF65:
 22499 212d 725F6E65 		.ascii	"r_newer\000"
 22499      77657200 
 22500              	.LASF520:
 22501 2135 434F4D4D 		.ascii	"COMM_SET_CURRENT\000"
 22501      5F534554 
 22501      5F435552 
 22501      52454E54 
 22501      00
 22502              	.LASF792:
ARM GAS  /tmp/ccTUBOn1.s 			page 422


 22503 2146 5553425F 		.ascii	"USB_EVENT_STALLED\000"
 22503      4556454E 
 22503      545F5354 
 22503      414C4C45 
 22503      4400
 22504              	.LASF1163:
 22505 2158 6D637077 		.ascii	"mcpwm_foc_get_id\000"
 22505      6D5F666F 
 22505      635F6765 
 22505      745F6964 
 22505      00
 22506              	.LASF229:
 22507 2169 4641554C 		.ascii	"FAULT_CODE_GATE_DRIVER_OVER_VOLTAGE\000"
 22507      545F434F 
 22507      44455F47 
 22507      4154455F 
 22507      44524956 
 22508              	.LASF388:
 22509 218d 5448525F 		.ascii	"THR_EXP_EXPO\000"
 22509      4558505F 
 22509      4558504F 
 22509      00
 22510              	.LASF171:
 22511 219a 63686465 		.ascii	"chdebug_t\000"
 22511      6275675F 
 22511      7400
 22512              	.LASF1162:
 22513 21a4 6D637077 		.ascii	"mcpwm_foc_get_iq\000"
 22513      6D5F666F 
 22513      635F6765 
 22513      745F6971 
 22513      00
 22514              	.LASF891:
 22515 21b5 72787369 		.ascii	"rxsize\000"
 22515      7A6500
 22516              	.LASF693:
 22517 21bc 4943555F 		.ascii	"ICU_WAITING\000"
 22517      57414954 
 22517      494E4700 
 22518              	.LASF1084:
 22519 21c8 73616D70 		.ascii	"samples2\000"
 22519      6C657332 
 22519      00
 22520              	.LASF806:
 22521 21d1 48435453 		.ascii	"HCTSIZ\000"
 22521      495A00
 22522              	.LASF789:
 22523 21d8 5553425F 		.ascii	"USB_EVENT_CONFIGURED\000"
 22523      4556454E 
 22523      545F434F 
 22523      4E464947 
 22523      55524544 
 22524              	.LASF1159:
 22525 21ed 6D637077 		.ascii	"mcpwm_foc_set_openloop\000"
 22525      6D5F666F 
 22525      635F7365 
 22525      745F6F70 
ARM GAS  /tmp/ccTUBOn1.s 			page 423


 22525      656E6C6F 
 22526              	.LASF738:
 22527 2204 70757474 		.ascii	"putt\000"
 22527      00
 22528              	.LASF587:
 22529 2209 61735F66 		.ascii	"as_float\000"
 22529      6C6F6174 
 22529      00
 22530              	.LASF27:
 22531 2212 74736C69 		.ascii	"tslices_t\000"
 22531      6365735F 
 22531      7400
 22532              	.LASF559:
 22533 221c 434F4D4D 		.ascii	"COMM_GPD_FILL_BUFFER_INT16\000"
 22533      5F475044 
 22533      5F46494C 
 22533      4C5F4255 
 22533      46464552 
 22534              	.LASF158:
 22535 2237 63685F74 		.ascii	"ch_timesize\000"
 22535      696D6573 
 22535      697A6500 
 22536              	.LASF406:
 22537 2243 70756C73 		.ascii	"pulse_center\000"
 22537      655F6365 
 22537      6E746572 
 22537      00
 22538              	.LASF771:
 22539 2250 77615F70 		.ascii	"wa_pump\000"
 22539      756D7000 
 22540              	.LASF431:
 22541 2258 4144435F 		.ascii	"ADC_CTRL_TYPE_PID_REV_BUTTON\000"
 22541      4354524C 
 22541      5F545950 
 22541      455F5049 
 22541      445F5245 
 22542              	.LASF183:
 22543 2275 6576656E 		.ascii	"event_source_t\000"
 22543      745F736F 
 22543      75726365 
 22543      5F7400
 22544              	.LASF841:
 22545 2284 72657376 		.ascii	"resvd140\000"
 22545      64313430 
 22545      00
 22546              	.LASF73:
 22547 228d 76745F64 		.ascii	"vt_delta\000"
 22547      656C7461 
 22547      00
 22548              	.LASF992:
 22549 2296 5F736565 		.ascii	"_seed\000"
 22549      6400
 22550              	.LASF255:
 22551 229c 42415454 		.ascii	"BATTERY_TYPE_LEAD_ACID\000"
 22551      4552595F 
 22551      54595045 
 22551      5F4C4541 
ARM GAS  /tmp/ccTUBOn1.s 			page 424


 22551      445F4143 
 22552              	.LASF955:
 22553 22b3 5F736565 		.ascii	"_seek\000"
 22553      6B00
 22554              	.LASF790:
 22555 22b9 5553425F 		.ascii	"USB_EVENT_SUSPEND\000"
 22555      4556454E 
 22555      545F5355 
 22555      5350454E 
 22555      4400
 22556              	.LASF1074:
 22557 22cb 72706D5F 		.ascii	"rpm_now\000"
 22557      6E6F7700 
 22558              	.LASF254:
 22559 22d3 42415454 		.ascii	"BATTERY_TYPE_LIIRON_2_6__3_6\000"
 22559      4552595F 
 22559      54595045 
 22559      5F4C4949 
 22559      524F4E5F 
 22560              	.LASF7:
 22561 22f0 73686F72 		.ascii	"short unsigned int\000"
 22561      7420756E 
 22561      7369676E 
 22561      65642069 
 22561      6E7400
 22562              	.LASF1:
 22563 2303 7369676E 		.ascii	"signed char\000"
 22563      65642063 
 22563      68617200 
 22564              	.LASF507:
 22565 230f 6170705F 		.ascii	"app_to_use\000"
 22565      746F5F75 
 22565      736500
 22566              	.LASF1070:
 22567 231a 636F6E66 		.ascii	"conf_general_measure_flux_linkage_openloop\000"
 22567      5F67656E 
 22567      6572616C 
 22567      5F6D6561 
 22567      73757265 
 22568              	.LASF1024:
 22569 2345 5F5F6664 		.ascii	"__fdlibm_xopen\000"
 22569      6C69626D 
 22569      5F786F70 
 22569      656E00
 22570              	.LASF285:
 22571 2354 6C5F6375 		.ascii	"l_current_max_scale\000"
 22571      7272656E 
 22571      745F6D61 
 22571      785F7363 
 22571      616C6500 
 22572              	.LASF45:
 22573 2368 705F7072 		.ascii	"p_preempt\000"
 22573      65656D70 
 22573      7400
 22574              	.LASF267:
 22575 2372 6C5F6D61 		.ascii	"l_max_erpm\000"
 22575      785F6572 
ARM GAS  /tmp/ccTUBOn1.s 			page 425


 22575      706D00
 22576              	.LASF46:
 22577 237d 705F7469 		.ascii	"p_time\000"
 22577      6D6500
 22578              	.LASF92:
 22579 2384 54444852 		.ascii	"TDHR\000"
 22579      00
 22580              	.LASF783:
 22581 2389 5553425F 		.ascii	"USB_EP0_RX\000"
 22581      4550305F 
 22581      525800
 22582              	.LASF1062:
 22583 2394 63757272 		.ascii	"current\000"
 22583      656E7400 
 22584              	.LASF1022:
 22585 239c 5F5F6664 		.ascii	"__fdlibm_ieee\000"
 22585      6C69626D 
 22585      5F696565 
 22585      6500
 22586              	.LASF1100:
 22587 23aa 62656D66 		.ascii	"bemf_coupling_k\000"
 22587      5F636F75 
 22587      706C696E 
 22587      675F6B00 
 22588              	.LASF1079:
 22589 23ba 64757479 		.ascii	"duty_now\000"
 22589      5F6E6F77 
 22589      00
 22590              	.LASF765:
 22591 23c3 73746174 		.ascii	"status\000"
 22591      757300
 22592              	.LASF600:
 22593 23ca 6D637077 		.ascii	"mcpwm_detect_voltages\000"
 22593      6D5F6465 
 22593      74656374 
 22593      5F766F6C 
 22593      74616765 
 22594              	.LASF796:
 22595 23e0 55534244 		.ascii	"USBDescriptor\000"
 22595      65736372 
 22595      6970746F 
 22595      7200
 22596              	.LASF391:
 22597 23ee 7468725F 		.ascii	"thr_exp_mode\000"
 22597      6578705F 
 22597      6D6F6465 
 22597      00
 22598              	.LASF979:
 22599 23fb 5F667265 		.ascii	"_freelist\000"
 22599      656C6973 
 22599      7400
 22600              	.LASF508:
 22601 2405 6170705F 		.ascii	"app_ppm_conf\000"
 22601      70706D5F 
 22601      636F6E66 
 22601      00
 22602              	.LASF228:
ARM GAS  /tmp/ccTUBOn1.s 			page 426


 22603 2412 4641554C 		.ascii	"FAULT_CODE_OVER_TEMP_MOTOR\000"
 22603      545F434F 
 22603      44455F4F 
 22603      5645525F 
 22603      54454D50 
 22604              	.LASF216:
 22605 242d 6F75745F 		.ascii	"out_aux_mode\000"
 22605      6175785F 
 22605      6D6F6465 
 22605      00
 22606              	.LASF48:
 22607 243a 705F6D73 		.ascii	"p_msgqueue\000"
 22607      67717565 
 22607      756500
 22608              	.LASF1063:
 22609 2445 70686173 		.ascii	"phase_start\000"
 22609      655F7374 
 22609      61727400 
 22610              	.LASF168:
 22611 2451 63665F6F 		.ascii	"cf_off_refs\000"
 22611      66665F72 
 22611      65667300 
 22612              	.LASF322:
 22613 245d 666F635F 		.ascii	"foc_duty_dowmramp_ki\000"
 22613      64757479 
 22613      5F646F77 
 22613      6D72616D 
 22613      705F6B69 
 22614              	.LASF465:
 22615 2472 4E52465F 		.ascii	"NRF_RETR_DELAY_250US\000"
 22615      52455452 
 22615      5F44454C 
 22615      41595F32 
 22615      35305553 
 22616              	.LASF150:
 22617 2487 6D5F6F77 		.ascii	"m_owner\000"
 22617      6E657200 
 22618              	.LASF321:
 22619 248f 666F635F 		.ascii	"foc_duty_dowmramp_kp\000"
 22619      64757479 
 22619      5F646F77 
 22619      6D72616D 
 22619      705F6B70 
 22620              	.LASF960:
 22621 24a4 5F6F6666 		.ascii	"_offset\000"
 22621      73657400 
 22622              	.LASF89:
 22623 24ac 53797374 		.ascii	"SystemCoreClock\000"
 22623      656D436F 
 22623      7265436C 
 22623      6F636B00 
 22624              	.LASF509:
 22625 24bc 6170705F 		.ascii	"app_adc_conf\000"
 22625      6164635F 
 22625      636F6E66 
 22625      00
 22626              	.LASF648:
ARM GAS  /tmp/ccTUBOn1.s 			page 427


 22627 24c9 73746174 		.ascii	"state\000"
 22627      6500
 22628              	.LASF156:
 22629 24cf 63685F76 		.ascii	"ch_version\000"
 22629      65727369 
 22629      6F6E00
 22630              	.LASF945:
 22631 24da 5F5F7362 		.ascii	"__sbuf\000"
 22631      756600
 22632              	.LASF782:
 22633 24e1 5553425F 		.ascii	"USB_EP0_WAITING_STS\000"
 22633      4550305F 
 22633      57414954 
 22633      494E475F 
 22633      53545300 
 22634              	.LASF123:
 22635 24f5 4932435F 		.ascii	"I2C_TypeDef\000"
 22635      54797065 
 22635      44656600 
 22636              	.LASF96:
 22637 2501 52444852 		.ascii	"RDHR\000"
 22637      00
 22638              	.LASF989:
 22639 2506 5F6E696F 		.ascii	"_niobs\000"
 22639      627300
 22640              	.LASF994:
 22641 250d 5F616464 		.ascii	"_add\000"
 22641      00
 22642              	.LASF1083:
 22643 2512 69645F61 		.ascii	"id_avg\000"
 22643      766700
 22644              	.LASF753:
 22645 2519 53504943 		.ascii	"SPIConfig\000"
 22645      6F6E6669 
 22645      6700
 22646              	.LASF707:
 22647 2523 444D4152 		.ascii	"DMAR\000"
 22647      00
 22648              	.LASF1038:
 22649 2528 63616E5F 		.ascii	"can_devs\000"
 22649      64657673 
 22649      00
 22650              	.LASF83:
 22651 2531 63685F73 		.ascii	"ch_system\000"
 22651      79737465 
 22651      6D00
 22652              	.LASF965:
 22653 253b 5F726565 		.ascii	"_reent\000"
 22653      6E7400
 22654              	.LASF261:
 22655 2542 6C5F6375 		.ascii	"l_current_max\000"
 22655      7272656E 
 22655      745F6D61 
 22655      7800
 22656              	.LASF1005:
 22657 2550 5F6C3634 		.ascii	"_l64a_buf\000"
 22657      615F6275 
ARM GAS  /tmp/ccTUBOn1.s 			page 428


 22657      6600
 22658              	.LASF286:
 22659 255a 6C5F6375 		.ascii	"l_current_min_scale\000"
 22659      7272656E 
 22659      745F6D69 
 22659      6E5F7363 
 22659      616C6500 
 22660              	.LASF997:
 22661 256e 5F617363 		.ascii	"_asctime_buf\000"
 22661      74696D65 
 22661      5F627566 
 22661      00
 22662              	.LASF915:
 22663 257b 5F5F7763 		.ascii	"__wch\000"
 22663      6800
 22664              	.LASF451:
 22665 2581 4E52465F 		.ascii	"NRF_SPEED_250K\000"
 22665      53504545 
 22665      445F3235 
 22665      304B00
 22666              	.LASF918:
 22667 2590 5F5F7661 		.ascii	"__value\000"
 22667      6C756500 
 22668              	.LASF145:
 22669 2598 63685F73 		.ascii	"ch_semaphore\000"
 22669      656D6170 
 22669      686F7265 
 22669      00
 22670              	.LASF1012:
 22671 25a5 5F776373 		.ascii	"_wcsrtombs_state\000"
 22671      72746F6D 
 22671      62735F73 
 22671      74617465 
 22671      00
 22672              	.LASF395:
 22673 25b6 50504D5F 		.ascii	"PPM_CTRL_TYPE_CURRENT_NOREV_BRAKE\000"
 22673      4354524C 
 22673      5F545950 
 22673      455F4355 
 22673      5252454E 
 22674              	.LASF1127:
 22675 25d8 636F6D6D 		.ascii	"comm_can_conf_foc_erpms\000"
 22675      5F63616E 
 22675      5F636F6E 
 22675      665F666F 
 22675      635F6572 
 22676              	.LASF554:
 22677 25f0 434F4D4D 		.ascii	"COMM_GPD_BUFFER_SIZE_LEFT\000"
 22677      5F475044 
 22677      5F425546 
 22677      4645525F 
 22677      53495A45 
 22678              	.LASF815:
 22679 260a 44494550 		.ascii	"DIEPTSIZ\000"
 22679      5453495A 
 22679      00
 22680              	.LASF447:
ARM GAS  /tmp/ccTUBOn1.s 			page 429


 22681 2613 4348554B 		.ascii	"CHUK_CTRL_TYPE_CURRENT_NOREV\000"
 22681      5F435452 
 22681      4C5F5459 
 22681      50455F43 
 22681      55525245 
 22682              	.LASF445:
 22683 2630 4348554B 		.ascii	"CHUK_CTRL_TYPE_NONE\000"
 22683      5F435452 
 22683      4C5F5459 
 22683      50455F4E 
 22683      4F4E4500 
 22684              	.LASF1136:
 22685 2644 6170705F 		.ascii	"app_set_configuration\000"
 22685      7365745F 
 22685      636F6E66 
 22685      69677572 
 22685      6174696F 
 22686              	.LASF437:
 22687 265a 766F6C74 		.ascii	"voltage2_end\000"
 22687      61676532 
 22687      5F656E64 
 22687      00
 22688              	.LASF58:
 22689 2667 74687265 		.ascii	"threads_queue_t\000"
 22689      6164735F 
 22689      71756575 
 22689      655F7400 
 22690              	.LASF237:
 22691 2677 53454E53 		.ascii	"SENSOR_PORT_MODE_HALL\000"
 22691      4F525F50 
 22691      4F52545F 
 22691      4D4F4445 
 22691      5F48414C 
 22692              	.LASF484:
 22693 268d 6372635F 		.ascii	"crc_type\000"
 22693      74797065 
 22693      00
 22694              	.LASF1192:
 22695 2696 5F5F6664 		.ascii	"__fdlibm_version\000"
 22695      6C69626D 
 22695      5F766572 
 22695      73696F6E 
 22695      00
 22696              	.LASF603:
 22697 26a7 4144435F 		.ascii	"ADC_Value\000"
 22697      56616C75 
 22697      6500
 22698              	.LASF208:
 22699 26b1 464F435F 		.ascii	"FOC_SENSOR_MODE_SENSORLESS\000"
 22699      53454E53 
 22699      4F525F4D 
 22699      4F44455F 
 22699      53454E53 
 22700              	.LASF44:
 22701 26cc 705F7265 		.ascii	"p_refs\000"
 22701      667300
 22702              	.LASF448:
ARM GAS  /tmp/ccTUBOn1.s 			page 430


 22703 26d3 6368756B 		.ascii	"chuk_control_type\000"
 22703      5F636F6E 
 22703      74726F6C 
 22703      5F747970 
 22703      6500
 22704              	.LASF822:
 22705 26e5 73746D33 		.ascii	"stm32_otg_out_ep_t\000"
 22705      325F6F74 
 22705      675F6F75 
 22705      745F6570 
 22705      5F7400
 22706              	.LASF207:
 22707 26f8 6D635F73 		.ascii	"mc_sensor_mode\000"
 22707      656E736F 
 22707      725F6D6F 
 22707      646500
 22708              	.LASF91:
 22709 2707 54444C52 		.ascii	"TDLR\000"
 22709      00
 22710              	.LASF9:
 22711 270c 6C6F6E67 		.ascii	"long int\000"
 22711      20696E74 
 22711      00
 22712              	.LASF798:
 22713 2715 75736265 		.ascii	"usbepcallback_t\000"
 22713      7063616C 
 22713      6C626163 
 22713      6B5F7400 
 22714              	.LASF86:
 22715 2725 6D61696E 		.ascii	"mainthread\000"
 22715      74687265 
 22715      616400
 22716              	.LASF762:
 22717 2730 6570306E 		.ascii	"ep0n\000"
 22717      00
 22718              	.LASF149:
 22719 2735 6D5F7175 		.ascii	"m_queue\000"
 22719      65756500 
 22720              	.LASF525:
 22721 273d 434F4D4D 		.ascii	"COMM_SET_DETECT\000"
 22721      5F534554 
 22721      5F444554 
 22721      45435400 
 22722              	.LASF636:
 22723 274d 50484461 		.ascii	"PHData\000"
 22723      746100
 22724              	.LASF1174:
 22725 2754 7574696C 		.ascii	"utils_sys_lock_cnt\000"
 22725      735F7379 
 22725      735F6C6F 
 22725      636B5F63 
 22725      6E7400
 22726              	.LASF639:
 22727 2767 696F706F 		.ascii	"ioportid_t\000"
 22727      72746964 
 22727      5F7400
 22728              	.LASF1058:
ARM GAS  /tmp/ccTUBOn1.s 			page 431


 22729 2772 6F6C645F 		.ascii	"old_temp_comp_base_temp\000"
 22729      74656D70 
 22729      5F636F6D 
 22729      705F6261 
 22729      73655F74 
 22730              	.LASF515:
 22731 278a 434F4D4D 		.ascii	"COMM_JUMP_TO_BOOTLOADER\000"
 22731      5F4A554D 
 22731      505F544F 
 22731      5F424F4F 
 22731      544C4F41 
 22732              	.LASF201:
 22733 27a2 434F4D4D 		.ascii	"COMM_MODE_INTEGRATE\000"
 22733      5F4D4F44 
 22733      455F494E 
 22733      54454752 
 22733      41544500 
 22734              	.LASF842:
 22735 27b6 48434647 		.ascii	"HCFG\000"
 22735      00
 22736              	.LASF1086:
 22737 27bb 64656164 		.ascii	"deadtime_ns\000"
 22737      74696D65 
 22737      5F6E7300 
 22738              	.LASF599:
 22739 27c7 6D637077 		.ascii	"mcpwm_detect_currents\000"
 22739      6D5F6465 
 22739      74656374 
 22739      5F637572 
 22739      72656E74 
 22740              	.LASF990:
 22741 27dd 5F696F62 		.ascii	"_iobs\000"
 22741      7300
 22742              	.LASF754:
 22743 27e3 53504944 		.ascii	"SPID1\000"
 22743      3100
 22744              	.LASF739:
 22745 27e9 67657474 		.ascii	"gett\000"
 22745      00
 22746              	.LASF409:
 22747 27ee 7468726F 		.ascii	"throttle_exp\000"
 22747      74746C65 
 22747      5F657870 
 22747      00
 22748              	.LASF398:
 22749 27fb 50504D5F 		.ascii	"PPM_CTRL_TYPE_PID\000"
 22749      4354524C 
 22749      5F545950 
 22749      455F5049 
 22749      4400
 22750              	.LASF565:
 22751 280d 434F4D4D 		.ascii	"COMM_GET_VALUES_SETUP_SELECTIVE\000"
 22751      5F474554 
 22751      5F56414C 
 22751      5545535F 
 22751      53455455 
 22752              	.LASF1057:
ARM GAS  /tmp/ccTUBOn1.s 			page 432


 22753 282d 6F6C645F 		.ascii	"old_temp_comp\000"
 22753      74656D70 
 22753      5F636F6D 
 22753      7000
 22754              	.LASF141:
 22755 283b 77747472 		.ascii	"wttrp\000"
 22755      7000
 22756              	.LASF191:
 22757 2841 715F7264 		.ascii	"q_rdptr\000"
 22757      70747200 
 22758              	.LASF1183:
 22759 2849 636F6E66 		.ascii	"confgenerator_set_defaults_appconf\000"
 22759      67656E65 
 22759      7261746F 
 22759      725F7365 
 22759      745F6465 
 22760              	.LASF134:
 22761 286c 636F6E74 		.ascii	"context\000"
 22761      65787400 
 22762              	.LASF736:
 22763 2874 77726974 		.ascii	"write\000"
 22763      6500
 22764              	.LASF1000:
 22765 287a 5F72616E 		.ascii	"_rand_next\000"
 22765      645F6E65 
 22765      787400
 22766              	.LASF578:
 22767 2885 434F4D4D 		.ascii	"COMM_TERMINAL_CMD_SYNC\000"
 22767      5F544552 
 22767      4D494E41 
 22767      4C5F434D 
 22767      445F5359 
 22768              	.LASF896:
 22769 289c 696E5F63 		.ascii	"in_cb\000"
 22769      6200
 22770              	.LASF370:
 22771 28a2 73695F6D 		.ascii	"si_motor_poles\000"
 22771      6F746F72 
 22771      5F706F6C 
 22771      657300
 22772              	.LASF820:
 22773 28b1 444F4550 		.ascii	"DOEPINT\000"
 22773      494E5400 
 22774              	.LASF618:
 22775 28b9 4C434B52 		.ascii	"LCKR\000"
 22775      00
 22776              	.LASF308:
 22777 28be 666F635F 		.ascii	"foc_encoder_ratio\000"
 22777      656E636F 
 22777      6465725F 
 22777      72617469 
 22777      6F00
 22778              	.LASF729:
 22779 28d0 73647374 		.ascii	"sdstate_t\000"
 22779      6174655F 
 22779      7400
 22780              	.LASF20:
ARM GAS  /tmp/ccTUBOn1.s 			page 433


 22781 28da 75696E74 		.ascii	"uint32_t\000"
 22781      33325F74 
 22781      00
 22782              	.LASF1172:
 22783 28e3 6D637077 		.ascii	"mcpwm_get_hall_detect_result\000"
 22783      6D5F6765 
 22783      745F6861 
 22783      6C6C5F64 
 22783      65746563 
 22784              	.LASF589:
 22785 2900 636F6E66 		.ascii	"conf_general_permanent_nrf_found\000"
 22785      5F67656E 
 22785      6572616C 
 22785      5F706572 
 22785      6D616E65 
 22786              	.LASF547:
 22787 2921 434F4D4D 		.ascii	"COMM_GET_DECODED_CHUK\000"
 22787      5F474554 
 22787      5F444543 
 22787      4F444544 
 22787      5F434855 
 22788              	.LASF924:
 22789 2937 5F6D6178 		.ascii	"_maxwds\000"
 22789      77647300 
 22790              	.LASF800:
 22791 293f 75736272 		.ascii	"usbreqhandler_t\000"
 22791      65716861 
 22791      6E646C65 
 22791      725F7400 
 22792              	.LASF95:
 22793 294f 52444C52 		.ascii	"RDLR\000"
 22793      00
 22794              	.LASF524:
 22795 2954 434F4D4D 		.ascii	"COMM_SET_HANDBRAKE\000"
 22795      5F534554 
 22795      5F48414E 
 22795      44425241 
 22795      4B4500
 22796              	.LASF925:
 22797 2967 5F736967 		.ascii	"_sign\000"
 22797      6E00
 22798              	.LASF1144:
 22799 296d 6D635F69 		.ascii	"mc_interface_get_rpm\000"
 22799      6E746572 
 22799      66616365 
 22799      5F676574 
 22799      5F72706D 
 22800              	.LASF460:
 22801 2982 4E52465F 		.ascii	"NRF_POWER\000"
 22801      504F5745 
 22801      5200
 22802              	.LASF523:
 22803 298c 434F4D4D 		.ascii	"COMM_SET_POS\000"
 22803      5F534554 
 22803      5F504F53 
 22803      00
 22804              	.LASF132:
ARM GAS  /tmp/ccTUBOn1.s 			page 434


 22805 2999 72656761 		.ascii	"regarm_t\000"
 22805      726D5F74 
 22805      00
 22806              	.LASF1081:
 22807 29a2 76645F61 		.ascii	"vd_avg\000"
 22807      766700
 22808              	.LASF30:
 22809 29a9 6576656E 		.ascii	"eventmask_t\000"
 22809      746D6173 
 22809      6B5F7400 
 22810              	.LASF787:
 22811 29b5 5553425F 		.ascii	"USB_EVENT_RESET\000"
 22811      4556454E 
 22811      545F5245 
 22811      53455400 
 22812              	.LASF1082:
 22813 29c5 69715F61 		.ascii	"iq_avg\000"
 22813      766700
 22814              	.LASF1177:
 22815 29cc 464C4153 		.ascii	"FLASH_ClearFlag\000"
 22815      485F436C 
 22815      65617246 
 22815      6C616700 
 22816              	.LASF109:
 22817 29dc 46464131 		.ascii	"FFA1R\000"
 22817      5200
 22818              	.LASF776:
 22819 29e2 5553425F 		.ascii	"USB_SELECTED\000"
 22819      53454C45 
 22819      43544544 
 22819      00
 22820              	.LASF426:
 22821 29ef 4144435F 		.ascii	"ADC_CTRL_TYPE_DUTY\000"
 22821      4354524C 
 22821      5F545950 
 22821      455F4455 
 22821      545900
 22822              	.LASF11:
 22823 2a02 6C6F6E67 		.ascii	"long unsigned int\000"
 22823      20756E73 
 22823      69676E65 
 22823      6420696E 
 22823      7400
 22824              	.LASF356:
 22825 2a14 63635F72 		.ascii	"cc_ramp_step_max\000"
 22825      616D705F 
 22825      73746570 
 22825      5F6D6178 
 22825      00
 22826              	.LASF583:
 22827 2a25 434F4D4D 		.ascii	"COMM_BM_REBOOT\000"
 22827      5F424D5F 
 22827      5245424F 
 22827      4F5400
 22828              	.LASF350:
 22829 2a34 705F7069 		.ascii	"p_pid_kd\000"
 22829      645F6B64 
ARM GAS  /tmp/ccTUBOn1.s 			page 435


 22829      00
 22830              	.LASF349:
 22831 2a3d 705F7069 		.ascii	"p_pid_ki\000"
 22831      645F6B69 
 22831      00
 22832              	.LASF461:
 22833 2a46 4E52465F 		.ascii	"NRF_CRC_DISABLED\000"
 22833      4352435F 
 22833      44495341 
 22833      424C4544 
 22833      00
 22834              	.LASF190:
 22835 2a57 715F7772 		.ascii	"q_wrptr\000"
 22835      70747200 
 22836              	.LASF348:
 22837 2a5f 705F7069 		.ascii	"p_pid_kp\000"
 22837      645F6B70 
 22837      00
 22838              	.LASF234:
 22839 2a68 4641554C 		.ascii	"FAULT_CODE_ENCODER_SINCOS_BELOW_MIN_AMPLITUDE\000"
 22839      545F434F 
 22839      44455F45 
 22839      4E434F44 
 22839      45525F53 
 22840              	.LASF696:
 22841 2a96 49435544 		.ascii	"ICUDriver\000"
 22841      72697665 
 22841      7200
 22842              	.LASF1188:
 22843 2aa0 45455F49 		.ascii	"EE_Init\000"
 22843      6E697400 
 22844              	.LASF953:
 22845 2aa8 5F726561 		.ascii	"_read\000"
 22845      6400
 22846              	.LASF483:
 22847 2aae 706F7765 		.ascii	"power\000"
 22847      7200
 22848              	.LASF378:
 22849 2ab4 4150505F 		.ascii	"APP_NONE\000"
 22849      4E4F4E45 
 22849      00
 22850              	.LASF198:
 22851 2abd 50574D5F 		.ascii	"PWM_MODE_SYNCHRONOUS\000"
 22851      4D4F4445 
 22851      5F53594E 
 22851      4348524F 
 22851      4E4F5553 
 22852              	.LASF366:
 22853 2ad2 6D5F626C 		.ascii	"m_bldc_f_sw_max\000"
 22853      64635F66 
 22853      5F73775F 
 22853      6D617800 
 22854              	.LASF247:
 22855 2ae2 64727638 		.ascii	"drv8301_oc_mode\000"
 22855      3330315F 
 22855      6F635F6D 
 22855      6F646500 
ARM GAS  /tmp/ccTUBOn1.s 			page 436


 22856              	.LASF334:
 22857 2af2 666F635F 		.ascii	"foc_temp_comp\000"
 22857      74656D70 
 22857      5F636F6D 
 22857      7000
 22858              	.LASF434:
 22859 2b00 766F6C74 		.ascii	"voltage_end\000"
 22859      6167655F 
 22859      656E6400 
 22860              	.LASF652:
 22861 2b0c 72786675 		.ascii	"rxfull_event\000"
 22861      6C6C5F65 
 22861      76656E74 
 22861      00
 22862              	.LASF793:
 22863 2b19 75736265 		.ascii	"usbevent_t\000"
 22863      76656E74 
 22863      5F7400
 22864              	.LASF956:
 22865 2b24 5F636C6F 		.ascii	"_close\000"
 22865      736500
 22866              	.LASF1153:
 22867 2b2b 6D637077 		.ascii	"mcpwm_foc_set_openloop_phase\000"
 22867      6D5F666F 
 22867      635F7365 
 22867      745F6F70 
 22867      656E6C6F 
 22868              	.LASF152:
 22869 2b48 63686172 		.ascii	"char\000"
 22869      00
 22870              	.LASF647:
 22871 2b4d 43414E43 		.ascii	"CANConfig\000"
 22871      6F6E6669 
 22871      6700
 22872              	.LASF1137:
 22873 2b57 636F6D6D 		.ascii	"commands_send_appconf\000"
 22873      616E6473 
 22873      5F73656E 
 22873      645F6170 
 22873      70636F6E 
 22874              	.LASF633:
 22875 2b6d 50454461 		.ascii	"PEData\000"
 22875      746100
 22876              	.LASF62:
 22877 2b74 725F7175 		.ascii	"r_queue\000"
 22877      65756500 
 22878              	.LASF988:
 22879 2b7c 5F676C75 		.ascii	"_glue\000"
 22879      6500
 22880              	.LASF299:
 22881 2b82 736C5F62 		.ascii	"sl_bemf_coupling_k\000"
 22881      656D665F 
 22881      636F7570 
 22881      6C696E67 
 22881      5F6B00
 22882              	.LASF280:
 22883 2b95 6C5F7465 		.ascii	"l_temp_accel_dec\000"
ARM GAS  /tmp/ccTUBOn1.s 			page 437


 22883      6D705F61 
 22883      6363656C 
 22883      5F646563 
 22883      00
 22884              	.LASF412:
 22885 2ba6 72616D70 		.ascii	"ramp_time_pos\000"
 22885      5F74696D 
 22885      655F706F 
 22885      7300
 22886              	.LASF734:
 22887 2bb4 75736172 		.ascii	"usart\000"
 22887      7400
 22888              	.LASF1126:
 22889 2bba 636F6D6D 		.ascii	"comm_can_conf_current_limits_in\000"
 22889      5F63616E 
 22889      5F636F6E 
 22889      665F6375 
 22889      7272656E 
 22890              	.LASF193:
 22891 2bda 715F6C69 		.ascii	"q_link\000"
 22891      6E6B00
 22892              	.LASF1109:
 22893 2be1 636F6E66 		.ascii	"conf\000"
 22893      00
 22894              	.LASF479:
 22895 2be6 4E52465F 		.ascii	"NRF_RETR_DELAY_3750US\000"
 22895      52455452 
 22895      5F44454C 
 22895      41595F33 
 22895      37353055 
 22896              	.LASF715:
 22897 2bfc 4943555F 		.ascii	"ICU_CHANNEL_1\000"
 22897      4348414E 
 22897      4E454C5F 
 22897      3100
 22898              	.LASF1097:
 22899 2c0a 6D696E5F 		.ascii	"min_rpm\000"
 22899      72706D00 
 22900              	.LASF382:
 22901 2c12 4150505F 		.ascii	"APP_PPM_UART\000"
 22901      50504D5F 
 22901      55415254 
 22901      00
 22902              	.LASF588:
 22903 2c1f 65657072 		.ascii	"eeprom_var\000"
 22903      6F6D5F76 
 22903      617200
 22904              	.LASF922:
 22905 2c2a 5F426967 		.ascii	"_Bigint\000"
 22905      696E7400 
 22906              	.LASF278:
 22907 2c32 6C5F7465 		.ascii	"l_temp_motor_start\000"
 22907      6D705F6D 
 22907      6F746F72 
 22907      5F737461 
 22907      727400
 22908              	.LASF577:
ARM GAS  /tmp/ccTUBOn1.s 			page 438


 22909 2c45 434F4D4D 		.ascii	"COMM_APP_DISABLE_OUTPUT\000"
 22909      5F415050 
 22909      5F444953 
 22909      41424C45 
 22909      5F4F5554 
 22910              	.LASF829:
 22911 2c5d 47494E54 		.ascii	"GINTMSK\000"
 22911      4D534B00 
 22912              	.LASF374:
 22913 2c65 73695F62 		.ascii	"si_battery_cells\000"
 22913      61747465 
 22913      72795F63 
 22913      656C6C73 
 22913      00
 22914              	.LASF700:
 22915 2c76 69637563 		.ascii	"icucallback_t\000"
 22915      616C6C62 
 22915      61636B5F 
 22915      7400
 22916              	.LASF459:
 22917 2c84 4E52465F 		.ascii	"NRF_POWER_OFF\000"
 22917      504F5745 
 22917      525F4F46 
 22917      4600
 22918              	.LASF834:
 22919 2c92 484E5054 		.ascii	"HNPTXSTS\000"
 22919      58535453 
 22919      00
 22920              	.LASF766:
 22921 2c9b 636F6E66 		.ascii	"configuration\000"
 22921      69677572 
 22921      6174696F 
 22921      6E00
 22922              	.LASF604:
 22923 2ca9 4144435F 		.ascii	"ADC_curr_norm_value\000"
 22923      63757272 
 22923      5F6E6F72 
 22923      6D5F7661 
 22923      6C756500 
 22924              	.LASF983:
 22925 2cbd 5F617465 		.ascii	"_atexit0\000"
 22925      78697430 
 22925      00
 22926              	.LASF628:
 22927 2cc6 73746D33 		.ascii	"stm32_gpio_setup_t\000"
 22927      325F6770 
 22927      696F5F73 
 22927      65747570 
 22927      5F7400
 22928              	.LASF712:
 22929 2cd9 4943555F 		.ascii	"ICU_INPUT_ACTIVE_LOW\000"
 22929      494E5055 
 22929      545F4143 
 22929      54495645 
 22929      5F4C4F57 
 22930              	.LASF241:
 22931 2cee 53454E53 		.ascii	"SENSOR_PORT_MODE_SINCOS\000"
ARM GAS  /tmp/ccTUBOn1.s 			page 439


 22931      4F525F50 
 22931      4F52545F 
 22931      4D4F4445 
 22931      5F53494E 
 22932              	.LASF262:
 22933 2d06 6C5F6375 		.ascii	"l_current_min\000"
 22933      7272656E 
 22933      745F6D69 
 22933      6E00
 22934              	.LASF611:
 22935 2d14 5F73746D 		.ascii	"_stm32_dma_streams\000"
 22935      33325F64 
 22935      6D615F73 
 22935      74726561 
 22935      6D7300
 22936              	.LASF1007:
 22937 2d27 5F676574 		.ascii	"_getdate_err\000"
 22937      64617465 
 22937      5F657272 
 22937      00
 22938              	.LASF1104:
 22939 2d34 74616368 		.ascii	"tacho\000"
 22939      6F00
 22940              	.LASF380:
 22941 2d3a 4150505F 		.ascii	"APP_ADC\000"
 22941      41444300 
 22942              	.LASF927:
 22943 2d42 5F5F746D 		.ascii	"__tm\000"
 22943      00
 22944              	.LASF1120:
 22945 2d47 636F6E66 		.ascii	"conf_general_store_eeprom_var_custom\000"
 22945      5F67656E 
 22945      6572616C 
 22945      5F73746F 
 22945      72655F65 
 22946              	.LASF1161:
 22947 2d6c 6D637077 		.ascii	"mcpwm_foc_get_vd\000"
 22947      6D5F666F 
 22947      635F6765 
 22947      745F7664 
 22947      00
 22948              	.LASF224:
 22949 2d7d 4641554C 		.ascii	"FAULT_CODE_UNDER_VOLTAGE\000"
 22949      545F434F 
 22949      44455F55 
 22949      4E444552 
 22949      5F564F4C 
 22950              	.LASF1040:
 22951 2d96 636F6E66 		.ascii	"conf_general_detect_apply_all_foc_can\000"
 22951      5F67656E 
 22951      6572616C 
 22951      5F646574 
 22951      6563745F 
 22952              	.LASF541:
 22953 2dbc 434F4D4D 		.ascii	"COMM_DETECT_ENCODER\000"
 22953      5F444554 
 22953      4543545F 
ARM GAS  /tmp/ccTUBOn1.s 			page 440


 22953      454E434F 
 22953      44455200 
 22954              	.LASF620:
 22955 2dd0 41465248 		.ascii	"AFRH\000"
 22955      00
 22956              	.LASF529:
 22957 2dd5 434F4D4D 		.ascii	"COMM_GET_MCCONF_DEFAULT\000"
 22957      5F474554 
 22957      5F4D4343 
 22957      4F4E465F 
 22957      44454641 
 22958              	.LASF553:
 22959 2ded 434F4D4D 		.ascii	"COMM_GPD_BUFFER_NOTIFY\000"
 22959      5F475044 
 22959      5F425546 
 22959      4645525F 
 22959      4E4F5449 
 22960              	.LASF1160:
 22961 2e04 6D637077 		.ascii	"mcpwm_foc_get_vq\000"
 22961      6D5F666F 
 22961      635F6765 
 22961      745F7671 
 22961      00
 22962              	.LASF1154:
 22963 2e15 656E636F 		.ascii	"encoder_read_deg\000"
 22963      6465725F 
 22963      72656164 
 22963      5F646567 
 22963      00
 22964              	.LASF518:
 22965 2e26 434F4D4D 		.ascii	"COMM_GET_VALUES\000"
 22965      5F474554 
 22965      5F56414C 
 22965      55455300 
 22966              	.LASF32:
 22967 2e36 636E745F 		.ascii	"cnt_t\000"
 22967      7400
 22968              	.LASF730:
 22969 2e3c 53657269 		.ascii	"SerialDriver\000"
 22969      616C4472 
 22969      69766572 
 22969      00
 22970              	.LASF1049:
 22971 2e49 695F6D61 		.ascii	"i_max\000"
 22971      7800
 22972              	.LASF373:
 22973 2e4f 73695F62 		.ascii	"si_battery_type\000"
 22973      61747465 
 22973      72795F74 
 22973      79706500 
 22974              	.LASF781:
 22975 2e5f 5553425F 		.ascii	"USB_EP0_WAITING_TX0\000"
 22975      4550305F 
 22975      57414954 
 22975      494E475F 
 22975      54583000 
 22976              	.LASF1071:
ARM GAS  /tmp/ccTUBOn1.s 			page 441


 22977 2e73 64757479 		.ascii	"duty\000"
 22977      00
 22978              	.LASF432:
 22979 2e78 6164635F 		.ascii	"adc_control_type\000"
 22979      636F6E74 
 22979      726F6C5F 
 22979      74797065 
 22979      00
 22980              	.LASF222:
 22981 2e89 4641554C 		.ascii	"FAULT_CODE_NONE\000"
 22981      545F434F 
 22981      44455F4E 
 22981      4F4E4500 
 22982              	.LASF343:
 22983 2e99 735F7069 		.ascii	"s_pid_ki\000"
 22983      645F6B69 
 22983      00
 22984              	.LASF810:
 22985 2ea2 73746D33 		.ascii	"stm32_otg_host_chn_t\000"
 22985      325F6F74 
 22985      675F686F 
 22985      73745F63 
 22985      686E5F74 
 22986              	.LASF301:
 22987 2eb7 68616C6C 		.ascii	"hall_sl_erpm\000"
 22987      5F736C5F 
 22987      6572706D 
 22987      00
 22988              	.LASF342:
 22989 2ec4 735F7069 		.ascii	"s_pid_kp\000"
 22989      645F6B70 
 22989      00
 22990              	.LASF535:
 22991 2ecd 434F4D4D 		.ascii	"COMM_PRINT\000"
 22991      5F505249 
 22991      4E5400
 22992              	.LASF619:
 22993 2ed8 4146524C 		.ascii	"AFRL\000"
 22993      00
 22994              	.LASF513:
 22995 2edd 6170705F 		.ascii	"app_configuration\000"
 22995      636F6E66 
 22995      69677572 
 22995      6174696F 
 22995      6E00
 22996              	.LASF598:
 22997 2eef 464C4153 		.ascii	"FLASH_COMPLETE\000"
 22997      485F434F 
 22997      4D504C45 
 22997      544500
 22998              	.LASF291:
 22999 2efe 6C6F5F63 		.ascii	"lo_current_motor_max_now\000"
 22999      75727265 
 22999      6E745F6D 
 22999      6F746F72 
 22999      5F6D6178 
 23000              	.LASF410:
ARM GAS  /tmp/ccTUBOn1.s 			page 442


 23001 2f17 7468726F 		.ascii	"throttle_exp_brake\000"
 23001      74746C65 
 23001      5F657870 
 23001      5F627261 
 23001      6B6500
 23002              	.LASF1019:
 23003 2f2a 5F696D70 		.ascii	"_impure_ptr\000"
 23003      7572655F 
 23003      70747200 
 23004              	.LASF169:
 23005 2f36 63665F6F 		.ascii	"cf_off_preempt\000"
 23005      66665F70 
 23005      7265656D 
 23005      707400
 23006              	.LASF452:
 23007 2f45 4E52465F 		.ascii	"NRF_SPEED_1M\000"
 23007      53504545 
 23007      445F314D 
 23007      00
 23008              	.LASF819:
 23009 2f52 444F4550 		.ascii	"DOEPCTL\000"
 23009      43544C00 
 23010              	.LASF556:
 23011 2f5a 434F4D4D 		.ascii	"COMM_GPD_OUTPUT_SAMPLE\000"
 23011      5F475044 
 23011      5F4F5554 
 23011      5055545F 
 23011      53414D50 
 23012              	.LASF805:
 23013 2f71 4843494E 		.ascii	"HCINTMSK\000"
 23013      544D534B 
 23013      00
 23014              	.LASF957:
 23015 2f7a 5F756275 		.ascii	"_ubuf\000"
 23015      6600
 23016              	.LASF323:
 23017 2f80 666F635F 		.ascii	"foc_openloop_rpm\000"
 23017      6F70656E 
 23017      6C6F6F70 
 23017      5F72706D 
 23017      00
 23018              	.LASF327:
 23019 2f91 666F635F 		.ascii	"foc_sl_d_current_factor\000"
 23019      736C5F64 
 23019      5F637572 
 23019      72656E74 
 23019      5F666163 
 23020              	.LASF1002:
 23021 2fa9 5F6D626C 		.ascii	"_mblen_state\000"
 23021      656E5F73 
 23021      74617465 
 23021      00
 23022              	.LASF985:
 23023 2fb6 5F5F7367 		.ascii	"__sglue\000"
 23023      6C756500 
 23024              	.LASF1018:
 23025 2fbe 5F5F6C6F 		.ascii	"__locale_t\000"
ARM GAS  /tmp/ccTUBOn1.s 			page 443


 23025      63616C65 
 23025      5F7400
 23026              	.LASF1138:
 23027 2fc9 636F6D6D 		.ascii	"commands_send_mcconf\000"
 23027      616E6473 
 23027      5F73656E 
 23027      645F6D63 
 23027      636F6E66 
 23028              	.LASF320:
 23029 2fde 666F635F 		.ascii	"foc_pll_ki\000"
 23029      706C6C5F 
 23029      6B6900
 23030              	.LASF586:
 23031 2fe9 61735F69 		.ascii	"as_i32\000"
 23031      333200
 23032              	.LASF319:
 23033 2ff0 666F635F 		.ascii	"foc_pll_kp\000"
 23033      706C6C5F 
 23033      6B7000
 23034              	.LASF853:
 23035 2ffb 44434647 		.ascii	"DCFG\000"
 23035      00
 23036              	.LASF386:
 23037 3000 4150505F 		.ascii	"APP_CUSTOM\000"
 23037      43555354 
 23037      4F4D00
 23038              	.LASF694:
 23039 300b 4943555F 		.ascii	"ICU_ACTIVE\000"
 23039      41435449 
 23039      564500
 23040              	.LASF1068:
 23041 3016 72617469 		.ascii	"ratio\000"
 23041      6F00
 23042              	.LASF1143:
 23043 301c 6D635F69 		.ascii	"mc_interface_release_motor\000"
 23043      6E746572 
 23043      66616365 
 23043      5F72656C 
 23043      65617365 
 23044              	.LASF68:
 23045 3037 76746675 		.ascii	"vtfunc_t\000"
 23045      6E635F74 
 23045      00
 23046              	.LASF97:
 23047 3040 43414E5F 		.ascii	"CAN_FIFOMailBox_TypeDef\000"
 23047      4649464F 
 23047      4D61696C 
 23047      426F785F 
 23047      54797065 
 23048              	.LASF1178:
 23049 3058 464C4153 		.ascii	"FLASH_Lock\000"
 23049      485F4C6F 
 23049      636B00
 23050              	.LASF453:
 23051 3063 4E52465F 		.ascii	"NRF_SPEED_2M\000"
 23051      53504545 
 23051      445F324D 
ARM GAS  /tmp/ccTUBOn1.s 			page 444


 23051      00
 23052              	.LASF140:
 23053 3070 77746F62 		.ascii	"wtobjp\000"
 23053      6A7000
 23054              	.LASF913:
 23055 3077 5F66706F 		.ascii	"_fpos_t\000"
 23055      735F7400 
 23056              	.LASF381:
 23057 307f 4150505F 		.ascii	"APP_UART\000"
 23057      55415254 
 23057      00
 23058              	.LASF244:
 23059 3088 44525638 		.ascii	"DRV8301_OC_LATCH_SHUTDOWN\000"
 23059      3330315F 
 23059      4F435F4C 
 23059      41544348 
 23059      5F534855 
 23060              	.LASF52:
 23061 30a2 705F7265 		.ascii	"p_realprio\000"
 23061      616C7072 
 23061      696F00
 23062              	.LASF383:
 23063 30ad 4150505F 		.ascii	"APP_ADC_UART\000"
 23063      4144435F 
 23063      55415254 
 23063      00
 23064              	.LASF549:
 23065 30ba 434F4D4D 		.ascii	"COMM_SET_CHUCK_DATA\000"
 23065      5F534554 
 23065      5F434855 
 23065      434B5F44 
 23065      41544100 
 23066              	.LASF192:
 23067 30ce 715F6E6F 		.ascii	"q_notify\000"
 23067      74696679 
 23067      00
 23068              	.LASF143:
 23069 30d7 77746D74 		.ascii	"wtmtxp\000"
 23069      787000
 23070              	.LASF221:
 23071 30de 6D635F6D 		.ascii	"mc_motor_type\000"
 23071      6F746F72 
 23071      5F747970 
 23071      6500
 23072              	.LASF948:
 23073 30ec 5F5F7346 		.ascii	"__sFILE\000"
 23073      494C4500 
 23074              	.LASF440:
 23075 30f4 7265765F 		.ascii	"rev_button_inverted\000"
 23075      62757474 
 23075      6F6E5F69 
 23075      6E766572 
 23075      74656400 
 23076              	.LASF1021:
 23077 3108 646F7562 		.ascii	"double\000"
 23077      6C6500
 23078              	.LASF944:
ARM GAS  /tmp/ccTUBOn1.s 			page 445


 23079 310f 5F666E73 		.ascii	"_fns\000"
 23079      00
 23080              	.LASF1152:
 23081 3114 73717274 		.ascii	"sqrtf\000"
 23081      6600
 23082              	.LASF1020:
 23083 311a 5F676C6F 		.ascii	"_global_impure_ptr\000"
 23083      62616C5F 
 23083      696D7075 
 23083      72655F70 
 23083      747200
 23084              	.LASF531:
 23085 312d 434F4D4D 		.ascii	"COMM_GET_APPCONF\000"
 23085      5F474554 
 23085      5F415050 
 23085      434F4E46 
 23085      00
 23086              	.LASF893:
 23087 313e 5553424F 		.ascii	"USBOutEndpointState\000"
 23087      7574456E 
 23087      64706F69 
 23087      6E745374 
 23087      61746500 
 23088              	.LASF1186:
 23089 3152 5F5F6275 		.ascii	"__builtin_memcpy\000"
 23089      696C7469 
 23089      6E5F6D65 
 23089      6D637079 
 23089      00
 23090              	.LASF849:
 23091 3163 72657376 		.ascii	"resvd41C\000"
 23091      64343143 
 23091      00
 23092              	.LASF1102:
 23093 316c 6F6B5F73 		.ascii	"ok_steps\000"
 23093      74657073 
 23093      00
 23094              	.LASF279:
 23095 3175 6C5F7465 		.ascii	"l_temp_motor_end\000"
 23095      6D705F6D 
 23095      6F746F72 
 23095      5F656E64 
 23095      00
 23096              	.LASF551:
 23097 3186 434F4D4D 		.ascii	"COMM_NRF_START_PAIRING\000"
 23097      5F4E5246 
 23097      5F535441 
 23097      52545F50 
 23097      41495249 
 23098              	.LASF1013:
 23099 319d 5F685F65 		.ascii	"_h_errno\000"
 23099      72726E6F 
 23099      00
 23100              	.LASF335:
 23101 31a6 666F635F 		.ascii	"foc_temp_comp_base_temp\000"
 23101      74656D70 
 23101      5F636F6D 
ARM GAS  /tmp/ccTUBOn1.s 			page 446


 23101      705F6261 
 23101      73655F74 
 23102              	.LASF94:
 23103 31be 52445452 		.ascii	"RDTR\000"
 23103      00
 23104              	.LASF1142:
 23105 31c3 6D635F69 		.ascii	"mc_interface_unlock\000"
 23105      6E746572 
 23105      66616365 
 23105      5F756E6C 
 23105      6F636B00 
 23106              	.LASF260:
 23107 31d7 73656E73 		.ascii	"sensor_mode\000"
 23107      6F725F6D 
 23107      6F646500 
 23108              	.LASF204:
 23109 31e3 53454E53 		.ascii	"SENSOR_MODE_SENSORLESS\000"
 23109      4F525F4D 
 23109      4F44455F 
 23109      53454E53 
 23109      4F524C45 
 23110              	.LASF482:
 23111 31fa 73706565 		.ascii	"speed\000"
 23111      6400
 23112              	.LASF61:
 23113 3200 63685F72 		.ascii	"ch_ready_list\000"
 23113      65616479 
 23113      5F6C6973 
 23113      7400
 23114              	.LASF1093:
 23115 320e 6176675F 		.ascii	"avg_rpm\000"
 23115      72706D00 
 23116              	.LASF616:
 23117 3216 50555044 		.ascii	"PUPDR\000"
 23117      5200
 23118              	.LASF8:
 23119 321c 5F5F696E 		.ascii	"__int32_t\000"
 23119      7433325F 
 23119      7400
 23120              	.LASF250:
 23121 3226 43414E5F 		.ascii	"CAN_BAUD_500K\000"
 23121      42415544 
 23121      5F353030 
 23121      4B00
 23122              	.LASF10:
 23123 3234 5F5F7569 		.ascii	"__uint32_t\000"
 23123      6E743332 
 23123      5F7400
 23124              	.LASF698:
 23125 323f 77636372 		.ascii	"wccrp\000"
 23125      7000
 23126              	.LASF80:
 23127 3245 63685F73 		.ascii	"ch_system_debug\000"
 23127      79737465 
 23127      6D5F6465 
 23127      62756700 
 23128              	.LASF860:
ARM GAS  /tmp/ccTUBOn1.s 			page 447


 23129 3255 4441494E 		.ascii	"DAINTMSK\000"
 23129      544D534B 
 23129      00
 23130              	.LASF187:
 23131 325e 715F636F 		.ascii	"q_counter\000"
 23131      756E7465 
 23131      7200
 23132              	.LASF1055:
 23133 3268 6F6C645F 		.ascii	"old_ki\000"
 23133      6B6900
 23134              	.LASF779:
 23135 326f 5553425F 		.ascii	"USB_EP0_WAITING_SETUP\000"
 23135      4550305F 
 23135      57414954 
 23135      494E475F 
 23135      53455455 
 23136              	.LASF1106:
 23137 3285 72706D5F 		.ascii	"rpm_iterations\000"
 23137      69746572 
 23137      6174696F 
 23137      6E7300
 23138              	.LASF941:
 23139 3294 5F69735F 		.ascii	"_is_cxa\000"
 23139      63786100 
 23140              	.LASF450:
 23141 329c 6368756B 		.ascii	"chuk_config\000"
 23141      5F636F6E 
 23141      66696700 
 23142              	.LASF1027:
 23143 32a8 56697274 		.ascii	"VirtAddVarTab\000"
 23143      41646456 
 23143      61725461 
 23143      6200
 23144              	.LASF691:
 23145 32b6 4943555F 		.ascii	"ICU_STOP\000"
 23145      53544F50 
 23145      00
 23146              	.LASF626:
 23147 32bf 6166726C 		.ascii	"afrl\000"
 23147      00
 23148              	.LASF417:
 23149 32c4 4144435F 		.ascii	"ADC_CTRL_TYPE_NONE\000"
 23149      4354524C 
 23149      5F545950 
 23149      455F4E4F 
 23149      4E4500
 23150              	.LASF1170:
 23151 32d7 6D637077 		.ascii	"mcpwm_reset_hall_detect_table\000"
 23151      6D5F7265 
 23151      7365745F 
 23151      68616C6C 
 23151      5F646574 
 23152              	.LASF883:
 23153 32f5 71756575 		.ascii	"queue\000"
 23153      6500
 23154              	.LASF570:
 23155 32fb 434F4D4D 		.ascii	"COMM_EXT_NRF_SET_ENABLED\000"
ARM GAS  /tmp/ccTUBOn1.s 			page 448


 23155      5F455854 
 23155      5F4E5246 
 23155      5F534554 
 23155      5F454E41 
 23156              	.LASF365:
 23157 3314 6D5F626C 		.ascii	"m_bldc_f_sw_min\000"
 23157      64635F66 
 23157      5F73775F 
 23157      6D696E00 
 23158              	.LASF763:
 23159 3324 65703065 		.ascii	"ep0endcb\000"
 23159      6E646362 
 23159      00
 23160              	.LASF1149:
 23161 332d 7574696C 		.ascii	"utils_truncate_number_abs\000"
 23161      735F7472 
 23161      756E6361 
 23161      74655F6E 
 23161      756D6265 
 23162              	.LASF1028:
 23163 3347 6D63636F 		.ascii	"mcconf\000"
 23163      6E6600
 23164              	.LASF585:
 23165 334e 61735F75 		.ascii	"as_u32\000"
 23165      333200
 23166              	.LASF832:
 23167 3355 47525846 		.ascii	"GRXFSIZ\000"
 23167      53495A00 
 23168              	.LASF173:
 23169 335d 6D757465 		.ascii	"mutex_t\000"
 23169      785F7400 
 23170              	.LASF555:
 23171 3365 434F4D4D 		.ascii	"COMM_GPD_FILL_BUFFER\000"
 23171      5F475044 
 23171      5F46494C 
 23171      4C5F4255 
 23171      46464552 
 23172              	.LASF978:
 23173 337a 5F703573 		.ascii	"_p5s\000"
 23173      00
 23174              	.LASF306:
 23175 337f 666F635F 		.ascii	"foc_encoder_offset\000"
 23175      656E636F 
 23175      6465725F 
 23175      6F666673 
 23175      657400
 23176              	.LASF50:
 23177 3392 705F6570 		.ascii	"p_epending\000"
 23177      656E6469 
 23177      6E6700
 23178              	.LASF230:
 23179 339d 4641554C 		.ascii	"FAULT_CODE_GATE_DRIVER_UNDER_VOLTAGE\000"
 23179      545F434F 
 23179      44455F47 
 23179      4154455F 
 23179      44524956 
 23180              	.LASF564:
ARM GAS  /tmp/ccTUBOn1.s 			page 449


 23181 33c2 434F4D4D 		.ascii	"COMM_GET_VALUES_SELECTIVE\000"
 23181      5F474554 
 23181      5F56414C 
 23181      5545535F 
 23181      53454C45 
 23182              	.LASF1164:
 23183 33dc 6D637077 		.ascii	"mcpwm_switch_comm_mode\000"
 23183      6D5F7377 
 23183      69746368 
 23183      5F636F6D 
 23183      6D5F6D6F 
 23184              	.LASF1059:
 23185 33f3 7265735F 		.ascii	"res_tmp\000"
 23185      746D7000 
 23186              	.LASF613:
 23187 33fb 4D4F4445 		.ascii	"MODER\000"
 23187      5200
 23188              	.LASF697:
 23189 3401 636C6F63 		.ascii	"clock\000"
 23189      6B00
 23190              	.LASF1115:
 23191 3407 62617365 		.ascii	"base\000"
 23191      00
 23192              	.LASF580:
 23193 340c 434F4D4D 		.ascii	"COMM_BM_CONNECT\000"
 23193      5F424D5F 
 23193      434F4E4E 
 23193      45435400 
 23194              	.LASF324:
 23195 341c 666F635F 		.ascii	"foc_sl_openloop_hyst\000"
 23195      736C5F6F 
 23195      70656E6C 
 23195      6F6F705F 
 23195      68797374 
 23196              	.LASF101:
 23197 3431 52455345 		.ascii	"RESERVED0\000"
 23197      52564544 
 23197      3000
 23198              	.LASF104:
 23199 343b 52455345 		.ascii	"RESERVED1\000"
 23199      52564544 
 23199      3100
 23200              	.LASF106:
 23201 3445 52455345 		.ascii	"RESERVED2\000"
 23201      52564544 
 23201      3200
 23202              	.LASF108:
 23203 344f 52455345 		.ascii	"RESERVED3\000"
 23203      52564544 
 23203      3300
 23204              	.LASF110:
 23205 3459 52455345 		.ascii	"RESERVED4\000"
 23205      52564544 
 23205      3400
 23206              	.LASF112:
 23207 3463 52455345 		.ascii	"RESERVED5\000"
 23207      52564544 
ARM GAS  /tmp/ccTUBOn1.s 			page 450


 23207      3500
 23208              	.LASF904:
 23209 346d 55534245 		.ascii	"USBEndpointConfig\000"
 23209      6E64706F 
 23209      696E7443 
 23209      6F6E6669 
 23209      6700
 23210              	.LASF1191:
 23211 347f 2F686F6D 		.ascii	"/home/patrick/git_bldc\000"
 23211      652F7061 
 23211      74726963 
 23211      6B2F6769 
 23211      745F626C 
 23212              	.LASF651:
 23213 3496 72787175 		.ascii	"rxqueue\000"
 23213      65756500 
 23214              	.LASF569:
 23215 349e 434F4D4D 		.ascii	"COMM_EXT_NRF_ESB_RX_DATA\000"
 23215      5F455854 
 23215      5F4E5246 
 23215      5F455342 
 23215      5F52585F 
 23216              	.LASF851:
 23217 34b7 72657376 		.ascii	"resvd444\000"
 23217      64343434 
 23217      00
 23218              	.LASF408:
 23219 34c0 73616665 		.ascii	"safe_start\000"
 23219      5F737461 
 23219      727400
 23220              	.LASF546:
 23221 34cb 434F4D4D 		.ascii	"COMM_GET_DECODED_ADC\000"
 23221      5F474554 
 23221      5F444543 
 23221      4F444544 
 23221      5F414443 
 23222              	.LASF435:
 23223 34e0 766F6C74 		.ascii	"voltage_center\000"
 23223      6167655F 
 23223      63656E74 
 23223      657200
 23224              	.LASF530:
 23225 34ef 434F4D4D 		.ascii	"COMM_SET_APPCONF\000"
 23225      5F534554 
 23225      5F415050 
 23225      434F4E46 
 23225      00
 23226              	.LASF397:
 23227 3500 50504D5F 		.ascii	"PPM_CTRL_TYPE_DUTY_NOREV\000"
 23227      4354524C 
 23227      5F545950 
 23227      455F4455 
 23227      54595F4E 
 23228              	.LASF177:
 23229 3519 656C5F6C 		.ascii	"el_listener\000"
 23229      69737465 
 23229      6E657200 
ARM GAS  /tmp/ccTUBOn1.s 			page 451


 23230              	.LASF882:
 23231 3525 6C696E65 		.ascii	"linear\000"
 23231      617200
 23232              	.LASF249:
 23233 352c 43414E5F 		.ascii	"CAN_BAUD_250K\000"
 23233      42415544 
 23233      5F323530 
 23233      4B00
 23234              	.LASF289:
 23235 353a 6C6F5F69 		.ascii	"lo_in_current_max\000"
 23235      6E5F6375 
 23235      7272656E 
 23235      745F6D61 
 23235      7800
 23236              	.LASF1129:
 23237 354c 63685468 		.ascii	"chThdSleep\000"
 23237      64536C65 
 23237      657000
 23238              	.LASF538:
 23239 3557 434F4D4D 		.ascii	"COMM_DETECT_MOTOR_PARAM\000"
 23239      5F444554 
 23239      4543545F 
 23239      4D4F544F 
 23239      525F5041 
 23240              	.LASF1112:
 23241 356f 636F6E66 		.ascii	"conf_general_store_app_configuration\000"
 23241      5F67656E 
 23241      6572616C 
 23241      5F73746F 
 23241      72655F61 
 23242              	.LASF710:
 23243 3594 73746D33 		.ascii	"stm32_tim_t\000"
 23243      325F7469 
 23243      6D5F7400 
 23244              	.LASF1029:
 23245 35a0 6D63636F 		.ascii	"mcconf_old\000"
 23245      6E665F6F 
 23245      6C6400
 23246              	.LASF1065:
 23247 35ab 70686173 		.ascii	"phase_end\000"
 23247      655F656E 
 23247      6400
 23248              	.LASF63:
 23249 35b5 725F7072 		.ascii	"r_prio\000"
 23249      696F00
 23250              	.LASF768:
 23251 35bc 706D6E65 		.ascii	"pmnext\000"
 23251      787400
 23252              	.LASF328:
 23253 35c3 666F635F 		.ascii	"foc_sensor_mode\000"
 23253      73656E73 
 23253      6F725F6D 
 23253      6F646500 
 23254              	.LASF88:
 23255 35d3 49544D5F 		.ascii	"ITM_RxBuffer\000"
 23255      52784275 
 23255      66666572 
ARM GAS  /tmp/ccTUBOn1.s 			page 452


 23255      00
 23256              	.LASF716:
 23257 35e0 4943555F 		.ascii	"ICU_CHANNEL_2\000"
 23257      4348414E 
 23257      4E454C5F 
 23257      3200
 23258              	.LASF1064:
 23259 35ee 70686173 		.ascii	"phase_mid\000"
 23259      655F6D69 
 23259      6400
 23260              	.LASF210:
 23261 35f8 464F435F 		.ascii	"FOC_SENSOR_MODE_HALL\000"
 23261      53454E53 
 23261      4F525F4D 
 23261      4F44455F 
 23261      48414C4C 
 23262              	.LASF14:
 23263 360d 6C6F6E67 		.ascii	"long long unsigned int\000"
 23263      206C6F6E 
 23263      6720756E 
 23263      7369676E 
 23263      65642069 
 23264              	.LASF136:
 23265 3624 6F666673 		.ascii	"offset\000"
 23265      657400
 23266              	.LASF950:
 23267 362b 5F66696C 		.ascii	"_file\000"
 23267      6500
 23268              	.LASF351:
 23269 3631 705F7069 		.ascii	"p_pid_kd_filter\000"
 23269      645F6B64 
 23269      5F66696C 
 23269      74657200 
 23270              	.LASF305:
 23271 3641 666F635F 		.ascii	"foc_dt_us\000"
 23271      64745F75 
 23271      7300
 23272              	.LASF333:
 23273 364b 666F635F 		.ascii	"foc_sat_comp\000"
 23273      7361745F 
 23273      636F6D70 
 23273      00
 23274              	.LASF115:
 23275 3658 4E445452 		.ascii	"NDTR\000"
 23275      00
 23276              	.LASF182:
 23277 365d 65735F6E 		.ascii	"es_next\000"
 23277      65787400 
 23278              	.LASF999:
 23279 3665 5F67616D 		.ascii	"_gamma_signgam\000"
 23279      6D615F73 
 23279      69676E67 
 23279      616D00
 23280              	.LASF817:
 23281 3674 72657376 		.ascii	"resvd1C\000"
 23281      64314300 
 23282              	.LASF87:
ARM GAS  /tmp/ccTUBOn1.s 			page 453


 23283 367c 69646C65 		.ascii	"idle_thread_wa\000"
 23283      5F746872 
 23283      6561645F 
 23283      776100
 23284              	.LASF813:
 23285 368b 44494550 		.ascii	"DIEPINT\000"
 23285      494E5400 
 23286              	.LASF695:
 23287 3693 69637573 		.ascii	"icustate_t\000"
 23287      74617465 
 23287      5F7400
 23288              	.LASF1047:
 23289 369e 63757272 		.ascii	"current_start\000"
 23289      656E745F 
 23289      73746172 
 23289      7400
 23290              	.LASF129:
 23291 36ac 5350495F 		.ascii	"SPI_TypeDef\000"
 23291      54797065 
 23291      44656600 
 23292              	.LASF74:
 23293 36b8 76745F66 		.ascii	"vt_func\000"
 23293      756E6300 
 23294              	.LASF701:
 23295 36c0 534D4352 		.ascii	"SMCR\000"
 23295      00
 23296              	.LASF1175:
 23297 36c5 74696D65 		.ascii	"timeout_configure_IWDT_slowest\000"
 23297      6F75745F 
 23297      636F6E66 
 23297      69677572 
 23297      655F4957 
 23298              	.LASF858:
 23299 36e4 444F4550 		.ascii	"DOEPMSK\000"
 23299      4D534B00 
 23300              	.LASF521:
 23301 36ec 434F4D4D 		.ascii	"COMM_SET_CURRENT_BRAKE\000"
 23301      5F534554 
 23301      5F435552 
 23301      52454E54 
 23301      5F425241 
 23302              	.LASF70:
 23303 3703 63685F76 		.ascii	"ch_virtual_timer\000"
 23303      69727475 
 23303      616C5F74 
 23303      696D6572 
 23303      00
 23304              	.LASF43:
 23305 3714 705F666C 		.ascii	"p_flags\000"
 23305      61677300 
 23306              	.LASF527:
 23307 371c 434F4D4D 		.ascii	"COMM_SET_MCCONF\000"
 23307      5F534554 
 23307      5F4D4343 
 23307      4F4E4600 
 23308              	.LASF144:
 23309 372c 65776D61 		.ascii	"ewmask\000"
ARM GAS  /tmp/ccTUBOn1.s 			page 454


 23309      736B00
 23310              	.LASF1133:
 23311 3733 6D635F69 		.ascii	"mc_interface_get_configuration\000"
 23311      6E746572 
 23311      66616365 
 23311      5F676574 
 23311      5F636F6E 
 23312              	.LASF253:
 23313 3752 42415454 		.ascii	"BATTERY_TYPE_LIION_3_0__4_2\000"
 23313      4552595F 
 23313      54595045 
 23313      5F4C4949 
 23313      4F4E5F33 
 23314              	.LASF522:
 23315 376e 434F4D4D 		.ascii	"COMM_SET_RPM\000"
 23315      5F534554 
 23315      5F52504D 
 23315      00
 23316              	.LASF179:
 23317 377b 656C5F66 		.ascii	"el_flags\000"
 23317      6C616773 
 23317      00
 23318              	.LASF181:
 23319 3784 6576656E 		.ascii	"event_source\000"
 23319      745F736F 
 23319      75726365 
 23319      00
 23320              	.LASF476:
 23321 3791 4E52465F 		.ascii	"NRF_RETR_DELAY_3000US\000"
 23321      52455452 
 23321      5F44454C 
 23321      41595F33 
 23321      30303055 
 23322              	.LASF51:
 23323 37a7 705F6D74 		.ascii	"p_mtxlist\000"
 23323      786C6973 
 23323      7400
 23324              	.LASF298:
 23325 37b1 736C5F63 		.ascii	"sl_cycle_int_rpm_br\000"
 23325      79636C65 
 23325      5F696E74 
 23325      5F72706D 
 23325      5F627200 
 23326              	.LASF1117:
 23327 37c5 76617231 		.ascii	"var1\000"
 23327      00
 23328              	.LASF658:
 23329 37ca 43414E44 		.ascii	"CAND1\000"
 23329      3100
 23330              	.LASF107:
 23331 37d0 46533152 		.ascii	"FS1R\000"
 23331      00
 23332              	.LASF25:
 23333 37d5 74737461 		.ascii	"tstate_t\000"
 23333      74655F74 
 23333      00
 23334              	.LASF748:
ARM GAS  /tmp/ccTUBOn1.s 			page 455


 23335 37de 53504944 		.ascii	"SPIDriver\000"
 23335      72697665 
 23335      7200
 23336              	.LASF859:
 23337 37e8 4441494E 		.ascii	"DAINT\000"
 23337      5400
 23338              	.LASF396:
 23339 37ee 50504D5F 		.ascii	"PPM_CTRL_TYPE_DUTY\000"
 23339      4354524C 
 23339      5F545950 
 23339      455F4455 
 23339      545900
 23340              	.LASF972:
 23341 3801 5F756E73 		.ascii	"_unspecified_locale_info\000"
 23341      70656369 
 23341      66696564 
 23341      5F6C6F63 
 23341      616C655F 
 23342              	.LASF625:
 23343 381a 70757064 		.ascii	"pupdr\000"
 23343      7200
 23344              	.LASF367:
 23345 3820 6D5F6463 		.ascii	"m_dc_f_sw\000"
 23345      5F665F73 
 23345      7700
 23346              	.LASF332:
 23347 382a 666F635F 		.ascii	"foc_sample_high_current\000"
 23347      73616D70 
 23347      6C655F68 
 23347      6967685F 
 23347      63757272 
 23348              	.LASF809:
 23349 3842 72657376 		.ascii	"resvd1c\000"
 23349      64316300 
 23350              	.LASF756:
 23351 384a 7472616E 		.ascii	"transmitting\000"
 23351      736D6974 
 23351      74696E67 
 23351      00
 23352              	.LASF1035:
 23353 3857 736C5F65 		.ascii	"sl_erpm\000"
 23353      72706D00 
 23354              	.LASF1108:
 23355 385f 636F6E66 		.ascii	"conf_general_store_mc_configuration\000"
 23355      5F67656E 
 23355      6572616C 
 23355      5F73746F 
 23355      72655F6D 
 23356              	.LASF203:
 23357 3883 6D635F63 		.ascii	"mc_comm_mode\000"
 23357      6F6D6D5F 
 23357      6D6F6465 
 23357      00
 23358              	.LASF41:
 23359 3890 705F6E61 		.ascii	"p_name\000"
 23359      6D6500
 23360              	.LASF974:
ARM GAS  /tmp/ccTUBOn1.s 			page 456


 23361 3897 5F5F7364 		.ascii	"__sdidinit\000"
 23361      6964696E 
 23361      697400
 23362              	.LASF595:
 23363 38a2 464C4153 		.ascii	"FLASH_ERROR_WRP\000"
 23363      485F4552 
 23363      524F525F 
 23363      57525000 
 23364              	.LASF1025:
 23365 38b2 5F5F6664 		.ascii	"__fdlibm_posix\000"
 23365      6C69626D 
 23365      5F706F73 
 23365      697800
 23366              	.LASF472:
 23367 38c1 4E52465F 		.ascii	"NRF_RETR_DELAY_2000US\000"
 23367      52455452 
 23367      5F44454C 
 23367      41595F32 
 23367      30303055 
 23368              	.LASF821:
 23369 38d7 444F4550 		.ascii	"DOEPTSIZ\000"
 23369      5453495A 
 23369      00
 23370              	.LASF430:
 23371 38e0 4144435F 		.ascii	"ADC_CTRL_TYPE_PID_REV_CENTER\000"
 23371      4354524C 
 23371      5F545950 
 23371      455F5049 
 23371      445F5245 
 23372              	.LASF1132:
 23373 38fd 6170705F 		.ascii	"app_get_configuration\000"
 23373      6765745F 
 23373      636F6E66 
 23373      69677572 
 23373      6174696F 
 23374              	.LASF390:
 23375 3913 5448525F 		.ascii	"THR_EXP_POLY\000"
 23375      4558505F 
 23375      504F4C59 
 23375      00
 23376              	.LASF1125:
 23377 3920 636F6D6D 		.ascii	"comm_can_ping\000"
 23377      5F63616E 
 23377      5F70696E 
 23377      6700
 23378              	.LASF920:
 23379 392e 5F666C6F 		.ascii	"_flock_t\000"
 23379      636B5F74 
 23379      00
 23380              	.LASF76:
 23381 3937 76697274 		.ascii	"virtual_timers_list_t\000"
 23381      75616C5F 
 23381      74696D65 
 23381      72735F6C 
 23381      6973745F 
 23382              	.LASF702:
 23383 394d 44494552 		.ascii	"DIER\000"
ARM GAS  /tmp/ccTUBOn1.s 			page 457


 23383      00
 23384              	.LASF1171:
 23385 3952 6D637077 		.ascii	"mcpwm_read_reset_avg_cycle_integrator\000"
 23385      6D5F7265 
 23385      61645F72 
 23385      65736574 
 23385      5F617667 
 23386              	.LASF197:
 23387 3978 50574D5F 		.ascii	"PWM_MODE_NONSYNCHRONOUS_HISW\000"
 23387      4D4F4445 
 23387      5F4E4F4E 
 23387      53594E43 
 23387      48524F4E 
 23388              	.LASF246:
 23389 3995 44525638 		.ascii	"DRV8301_OC_DISABLED\000"
 23389      3330315F 
 23389      4F435F44 
 23389      49534142 
 23389      4C454400 
 23390              	.LASF558:
 23391 39a9 434F4D4D 		.ascii	"COMM_GPD_FILL_BUFFER_INT8\000"
 23391      5F475044 
 23391      5F46494C 
 23391      4C5F4255 
 23391      46464552 
 23392              	.LASF622:
 23393 39c3 6D6F6465 		.ascii	"moder\000"
 23393      7200
 23394              	.LASF550:
 23395 39c9 434F4D4D 		.ascii	"COMM_CUSTOM_APP_DATA\000"
 23395      5F435553 
 23395      544F4D5F 
 23395      4150505F 
 23395      44415441 
 23396              	.LASF468:
 23397 39de 4E52465F 		.ascii	"NRF_RETR_DELAY_1000US\000"
 23397      52455452 
 23397      5F44454C 
 23397      41595F31 
 23397      30303055 
 23398              	.LASF536:
 23399 39f4 434F4D4D 		.ascii	"COMM_ROTOR_POSITION\000"
 23399      5F524F54 
 23399      4F525F50 
 23399      4F534954 
 23399      494F4E00 
 23400              	.LASF213:
 23401 3a08 4F55545F 		.ascii	"OUT_AUX_MODE_ON_AFTER_2S\000"
 23401      4155585F 
 23401      4D4F4445 
 23401      5F4F4E5F 
 23401      41465445 
 23402              	.LASF146:
 23403 3a21 735F7175 		.ascii	"s_queue\000"
 23403      65756500 
 23404              	.LASF1190:
 23405 3a29 636F6E66 		.ascii	"conf_general.c\000"
ARM GAS  /tmp/ccTUBOn1.s 			page 458


 23405      5F67656E 
 23405      6572616C 
 23405      2E6300
 23406              	.LASF1166:
 23407 3a38 6D635F69 		.ascii	"mc_interface_set_current\000"
 23407      6E746572 
 23407      66616365 
 23407      5F736574 
 23407      5F637572 
 23408              	.LASF127:
 23409 3a51 49325343 		.ascii	"I2SCFGR\000"
 23409      46475200 
 23410              	.LASF438:
 23411 3a59 7573655F 		.ascii	"use_filter\000"
 23411      66696C74 
 23411      657200
 23412              	.LASF358:
 23413 3a64 6D5F6475 		.ascii	"m_duty_ramp_step\000"
 23413      74795F72 
 23413      616D705F 
 23413      73746570 
 23413      00
 23414              	.LASF377:
 23415 3a75 6D635F63 		.ascii	"mc_configuration\000"
 23415      6F6E6669 
 23415      67757261 
 23415      74696F6E 
 23415      00
 23416              	.LASF649:
 23417 3a86 636F6E66 		.ascii	"config\000"
 23417      696700
 23418              	.LASF153:
 23419 3a8d 63685F69 		.ascii	"ch_identifier\000"
 23419      64656E74 
 23419      69666965 
 23419      7200
 23420              	.LASF740:
 23421 3a9b 77726974 		.ascii	"writet\000"
 23421      657400
 23422              	.LASF477:
 23423 3aa2 4E52465F 		.ascii	"NRF_RETR_DELAY_3250US\000"
 23423      52455452 
 23423      5F44454C 
 23423      41595F33 
 23423      32353055 
 23424              	.LASF572:
 23425 3ab8 434F4D4D 		.ascii	"COMM_DETECT_APPLY_ALL_FOC\000"
 23425      5F444554 
 23425      4543545F 
 23425      4150504C 
 23425      595F414C 
 23426              	.LASF12:
 23427 3ad2 6C6F6E67 		.ascii	"long long int\000"
 23427      206C6F6E 
 23427      6720696E 
 23427      7400
 23428              	.LASF643:
ARM GAS  /tmp/ccTUBOn1.s 			page 459


 23429 3ae0 43414E5F 		.ascii	"CAN_STARTING\000"
 23429      53544152 
 23429      54494E47 
 23429      00
 23430              	.LASF839:
 23431 3aed 48505458 		.ascii	"HPTXFSIZ\000"
 23431      4653495A 
 23431      00
 23432              	.LASF506:
 23433 3af6 75617663 		.ascii	"uavcan_esc_index\000"
 23433      616E5F65 
 23433      73635F69 
 23433      6E646578 
 23433      00
 23434              	.LASF160:
 23435 3b07 63665F6F 		.ascii	"cf_off_prio\000"
 23435      66665F70 
 23435      72696F00 
 23436              	.LASF964:
 23437 3b13 5F666C61 		.ascii	"_flags2\000"
 23437      67733200 
 23438              	.LASF1014:
 23439 3b1b 5F6E6578 		.ascii	"_nextf\000"
 23439      746600
 23440              	.LASF534:
 23441 3b22 434F4D4D 		.ascii	"COMM_TERMINAL_CMD\000"
 23441      5F544552 
 23441      4D494E41 
 23441      4C5F434D 
 23441      4400
 23442              	.LASF418:
 23443 3b34 4144435F 		.ascii	"ADC_CTRL_TYPE_CURRENT\000"
 23443      4354524C 
 23443      5F545950 
 23443      455F4355 
 23443      5252454E 
 23444              	.LASF284:
 23445 3b4a 6C5F7761 		.ascii	"l_watt_min\000"
 23445      74745F6D 
 23445      696E00
 23446              	.LASF713:
 23447 3b55 6963756D 		.ascii	"icumode_t\000"
 23447      6F64655F 
 23447      7400
 23448              	.LASF886:
 23449 3b5f 7478636E 		.ascii	"txcnt\000"
 23449      7400
 23450              	.LASF462:
 23451 3b65 4E52465F 		.ascii	"NRF_CRC_1B\000"
 23451      4352435F 
 23451      314200
 23452              	.LASF788:
 23453 3b70 5553425F 		.ascii	"USB_EVENT_ADDRESS\000"
 23453      4556454E 
 23453      545F4144 
 23453      44524553 
 23453      5300
ARM GAS  /tmp/ccTUBOn1.s 			page 460


 23454              	.LASF906:
 23455 3b82 6765745F 		.ascii	"get_descriptor_cb\000"
 23455      64657363 
 23455      72697074 
 23455      6F725F63 
 23455      6200
 23456              	.LASF270:
 23457 3b94 6C5F6D61 		.ascii	"l_max_erpm_fbrake_cc\000"
 23457      785F6572 
 23457      706D5F66 
 23457      6272616B 
 23457      655F6363 
 23458              	.LASF973:
 23459 3ba9 5F6C6F63 		.ascii	"_locale\000"
 23459      616C6500 
 23460              	.LASF31:
 23461 3bb1 6576656E 		.ascii	"eventflags_t\000"
 23461      74666C61 
 23461      67735F74 
 23461      00
 23462              	.LASF1054:
 23463 3bbe 6F6C645F 		.ascii	"old_kp\000"
 23463      6B7000
 23464              	.LASF744:
 23465 3bc5 5350495F 		.ascii	"SPI_READY\000"
 23465      52454144 
 23465      5900
 23466              	.LASF532:
 23467 3bcf 434F4D4D 		.ascii	"COMM_GET_APPCONF_DEFAULT\000"
 23467      5F474554 
 23467      5F415050 
 23467      434F4E46 
 23467      5F444546 
 23468              	.LASF402:
 23469 3be8 7069645F 		.ascii	"pid_max_erpm\000"
 23469      6D61785F 
 23469      6572706D 
 23469      00
 23470              	.LASF1155:
 23471 3bf5 6D637077 		.ascii	"mcpwm_foc_encoder_detect\000"
 23471      6D5F666F 
 23471      635F656E 
 23471      636F6465 
 23471      725F6465 
 23472              	.LASF1114:
 23473 3c0e 636F6E66 		.ascii	"conf_general_read_app_configuration\000"
 23473      5F67656E 
 23473      6572616C 
 23473      5F726561 
 23473      645F6170 
 23474              	.LASF103:
 23475 3c32 73464946 		.ascii	"sFIFOMailBox\000"
 23475      4F4D6169 
 23475      6C426F78 
 23475      00
 23476              	.LASF429:
 23477 3c3f 4144435F 		.ascii	"ADC_CTRL_TYPE_PID\000"
ARM GAS  /tmp/ccTUBOn1.s 			page 461


 23477      4354524C 
 23477      5F545950 
 23477      455F5049 
 23477      4400
 23478              	.LASF1069:
 23479 3c51 696E7665 		.ascii	"inverted\000"
 23479      72746564 
 23479      00
 23480              	.LASF485:
 23481 3c5a 72657472 		.ascii	"retry_delay\000"
 23481      795F6465 
 23481      6C617900 
 23482              	.LASF1168:
 23483 3c66 6D635F69 		.ascii	"mc_interface_set_duty\000"
 23483      6E746572 
 23483      66616365 
 23483      5F736574 
 23483      5F647574 
 23484              	.LASF854:
 23485 3c7c 4443544C 		.ascii	"DCTL\000"
 23485      00
 23486              	.LASF502:
 23487 3c81 63616E5F 		.ascii	"can_baud_rate\000"
 23487      62617564 
 23487      5F726174 
 23487      6500
 23488              	.LASF881:
 23489 3c8f 74786275 		.ascii	"txbuf\000"
 23489      6600
 23490              	.LASF873:
 23491 3c95 50434743 		.ascii	"PCGCCTL\000"
 23491      43544C00 
 23492              	.LASF414:
 23493 3c9d 6D756C74 		.ascii	"multi_esc\000"
 23493      695F6573 
 23493      6300
 23494              	.LASF463:
 23495 3ca7 4E52465F 		.ascii	"NRF_CRC_2B\000"
 23495      4352435F 
 23495      324200
 23496              	.LASF1141:
 23497 3cb2 74696D65 		.ascii	"timeout_configure\000"
 23497      6F75745F 
 23497      636F6E66 
 23497      69677572 
 23497      6500
 23498              	.LASF469:
 23499 3cc4 4E52465F 		.ascii	"NRF_RETR_DELAY_1250US\000"
 23499      52455452 
 23499      5F44454C 
 23499      41595F31 
 23499      32353055 
 23500              	.LASF263:
 23501 3cda 6C5F696E 		.ascii	"l_in_current_max\000"
 23501      5F637572 
 23501      72656E74 
 23501      5F6D6178 
ARM GAS  /tmp/ccTUBOn1.s 			page 462


 23501      00
 23502              	.LASF1107:
 23503 3ceb 6176675F 		.ascii	"avg_cycle_integrator_running\000"
 23503      6379636C 
 23503      655F696E 
 23503      74656772 
 23503      61746F72 
 23504              	.LASF40:
 23505 3d08 705F6F6C 		.ascii	"p_older\000"
 23505      64657200 
 23506              	.LASF637:
 23507 3d10 50494461 		.ascii	"PIData\000"
 23507      746100
 23508              	.LASF1111:
 23509 3d17 636F6E66 		.ascii	"conf_addr\000"
 23509      5F616464 
 23509      7200
 23510              	.LASF903:
 23511 3d21 73657475 		.ascii	"setup_buf\000"
 23511      705F6275 
 23511      6600
 23512              	.LASF1180:
 23513 3d2b 7574696C 		.ascii	"utils_sys_unlock_cnt\000"
 23513      735F7379 
 23513      735F756E 
 23513      6C6F636B 
 23513      5F636E74 
 23514              	.LASF501:
 23515 3d40 73656E64 		.ascii	"send_can_status_rate_hz\000"
 23515      5F63616E 
 23515      5F737461 
 23515      7475735F 
 23515      72617465 
 23516              	.LASF336:
 23517 3d58 666F635F 		.ascii	"foc_current_filter_const\000"
 23517      63757272 
 23517      656E745F 
 23517      66696C74 
 23517      65725F63 
 23518              	.LASF690:
 23519 3d71 4943555F 		.ascii	"ICU_UNINIT\000"
 23519      554E494E 
 23519      495400
 23520              	.LASF54:
 23521 3d7c 74687265 		.ascii	"thread_reference_t\000"
 23521      61645F72 
 23521      65666572 
 23521      656E6365 
 23521      5F7400
 23522              	.LASF352:
 23523 3d8f 705F7069 		.ascii	"p_pid_ang_div\000"
 23523      645F616E 
 23523      675F6469 
 23523      7600
 23524              	.LASF214:
 23525 3d9d 4F55545F 		.ascii	"OUT_AUX_MODE_ON_AFTER_5S\000"
 23525      4155585F 
ARM GAS  /tmp/ccTUBOn1.s 			page 463


 23525      4D4F4445 
 23525      5F4F4E5F 
 23525      41465445 
 23526              	.LASF329:
 23527 3db6 666F635F 		.ascii	"foc_hall_table\000"
 23527      68616C6C 
 23527      5F746162 
 23527      6C6500
 23528              	.LASF757:
 23529 3dc5 72656365 		.ascii	"receiving\000"
 23529      6976696E 
 23529      6700
 23530              	.LASF220:
 23531 3dcf 4D4F544F 		.ascii	"MOTOR_TYPE_GPD\000"
 23531      525F5459 
 23531      50455F47 
 23531      504400
 23532              	.LASF1091:
 23533 3dde 73746172 		.ascii	"started\000"
 23533      74656400 
 23534              	.LASF987:
 23535 3de6 5F5F4649 		.ascii	"__FILE\000"
 23535      4C4500
 23536              	.LASF497:
 23537 3ded 636F6E74 		.ascii	"controller_id\000"
 23537      726F6C6C 
 23537      65725F69 
 23537      6400
 23538              	.LASF719:
 23539 3dfb 66726571 		.ascii	"frequency\000"
 23539      75656E63 
 23539      7900
 23540              	.LASF1181:
 23541 3e05 45455F52 		.ascii	"EE_ReadVariable\000"
 23541      65616456 
 23541      61726961 
 23541      626C6500 
 23542              	.LASF325:
 23543 3e15 666F635F 		.ascii	"foc_sl_openloop_time\000"
 23543      736C5F6F 
 23543      70656E6C 
 23543      6F6F705F 
 23543      74696D65 
 23544              	.LASF137:
 23545 3e2a 746D5F63 		.ascii	"tm_calibration_t\000"
 23545      616C6962 
 23545      72617469 
 23545      6F6E5F74 
 23545      00
 23546              	.LASF2:
 23547 3e3b 5F5F696E 		.ascii	"__int8_t\000"
 23547      74385F74 
 23547      00
 23548              	.LASF290:
 23549 3e44 6C6F5F69 		.ascii	"lo_in_current_min\000"
 23549      6E5F6375 
 23549      7272656E 
ARM GAS  /tmp/ccTUBOn1.s 			page 464


 23549      745F6D69 
 23549      6E00
 23550              	.LASF900:
 23551 3e56 696E5F73 		.ascii	"in_state\000"
 23551      74617465 
 23551      00
 23552              	.LASF130:
 23553 3e5f 47545052 		.ascii	"GTPR\000"
 23553      00
 23554              	.LASF557:
 23555 3e64 434F4D4D 		.ascii	"COMM_GPD_SET_MODE\000"
 23555      5F475044 
 23555      5F534554 
 23555      5F4D4F44 
 23555      4500
 23556              	.LASF154:
 23557 3e76 63685F7A 		.ascii	"ch_zero\000"
 23557      65726F00 
 23558              	.LASF281:
 23559 3e7e 6C5F6D69 		.ascii	"l_min_duty\000"
 23559      6E5F6475 
 23559      747900
 23560              	.LASF394:
 23561 3e89 50504D5F 		.ascii	"PPM_CTRL_TYPE_CURRENT_NOREV\000"
 23561      4354524C 
 23561      5F545950 
 23561      455F4355 
 23561      5252454E 
 23562              	.LASF503:
 23563 3ea5 70616972 		.ascii	"pairing_done\000"
 23563      696E675F 
 23563      646F6E65 
 23563      00
 23564              	.LASF673:
 23565 3eb2 46415354 		.ascii	"FAST_DUTY_CYCLE_2\000"
 23565      5F445554 
 23565      595F4359 
 23565      434C455F 
 23565      3200
 23566              	.LASF1131:
 23567 3ec4 636F6D6D 		.ascii	"comm_can_detect_all_foc_res\000"
 23567      5F63616E 
 23567      5F646574 
 23567      6563745F 
 23567      616C6C5F 
 23568              	.LASF159:
 23569 3ee0 63685F74 		.ascii	"ch_threadsize\000"
 23569      68726561 
 23569      6473697A 
 23569      6500
 23570              	.LASF122:
 23571 3eee 464C5452 		.ascii	"FLTR\000"
 23571      00
 23572              	.LASF240:
 23573 3ef3 53454E53 		.ascii	"SENSOR_PORT_MODE_AD2S1205\000"
 23573      4F525F50 
 23573      4F52545F 
ARM GAS  /tmp/ccTUBOn1.s 			page 465


 23573      4D4F4445 
 23573      5F414432 
 23574              	.LASF242:
 23575 3f0d 73656E73 		.ascii	"sensor_port_mode\000"
 23575      6F725F70 
 23575      6F72745F 
 23575      6D6F6465 
 23575      00
 23576              	.LASF1026:
 23577 3f1e 5F5F6664 		.ascii	"__fdlib_version\000"
 23577      6C69625F 
 23577      76657273 
 23577      696F6E00 
 23578              	.LASF703:
 23579 3f2e 43434D52 		.ascii	"CCMR1\000"
 23579      3100
 23580              	.LASF704:
 23581 3f34 43434D52 		.ascii	"CCMR2\000"
 23581      3200
 23582              	.LASF708:
 23583 3f3a 43434D52 		.ascii	"CCMR3\000"
 23583      3300
 23584              	.LASF211:
 23585 3f40 6D635F66 		.ascii	"mc_foc_sensor_mode\000"
 23585      6F635F73 
 23585      656E736F 
 23585      725F6D6F 
 23585      646500
 23586              	.LASF15:
 23587 3f53 756E7369 		.ascii	"unsigned int\000"
 23587      676E6564 
 23587      20696E74 
 23587      00
 23588              	.LASF1156:
 23589 3f60 7574696C 		.ascii	"utils_angle_difference\000"
 23589      735F616E 
 23589      676C655F 
 23589      64696666 
 23589      6572656E 
 23590              	.LASF1001:
 23591 3f77 5F723438 		.ascii	"_r48\000"
 23591      00
 23592              	.LASF843:
 23593 3f7c 48464952 		.ascii	"HFIR\000"
 23593      00
 23594              	.LASF773:
 23595 3f81 5553425F 		.ascii	"USB_UNINIT\000"
 23595      554E494E 
 23595      495400
 23596              	.LASF425:
 23597 3f8c 4144435F 		.ascii	"ADC_CTRL_TYPE_CURRENT_NOREV_BRAKE_ADC\000"
 23597      4354524C 
 23597      5F545950 
 23597      455F4355 
 23597      5252454E 
 23598              	.LASF605:
 23599 3fb2 73747265 		.ascii	"stream\000"
ARM GAS  /tmp/ccTUBOn1.s 			page 466


 23599      616D00
 23600              	.LASF1116:
 23601 3fb9 76617230 		.ascii	"var0\000"
 23601      00
 23602              	.LASF671:
 23603 3fbe 6932636F 		.ascii	"i2copmode_t\000"
 23603      706D6F64 
 23603      655F7400 
 23604              	.LASF1052:
 23605 3fca 6F6C645F 		.ascii	"old_l\000"
 23605      6C00
 23606              	.LASF1051:
 23607 3fd0 6F6C645F 		.ascii	"old_r\000"
 23607      7200
 23608              	.LASF581:
 23609 3fd6 434F4D4D 		.ascii	"COMM_BM_ERASE_FLASH_ALL\000"
 23609      5F424D5F 
 23609      45524153 
 23609      455F464C 
 23609      4153485F 
 23610              	.LASF993:
 23611 3fee 5F6D756C 		.ascii	"_mult\000"
 23611      7400
 23612              	.LASF791:
 23613 3ff4 5553425F 		.ascii	"USB_EVENT_WAKEUP\000"
 23613      4556454E 
 23613      545F5741 
 23613      4B455550 
 23613      00
 23614              	.LASF5:
 23615 4005 73686F72 		.ascii	"short int\000"
 23615      7420696E 
 23615      7400
 23616              	.LASF331:
 23617 400f 666F635F 		.ascii	"foc_sample_v0_v7\000"
 23617      73616D70 
 23617      6C655F76 
 23617      305F7637 
 23617      00
 23618              	.LASF1034:
 23619 4020 6F70656E 		.ascii	"openloop_rpm\000"
 23619      6C6F6F70 
 23619      5F72706D 
 23619      00
 23620              	.LASF797:
 23621 402d 75736263 		.ascii	"usbcallback_t\000"
 23621      616C6C62 
 23621      61636B5F 
 23621      7400
 23622              	.LASF601:
 23623 403b 6D637077 		.ascii	"mcpwm_detect_currents_diff\000"
 23623      6D5F6465 
 23623      74656374 
 23623      5F637572 
 23623      72656E74 
 23624              	.LASF826:
 23625 4056 47555342 		.ascii	"GUSBCFG\000"
ARM GAS  /tmp/ccTUBOn1.s 			page 467


 23625      43464700 
 23626              	.LASF131:
 23627 405e 55534152 		.ascii	"USART_TypeDef\000"
 23627      545F5479 
 23627      70654465 
 23627      6600
 23628              	.LASF1173:
 23629 406c 45455F57 		.ascii	"EE_WriteVariable\000"
 23629      72697465 
 23629      56617269 
 23629      61626C65 
 23629      00
 23630              	.LASF196:
 23631 407d 6F757470 		.ascii	"output_queue_t\000"
 23631      75745F71 
 23631      75657565 
 23631      5F7400
 23632              	.LASF217:
 23633 408c 4D4F544F 		.ascii	"MOTOR_TYPE_BLDC\000"
 23633      525F5459 
 23633      50455F42 
 23633      4C444300 
 23634              	.LASF991:
 23635 409c 5F72616E 		.ascii	"_rand48\000"
 23635      64343800 
 23636              	.LASF876:
 23637 40a4 73746D33 		.ascii	"stm32_otg_t\000"
 23637      325F6F74 
 23637      675F7400 
 23638              	.LASF678:
 23639 40b0 64757479 		.ascii	"duty_cycle\000"
 23639      5F637963 
 23639      6C6500
 23640              	.LASF543:
 23641 40bb 434F4D4D 		.ascii	"COMM_REBOOT\000"
 23641      5F524542 
 23641      4F4F5400 
 23642              	.LASF1042:
 23643 40c7 73746F72 		.ascii	"store_mcconf_on_success\000"
 23643      655F6D63 
 23643      636F6E66 
 23643      5F6F6E5F 
 23643      73756363 
 23644              	.LASF794:
 23645 40df 75645F73 		.ascii	"ud_size\000"
 23645      697A6500 
 23646              	.LASF1165:
 23647 40e7 6D635F69 		.ascii	"mc_interface_lock_override_once\000"
 23647      6E746572 
 23647      66616365 
 23647      5F6C6F63 
 23647      6B5F6F76 
 23648              	.LASF505:
 23649 4107 75617663 		.ascii	"uavcan_enable\000"
 23649      616E5F65 
 23649      6E61626C 
 23649      6500
ARM GAS  /tmp/ccTUBOn1.s 			page 468


 23650              	.LASF1046:
 23651 4115 746F7574 		.ascii	"tout_c\000"
 23651      5F6300
 23652              	.LASF898:
 23653 411c 696E5F6D 		.ascii	"in_maxsize\000"
 23653      61787369 
 23653      7A6500
 23654              	.LASF634:
 23655 4127 50464461 		.ascii	"PFData\000"
 23655      746100
 23656              	.LASF894:
 23657 412e 65705F6D 		.ascii	"ep_mode\000"
 23657      6F646500 
 23658              	.LASF42:
 23659 4136 705F7374 		.ascii	"p_state\000"
 23659      61746500 
 23660              	.LASF57:
 23661 413e 63685F74 		.ascii	"ch_threads_list\000"
 23661      68726561 
 23661      64735F6C 
 23661      69737400 
 23662              	.LASF202:
 23663 414e 434F4D4D 		.ascii	"COMM_MODE_DELAY\000"
 23663      5F4D4F44 
 23663      455F4445 
 23663      4C415900 
 23664              	.LASF369:
 23665 415e 6D5F6F75 		.ascii	"m_out_aux_mode\000"
 23665      745F6175 
 23665      785F6D6F 
 23665      646500
 23666              	.LASF119:
 23667 416d 4F415231 		.ascii	"OAR1\000"
 23667      00
 23668              	.LASF120:
 23669 4172 4F415232 		.ascii	"OAR2\000"
 23669      00
 23670              	.LASF1088:
 23671 4177 74696D65 		.ascii	"timebase\000"
 23671      62617365 
 23671      00
 23672              	.LASF728:
 23673 4180 53445F52 		.ascii	"SD_READY\000"
 23673      45414459 
 23673      00
 23674              	.LASF778:
 23675 4189 75736273 		.ascii	"usbstate_t\000"
 23675      74617465 
 23675      5F7400
 23676              	.LASF360:
 23677 4194 6D5F656E 		.ascii	"m_encoder_counts\000"
 23677      636F6465 
 23677      725F636F 
 23677      756E7473 
 23677      00
 23678              		.ident	"GCC: (GNU Tools for Arm Embedded Processors 7-2018-q3-update) 7.3.1 20180622 (release) [AR
ARM GAS  /tmp/ccTUBOn1.s 			page 469


DEFINED SYMBOLS
                            *ABS*:0000000000000000 conf_general.c
     /tmp/ccTUBOn1.s:18     .text.read_eeprom_var:0000000000000000 $t
     /tmp/ccTUBOn1.s:25     .text.read_eeprom_var:0000000000000000 read_eeprom_var
     /tmp/ccTUBOn1.s:102    .text.store_eeprom_var:0000000000000000 $t
     /tmp/ccTUBOn1.s:109    .text.store_eeprom_var:0000000000000000 store_eeprom_var
     /tmp/ccTUBOn1.s:186    .text.conf_general_init:0000000000000000 $t
     /tmp/ccTUBOn1.s:194    .text.conf_general_init:0000000000000000 conf_general_init
     /tmp/ccTUBOn1.s:290    .text.conf_general_init:000000000000007c $d
     /tmp/ccTUBOn1.s:299    .text.conf_general_read_eeprom_var_hw:0000000000000000 $t
     /tmp/ccTUBOn1.s:307    .text.conf_general_read_eeprom_var_hw:0000000000000000 conf_general_read_eeprom_var_hw
     /tmp/ccTUBOn1.s:323    .text.conf_general_read_eeprom_var_custom:0000000000000000 $t
     /tmp/ccTUBOn1.s:331    .text.conf_general_read_eeprom_var_custom:0000000000000000 conf_general_read_eeprom_var_custom
     /tmp/ccTUBOn1.s:347    .text.conf_general_store_eeprom_var_hw:0000000000000000 $t
     /tmp/ccTUBOn1.s:355    .text.conf_general_store_eeprom_var_hw:0000000000000000 conf_general_store_eeprom_var_hw
     /tmp/ccTUBOn1.s:371    .text.conf_general_store_eeprom_var_custom:0000000000000000 $t
     /tmp/ccTUBOn1.s:379    .text.conf_general_store_eeprom_var_custom:0000000000000000 conf_general_store_eeprom_var_custom
     /tmp/ccTUBOn1.s:395    .text.conf_general_read_app_configuration:0000000000000000 $t
     /tmp/ccTUBOn1.s:403    .text.conf_general_read_app_configuration:0000000000000000 conf_general_read_app_configuration
     /tmp/ccTUBOn1.s:467    .text.conf_general_store_app_configuration:0000000000000000 $t
     /tmp/ccTUBOn1.s:475    .text.conf_general_store_app_configuration:0000000000000000 conf_general_store_app_configuration
     /tmp/ccTUBOn1.s:576    .text.conf_general_read_mc_configuration:0000000000000000 $t
     /tmp/ccTUBOn1.s:584    .text.conf_general_read_mc_configuration:0000000000000000 conf_general_read_mc_configuration
     /tmp/ccTUBOn1.s:648    .text.conf_general_store_mc_configuration:0000000000000000 $t
     /tmp/ccTUBOn1.s:656    .text.conf_general_store_mc_configuration:0000000000000000 conf_general_store_mc_configuration
     /tmp/ccTUBOn1.s:759    .text.conf_general_detect_motor_param:0000000000000000 $t
     /tmp/ccTUBOn1.s:767    .text.conf_general_detect_motor_param:0000000000000000 conf_general_detect_motor_param
     /tmp/ccTUBOn1.s:1392   .text.conf_general_detect_motor_param:0000000000000328 $d
     /tmp/ccTUBOn1.s:1406   .text.conf_general_measure_flux_linkage:0000000000000000 $t
     /tmp/ccTUBOn1.s:1414   .text.conf_general_measure_flux_linkage:0000000000000000 conf_general_measure_flux_linkage
     /tmp/ccTUBOn1.s:1948   .text.conf_general_measure_flux_linkage:00000000000002c0 $d
     /tmp/ccTUBOn1.s:1968   .text.conf_general_calculate_deadtime:0000000000000000 $t
     /tmp/ccTUBOn1.s:1976   .text.conf_general_calculate_deadtime:0000000000000000 conf_general_calculate_deadtime
     /tmp/ccTUBOn1.s:2101   .text.conf_general_calculate_deadtime:00000000000000e4 $d
     /tmp/ccTUBOn1.s:2113   .text.conf_general_measure_flux_linkage_openloop:0000000000000000 $t
     /tmp/ccTUBOn1.s:2121   .text.conf_general_measure_flux_linkage_openloop:0000000000000000 conf_general_measure_flux_linkage_openloop
     /tmp/ccTUBOn1.s:2622   .text.conf_general_measure_flux_linkage_openloop:0000000000000298 $d
     /tmp/ccTUBOn1.s:2638   .text.conf_general_autodetect_apply_sensors_foc:0000000000000000 $t
     /tmp/ccTUBOn1.s:2646   .text.conf_general_autodetect_apply_sensors_foc:0000000000000000 conf_general_autodetect_apply_sensors_foc
     /tmp/ccTUBOn1.s:3040   .text.conf_general_autodetect_apply_sensors_foc:0000000000000234 $d
     /tmp/ccTUBOn1.s:3050   .text.conf_general_detect_apply_all_foc:0000000000000000 $t
     /tmp/ccTUBOn1.s:3058   .text.conf_general_detect_apply_all_foc:0000000000000000 conf_general_detect_apply_all_foc
     /tmp/ccTUBOn1.s:3622   .text.conf_general_detect_apply_all_foc:0000000000000320 $d
     /tmp/ccTUBOn1.s:3649   .text.conf_general_detect_apply_all_foc_can:0000000000000000 $t
     /tmp/ccTUBOn1.s:3657   .text.conf_general_detect_apply_all_foc_can:0000000000000000 conf_general_detect_apply_all_foc_can
     /tmp/ccTUBOn1.s:4012   .text.conf_general_detect_apply_all_foc_can:00000000000001e8 $d
     /tmp/ccTUBOn1.s:4049   .bss.mcconf_old:0000000000000000 mcconf_old
     /tmp/ccTUBOn1.s:4042   .bss.mcconf:0000000000000000 mcconf
     /tmp/ccTUBOn1.s:4035   .bss.conf_general_permanent_nrf_found:0000000000000000 conf_general_permanent_nrf_found
     /tmp/ccTUBOn1.s:4030   .bss.VirtAddVarTab:0000000000000000 VirtAddVarTab
     /tmp/ccTUBOn1.s:4026   .bss.VirtAddVarTab:0000000000000000 $d
     /tmp/ccTUBOn1.s:4036   .bss.conf_general_permanent_nrf_found:0000000000000000 $d
     /tmp/ccTUBOn1.s:4038   .bss.mcconf:0000000000000000 $d
     /tmp/ccTUBOn1.s:4045   .bss.mcconf_old:0000000000000000 $d

UNDEFINED SYMBOLS
EE_ReadVariable
ARM GAS  /tmp/ccTUBOn1.s 			page 470


timeout_configure_IWDT_slowest
FLASH_Unlock
FLASH_ClearFlag
EE_WriteVariable
FLASH_Lock
timeout_configure_IWDT
memset
EE_Init
confgenerator_set_defaults_appconf
mc_interface_unlock
mc_interface_release_motor
utils_sys_lock_cnt
mc_interface_lock
chThdSleep
utils_sys_unlock_cnt
confgenerator_set_defaults_mcconf
mc_interface_get_configuration
memcpy
mc_interface_set_configuration
mc_interface_get_fault
timeout_get_timeout_msec
timeout_get_brake_current
timeout_reset
timeout_configure
mc_interface_lock_override_once
mc_interface_set_current
mc_interface_get_duty_cycle_now
mcpwm_reset_hall_detect_table
mc_interface_set_duty
mc_interface_get_tachometer_value
mcpwm_read_reset_avg_cycle_integrator
mcpwm_get_hall_detect_result
mc_interface_get_rpm
mcpwm_switch_comm_mode
ADC_Value
mc_interface_get_tot_current
mcpwm_foc_set_openloop
mcpwm_foc_get_vq
mcpwm_foc_get_vd
mcpwm_foc_get_iq
mcpwm_foc_get_id
sqrtf
mcpwm_foc_hall_detect
mcpwm_foc_set_openloop_phase
encoder_read_deg
utils_angle_difference
mcpwm_foc_encoder_detect
commands_send_mcconf
utils_truncate_number_abs
mcpwm_foc_measure_resistance
mcpwm_foc_measure_inductance_current
utils_truncate_number
app_get_configuration
comm_can_detect_all_foc_res_clear
comm_can_ping
comm_can_conf_current_limits_in
comm_can_conf_foc_erpms
ARM GAS  /tmp/ccTUBOn1.s 			page 471


comm_can_detect_apply_all_foc
comm_can_detect_all_foc_res_size
comm_can_detect_all_foc_res
app_set_configuration
commands_send_appconf
