ARM GAS  /tmp/ccTUBOn1.s 			page 1


   1              		.cpu cortex-m4
   2              		.eabi_attribute 27, 1
   3              		.eabi_attribute 28, 1
   4              		.eabi_attribute 20, 1
   5              		.eabi_attribute 21, 1
   6              		.eabi_attribute 23, 3
   7              		.eabi_attribute 24, 1
   8              		.eabi_attribute 25, 1
   9              		.eabi_attribute 26, 1
  10              		.eabi_attribute 30, 2
  11              		.eabi_attribute 34, 1
  12              		.eabi_attribute 18, 4
  13              		.file	"conf_general.c"
  14              		.text
  15              	.Ltext0:
  16              		.cfi_sections	.debug_frame
  17              		.section	.text.read_eeprom_var,"ax",%progbits
  18              		.align	1
  19              		.p2align 4,,15
  20              		.syntax unified
  21              		.thumb
  22              		.thumb_func
  23              		.fpu fpv4-sp-d16
  24              		.type	read_eeprom_var, %function
  25              	read_eeprom_var:
  26              	.LFB261:
  27              		.file 1 "conf_general.c"
  28              		.loc 1 149 0
  29              		.cfi_startproc
  30              		@ args = 0, pretend = 0, frame = 8
  31              		@ frame_needed = 0, uses_anonymous_args = 0
  32              	.LVL0:
  33 0000 30B5     		push	{r4, r5, lr}
  34              		.cfi_def_cfa_offset 12
  35              		.cfi_offset 4, -12
  36              		.cfi_offset 5, -8
  37              		.cfi_offset 14, -4
  38              		.loc 1 153 0
  39 0002 02EB4102 		add	r2, r2, r1, lsl #1
  40              	.LVL1:
  41              		.loc 1 149 0
  42 0006 83B0     		sub	sp, sp, #12
  43              		.cfi_def_cfa_offset 24
  44              		.loc 1 153 0
  45 0008 94B2     		uxth	r4, r2
  46              		.loc 1 149 0
  47 000a 0546     		mov	r5, r0
  48              		.loc 1 153 0
  49 000c 01A9     		add	r1, sp, #4
  50              	.LVL2:
  51 000e 2046     		mov	r0, r4
  52              	.LVL3:
  53 0010 FFF7FEFF 		bl	EE_ReadVariable
  54              	.LVL4:
  55 0014 10B1     		cbz	r0, .L2
  56              	.L4:
  57              		.loc 1 158 0
ARM GAS  /tmp/ccTUBOn1.s 			page 2


  58 0016 0020     		movs	r0, #0
  59              	.LVL5:
  60              		.loc 1 162 0
  61 0018 03B0     		add	sp, sp, #12
  62              		.cfi_remember_state
  63              		.cfi_def_cfa_offset 12
  64              		@ sp needed
  65 001a 30BD     		pop	{r4, r5, pc}
  66              	.LVL6:
  67              	.L2:
  68              		.cfi_restore_state
  69              		.loc 1 154 0 discriminator 1
  70 001c 601C     		adds	r0, r4, #1
  71 001e 80B2     		uxth	r0, r0
  72 0020 0DF10601 		add	r1, sp, #6
  73 0024 FFF7FEFF 		bl	EE_ReadVariable
  74              	.LVL7:
  75              		.loc 1 153 0 discriminator 1
  76 0028 0028     		cmp	r0, #0
  77 002a F4D1     		bne	.L4
  78              	.LVL8:
  79              	.LBB2:
  80              		.loc 1 155 0
  81 002c BDF80420 		ldrh	r2, [sp, #4]
  82 0030 BDF80630 		ldrh	r3, [sp, #6]
  83              	.LBE2:
  84              		.loc 1 150 0
  85 0034 0120     		movs	r0, #1
  86              	.LVL9:
  87              	.LBB3:
  88              		.loc 1 155 0
  89 0036 43EA0243 		orr	r3, r3, r2, lsl #16
  90              		.loc 1 156 0
  91 003a 2B60     		str	r3, [r5]
  92              	.LBE3:
  93              		.loc 1 162 0
  94 003c 03B0     		add	sp, sp, #12
  95              		.cfi_def_cfa_offset 12
  96              		@ sp needed
  97 003e 30BD     		pop	{r4, r5, pc}
  98              		.cfi_endproc
  99              	.LFE261:
 100              		.size	read_eeprom_var, .-read_eeprom_var
 101              		.section	.text.store_eeprom_var,"ax",%progbits
 102              		.align	1
 103              		.p2align 4,,15
 104              		.syntax unified
 105              		.thumb
 106              		.thumb_func
 107              		.fpu fpv4-sp-d16
 108              		.type	store_eeprom_var, %function
 109              	store_eeprom_var:
 110              	.LFB262:
 111              		.loc 1 164 0
 112              		.cfi_startproc
 113              		@ args = 0, pretend = 0, frame = 0
 114              		@ frame_needed = 0, uses_anonymous_args = 0
ARM GAS  /tmp/ccTUBOn1.s 			page 3


 115              	.LVL10:
 116 0000 70B5     		push	{r4, r5, r6, lr}
 117              		.cfi_def_cfa_offset 16
 118              		.cfi_offset 4, -16
 119              		.cfi_offset 5, -12
 120              		.cfi_offset 6, -8
 121              		.cfi_offset 14, -4
 122              		.loc 1 164 0
 123 0002 0E46     		mov	r6, r1
 124 0004 1446     		mov	r4, r2
 125              		.loc 1 168 0
 126 0006 0568     		ldr	r5, [r0]
 127              	.LVL11:
 128              		.loc 1 177 0
 129 0008 04EB4604 		add	r4, r4, r6, lsl #1
 130              		.loc 1 171 0
 131 000c FFF7FEFF 		bl	timeout_configure_IWDT_slowest
 132              	.LVL12:
 133              		.loc 1 177 0
 134 0010 A4B2     		uxth	r4, r4
 135              		.loc 1 173 0
 136 0012 FFF7FEFF 		bl	FLASH_Unlock
 137              	.LVL13:
 138              		.loc 1 174 0
 139 0016 F220     		movs	r0, #242
 140 0018 FFF7FEFF 		bl	FLASH_ClearFlag
 141              	.LVL14:
 142              		.loc 1 177 0
 143 001c 2046     		mov	r0, r4
 144 001e 290C     		lsrs	r1, r5, #16
 145 0020 FFF7FEFF 		bl	EE_WriteVariable
 146              	.LVL15:
 147 0024 0928     		cmp	r0, #9
 148 0026 06D0     		beq	.L11
 149              		.loc 1 178 0
 150 0028 0024     		movs	r4, #0
 151              	.LVL16:
 152              		.loc 1 187 0
 153 002a FFF7FEFF 		bl	FLASH_Lock
 154              	.LVL17:
 155              		.loc 1 189 0
 156 002e FFF7FEFF 		bl	timeout_configure_IWDT
 157              	.LVL18:
 158              		.loc 1 192 0
 159 0032 2046     		mov	r0, r4
 160 0034 70BD     		pop	{r4, r5, r6, pc}
 161              	.LVL19:
 162              	.L11:
 163              		.loc 1 182 0
 164 0036 601C     		adds	r0, r4, #1
 165 0038 A9B2     		uxth	r1, r5
 166 003a 80B2     		uxth	r0, r0
 167 003c FFF7FEFF 		bl	EE_WriteVariable
 168              	.LVL20:
 169 0040 A0F10904 		sub	r4, r0, #9
 170 0044 B4FA84F4 		clz	r4, r4
 171 0048 6409     		lsrs	r4, r4, #5
ARM GAS  /tmp/ccTUBOn1.s 			page 4


 172              	.LVL21:
 173              		.loc 1 187 0
 174 004a FFF7FEFF 		bl	FLASH_Lock
 175              	.LVL22:
 176              		.loc 1 189 0
 177 004e FFF7FEFF 		bl	timeout_configure_IWDT
 178              	.LVL23:
 179              		.loc 1 192 0
 180 0052 2046     		mov	r0, r4
 181 0054 70BD     		pop	{r4, r5, r6, pc}
 182              		.cfi_endproc
 183              	.LFE262:
 184              		.size	store_eeprom_var, .-store_eeprom_var
 185 0056 00BF     		.section	.text.conf_general_init,"ax",%progbits
 186              		.align	1
 187              		.p2align 4,,15
 188              		.global	conf_general_init
 189              		.syntax unified
 190              		.thumb
 191              		.thumb_func
 192              		.fpu fpv4-sp-d16
 193              		.type	conf_general_init, %function
 194              	conf_general_init:
 195              	.LFB256:
 196              		.loc 1 57 0
 197              		.cfi_startproc
 198              		@ args = 0, pretend = 0, frame = 0
 199              		@ frame_needed = 0, uses_anonymous_args = 0
 200 0000 08B5     		push	{r3, lr}
 201              		.cfi_def_cfa_offset 8
 202              		.cfi_offset 3, -8
 203              		.cfi_offset 14, -4
 204              		.loc 1 59 0
 205 0002 40F29442 		movw	r2, #1172
 206 0006 0021     		movs	r1, #0
 207 0008 1C48     		ldr	r0, .L22
 208 000a FFF7FEFF 		bl	memset
 209              	.LVL24:
 210 000e 1C4A     		ldr	r2, .L22+4
 211 0010 4FF47A73 		mov	r3, #1000
 212 0014 02F5E471 		add	r1, r2, #456
 213              	.LVL25:
 214              	.L13:
 215              	.LBB4:
 216              		.loc 1 63 0 discriminator 3
 217 0018 22F8023F 		strh	r3, [r2, #2]!	@ movhi
 218 001c 0133     		adds	r3, r3, #1
 219              		.loc 1 62 0 discriminator 3
 220 001e 8A42     		cmp	r2, r1
 221 0020 9BB2     		uxth	r3, r3
 222 0022 F9D1     		bne	.L13
 223 0024 174A     		ldr	r2, .L22+8
 224              		.loc 1 62 0 is_stmt 0
 225 0026 4FF4FA63 		mov	r3, #2000
 226 002a 02F1CC01 		add	r1, r2, #204
 227              	.L14:
 228              	.LBE4:
ARM GAS  /tmp/ccTUBOn1.s 			page 5


 229              	.LBB5:
 230              		.loc 1 67 0 is_stmt 1 discriminator 3
 231 002e 22F8023F 		strh	r3, [r2, #2]!	@ movhi
 232              	.LVL26:
 233 0032 0133     		adds	r3, r3, #1
 234              		.loc 1 66 0 discriminator 3
 235 0034 8A42     		cmp	r2, r1
 236 0036 9BB2     		uxth	r3, r3
 237 0038 F9D1     		bne	.L14
 238 003a 134A     		ldr	r2, .L22+12
 239              		.loc 1 66 0 is_stmt 0
 240 003c 40F6B833 		movw	r3, #3000
 241 0040 02F58071 		add	r1, r2, #256
 242              	.L15:
 243              	.LBE5:
 244              	.LBB6:
 245              		.loc 1 71 0 is_stmt 1 discriminator 3
 246 0044 22F8023F 		strh	r3, [r2, #2]!	@ movhi
 247              	.LVL27:
 248 0048 0133     		adds	r3, r3, #1
 249              		.loc 1 70 0 discriminator 3
 250 004a 9142     		cmp	r1, r2
 251 004c 9BB2     		uxth	r3, r3
 252 004e F9D1     		bne	.L15
 253 0050 0E4A     		ldr	r2, .L22+16
 254              		.loc 1 70 0 is_stmt 0
 255 0052 4FF47A63 		mov	r3, #4000
 256 0056 02F58071 		add	r1, r2, #256
 257              	.L16:
 258              	.LBE6:
 259              	.LBB7:
 260              		.loc 1 75 0 is_stmt 1 discriminator 3
 261 005a 22F8023F 		strh	r3, [r2, #2]!	@ movhi
 262              	.LVL28:
 263 005e 0133     		adds	r3, r3, #1
 264              		.loc 1 74 0 discriminator 3
 265 0060 8A42     		cmp	r2, r1
 266 0062 9BB2     		uxth	r3, r3
 267 0064 F9D1     		bne	.L16
 268              	.LBE7:
 269              		.loc 1 78 0
 270 0066 FFF7FEFF 		bl	FLASH_Unlock
 271              	.LVL29:
 272              		.loc 1 79 0
 273 006a F220     		movs	r0, #242
 274 006c FFF7FEFF 		bl	FLASH_ClearFlag
 275              	.LVL30:
 276              		.loc 1 81 0
 277 0070 FFF7FEFF 		bl	EE_Init
 278              	.LVL31:
 279              		.loc 1 83 0
 280 0074 BDE80840 		pop	{r3, lr}
 281              		.cfi_restore 14
 282              		.cfi_restore 3
 283              		.cfi_def_cfa_offset 0
 284              		.loc 1 82 0
 285 0078 FFF7FEBF 		b	FLASH_Lock
ARM GAS  /tmp/ccTUBOn1.s 			page 6


 286              	.LVL32:
 287              	.L23:
 288              		.align	2
 289              	.L22:
 290 007c 00000000 		.word	.LANCHOR0
 291 0080 FEFFFFFF 		.word	.LANCHOR0-2
 292 0084 C6010000 		.word	.LANCHOR0+454
 293 0088 92020000 		.word	.LANCHOR0+658
 294 008c 92030000 		.word	.LANCHOR0+914
 295              		.cfi_endproc
 296              	.LFE256:
 297              		.size	conf_general_init, .-conf_general_init
 298              		.section	.text.conf_general_read_eeprom_var_hw,"ax",%progbits
 299              		.align	1
 300              		.p2align 4,,15
 301              		.global	conf_general_read_eeprom_var_hw
 302              		.syntax unified
 303              		.thumb
 304              		.thumb_func
 305              		.fpu fpv4-sp-d16
 306              		.type	conf_general_read_eeprom_var_hw, %function
 307              	conf_general_read_eeprom_var_hw:
 308              	.LFB257:
 309              		.loc 1 97 0
 310              		.cfi_startproc
 311              		@ args = 0, pretend = 0, frame = 0
 312              		@ frame_needed = 0, uses_anonymous_args = 0
 313              		@ link register save eliminated.
 314              	.LVL33:
 315              		.loc 1 98 0
 316 0000 40F6B832 		movw	r2, #3000
 317 0004 FFF7FEBF 		b	read_eeprom_var
 318              	.LVL34:
 319              		.cfi_endproc
 320              	.LFE257:
 321              		.size	conf_general_read_eeprom_var_hw, .-conf_general_read_eeprom_var_hw
 322              		.section	.text.conf_general_read_eeprom_var_custom,"ax",%progbits
 323              		.align	1
 324              		.p2align 4,,15
 325              		.global	conf_general_read_eeprom_var_custom
 326              		.syntax unified
 327              		.thumb
 328              		.thumb_func
 329              		.fpu fpv4-sp-d16
 330              		.type	conf_general_read_eeprom_var_custom, %function
 331              	conf_general_read_eeprom_var_custom:
 332              	.LFB258:
 333              		.loc 1 113 0
 334              		.cfi_startproc
 335              		@ args = 0, pretend = 0, frame = 0
 336              		@ frame_needed = 0, uses_anonymous_args = 0
 337              		@ link register save eliminated.
 338              	.LVL35:
 339              		.loc 1 114 0
 340 0000 4FF47A62 		mov	r2, #4000
 341 0004 FFF7FEBF 		b	read_eeprom_var
 342              	.LVL36:
ARM GAS  /tmp/ccTUBOn1.s 			page 7


 343              		.cfi_endproc
 344              	.LFE258:
 345              		.size	conf_general_read_eeprom_var_custom, .-conf_general_read_eeprom_var_custom
 346              		.section	.text.conf_general_store_eeprom_var_hw,"ax",%progbits
 347              		.align	1
 348              		.p2align 4,,15
 349              		.global	conf_general_store_eeprom_var_hw
 350              		.syntax unified
 351              		.thumb
 352              		.thumb_func
 353              		.fpu fpv4-sp-d16
 354              		.type	conf_general_store_eeprom_var_hw, %function
 355              	conf_general_store_eeprom_var_hw:
 356              	.LFB259:
 357              		.loc 1 129 0
 358              		.cfi_startproc
 359              		@ args = 0, pretend = 0, frame = 0
 360              		@ frame_needed = 0, uses_anonymous_args = 0
 361              		@ link register save eliminated.
 362              	.LVL37:
 363              		.loc 1 130 0
 364 0000 40F6B832 		movw	r2, #3000
 365 0004 FFF7FEBF 		b	store_eeprom_var
 366              	.LVL38:
 367              		.cfi_endproc
 368              	.LFE259:
 369              		.size	conf_general_store_eeprom_var_hw, .-conf_general_store_eeprom_var_hw
 370              		.section	.text.conf_general_store_eeprom_var_custom,"ax",%progbits
 371              		.align	1
 372              		.p2align 4,,15
 373              		.global	conf_general_store_eeprom_var_custom
 374              		.syntax unified
 375              		.thumb
 376              		.thumb_func
 377              		.fpu fpv4-sp-d16
 378              		.type	conf_general_store_eeprom_var_custom, %function
 379              	conf_general_store_eeprom_var_custom:
 380              	.LFB260:
 381              		.loc 1 145 0
 382              		.cfi_startproc
 383              		@ args = 0, pretend = 0, frame = 0
 384              		@ frame_needed = 0, uses_anonymous_args = 0
 385              		@ link register save eliminated.
 386              	.LVL39:
 387              		.loc 1 146 0
 388 0000 4FF47A62 		mov	r2, #4000
 389 0004 FFF7FEBF 		b	store_eeprom_var
 390              	.LVL40:
 391              		.cfi_endproc
 392              	.LFE260:
 393              		.size	conf_general_store_eeprom_var_custom, .-conf_general_store_eeprom_var_custom
 394              		.section	.text.conf_general_read_app_configuration,"ax",%progbits
 395              		.align	1
 396              		.p2align 4,,15
 397              		.global	conf_general_read_app_configuration
 398              		.syntax unified
 399              		.thumb
ARM GAS  /tmp/ccTUBOn1.s 			page 8


 400              		.thumb_func
 401              		.fpu fpv4-sp-d16
 402              		.type	conf_general_read_app_configuration, %function
 403              	conf_general_read_app_configuration:
 404              	.LFB263:
 405              		.loc 1 200 0
 406              		.cfi_startproc
 407              		@ args = 0, pretend = 0, frame = 8
 408              		@ frame_needed = 0, uses_anonymous_args = 0
 409              	.LVL41:
 410 0000 F0B5     		push	{r4, r5, r6, r7, lr}
 411              		.cfi_def_cfa_offset 20
 412              		.cfi_offset 4, -20
 413              		.cfi_offset 5, -16
 414              		.cfi_offset 6, -12
 415              		.cfi_offset 7, -8
 416              		.cfi_offset 14, -4
 417 0002 0746     		mov	r7, r0
 418              	.LVL42:
 419 0004 83B0     		sub	sp, sp, #12
 420              		.cfi_def_cfa_offset 32
 421 0006 451C     		adds	r5, r0, #1
 422              		.loc 1 200 0
 423 0008 4FF4FA64 		mov	r4, #2000
 424              	.LBB8:
 425              		.loc 1 205 0
 426 000c 40F63606 		movw	r6, #2102
 427 0010 09E0     		b	.L30
 428              	.LVL43:
 429              	.L34:
 430              		.loc 1 207 0
 431 0012 BDF80630 		ldrh	r3, [sp, #6]
 432              		.loc 1 205 0
 433 0016 B442     		cmp	r4, r6
 434              		.loc 1 207 0
 435 0018 4FEA1322 		lsr	r2, r3, #8
 436 001c 05F8012C 		strb	r2, [r5, #-1]
 437              		.loc 1 208 0
 438 0020 05F8023B 		strb	r3, [r5], #2
 439              		.loc 1 205 0
 440 0024 0BD0     		beq	.L28
 441              	.L30:
 442              		.loc 1 206 0
 443 0026 2046     		mov	r0, r4
 444 0028 0DF10601 		add	r1, sp, #6
 445 002c FFF7FEFF 		bl	EE_ReadVariable
 446              	.LVL44:
 447 0030 0134     		adds	r4, r4, #1
 448 0032 A4B2     		uxth	r4, r4
 449 0034 0028     		cmp	r0, #0
 450 0036 ECD0     		beq	.L34
 451              	.LVL45:
 452              	.LBE8:
 453              		.loc 1 217 0
 454 0038 3846     		mov	r0, r7
 455 003a FFF7FEFF 		bl	confgenerator_set_defaults_appconf
 456              	.LVL46:
ARM GAS  /tmp/ccTUBOn1.s 			page 9


 457              	.L28:
 458              		.loc 1 219 0
 459 003e 03B0     		add	sp, sp, #12
 460              		.cfi_def_cfa_offset 20
 461              		@ sp needed
 462 0040 F0BD     		pop	{r4, r5, r6, r7, pc}
 463              		.cfi_endproc
 464              	.LFE263:
 465              		.size	conf_general_read_app_configuration, .-conf_general_read_app_configuration
 466 0042 00BF     		.section	.text.conf_general_store_app_configuration,"ax",%progbits
 467              		.align	1
 468              		.p2align 4,,15
 469              		.global	conf_general_store_app_configuration
 470              		.syntax unified
 471              		.thumb
 472              		.thumb_func
 473              		.fpu fpv4-sp-d16
 474              		.type	conf_general_store_app_configuration, %function
 475              	conf_general_store_app_configuration:
 476              	.LFB264:
 477              		.loc 1 227 0
 478              		.cfi_startproc
 479              		@ args = 0, pretend = 0, frame = 0
 480              		@ frame_needed = 0, uses_anonymous_args = 0
 481              	.LVL47:
 482 0000 70B5     		push	{r4, r5, r6, lr}
 483              		.cfi_def_cfa_offset 16
 484              		.cfi_offset 4, -16
 485              		.cfi_offset 5, -12
 486              		.cfi_offset 6, -8
 487              		.cfi_offset 14, -4
 488              		.loc 1 227 0
 489 0002 0546     		mov	r5, r0
 490              		.loc 1 228 0
 491 0004 FFF7FEFF 		bl	mc_interface_unlock
 492              	.LVL48:
 493              		.loc 1 229 0
 494 0008 FFF7FEFF 		bl	mc_interface_release_motor
 495              	.LVL49:
 496              		.loc 1 231 0
 497 000c FFF7FEFF 		bl	utils_sys_lock_cnt
 498              	.LVL50:
 499              		.loc 1 232 0
 500 0010 FFF7FEFF 		bl	mc_interface_lock
 501              	.LVL51:
 502              		.loc 1 234 0
 503 0014 FFF7FEFF 		bl	timeout_configure_IWDT_slowest
 504              	.LVL52:
 505              		.loc 1 240 0
 506 0018 FFF7FEFF 		bl	FLASH_Unlock
 507              	.LVL53:
 508              		.loc 1 241 0
 509 001c F220     		movs	r0, #242
 510 001e FFF7FEFF 		bl	FLASH_ClearFlag
 511              	.LVL54:
 512 0022 0135     		adds	r5, r5, #1
 513              	.LVL55:
ARM GAS  /tmp/ccTUBOn1.s 			page 10


 514 0024 4FF4FA64 		mov	r4, #2000
 515              	.LBB9:
 516              		.loc 1 244 0
 517 0028 40F63606 		movw	r6, #2102
 518 002c 01E0     		b	.L37
 519              	.LVL56:
 520              	.L42:
 521              		.loc 1 244 0 is_stmt 0 discriminator 2
 522 002e B442     		cmp	r4, r6
 523 0030 1CD0     		beq	.L41
 524              	.L37:
 525              		.loc 1 245 0 is_stmt 1
 526 0032 15F8011C 		ldrb	r1, [r5, #-1]	@ zero_extendqisi2
 527              	.LVL57:
 528              		.loc 1 246 0
 529 0036 2B78     		ldrb	r3, [r5]	@ zero_extendqisi2
 530              		.loc 1 248 0
 531 0038 2046     		mov	r0, r4
 532 003a 43EA0121 		orr	r1, r3, r1, lsl #8
 533              	.LVL58:
 534 003e FFF7FEFF 		bl	EE_WriteVariable
 535              	.LVL59:
 536 0042 0134     		adds	r4, r4, #1
 537 0044 0928     		cmp	r0, #9
 538 0046 A4B2     		uxth	r4, r4
 539 0048 05F10205 		add	r5, r5, #2
 540 004c EFD0     		beq	.L42
 541              		.loc 1 249 0
 542 004e 0024     		movs	r4, #0
 543              	.L36:
 544              	.LVL60:
 545              	.LBE9:
 546              		.loc 1 253 0
 547 0050 FFF7FEFF 		bl	FLASH_Lock
 548              	.LVL61:
 549              		.loc 1 255 0
 550 0054 FFF7FEFF 		bl	timeout_configure_IWDT
 551              	.LVL62:
 552              		.loc 1 257 0
 553 0058 4FF47A70 		mov	r0, #1000
 554 005c FFF7FEFF 		bl	chThdSleep
 555              	.LVL63:
 556              		.loc 1 258 0
 557 0060 FFF7FEFF 		bl	mc_interface_unlock
 558              	.LVL64:
 559              		.loc 1 259 0
 560 0064 FFF7FEFF 		bl	utils_sys_unlock_cnt
 561              	.LVL65:
 562              		.loc 1 262 0
 563 0068 2046     		mov	r0, r4
 564 006a 70BD     		pop	{r4, r5, r6, pc}
 565              	.LVL66:
 566              	.L41:
 567              		.loc 1 236 0
 568 006c 0124     		movs	r4, #1
 569              	.LBB10:
 570 006e EFE7     		b	.L36
ARM GAS  /tmp/ccTUBOn1.s 			page 11


 571              	.LBE10:
 572              		.cfi_endproc
 573              	.LFE264:
 574              		.size	conf_general_store_app_configuration, .-conf_general_store_app_configuration
 575              		.section	.text.conf_general_read_mc_configuration,"ax",%progbits
 576              		.align	1
 577              		.p2align 4,,15
 578              		.global	conf_general_read_mc_configuration
 579              		.syntax unified
 580              		.thumb
 581              		.thumb_func
 582              		.fpu fpv4-sp-d16
 583              		.type	conf_general_read_mc_configuration, %function
 584              	conf_general_read_mc_configuration:
 585              	.LFB265:
 586              		.loc 1 270 0
 587              		.cfi_startproc
 588              		@ args = 0, pretend = 0, frame = 8
 589              		@ frame_needed = 0, uses_anonymous_args = 0
 590              	.LVL67:
 591 0000 F0B5     		push	{r4, r5, r6, r7, lr}
 592              		.cfi_def_cfa_offset 20
 593              		.cfi_offset 4, -20
 594              		.cfi_offset 5, -16
 595              		.cfi_offset 6, -12
 596              		.cfi_offset 7, -8
 597              		.cfi_offset 14, -4
 598 0002 0746     		mov	r7, r0
 599              	.LVL68:
 600 0004 83B0     		sub	sp, sp, #12
 601              		.cfi_def_cfa_offset 32
 602 0006 451C     		adds	r5, r0, #1
 603              		.loc 1 270 0
 604 0008 4FF47A74 		mov	r4, #1000
 605              	.LBB11:
 606              		.loc 1 275 0
 607 000c 40F2CC46 		movw	r6, #1228
 608 0010 09E0     		b	.L45
 609              	.LVL69:
 610              	.L49:
 611              		.loc 1 277 0
 612 0012 BDF80630 		ldrh	r3, [sp, #6]
 613              		.loc 1 275 0
 614 0016 B442     		cmp	r4, r6
 615              		.loc 1 277 0
 616 0018 4FEA1322 		lsr	r2, r3, #8
 617 001c 05F8012C 		strb	r2, [r5, #-1]
 618              		.loc 1 278 0
 619 0020 05F8023B 		strb	r3, [r5], #2
 620              		.loc 1 275 0
 621 0024 0BD0     		beq	.L43
 622              	.L45:
 623              		.loc 1 276 0
 624 0026 2046     		mov	r0, r4
 625 0028 0DF10601 		add	r1, sp, #6
 626 002c FFF7FEFF 		bl	EE_ReadVariable
 627              	.LVL70:
ARM GAS  /tmp/ccTUBOn1.s 			page 12


 628 0030 0134     		adds	r4, r4, #1
 629 0032 A4B2     		uxth	r4, r4
 630 0034 0028     		cmp	r0, #0
 631 0036 ECD0     		beq	.L49
 632              	.LVL71:
 633              	.LBE11:
 634              		.loc 1 286 0
 635 0038 3846     		mov	r0, r7
 636 003a FFF7FEFF 		bl	confgenerator_set_defaults_mcconf
 637              	.LVL72:
 638              	.L43:
 639              		.loc 1 288 0
 640 003e 03B0     		add	sp, sp, #12
 641              		.cfi_def_cfa_offset 20
 642              		@ sp needed
 643 0040 F0BD     		pop	{r4, r5, r6, r7, pc}
 644              		.cfi_endproc
 645              	.LFE265:
 646              		.size	conf_general_read_mc_configuration, .-conf_general_read_mc_configuration
 647 0042 00BF     		.section	.text.conf_general_store_mc_configuration,"ax",%progbits
 648              		.align	1
 649              		.p2align 4,,15
 650              		.global	conf_general_store_mc_configuration
 651              		.syntax unified
 652              		.thumb
 653              		.thumb_func
 654              		.fpu fpv4-sp-d16
 655              		.type	conf_general_store_mc_configuration, %function
 656              	conf_general_store_mc_configuration:
 657              	.LFB266:
 658              		.loc 1 296 0
 659              		.cfi_startproc
 660              		@ args = 0, pretend = 0, frame = 0
 661              		@ frame_needed = 0, uses_anonymous_args = 0
 662              	.LVL73:
 663 0000 70B5     		push	{r4, r5, r6, lr}
 664              		.cfi_def_cfa_offset 16
 665              		.cfi_offset 4, -16
 666              		.cfi_offset 5, -12
 667              		.cfi_offset 6, -8
 668              		.cfi_offset 14, -4
 669              		.loc 1 296 0
 670 0002 0546     		mov	r5, r0
 671              		.loc 1 297 0
 672 0004 FFF7FEFF 		bl	mc_interface_unlock
 673              	.LVL74:
 674              		.loc 1 298 0
 675 0008 FFF7FEFF 		bl	mc_interface_release_motor
 676              	.LVL75:
 677              		.loc 1 300 0
 678 000c FFF7FEFF 		bl	utils_sys_lock_cnt
 679              	.LVL76:
 680              		.loc 1 301 0
 681 0010 FFF7FEFF 		bl	mc_interface_lock
 682              	.LVL77:
 683              		.loc 1 303 0
 684 0014 FFF7FEFF 		bl	timeout_configure_IWDT_slowest
ARM GAS  /tmp/ccTUBOn1.s 			page 13


 685              	.LVL78:
 686              		.loc 1 308 0
 687 0018 FFF7FEFF 		bl	FLASH_Unlock
 688              	.LVL79:
 689              		.loc 1 309 0
 690 001c F220     		movs	r0, #242
 691 001e FFF7FEFF 		bl	FLASH_ClearFlag
 692              	.LVL80:
 693 0022 0135     		adds	r5, r5, #1
 694              	.LVL81:
 695 0024 4FF47A74 		mov	r4, #1000
 696              	.LBB12:
 697              		.loc 1 312 0
 698 0028 40F2CC46 		movw	r6, #1228
 699 002c 01E0     		b	.L52
 700              	.LVL82:
 701              	.L57:
 702              		.loc 1 312 0 is_stmt 0 discriminator 2
 703 002e B442     		cmp	r4, r6
 704 0030 1CD0     		beq	.L56
 705              	.L52:
 706              	.LBB13:
 707              		.loc 1 313 0 is_stmt 1
 708 0032 15F8011C 		ldrb	r1, [r5, #-1]	@ zero_extendqisi2
 709              	.LVL83:
 710              		.loc 1 314 0
 711 0036 2B78     		ldrb	r3, [r5]	@ zero_extendqisi2
 712              		.loc 1 316 0
 713 0038 2046     		mov	r0, r4
 714 003a 43EA0121 		orr	r1, r3, r1, lsl #8
 715              	.LVL84:
 716 003e FFF7FEFF 		bl	EE_WriteVariable
 717              	.LVL85:
 718 0042 0134     		adds	r4, r4, #1
 719 0044 0928     		cmp	r0, #9
 720 0046 A4B2     		uxth	r4, r4
 721 0048 05F10205 		add	r5, r5, #2
 722 004c EFD0     		beq	.L57
 723              		.loc 1 317 0
 724 004e 0024     		movs	r4, #0
 725              	.L51:
 726              	.LVL86:
 727              	.LBE13:
 728              	.LBE12:
 729              		.loc 1 321 0
 730 0050 FFF7FEFF 		bl	FLASH_Lock
 731              	.LVL87:
 732              		.loc 1 323 0
 733 0054 FFF7FEFF 		bl	timeout_configure_IWDT
 734              	.LVL88:
 735              		.loc 1 325 0
 736 0058 4FF47A70 		mov	r0, #1000
 737 005c FFF7FEFF 		bl	chThdSleep
 738              	.LVL89:
 739              		.loc 1 326 0
 740 0060 FFF7FEFF 		bl	mc_interface_unlock
 741              	.LVL90:
ARM GAS  /tmp/ccTUBOn1.s 			page 14


 742              		.loc 1 327 0
 743 0064 FFF7FEFF 		bl	utils_sys_unlock_cnt
 744              	.LVL91:
 745              		.loc 1 330 0
 746 0068 2046     		mov	r0, r4
 747 006a 70BD     		pop	{r4, r5, r6, pc}
 748              	.LVL92:
 749              	.L56:
 750              		.loc 1 305 0
 751 006c 0124     		movs	r4, #1
 752              	.LBB14:
 753 006e EFE7     		b	.L51
 754              	.LBE14:
 755              		.cfi_endproc
 756              	.LFE266:
 757              		.size	conf_general_store_mc_configuration, .-conf_general_store_mc_configuration
 758              		.section	.text.conf_general_detect_motor_param,"ax",%progbits
 759              		.align	1
 760              		.p2align 4,,15
 761              		.global	conf_general_detect_motor_param
 762              		.syntax unified
 763              		.thumb
 764              		.thumb_func
 765              		.fpu fpv4-sp-d16
 766              		.type	conf_general_detect_motor_param, %function
 767              	conf_general_detect_motor_param:
 768              	.LFB267:
 769              		.loc 1 333 0
 770              		.cfi_startproc
 771              		@ args = 0, pretend = 0, frame = 8
 772              		@ frame_needed = 0, uses_anonymous_args = 0
 773              	.LVL93:
 774 0000 2DE9F04F 		push	{r4, r5, r6, r7, r8, r9, r10, fp, lr}
 775              		.cfi_def_cfa_offset 36
 776              		.cfi_offset 4, -36
 777              		.cfi_offset 5, -32
 778              		.cfi_offset 6, -28
 779              		.cfi_offset 7, -24
 780              		.cfi_offset 8, -20
 781              		.cfi_offset 9, -16
 782              		.cfi_offset 10, -12
 783              		.cfi_offset 11, -8
 784              		.cfi_offset 14, -4
 785 0004 2DED068B 		vpush.64	{d8, d9, d10}
 786              		.cfi_def_cfa_offset 60
 787              		.cfi_offset 80, -60
 788              		.cfi_offset 81, -56
 789              		.cfi_offset 82, -52
 790              		.cfi_offset 83, -48
 791              		.cfi_offset 84, -44
 792              		.cfi_offset 85, -40
 793 0008 83B0     		sub	sp, sp, #12
 794              		.cfi_def_cfa_offset 72
 795              		.loc 1 333 0
 796 000a F0EE609A 		vmov.f32	s19, s1
 797 000e B0EE40AA 		vmov.f32	s20, s0
 798 0012 B0EE419A 		vmov.f32	s18, s2
ARM GAS  /tmp/ccTUBOn1.s 			page 15


 799 0016 0193     		str	r3, [sp, #4]
 800 0018 8A46     		mov	r10, r1
 801 001a 9346     		mov	fp, r2
 802 001c 8046     		mov	r8, r0
 803              		.loc 1 338 0
 804 001e FFF7FEFF 		bl	mc_interface_get_configuration
 805              	.LVL94:
 806 0022 C14E     		ldr	r6, .L119
 807 0024 0146     		mov	r1, r0
 808 0026 4FF4E472 		mov	r2, #456
 809 002a 3046     		mov	r0, r6
 810 002c FFF7FEFF 		bl	memcpy
 811              	.LVL95:
 812              		.loc 1 339 0
 813 0030 3146     		mov	r1, r6
 814 0032 4FF4E472 		mov	r2, #456
 815 0036 BD48     		ldr	r0, .L119+4
 816 0038 FFF7FEFF 		bl	memcpy
 817              	.LVL96:
 818              		.loc 1 346 0
 819 003c BC4B     		ldr	r3, .L119+8
 820              		.loc 1 347 0
 821 003e BD49     		ldr	r1, .L119+12
 822              		.loc 1 348 0
 823 0040 BD4A     		ldr	r2, .L119+16
 824              		.loc 1 346 0
 825 0042 C6F89C30 		str	r3, [r6, #156]	@ float
 826              		.loc 1 344 0
 827 0046 4FF07E50 		mov	r0, #1065353216
 828              		.loc 1 341 0
 829 004a 0023     		movs	r3, #0
 830              		.loc 1 344 0
 831 004c C6F89400 		str	r0, [r6, #148]	@ float
 832              		.loc 1 350 0
 833 0050 3046     		mov	r0, r6
 834              		.loc 1 345 0
 835 0052 C6ED219A 		vstr.32	s19, [r6, #132]
 836              		.loc 1 347 0
 837 0056 C6F89010 		str	r1, [r6, #144]	@ float
 838              		.loc 1 348 0
 839 005a C6F88820 		str	r2, [r6, #136]	@ float
 840              		.loc 1 341 0
 841 005e B370     		strb	r3, [r6, #2]
 842              		.loc 1 342 0
 843 0060 F370     		strb	r3, [r6, #3]
 844              		.loc 1 343 0
 845 0062 7370     		strb	r3, [r6, #1]
 846              		.loc 1 349 0
 847 0064 86F89931 		strb	r3, [r6, #409]
 848              		.loc 1 350 0
 849 0068 4FF4FA74 		mov	r4, #500
 850 006c FFF7FEFF 		bl	mc_interface_set_configuration
 851              	.LVL97:
 852 0070 04E0     		b	.L60
 853              	.LVL98:
 854              	.L108:
 855              	.LBB15:
ARM GAS  /tmp/ccTUBOn1.s 			page 16


 856              		.loc 1 357 0 discriminator 2
 857 0072 6420     		movs	r0, #100
 858 0074 FFF7FEFF 		bl	chThdSleep
 859              	.LVL99:
 860              		.loc 1 353 0 discriminator 2
 861 0078 013C     		subs	r4, r4, #1
 862              	.LVL100:
 863 007a 03D0     		beq	.L59
 864              	.LVL101:
 865              	.L60:
 866              		.loc 1 354 0
 867 007c FFF7FEFF 		bl	mc_interface_get_fault
 868              	.LVL102:
 869 0080 0028     		cmp	r0, #0
 870 0082 F6D1     		bne	.L108
 871              	.LVL103:
 872              	.L59:
 873              	.LBE15:
 874              		.loc 1 362 0
 875 0084 42F21070 		movw	r0, #10000
 876 0088 FFF7FEFF 		bl	chThdSleep
 877              	.LVL104:
 878              		.loc 1 365 0
 879 008c FFF7FEFF 		bl	timeout_get_timeout_msec
 880              	.LVL105:
 881 0090 8146     		mov	r9, r0
 882              	.LVL106:
 883              		.loc 1 366 0
 884 0092 FFF7FEFF 		bl	timeout_get_brake_current
 885              	.LVL107:
 886 0096 F0EE40AA 		vmov.f32	s21, s0
 887              	.LVL108:
 888              		.loc 1 367 0
 889 009a FFF7FEFF 		bl	timeout_reset
 890              	.LVL109:
 891              		.loc 1 368 0
 892 009e 9FEDA70A 		vldr.32	s0, .L119+20
 893 00a2 4EF66020 		movw	r0, #60000
 894 00a6 FFF7FEFF 		bl	timeout_configure
 895              	.LVL110:
 896              		.loc 1 370 0
 897 00aa FFF7FEFF 		bl	mc_interface_lock
 898              	.LVL111:
 899              		.loc 1 372 0
 900 00ae FFF7FEFF 		bl	mc_interface_lock_override_once
 901              	.LVL112:
 902              		.loc 1 373 0
 903 00b2 B0EE4A0A 		vmov.f32	s0, s20
 904 00b6 FFF7FEFF 		bl	mc_interface_set_current
 905              	.LVL113:
 906              	.LBB16:
 907              		.loc 1 377 0
 908 00ba 0027     		movs	r7, #0
 909              	.LBB17:
 910              		.loc 1 408 0
 911 00bc F5EE008A 		vmov.f32	s17, #2.5e-1
 912              	.LVL114:
ARM GAS  /tmp/ccTUBOn1.s 			page 17


 913              	.L73:
 914              		.loc 1 378 0
 915 00c0 012F     		cmp	r7, #1
 916 00c2 00F00881 		beq	.L109
 917              		.loc 1 388 0
 918 00c6 022F     		cmp	r7, #2
 919 00c8 00F02081 		beq	.L110
 920              	.L62:
 921              	.LBE17:
 922              		.loc 1 377 0
 923 00cc 0025     		movs	r5, #0
 924 00ce 2C46     		mov	r4, r5
 925              	.LBB18:
 926              		.loc 1 404 0
 927 00d0 B6EE008A 		vmov.f32	s16, #5.0e-1
 928              	.L63:
 929              	.LVL115:
 930 00d4 FFF7FEFF 		bl	mc_interface_get_duty_cycle_now
 931              	.LVL116:
 932 00d8 B4EEC80A 		vcmpe.f32	s0, s16
 933 00dc F1EE10FA 		vmrs	APSR_nzcv, FPSCR
 934              		.loc 1 405 0
 935 00e0 4FF00A00 		mov	r0, #10
 936              		.loc 1 406 0
 937 00e4 04F10104 		add	r4, r4, #1
 938              	.LVL117:
 939              		.loc 1 404 0
 940 00e8 40F1E980 		bpl	.L111
 941              		.loc 1 405 0
 942 00ec FFF7FEFF 		bl	chThdSleep
 943              	.LVL118:
 944              		.loc 1 408 0
 945 00f0 FFF7FEFF 		bl	mc_interface_get_duty_cycle_now
 946              	.LVL119:
 947 00f4 B4EEE80A 		vcmpe.f32	s0, s17
 948 00f8 F1EE10FA 		vmrs	APSR_nzcv, FPSCR
 949 00fc 0CDB     		blt	.L103
 950              	.LVL120:
 951              		.loc 1 408 0 is_stmt 0 discriminator 1
 952 00fe 002D     		cmp	r5, #0
 953 0100 00F0C180 		beq	.L112
 954              		.loc 1 413 0 is_stmt 1
 955 0104 B4F5FA6F 		cmp	r4, #2000
 956 0108 04DD     		ble	.L87
 957              	.LVL121:
 958              	.L67:
 959              		.loc 1 418 0
 960 010a 41F28833 		movw	r3, #5000
 961 010e 9C42     		cmp	r4, r3
 962 0110 00F0C180 		beq	.L70
 963              	.L87:
 964              	.LBE18:
 965              		.loc 1 377 0
 966 0114 0125     		movs	r5, #1
 967 0116 DDE7     		b	.L63
 968              	.LVL122:
 969              	.L103:
ARM GAS  /tmp/ccTUBOn1.s 			page 18


 970              	.LBB19:
 971              		.loc 1 413 0
 972 0118 B4F5FA6F 		cmp	r4, #2000
 973 011c DADD     		ble	.L63
 974              		.loc 1 413 0 is_stmt 0 discriminator 1
 975 011e 002D     		cmp	r5, #0
 976 0120 F3D1     		bne	.L67
 977              	.LVL123:
 978              	.LBE19:
 979              		.loc 1 377 0 is_stmt 1 discriminator 2
 980 0122 0137     		adds	r7, r7, #1
 981              	.LVL124:
 982 0124 032F     		cmp	r7, #3
 983 0126 CBD1     		bne	.L73
 984              	.LVL125:
 985              	.L118:
 986              	.LBE16:
 987              		.loc 1 429 0
 988 0128 002D     		cmp	r5, #0
 989 012a 00F0B480 		beq	.L70
 990              	.LVL126:
 991              	.L72:
 992              		.loc 1 440 0
 993 012e FFF7FEFF 		bl	mcpwm_reset_hall_detect_table
 994              	.LVL127:
 995              		.loc 1 443 0
 996 0132 FFF7FEFF 		bl	mc_interface_lock_override_once
 997              	.LVL128:
 998              		.loc 1 444 0
 999 0136 B6EE000A 		vmov.f32	s0, #5.0e-1
 1000 013a FFF7FEFF 		bl	mc_interface_set_duty
 1001              	.LVL129:
 1002              		.loc 1 445 0
 1003 013e 4FF47A60 		mov	r0, #4000
 1004 0142 FFF7FEFF 		bl	chThdSleep
 1005              	.LVL130:
 1006              		.loc 1 448 0
 1007 0146 FFF7FEFF 		bl	mc_interface_lock_override_once
 1008              	.LVL131:
 1009              		.loc 1 449 0
 1010 014a 9FED7C0A 		vldr.32	s0, .L119+20
 1011 014e FFF7FEFF 		bl	mc_interface_set_current
 1012              	.LVL132:
 1013              		.loc 1 450 0
 1014 0152 0020     		movs	r0, #0
 1015 0154 FFF7FEFF 		bl	mc_interface_get_tachometer_value
 1016              	.LVL133:
 1017 0158 4FF4FA64 		mov	r4, #2000
 1018 015c 0546     		mov	r5, r0
 1019              	.LVL134:
 1020 015e 04E0     		b	.L76
 1021              	.LVL135:
 1022              	.L114:
 1023              	.LBB24:
 1024              		.loc 1 453 0
 1025 0160 FFF7FEFF 		bl	chThdSleep
 1026              	.LVL136:
ARM GAS  /tmp/ccTUBOn1.s 			page 19


 1027              		.loc 1 451 0
 1028 0164 013C     		subs	r4, r4, #1
 1029              	.LVL137:
 1030 0166 00F0B480 		beq	.L113
 1031              	.LVL138:
 1032              	.L76:
 1033              		.loc 1 452 0
 1034 016a 0020     		movs	r0, #0
 1035 016c FFF7FEFF 		bl	mc_interface_get_tachometer_value
 1036              	.LVL139:
 1037 0170 431B     		subs	r3, r0, r5
 1038 0172 022B     		cmp	r3, #2
 1039              		.loc 1 453 0
 1040 0174 4FF00A00 		mov	r0, #10
 1041              		.loc 1 452 0
 1042 0178 F2DD     		ble	.L114
 1043              		.loc 1 455 0
 1044 017a 0225     		movs	r5, #2
 1045              	.LVL140:
 1046              	.L75:
 1047              	.LBE24:
 1048              		.loc 1 461 0
 1049 017c FFF7FEFF 		bl	mcpwm_read_reset_avg_cycle_integrator
 1050              	.LVL141:
 1051              		.loc 1 462 0
 1052 0180 0020     		movs	r0, #0
 1053 0182 FFF7FEFF 		bl	mc_interface_get_tachometer_value
 1054              	.LVL142:
 1055 0186 40F6B834 		movw	r4, #3000
 1056 018a 0646     		mov	r6, r0
 1057              	.LVL143:
 1058 018c 03E0     		b	.L78
 1059              	.LVL144:
 1060              	.L115:
 1061              	.LBB25:
 1062              		.loc 1 465 0
 1063 018e FFF7FEFF 		bl	chThdSleep
 1064              	.LVL145:
 1065              		.loc 1 463 0
 1066 0192 013C     		subs	r4, r4, #1
 1067              	.LVL146:
 1068 0194 08D0     		beq	.L79
 1069              	.LVL147:
 1070              	.L78:
 1071              		.loc 1 464 0
 1072 0196 0020     		movs	r0, #0
 1073 0198 FFF7FEFF 		bl	mc_interface_get_tachometer_value
 1074              	.LVL148:
 1075 019c 831B     		subs	r3, r0, r6
 1076 019e 312B     		cmp	r3, #49
 1077              		.loc 1 465 0
 1078 01a0 4FF00A00 		mov	r0, #10
 1079              		.loc 1 464 0
 1080 01a4 F3DD     		ble	.L115
 1081              		.loc 1 467 0
 1082 01a6 0135     		adds	r5, r5, #1
 1083              	.LVL149:
ARM GAS  /tmp/ccTUBOn1.s 			page 20


 1084              	.L79:
 1085              	.LBE25:
 1086              		.loc 1 473 0
 1087 01a8 5846     		mov	r0, fp
 1088 01aa FFF7FEFF 		bl	mcpwm_get_hall_detect_result
 1089              	.LVL150:
 1090 01ae 019B     		ldr	r3, [sp, #4]
 1091 01b0 1860     		str	r0, [r3]
 1092              		.loc 1 475 0
 1093 01b2 FFF7FEFF 		bl	mcpwm_read_reset_avg_cycle_integrator
 1094              	.LVL151:
 1095 01b6 41F28834 		movw	r4, #5000
 1096 01ba 88ED000A 		vstr.32	s0, [r8]
 1097              	.LVL152:
 1098 01be 03E0     		b	.L82
 1099              	.LVL153:
 1100              	.L116:
 1101              	.LBB26:
 1102              		.loc 1 480 0
 1103 01c0 FFF7FEFF 		bl	chThdSleep
 1104              	.LVL154:
 1105              		.loc 1 478 0
 1106 01c4 013C     		subs	r4, r4, #1
 1107              	.LVL155:
 1108 01c6 09D0     		beq	.L83
 1109              	.LVL156:
 1110              	.L82:
 1111              		.loc 1 479 0
 1112 01c8 FFF7FEFF 		bl	mc_interface_get_duty_cycle_now
 1113              	.LVL157:
 1114 01cc B4EEC90A 		vcmpe.f32	s0, s18
 1115 01d0 F1EE10FA 		vmrs	APSR_nzcv, FPSCR
 1116              		.loc 1 480 0
 1117 01d4 4FF00A00 		mov	r0, #10
 1118              		.loc 1 479 0
 1119 01d8 F2DC     		bgt	.L116
 1120              		.loc 1 482 0
 1121 01da 0135     		adds	r5, r5, #1
 1122              	.LVL158:
 1123              	.L83:
 1124              	.LBE26:
 1125              		.loc 1 487 0
 1126 01dc FFF7FEFF 		bl	mc_interface_lock_override_once
 1127              	.LVL159:
 1128              		.loc 1 488 0
 1129 01e0 B0EE490A 		vmov.f32	s0, s18
 1130 01e4 FFF7FEFF 		bl	mc_interface_set_duty
 1131              	.LVL160:
 1132              		.loc 1 491 0
 1133 01e8 FFF7FEFF 		bl	mcpwm_read_reset_avg_cycle_integrator
 1134              	.LVL161:
 1135              		.loc 1 492 0
 1136 01ec 0020     		movs	r0, #0
 1137 01ee FFF7FEFF 		bl	mc_interface_get_tachometer_value
 1138              	.LVL162:
 1139              		.loc 1 494 0
 1140 01f2 9FED528A 		vldr.32	s16, .L119+20
ARM GAS  /tmp/ccTUBOn1.s 			page 21


 1141              		.loc 1 492 0
 1142 01f6 0646     		mov	r6, r0
 1143              	.LVL163:
 1144              		.loc 1 493 0
 1145 01f8 F0EE488A 		vmov.f32	s17, s16
 1146              		.loc 1 492 0
 1147 01fc 40F6B834 		movw	r4, #3000
 1148              	.LBB27:
 1149              		.loc 1 498 0
 1150 0200 B7EE009A 		vmov.f32	s18, #1.0e+0
 1151              	.LVL164:
 1152 0204 0AE0     		b	.L85
 1153              	.LVL165:
 1154              	.L117:
 1155              		.loc 1 497 0
 1156 0206 FFF7FEFF 		bl	mc_interface_get_rpm
 1157              	.LVL166:
 1158              		.loc 1 499 0
 1159 020a 0A20     		movs	r0, #10
 1160              		.loc 1 497 0
 1161 020c 78EE808A 		vadd.f32	s17, s17, s0
 1162              	.LVL167:
 1163              		.loc 1 499 0
 1164 0210 FFF7FEFF 		bl	chThdSleep
 1165              	.LVL168:
 1166              		.loc 1 495 0
 1167 0214 013C     		subs	r4, r4, #1
 1168              	.LVL169:
 1169              		.loc 1 498 0
 1170 0216 38EE098A 		vadd.f32	s16, s16, s18
 1171              	.LVL170:
 1172              		.loc 1 495 0
 1173 021a 06D0     		beq	.L86
 1174              	.LVL171:
 1175              	.L85:
 1176              		.loc 1 496 0
 1177 021c 0020     		movs	r0, #0
 1178 021e FFF7FEFF 		bl	mc_interface_get_tachometer_value
 1179              	.LVL172:
 1180 0222 801B     		subs	r0, r0, r6
 1181 0224 6328     		cmp	r0, #99
 1182 0226 EEDD     		ble	.L117
 1183              		.loc 1 501 0
 1184 0228 0135     		adds	r5, r5, #1
 1185              	.LVL173:
 1186              	.L86:
 1187              	.LBE27:
 1188              		.loc 1 506 0
 1189 022a FFF7FEFF 		bl	mcpwm_read_reset_avg_cycle_integrator
 1190              	.LVL174:
 1191 022e B0EE409A 		vmov.f32	s18, s0
 1192              	.LVL175:
 1193              		.loc 1 509 0
 1194 0232 FFF7FEFF 		bl	mc_interface_lock_override_once
 1195              	.LVL176:
 1196              		.loc 1 510 0
 1197 0236 FFF7FEFF 		bl	mc_interface_release_motor
ARM GAS  /tmp/ccTUBOn1.s 			page 22


 1198              	.LVL177:
 1199              		.loc 1 514 0
 1200 023a 414B     		ldr	r3, .L119+24
 1201              		.loc 1 513 0
 1202 023c 98ED000A 		vldr.32	s0, [r8]
 1203              		.loc 1 514 0
 1204 0240 DB8A     		ldrh	r3, [r3, #22]
 1205              		.loc 1 519 0
 1206 0242 3A48     		ldr	r0, .L119+4
 1207              		.loc 1 514 0
 1208 0244 07EE103A 		vmov	s14, r3	@ int
 1209              		.loc 1 513 0
 1210 0248 39EE400A 		vsub.f32	s0, s18, s0
 1211              		.loc 1 514 0
 1212 024c B8EE477A 		vcvt.f32.u32	s14, s14
 1213              		.loc 1 507 0
 1214 0250 C8EE887A 		vdiv.f32	s15, s17, s16
 1215              	.LVL178:
 1216              		.loc 1 514 0
 1217 0254 C0EE076A 		vdiv.f32	s13, s0, s14
 1218              	.LVL179:
 1219              		.loc 1 515 0
 1220 0258 67EEA67A 		vmul.f32	s15, s15, s13
 1221              	.LVL180:
 1222              		.loc 1 516 0
 1223 025c CAED007A 		vstr.32	s15, [r10]
 1224              		.loc 1 519 0
 1225 0260 FFF7FEFF 		bl	mc_interface_set_configuration
 1226              	.LVL181:
 1227              		.loc 1 520 0
 1228 0264 4846     		mov	r0, r9
 1229 0266 B0EE6A0A 		vmov.f32	s0, s21
 1230 026a FFF7FEFF 		bl	timeout_configure
 1231              	.LVL182:
 1232              		.loc 1 522 0
 1233 026e FFF7FEFF 		bl	mc_interface_unlock
 1234              	.LVL183:
 1235              		.loc 1 524 0
 1236 0272 A5F10500 		sub	r0, r5, #5
 1237 0276 B0FA80F0 		clz	r0, r0
 1238 027a 4009     		lsrs	r0, r0, #5
 1239              		.loc 1 525 0
 1240 027c 03B0     		add	sp, sp, #12
 1241              		.cfi_remember_state
 1242              		.cfi_def_cfa_offset 60
 1243              		@ sp needed
 1244 027e BDEC068B 		vldm	sp!, {d8-d10}
 1245              		.cfi_restore 84
 1246              		.cfi_restore 85
 1247              		.cfi_restore 82
 1248              		.cfi_restore 83
 1249              		.cfi_restore 80
 1250              		.cfi_restore 81
 1251              		.cfi_def_cfa_offset 36
 1252              	.LVL184:
 1253 0282 BDE8F08F 		pop	{r4, r5, r6, r7, r8, r9, r10, fp, pc}
 1254              	.LVL185:
ARM GAS  /tmp/ccTUBOn1.s 			page 23


 1255              	.L112:
 1256              		.cfi_restore_state
 1257              	.LBB28:
 1258              	.LBB20:
 1259              		.loc 1 409 0
 1260 0286 0120     		movs	r0, #1
 1261 0288 FFF7FEFF 		bl	mcpwm_switch_comm_mode
 1262              	.LVL186:
 1263              		.loc 1 418 0
 1264 028c 41F28833 		movw	r3, #5000
 1265 0290 9C42     		cmp	r4, r3
 1266 0292 7FF43FAF 		bne	.L87
 1267              	.LVL187:
 1268              	.L70:
 1269              	.LBE20:
 1270              	.LBE28:
 1271              		.loc 1 430 0
 1272 0296 9FED290A 		vldr.32	s0, .L119+20
 1273 029a FFF7FEFF 		bl	mc_interface_set_current
 1274              	.LVL188:
 1275              		.loc 1 431 0
 1276 029e B0EE6A0A 		vmov.f32	s0, s21
 1277 02a2 4846     		mov	r0, r9
 1278 02a4 FFF7FEFF 		bl	timeout_configure
 1279              	.LVL189:
 1280              		.loc 1 432 0
 1281 02a8 2048     		ldr	r0, .L119+4
 1282 02aa FFF7FEFF 		bl	mc_interface_set_configuration
 1283              	.LVL190:
 1284              		.loc 1 433 0
 1285 02ae FFF7FEFF 		bl	mc_interface_unlock
 1286              	.LVL191:
 1287              		.loc 1 434 0
 1288 02b2 0020     		movs	r0, #0
 1289              		.loc 1 525 0
 1290 02b4 03B0     		add	sp, sp, #12
 1291              		.cfi_remember_state
 1292              		.cfi_def_cfa_offset 60
 1293              		@ sp needed
 1294 02b6 BDEC068B 		vldm	sp!, {d8-d10}
 1295              		.cfi_restore 84
 1296              		.cfi_restore 85
 1297              		.cfi_restore 82
 1298              		.cfi_restore 83
 1299              		.cfi_restore 80
 1300              		.cfi_restore 81
 1301              		.cfi_def_cfa_offset 36
 1302              	.LVL192:
 1303 02ba BDE8F08F 		pop	{r4, r5, r6, r7, r8, r9, r10, fp, pc}
 1304              	.LVL193:
 1305              	.L111:
 1306              		.cfi_restore_state
 1307              	.LBB29:
 1308              	.LBB21:
 1309              		.loc 1 424 0
 1310 02be 002D     		cmp	r5, #0
 1311 02c0 7FF435AF 		bne	.L72
ARM GAS  /tmp/ccTUBOn1.s 			page 24


 1312              	.LBE21:
 1313              		.loc 1 377 0
 1314 02c4 0137     		adds	r7, r7, #1
 1315              	.LVL194:
 1316 02c6 032F     		cmp	r7, #3
 1317              	.LBB22:
 1318              		.loc 1 402 0
 1319 02c8 4FF00105 		mov	r5, #1
 1320              	.LVL195:
 1321              	.LBE22:
 1322              		.loc 1 377 0
 1323 02cc 7FF4F8AE 		bne	.L73
 1324 02d0 2AE7     		b	.L118
 1325              	.LVL196:
 1326              	.L113:
 1327              	.LBE29:
 1328              		.loc 1 437 0
 1329 02d2 0125     		movs	r5, #1
 1330              	.LVL197:
 1331              	.LBB30:
 1332 02d4 52E7     		b	.L75
 1333              	.LVL198:
 1334              	.L109:
 1335              	.LBE30:
 1336              	.LBB31:
 1337              	.LBB23:
 1338              		.loc 1 379 0
 1339 02d6 FFF7FEFF 		bl	mc_interface_lock_override_once
 1340              	.LVL199:
 1341              		.loc 1 380 0
 1342 02da FFF7FEFF 		bl	mc_interface_release_motor
 1343              	.LVL200:
 1344              		.loc 1 381 0
 1345 02de 79EEA97A 		vadd.f32	s15, s19, s19
 1346              		.loc 1 382 0
 1347 02e2 184B     		ldr	r3, .L119+28
 1348              		.loc 1 381 0
 1349 02e4 C6ED217A 		vstr.32	s15, [r6, #132]
 1350              		.loc 1 382 0
 1351 02e8 C6F89030 		str	r3, [r6, #144]	@ float
 1352              	.L107:
 1353              		.loc 1 393 0
 1354 02ec FFF7FEFF 		bl	mc_interface_lock_override_once
 1355              	.LVL201:
 1356              		.loc 1 394 0
 1357 02f0 0D48     		ldr	r0, .L119
 1358 02f2 FFF7FEFF 		bl	mc_interface_set_configuration
 1359              	.LVL202:
 1360              		.loc 1 395 0
 1361 02f6 42F21070 		movw	r0, #10000
 1362 02fa FFF7FEFF 		bl	chThdSleep
 1363              	.LVL203:
 1364              		.loc 1 396 0
 1365 02fe FFF7FEFF 		bl	mc_interface_lock_override_once
 1366              	.LVL204:
 1367              		.loc 1 397 0
 1368 0302 B0EE4A0A 		vmov.f32	s0, s20
ARM GAS  /tmp/ccTUBOn1.s 			page 25


 1369 0306 FFF7FEFF 		bl	mc_interface_set_current
 1370              	.LVL205:
 1371 030a DFE6     		b	.L62
 1372              	.L110:
 1373              		.loc 1 389 0
 1374 030c FFF7FEFF 		bl	mc_interface_lock_override_once
 1375              	.LVL206:
 1376              		.loc 1 390 0
 1377 0310 FFF7FEFF 		bl	mc_interface_release_motor
 1378              	.LVL207:
 1379              		.loc 1 391 0
 1380 0314 F1EE007A 		vmov.f32	s15, #4.0e+0
 1381 0318 69EEA77A 		vmul.f32	s15, s19, s15
 1382              		.loc 1 392 0
 1383 031c 0123     		movs	r3, #1
 1384              		.loc 1 391 0
 1385 031e C6ED217A 		vstr.32	s15, [r6, #132]
 1386              		.loc 1 392 0
 1387 0322 7370     		strb	r3, [r6, #1]
 1388 0324 E2E7     		b	.L107
 1389              	.L120:
 1390 0326 00BF     		.align	2
 1391              	.L119:
 1392 0328 00000000 		.word	.LANCHOR1
 1393 032c 00000000 		.word	.LANCHOR2
 1394 0330 00009643 		.word	1133903872
 1395 0334 00004842 		.word	1112014848
 1396 0338 00808944 		.word	1149861888
 1397 033c 00000000 		.word	0
 1398 0340 00000000 		.word	ADC_Value
 1399 0344 0000A041 		.word	1101004800
 1400              	.LBE23:
 1401              	.LBE31:
 1402              		.cfi_endproc
 1403              	.LFE267:
 1404              		.size	conf_general_detect_motor_param, .-conf_general_detect_motor_param
 1405              		.section	.text.conf_general_measure_flux_linkage,"ax",%progbits
 1406              		.align	1
 1407              		.p2align 4,,15
 1408              		.global	conf_general_measure_flux_linkage
 1409              		.syntax unified
 1410              		.thumb
 1411              		.thumb_func
 1412              		.fpu fpv4-sp-d16
 1413              		.type	conf_general_measure_flux_linkage, %function
 1414              	conf_general_measure_flux_linkage:
 1415              	.LFB268:
 1416              		.loc 1 549 0
 1417              		.cfi_startproc
 1418              		@ args = 0, pretend = 0, frame = 0
 1419              		@ frame_needed = 0, uses_anonymous_args = 0
 1420              	.LVL208:
 1421 0000 2DE9F84F 		push	{r3, r4, r5, r6, r7, r8, r9, r10, fp, lr}
 1422              		.cfi_def_cfa_offset 40
 1423              		.cfi_offset 3, -40
 1424              		.cfi_offset 4, -36
 1425              		.cfi_offset 5, -32
ARM GAS  /tmp/ccTUBOn1.s 			page 26


 1426              		.cfi_offset 6, -28
 1427              		.cfi_offset 7, -24
 1428              		.cfi_offset 8, -20
 1429              		.cfi_offset 9, -16
 1430              		.cfi_offset 10, -12
 1431              		.cfi_offset 11, -8
 1432              		.cfi_offset 14, -4
 1433 0004 2DED0A8B 		vpush.64	{d8, d9, d10, d11, d12}
 1434              		.cfi_def_cfa_offset 80
 1435              		.cfi_offset 80, -80
 1436              		.cfi_offset 81, -76
 1437              		.cfi_offset 82, -72
 1438              		.cfi_offset 83, -68
 1439              		.cfi_offset 84, -64
 1440              		.cfi_offset 85, -60
 1441              		.cfi_offset 86, -56
 1442              		.cfi_offset 87, -52
 1443              		.cfi_offset 88, -48
 1444              		.cfi_offset 89, -44
 1445              		.loc 1 549 0
 1446 0008 0746     		mov	r7, r0
 1447 000a B0EE419A 		vmov.f32	s18, s2
 1448 000e F0EE409A 		vmov.f32	s19, s0
 1449 0012 B0EE608A 		vmov.f32	s16, s1
 1450 0016 F0EE61BA 		vmov.f32	s23, s3
 1451              		.loc 1 550 0
 1452 001a FFF7FEFF 		bl	mc_interface_get_configuration
 1453              	.LVL209:
 1454 001e A84E     		ldr	r6, .L164
 1455 0020 0146     		mov	r1, r0
 1456 0022 4FF4E472 		mov	r2, #456
 1457 0026 3046     		mov	r0, r6
 1458 0028 FFF7FEFF 		bl	memcpy
 1459              	.LVL210:
 1460              		.loc 1 551 0
 1461 002c 3146     		mov	r1, r6
 1462 002e 4FF4E472 		mov	r2, #456
 1463 0032 A448     		ldr	r0, .L164+4
 1464 0034 FFF7FEFF 		bl	memcpy
 1465              	.LVL211:
 1466              		.loc 1 558 0
 1467 0038 A348     		ldr	r0, .L164+8
 1468              		.loc 1 559 0
 1469 003a A44B     		ldr	r3, .L164+12
 1470              		.loc 1 560 0
 1471 003c A449     		ldr	r1, .L164+16
 1472              		.loc 1 561 0
 1473 003e A54A     		ldr	r2, .L164+20
 1474              		.loc 1 558 0
 1475 0040 C6F8A001 		str	r0, [r6, #416]	@ float
 1476              		.loc 1 556 0
 1477 0044 4FF07E54 		mov	r4, #1065353216
 1478              		.loc 1 559 0
 1479 0048 C6F89C30 		str	r3, [r6, #156]	@ float
 1480              		.loc 1 562 0
 1481 004c 3046     		mov	r0, r6
 1482              		.loc 1 553 0
ARM GAS  /tmp/ccTUBOn1.s 			page 27


 1483 004e 0023     		movs	r3, #0
 1484              		.loc 1 556 0
 1485 0050 C6F89440 		str	r4, [r6, #148]	@ float
 1486              		.loc 1 557 0
 1487 0054 86ED219A 		vstr.32	s18, [r6, #132]
 1488              		.loc 1 560 0
 1489 0058 C6F89010 		str	r1, [r6, #144]	@ float
 1490              		.loc 1 561 0
 1491 005c C6F88820 		str	r2, [r6, #136]	@ float
 1492              		.loc 1 553 0
 1493 0060 B370     		strb	r3, [r6, #2]
 1494              		.loc 1 554 0
 1495 0062 F370     		strb	r3, [r6, #3]
 1496              		.loc 1 555 0
 1497 0064 7370     		strb	r3, [r6, #1]
 1498              		.loc 1 562 0
 1499 0066 4FF4FA74 		mov	r4, #500
 1500 006a FFF7FEFF 		bl	mc_interface_set_configuration
 1501              	.LVL212:
 1502 006e 04E0     		b	.L123
 1503              	.LVL213:
 1504              	.L156:
 1505              	.LBB32:
 1506              		.loc 1 569 0 discriminator 2
 1507 0070 6420     		movs	r0, #100
 1508 0072 FFF7FEFF 		bl	chThdSleep
 1509              	.LVL214:
 1510              		.loc 1 565 0 discriminator 2
 1511 0076 013C     		subs	r4, r4, #1
 1512              	.LVL215:
 1513 0078 03D0     		beq	.L122
 1514              	.LVL216:
 1515              	.L123:
 1516              		.loc 1 566 0
 1517 007a FFF7FEFF 		bl	mc_interface_get_fault
 1518              	.LVL217:
 1519 007e 0028     		cmp	r0, #0
 1520 0080 F6D1     		bne	.L156
 1521              	.LVL218:
 1522              	.L122:
 1523              	.LBE32:
 1524              		.loc 1 572 0
 1525 0082 FFF7FEFF 		bl	mc_interface_get_fault
 1526              	.LVL219:
 1527 0086 8146     		mov	r9, r0
 1528 0088 0028     		cmp	r0, #0
 1529 008a 40F0E180 		bne	.L157
 1530              		.loc 1 579 0
 1531 008e 42F21070 		movw	r0, #10000
 1532 0092 FFF7FEFF 		bl	chThdSleep
 1533              	.LVL220:
 1534              		.loc 1 582 0
 1535 0096 FFF7FEFF 		bl	timeout_get_timeout_msec
 1536              	.LVL221:
 1537 009a 8046     		mov	r8, r0
 1538              	.LVL222:
 1539              		.loc 1 583 0
ARM GAS  /tmp/ccTUBOn1.s 			page 28


 1540 009c FFF7FEFF 		bl	timeout_get_brake_current
 1541              	.LVL223:
 1542 00a0 B0EE40CA 		vmov.f32	s24, s0
 1543              	.LVL224:
 1544              		.loc 1 584 0
 1545 00a4 FFF7FEFF 		bl	timeout_reset
 1546              	.LVL225:
 1547              		.loc 1 585 0
 1548 00a8 9FED8B0A 		vldr.32	s0, .L164+24
 1549              	.LBB33:
 1550              	.LBB34:
 1551              		.loc 1 598 0
 1552 00ac DFF844B2 		ldr	fp, .L164+52
 1553              	.LBE34:
 1554              	.LBE33:
 1555              		.loc 1 585 0
 1556 00b0 4EF66020 		movw	r0, #60000
 1557 00b4 FFF7FEFF 		bl	timeout_configure
 1558              	.LVL226:
 1559              		.loc 1 587 0
 1560 00b8 FFF7FEFF 		bl	mc_interface_lock
 1561              	.LVL227:
 1562              		.loc 1 589 0
 1563 00bc FFF7FEFF 		bl	mc_interface_lock_override_once
 1564              	.LVL228:
 1565              		.loc 1 590 0
 1566 00c0 B0EE690A 		vmov.f32	s0, s19
 1567 00c4 FFF7FEFF 		bl	mc_interface_set_current
 1568              	.LVL229:
 1569              	.LBB42:
 1570              	.LBB35:
 1571              		.loc 1 618 0
 1572 00c8 4FF0010A 		mov	r10, #1
 1573              	.LVL230:
 1574              	.L139:
 1575              		.loc 1 595 0
 1576 00cc B9F1010F 		cmp	r9, #1
 1577 00d0 00F0EE80 		beq	.L158
 1578              		.loc 1 604 0
 1579 00d4 B9F1020F 		cmp	r9, #2
 1580 00d8 00F0DE80 		beq	.L159
 1581              		.loc 1 614 0
 1582 00dc B9F1030F 		cmp	r9, #3
 1583 00e0 00F0BE80 		beq	.L160
 1584              	.L127:
 1585              	.LBE35:
 1586              		.loc 1 594 0
 1587 00e4 0025     		movs	r5, #0
 1588 00e6 2C46     		mov	r4, r5
 1589              	.LBB36:
 1590              		.loc 1 634 0
 1591 00e8 F6EE008A 		vmov.f32	s17, #5.0e-1
 1592              	.L129:
 1593              	.LVL231:
 1594              		.loc 1 630 0
 1595 00ec FFF7FEFF 		bl	mc_interface_get_duty_cycle_now
 1596              	.LVL232:
ARM GAS  /tmp/ccTUBOn1.s 			page 29


 1597 00f0 B4EEC80A 		vcmpe.f32	s0, s16
 1598 00f4 F1EE10FA 		vmrs	APSR_nzcv, FPSCR
 1599              		.loc 1 631 0
 1600 00f8 4FF00A00 		mov	r0, #10
 1601              		.loc 1 632 0
 1602 00fc 04F10104 		add	r4, r4, #1
 1603              	.LVL233:
 1604              		.loc 1 630 0
 1605 0100 40F19B80 		bpl	.L161
 1606              		.loc 1 631 0
 1607 0104 FFF7FEFF 		bl	chThdSleep
 1608              	.LVL234:
 1609              		.loc 1 634 0
 1610 0108 FFF7FEFF 		bl	mc_interface_get_duty_cycle_now
 1611              	.LVL235:
 1612 010c 68EE287A 		vmul.f32	s15, s16, s17
 1613 0110 B4EEE70A 		vcmpe.f32	s0, s15
 1614 0114 F1EE10FA 		vmrs	APSR_nzcv, FPSCR
 1615 0118 0ADB     		blt	.L153
 1616              	.LVL236:
 1617              		.loc 1 634 0 is_stmt 0 discriminator 1
 1618 011a 002D     		cmp	r5, #0
 1619 011c 73D0     		beq	.L162
 1620              		.loc 1 639 0 is_stmt 1
 1621 011e B4F5FA6F 		cmp	r4, #2000
 1622 0122 03DD     		ble	.L141
 1623              	.LVL237:
 1624              	.L133:
 1625              		.loc 1 644 0
 1626 0124 41F28833 		movw	r3, #5000
 1627 0128 9C42     		cmp	r4, r3
 1628 012a 73D0     		beq	.L136
 1629              	.L141:
 1630              	.LBE36:
 1631              		.loc 1 594 0
 1632 012c 0125     		movs	r5, #1
 1633 012e DDE7     		b	.L129
 1634              	.LVL238:
 1635              	.L153:
 1636              	.LBB37:
 1637              		.loc 1 639 0
 1638 0130 B4F5FA6F 		cmp	r4, #2000
 1639 0134 DADD     		ble	.L129
 1640              		.loc 1 639 0 is_stmt 0 discriminator 1
 1641 0136 002D     		cmp	r5, #0
 1642 0138 F4D1     		bne	.L133
 1643              	.LVL239:
 1644              	.LBE37:
 1645              		.loc 1 594 0 is_stmt 1 discriminator 2
 1646 013a 09F10109 		add	r9, r9, #1
 1647              	.LVL240:
 1648 013e B9F1040F 		cmp	r9, #4
 1649 0142 C3D1     		bne	.L139
 1650              	.LVL241:
 1651              	.L163:
 1652              	.LBE42:
 1653              		.loc 1 655 0
ARM GAS  /tmp/ccTUBOn1.s 			page 30


 1654 0144 002D     		cmp	r5, #0
 1655 0146 65D0     		beq	.L136
 1656              	.LVL242:
 1657              	.L138:
 1658              		.loc 1 663 0
 1659 0148 FFF7FEFF 		bl	mc_interface_lock_override_once
 1660              	.LVL243:
 1661              		.loc 1 664 0
 1662 014c B0EE480A 		vmov.f32	s0, s16
 1663 0150 FFF7FEFF 		bl	mc_interface_set_duty
 1664              	.LVL244:
 1665              		.loc 1 669 0
 1666 0154 9FED608A 		vldr.32	s16, .L164+24
 1667              	.LVL245:
 1668 0158 604E     		ldr	r6, .L164+28
 1669              	.LBB43:
 1670              		.loc 1 671 0
 1671 015a 9FED61BA 		vldr.32	s22, .L164+32
 1672 015e DFED61AA 		vldr.32	s21, .L164+36
 1673              	.LBE43:
 1674              		.loc 1 668 0
 1675 0162 F0EE489A 		vmov.f32	s19, s16
 1676              	.LVL246:
 1677              		.loc 1 667 0
 1678 0166 F0EE488A 		vmov.f32	s17, s16
 1679              		.loc 1 666 0
 1680 016a B0EE489A 		vmov.f32	s18, s16
 1681              	.LVL247:
 1682              		.loc 1 664 0
 1683 016e 4FF4FA65 		mov	r5, #2000
 1684              	.LBB44:
 1685              		.loc 1 674 0
 1686 0172 B7EE00AA 		vmov.f32	s20, #1.0e+0
 1687              	.LVL248:
 1688              	.L140:
 1689              		.loc 1 671 0 discriminator 3
 1690 0176 F38A     		ldrh	r3, [r6, #22]
 1691 0178 9CB2     		uxth	r4, r3
 1692 017a FFF7FEFF 		bl	mc_interface_get_duty_cycle_now
 1693              	.LVL249:
 1694 017e 07EE904A 		vmov	s15, r4	@ int
 1695 0182 F8EE677A 		vcvt.f32.u32	s15, s15
 1696 0186 67EE8B7A 		vmul.f32	s15, s15, s22
 1697 018a 67EEAA7A 		vmul.f32	s15, s15, s21
 1698 018e A7EE809A 		vfma.f32	s18, s15, s0
 1699              	.LVL250:
 1700              		.loc 1 672 0 discriminator 3
 1701 0192 FFF7FEFF 		bl	mc_interface_get_rpm
 1702              	.LVL251:
 1703 0196 78EE808A 		vadd.f32	s17, s17, s0
 1704              	.LVL252:
 1705              		.loc 1 673 0 discriminator 3
 1706 019a FFF7FEFF 		bl	mc_interface_get_tot_current
 1707              	.LVL253:
 1708              		.loc 1 675 0 discriminator 3
 1709 019e 0A20     		movs	r0, #10
 1710              		.loc 1 673 0 discriminator 3
ARM GAS  /tmp/ccTUBOn1.s 			page 31


 1711 01a0 79EE809A 		vadd.f32	s19, s19, s0
 1712              	.LVL254:
 1713              		.loc 1 675 0 discriminator 3
 1714 01a4 FFF7FEFF 		bl	chThdSleep
 1715              	.LVL255:
 1716              		.loc 1 670 0 discriminator 3
 1717 01a8 013D     		subs	r5, r5, #1
 1718              	.LVL256:
 1719              		.loc 1 674 0 discriminator 3
 1720 01aa 38EE0A8A 		vadd.f32	s16, s16, s20
 1721              	.LVL257:
 1722              		.loc 1 670 0 discriminator 3
 1723 01ae E2D1     		bne	.L140
 1724              	.LBE44:
 1725              		.loc 1 678 0
 1726 01b0 B0EE4C0A 		vmov.f32	s0, s24
 1727 01b4 4046     		mov	r0, r8
 1728 01b6 FFF7FEFF 		bl	timeout_configure
 1729              	.LVL258:
 1730              		.loc 1 679 0
 1731 01ba 4248     		ldr	r0, .L164+4
 1732 01bc FFF7FEFF 		bl	mc_interface_set_configuration
 1733              	.LVL259:
 1734              		.loc 1 680 0
 1735 01c0 FFF7FEFF 		bl	mc_interface_unlock
 1736              	.LVL260:
 1737              		.loc 1 681 0
 1738 01c4 9FED440A 		vldr.32	s0, .L164+24
 1739 01c8 FFF7FEFF 		bl	mc_interface_set_current
 1740              	.LVL261:
 1741              		.loc 1 685 0
 1742 01cc C9EE886A 		vdiv.f32	s13, s19, s16
 1743              		.loc 1 690 0
 1744 01d0 0120     		movs	r0, #1
 1745              		.loc 1 683 0
 1746 01d2 C9EE087A 		vdiv.f32	s15, s18, s16
 1747              	.LVL262:
 1748              		.loc 1 684 0
 1749 01d6 88EE887A 		vdiv.f32	s14, s17, s16
 1750              	.LVL263:
 1751              		.loc 1 686 0
 1752 01da 6BEEE6BA 		vnmul.f32	s23, s23, s13
 1753              	.LVL264:
 1754 01de F0EE006A 		vmov.f32	s13, #2.0e+0
 1755 01e2 EBEEA67A 		vfma.f32	s15, s23, s13
 1756              	.LVL265:
 1757              		.loc 1 691 0
 1758 01e6 BDEC0A8B 		vldm	sp!, {d8-d12}
 1759              		.cfi_remember_state
 1760              		.cfi_restore 88
 1761              		.cfi_restore 89
 1762              		.cfi_restore 86
 1763              		.cfi_restore 87
 1764              		.cfi_restore 84
 1765              		.cfi_restore 85
 1766              		.cfi_restore 82
 1767              		.cfi_restore 83
ARM GAS  /tmp/ccTUBOn1.s 			page 32


 1768              		.cfi_restore 80
 1769              		.cfi_restore 81
 1770              		.cfi_def_cfa_offset 40
 1771              	.LVL266:
 1772              		.loc 1 688 0
 1773 01ea DFED3F6A 		vldr.32	s13, .L164+40
 1774 01ee 9FED3F6A 		vldr.32	s12, .L164+44
 1775 01f2 27EE267A 		vmul.f32	s14, s14, s13
 1776              	.LVL267:
 1777 01f6 67EE867A 		vmul.f32	s15, s15, s12
 1778 01fa C7EE876A 		vdiv.f32	s13, s15, s14
 1779 01fe C7ED006A 		vstr.32	s13, [r7]
 1780              		.loc 1 691 0
 1781 0202 BDE8F88F 		pop	{r3, r4, r5, r6, r7, r8, r9, r10, fp, pc}
 1782              	.LVL268:
 1783              	.L162:
 1784              		.cfi_restore_state
 1785              	.LBB45:
 1786              	.LBB38:
 1787              		.loc 1 635 0
 1788 0206 0120     		movs	r0, #1
 1789 0208 FFF7FEFF 		bl	mcpwm_switch_comm_mode
 1790              	.LVL269:
 1791              		.loc 1 644 0
 1792 020c 41F28833 		movw	r3, #5000
 1793 0210 9C42     		cmp	r4, r3
 1794 0212 8BD1     		bne	.L141
 1795              	.LVL270:
 1796              	.L136:
 1797              	.LBE38:
 1798              	.LBE45:
 1799              		.loc 1 656 0
 1800 0214 9FED300A 		vldr.32	s0, .L164+24
 1801 0218 FFF7FEFF 		bl	mc_interface_set_current
 1802              	.LVL271:
 1803              		.loc 1 657 0
 1804 021c B0EE4C0A 		vmov.f32	s0, s24
 1805 0220 4046     		mov	r0, r8
 1806 0222 FFF7FEFF 		bl	timeout_configure
 1807              	.LVL272:
 1808              		.loc 1 658 0
 1809 0226 2748     		ldr	r0, .L164+4
 1810 0228 FFF7FEFF 		bl	mc_interface_set_configuration
 1811              	.LVL273:
 1812              		.loc 1 659 0
 1813 022c FFF7FEFF 		bl	mc_interface_unlock
 1814              	.LVL274:
 1815              		.loc 1 691 0
 1816 0230 BDEC0A8B 		vldm	sp!, {d8-d12}
 1817              		.cfi_remember_state
 1818              		.cfi_restore 88
 1819              		.cfi_restore 89
 1820              		.cfi_restore 86
 1821              		.cfi_restore 87
 1822              		.cfi_restore 84
 1823              		.cfi_restore 85
 1824              		.cfi_restore 82
ARM GAS  /tmp/ccTUBOn1.s 			page 33


 1825              		.cfi_restore 83
 1826              		.cfi_restore 80
 1827              		.cfi_restore 81
 1828              		.cfi_def_cfa_offset 40
 1829              	.LVL275:
 1830              		.loc 1 660 0
 1831 0234 0020     		movs	r0, #0
 1832              		.loc 1 691 0
 1833 0236 BDE8F88F 		pop	{r3, r4, r5, r6, r7, r8, r9, r10, fp, pc}
 1834              	.LVL276:
 1835              	.L161:
 1836              		.cfi_restore_state
 1837              	.LBB46:
 1838              	.LBB39:
 1839              		.loc 1 650 0
 1840 023a 002D     		cmp	r5, #0
 1841 023c 84D1     		bne	.L138
 1842              	.LBE39:
 1843              		.loc 1 594 0
 1844 023e 09F10109 		add	r9, r9, #1
 1845              	.LVL277:
 1846 0242 B9F1040F 		cmp	r9, #4
 1847              	.LBB40:
 1848              		.loc 1 628 0
 1849 0246 4FF00105 		mov	r5, #1
 1850              	.LVL278:
 1851              	.LBE40:
 1852              		.loc 1 594 0
 1853 024a 7FF43FAF 		bne	.L139
 1854 024e 79E7     		b	.L163
 1855              	.LVL279:
 1856              	.L157:
 1857              	.LBE46:
 1858              		.loc 1 573 0
 1859 0250 1C48     		ldr	r0, .L164+4
 1860 0252 FFF7FEFF 		bl	mc_interface_set_configuration
 1861              	.LVL280:
 1862              		.loc 1 691 0
 1863 0256 BDEC0A8B 		vldm	sp!, {d8-d12}
 1864              		.cfi_remember_state
 1865              		.cfi_restore 88
 1866              		.cfi_restore 89
 1867              		.cfi_restore 86
 1868              		.cfi_restore 87
 1869              		.cfi_restore 84
 1870              		.cfi_restore 85
 1871              		.cfi_restore 82
 1872              		.cfi_restore 83
 1873              		.cfi_restore 80
 1874              		.cfi_restore 81
 1875              		.cfi_def_cfa_offset 40
 1876              	.LVL281:
 1877              		.loc 1 574 0
 1878 025a 0020     		movs	r0, #0
 1879              		.loc 1 691 0
 1880 025c BDE8F88F 		pop	{r3, r4, r5, r6, r7, r8, r9, r10, fp, pc}
 1881              	.LVL282:
ARM GAS  /tmp/ccTUBOn1.s 			page 34


 1882              	.L160:
 1883              		.cfi_restore_state
 1884              	.LBB47:
 1885              	.LBB41:
 1886              		.loc 1 615 0
 1887 0260 FFF7FEFF 		bl	mc_interface_lock_override_once
 1888              	.LVL283:
 1889              		.loc 1 616 0
 1890 0264 FFF7FEFF 		bl	mc_interface_release_motor
 1891              	.LVL284:
 1892              		.loc 1 617 0
 1893 0268 F1EE007A 		vmov.f32	s15, #4.0e+0
 1894 026c 69EE277A 		vmul.f32	s15, s18, s15
 1895              		.loc 1 618 0
 1896 0270 86F801A0 		strb	r10, [r6, #1]
 1897              		.loc 1 617 0
 1898 0274 C6ED217A 		vstr.32	s15, [r6, #132]
 1899              	.L155:
 1900              		.loc 1 619 0
 1901 0278 FFF7FEFF 		bl	mc_interface_lock_override_once
 1902              	.LVL285:
 1903              		.loc 1 620 0
 1904 027c 1048     		ldr	r0, .L164
 1905 027e FFF7FEFF 		bl	mc_interface_set_configuration
 1906              	.LVL286:
 1907              		.loc 1 621 0
 1908 0282 42F21070 		movw	r0, #10000
 1909 0286 FFF7FEFF 		bl	chThdSleep
 1910              	.LVL287:
 1911              		.loc 1 622 0
 1912 028a FFF7FEFF 		bl	mc_interface_lock_override_once
 1913              	.LVL288:
 1914              		.loc 1 623 0
 1915 028e B0EE690A 		vmov.f32	s0, s19
 1916 0292 FFF7FEFF 		bl	mc_interface_set_current
 1917              	.LVL289:
 1918 0296 25E7     		b	.L127
 1919              	.L159:
 1920              		.loc 1 605 0
 1921 0298 FFF7FEFF 		bl	mc_interface_lock_override_once
 1922              	.LVL290:
 1923              		.loc 1 606 0
 1924 029c FFF7FEFF 		bl	mc_interface_release_motor
 1925              	.LVL291:
 1926              		.loc 1 607 0
 1927 02a0 79EE097A 		vadd.f32	s15, s18, s18
 1928              		.loc 1 608 0
 1929 02a4 124B     		ldr	r3, .L164+48
 1930              		.loc 1 607 0
 1931 02a6 C6ED217A 		vstr.32	s15, [r6, #132]
 1932              		.loc 1 608 0
 1933 02aa C6F89030 		str	r3, [r6, #144]	@ float
 1934 02ae E3E7     		b	.L155
 1935              	.L158:
 1936              		.loc 1 596 0
 1937 02b0 FFF7FEFF 		bl	mc_interface_lock_override_once
 1938              	.LVL292:
ARM GAS  /tmp/ccTUBOn1.s 			page 35


 1939              		.loc 1 597 0
 1940 02b4 FFF7FEFF 		bl	mc_interface_release_motor
 1941              	.LVL293:
 1942              		.loc 1 598 0
 1943 02b8 C6F890B0 		str	fp, [r6, #144]	@ float
 1944 02bc DCE7     		b	.L155
 1945              	.L165:
 1946 02be 00BF     		.align	2
 1947              	.L164:
 1948 02c0 00000000 		.word	.LANCHOR1
 1949 02c4 00000000 		.word	.LANCHOR2
 1950 02c8 00401C46 		.word	1176256512
 1951 02cc 00009643 		.word	1133903872
 1952 02d0 00004842 		.word	1112014848
 1953 02d4 00808944 		.word	1149861888
 1954 02d8 00000000 		.word	0
 1955 02dc 00000000 		.word	ADC_Value
 1956 02e0 6740533A 		.word	978534503
 1957 02e4 00004943 		.word	1128857600
 1958 02e8 EF1F2E41 		.word	1093541871
 1959 02ec 00007042 		.word	1114636288
 1960 02f0 0000A041 		.word	1101004800
 1961 02f4 00007A43 		.word	1132068864
 1962              	.LBE41:
 1963              	.LBE47:
 1964              		.cfi_endproc
 1965              	.LFE268:
 1966              		.size	conf_general_measure_flux_linkage, .-conf_general_measure_flux_linkage
 1967              		.section	.text.conf_general_calculate_deadtime,"ax",%progbits
 1968              		.align	1
 1969              		.p2align 4,,15
 1970              		.global	conf_general_calculate_deadtime
 1971              		.syntax unified
 1972              		.thumb
 1973              		.thumb_func
 1974              		.fpu fpv4-sp-d16
 1975              		.type	conf_general_calculate_deadtime, %function
 1976              	conf_general_calculate_deadtime:
 1977              	.LFB269:
 1978              		.loc 1 694 0
 1979              		.cfi_startproc
 1980              		@ args = 0, pretend = 0, frame = 8
 1981              		@ frame_needed = 0, uses_anonymous_args = 0
 1982              		@ link register save eliminated.
 1983              	.LVL294:
 1984              		.loc 1 696 0
 1985 0000 DFED387A 		vldr.32	s15, .L191
 1986 0004 DFED386A 		vldr.32	s13, .L191+4
 1987              		.loc 1 698 0
 1988 0008 9FED387A 		vldr.32	s14, .L191+8
 1989              		.loc 1 696 0
 1990 000c C0EEA70A 		vdiv.f32	s1, s1, s15
 1991              	.LVL295:
 1992 0010 B7EE006A 		vmov.f32	s12, #1.0e+0
 1993 0014 C6EE207A 		vdiv.f32	s15, s12, s1
 1994 0018 67EEA67A 		vmul.f32	s15, s15, s13
 1995              	.LVL296:
ARM GAS  /tmp/ccTUBOn1.s 			page 36


 1996              		.loc 1 698 0
 1997 001c 27EE877A 		vmul.f32	s14, s15, s14
 1998 0020 B4EEC07A 		vcmpe.f32	s14, s0
 1999 0024 F1EE10FA 		vmrs	APSR_nzcv, FPSCR
 2000 0028 3CDA     		bge	.L188
 2001              		.loc 1 701 0
 2002 002a 9FED317A 		vldr.32	s14, .L191+12
 2003 002e 27EE877A 		vmul.f32	s14, s15, s14
 2004 0032 B4EEC07A 		vcmpe.f32	s14, s0
 2005 0036 F1EE10FA 		vmrs	APSR_nzcv, FPSCR
 2006 003a 23DA     		bge	.L189
 2007              		.loc 1 705 0
 2008 003c 9FED2D7A 		vldr.32	s14, .L191+16
 2009 0040 27EE877A 		vmul.f32	s14, s15, s14
 2010 0044 B4EEC07A 		vcmpe.f32	s14, s0
 2011 0048 F1EE10FA 		vmrs	APSR_nzcv, FPSCR
 2012 004c 35DA     		bge	.L190
 2013              		.loc 1 709 0
 2014 004e 9FED2A7A 		vldr.32	s14, .L191+20
 2015 0052 27EE877A 		vmul.f32	s14, s15, s14
 2016 0056 B4EEC07A 		vcmpe.f32	s14, s0
 2017 005a F1EE10FA 		vmrs	APSR_nzcv, FPSCR
 2018 005e 3EDB     		blt	.L183
 2019              		.loc 1 710 0
 2020 0060 B3EE007A 		vmov.f32	s14, #1.6e+1
 2021 0064 67EE877A 		vmul.f32	s15, s15, s14
 2022              	.LVL297:
 2023 0068 DFED246A 		vldr.32	s13, .L191+24
 2024              	.LVL298:
 2025 006c 80EE277A 		vdiv.f32	s14, s0, s15
 2026 0070 77EE667A 		vsub.f32	s15, s14, s13
 2027 0074 FCEEE77A 		vcvt.u32.f32	s15, s15
 2028 0078 17EE900A 		vmov	r0, s15	@ int
 2029              	.LVL299:
 2030              		.loc 1 711 0
 2031 007c 60F01F00 		orn	r0, r0, #31
 2032              	.LVL300:
 2033 0080 C0B2     		uxtb	r0, r0
 2034              	.LVL301:
 2035 0082 7047     		bx	lr
 2036              	.LVL302:
 2037              	.L189:
 2038              		.loc 1 702 0
 2039 0084 77EEA77A 		vadd.f32	s15, s15, s15
 2040              	.LVL303:
 2041 0088 DFED1D6A 		vldr.32	s13, .L191+28
 2042              	.LVL304:
 2043 008c 80EE277A 		vdiv.f32	s14, s0, s15
 2044 0090 77EE667A 		vsub.f32	s15, s14, s13
 2045 0094 FCEEE77A 		vcvt.u32.f32	s15, s15
 2046 0098 17EE900A 		vmov	r0, s15	@ int
 2047              	.LVL305:
 2048              		.loc 1 703 0
 2049 009c 60F07F00 		orn	r0, r0, #127
 2050              	.LVL306:
 2051 00a0 C0B2     		uxtb	r0, r0
 2052              	.LVL307:
ARM GAS  /tmp/ccTUBOn1.s 			page 37


 2053 00a2 7047     		bx	lr
 2054              	.LVL308:
 2055              	.L188:
 2056              		.loc 1 699 0
 2057 00a4 80EE277A 		vdiv.f32	s14, s0, s15
 2058              		.loc 1 694 0
 2059 00a8 82B0     		sub	sp, sp, #8
 2060              		.cfi_def_cfa_offset 8
 2061              		.loc 1 699 0
 2062 00aa FCEEC77A 		vcvt.u32.f32	s15, s14
 2063              	.LVL309:
 2064 00ae CDED017A 		vstr.32	s15, [sp, #4]	@ int
 2065 00b2 9DF80400 		ldrb	r0, [sp, #4]	@ zero_extendqisi2
 2066              	.LVL310:
 2067              		.loc 1 723 0
 2068 00b6 02B0     		add	sp, sp, #8
 2069              		.cfi_def_cfa_offset 0
 2070              		@ sp needed
 2071 00b8 7047     		bx	lr
 2072              	.LVL311:
 2073              	.L190:
 2074              		.loc 1 706 0
 2075 00ba B2EE007A 		vmov.f32	s14, #8.0e+0
 2076 00be 67EE877A 		vmul.f32	s15, s15, s14
 2077              	.LVL312:
 2078 00c2 DFED0E6A 		vldr.32	s13, .L191+24
 2079              	.LVL313:
 2080 00c6 80EE277A 		vdiv.f32	s14, s0, s15
 2081 00ca 77EE667A 		vsub.f32	s15, s14, s13
 2082 00ce FCEEE77A 		vcvt.u32.f32	s15, s15
 2083 00d2 17EE900A 		vmov	r0, s15	@ int
 2084              	.LVL314:
 2085              		.loc 1 707 0
 2086 00d6 60F03F00 		orn	r0, r0, #63
 2087              	.LVL315:
 2088 00da C0B2     		uxtb	r0, r0
 2089              	.LVL316:
 2090 00dc 7047     		bx	lr
 2091              	.LVL317:
 2092              	.L183:
 2093              		.loc 1 715 0
 2094 00de FF20     		movs	r0, #255
 2095              	.LVL318:
 2096              		.loc 1 723 0
 2097 00e0 7047     		bx	lr
 2098              	.L192:
 2099 00e2 00BF     		.align	2
 2100              	.L191:
 2101 00e4 00247449 		.word	1232348160
 2102 00e8 00007A44 		.word	1148846080
 2103 00ec 0000FE42 		.word	1123942400
 2104 00f0 00007E43 		.word	1132331008
 2105 00f4 0000FC43 		.word	1140588544
 2106 00f8 00007C44 		.word	1148977152
 2107 00fc 00000042 		.word	1107296256
 2108 0100 00008042 		.word	1115684864
 2109              		.cfi_endproc
ARM GAS  /tmp/ccTUBOn1.s 			page 38


 2110              	.LFE269:
 2111              		.size	conf_general_calculate_deadtime, .-conf_general_calculate_deadtime
 2112              		.section	.text.conf_general_measure_flux_linkage_openloop,"ax",%progbits
 2113              		.align	1
 2114              		.p2align 4,,15
 2115              		.global	conf_general_measure_flux_linkage_openloop
 2116              		.syntax unified
 2117              		.thumb
 2118              		.thumb_func
 2119              		.fpu fpv4-sp-d16
 2120              		.type	conf_general_measure_flux_linkage_openloop, %function
 2121              	conf_general_measure_flux_linkage_openloop:
 2122              	.LFB270:
 2123              		.loc 1 747 0
 2124              		.cfi_startproc
 2125              		@ args = 0, pretend = 0, frame = 0
 2126              		@ frame_needed = 0, uses_anonymous_args = 0
 2127              	.LVL319:
 2128 0000 2DE9F041 		push	{r4, r5, r6, r7, r8, lr}
 2129              		.cfi_def_cfa_offset 24
 2130              		.cfi_offset 4, -24
 2131              		.cfi_offset 5, -20
 2132              		.cfi_offset 6, -16
 2133              		.cfi_offset 7, -12
 2134              		.cfi_offset 8, -8
 2135              		.cfi_offset 14, -4
 2136 0004 2DED0E8B 		vpush.64	{d8, d9, d10, d11, d12, d13, d14}
 2137              		.cfi_def_cfa_offset 80
 2138              		.cfi_offset 80, -80
 2139              		.cfi_offset 81, -76
 2140              		.cfi_offset 82, -72
 2141              		.cfi_offset 83, -68
 2142              		.cfi_offset 84, -64
 2143              		.cfi_offset 85, -60
 2144              		.cfi_offset 86, -56
 2145              		.cfi_offset 87, -52
 2146              		.cfi_offset 88, -48
 2147              		.cfi_offset 89, -44
 2148              		.cfi_offset 90, -40
 2149              		.cfi_offset 91, -36
 2150              		.cfi_offset 92, -32
 2151              		.cfi_offset 93, -28
 2152              		.loc 1 747 0
 2153 0008 0746     		mov	r7, r0
 2154 000a B0EE40AA 		vmov.f32	s20, s0
 2155 000e F0EE609A 		vmov.f32	s19, s1
 2156 0012 F0EE41AA 		vmov.f32	s21, s2
 2157 0016 F0EE61BA 		vmov.f32	s23, s3
 2158              		.loc 1 750 0
 2159 001a FFF7FEFF 		bl	mc_interface_get_configuration
 2160              	.LVL320:
 2161 001e 9E4D     		ldr	r5, .L235
 2162 0020 0146     		mov	r1, r0
 2163 0022 4FF4E472 		mov	r2, #456
 2164 0026 2846     		mov	r0, r5
 2165 0028 FFF7FEFF 		bl	memcpy
 2166              	.LVL321:
ARM GAS  /tmp/ccTUBOn1.s 			page 39


 2167              		.loc 1 751 0
 2168 002c 2946     		mov	r1, r5
 2169 002e 4FF4E472 		mov	r2, #456
 2170 0032 9A48     		ldr	r0, .L235+4
 2171 0034 FFF7FEFF 		bl	memcpy
 2172              	.LVL322:
 2173              		.loc 1 753 0
 2174 0038 0220     		movs	r0, #2
 2175              		.loc 1 755 0
 2176 003a 994A     		ldr	r2, .L235+8
 2177              		.loc 1 753 0
 2178 003c A870     		strb	r0, [r5, #2]
 2179              		.loc 1 754 0
 2180 003e 0021     		movs	r1, #0
 2181              		.loc 1 756 0
 2182 0040 4FF07E53 		mov	r3, #1065353216
 2183              		.loc 1 757 0
 2184 0044 2846     		mov	r0, r5
 2185              		.loc 1 754 0
 2186 0046 85F81411 		strb	r1, [r5, #276]
 2187              		.loc 1 755 0
 2188 004a C5F8AC20 		str	r2, [r5, #172]	@ float
 2189              		.loc 1 756 0
 2190 004e C5F8B030 		str	r3, [r5, #176]	@ float
 2191              		.loc 1 757 0
 2192 0052 4FF4FA74 		mov	r4, #500
 2193 0056 FFF7FEFF 		bl	mc_interface_set_configuration
 2194              	.LVL323:
 2195 005a 04E0     		b	.L195
 2196              	.LVL324:
 2197              	.L227:
 2198              	.LBB48:
 2199              		.loc 1 764 0 discriminator 2
 2200 005c 6420     		movs	r0, #100
 2201 005e FFF7FEFF 		bl	chThdSleep
 2202              	.LVL325:
 2203              		.loc 1 760 0 discriminator 2
 2204 0062 013C     		subs	r4, r4, #1
 2205              	.LVL326:
 2206 0064 03D0     		beq	.L194
 2207              	.LVL327:
 2208              	.L195:
 2209              		.loc 1 761 0
 2210 0066 FFF7FEFF 		bl	mc_interface_get_fault
 2211              	.LVL328:
 2212 006a 0028     		cmp	r0, #0
 2213 006c F6D1     		bne	.L227
 2214              	.LVL329:
 2215              	.L194:
 2216              	.LBE48:
 2217              		.loc 1 767 0
 2218 006e FFF7FEFF 		bl	mc_interface_get_fault
 2219              	.LVL330:
 2220 0072 0028     		cmp	r0, #0
 2221 0074 40F08580 		bne	.L228
 2222              		.loc 1 774 0
 2223 0078 42F21070 		movw	r0, #10000
ARM GAS  /tmp/ccTUBOn1.s 			page 40


 2224 007c FFF7FEFF 		bl	chThdSleep
 2225              	.LVL331:
 2226              		.loc 1 777 0
 2227 0080 FFF7FEFF 		bl	timeout_get_timeout_msec
 2228              	.LVL332:
 2229 0084 8046     		mov	r8, r0
 2230              	.LVL333:
 2231              		.loc 1 778 0
 2232 0086 FFF7FEFF 		bl	timeout_get_brake_current
 2233              	.LVL334:
 2234 008a B0EE40CA 		vmov.f32	s24, s0
 2235              	.LVL335:
 2236              		.loc 1 779 0
 2237 008e FFF7FEFF 		bl	timeout_reset
 2238              	.LVL336:
 2239              		.loc 1 780 0
 2240 0092 9FED840A 		vldr.32	s0, .L235+12
 2241 0096 4EF66020 		movw	r0, #60000
 2242              		.loc 1 791 0
 2243 009a B0EE408A 		vmov.f32	s16, s0
 2244              		.loc 1 780 0
 2245 009e FFF7FEFF 		bl	timeout_configure
 2246              	.LVL337:
 2247              		.loc 1 782 0
 2248 00a2 FFF7FEFF 		bl	mc_interface_lock
 2249              	.LVL338:
 2250              		.loc 1 788 0
 2251 00a6 F0EE480A 		vmov.f32	s1, s16
 2252 00aa B0EE4A0A 		vmov.f32	s0, s20
 2253 00ae FFF7FEFF 		bl	mcpwm_foc_set_openloop
 2254              	.LVL339:
 2255              		.loc 1 790 0
 2256 00b2 F0EE488A 		vmov.f32	s17, s16
 2257              		.loc 1 788 0
 2258 00b6 4FF47A74 		mov	r4, #1000
 2259              	.LBB49:
 2260              		.loc 1 794 0
 2261 00ba B7EE009A 		vmov.f32	s18, #1.0e+0
 2262              	.LVL340:
 2263              	.L198:
 2264              		.loc 1 793 0 discriminator 3
 2265 00be FFF7FEFF 		bl	mc_interface_get_duty_cycle_now
 2266              	.LVL341:
 2267              		.loc 1 795 0 discriminator 3
 2268 00c2 0A20     		movs	r0, #10
 2269              		.loc 1 793 0 discriminator 3
 2270 00c4 B0EEC00A 		vabs.f32	s0, s0
 2271 00c8 78EE808A 		vadd.f32	s17, s17, s0
 2272              	.LVL342:
 2273              		.loc 1 795 0 discriminator 3
 2274 00cc FFF7FEFF 		bl	chThdSleep
 2275              	.LVL343:
 2276              		.loc 1 792 0 discriminator 3
 2277 00d0 013C     		subs	r4, r4, #1
 2278              	.LVL344:
 2279              		.loc 1 794 0 discriminator 3
 2280 00d2 38EE098A 		vadd.f32	s16, s16, s18
ARM GAS  /tmp/ccTUBOn1.s 			page 41


 2281              	.LVL345:
 2282              		.loc 1 792 0 discriminator 3
 2283 00d6 F2D1     		bne	.L198
 2284              	.LBE49:
 2285              		.loc 1 799 0
 2286 00d8 9FED729A 		vldr.32	s18, .L235+12
 2287              	.LBB50:
 2288              		.loc 1 804 0
 2289 00dc DFED72CA 		vldr.32	s25, .L235+16
 2290              		.loc 1 820 0
 2291 00e0 DFED72EA 		vldr.32	s29, .L235+20
 2292              		.loc 1 826 0
 2293 00e4 9FED72EA 		vldr.32	s28, .L235+24
 2294              		.loc 1 832 0
 2295 00e8 9FED72DA 		vldr.32	s26, .L235+28
 2296              	.LBE50:
 2297              		.loc 1 798 0
 2298 00ec C8EE88DA 		vdiv.f32	s27, s17, s16
 2299              	.LVL346:
 2300              	.LBB51:
 2301              		.loc 1 815 0
 2302 00f0 43F69826 		movw	r6, #15000
 2303              	.LBE51:
 2304              		.loc 1 785 0
 2305 00f4 B0EE49BA 		vmov.f32	s22, s18
 2306              		.loc 1 802 0
 2307 00f8 33E0     		b	.L199
 2308              	.LVL347:
 2309              	.L232:
 2310              	.LBB52:
 2311              		.loc 1 803 0 discriminator 1
 2312 00fa F1EE4B0A 		vneg.f32	s1, s22
 2313              	.L200:
 2314              		.loc 1 803 0 is_stmt 0 discriminator 4
 2315 00fe B0EE4A0A 		vmov.f32	s0, s20
 2316 0102 FFF7FEFF 		bl	mcpwm_foc_set_openloop
 2317              	.LVL348:
 2318              		.loc 1 804 0 is_stmt 1 discriminator 4
 2319 0106 CAEEAC7A 		vdiv.f32	s15, s21, s25
 2320              		.loc 1 806 0 discriminator 4
 2321 010a 0A20     		movs	r0, #10
 2322              		.loc 1 807 0 discriminator 4
 2323 010c 0134     		adds	r4, r4, #1
 2324              	.LVL349:
 2325              		.loc 1 804 0 discriminator 4
 2326 010e 3BEE27BA 		vadd.f32	s22, s22, s15
 2327              		.loc 1 806 0 discriminator 4
 2328 0112 FFF7FEFF 		bl	chThdSleep
 2329              	.LVL350:
 2330              		.loc 1 809 0 discriminator 4
 2331 0116 FFF7FEFF 		bl	mc_interface_get_duty_cycle_now
 2332              	.LVL351:
 2333 011a B0EEC00A 		vabs.f32	s0, s0
 2334              	.LVL352:
 2335              		.loc 1 812 0 discriminator 4
 2336 011e B4EE409A 		vcmp.f32	s18, s0
 2337 0122 F1EE10FA 		vmrs	APSR_nzcv, FPSCR
ARM GAS  /tmp/ccTUBOn1.s 			page 42


 2338 0126 48BF     		it	mi
 2339 0128 B0EE409A 		vmovmi.f32	s18, s0
 2340              	.LVL353:
 2341              		.loc 1 815 0 discriminator 4
 2342 012c B442     		cmp	r4, r6
 2343 012e 00F0A580 		beq	.L229
 2344              		.loc 1 820 0
 2345 0132 B4F57A6F 		cmp	r4, #4000
 2346 0136 0FDD     		ble	.L205
 2347              		.loc 1 820 0 is_stmt 0 discriminator 1
 2348 0138 69EE2E7A 		vmul.f32	s15, s18, s29
 2349 013c F4EEC07A 		vcmpe.f32	s15, s0
 2350 0140 F1EE10FA 		vmrs	APSR_nzcv, FPSCR
 2351 0144 00F39180 		bgt	.L230
 2352              		.loc 1 826 0 is_stmt 1 discriminator 1
 2353 0148 6DEE8E7A 		vmul.f32	s15, s27, s28
 2354 014c F4EEE97A 		vcmpe.f32	s15, s19
 2355 0150 F1EE10FA 		vmrs	APSR_nzcv, FPSCR
 2356 0154 00F38180 		bgt	.L231
 2357              	.L205:
 2358              		.loc 1 832 0
 2359 0158 B4EECDBA 		vcmpe.f32	s22, s26
 2360 015c F1EE10FA 		vmrs	APSR_nzcv, FPSCR
 2361 0160 18DA     		bge	.L209
 2362              	.LVL354:
 2363              	.L199:
 2364              	.LBE52:
 2365              		.loc 1 802 0
 2366 0162 FFF7FEFF 		bl	mc_interface_get_duty_cycle_now
 2367              	.LVL355:
 2368 0166 B0EEC00A 		vabs.f32	s0, s0
 2369 016a B4EEE90A 		vcmpe.f32	s0, s19
 2370 016e F1EE10FA 		vmrs	APSR_nzcv, FPSCR
 2371 0172 0FD5     		bpl	.L209
 2372              	.LBB53:
 2373              		.loc 1 803 0
 2374 0174 95F89931 		ldrb	r3, [r5, #409]	@ zero_extendqisi2
 2375 0178 002B     		cmp	r3, #0
 2376 017a BED1     		bne	.L232
 2377 017c F0EE4B0A 		vmov.f32	s1, s22
 2378 0180 BDE7     		b	.L200
 2379              	.LVL356:
 2380              	.L228:
 2381              	.LBE53:
 2382              		.loc 1 768 0
 2383 0182 4648     		ldr	r0, .L235+4
 2384 0184 FFF7FEFF 		bl	mc_interface_set_configuration
 2385              	.LVL357:
 2386              		.loc 1 871 0
 2387 0188 BDEC0E8B 		vldm	sp!, {d8-d14}
 2388              		.cfi_remember_state
 2389              		.cfi_restore 92
 2390              		.cfi_restore 93
 2391              		.cfi_restore 90
 2392              		.cfi_restore 91
 2393              		.cfi_restore 88
 2394              		.cfi_restore 89
ARM GAS  /tmp/ccTUBOn1.s 			page 43


 2395              		.cfi_restore 86
 2396              		.cfi_restore 87
 2397              		.cfi_restore 84
 2398              		.cfi_restore 85
 2399              		.cfi_restore 82
 2400              		.cfi_restore 83
 2401              		.cfi_restore 80
 2402              		.cfi_restore 81
 2403              		.cfi_def_cfa_offset 24
 2404              	.LVL358:
 2405              		.loc 1 769 0
 2406 018c 0024     		movs	r4, #0
 2407              		.loc 1 871 0
 2408 018e 2046     		mov	r0, r4
 2409 0190 BDE8F081 		pop	{r4, r5, r6, r7, r8, pc}
 2410              	.LVL359:
 2411              	.L209:
 2412              		.cfi_restore_state
 2413              		.loc 1 837 0
 2414 0194 42F21070 		movw	r0, #10000
 2415              	.LBB54:
 2416              		.loc 1 844 0
 2417 0198 9FED428A 		vldr.32	s16, .L235+12
 2418              	.LVL360:
 2419              	.LBE54:
 2420              		.loc 1 837 0
 2421 019c FFF7FEFF 		bl	chThdSleep
 2422              	.LVL361:
 2423              	.LBB56:
 2424              		.loc 1 843 0
 2425 01a0 B0EE48AA 		vmov.f32	s20, s16
 2426              	.LVL362:
 2427              		.loc 1 842 0
 2428 01a4 F0EE489A 		vmov.f32	s19, s16
 2429              	.LVL363:
 2430              		.loc 1 841 0
 2431 01a8 B0EE489A 		vmov.f32	s18, s16
 2432              	.LVL364:
 2433              		.loc 1 840 0
 2434 01ac F0EE488A 		vmov.f32	s17, s16
 2435              	.LBE56:
 2436              		.loc 1 837 0
 2437 01b0 4FF47A74 		mov	r4, #1000
 2438              	.LBB57:
 2439              	.LBB55:
 2440              		.loc 1 851 0
 2441 01b4 F7EE00AA 		vmov.f32	s21, #1.0e+0
 2442              	.LVL365:
 2443              	.L211:
 2444              		.loc 1 847 0 discriminator 3
 2445 01b8 FFF7FEFF 		bl	mcpwm_foc_get_vq
 2446              	.LVL366:
 2447 01bc 78EE808A 		vadd.f32	s17, s17, s0
 2448              	.LVL367:
 2449              		.loc 1 848 0 discriminator 3
 2450 01c0 FFF7FEFF 		bl	mcpwm_foc_get_vd
 2451              	.LVL368:
ARM GAS  /tmp/ccTUBOn1.s 			page 44


 2452 01c4 39EE009A 		vadd.f32	s18, s18, s0
 2453              	.LVL369:
 2454              		.loc 1 849 0 discriminator 3
 2455 01c8 FFF7FEFF 		bl	mcpwm_foc_get_iq
 2456              	.LVL370:
 2457 01cc 79EE809A 		vadd.f32	s19, s19, s0
 2458              	.LVL371:
 2459              		.loc 1 850 0 discriminator 3
 2460 01d0 FFF7FEFF 		bl	mcpwm_foc_get_id
 2461              	.LVL372:
 2462              		.loc 1 852 0 discriminator 3
 2463 01d4 0A20     		movs	r0, #10
 2464              		.loc 1 850 0 discriminator 3
 2465 01d6 3AEE00AA 		vadd.f32	s20, s20, s0
 2466              	.LVL373:
 2467              		.loc 1 852 0 discriminator 3
 2468 01da FFF7FEFF 		bl	chThdSleep
 2469              	.LVL374:
 2470              		.loc 1 846 0 discriminator 3
 2471 01de 013C     		subs	r4, r4, #1
 2472              	.LVL375:
 2473              		.loc 1 851 0 discriminator 3
 2474 01e0 38EE2A8A 		vadd.f32	s16, s16, s21
 2475              	.LVL376:
 2476              		.loc 1 846 0 discriminator 3
 2477 01e4 E8D1     		bne	.L211
 2478              	.LBE55:
 2479              		.loc 1 856 0
 2480 01e6 89EE080A 		vdiv.f32	s0, s18, s16
 2481              		.loc 1 855 0
 2482 01ea C8EE887A 		vdiv.f32	s15, s17, s16
 2483              	.LVL377:
 2484              		.loc 1 860 0
 2485 01ee 20EE000A 		vmul.f32	s0, s0, s0
 2486              	.LVL378:
 2487              		.loc 1 857 0
 2488 01f2 89EE889A 		vdiv.f32	s18, s19, s16
 2489              	.LVL379:
 2490              		.loc 1 860 0
 2491 01f6 A7EEA70A 		vfma.f32	s0, s15, s15
 2492              		.loc 1 858 0
 2493 01fa CAEE088A 		vdiv.f32	s17, s20, s16
 2494              	.LVL380:
 2495 01fe B5EE400A 		vcmp.f32	s0, #0
 2496 0202 F1EE10FA 		vmrs	APSR_nzcv, FPSCR
 2497              		.loc 1 860 0
 2498 0206 B1EEC08A 		vsqrt.f32	s16, s0
 2499              	.LVL381:
 2500 020a 42D4     		bmi	.L233
 2501              	.LVL382:
 2502              	.L212:
 2503              		.loc 1 861 0
 2504 020c 28EEA80A 		vmul.f32	s0, s17, s17
 2505 0210 A9EE090A 		vfma.f32	s0, s18, s18
 2506 0214 B5EE400A 		vcmp.f32	s0, #0
 2507 0218 F1EE10FA 		vmrs	APSR_nzcv, FPSCR
 2508 021c F1EEC08A 		vsqrt.f32	s17, s0
ARM GAS  /tmp/ccTUBOn1.s 			page 45


 2509              	.LVL383:
 2510 0220 34D4     		bmi	.L234
 2511              	.L213:
 2512              		.loc 1 863 0
 2513 0222 0124     		movs	r4, #1
 2514              		.loc 1 861 0
 2515 0224 DFED247A 		vldr.32	s15, .L235+32
 2516              		.loc 1 860 0
 2517 0228 A8EEEB8A 		vfms.f32	s16, s17, s23
 2518              		.loc 1 861 0
 2519 022c 2BEE27BA 		vmul.f32	s22, s22, s15
 2520 0230 C8EE0B7A 		vdiv.f32	s15, s16, s22
 2521              		.loc 1 860 0
 2522 0234 C7ED007A 		vstr.32	s15, [r7]
 2523              	.LVL384:
 2524              	.L204:
 2525              	.LBE57:
 2526              		.loc 1 866 0
 2527 0238 B0EE4C0A 		vmov.f32	s0, s24
 2528 023c 4046     		mov	r0, r8
 2529 023e FFF7FEFF 		bl	timeout_configure
 2530              	.LVL385:
 2531              		.loc 1 867 0
 2532 0242 FFF7FEFF 		bl	mc_interface_unlock
 2533              	.LVL386:
 2534              		.loc 1 868 0
 2535 0246 FFF7FEFF 		bl	mc_interface_release_motor
 2536              	.LVL387:
 2537              		.loc 1 869 0
 2538 024a 1448     		ldr	r0, .L235+4
 2539 024c FFF7FEFF 		bl	mc_interface_set_configuration
 2540              	.LVL388:
 2541              		.loc 1 871 0
 2542 0250 BDEC0E8B 		vldm	sp!, {d8-d14}
 2543              		.cfi_remember_state
 2544              		.cfi_restore 92
 2545              		.cfi_restore 93
 2546              		.cfi_restore 90
 2547              		.cfi_restore 91
 2548              		.cfi_restore 88
 2549              		.cfi_restore 89
 2550              		.cfi_restore 86
 2551              		.cfi_restore 87
 2552              		.cfi_restore 84
 2553              		.cfi_restore 85
 2554              		.cfi_restore 82
 2555              		.cfi_restore 83
 2556              		.cfi_restore 80
 2557              		.cfi_restore 81
 2558              		.cfi_def_cfa_offset 24
 2559              	.LVL389:
 2560 0254 2046     		mov	r0, r4
 2561 0256 BDE8F081 		pop	{r4, r5, r6, r7, r8, pc}
 2562              	.LVL390:
 2563              	.L231:
 2564              		.cfi_restore_state
 2565              	.LBB58:
ARM GAS  /tmp/ccTUBOn1.s 			page 46


 2566              		.loc 1 828 0
 2567 025a 184B     		ldr	r3, .L235+36
 2568 025c 3B60     		str	r3, [r7]	@ float
 2569              	.LBE58:
 2570              		.loc 1 837 0
 2571 025e 42F21070 		movw	r0, #10000
 2572 0262 FFF7FEFF 		bl	chThdSleep
 2573              	.LVL391:
 2574              		.loc 1 748 0
 2575 0266 0024     		movs	r4, #0
 2576 0268 E6E7     		b	.L204
 2577              	.LVL392:
 2578              	.L230:
 2579              	.LBB59:
 2580              		.loc 1 822 0
 2581 026a 4FF04043 		mov	r3, #-1073741824
 2582 026e 3B60     		str	r3, [r7]	@ float
 2583              	.LBE59:
 2584              		.loc 1 837 0
 2585 0270 42F21070 		movw	r0, #10000
 2586 0274 FFF7FEFF 		bl	chThdSleep
 2587              	.LVL393:
 2588              		.loc 1 748 0
 2589 0278 0024     		movs	r4, #0
 2590 027a DDE7     		b	.L204
 2591              	.LVL394:
 2592              	.L229:
 2593              	.LBB60:
 2594              		.loc 1 816 0
 2595 027c 104B     		ldr	r3, .L235+40
 2596 027e 3B60     		str	r3, [r7]	@ float
 2597              	.LVL395:
 2598              	.LBE60:
 2599              		.loc 1 837 0
 2600 0280 42F21070 		movw	r0, #10000
 2601 0284 FFF7FEFF 		bl	chThdSleep
 2602              	.LVL396:
 2603              		.loc 1 748 0
 2604 0288 0024     		movs	r4, #0
 2605 028a D5E7     		b	.L204
 2606              	.LVL397:
 2607              	.L234:
 2608              	.LBB61:
 2609              		.loc 1 861 0
 2610 028c FFF7FEFF 		bl	sqrtf
 2611              	.LVL398:
 2612 0290 C7E7     		b	.L213
 2613              	.LVL399:
 2614              	.L233:
 2615              		.loc 1 860 0
 2616 0292 FFF7FEFF 		bl	sqrtf
 2617              	.LVL400:
 2618 0296 B9E7     		b	.L212
 2619              	.L236:
 2620              		.align	2
 2621              	.L235:
 2622 0298 00000000 		.word	.LANCHOR1
ARM GAS  /tmp/ccTUBOn1.s 			page 47


 2623 029c 00000000 		.word	.LANCHOR2
 2624 02a0 6F12033A 		.word	973279855
 2625 02a4 00000000 		.word	0
 2626 02a8 00007A44 		.word	1148846080
 2627 02ac 3333333F 		.word	1060320051
 2628 02b0 CDCC8C3F 		.word	1066192077
 2629 02b4 00409C46 		.word	1184645120
 2630 02b8 5077D63D 		.word	1037465424
 2631 02bc 000040C0 		.word	-1069547520
 2632 02c0 000080BF 		.word	-1082130432
 2633              	.LBE61:
 2634              		.cfi_endproc
 2635              	.LFE270:
 2636              		.size	conf_general_measure_flux_linkage_openloop, .-conf_general_measure_flux_linkage_openloop
 2637              		.section	.text.conf_general_autodetect_apply_sensors_foc,"ax",%progbits
 2638              		.align	1
 2639              		.p2align 4,,15
 2640              		.global	conf_general_autodetect_apply_sensors_foc
 2641              		.syntax unified
 2642              		.thumb
 2643              		.thumb_func
 2644              		.fpu fpv4-sp-d16
 2645              		.type	conf_general_autodetect_apply_sensors_foc, %function
 2646              	conf_general_autodetect_apply_sensors_foc:
 2647              	.LFB271:
 2648              		.loc 1 892 0
 2649              		.cfi_startproc
 2650              		@ args = 0, pretend = 0, frame = 24
 2651              		@ frame_needed = 0, uses_anonymous_args = 0
 2652              	.LVL401:
 2653 0000 2DE9F043 		push	{r4, r5, r6, r7, r8, r9, lr}
 2654              		.cfi_def_cfa_offset 28
 2655              		.cfi_offset 4, -28
 2656              		.cfi_offset 5, -24
 2657              		.cfi_offset 6, -20
 2658              		.cfi_offset 7, -16
 2659              		.cfi_offset 8, -12
 2660              		.cfi_offset 9, -8
 2661              		.cfi_offset 14, -4
 2662 0004 2DED068B 		vpush.64	{d8, d9, d10}
 2663              		.cfi_def_cfa_offset 52
 2664              		.cfi_offset 80, -52
 2665              		.cfi_offset 81, -48
 2666              		.cfi_offset 82, -44
 2667              		.cfi_offset 83, -40
 2668              		.cfi_offset 84, -36
 2669              		.cfi_offset 85, -32
 2670 0008 87B0     		sub	sp, sp, #28
 2671              		.cfi_def_cfa_offset 80
 2672              		.loc 1 892 0
 2673 000a B0EE408A 		vmov.f32	s16, s0
 2674 000e 0E46     		mov	r6, r1
 2675 0010 0546     		mov	r5, r0
 2676              		.loc 1 895 0
 2677 0012 FFF7FEFF 		bl	mc_interface_get_configuration
 2678              	.LVL402:
 2679 0016 DFF82882 		ldr	r8, .L269+12
ARM GAS  /tmp/ccTUBOn1.s 			page 48


 2680 001a 0146     		mov	r1, r0
 2681 001c 4FF4E472 		mov	r2, #456
 2682 0020 4046     		mov	r0, r8
 2683 0022 FFF7FEFF 		bl	memcpy
 2684              	.LVL403:
 2685              		.loc 1 896 0
 2686 0026 4146     		mov	r1, r8
 2687 0028 4FF4E472 		mov	r2, #456
 2688 002c 8148     		ldr	r0, .L269
 2689 002e FFF7FEFF 		bl	memcpy
 2690              	.LVL404:
 2691              		.loc 1 898 0
 2692 0032 0220     		movs	r0, #2
 2693              		.loc 1 900 0
 2694 0034 804A     		ldr	r2, .L269+4
 2695              		.loc 1 898 0
 2696 0036 88F80200 		strb	r0, [r8, #2]
 2697              		.loc 1 899 0
 2698 003a 0021     		movs	r1, #0
 2699              		.loc 1 901 0
 2700 003c 4FF07E53 		mov	r3, #1065353216
 2701              		.loc 1 902 0
 2702 0040 4046     		mov	r0, r8
 2703              		.loc 1 899 0
 2704 0042 88F81411 		strb	r1, [r8, #276]
 2705              		.loc 1 900 0
 2706 0046 C8F8AC20 		str	r2, [r8, #172]	@ float
 2707              		.loc 1 901 0
 2708 004a C8F8B030 		str	r3, [r8, #176]	@ float
 2709              		.loc 1 902 0
 2710 004e 4FF4FA74 		mov	r4, #500
 2711 0052 FFF7FEFF 		bl	mc_interface_set_configuration
 2712              	.LVL405:
 2713 0056 04E0     		b	.L239
 2714              	.LVL406:
 2715              	.L264:
 2716              	.LBB62:
 2717              		.loc 1 909 0 discriminator 2
 2718 0058 6420     		movs	r0, #100
 2719 005a FFF7FEFF 		bl	chThdSleep
 2720              	.LVL407:
 2721              		.loc 1 905 0 discriminator 2
 2722 005e 013C     		subs	r4, r4, #1
 2723              	.LVL408:
 2724 0060 03D0     		beq	.L238
 2725              	.LVL409:
 2726              	.L239:
 2727              		.loc 1 906 0
 2728 0062 FFF7FEFF 		bl	mc_interface_get_fault
 2729              	.LVL410:
 2730 0066 0028     		cmp	r0, #0
 2731 0068 F6D1     		bne	.L264
 2732              	.LVL411:
 2733              	.L238:
 2734              	.LBE62:
 2735              		.loc 1 912 0
 2736 006a FFF7FEFF 		bl	mc_interface_get_fault
ARM GAS  /tmp/ccTUBOn1.s 			page 49


 2737              	.LVL412:
 2738 006e 8146     		mov	r9, r0
 2739 0070 0028     		cmp	r0, #0
 2740 0072 40F0D980 		bne	.L265
 2741              		.loc 1 919 0
 2742 0076 42F21070 		movw	r0, #10000
 2743 007a FFF7FEFF 		bl	chThdSleep
 2744              	.LVL413:
 2745              		.loc 1 922 0
 2746 007e FFF7FEFF 		bl	timeout_get_timeout_msec
 2747              	.LVL414:
 2748 0082 0746     		mov	r7, r0
 2749              	.LVL415:
 2750              		.loc 1 923 0
 2751 0084 FFF7FEFF 		bl	timeout_get_brake_current
 2752              	.LVL416:
 2753 0088 B0EE40AA 		vmov.f32	s20, s0
 2754              	.LVL417:
 2755              		.loc 1 924 0
 2756 008c FFF7FEFF 		bl	timeout_reset
 2757              	.LVL418:
 2758              		.loc 1 925 0
 2759 0090 9FED6A0A 		vldr.32	s0, .L269+8
 2760 0094 4EF66020 		movw	r0, #60000
 2761 0098 FFF7FEFF 		bl	timeout_configure
 2762              	.LVL419:
 2763              		.loc 1 927 0
 2764 009c FFF7FEFF 		bl	mc_interface_lock
 2765              	.LVL420:
 2766              		.loc 1 931 0
 2767 00a0 6748     		ldr	r0, .L269+12
 2768              		.loc 1 930 0
 2769 00a2 88F89891 		strb	r9, [r8, #408]
 2770              		.loc 1 931 0
 2771 00a6 FFF7FEFF 		bl	mc_interface_set_configuration
 2772              	.LVL421:
 2773              		.loc 1 934 0
 2774 00aa B0EE480A 		vmov.f32	s0, s16
 2775 00ae 04A8     		add	r0, sp, #16
 2776 00b0 FFF7FEFF 		bl	mcpwm_foc_hall_detect
 2777              	.LVL422:
 2778 00b4 0446     		mov	r4, r0
 2779              	.LVL423:
 2780              		.loc 1 937 0
 2781 00b6 FFF7FEFF 		bl	timeout_reset
 2782              	.LVL424:
 2783              		.loc 1 938 0
 2784 00ba 9FED600A 		vldr.32	s0, .L269+8
 2785 00be 4EF66020 		movw	r0, #60000
 2786 00c2 FFF7FEFF 		bl	timeout_configure
 2787              	.LVL425:
 2788              		.loc 1 939 0
 2789 00c6 FFF7FEFF 		bl	mc_interface_lock
 2790              	.LVL426:
 2791              		.loc 1 941 0
 2792 00ca 002C     		cmp	r4, #0
 2793 00cc 71D1     		bne	.L266
ARM GAS  /tmp/ccTUBOn1.s 			page 50


 2794              	.LBB63:
 2795              		.loc 1 960 0
 2796 00ce 9FED5B9A 		vldr.32	s18, .L269+8
 2797              		.loc 1 954 0
 2798 00d2 5B48     		ldr	r0, .L269+12
 2799              	.LBB64:
 2800              		.loc 1 963 0
 2801 00d4 DFED5B8A 		vldr.32	s17, .L269+16
 2802 00d8 DFED5B9A 		vldr.32	s19, .L269+20
 2803              	.LBE64:
 2804              		.loc 1 953 0
 2805 00dc 0223     		movs	r3, #2
 2806 00de 88F89831 		strb	r3, [r8, #408]
 2807              		.loc 1 954 0
 2808 00e2 FFF7FEFF 		bl	mc_interface_set_configuration
 2809              	.LVL427:
 2810              		.loc 1 956 0
 2811 00e6 F0EE490A 		vmov.f32	s1, s18
 2812 00ea B0EE480A 		vmov.f32	s0, s16
 2813 00ee FFF7FEFF 		bl	mcpwm_foc_set_openloop_phase
 2814              	.LVL428:
 2815              		.loc 1 957 0
 2816 00f2 42F21070 		movw	r0, #10000
 2817 00f6 FFF7FEFF 		bl	chThdSleep
 2818              	.LVL429:
 2819              		.loc 1 959 0
 2820 00fa FFF7FEFF 		bl	encoder_read_deg
 2821              	.LVL430:
 2822              	.LBB65:
 2823              		.loc 1 963 0
 2824 00fe F0EE490A 		vmov.f32	s1, s18
 2825              	.LBE65:
 2826              		.loc 1 959 0
 2827 0102 F0EE40AA 		vmov.f32	s21, s0
 2828              	.LVL431:
 2829              	.L250:
 2830              	.LBB66:
 2831              		.loc 1 964 0
 2832 0106 B0EE480A 		vmov.f32	s0, s16
 2833 010a FFF7FEFF 		bl	mcpwm_foc_set_openloop_phase
 2834              	.LVL432:
 2835 010e 0134     		adds	r4, r4, #1
 2836              	.LVL433:
 2837              		.loc 1 965 0
 2838 0110 3220     		movs	r0, #50
 2839 0112 FFF7FEFF 		bl	chThdSleep
 2840              	.LVL434:
 2841              		.loc 1 967 0
 2842 0116 5B2C     		cmp	r4, #91
 2843 0118 7BD0     		beq	.L267
 2844              		.loc 1 963 0 discriminator 2
 2845 011a 07EE904A 		vmov	s15, r4	@ int
 2846 011e F8EEE70A 		vcvt.f32.s32	s1, s15
 2847 0122 F4EEE80A 		vcmpe.f32	s1, s17
 2848 0126 F1EE10FA 		vmrs	APSR_nzcv, FPSCR
 2849 012a ECD4     		bmi	.L250
 2850              	.LBE66:
ARM GAS  /tmp/ccTUBOn1.s 			page 51


 2851              		.loc 1 972 0
 2852 012c FFF7FEFF 		bl	encoder_read_deg
 2853              	.LVL435:
 2854 0130 F0EE408A 		vmov.f32	s17, s0
 2855              	.LVL436:
 2856              		.loc 1 973 0
 2857 0134 F0EE400A 		vmov.f32	s1, s0
 2858 0138 B0EE6A0A 		vmov.f32	s0, s21
 2859              	.LVL437:
 2860 013c FFF7FEFF 		bl	utils_angle_difference
 2861              	.LVL438:
 2862              		.loc 1 974 0
 2863 0140 F0EE680A 		vmov.f32	s1, s17
 2864              		.loc 1 973 0
 2865 0144 F0EEC08A 		vabs.f32	s17, s0
 2866              	.LVL439:
 2867              		.loc 1 974 0
 2868 0148 B0EE490A 		vmov.f32	s0, s18
 2869 014c FFF7FEFF 		bl	utils_angle_difference
 2870              	.LVL440:
 2871              		.loc 1 976 0
 2872 0150 F0EE007A 		vmov.f32	s15, #2.0e+0
 2873 0154 F4EEE78A 		vcmpe.f32	s17, s15
 2874 0158 F1EE10FA 		vmrs	APSR_nzcv, FPSCR
 2875 015c 54DD     		ble	.L247
 2876              		.loc 1 976 0 is_stmt 0 discriminator 1
 2877 015e F6EE007A 		vmov.f32	s15, #5.0e-1
 2878              		.loc 1 974 0 is_stmt 1 discriminator 1
 2879 0162 B0EEC00A 		vabs.f32	s0, s0
 2880              	.LVL441:
 2881              		.loc 1 976 0 discriminator 1
 2882 0166 A8EEE70A 		vfms.f32	s0, s17, s15
 2883              	.LVL442:
 2884 016a F5EE007A 		vmov.f32	s15, #2.5e-1
 2885 016e 68EEA78A 		vmul.f32	s17, s17, s15
 2886              	.LVL443:
 2887 0172 B4EEE80A 		vcmpe.f32	s0, s17
 2888 0176 F1EE10FA 		vmrs	APSR_nzcv, FPSCR
 2889 017a 45D5     		bpl	.L247
 2890              	.LBB67:
 2891              		.loc 1 979 0
 2892 017c 0DF10703 		add	r3, sp, #7
 2893 0180 03AA     		add	r2, sp, #12
 2894 0182 02A9     		add	r1, sp, #8
 2895 0184 0020     		movs	r0, #0
 2896 0186 B0EE480A 		vmov.f32	s0, s16
 2897 018a FFF7FEFF 		bl	mcpwm_foc_encoder_detect
 2898              	.LVL444:
 2899              		.loc 1 980 0
 2900 018e 294A     		ldr	r2, .L269
 2901              		.loc 1 982 0
 2902 0190 0298     		ldr	r0, [sp, #8]	@ float
 2903              		.loc 1 983 0
 2904 0192 0399     		ldr	r1, [sp, #12]	@ float
 2905              		.loc 1 984 0
 2906 0194 9DF80730 		ldrb	r3, [sp, #7]	@ zero_extendqisi2
 2907              		.loc 1 982 0
ARM GAS  /tmp/ccTUBOn1.s 			page 52


 2908 0198 C2F8BC00 		str	r0, [r2, #188]	@ float
 2909              		.loc 1 980 0
 2910 019c 0224     		movs	r4, #2
 2911              	.LVL445:
 2912              		.loc 1 981 0
 2913 019e 0120     		movs	r0, #1
 2914 01a0 82F81401 		strb	r0, [r2, #276]
 2915              		.loc 1 983 0
 2916 01a4 C2F8C410 		str	r1, [r2, #196]	@ float
 2917              		.loc 1 984 0
 2918 01a8 82F8C030 		strb	r3, [r2, #192]
 2919              	.LVL446:
 2920              		.loc 1 980 0
 2921 01ac 82F89841 		strb	r4, [r2, #408]
 2922 01b0 12E0     		b	.L244
 2923              	.LVL447:
 2924              	.L266:
 2925              	.LBE67:
 2926              	.LBE63:
 2927              		.loc 1 942 0
 2928 01b2 204A     		ldr	r2, .L269
 2929              		.loc 1 943 0
 2930 01b4 0223     		movs	r3, #2
 2931 01b6 82F81431 		strb	r3, [r2, #276]
 2932              	.LVL448:
 2933              		.loc 1 942 0
 2934 01ba 82F89891 		strb	r9, [r2, #408]
 2935 01be 0DF10F03 		add	r3, sp, #15
 2936 01c2 02F21512 		addw	r2, r2, #277
 2937 01c6 0DF11700 		add	r0, sp, #23
 2938              	.LVL449:
 2939              	.L243:
 2940              	.LBB69:
 2941              		.loc 1 945 0 discriminator 3
 2942 01ca 13F8011F 		ldrb	r1, [r3, #1]!	@ zero_extendqisi2
 2943              	.LVL450:
 2944 01ce 02F8011B 		strb	r1, [r2], #1
 2945              	.LVL451:
 2946              		.loc 1 944 0 discriminator 3
 2947 01d2 8342     		cmp	r3, r0
 2948 01d4 F9D1     		bne	.L243
 2949              	.LBE69:
 2950              		.loc 1 948 0
 2951 01d6 0124     		movs	r4, #1
 2952              	.LVL452:
 2953              	.L244:
 2954              		.loc 1 998 0
 2955 01d8 3846     		mov	r0, r7
 2956 01da B0EE4A0A 		vmov.f32	s0, s20
 2957 01de FFF7FEFF 		bl	timeout_configure
 2958              	.LVL453:
 2959              		.loc 1 999 0
 2960 01e2 FFF7FEFF 		bl	mc_interface_unlock
 2961              	.LVL454:
 2962              		.loc 1 1000 0
 2963 01e6 FFF7FEFF 		bl	mc_interface_release_motor
 2964              	.LVL455:
ARM GAS  /tmp/ccTUBOn1.s 			page 53


 2965              		.loc 1 1001 0
 2966 01ea 1248     		ldr	r0, .L269
 2967 01ec FFF7FEFF 		bl	mc_interface_set_configuration
 2968              	.LVL456:
 2969              		.loc 1 1005 0
 2970 01f0 B5B9     		cbnz	r5, .L268
 2971              	.L252:
 2972              		.loc 1 1009 0
 2973 01f2 1EB1     		cbz	r6, .L237
 2974              		.loc 1 1010 0
 2975 01f4 0F49     		ldr	r1, .L269
 2976 01f6 0E20     		movs	r0, #14
 2977 01f8 FFF7FEFF 		bl	commands_send_mcconf
 2978              	.LVL457:
 2979              	.L237:
 2980              		.loc 1 1015 0
 2981 01fc 2046     		mov	r0, r4
 2982 01fe 07B0     		add	sp, sp, #28
 2983              		.cfi_remember_state
 2984              		.cfi_def_cfa_offset 52
 2985              		@ sp needed
 2986 0200 BDEC068B 		vldm	sp!, {d8-d10}
 2987              		.cfi_restore 84
 2988              		.cfi_restore 85
 2989              		.cfi_restore 82
 2990              		.cfi_restore 83
 2991              		.cfi_restore 80
 2992              		.cfi_restore 81
 2993              		.cfi_def_cfa_offset 28
 2994              	.LVL458:
 2995 0204 BDE8F083 		pop	{r4, r5, r6, r7, r8, r9, pc}
 2996              	.LVL459:
 2997              	.L247:
 2998              		.cfi_restore_state
 2999              		.loc 1 993 0
 3000 0208 0A4A     		ldr	r2, .L269
 3001 020a 0024     		movs	r4, #0
 3002              	.LVL460:
 3003 020c 82F81441 		strb	r4, [r2, #276]
 3004              	.LVL461:
 3005 0210 E2E7     		b	.L244
 3006              	.LVL462:
 3007              	.L267:
 3008              	.LBB70:
 3009              	.LBB68:
 3010              		.loc 1 968 0
 3011 0212 FFF7FEFF 		bl	encoder_read_deg
 3012              	.LVL463:
 3013              		.loc 1 963 0
 3014 0216 F0EE690A 		vmov.f32	s1, s19
 3015              		.loc 1 968 0
 3016 021a B0EE409A 		vmov.f32	s18, s0
 3017              	.LVL464:
 3018 021e 72E7     		b	.L250
 3019              	.LVL465:
 3020              	.L268:
 3021              	.LBE68:
ARM GAS  /tmp/ccTUBOn1.s 			page 54


 3022              	.LBE70:
 3023              		.loc 1 1006 0
 3024 0220 0448     		ldr	r0, .L269
 3025 0222 FFF7FEFF 		bl	conf_general_store_mc_configuration
 3026              	.LVL466:
 3027 0226 E4E7     		b	.L252
 3028              	.LVL467:
 3029              	.L265:
 3030              		.loc 1 913 0
 3031 0228 0248     		ldr	r0, .L269
 3032 022a FFF7FEFF 		bl	mc_interface_set_configuration
 3033              	.LVL468:
 3034              		.loc 1 914 0
 3035 022e 4FF0FF34 		mov	r4, #-1
 3036 0232 E3E7     		b	.L237
 3037              	.L270:
 3038              		.align	2
 3039              	.L269:
 3040 0234 00000000 		.word	.LANCHOR2
 3041 0238 6F12033A 		.word	973279855
 3042 023c 00000000 		.word	0
 3043 0240 00000000 		.word	.LANCHOR1
 3044 0244 00003443 		.word	1127481344
 3045 0248 0000B642 		.word	1119223808
 3046              		.cfi_endproc
 3047              	.LFE271:
 3048              		.size	conf_general_autodetect_apply_sensors_foc, .-conf_general_autodetect_apply_sensors_foc
 3049              		.section	.text.conf_general_detect_apply_all_foc,"ax",%progbits
 3050              		.align	1
 3051              		.p2align 4,,15
 3052              		.global	conf_general_detect_apply_all_foc
 3053              		.syntax unified
 3054              		.thumb
 3055              		.thumb_func
 3056              		.fpu fpv4-sp-d16
 3057              		.type	conf_general_detect_apply_all_foc, %function
 3058              	conf_general_detect_apply_all_foc:
 3059              	.LFB272:
 3060              		.loc 1 1035 0
 3061              		.cfi_startproc
 3062              		@ args = 0, pretend = 0, frame = 16
 3063              		@ frame_needed = 0, uses_anonymous_args = 0
 3064              	.LVL469:
 3065 0000 2DE9F04F 		push	{r4, r5, r6, r7, r8, r9, r10, fp, lr}
 3066              		.cfi_def_cfa_offset 36
 3067              		.cfi_offset 4, -36
 3068              		.cfi_offset 5, -32
 3069              		.cfi_offset 6, -28
 3070              		.cfi_offset 7, -24
 3071              		.cfi_offset 8, -20
 3072              		.cfi_offset 9, -16
 3073              		.cfi_offset 10, -12
 3074              		.cfi_offset 11, -8
 3075              		.cfi_offset 14, -4
 3076 0004 2DED068B 		vpush.64	{d8, d9, d10}
 3077              		.cfi_def_cfa_offset 60
 3078              		.cfi_offset 80, -60
ARM GAS  /tmp/ccTUBOn1.s 			page 55


 3079              		.cfi_offset 81, -56
 3080              		.cfi_offset 82, -52
 3081              		.cfi_offset 83, -48
 3082              		.cfi_offset 84, -44
 3083              		.cfi_offset 85, -40
 3084 0008 85B0     		sub	sp, sp, #20
 3085              		.cfi_def_cfa_offset 80
 3086              		.loc 1 1035 0
 3087 000a B0EE409A 		vmov.f32	s18, s0
 3088 000e 0F46     		mov	r7, r1
 3089 0010 0646     		mov	r6, r0
 3090              		.loc 1 1038 0
 3091 0012 FFF7FEFF 		bl	mc_interface_get_configuration
 3092              	.LVL470:
 3093 0016 C24D     		ldr	r5, .L300
 3094 0018 0146     		mov	r1, r0
 3095 001a 4FF4E472 		mov	r2, #456
 3096 001e 2846     		mov	r0, r5
 3097 0020 FFF7FEFF 		bl	memcpy
 3098              	.LVL471:
 3099              		.loc 1 1039 0
 3100 0024 2946     		mov	r1, r5
 3101 0026 4FF4E472 		mov	r2, #456
 3102 002a BE48     		ldr	r0, .L300+4
 3103 002c FFF7FEFF 		bl	memcpy
 3104              	.LVL472:
 3105              		.loc 1 1043 0
 3106 0030 BD48     		ldr	r0, .L300+8
 3107 0032 C5F8B400 		str	r0, [r5, #180]	@ float
 3108              		.loc 1 1041 0
 3109 0036 0220     		movs	r0, #2
 3110              		.loc 1 1044 0
 3111 0038 BC4B     		ldr	r3, .L300+12
 3112              		.loc 1 1041 0
 3113 003a A870     		strb	r0, [r5, #2]
 3114              		.loc 1 1042 0
 3115 003c 0020     		movs	r0, #0
 3116              		.loc 1 1046 0
 3117 003e BC49     		ldr	r1, .L300+16
 3118              		.loc 1 1047 0
 3119 0040 BC4A     		ldr	r2, .L300+20
 3120              		.loc 1 1042 0
 3121 0042 85F81401 		strb	r0, [r5, #276]
 3122              		.loc 1 1044 0
 3123 0046 C5F8AC30 		str	r3, [r5, #172]	@ float
 3124              		.loc 1 1050 0
 3125 004a BB48     		ldr	r0, .L300+24
 3126              		.loc 1 1051 0
 3127 004c BB4B     		ldr	r3, .L300+28
 3128              		.loc 1 1046 0
 3129 004e 6960     		str	r1, [r5, #4]	@ float
 3130              		.loc 1 1047 0
 3131 0050 AA60     		str	r2, [r5, #8]	@ float
 3132              		.loc 1 1052 0
 3133 0052 BB49     		ldr	r1, .L300+32
 3134              		.loc 1 1053 0
 3135 0054 BB4A     		ldr	r2, .L300+36
ARM GAS  /tmp/ccTUBOn1.s 			page 56


 3136              		.loc 1 1050 0
 3137 0056 E865     		str	r0, [r5, #92]	@ float
 3138              		.loc 1 1051 0
 3139 0058 2B66     		str	r3, [r5, #96]	@ float
 3140              		.loc 1 1054 0
 3141 005a 2846     		mov	r0, r5
 3142              		.loc 1 1045 0
 3143 005c 4FF07E53 		mov	r3, #1065353216
 3144              		.loc 1 1052 0
 3145 0060 E961     		str	r1, [r5, #28]	@ float
 3146              		.loc 1 1053 0
 3147 0062 AA61     		str	r2, [r5, #24]	@ float
 3148              		.loc 1 1045 0
 3149 0064 C5F8B030 		str	r3, [r5, #176]	@ float
 3150              		.loc 1 1048 0
 3151 0068 6B66     		str	r3, [r5, #100]	@ float
 3152              		.loc 1 1049 0
 3153 006a AB66     		str	r3, [r5, #104]	@ float
 3154              		.loc 1 1054 0
 3155 006c 4FF4FA74 		mov	r4, #500
 3156 0070 FFF7FEFF 		bl	mc_interface_set_configuration
 3157              	.LVL473:
 3158 0074 04E0     		b	.L273
 3159              	.LVL474:
 3160              	.L296:
 3161              	.LBB71:
 3162              		.loc 1 1061 0 discriminator 2
 3163 0076 6420     		movs	r0, #100
 3164 0078 FFF7FEFF 		bl	chThdSleep
 3165              	.LVL475:
 3166              		.loc 1 1057 0 discriminator 2
 3167 007c 013C     		subs	r4, r4, #1
 3168              	.LVL476:
 3169 007e 03D0     		beq	.L272
 3170              	.LVL477:
 3171              	.L273:
 3172              		.loc 1 1058 0
 3173 0080 FFF7FEFF 		bl	mc_interface_get_fault
 3174              	.LVL478:
 3175 0084 0028     		cmp	r0, #0
 3176 0086 F6D1     		bne	.L296
 3177              	.LVL479:
 3178              	.L272:
 3179              	.LBE71:
 3180              		.loc 1 1064 0
 3181 0088 FFF7FEFF 		bl	mc_interface_get_fault
 3182              	.LVL480:
 3183 008c 0028     		cmp	r0, #0
 3184 008e 40F03E81 		bne	.L297
 3185              		.loc 1 1071 0
 3186 0092 42F21070 		movw	r0, #10000
 3187 0096 FFF7FEFF 		bl	chThdSleep
 3188              	.LVL481:
 3189              		.loc 1 1074 0
 3190 009a FFF7FEFF 		bl	timeout_get_timeout_msec
 3191              	.LVL482:
 3192 009e 8046     		mov	r8, r0
ARM GAS  /tmp/ccTUBOn1.s 			page 57


 3193              	.LVL483:
 3194              		.loc 1 1075 0
 3195 00a0 FFF7FEFF 		bl	timeout_get_brake_current
 3196              	.LVL484:
 3197 00a4 F0EE40AA 		vmov.f32	s21, s0
 3198              	.LVL485:
 3199              		.loc 1 1076 0
 3200 00a8 FFF7FEFF 		bl	timeout_reset
 3201              	.LVL486:
 3202              		.loc 1 1077 0
 3203 00ac 9FEDA60A 		vldr.32	s0, .L300+40
 3204 00b0 4EF66020 		movw	r0, #60000
 3205 00b4 FFF7FEFF 		bl	timeout_configure
 3206              	.LVL487:
 3207              		.loc 1 1079 0
 3208 00b8 FFF7FEFF 		bl	mc_interface_lock
 3209              	.LVL488:
 3210              		.loc 1 1081 0
 3211 00bc 95ED016A 		vldr.32	s12, [r5, #4]
 3212 00c0 DFEDA26A 		vldr.32	s13, .L300+44
 3213              		.loc 1 1082 0
 3214 00c4 95ED5F0A 		vldr.32	s0, [r5, #380]
 3215 00c8 9FEDA17A 		vldr.32	s14, .L300+48
 3216              		.loc 1 1081 0
 3217 00cc C6EE267A 		vdiv.f32	s15, s12, s13
 3218 00d0 04A8     		add	r0, sp, #16
 3219              		.loc 1 1082 0
 3220 00d2 20EE070A 		vmul.f32	s0, s0, s14
 3221              		.loc 1 1081 0
 3222 00d6 17EE903A 		vmov	r3, s15
 3223 00da 40F80C3D 		str	r3, [r0, #-12]!	@ float
 3224              		.loc 1 1082 0
 3225 00de FFF7FEFF 		bl	utils_truncate_number_abs
 3226              	.LVL489:
 3227              	.LBB72:
 3228              		.loc 1 1085 0
 3229 00e2 9DED018A 		vldr.32	s16, [sp, #4]
 3230              	.LVL490:
 3231 00e6 D5ED017A 		vldr.32	s15, [r5, #4]
 3232 00ea B4EEE78A 		vcmpe.f32	s16, s15
 3233 00ee F1EE10FA 		vmrs	APSR_nzcv, FPSCR
 3234 00f2 38D5     		bpl	.L294
 3235              	.LBB73:
 3236              		.loc 1 1097 0
 3237 00f4 F0EE089A 		vmov.f32	s19, #3.0e+0
 3238              	.LBE73:
 3239              		.loc 1 1085 0
 3240 00f8 B7EE08AA 		vmov.f32	s20, #1.5e+0
 3241 00fc 15E0     		b	.L279
 3242              	.LVL491:
 3243              	.L278:
 3244              	.LBB74:
 3245              		.loc 1 1097 0
 3246 00fe C9EE297A 		vdiv.f32	s15, s18, s19
 3247 0102 28EE087A 		vmul.f32	s14, s16, s16
 3248 0106 27EE280A 		vmul.f32	s0, s14, s17
 3249 010a B4EEE70A 		vcmpe.f32	s0, s15
ARM GAS  /tmp/ccTUBOn1.s 			page 58


 3250 010e F1EE10FA 		vmrs	APSR_nzcv, FPSCR
 3251 0112 2ADA     		bge	.L276
 3252              	.LBE74:
 3253              		.loc 1 1085 0 discriminator 2
 3254 0114 68EE0A7A 		vmul.f32	s15, s16, s20
 3255              	.LVL492:
 3256 0118 95ED017A 		vldr.32	s14, [r5, #4]
 3257 011c B4EEE77A 		vcmpe.f32	s14, s15
 3258 0120 F1EE10FA 		vmrs	APSR_nzcv, FPSCR
 3259 0124 21DD     		ble	.L276
 3260              		.loc 1 1085 0 is_stmt 0
 3261 0126 B0EE678A 		vmov.f32	s16, s15
 3262              	.LVL493:
 3263              	.L279:
 3264              	.LBB75:
 3265              		.loc 1 1086 0 is_stmt 1
 3266 012a 0520     		movs	r0, #5
 3267 012c B0EE480A 		vmov.f32	s0, s16
 3268 0130 FFF7FEFF 		bl	mcpwm_foc_measure_resistance
 3269              	.LVL494:
 3270 0134 F0EE408A 		vmov.f32	s17, s0
 3271              	.LVL495:
 3272              		.loc 1 1089 0
 3273 0138 FFF7FEFF 		bl	mc_interface_get_fault
 3274              	.LVL496:
 3275 013c 0028     		cmp	r0, #0
 3276 013e DED0     		beq	.L278
 3277              		.loc 1 1090 0
 3278 0140 B0EE6A0A 		vmov.f32	s0, s21
 3279 0144 4046     		mov	r0, r8
 3280 0146 FFF7FEFF 		bl	timeout_configure
 3281              	.LVL497:
 3282              		.loc 1 1091 0
 3283 014a FFF7FEFF 		bl	mc_interface_unlock
 3284              	.LVL498:
 3285              		.loc 1 1092 0
 3286 014e FFF7FEFF 		bl	mc_interface_release_motor
 3287              	.LVL499:
 3288              		.loc 1 1093 0
 3289 0152 7448     		ldr	r0, .L300+4
 3290 0154 FFF7FEFF 		bl	mc_interface_set_configuration
 3291              	.LVL500:
 3292              		.loc 1 1094 0
 3293 0158 6FF00A00 		mvn	r0, #10
 3294              	.LBE75:
 3295              	.LBE72:
 3296              		.loc 1 1188 0
 3297 015c 05B0     		add	sp, sp, #20
 3298              		.cfi_remember_state
 3299              		.cfi_def_cfa_offset 60
 3300              		@ sp needed
 3301 015e BDEC068B 		vldm	sp!, {d8-d10}
 3302              		.cfi_restore 84
 3303              		.cfi_restore 85
 3304              		.cfi_restore 82
 3305              		.cfi_restore 83
 3306              		.cfi_restore 80
ARM GAS  /tmp/ccTUBOn1.s 			page 59


 3307              		.cfi_restore 81
 3308              		.cfi_def_cfa_offset 36
 3309              	.LVL501:
 3310 0162 BDE8F08F 		pop	{r4, r5, r6, r7, r8, r9, r10, fp, pc}
 3311              	.LVL502:
 3312              	.L294:
 3313              		.cfi_restore_state
 3314              		.loc 1 1084 0
 3315 0166 9FED788A 		vldr.32	s16, .L300+40
 3316              	.LVL503:
 3317              	.L276:
 3318              		.loc 1 1102 0
 3319 016a 6420     		movs	r0, #100
 3320 016c B0EE480A 		vmov.f32	s0, s16
 3321 0170 FFF7FEFF 		bl	mcpwm_foc_measure_resistance
 3322              	.LVL504:
 3323              		.loc 1 1103 0
 3324 0174 0021     		movs	r1, #0
 3325              		.loc 1 1102 0
 3326 0176 F0EE408A 		vmov.f32	s17, s0
 3327              	.LVL505:
 3328              		.loc 1 1103 0
 3329 017a 6420     		movs	r0, #100
 3330 017c B0EE480A 		vmov.f32	s0, s16
 3331              	.LVL506:
 3332 0180 FFF7FEFF 		bl	mcpwm_foc_measure_inductance_current
 3333              	.LVL507:
 3334 0184 F0EE409A 		vmov.f32	s19, s0
 3335              	.LVL508:
 3336              		.loc 1 1104 0
 3337 0188 89EE280A 		vdiv.f32	s0, s18, s17
 3338              	.LVL509:
 3339 018c B5EE400A 		vcmp.f32	s0, #0
 3340 0190 F1EE10FA 		vmrs	APSR_nzcv, FPSCR
 3341 0194 B1EEC08A 		vsqrt.f32	s16, s0
 3342              	.LVL510:
 3343 0198 00F1BF80 		bmi	.L298
 3344              	.L280:
 3345 019c 04A8     		add	r0, sp, #16
 3346 019e 18EE103A 		vmov	r3, s16
 3347              		.loc 1 1105 0
 3348 01a2 DFED6C0A 		vldr.32	s1, .L300+52
 3349 01a6 9FED6C0A 		vldr.32	s0, .L300+56
 3350              		.loc 1 1104 0
 3351 01aa 40F8083D 		str	r3, [r0, #-8]!	@ float
 3352              		.loc 1 1105 0
 3353 01ae FFF7FEFF 		bl	utils_truncate_number
 3354              	.LVL511:
 3355              		.loc 1 1110 0
 3356 01b2 6A4B     		ldr	r3, .L300+60
 3357              		.loc 1 1111 0
 3358 01b4 5A48     		ldr	r0, .L300
 3359              		.loc 1 1110 0
 3360 01b6 C5F8B430 		str	r3, [r5, #180]	@ float
 3361              		.loc 1 1111 0
 3362 01ba FFF7FEFF 		bl	mc_interface_set_configuration
 3363              	.LVL512:
ARM GAS  /tmp/ccTUBOn1.s 			page 60


 3364              		.loc 1 1114 0
 3365 01be 9DED020A 		vldr.32	s0, [sp, #8]
 3366 01c2 9FED671A 		vldr.32	s2, .L300+64
 3367 01c6 DFED670A 		vldr.32	s1, .L300+68
 3368              		.loc 1 1113 0
 3369 01ca 04A8     		add	r0, sp, #16
 3370 01cc 0023     		movs	r3, #0
 3371              		.loc 1 1114 0
 3372 01ce F0EE047A 		vmov.f32	s15, #2.5e+0
 3373              		.loc 1 1113 0
 3374 01d2 40F8043D 		str	r3, [r0, #-4]!	@ float
 3375              		.loc 1 1114 0
 3376 01d6 80EE270A 		vdiv.f32	s0, s0, s15
 3377 01da F0EE681A 		vmov.f32	s3, s17
 3378 01de FFF7FEFF 		bl	conf_general_measure_flux_linkage_openloop
 3379              	.LVL513:
 3380              		.loc 1 1125 0
 3381 01e2 0028     		cmp	r0, #0
 3382 01e4 5CD0     		beq	.L281
 3383              	.LBB76:
 3384              		.loc 1 1133 0
 3385 01e6 DDED037A 		vldr.32	s15, [sp, #12]
 3386 01ea DFED5F4A 		vldr.32	s9, .L300+72
 3387              	.LBE76:
 3388              		.loc 1 1103 0
 3389 01ee 9FED5F7A 		vldr.32	s14, .L300+76
 3390              	.LBB77:
 3391              		.loc 1 1126 0
 3392 01f2 4C4D     		ldr	r5, .L300+4
 3393              		.loc 1 1140 0
 3394 01f4 9FED5E5A 		vldr.32	s10, .L300+80
 3395              		.loc 1 1131 0
 3396 01f8 9FED5E6A 		vldr.32	s12, .L300+84
 3397              		.loc 1 1126 0
 3398 01fc DDED026A 		vldr.32	s13, [sp, #8]
 3399              		.loc 1 1135 0
 3400 0200 C5ED388A 		vstr.32	s17, [r5, #224]
 3401              	.LVL514:
 3402              		.loc 1 1133 0
 3403 0204 67EEA75A 		vmul.f32	s11, s15, s15
 3404              	.LBE77:
 3405              		.loc 1 1103 0
 3406 0208 69EE879A 		vmul.f32	s19, s19, s14
 3407              	.LVL515:
 3408              	.LBB78:
 3409              		.loc 1 1133 0
 3410 020c 84EEA57A 		vdiv.f32	s14, s9, s11
 3411              	.LBE78:
 3412              		.loc 1 1155 0
 3413 0210 4046     		mov	r0, r8
 3414              	.LVL516:
 3415              		.loc 1 1163 0
 3416 0212 4FF47A74 		mov	r4, #1000
 3417              	.LBB79:
 3418              		.loc 1 1131 0
 3419 0216 69EE865A 		vmul.f32	s11, s19, s12
 3420              		.loc 1 1140 0
ARM GAS  /tmp/ccTUBOn1.s 			page 61


 3421 021a 27EE057A 		vmul.f32	s14, s14, s10
 3422              		.loc 1 1132 0
 3423 021e 68EE868A 		vmul.f32	s17, s17, s12
 3424              	.LVL517:
 3425              	.LBE79:
 3426              		.loc 1 1155 0
 3427 0222 B0EE6A0A 		vmov.f32	s0, s21
 3428              	.LBB80:
 3429              		.loc 1 1127 0
 3430 0226 B1EE666A 		vneg.f32	s12, s13
 3431              		.loc 1 1140 0
 3432 022a 85ED3A7A 		vstr.32	s14, [r5, #232]
 3433              	.LVL518:
 3434              		.loc 1 1137 0
 3435 022e C5ED397A 		vstr.32	s15, [r5, #228]
 3436              	.LVL519:
 3437              		.loc 1 1126 0
 3438 0232 C5ED016A 		vstr.32	s13, [r5, #4]
 3439              		.loc 1 1127 0
 3440 0236 85ED026A 		vstr.32	s12, [r5, #8]
 3441              	.LVL520:
 3442              		.loc 1 1138 0
 3443 023a C5ED2B5A 		vstr.32	s11, [r5, #172]
 3444              	.LVL521:
 3445              		.loc 1 1136 0
 3446 023e C5ED379A 		vstr.32	s19, [r5, #220]
 3447              	.LVL522:
 3448              		.loc 1 1139 0
 3449 0242 C5ED2C8A 		vstr.32	s17, [r5, #176]
 3450              	.LVL523:
 3451              	.LBE80:
 3452              		.loc 1 1155 0
 3453 0246 FFF7FEFF 		bl	timeout_configure
 3454              	.LVL524:
 3455              		.loc 1 1156 0
 3456 024a FFF7FEFF 		bl	mc_interface_unlock
 3457              	.LVL525:
 3458              		.loc 1 1157 0
 3459 024e FFF7FEFF 		bl	mc_interface_release_motor
 3460              	.LVL526:
 3461              		.loc 1 1158 0
 3462 0252 2846     		mov	r0, r5
 3463 0254 FFF7FEFF 		bl	mc_interface_set_configuration
 3464              	.LVL527:
 3465              		.loc 1 1163 0
 3466 0258 2046     		mov	r0, r4
 3467              	.LBB81:
 3468              		.loc 1 1165 0
 3469 025a 9FED478A 		vldr.32	s16, .L300+88
 3470              	.LBE81:
 3471              		.loc 1 1163 0
 3472 025e FFF7FEFF 		bl	chThdSleep
 3473              	.LVL528:
 3474 0262 03E0     		b	.L284
 3475              	.LVL529:
 3476              	.L299:
 3477              	.LBB82:
ARM GAS  /tmp/ccTUBOn1.s 			page 62


 3478              		.loc 1 1166 0 discriminator 2
 3479 0264 FFF7FEFF 		bl	chThdSleep
 3480              	.LVL530:
 3481              		.loc 1 1164 0 discriminator 2
 3482 0268 013C     		subs	r4, r4, #1
 3483              	.LVL531:
 3484 026a 0AD0     		beq	.L282
 3485              	.LVL532:
 3486              	.L284:
 3487              		.loc 1 1165 0
 3488 026c FFF7FEFF 		bl	mc_interface_get_rpm
 3489              	.LVL533:
 3490 0270 B0EEC00A 		vabs.f32	s0, s0
 3491 0274 B4EEC80A 		vcmpe.f32	s0, s16
 3492 0278 F1EE10FA 		vmrs	APSR_nzcv, FPSCR
 3493              		.loc 1 1166 0
 3494 027c 4FF06400 		mov	r0, #100
 3495              		.loc 1 1165 0
 3496 0280 F0DC     		bgt	.L299
 3497              	.LVL534:
 3498              	.L282:
 3499              	.LBE82:
 3500              		.loc 1 1173 0
 3501 0282 9DED020A 		vldr.32	s0, [sp, #8]
 3502 0286 F0EE087A 		vmov.f32	s15, #3.0e+0
 3503 028a 80EE270A 		vdiv.f32	s0, s0, s15
 3504 028e 3946     		mov	r1, r7
 3505 0290 3046     		mov	r0, r6
 3506 0292 FFF7FEFF 		bl	conf_general_autodetect_apply_sensors_foc
 3507              	.LVL535:
 3508              		.loc 1 1188 0
 3509 0296 05B0     		add	sp, sp, #20
 3510              		.cfi_remember_state
 3511              		.cfi_def_cfa_offset 60
 3512              		@ sp needed
 3513 0298 BDEC068B 		vldm	sp!, {d8-d10}
 3514              		.cfi_restore 84
 3515              		.cfi_restore 85
 3516              		.cfi_restore 82
 3517              		.cfi_restore 83
 3518              		.cfi_restore 80
 3519              		.cfi_restore 81
 3520              		.cfi_def_cfa_offset 36
 3521              	.LVL536:
 3522 029c BDE8F08F 		pop	{r4, r5, r6, r7, r8, r9, r10, fp, pc}
 3523              	.LVL537:
 3524              	.L281:
 3525              		.cfi_restore_state
 3526              		.loc 1 1116 0
 3527 02a0 204C     		ldr	r4, .L300+4
 3528              		.loc 1 1155 0
 3529 02a2 B0EE6A0A 		vmov.f32	s0, s21
 3530 02a6 4046     		mov	r0, r8
 3531              	.LVL538:
 3532              		.loc 1 1116 0
 3533 02a8 94ED388A 		vldr.32	s16, [r4, #224]
 3534              		.loc 1 1117 0
ARM GAS  /tmp/ccTUBOn1.s 			page 63


 3535 02ac D4F8DCB0 		ldr	fp, [r4, #220]	@ float
 3536              		.loc 1 1118 0
 3537 02b0 D4F8E4A0 		ldr	r10, [r4, #228]	@ float
 3538              		.loc 1 1119 0
 3539 02b4 D4F8AC90 		ldr	r9, [r4, #172]	@ float
 3540              		.loc 1 1120 0
 3541 02b8 D4F8B080 		ldr	r8, [r4, #176]	@ float
 3542              	.LVL539:
 3543              		.loc 1 1121 0
 3544 02bc D4F8E870 		ldr	r7, [r4, #232]	@ float
 3545              		.loc 1 1122 0
 3546 02c0 94F82C61 		ldrb	r6, [r4, #300]	@ zero_extendqisi2
 3547              		.loc 1 1123 0
 3548 02c4 D4F83051 		ldr	r5, [r4, #304]	@ float
 3549              	.LVL540:
 3550              		.loc 1 1155 0
 3551 02c8 FFF7FEFF 		bl	timeout_configure
 3552              	.LVL541:
 3553              		.loc 1 1156 0
 3554 02cc FFF7FEFF 		bl	mc_interface_unlock
 3555              	.LVL542:
 3556              		.loc 1 1157 0
 3557 02d0 FFF7FEFF 		bl	mc_interface_release_motor
 3558              	.LVL543:
 3559              		.loc 1 1158 0
 3560 02d4 2046     		mov	r0, r4
 3561 02d6 FFF7FEFF 		bl	mc_interface_set_configuration
 3562              	.LVL544:
 3563              		.loc 1 1184 0
 3564 02da 2046     		mov	r0, r4
 3565              		.loc 1 1176 0
 3566 02dc 84ED388A 		vstr.32	s16, [r4, #224]
 3567              		.loc 1 1177 0
 3568 02e0 C4F8DCB0 		str	fp, [r4, #220]	@ float
 3569              		.loc 1 1178 0
 3570 02e4 C4F8E4A0 		str	r10, [r4, #228]	@ float
 3571              		.loc 1 1179 0
 3572 02e8 C4F8AC90 		str	r9, [r4, #172]	@ float
 3573              		.loc 1 1180 0
 3574 02ec C4F8B080 		str	r8, [r4, #176]	@ float
 3575              		.loc 1 1181 0
 3576 02f0 C4F8E870 		str	r7, [r4, #232]	@ float
 3577              		.loc 1 1182 0
 3578 02f4 84F82C61 		strb	r6, [r4, #300]
 3579              		.loc 1 1183 0
 3580 02f8 C4F83051 		str	r5, [r4, #304]	@ float
 3581              		.loc 1 1184 0
 3582 02fc FFF7FEFF 		bl	mc_interface_set_configuration
 3583              	.LVL545:
 3584              		.loc 1 1152 0
 3585 0300 6FF00900 		mvn	r0, #9
 3586              	.LVL546:
 3587              	.L271:
 3588              		.loc 1 1188 0
 3589 0304 05B0     		add	sp, sp, #20
 3590              		.cfi_remember_state
 3591              		.cfi_def_cfa_offset 60
ARM GAS  /tmp/ccTUBOn1.s 			page 64


 3592              		@ sp needed
 3593 0306 BDEC068B 		vldm	sp!, {d8-d10}
 3594              		.cfi_restore 84
 3595              		.cfi_restore 85
 3596              		.cfi_restore 82
 3597              		.cfi_restore 83
 3598              		.cfi_restore 80
 3599              		.cfi_restore 81
 3600              		.cfi_def_cfa_offset 36
 3601              	.LVL547:
 3602 030a BDE8F08F 		pop	{r4, r5, r6, r7, r8, r9, r10, fp, pc}
 3603              	.LVL548:
 3604              	.L297:
 3605              		.cfi_restore_state
 3606              		.loc 1 1065 0
 3607 030e 0548     		ldr	r0, .L300+4
 3608 0310 FFF7FEFF 		bl	mc_interface_set_configuration
 3609              	.LVL549:
 3610              		.loc 1 1066 0
 3611 0314 4FF0FF30 		mov	r0, #-1
 3612 0318 F4E7     		b	.L271
 3613              	.LVL550:
 3614              	.L298:
 3615              		.loc 1 1104 0
 3616 031a FFF7FEFF 		bl	sqrtf
 3617              	.LVL551:
 3618 031e 3DE7     		b	.L280
 3619              	.L301:
 3620              		.align	2
 3621              	.L300:
 3622 0320 00000000 		.word	.LANCHOR1
 3623 0324 00000000 		.word	.LANCHOR2
 3624 0328 00401C46 		.word	1176256512
 3625 032c 6F12033A 		.word	973279855
 3626 0330 00007042 		.word	1114636288
 3627 0334 000070C2 		.word	-1032847360
 3628 0338 001BB749 		.word	1236736768
 3629 033c 001BB7C9 		.word	-910746880
 3630 0340 0050C347 		.word	1203982336
 3631 0344 0050C3C7 		.word	-943501312
 3632 0348 00000000 		.word	0
 3633 034c 00004842 		.word	1112014848
 3634 0350 CDCC8C3F 		.word	1066192077
 3635 0354 0000C843 		.word	1137180672
 3636 0358 0000C8C3 		.word	3284664320
 3637 035c 00409C46 		.word	1184645120
 3638 0360 0000E144 		.word	1155596288
 3639 0364 9A99993E 		.word	1050253722
 3640 0368 6F12833A 		.word	981668463
 3641 036c BD378635 		.word	897988541
 3642 0370 00247449 		.word	1232348160
 3643 0374 FFFF7944 		.word	1148846079
 3644 0378 0000C842 		.word	1120403456
 3645              		.cfi_endproc
 3646              	.LFE272:
 3647              		.size	conf_general_detect_apply_all_foc, .-conf_general_detect_apply_all_foc
 3648              		.section	.text.conf_general_detect_apply_all_foc_can,"ax",%progbits
ARM GAS  /tmp/ccTUBOn1.s 			page 65


 3649              		.align	1
 3650              		.p2align 4,,15
 3651              		.global	conf_general_detect_apply_all_foc_can
 3652              		.syntax unified
 3653              		.thumb
 3654              		.thumb_func
 3655              		.fpu fpv4-sp-d16
 3656              		.type	conf_general_detect_apply_all_foc_can, %function
 3657              	conf_general_detect_apply_all_foc_can:
 3658              	.LFB273:
 3659              		.loc 1 1219 0
 3660              		.cfi_startproc
 3661              		@ args = 0, pretend = 0, frame = 208
 3662              		@ frame_needed = 0, uses_anonymous_args = 0
 3663              	.LVL552:
 3664 0000 2DE9F041 		push	{r4, r5, r6, r7, r8, lr}
 3665              		.cfi_def_cfa_offset 24
 3666              		.cfi_offset 4, -24
 3667              		.cfi_offset 5, -20
 3668              		.cfi_offset 6, -16
 3669              		.cfi_offset 7, -12
 3670              		.cfi_offset 8, -8
 3671              		.cfi_offset 14, -4
 3672 0004 2DED068B 		vpush.64	{d8, d9, d10}
 3673              		.cfi_def_cfa_offset 48
 3674              		.cfi_offset 80, -48
 3675              		.cfi_offset 81, -44
 3676              		.cfi_offset 82, -40
 3677              		.cfi_offset 83, -36
 3678              		.cfi_offset 84, -32
 3679              		.cfi_offset 85, -28
 3680 0008 B4B0     		sub	sp, sp, #208
 3681              		.cfi_def_cfa_offset 256
 3682              		.loc 1 1219 0
 3683 000a B0EE60AA 		vmov.f32	s20, s1
 3684 000e F0EE419A 		vmov.f32	s19, s2
 3685 0012 B0EE619A 		vmov.f32	s18, s3
 3686 0016 F0EE428A 		vmov.f32	s17, s4
 3687 001a B0EE408A 		vmov.f32	s16, s0
 3688 001e 0446     		mov	r4, r0
 3689              		.loc 1 1220 0
 3690 0020 FFF7FEFF 		bl	app_get_configuration
 3691              	.LVL553:
 3692 0024 CC22     		movs	r2, #204
 3693 0026 0146     		mov	r1, r0
 3694 0028 01A8     		add	r0, sp, #4
 3695 002a FFF7FEFF 		bl	memcpy
 3696              	.LVL554:
 3697              		.loc 1 1221 0
 3698 002e 9DF80460 		ldrb	r6, [sp, #4]	@ zero_extendqisi2
 3699              	.LVL555:
 3700              		.loc 1 1223 0
 3701 0032 6D4F     		ldr	r7, .L348
 3702 0034 FFF7FEFF 		bl	mc_interface_get_configuration
 3703              	.LVL556:
 3704 0038 4FF4E472 		mov	r2, #456
 3705 003c 0146     		mov	r1, r0
ARM GAS  /tmp/ccTUBOn1.s 			page 66


 3706 003e 3846     		mov	r0, r7
 3707 0040 FFF7FEFF 		bl	memcpy
 3708              	.LVL557:
 3709              		.loc 1 1225 0
 3710 0044 DFED697A 		vldr.32	s15, .L348+4
 3711              		.loc 1 1249 0
 3712 0048 6748     		ldr	r0, .L348
 3713              		.loc 1 1225 0
 3714 004a B0EECA7A 		vabs.f32	s14, s20
 3715 004e B4EEE77A 		vcmpe.f32	s14, s15
 3716              		.loc 1 1231 0
 3717 0052 DFED667A 		vldr.32	s15, .L348+4
 3718              		.loc 1 1225 0
 3719 0056 F1EE10FA 		vmrs	APSR_nzcv, FPSCR
 3720              		.loc 1 1231 0
 3721 005a B0EEE97A 		vabs.f32	s14, s19
 3722              		.loc 1 1228 0
 3723 005e DCBF     		itt	le
 3724 0060 634B     		ldrle	r3, .L348+8
 3725 0062 3B61     		strle	r3, [r7, #16]	@ float
 3726              		.loc 1 1231 0
 3727 0064 B4EEE77A 		vcmpe.f32	s14, s15
 3728              		.loc 1 1237 0
 3729 0068 DFED607A 		vldr.32	s15, .L348+4
 3730              		.loc 1 1226 0
 3731 006c C8BF     		it	gt
 3732 006e 87ED04AA 		vstrgt.32	s20, [r7, #16]
 3733              		.loc 1 1237 0
 3734 0072 B0EEC97A 		vabs.f32	s14, s18
 3735              		.loc 1 1231 0
 3736 0076 F1EE10FA 		vmrs	APSR_nzcv, FPSCR
 3737              		.loc 1 1234 0
 3738 007a DCBF     		itt	le
 3739 007c 5D4B     		ldrle	r3, .L348+12
 3740 007e FB60     		strle	r3, [r7, #12]	@ float
 3741              		.loc 1 1237 0
 3742 0080 B4EEE77A 		vcmpe.f32	s14, s15
 3743              		.loc 1 1243 0
 3744 0084 DFED597A 		vldr.32	s15, .L348+4
 3745              		.loc 1 1232 0
 3746 0088 C8BF     		it	gt
 3747 008a C7ED039A 		vstrgt.32	s19, [r7, #12]
 3748              		.loc 1 1243 0
 3749 008e B0EEE87A 		vabs.f32	s14, s17
 3750              		.loc 1 1237 0
 3751 0092 F1EE10FA 		vmrs	APSR_nzcv, FPSCR
 3752              		.loc 1 1240 0
 3753 0096 DCBF     		itt	le
 3754 0098 574B     		ldrle	r3, .L348+16
 3755 009a C7F80031 		strle	r3, [r7, #256]	@ float
 3756              		.loc 1 1243 0
 3757 009e B4EEE77A 		vcmpe.f32	s14, s15
 3758              		.loc 1 1238 0
 3759 00a2 C8BF     		it	gt
 3760 00a4 87ED409A 		vstrgt.32	s18, [r7, #256]
 3761              		.loc 1 1243 0
 3762 00a8 F1EE10FA 		vmrs	APSR_nzcv, FPSCR
ARM GAS  /tmp/ccTUBOn1.s 			page 67


 3763              		.loc 1 1246 0
 3764 00ac D6BF     		itet	le
 3765 00ae 534B     		ldrle	r3, .L348+20
 3766              		.loc 1 1244 0
 3767 00b0 C7ED488A 		vstrgt.32	s17, [r7, #288]
 3768              		.loc 1 1246 0
 3769 00b4 C7F82031 		strle	r3, [r7, #288]	@ float
 3770              		.loc 1 1249 0
 3771 00b8 FFF7FEFF 		bl	mc_interface_set_configuration
 3772              	.LVL558:
 3773              		.loc 1 1251 0
 3774 00bc FFF7FEFF 		bl	comm_can_detect_all_foc_res_clear
 3775              	.LVL559:
 3776              		.loc 1 1253 0
 3777 00c0 002C     		cmp	r4, #0
 3778 00c2 00F08780 		beq	.L327
 3779              	.LBB83:
 3780              		.loc 1 1254 0
 3781 00c6 0024     		movs	r4, #0
 3782              	.LBE83:
 3783              		.loc 1 1250 0
 3784 00c8 A046     		mov	r8, r4
 3785 00ca 02E0     		b	.L318
 3786              	.LVL560:
 3787              	.L316:
 3788              	.LBB84:
 3789              		.loc 1 1254 0 discriminator 2
 3790 00cc 0134     		adds	r4, r4, #1
 3791              	.LVL561:
 3792 00ce FF2C     		cmp	r4, #255
 3793 00d0 27D0     		beq	.L315
 3794              	.LVL562:
 3795              	.L318:
 3796              		.loc 1 1255 0
 3797 00d2 E5B2     		uxtb	r5, r4
 3798 00d4 2846     		mov	r0, r5
 3799 00d6 FFF7FEFF 		bl	comm_can_ping
 3800              	.LVL563:
 3801 00da 0028     		cmp	r0, #0
 3802 00dc F6D0     		beq	.L316
 3803              		.loc 1 1256 0
 3804 00de D7ED030A 		vldr.32	s1, [r7, #12]
 3805 00e2 97ED040A 		vldr.32	s0, [r7, #16]
 3806 00e6 0021     		movs	r1, #0
 3807 00e8 2846     		mov	r0, r5
 3808 00ea FFF7FEFF 		bl	comm_can_conf_current_limits_in
 3809              	.LVL564:
 3810              		.loc 1 1257 0
 3811 00ee D7ED480A 		vldr.32	s1, [r7, #288]
 3812 00f2 97ED400A 		vldr.32	s0, [r7, #256]
 3813 00f6 0021     		movs	r1, #0
 3814 00f8 2846     		mov	r0, r5
 3815 00fa FFF7FEFF 		bl	comm_can_conf_foc_erpms
 3816              	.LVL565:
 3817              		.loc 1 1258 0
 3818 00fe 0121     		movs	r1, #1
 3819 0100 B0EE480A 		vmov.f32	s0, s16
ARM GAS  /tmp/ccTUBOn1.s 			page 68


 3820 0104 2846     		mov	r0, r5
 3821              		.loc 1 1259 0
 3822 0106 8844     		add	r8, r8, r1
 3823              	.LVL566:
 3824              		.loc 1 1258 0
 3825 0108 FFF7FEFF 		bl	comm_can_detect_apply_all_foc
 3826              	.LVL567:
 3827              		.loc 1 1261 0
 3828 010c A642     		cmp	r6, r4
 3829              		.loc 1 1262 0
 3830 010e 04BF     		itt	eq
 3831 0110 0136     		addeq	r6, r6, #1
 3832              	.LVL568:
 3833 0112 F6B2     		uxtbeq	r6, r6
 3834              	.LVL569:
 3835              		.loc 1 1266 0
 3836 0114 FF2E     		cmp	r6, #255
 3837              		.loc 1 1254 0
 3838 0116 04F10104 		add	r4, r4, #1
 3839              	.LVL570:
 3840              		.loc 1 1266 0
 3841 011a 08BF     		it	eq
 3842 011c 0026     		moveq	r6, #0
 3843              	.LVL571:
 3844              		.loc 1 1254 0
 3845 011e FF2C     		cmp	r4, #255
 3846 0120 D7D1     		bne	.L318
 3847              	.LVL572:
 3848              	.L315:
 3849              	.LBE84:
 3850              		.loc 1 1272 0
 3851 0122 0021     		movs	r1, #0
 3852 0124 B0EE480A 		vmov.f32	s0, s16
 3853 0128 0846     		mov	r0, r1
 3854 012a FFF7FEFF 		bl	conf_general_detect_apply_all_foc
 3855              	.LVL573:
 3856 012e 4FF47A64 		mov	r4, #4000
 3857 0132 0546     		mov	r5, r0
 3858              	.LVL574:
 3859 0134 03E0     		b	.L322
 3860              	.LVL575:
 3861              	.L319:
 3862              	.LBB85:
 3863              		.loc 1 1281 0 discriminator 2
 3864 0136 FFF7FEFF 		bl	chThdSleep
 3865              	.LVL576:
 3866              		.loc 1 1276 0 discriminator 2
 3867 013a 013C     		subs	r4, r4, #1
 3868              	.LVL577:
 3869 013c 4CD0     		beq	.L347
 3870              	.LVL578:
 3871              	.L322:
 3872              		.loc 1 1277 0
 3873 013e FFF7FEFF 		bl	comm_can_detect_all_foc_res_size
 3874              	.LVL579:
 3875 0142 4045     		cmp	r0, r8
 3876              		.loc 1 1281 0
ARM GAS  /tmp/ccTUBOn1.s 			page 69


 3877 0144 4FF06400 		mov	r0, #100
 3878              		.loc 1 1277 0
 3879 0148 F5DB     		blt	.L319
 3880              	.LVL580:
 3881              	.LBE85:
 3882              	.LBB86:
 3883              		.loc 1 1287 0
 3884 014a B8F1000F 		cmp	r8, #0
 3885 014e 0ADD     		ble	.L321
 3886 0150 0024     		movs	r4, #0
 3887              	.LVL581:
 3888              	.L320:
 3889              		.loc 1 1288 0
 3890 0152 2046     		mov	r0, r4
 3891 0154 FFF7FEFF 		bl	comm_can_detect_all_foc_res
 3892              	.LVL582:
 3893              		.loc 1 1287 0
 3894 0158 0134     		adds	r4, r4, #1
 3895              	.LVL583:
 3896              		.loc 1 1289 0
 3897 015a 0028     		cmp	r0, #0
 3898 015c B8BF     		it	lt
 3899 015e 6FF03205 		mvnlt	r5, #50
 3900              	.LVL584:
 3901              		.loc 1 1287 0
 3902 0162 A045     		cmp	r8, r4
 3903 0164 F5D1     		bne	.L320
 3904              	.LVL585:
 3905              	.L321:
 3906              	.LBE86:
 3907              		.loc 1 1295 0
 3908 0166 002D     		cmp	r5, #0
 3909 0168 2EDB     		blt	.L302
 3910              		.loc 1 1296 0
 3911 016a 9DF80430 		ldrb	r3, [sp, #4]	@ zero_extendqisi2
 3912 016e B342     		cmp	r3, r6
 3913 0170 03D1     		bne	.L325
 3914              		.loc 1 1296 0 is_stmt 0 discriminator 1
 3915 0172 9DF81030 		ldrb	r3, [sp, #16]	@ zero_extendqisi2
 3916 0176 042B     		cmp	r3, #4
 3917 0178 13D0     		beq	.L326
 3918              	.L325:
 3919              		.loc 1 1298 0 is_stmt 1
 3920 017a 0423     		movs	r3, #4
 3921              		.loc 1 1299 0
 3922 017c 0DEB0300 		add	r0, sp, r3
 3923              		.loc 1 1298 0
 3924 0180 8DF81030 		strb	r3, [sp, #16]
 3925              		.loc 1 1297 0
 3926 0184 8DF80460 		strb	r6, [sp, #4]
 3927              		.loc 1 1299 0
 3928 0188 FFF7FEFF 		bl	conf_general_store_app_configuration
 3929              	.LVL586:
 3930              		.loc 1 1300 0
 3931 018c 01A8     		add	r0, sp, #4
 3932 018e FFF7FEFF 		bl	app_set_configuration
 3933              	.LVL587:
ARM GAS  /tmp/ccTUBOn1.s 			page 70


 3934              		.loc 1 1301 0
 3935 0192 1120     		movs	r0, #17
 3936 0194 01A9     		add	r1, sp, #4
 3937 0196 FFF7FEFF 		bl	commands_send_appconf
 3938              	.LVL588:
 3939              		.loc 1 1302 0
 3940 019a 42F21070 		movw	r0, #10000
 3941 019e FFF7FEFF 		bl	chThdSleep
 3942              	.LVL589:
 3943              	.L326:
 3944              		.loc 1 1305 0
 3945 01a2 FFF7FEFF 		bl	mc_interface_get_configuration
 3946              	.LVL590:
 3947 01a6 4FF4E472 		mov	r2, #456
 3948 01aa 0146     		mov	r1, r0
 3949 01ac 0E48     		ldr	r0, .L348
 3950 01ae FFF7FEFF 		bl	memcpy
 3951              	.LVL591:
 3952              		.loc 1 1306 0
 3953 01b2 0D48     		ldr	r0, .L348
 3954 01b4 FFF7FEFF 		bl	conf_general_store_mc_configuration
 3955              	.LVL592:
 3956              		.loc 1 1307 0
 3957 01b8 0E20     		movs	r0, #14
 3958 01ba 0B49     		ldr	r1, .L348
 3959 01bc FFF7FEFF 		bl	commands_send_mcconf
 3960              	.LVL593:
 3961              		.loc 1 1308 0
 3962 01c0 42F21070 		movw	r0, #10000
 3963 01c4 FFF7FEFF 		bl	chThdSleep
 3964              	.LVL594:
 3965              	.L302:
 3966              		.loc 1 1312 0
 3967 01c8 2846     		mov	r0, r5
 3968 01ca 34B0     		add	sp, sp, #208
 3969              		.cfi_remember_state
 3970              		.cfi_def_cfa_offset 48
 3971              		@ sp needed
 3972 01cc BDEC068B 		vldm	sp!, {d8-d10}
 3973              		.cfi_restore 84
 3974              		.cfi_restore 85
 3975              		.cfi_restore 82
 3976              		.cfi_restore 83
 3977              		.cfi_restore 80
 3978              		.cfi_restore 81
 3979              		.cfi_def_cfa_offset 24
 3980              	.LVL595:
 3981 01d0 BDE8F081 		pop	{r4, r5, r6, r7, r8, pc}
 3982              	.LVL596:
 3983              	.L327:
 3984              		.cfi_restore_state
 3985              		.loc 1 1250 0
 3986 01d4 A046     		mov	r8, r4
 3987 01d6 A4E7     		b	.L315
 3988              	.LVL597:
 3989              	.L347:
 3990              		.loc 1 1285 0
ARM GAS  /tmp/ccTUBOn1.s 			page 71


 3991 01d8 6FF03105 		mvn	r5, #49
 3992              	.LVL598:
 3993              		.loc 1 1312 0
 3994 01dc 2846     		mov	r0, r5
 3995 01de 34B0     		add	sp, sp, #208
 3996              		.cfi_def_cfa_offset 48
 3997              		@ sp needed
 3998 01e0 BDEC068B 		vldm	sp!, {d8-d10}
 3999              		.cfi_restore 84
 4000              		.cfi_restore 85
 4001              		.cfi_restore 82
 4002              		.cfi_restore 83
 4003              		.cfi_restore 80
 4004              		.cfi_restore 81
 4005              		.cfi_def_cfa_offset 24
 4006              	.LVL599:
 4007 01e4 BDE8F081 		pop	{r4, r5, r6, r7, r8, pc}
 4008              	.LVL600:
 4009              	.L349:
 4010              		.align	2
 4011              	.L348:
 4012 01e8 00000000 		.word	.LANCHOR1
 4013 01ec 6F12833A 		.word	981668463
 4014 01f0 000070C2 		.word	-1032847360
 4015 01f4 0000C642 		.word	1120272384
 4016 01f8 0000C843 		.word	1137180672
 4017 01fc 00401C45 		.word	1159479296
 4018              		.cfi_endproc
 4019              	.LFE273:
 4020              		.size	conf_general_detect_apply_all_foc_can, .-conf_general_detect_apply_all_foc_can
 4021              		.global	mcconf_old
 4022              		.global	mcconf
 4023              		.global	conf_general_permanent_nrf_found
 4024              		.global	VirtAddVarTab
 4025              		.section	.bss.VirtAddVarTab,"aw",%nobits
 4026              		.align	2
 4027              		.set	.LANCHOR0,. + 0
 4028              		.type	VirtAddVarTab, %object
 4029              		.size	VirtAddVarTab, 1172
 4030              	VirtAddVarTab:
 4031 0000 00000000 		.space	1172
 4031      00000000 
 4031      00000000 
 4031      00000000 
 4031      00000000 
 4032              		.section	.bss.conf_general_permanent_nrf_found,"aw",%nobits
 4033              		.type	conf_general_permanent_nrf_found, %object
 4034              		.size	conf_general_permanent_nrf_found, 1
 4035              	conf_general_permanent_nrf_found:
 4036 0000 00       		.space	1
 4037              		.section	.bss.mcconf,"aw",%nobits
 4038              		.align	2
 4039              		.set	.LANCHOR1,. + 0
 4040              		.type	mcconf, %object
 4041              		.size	mcconf, 456
 4042              	mcconf:
 4043 0000 00000000 		.space	456
ARM GAS  /tmp/ccTUBOn1.s 			page 72


 4043      00000000 
 4043      00000000 
 4043      00000000 
 4043      00000000 
 4044              		.section	.bss.mcconf_old,"aw",%nobits
 4045              		.align	2
 4046              		.set	.LANCHOR2,. + 0
 4047              		.type	mcconf_old, %object
 4048              		.size	mcconf_old, 456
 4049              	mcconf_old:
 4050 0000 00000000 		.space	456
 4050      00000000 
 4050      00000000 
 4050      00000000 
 4050      00000000 
 4051              		.text
 4052              	.Letext0:
 4053              		.file 2 "/usr/arm-none-eabi/include/machine/_default_types.h"
 4054              		.file 3 "/usr/arm-none-eabi/include/sys/_stdint.h"
 4055              		.file 4 "/usr/lib/gcc/arm-none-eabi/7.3.1/include/stddef.h"
 4056              		.file 5 "ChibiOS_3.0.2/os/rt/ports/ARMCMx/compilers/GCC/chtypes.h"
 4057              		.file 6 "ChibiOS_3.0.2/os/rt/include/chsystypes.h"
 4058              		.file 7 "ChibiOS_3.0.2/os/rt/include/chschd.h"
 4059              		.file 8 "ChibiOS_3.0.2/os/ext/CMSIS/include/core_cm4.h"
 4060              		.file 9 "ChibiOS_3.0.2/os/ext/CMSIS/ST/system_stm32f4xx.h"
 4061              		.file 10 "ChibiOS_3.0.2/os/ext/CMSIS/ST/stm32f407xx.h"
 4062              		.file 11 "ChibiOS_3.0.2/os/rt/ports/ARMCMx/chcore.h"
 4063              		.file 12 "ChibiOS_3.0.2/os/rt/ports/ARMCMx/chcore_v7m.h"
 4064              		.file 13 "ChibiOS_3.0.2/os/rt/include/chtm.h"
 4065              		.file 14 "ChibiOS_3.0.2/os/rt/include/chsem.h"
 4066              		.file 15 "ChibiOS_3.0.2/os/rt/include/chmtx.h"
 4067              		.file 16 "ChibiOS_3.0.2/os/rt/include/chregistry.h"
 4068              		.file 17 "ChibiOS_3.0.2/os/rt/include/chevents.h"
 4069              		.file 18 "ChibiOS_3.0.2/os/rt/include/chqueues.h"
 4070              		.file 19 "datatypes.h"
 4071              		.file 20 "conf_general.h"
 4072              		.file 21 "ChibiOS_3.0.2/ext/stdperiph_stm32f4/inc/stm32f4xx_flash.h"
 4073              		.file 22 "mcpwm.h"
 4074              		.file 23 "mc_interface.h"
 4075              		.file 24 "ChibiOS_3.0.2/os/hal/ports/STM32/STM32F4xx/stm32_dma.h"
 4076              		.file 25 "ChibiOS_3.0.2/os/hal/ports/STM32/LLD/GPIOv2/pal_lld.h"
 4077              		.file 26 "ChibiOS_3.0.2/os/hal/include/can.h"
 4078              		.file 27 "ChibiOS_3.0.2/os/hal/ports/STM32/LLD/can_lld.h"
 4079              		.file 28 "ChibiOS_3.0.2/os/hal/include/i2c.h"
 4080              		.file 29 "ChibiOS_3.0.2/os/hal/ports/STM32/LLD/I2Cv1/i2c_lld.h"
 4081              		.file 30 "ChibiOS_3.0.2/os/hal/include/icu.h"
 4082              		.file 31 "ChibiOS_3.0.2/os/hal/ports/STM32/LLD/TIMv1/icu_lld.h"
 4083              		.file 32 "ChibiOS_3.0.2/os/hal/ports/STM32/LLD/TIMv1/stm32_tim.h"
 4084              		.file 33 "ChibiOS_3.0.2/os/hal/include/serial.h"
 4085              		.file 34 "ChibiOS_3.0.2/os/hal/ports/STM32/LLD/USARTv1/serial_lld.h"
 4086              		.file 35 "ChibiOS_3.0.2/os/hal/include/spi.h"
 4087              		.file 36 "ChibiOS_3.0.2/os/hal/ports/STM32/LLD/SPIv1/spi_lld.h"
 4088              		.file 37 "ChibiOS_3.0.2/os/hal/include/usb.h"
 4089              		.file 38 "ChibiOS_3.0.2/os/hal/ports/STM32/LLD/OTGv1/usb_lld.h"
 4090              		.file 39 "ChibiOS_3.0.2/os/hal/ports/STM32/LLD/OTGv1/stm32_otg.h"
 4091              		.file 40 "/usr/arm-none-eabi/include/sys/lock.h"
 4092              		.file 41 "/usr/arm-none-eabi/include/sys/_types.h"
ARM GAS  /tmp/ccTUBOn1.s 			page 73


 4093              		.file 42 "/usr/arm-none-eabi/include/sys/reent.h"
 4094              		.file 43 "/usr/arm-none-eabi/include/math.h"
 4095              		.file 44 "comm_can.h"
 4096              		.file 45 "ChibiOS_3.0.2/os/rt/include/chthreads.h"
 4097              		.file 46 "applications/app.h"
 4098              		.file 47 "commands.h"
 4099              		.file 48 "mcpwm_foc.h"
 4100              		.file 49 "timeout.h"
 4101              		.file 50 "utils.h"
 4102              		.file 51 "encoder.h"
 4103              		.file 52 "eeprom.h"
 4104              		.file 53 "confgenerator.h"
 4105              		.file 54 "<built-in>"