ARM GAS  /tmp/cc5di5Tx.s 			page 1


   1              		.cpu cortex-m4
   2              		.eabi_attribute 27, 1
   3              		.eabi_attribute 28, 1
   4              		.eabi_attribute 20, 1
   5              		.eabi_attribute 21, 1
   6              		.eabi_attribute 23, 3
   7              		.eabi_attribute 24, 1
   8              		.eabi_attribute 25, 1
   9              		.eabi_attribute 26, 1
  10              		.eabi_attribute 30, 2
  11              		.eabi_attribute 34, 1
  12              		.eabi_attribute 18, 4
  13              		.file	"eeprom.c"
  14              		.text
  15              	.Ltext0:
  16              		.cfi_sections	.debug_frame
  17              		.section	.text.EE_VerifyPageFullWriteVariable,"ax",%progbits
  18              		.align	1
  19              		.p2align 4,,15
  20              		.syntax unified
  21              		.thumb
  22              		.thumb_func
  23              		.fpu fpv4-sp-d16
  24              		.type	EE_VerifyPageFullWriteVariable, %function
  25              	EE_VerifyPageFullWriteVariable:
  26              	.LFB224:
  27              		.file 1 "eeprom.c"
  28              		.loc 1 472 0
  29              		.cfi_startproc
  30              		@ args = 0, pretend = 0, frame = 0
  31              		@ frame_needed = 0, uses_anonymous_args = 0
  32              	.LVL0:
  33 0000 38B5     		push	{r3, r4, r5, lr}
  34              		.cfi_def_cfa_offset 16
  35              		.cfi_offset 3, -16
  36              		.cfi_offset 4, -12
  37              		.cfi_offset 5, -8
  38              		.cfi_offset 14, -4
  39              	.LBB9:
  40              	.LBB10:
  41              		.loc 1 404 0
  42 0002 1B4A     		ldr	r2, .L19
  43              		.loc 1 407 0
  44 0004 1B4B     		ldr	r3, .L19+4
  45              		.loc 1 404 0
  46 0006 1288     		ldrh	r2, [r2]
  47              		.loc 1 407 0
  48 0008 1B88     		ldrh	r3, [r3]
  49 000a 9CB2     		uxth	r4, r3
  50              		.loc 1 404 0
  51 000c 92B2     		uxth	r2, r2
  52              	.LVL1:
  53              		.loc 1 413 0
  54 000e ECB9     		cbnz	r4, .L2
  55              		.loc 1 416 0
  56 0010 4EF6EE63 		movw	r3, #61166
  57              		.loc 1 418 0
ARM GAS  /tmp/cc5di5Tx.s 			page 2


  58 0014 D31A     		subs	r3, r2, r3
  59 0016 18BF     		it	ne
  60 0018 0123     		movne	r3, #1
  61              	.L3:
  62              	.LBE10:
  63              	.LBE9:
  64              		.loc 1 487 0
  65 001a 03F50054 		add	r4, r3, #8192
  66              	.LVL2:
  67              		.loc 1 490 0
  68 001e 164A     		ldr	r2, .L19+8
  69              	.LVL3:
  70              		.loc 1 487 0
  71 0020 0134     		adds	r4, r4, #1
  72              		.loc 1 490 0
  73 0022 0133     		adds	r3, r3, #1
  74              		.loc 1 487 0
  75 0024 A403     		lsls	r4, r4, #14
  76              	.LVL4:
  77              		.loc 1 490 0
  78 0026 02EB8332 		add	r2, r2, r3, lsl #14
  79              	.LVL5:
  80              		.loc 1 493 0
  81 002a 9442     		cmp	r4, r2
  82 002c 03D3     		bcc	.L8
  83 002e 15E0     		b	.L10
  84              	.L6:
  85              		.loc 1 513 0
  86 0030 0434     		adds	r4, r4, #4
  87              	.LVL6:
  88              		.loc 1 493 0
  89 0032 A242     		cmp	r2, r4
  90 0034 12D9     		bls	.L10
  91              	.L8:
  92              		.loc 1 496 0
  93 0036 2368     		ldr	r3, [r4]
  94 0038 0133     		adds	r3, r3, #1
  95 003a F9D1     		bne	.L6
  96 003c 0546     		mov	r5, r0
  97              		.loc 1 499 0
  98 003e 2046     		mov	r0, r4
  99              	.LVL7:
 100 0040 FFF7FEFF 		bl	FLASH_ProgramHalfWord
 101              	.LVL8:
 102              		.loc 1 501 0
 103 0044 0928     		cmp	r0, #9
 104 0046 0DD0     		beq	.L7
 105              	.LVL9:
 106              	.L17:
 107              		.loc 1 508 0
 108 0048 80B2     		uxth	r0, r0
 109              	.LVL10:
 110              		.loc 1 519 0
 111 004a 38BD     		pop	{r3, r4, r5, pc}
 112              	.LVL11:
 113              	.L2:
 114              	.LBB12:
ARM GAS  /tmp/cc5di5Tx.s 			page 3


 115              	.LBB11:
 116              		.loc 1 425 0
 117 004c 42B9     		cbnz	r2, .L9
 118              		.loc 1 428 0
 119 004e 4EF6EE63 		movw	r3, #61166
 120              		.loc 1 418 0
 121 0052 E31A     		subs	r3, r4, r3
 122 0054 B3FA83F3 		clz	r3, r3
 123 0058 5B09     		lsrs	r3, r3, #5
 124 005a DEE7     		b	.L3
 125              	.LVL12:
 126              	.L10:
 127              	.LBE11:
 128              	.LBE12:
 129              		.loc 1 518 0
 130 005c 8020     		movs	r0, #128
 131              	.LVL13:
 132              		.loc 1 519 0
 133 005e 38BD     		pop	{r3, r4, r5, pc}
 134              	.LVL14:
 135              	.L9:
 136              		.loc 1 483 0
 137 0060 AB20     		movs	r0, #171
 138              	.LVL15:
 139              		.loc 1 519 0
 140 0062 38BD     		pop	{r3, r4, r5, pc}
 141              	.LVL16:
 142              	.L7:
 143              		.loc 1 506 0
 144 0064 2946     		mov	r1, r5
 145 0066 A01C     		adds	r0, r4, #2
 146              	.LVL17:
 147 0068 FFF7FEFF 		bl	FLASH_ProgramHalfWord
 148              	.LVL18:
 149 006c ECE7     		b	.L17
 150              	.L20:
 151 006e 00BF     		.align	2
 152              	.L19:
 153 0070 00400008 		.word	134234112
 154 0074 00800008 		.word	134250496
 155 0078 FE3F0008 		.word	134234110
 156              		.cfi_endproc
 157              	.LFE224:
 158              		.size	EE_VerifyPageFullWriteVariable, .-EE_VerifyPageFullWriteVariable
 159              		.section	.text.EE_EraseSectorIfNotEmpty.constprop.1,"ax",%progbits
 160              		.align	1
 161              		.p2align 4,,15
 162              		.syntax unified
 163              		.thumb
 164              		.thumb_func
 165              		.fpu fpv4-sp-d16
 166              		.type	EE_EraseSectorIfNotEmpty.constprop.1, %function
 167              	EE_EraseSectorIfNotEmpty.constprop.1:
 168              	.LFB228:
 169              		.loc 1 625 0
 170              		.cfi_startproc
 171              		@ args = 0, pretend = 0, frame = 0
ARM GAS  /tmp/cc5di5Tx.s 			page 4


 172              		@ frame_needed = 0, uses_anonymous_args = 0
 173              	.LVL19:
 174 0000 10B5     		push	{r4, lr}
 175              		.cfi_def_cfa_offset 8
 176              		.cfi_offset 4, -8
 177              		.cfi_offset 14, -4
 178              		.loc 1 625 0
 179 0002 0446     		mov	r4, r0
 180              		.loc 1 626 0
 181 0004 FFF7FEFF 		bl	flash_helper_get_sector_address
 182              	.LVL20:
 183 0008 00F57F52 		add	r2, r0, #16320
 184 000c 3F32     		adds	r2, r2, #63
 185 000e 0138     		subs	r0, r0, #1
 186              	.LVL21:
 187 0010 01E0     		b	.L24
 188              	.LVL22:
 189              	.L22:
 190              	.LBB13:
 191              		.loc 1 628 0
 192 0012 9042     		cmp	r0, r2
 193 0014 09D0     		beq	.L27
 194              	.LVL23:
 195              	.L24:
 196              		.loc 1 629 0
 197 0016 10F8013F 		ldrb	r3, [r0, #1]!	@ zero_extendqisi2
 198              	.LVL24:
 199 001a FF2B     		cmp	r3, #255
 200 001c F9D0     		beq	.L22
 201              		.loc 1 630 0
 202 001e 2046     		mov	r0, r4
 203              	.LVL25:
 204 0020 0221     		movs	r1, #2
 205 0022 FFF7FEFF 		bl	FLASH_EraseSector
 206              	.LVL26:
 207 0026 80B2     		uxth	r0, r0
 208              	.LBE13:
 209              		.loc 1 635 0
 210 0028 10BD     		pop	{r4, pc}
 211              	.LVL27:
 212              	.L27:
 213              		.loc 1 634 0
 214 002a 0920     		movs	r0, #9
 215              	.LVL28:
 216              		.loc 1 635 0
 217 002c 10BD     		pop	{r4, pc}
 218              		.cfi_endproc
 219              	.LFE228:
 220              		.size	EE_EraseSectorIfNotEmpty.constprop.1, .-EE_EraseSectorIfNotEmpty.constprop.1
 221 002e 00BF     		.section	.text.EE_Format,"ax",%progbits
 222              		.align	1
 223              		.p2align 4,,15
 224              		.syntax unified
 225              		.thumb
 226              		.thumb_func
 227              		.fpu fpv4-sp-d16
 228              		.type	EE_Format, %function
ARM GAS  /tmp/cc5di5Tx.s 			page 5


 229              	EE_Format:
 230              	.LFB222:
 231              		.loc 1 362 0
 232              		.cfi_startproc
 233              		@ args = 0, pretend = 0, frame = 0
 234              		@ frame_needed = 0, uses_anonymous_args = 0
 235              	.LVL29:
 236 0000 08B5     		push	{r3, lr}
 237              		.cfi_def_cfa_offset 8
 238              		.cfi_offset 3, -8
 239              		.cfi_offset 14, -4
 240              		.loc 1 366 0
 241 0002 0820     		movs	r0, #8
 242 0004 FFF7FEFF 		bl	EE_EraseSectorIfNotEmpty.constprop.1
 243              	.LVL30:
 244 0008 C0B2     		uxtb	r0, r0
 245              	.LVL31:
 246              		.loc 1 369 0
 247 000a 0928     		cmp	r0, #9
 248 000c 00D0     		beq	.L31
 249              	.L29:
 250              		.loc 1 388 0
 251 000e 08BD     		pop	{r3, pc}
 252              	.L31:
 253              		.loc 1 375 0
 254 0010 0021     		movs	r1, #0
 255 0012 0548     		ldr	r0, .L32
 256              	.LVL32:
 257 0014 FFF7FEFF 		bl	FLASH_ProgramHalfWord
 258              	.LVL33:
 259              		.loc 1 378 0
 260 0018 0928     		cmp	r0, #9
 261 001a F8D1     		bne	.L29
 262              	.LBB16:
 263              		.loc 1 384 0
 264 001c 1020     		movs	r0, #16
 265              	.LVL34:
 266 001e FFF7FEFF 		bl	EE_EraseSectorIfNotEmpty.constprop.1
 267              	.LVL35:
 268 0022 C0B2     		uxtb	r0, r0
 269              	.LBE16:
 270              		.loc 1 388 0
 271 0024 08BD     		pop	{r3, pc}
 272              	.L33:
 273 0026 00BF     		.align	2
 274              	.L32:
 275 0028 00400008 		.word	134234112
 276              		.cfi_endproc
 277              	.LFE222:
 278              		.size	EE_Format, .-EE_Format
 279              		.section	.text.EE_ReadVariable,"ax",%progbits
 280              		.align	1
 281              		.p2align 4,,15
 282              		.global	EE_ReadVariable
 283              		.syntax unified
 284              		.thumb
 285              		.thumb_func
ARM GAS  /tmp/cc5di5Tx.s 			page 6


 286              		.fpu fpv4-sp-d16
 287              		.type	EE_ReadVariable, %function
 288              	EE_ReadVariable:
 289              	.LFB220:
 290              		.loc 1 272 0
 291              		.cfi_startproc
 292              		@ args = 0, pretend = 0, frame = 0
 293              		@ frame_needed = 0, uses_anonymous_args = 0
 294              		@ link register save eliminated.
 295              	.LVL36:
 296              	.LBB17:
 297              	.LBB18:
 298              		.loc 1 404 0
 299 0000 144B     		ldr	r3, .L46
 300              		.loc 1 407 0
 301 0002 154A     		ldr	r2, .L46+4
 302              		.loc 1 404 0
 303 0004 1B88     		ldrh	r3, [r3]
 304              		.loc 1 407 0
 305 0006 1288     		ldrh	r2, [r2]
 306              		.loc 1 404 0
 307 0008 9BB2     		uxth	r3, r3
 308              	.LVL37:
 309              	.LBE18:
 310              	.LBE17:
 311              		.loc 1 272 0
 312 000a 10B4     		push	{r4}
 313              		.cfi_def_cfa_offset 4
 314              		.cfi_offset 4, -4
 315              	.LBB20:
 316              	.LBB19:
 317              		.loc 1 443 0
 318 000c 2BB1     		cbz	r3, .L40
 319 000e 92B2     		uxth	r2, r2
 320              		.loc 1 447 0
 321 0010 DAB9     		cbnz	r2, .L45
 322 0012 124B     		ldr	r3, .L46+8
 323              	.LVL38:
 324 0014 124C     		ldr	r4, .L46+12
 325 0016 1A46     		mov	r2, r3
 326              	.LVL39:
 327 0018 02E0     		b	.L35
 328              	.LVL40:
 329              	.L40:
 330              		.loc 1 443 0
 331 001a 124B     		ldr	r3, .L46+16
 332              	.LVL41:
 333 001c 124C     		ldr	r4, .L46+20
 334 001e 1A46     		mov	r2, r3
 335              	.LVL42:
 336              	.L35:
 337              	.LBE19:
 338              	.LBE20:
 339              		.loc 1 296 0
 340 0020 1288     		ldrh	r2, [r2]
 341              	.LVL43:
 342              		.loc 1 299 0
ARM GAS  /tmp/cc5di5Tx.s 			page 7


 343 0022 9042     		cmp	r0, r2
 344 0024 03D1     		bne	.L37
 345 0026 09E0     		b	.L39
 346              	.LVL44:
 347              	.L38:
 348              		.loc 1 296 0
 349 0028 1A88     		ldrh	r2, [r3]
 350              	.LVL45:
 351              		.loc 1 299 0
 352 002a 9042     		cmp	r0, r2
 353 002c 06D0     		beq	.L39
 354              	.LVL46:
 355              	.L37:
 356              		.loc 1 312 0
 357 002e 043B     		subs	r3, r3, #4
 358              	.LVL47:
 359              		.loc 1 293 0
 360 0030 A342     		cmp	r3, r4
 361 0032 F9D8     		bhi	.L38
 362              		.loc 1 274 0
 363 0034 0120     		movs	r0, #1
 364              	.LVL48:
 365              		.loc 1 318 0
 366 0036 5DF8044B 		ldr	r4, [sp], #4
 367              		.cfi_remember_state
 368              		.cfi_restore 4
 369              		.cfi_def_cfa_offset 0
 370 003a 7047     		bx	lr
 371              	.LVL49:
 372              	.L39:
 373              		.cfi_restore_state
 374              		.loc 1 302 0
 375 003c 33F8023C 		ldrh	r3, [r3, #-2]
 376 0040 0B80     		strh	r3, [r1]	@ movhi
 377              	.LVL50:
 378              		.loc 1 305 0
 379 0042 0020     		movs	r0, #0
 380              	.LVL51:
 381              		.loc 1 318 0
 382 0044 5DF8044B 		ldr	r4, [sp], #4
 383              		.cfi_remember_state
 384              		.cfi_restore 4
 385              		.cfi_def_cfa_offset 0
 386 0048 7047     		bx	lr
 387              	.LVL52:
 388              	.L45:
 389              		.cfi_restore_state
 390              		.loc 1 283 0
 391 004a AB20     		movs	r0, #171
 392              	.LVL53:
 393              		.loc 1 318 0
 394 004c 5DF8044B 		ldr	r4, [sp], #4
 395              		.cfi_restore 4
 396              		.cfi_def_cfa_offset 0
 397 0050 7047     		bx	lr
 398              	.L47:
 399 0052 00BF     		.align	2
ARM GAS  /tmp/cc5di5Tx.s 			page 8


 400              	.L46:
 401 0054 00400008 		.word	134234112
 402 0058 00800008 		.word	134250496
 403 005c FEBF0008 		.word	134266878
 404 0060 02800008 		.word	134250498
 405 0064 FE7F0008 		.word	134250494
 406 0068 02400008 		.word	134234114
 407              		.cfi_endproc
 408              	.LFE220:
 409              		.size	EE_ReadVariable, .-EE_ReadVariable
 410              		.section	.text.EE_Init,"ax",%progbits
 411              		.align	1
 412              		.p2align 4,,15
 413              		.global	EE_Init
 414              		.syntax unified
 415              		.thumb
 416              		.thumb_func
 417              		.fpu fpv4-sp-d16
 418              		.type	EE_Init, %function
 419              	EE_Init:
 420              	.LFB219:
 421              		.loc 1 57 0
 422              		.cfi_startproc
 423              		@ args = 0, pretend = 0, frame = 0
 424              		@ frame_needed = 0, uses_anonymous_args = 0
 425              	.LVL54:
 426 0000 2DE9F843 		push	{r3, r4, r5, r6, r7, r8, r9, lr}
 427              		.cfi_def_cfa_offset 32
 428              		.cfi_offset 3, -32
 429              		.cfi_offset 4, -28
 430              		.cfi_offset 5, -24
 431              		.cfi_offset 6, -20
 432              		.cfi_offset 7, -16
 433              		.cfi_offset 8, -12
 434              		.cfi_offset 9, -8
 435              		.cfi_offset 14, -4
 436              		.loc 1 65 0
 437 0004 494D     		ldr	r5, .L86
 438              		.loc 1 67 0
 439 0006 4A4E     		ldr	r6, .L86+4
 440              		.loc 1 65 0
 441 0008 2C88     		ldrh	r4, [r5]
 442              		.loc 1 67 0
 443 000a 3388     		ldrh	r3, [r6]
 444              		.loc 1 65 0
 445 000c A4B2     		uxth	r4, r4
 446              	.LVL55:
 447              		.loc 1 70 0
 448 000e 4EF6EE62 		movw	r2, #61166
 449 0012 9442     		cmp	r4, r2
 450              		.loc 1 67 0
 451 0014 9BB2     		uxth	r3, r3
 452              	.LVL56:
 453              		.loc 1 70 0
 454 0016 4AD0     		beq	.L50
 455 0018 4FF6FF71 		movw	r1, #65535
 456 001c 8C42     		cmp	r4, r1
ARM GAS  /tmp/cc5di5Tx.s 			page 9


 457 001e 37D0     		beq	.L51
 458 0020 24B1     		cbz	r4, .L85
 459              	.L79:
 460              		.loc 1 249 0
 461 0022 FFF7FEFF 		bl	EE_Format
 462              	.LVL57:
 463 0026 80B2     		uxth	r0, r0
 464              	.LVL58:
 465              	.L55:
 466              		.loc 1 259 0
 467 0028 BDE8F883 		pop	{r3, r4, r5, r6, r7, r8, r9, pc}
 468              	.LVL59:
 469              	.L85:
 470              		.loc 1 184 0
 471 002c 002B     		cmp	r3, #0
 472 002e F8D0     		beq	.L79
 473              		.loc 1 194 0
 474 0030 8B42     		cmp	r3, r1
 475 0032 67D0     		beq	.L84
 476 0034 3F4D     		ldr	r5, .L86+8
 477              		.loc 1 209 0
 478 0036 404F     		ldr	r7, .L86+12
 479              		.loc 1 216 0
 480 0038 DFF80081 		ldr	r8, .L86+16
 481              		.loc 1 61 0
 482 003c 4FF0FF36 		mov	r6, #-1
 483              		.loc 1 207 0
 484 0040 40F24A29 		movw	r9, #586
 485              	.LVL60:
 486              	.L65:
 487              		.loc 1 209 0
 488 0044 35F8023B 		ldrh	r3, [r5], #2
 489 0048 3A88     		ldrh	r2, [r7]
 490              		.loc 1 216 0
 491 004a 3C49     		ldr	r1, .L86+16
 492              		.loc 1 209 0
 493 004c 9342     		cmp	r3, r2
 494              		.loc 1 211 0
 495 004e 08BF     		it	eq
 496 0050 26B2     		sxtheq	r6, r4
 497              	.LVL61:
 498              		.loc 1 213 0
 499 0052 B442     		cmp	r4, r6
 500              		.loc 1 216 0
 501 0054 1846     		mov	r0, r3
 502 0056 04F10104 		add	r4, r4, #1
 503              	.LVL62:
 504              		.loc 1 213 0
 505 005a 0BD0     		beq	.L67
 506              		.loc 1 216 0
 507 005c FFF7FEFF 		bl	EE_ReadVariable
 508              	.LVL63:
 509              		.loc 1 218 0
 510 0060 0128     		cmp	r0, #1
 511 0062 07D0     		beq	.L67
 512              		.loc 1 221 0
 513 0064 B8F80010 		ldrh	r1, [r8]
ARM GAS  /tmp/cc5di5Tx.s 			page 10


 514 0068 35F8020C 		ldrh	r0, [r5, #-2]
 515              	.LVL64:
 516 006c FFF7FEFF 		bl	EE_VerifyPageFullWriteVariable
 517              	.LVL65:
 518              		.loc 1 223 0
 519 0070 0928     		cmp	r0, #9
 520 0072 D9D1     		bne	.L55
 521              	.LVL66:
 522              	.L67:
 523              		.loc 1 207 0
 524 0074 4C45     		cmp	r4, r9
 525 0076 E5D1     		bne	.L65
 526              		.loc 1 231 0
 527 0078 0021     		movs	r1, #0
 528 007a 2D48     		ldr	r0, .L86+4
 529 007c FFF7FEFF 		bl	FLASH_ProgramHalfWord
 530              	.LVL67:
 531 0080 80B2     		uxth	r0, r0
 532              	.LVL68:
 533              		.loc 1 233 0
 534 0082 0928     		cmp	r0, #9
 535 0084 D0D1     		bne	.L55
 536              	.LVL69:
 537              	.L83:
 538              		.loc 1 238 0
 539 0086 0820     		movs	r0, #8
 540              		.loc 1 259 0
 541 0088 BDE8F843 		pop	{r3, r4, r5, r6, r7, r8, r9, lr}
 542              		.cfi_remember_state
 543              		.cfi_restore 14
 544              		.cfi_restore 9
 545              		.cfi_restore 8
 546              		.cfi_restore 7
 547              		.cfi_restore 6
 548              		.cfi_restore 5
 549              		.cfi_restore 4
 550              		.cfi_restore 3
 551              		.cfi_def_cfa_offset 0
 552              		.loc 1 238 0
 553 008c FFF7FEBF 		b	EE_EraseSectorIfNotEmpty.constprop.1
 554              	.LVL70:
 555              	.L51:
 556              		.cfi_restore_state
 557              		.loc 1 73 0
 558 0090 002B     		cmp	r3, #0
 559 0092 F8D0     		beq	.L83
 560              		.loc 1 83 0
 561 0094 9342     		cmp	r3, r2
 562 0096 C4D1     		bne	.L79
 563              		.loc 1 86 0
 564 0098 0820     		movs	r0, #8
 565 009a FFF7FEFF 		bl	EE_EraseSectorIfNotEmpty.constprop.1
 566              	.LVL71:
 567              		.loc 1 88 0
 568 009e 0928     		cmp	r0, #9
 569 00a0 C2D1     		bne	.L55
 570              		.loc 1 93 0
ARM GAS  /tmp/cc5di5Tx.s 			page 11


 571 00a2 3046     		mov	r0, r6
 572              	.LVL72:
 573 00a4 0021     		movs	r1, #0
 574 00a6 FFF7FEFF 		bl	FLASH_ProgramHalfWord
 575              	.LVL73:
 576 00aa 80B2     		uxth	r0, r0
 577              	.LVL74:
 578 00ac BCE7     		b	.L55
 579              	.LVL75:
 580              	.L50:
 581              		.loc 1 113 0
 582 00ae 73BB     		cbnz	r3, .L56
 583 00b0 204D     		ldr	r5, .L86+8
 584              		.loc 1 118 0
 585 00b2 234F     		ldr	r7, .L86+20
 586              		.loc 1 125 0
 587 00b4 DFF88480 		ldr	r8, .L86+16
 588              		.loc 1 113 0
 589 00b8 1C46     		mov	r4, r3
 590              	.LVL76:
 591              		.loc 1 61 0
 592 00ba 4FF0FF36 		mov	r6, #-1
 593              		.loc 1 116 0
 594 00be 40F24A29 		movw	r9, #586
 595              	.LVL77:
 596              	.L59:
 597              		.loc 1 118 0
 598 00c2 35F8023B 		ldrh	r3, [r5], #2
 599 00c6 3A88     		ldrh	r2, [r7]
 600              		.loc 1 125 0
 601 00c8 1C49     		ldr	r1, .L86+16
 602              		.loc 1 118 0
 603 00ca 9342     		cmp	r3, r2
 604              		.loc 1 120 0
 605 00cc 08BF     		it	eq
 606 00ce 26B2     		sxtheq	r6, r4
 607              	.LVL78:
 608              		.loc 1 122 0
 609 00d0 B442     		cmp	r4, r6
 610              		.loc 1 125 0
 611 00d2 1846     		mov	r0, r3
 612 00d4 04F10104 		add	r4, r4, #1
 613              	.LVL79:
 614              		.loc 1 122 0
 615 00d8 0BD0     		beq	.L61
 616              		.loc 1 125 0
 617 00da FFF7FEFF 		bl	EE_ReadVariable
 618              	.LVL80:
 619              		.loc 1 127 0
 620 00de 0128     		cmp	r0, #1
 621 00e0 07D0     		beq	.L61
 622              		.loc 1 130 0
 623 00e2 B8F80010 		ldrh	r1, [r8]
 624 00e6 35F8020C 		ldrh	r0, [r5, #-2]
 625              	.LVL81:
 626 00ea FFF7FEFF 		bl	EE_VerifyPageFullWriteVariable
 627              	.LVL82:
ARM GAS  /tmp/cc5di5Tx.s 			page 12


 628              		.loc 1 132 0
 629 00ee 0928     		cmp	r0, #9
 630 00f0 9AD1     		bne	.L55
 631              	.LVL83:
 632              	.L61:
 633              		.loc 1 116 0
 634 00f2 4C45     		cmp	r4, r9
 635 00f4 E5D1     		bne	.L59
 636              		.loc 1 140 0
 637 00f6 0021     		movs	r1, #0
 638 00f8 0C48     		ldr	r0, .L86
 639 00fa FFF7FEFF 		bl	FLASH_ProgramHalfWord
 640              	.LVL84:
 641 00fe 80B2     		uxth	r0, r0
 642              	.LVL85:
 643              		.loc 1 142 0
 644 0100 0928     		cmp	r0, #9
 645 0102 91D1     		bne	.L55
 646              	.LVL86:
 647              	.L84:
 648              		.loc 1 197 0
 649 0104 1020     		movs	r0, #16
 650              		.loc 1 259 0
 651 0106 BDE8F843 		pop	{r3, r4, r5, r6, r7, r8, r9, lr}
 652              		.cfi_remember_state
 653              		.cfi_restore 14
 654              		.cfi_restore 9
 655              		.cfi_restore 8
 656              		.cfi_restore 7
 657              		.cfi_restore 6
 658              		.cfi_restore 5
 659              		.cfi_restore 4
 660              		.cfi_restore 3
 661              		.cfi_def_cfa_offset 0
 662              		.loc 1 197 0
 663 010a FFF7FEBF 		b	EE_EraseSectorIfNotEmpty.constprop.1
 664              	.LVL87:
 665              	.L56:
 666              		.cfi_restore_state
 667              		.loc 1 154 0
 668 010e 4FF6FF72 		movw	r2, #65535
 669 0112 9342     		cmp	r3, r2
 670 0114 85D1     		bne	.L79
 671              		.loc 1 157 0
 672 0116 1020     		movs	r0, #16
 673 0118 FFF7FEFF 		bl	EE_EraseSectorIfNotEmpty.constprop.1
 674              	.LVL88:
 675              		.loc 1 159 0
 676 011c 0928     		cmp	r0, #9
 677 011e 83D1     		bne	.L55
 678              		.loc 1 164 0
 679 0120 2846     		mov	r0, r5
 680              	.LVL89:
 681 0122 0021     		movs	r1, #0
 682 0124 FFF7FEFF 		bl	FLASH_ProgramHalfWord
 683              	.LVL90:
 684 0128 80B2     		uxth	r0, r0
ARM GAS  /tmp/cc5di5Tx.s 			page 13


 685              	.LVL91:
 686 012a 7DE7     		b	.L55
 687              	.L87:
 688              		.align	2
 689              	.L86:
 690 012c 00400008 		.word	134234112
 691 0130 00800008 		.word	134250496
 692 0134 00000000 		.word	VirtAddVarTab
 693 0138 06800008 		.word	134250502
 694 013c 00000000 		.word	.LANCHOR0
 695 0140 06400008 		.word	134234118
 696              		.cfi_endproc
 697              	.LFE219:
 698              		.size	EE_Init, .-EE_Init
 699              		.section	.text.EE_WriteVariable,"ax",%progbits
 700              		.align	1
 701              		.p2align 4,,15
 702              		.global	EE_WriteVariable
 703              		.syntax unified
 704              		.thumb
 705              		.thumb_func
 706              		.fpu fpv4-sp-d16
 707              		.type	EE_WriteVariable, %function
 708              	EE_WriteVariable:
 709              	.LFB221:
 710              		.loc 1 331 0
 711              		.cfi_startproc
 712              		@ args = 0, pretend = 0, frame = 0
 713              		@ frame_needed = 0, uses_anonymous_args = 0
 714              	.LVL92:
 715              		.loc 1 335 0
 716 0000 2E4B     		ldr	r3, .L113
 717 0002 5B68     		ldr	r3, [r3, #4]
 718 0004 5B07     		lsls	r3, r3, #29
 719              		.loc 1 331 0
 720 0006 2DE9F047 		push	{r4, r5, r6, r7, r8, r9, r10, lr}
 721              		.cfi_def_cfa_offset 32
 722              		.cfi_offset 4, -32
 723              		.cfi_offset 5, -28
 724              		.cfi_offset 6, -24
 725              		.cfi_offset 7, -20
 726              		.cfi_offset 8, -16
 727              		.cfi_offset 9, -12
 728              		.cfi_offset 10, -8
 729              		.cfi_offset 14, -4
 730              		.loc 1 335 0
 731 000a 09D4     		bmi	.L97
 732 000c 0546     		mov	r5, r0
 733 000e 0E46     		mov	r6, r1
 734              		.loc 1 342 0
 735 0010 FFF7FEFF 		bl	EE_VerifyPageFullWriteVariable
 736              	.LVL93:
 737              		.loc 1 345 0
 738 0014 8028     		cmp	r0, #128
 739              		.loc 1 342 0
 740 0016 0446     		mov	r4, r0
 741              	.LVL94:
ARM GAS  /tmp/cc5di5Tx.s 			page 14


 742              		.loc 1 345 0
 743 0018 06D0     		beq	.L111
 744              	.LVL95:
 745              	.L89:
 746              		.loc 1 353 0
 747 001a 2046     		mov	r0, r4
 748 001c BDE8F087 		pop	{r4, r5, r6, r7, r8, r9, r10, pc}
 749              	.LVL96:
 750              	.L97:
 751              		.loc 1 337 0
 752 0020 0724     		movs	r4, #7
 753              	.LVL97:
 754              		.loc 1 353 0
 755 0022 2046     		mov	r0, r4
 756              	.LVL98:
 757 0024 BDE8F087 		pop	{r4, r5, r6, r7, r8, r9, r10, pc}
 758              	.LVL99:
 759              	.L111:
 760              	.LBB25:
 761              	.LBB26:
 762              	.LBB27:
 763              	.LBB28:
 764              		.loc 1 404 0
 765 0028 2549     		ldr	r1, .L113+4
 766              		.loc 1 407 0
 767 002a 264F     		ldr	r7, .L113+8
 768              		.loc 1 404 0
 769 002c 0B88     		ldrh	r3, [r1]
 770              		.loc 1 407 0
 771 002e 3A88     		ldrh	r2, [r7]
 772              		.loc 1 404 0
 773 0030 9BB2     		uxth	r3, r3
 774              	.LVL100:
 775              		.loc 1 407 0
 776 0032 92B2     		uxth	r2, r2
 777              	.LVL101:
 778              		.loc 1 443 0
 779 0034 23B1     		cbz	r3, .L98
 780              		.loc 1 447 0
 781 0036 72B9     		cbnz	r2, .L99
 782              	.LBE28:
 783              	.LBE27:
 784              		.loc 1 546 0
 785 0038 0F46     		mov	r7, r1
 786              		.loc 1 549 0
 787 003a 4FF01008 		mov	r8, #16
 788 003e 01E0     		b	.L90
 789              	.L98:
 790              		.loc 1 557 0
 791 0040 4FF00808 		mov	r8, #8
 792              	.L90:
 793              	.LVL102:
 794              		.loc 1 565 0
 795 0044 4EF6EE61 		movw	r1, #61166
 796 0048 3846     		mov	r0, r7
 797              	.LVL103:
 798 004a FFF7FEFF 		bl	FLASH_ProgramHalfWord
ARM GAS  /tmp/cc5di5Tx.s 			page 15


 799              	.LVL104:
 800              		.loc 1 567 0
 801 004e 0928     		cmp	r0, #9
 802 0050 03D0     		beq	.L91
 803              	.LVL105:
 804              	.L110:
 805              		.loc 1 614 0
 806 0052 84B2     		uxth	r4, r0
 807 0054 E1E7     		b	.L89
 808              	.LVL106:
 809              	.L99:
 810              		.loc 1 561 0
 811 0056 AB24     		movs	r4, #171
 812 0058 DFE7     		b	.L89
 813              	.LVL107:
 814              	.L91:
 815              		.loc 1 573 0
 816 005a 3146     		mov	r1, r6
 817 005c 2846     		mov	r0, r5
 818              	.LVL108:
 819 005e FFF7FEFF 		bl	EE_VerifyPageFullWriteVariable
 820              	.LVL109:
 821              		.loc 1 575 0
 822 0062 0928     		cmp	r0, #9
 823              		.loc 1 573 0
 824 0064 0446     		mov	r4, r0
 825              	.LVL110:
 826              		.loc 1 575 0
 827 0066 D8D1     		bne	.L89
 828 0068 174E     		ldr	r6, .L113+12
 829              	.LVL111:
 830              		.loc 1 586 0
 831 006a DFF860A0 		ldr	r10, .L113+16
 832 006e 06F29449 		addw	r9, r6, #1172
 833 0072 01E0     		b	.L93
 834              	.LVL112:
 835              	.L95:
 836              		.loc 1 581 0
 837 0074 4E45     		cmp	r6, r9
 838 0076 13D0     		beq	.L112
 839              	.L93:
 840              		.loc 1 583 0
 841 0078 36F8023B 		ldrh	r3, [r6], #2
 842              		.loc 1 586 0
 843 007c 1349     		ldr	r1, .L113+16
 844              		.loc 1 583 0
 845 007e 9D42     		cmp	r5, r3
 846              		.loc 1 586 0
 847 0080 1846     		mov	r0, r3
 848              		.loc 1 583 0
 849 0082 F7D0     		beq	.L95
 850              		.loc 1 586 0
 851 0084 FFF7FEFF 		bl	EE_ReadVariable
 852              	.LVL113:
 853              		.loc 1 588 0
 854 0088 0128     		cmp	r0, #1
 855 008a F3D0     		beq	.L95
ARM GAS  /tmp/cc5di5Tx.s 			page 16


 856              		.loc 1 591 0
 857 008c BAF80010 		ldrh	r1, [r10]
 858 0090 36F8020C 		ldrh	r0, [r6, #-2]
 859              	.LVL114:
 860 0094 FFF7FEFF 		bl	EE_VerifyPageFullWriteVariable
 861              	.LVL115:
 862              		.loc 1 593 0
 863 0098 0928     		cmp	r0, #9
 864 009a EBD0     		beq	.L95
 865 009c 0446     		mov	r4, r0
 866 009e BCE7     		b	.L89
 867              	.LVL116:
 868              	.L112:
 869              		.loc 1 602 0
 870 00a0 4046     		mov	r0, r8
 871 00a2 FFF7FEFF 		bl	EE_EraseSectorIfNotEmpty.constprop.1
 872              	.LVL117:
 873              		.loc 1 604 0
 874 00a6 C0B2     		uxtb	r0, r0
 875 00a8 0928     		cmp	r0, #9
 876 00aa D2D1     		bne	.L110
 877              		.loc 1 610 0
 878 00ac 3846     		mov	r0, r7
 879              	.LVL118:
 880 00ae 0021     		movs	r1, #0
 881 00b0 FFF7FEFF 		bl	FLASH_ProgramHalfWord
 882              	.LVL119:
 883              		.loc 1 612 0
 884 00b4 0928     		cmp	r0, #9
 885 00b6 CCD1     		bne	.L110
 886 00b8 AFE7     		b	.L89
 887              	.L114:
 888 00ba 00BF     		.align	2
 889              	.L113:
 890 00bc 00700040 		.word	1073770496
 891 00c0 00400008 		.word	134234112
 892 00c4 00800008 		.word	134250496
 893 00c8 00000000 		.word	VirtAddVarTab
 894 00cc 00000000 		.word	.LANCHOR0
 895              	.LBE26:
 896              	.LBE25:
 897              		.cfi_endproc
 898              	.LFE221:
 899              		.size	EE_WriteVariable, .-EE_WriteVariable
 900              		.global	DataVar
 901              		.section	.bss.DataVar,"aw",%nobits
 902              		.align	1
 903              		.set	.LANCHOR0,. + 0
 904              		.type	DataVar, %object
 905              		.size	DataVar, 2
 906              	DataVar:
 907 0000 0000     		.space	2
 908              		.text
 909              	.Letext0:
 910              		.file 2 "/usr/arm-none-eabi/include/machine/_default_types.h"
 911              		.file 3 "/usr/arm-none-eabi/include/sys/_stdint.h"
 912              		.file 4 "ChibiOS_3.0.2/os/ext/CMSIS/include/core_cm4.h"
ARM GAS  /tmp/cc5di5Tx.s 			page 17


 913              		.file 5 "ChibiOS_3.0.2/os/ext/CMSIS/ST/system_stm32f4xx.h"
 914              		.file 6 "ChibiOS_3.0.2/os/ext/CMSIS/ST/stm32f407xx.h"
 915              		.file 7 "ChibiOS_3.0.2/ext/stdperiph_stm32f4/inc/stm32f4xx_flash.h"
 916              		.file 8 "/usr/lib/gcc/arm-none-eabi/7.3.1/include/stddef.h"
 917              		.file 9 "ChibiOS_3.0.2/os/rt/ports/ARMCMx/compilers/GCC/chtypes.h"
 918              		.file 10 "ChibiOS_3.0.2/os/rt/include/chsystypes.h"
 919              		.file 11 "ChibiOS_3.0.2/os/rt/include/chschd.h"
 920              		.file 12 "ChibiOS_3.0.2/os/rt/ports/ARMCMx/chcore.h"
 921              		.file 13 "ChibiOS_3.0.2/os/rt/ports/ARMCMx/chcore_v7m.h"
 922              		.file 14 "ChibiOS_3.0.2/os/rt/include/chtm.h"
 923              		.file 15 "ChibiOS_3.0.2/os/rt/include/chsem.h"
 924              		.file 16 "ChibiOS_3.0.2/os/rt/include/chmtx.h"
 925              		.file 17 "ChibiOS_3.0.2/os/rt/include/chregistry.h"
 926              		.file 18 "conf_general.h"
 927              		.file 19 "flash_helper.h"
 928              		.section	.debug_info,"",%progbits
 929              	.Ldebug_info0:
 930 0000 C40F0000 		.4byte	0xfc4
 931 0004 0400     		.2byte	0x4
 932 0006 00000000 		.4byte	.Ldebug_abbrev0
 933 000a 04       		.byte	0x4
 934 000b 01       		.uleb128 0x1
 935 000c 61000000 		.4byte	.LASF176
 936 0010 0C       		.byte	0xc
 937 0011 3D020000 		.4byte	.LASF177
 938 0015 B4030000 		.4byte	.LASF178
 939 0019 30000000 		.4byte	.Ldebug_ranges0+0x30
 940 001d 00000000 		.4byte	0
 941 0021 00000000 		.4byte	.Ldebug_line0
 942 0025 02       		.uleb128 0x2
 943 0026 01       		.byte	0x1
 944 0027 06       		.byte	0x6
 945 0028 31020000 		.4byte	.LASF0
 946 002c 03       		.uleb128 0x3
 947 002d 36000000 		.4byte	.LASF2
 948 0031 02       		.byte	0x2
 949 0032 2B       		.byte	0x2b
 950 0033 37000000 		.4byte	0x37
 951 0037 02       		.uleb128 0x2
 952 0038 01       		.byte	0x1
 953 0039 08       		.byte	0x8
 954 003a 2B060000 		.4byte	.LASF1
 955 003e 03       		.uleb128 0x3
 956 003f 39030000 		.4byte	.LASF3
 957 0043 02       		.byte	0x2
 958 0044 37       		.byte	0x37
 959 0045 49000000 		.4byte	0x49
 960 0049 02       		.uleb128 0x2
 961 004a 02       		.byte	0x2
 962 004b 05       		.byte	0x5
 963 004c 5A060000 		.4byte	.LASF4
 964 0050 03       		.uleb128 0x3
 965 0051 A2070000 		.4byte	.LASF5
 966 0055 02       		.byte	0x2
 967 0056 39       		.byte	0x39
 968 0057 5B000000 		.4byte	0x5b
 969 005b 02       		.uleb128 0x2
ARM GAS  /tmp/cc5di5Tx.s 			page 18


 970 005c 02       		.byte	0x2
 971 005d 07       		.byte	0x7
 972 005e FE030000 		.4byte	.LASF6
 973 0062 03       		.uleb128 0x3
 974 0063 AA040000 		.4byte	.LASF7
 975 0067 02       		.byte	0x2
 976 0068 4D       		.byte	0x4d
 977 0069 6D000000 		.4byte	0x6d
 978 006d 02       		.uleb128 0x2
 979 006e 04       		.byte	0x4
 980 006f 05       		.byte	0x5
 981 0070 C5020000 		.4byte	.LASF8
 982 0074 03       		.uleb128 0x3
 983 0075 DA070000 		.4byte	.LASF9
 984 0079 02       		.byte	0x2
 985 007a 4F       		.byte	0x4f
 986 007b 7F000000 		.4byte	0x7f
 987 007f 02       		.uleb128 0x2
 988 0080 04       		.byte	0x4
 989 0081 07       		.byte	0x7
 990 0082 4D070000 		.4byte	.LASF10
 991 0086 02       		.uleb128 0x2
 992 0087 08       		.byte	0x8
 993 0088 05       		.byte	0x5
 994 0089 23020000 		.4byte	.LASF11
 995 008d 03       		.uleb128 0x3
 996 008e B9050000 		.4byte	.LASF12
 997 0092 02       		.byte	0x2
 998 0093 69       		.byte	0x69
 999 0094 98000000 		.4byte	0x98
 1000 0098 02       		.uleb128 0x2
 1001 0099 08       		.byte	0x8
 1002 009a 07       		.byte	0x7
 1003 009b 8D010000 		.4byte	.LASF13
 1004 009f 04       		.uleb128 0x4
 1005 00a0 04       		.byte	0x4
 1006 00a1 05       		.byte	0x5
 1007 00a2 696E7400 		.ascii	"int\000"
 1008 00a6 02       		.uleb128 0x2
 1009 00a7 04       		.byte	0x4
 1010 00a8 07       		.byte	0x7
 1011 00a9 67030000 		.4byte	.LASF14
 1012 00ad 03       		.uleb128 0x3
 1013 00ae D2070000 		.4byte	.LASF15
 1014 00b2 03       		.byte	0x3
 1015 00b3 18       		.byte	0x18
 1016 00b4 2C000000 		.4byte	0x2c
 1017 00b8 03       		.uleb128 0x3
 1018 00b9 1B020000 		.4byte	.LASF16
 1019 00bd 03       		.byte	0x3
 1020 00be 20       		.byte	0x20
 1021 00bf 3E000000 		.4byte	0x3e
 1022 00c3 03       		.uleb128 0x3
 1023 00c4 D7020000 		.4byte	.LASF17
 1024 00c8 03       		.byte	0x3
 1025 00c9 24       		.byte	0x24
 1026 00ca 50000000 		.4byte	0x50
ARM GAS  /tmp/cc5di5Tx.s 			page 19


 1027 00ce 03       		.uleb128 0x3
 1028 00cf 23060000 		.4byte	.LASF18
 1029 00d3 03       		.byte	0x3
 1030 00d4 2C       		.byte	0x2c
 1031 00d5 62000000 		.4byte	0x62
 1032 00d9 05       		.uleb128 0x5
 1033 00da CE000000 		.4byte	0xce
 1034 00de 03       		.uleb128 0x3
 1035 00df 1F090000 		.4byte	.LASF19
 1036 00e3 03       		.byte	0x3
 1037 00e4 30       		.byte	0x30
 1038 00e5 74000000 		.4byte	0x74
 1039 00e9 05       		.uleb128 0x5
 1040 00ea DE000000 		.4byte	0xde
 1041 00ee 03       		.uleb128 0x3
 1042 00ef 21000000 		.4byte	.LASF20
 1043 00f3 03       		.byte	0x3
 1044 00f4 3C       		.byte	0x3c
 1045 00f5 8D000000 		.4byte	0x8d
 1046 00f9 06       		.uleb128 0x6
 1047 00fa E9010000 		.4byte	.LASF21
 1048 00fe 04       		.byte	0x4
 1049 00ff A706     		.2byte	0x6a7
 1050 0101 D9000000 		.4byte	0xd9
 1051 0105 07       		.uleb128 0x7
 1052 0106 7C030000 		.4byte	.LASF22
 1053 010a 05       		.byte	0x5
 1054 010b 4C       		.byte	0x4c
 1055 010c DE000000 		.4byte	0xde
 1056 0110 08       		.uleb128 0x8
 1057 0111 08       		.byte	0x8
 1058 0112 06       		.byte	0x6
 1059 0113 5D02     		.2byte	0x25d
 1060 0115 33010000 		.4byte	0x133
 1061 0119 09       		.uleb128 0x9
 1062 011a 435200   		.ascii	"CR\000"
 1063 011d 06       		.byte	0x6
 1064 011e 5F02     		.2byte	0x25f
 1065 0120 E9000000 		.4byte	0xe9
 1066 0124 00       		.byte	0
 1067 0125 09       		.uleb128 0x9
 1068 0126 43535200 		.ascii	"CSR\000"
 1069 012a 06       		.byte	0x6
 1070 012b 6002     		.2byte	0x260
 1071 012d E9000000 		.4byte	0xe9
 1072 0131 04       		.byte	0x4
 1073 0132 00       		.byte	0
 1074 0133 0A       		.uleb128 0xa
 1075 0134 02080000 		.4byte	.LASF23
 1076 0138 06       		.byte	0x6
 1077 0139 6102     		.2byte	0x261
 1078 013b 10010000 		.4byte	0x110
 1079 013f 0B       		.uleb128 0xb
 1080 0140 07       		.byte	0x7
 1081 0141 01       		.byte	0x1
 1082 0142 37000000 		.4byte	0x37
 1083 0146 07       		.byte	0x7
ARM GAS  /tmp/cc5di5Tx.s 			page 20


 1084 0147 35       		.byte	0x35
 1085 0148 83010000 		.4byte	0x183
 1086 014c 0C       		.uleb128 0xc
 1087 014d 73020000 		.4byte	.LASF24
 1088 0151 01       		.byte	0x1
 1089 0152 0C       		.uleb128 0xc
 1090 0153 45080000 		.4byte	.LASF25
 1091 0157 02       		.byte	0x2
 1092 0158 0C       		.uleb128 0xc
 1093 0159 8B070000 		.4byte	.LASF26
 1094 015d 03       		.byte	0x3
 1095 015e 0C       		.uleb128 0xc
 1096 015f 6E070000 		.4byte	.LASF27
 1097 0163 04       		.byte	0x4
 1098 0164 0C       		.uleb128 0xc
 1099 0165 13070000 		.4byte	.LASF28
 1100 0169 05       		.byte	0x5
 1101 016a 0C       		.uleb128 0xc
 1102 016b DC080000 		.4byte	.LASF29
 1103 016f 06       		.byte	0x6
 1104 0170 0C       		.uleb128 0xc
 1105 0171 A5050000 		.4byte	.LASF30
 1106 0175 07       		.byte	0x7
 1107 0176 0C       		.uleb128 0xc
 1108 0177 01090000 		.4byte	.LASF31
 1109 017b 08       		.byte	0x8
 1110 017c 0C       		.uleb128 0xc
 1111 017d F2080000 		.4byte	.LASF32
 1112 0181 09       		.byte	0x9
 1113 0182 00       		.byte	0
 1114 0183 03       		.uleb128 0x3
 1115 0184 03030000 		.4byte	.LASF33
 1116 0188 07       		.byte	0x7
 1117 0189 3F       		.byte	0x3f
 1118 018a 3F010000 		.4byte	0x13f
 1119 018e 03       		.uleb128 0x3
 1120 018f 43030000 		.4byte	.LASF34
 1121 0193 08       		.byte	0x8
 1122 0194 D8       		.byte	0xd8
 1123 0195 A6000000 		.4byte	0xa6
 1124 0199 03       		.uleb128 0x3
 1125 019a 05050000 		.4byte	.LASF35
 1126 019e 09       		.byte	0x9
 1127 019f 45       		.byte	0x45
 1128 01a0 DE000000 		.4byte	0xde
 1129 01a4 03       		.uleb128 0x3
 1130 01a5 A1060000 		.4byte	.LASF36
 1131 01a9 09       		.byte	0x9
 1132 01aa 48       		.byte	0x48
 1133 01ab AD000000 		.4byte	0xad
 1134 01af 03       		.uleb128 0x3
 1135 01b0 CE020000 		.4byte	.LASF37
 1136 01b4 09       		.byte	0x9
 1137 01b5 49       		.byte	0x49
 1138 01b6 AD000000 		.4byte	0xad
 1139 01ba 03       		.uleb128 0x3
 1140 01bb CA050000 		.4byte	.LASF38
ARM GAS  /tmp/cc5di5Tx.s 			page 21


 1141 01bf 09       		.byte	0x9
 1142 01c0 4A       		.byte	0x4a
 1143 01c1 AD000000 		.4byte	0xad
 1144 01c5 03       		.uleb128 0x3
 1145 01c6 9E020000 		.4byte	.LASF39
 1146 01ca 09       		.byte	0x9
 1147 01cb 4B       		.byte	0x4b
 1148 01cc AD000000 		.4byte	0xad
 1149 01d0 03       		.uleb128 0x3
 1150 01d1 00060000 		.4byte	.LASF40
 1151 01d5 09       		.byte	0x9
 1152 01d6 4C       		.byte	0x4c
 1153 01d7 DE000000 		.4byte	0xde
 1154 01db 03       		.uleb128 0x3
 1155 01dc 3C040000 		.4byte	.LASF41
 1156 01e0 09       		.byte	0x9
 1157 01e1 4D       		.byte	0x4d
 1158 01e2 CE000000 		.4byte	0xce
 1159 01e6 03       		.uleb128 0x3
 1160 01e7 2A000000 		.4byte	.LASF42
 1161 01eb 09       		.byte	0x9
 1162 01ec 4F       		.byte	0x4f
 1163 01ed DE000000 		.4byte	0xde
 1164 01f1 03       		.uleb128 0x3
 1165 01f2 61030000 		.4byte	.LASF43
 1166 01f6 09       		.byte	0x9
 1167 01f7 51       		.byte	0x51
 1168 01f8 CE000000 		.4byte	0xce
 1169 01fc 03       		.uleb128 0x3
 1170 01fd BD070000 		.4byte	.LASF44
 1171 0201 0A       		.byte	0xa
 1172 0202 33       		.byte	0x33
 1173 0203 DE000000 		.4byte	0xde
 1174 0207 05       		.uleb128 0x5
 1175 0208 FC010000 		.4byte	0x1fc
 1176 020c 03       		.uleb128 0x3
 1177 020d AD070000 		.4byte	.LASF45
 1178 0211 0A       		.byte	0xa
 1179 0212 3F       		.byte	0x3f
 1180 0213 17020000 		.4byte	0x217
 1181 0217 0D       		.uleb128 0xd
 1182 0218 32040000 		.4byte	.LASF67
 1183 021c 48       		.byte	0x48
 1184 021d 0B       		.byte	0xb
 1185 021e C2       		.byte	0xc2
 1186 021f 1C030000 		.4byte	0x31c
 1187 0223 0E       		.uleb128 0xe
 1188 0224 9A060000 		.4byte	.LASF46
 1189 0228 0B       		.byte	0xb
 1190 0229 C3       		.byte	0xc3
 1191 022a 27030000 		.4byte	0x327
 1192 022e 00       		.byte	0
 1193 022f 0E       		.uleb128 0xe
 1194 0230 F9050000 		.4byte	.LASF47
 1195 0234 0B       		.byte	0xb
 1196 0235 C5       		.byte	0xc5
 1197 0236 27030000 		.4byte	0x327
ARM GAS  /tmp/cc5di5Tx.s 			page 22


 1198 023a 04       		.byte	0x4
 1199 023b 0E       		.uleb128 0xe
 1200 023c 07020000 		.4byte	.LASF48
 1201 0240 0B       		.byte	0xb
 1202 0241 C7       		.byte	0xc7
 1203 0242 D0010000 		.4byte	0x1d0
 1204 0246 08       		.byte	0x8
 1205 0247 0E       		.uleb128 0xe
 1206 0248 28090000 		.4byte	.LASF49
 1207 024c 0B       		.byte	0xb
 1208 024d C8       		.byte	0xc8
 1209 024e 50050000 		.4byte	0x550
 1210 0252 0C       		.byte	0xc
 1211 0253 0E       		.uleb128 0xe
 1212 0254 EA020000 		.4byte	.LASF50
 1213 0258 0B       		.byte	0xb
 1214 0259 CA       		.byte	0xca
 1215 025a 27030000 		.4byte	0x327
 1216 025e 10       		.byte	0x10
 1217 025f 0E       		.uleb128 0xe
 1218 0260 7D050000 		.4byte	.LASF51
 1219 0264 0B       		.byte	0xb
 1220 0265 CB       		.byte	0xcb
 1221 0266 27030000 		.4byte	0x327
 1222 026a 14       		.byte	0x14
 1223 026b 0E       		.uleb128 0xe
 1224 026c B0080000 		.4byte	.LASF52
 1225 0270 0B       		.byte	0xb
 1226 0271 D2       		.byte	0xd2
 1227 0272 95070000 		.4byte	0x795
 1228 0276 18       		.byte	0x18
 1229 0277 0E       		.uleb128 0xe
 1230 0278 64060000 		.4byte	.LASF53
 1231 027c 0B       		.byte	0xb
 1232 027d DD       		.byte	0xdd
 1233 027e AF010000 		.4byte	0x1af
 1234 0282 1C       		.byte	0x1c
 1235 0283 0E       		.uleb128 0xe
 1236 0284 B8060000 		.4byte	.LASF54
 1237 0288 0B       		.byte	0xb
 1238 0289 E1       		.byte	0xe1
 1239 028a A4010000 		.4byte	0x1a4
 1240 028e 1D       		.byte	0x1d
 1241 028f 0E       		.uleb128 0xe
 1242 0290 5F080000 		.4byte	.LASF55
 1243 0294 0B       		.byte	0xb
 1244 0295 E6       		.byte	0xe6
 1245 0296 BA010000 		.4byte	0x1ba
 1246 029a 1E       		.byte	0x1e
 1247 029b 0E       		.uleb128 0xe
 1248 029c 7E060000 		.4byte	.LASF56
 1249 02a0 0B       		.byte	0xb
 1250 02a1 EC       		.byte	0xec
 1251 02a2 C5010000 		.4byte	0x1c5
 1252 02a6 1F       		.byte	0x1f
 1253 02a7 0E       		.uleb128 0xe
 1254 02a8 0E080000 		.4byte	.LASF57
ARM GAS  /tmp/cc5di5Tx.s 			page 23


 1255 02ac 0B       		.byte	0xb
 1256 02ad F3       		.byte	0xf3
 1257 02ae 07020000 		.4byte	0x207
 1258 02b2 20       		.byte	0x20
 1259 02b3 09       		.uleb128 0x9
 1260 02b4 705F7500 		.ascii	"p_u\000"
 1261 02b8 0B       		.byte	0xb
 1262 02b9 3101     		.2byte	0x131
 1263 02bb D0060000 		.4byte	0x6d0
 1264 02bf 24       		.byte	0x24
 1265 02c0 0F       		.uleb128 0xf
 1266 02c1 2E090000 		.4byte	.LASF58
 1267 02c5 0B       		.byte	0xb
 1268 02c6 3601     		.2byte	0x136
 1269 02c8 2D030000 		.4byte	0x32d
 1270 02cc 28       		.byte	0x28
 1271 02cd 0F       		.uleb128 0xf
 1272 02ce 23080000 		.4byte	.LASF59
 1273 02d2 0B       		.byte	0xb
 1274 02d3 3C01     		.2byte	0x13c
 1275 02d5 51030000 		.4byte	0x351
 1276 02d9 2C       		.byte	0x2c
 1277 02da 0F       		.uleb128 0xf
 1278 02db EC080000 		.4byte	.LASF60
 1279 02df 0B       		.byte	0xb
 1280 02e0 4001     		.2byte	0x140
 1281 02e2 DB010000 		.4byte	0x1db
 1282 02e6 34       		.byte	0x34
 1283 02e7 0F       		.uleb128 0xf
 1284 02e8 08070000 		.4byte	.LASF61
 1285 02ec 0B       		.byte	0xb
 1286 02ed 4601     		.2byte	0x146
 1287 02ef E6010000 		.4byte	0x1e6
 1288 02f3 38       		.byte	0x38
 1289 02f4 0F       		.uleb128 0xf
 1290 02f5 50060000 		.4byte	.LASF62
 1291 02f9 0B       		.byte	0xb
 1292 02fa 4D01     		.2byte	0x14d
 1293 02fc 8F070000 		.4byte	0x78f
 1294 0300 3C       		.byte	0x3c
 1295 0301 0F       		.uleb128 0xf
 1296 0302 C7070000 		.4byte	.LASF63
 1297 0306 0B       		.byte	0xb
 1298 0307 5101     		.2byte	0x151
 1299 0309 D0010000 		.4byte	0x1d0
 1300 030d 40       		.byte	0x40
 1301 030e 0F       		.uleb128 0xf
 1302 030f 63020000 		.4byte	.LASF64
 1303 0313 0B       		.byte	0xb
 1304 0314 5801     		.2byte	0x158
 1305 0316 04040000 		.4byte	0x404
 1306 031a 44       		.byte	0x44
 1307 031b 00       		.byte	0
 1308 031c 03       		.uleb128 0x3
 1309 031d 0D050000 		.4byte	.LASF65
 1310 0321 0A       		.byte	0xa
 1311 0322 44       		.byte	0x44
ARM GAS  /tmp/cc5di5Tx.s 			page 24


 1312 0323 27030000 		.4byte	0x327
 1313 0327 10       		.uleb128 0x10
 1314 0328 04       		.byte	0x4
 1315 0329 0C020000 		.4byte	0x20c
 1316 032d 03       		.uleb128 0x3
 1317 032e CD080000 		.4byte	.LASF66
 1318 0332 0A       		.byte	0xa
 1319 0333 49       		.byte	0x49
 1320 0334 38030000 		.4byte	0x338
 1321 0338 0D       		.uleb128 0xd
 1322 0339 3D070000 		.4byte	.LASF68
 1323 033d 04       		.byte	0x4
 1324 033e 0B       		.byte	0xb
 1325 033f B0       		.byte	0xb0
 1326 0340 51030000 		.4byte	0x351
 1327 0344 0E       		.uleb128 0xe
 1328 0345 9A060000 		.4byte	.LASF46
 1329 0349 0B       		.byte	0xb
 1330 034a B1       		.byte	0xb1
 1331 034b 27030000 		.4byte	0x327
 1332 034f 00       		.byte	0
 1333 0350 00       		.byte	0
 1334 0351 03       		.uleb128 0x3
 1335 0352 CD060000 		.4byte	.LASF69
 1336 0356 0A       		.byte	0xa
 1337 0357 50       		.byte	0x50
 1338 0358 5C030000 		.4byte	0x35c
 1339 035c 0D       		.uleb128 0xd
 1340 035d F6010000 		.4byte	.LASF70
 1341 0361 08       		.byte	0x8
 1342 0362 0B       		.byte	0xb
 1343 0363 B7       		.byte	0xb7
 1344 0364 81030000 		.4byte	0x381
 1345 0368 0E       		.uleb128 0xe
 1346 0369 9A060000 		.4byte	.LASF46
 1347 036d 0B       		.byte	0xb
 1348 036e B8       		.byte	0xb8
 1349 036f 27030000 		.4byte	0x327
 1350 0373 00       		.byte	0
 1351 0374 0E       		.uleb128 0xe
 1352 0375 F9050000 		.4byte	.LASF47
 1353 0379 0B       		.byte	0xb
 1354 037a B9       		.byte	0xb9
 1355 037b 27030000 		.4byte	0x327
 1356 037f 04       		.byte	0x4
 1357 0380 00       		.byte	0
 1358 0381 03       		.uleb128 0x3
 1359 0382 0D000000 		.4byte	.LASF71
 1360 0386 0A       		.byte	0xa
 1361 0387 57       		.byte	0x57
 1362 0388 8C030000 		.4byte	0x38c
 1363 038c 11       		.uleb128 0x11
 1364 038d CB030000 		.4byte	.LASF72
 1365 0391 1C       		.byte	0x1c
 1366 0392 0B       		.byte	0xb
 1367 0393 9001     		.2byte	0x190
 1368 0395 E8030000 		.4byte	0x3e8
ARM GAS  /tmp/cc5di5Tx.s 			page 25


 1369 0399 0F       		.uleb128 0xf
 1370 039a 2A070000 		.4byte	.LASF73
 1371 039e 0B       		.byte	0xb
 1372 039f 9101     		.2byte	0x191
 1373 03a1 51030000 		.4byte	0x351
 1374 03a5 00       		.byte	0
 1375 03a6 0F       		.uleb128 0xf
 1376 03a7 FE040000 		.4byte	.LASF74
 1377 03ab 0B       		.byte	0xb
 1378 03ac 9201     		.2byte	0x192
 1379 03ae D0010000 		.4byte	0x1d0
 1380 03b2 08       		.byte	0x8
 1381 03b3 0F       		.uleb128 0xf
 1382 03b4 85050000 		.4byte	.LASF75
 1383 03b8 0B       		.byte	0xb
 1384 03b9 9401     		.2byte	0x194
 1385 03bb 50050000 		.4byte	0x550
 1386 03bf 0C       		.byte	0xc
 1387 03c0 0F       		.uleb128 0xf
 1388 03c1 10030000 		.4byte	.LASF76
 1389 03c5 0B       		.byte	0xb
 1390 03c6 9701     		.2byte	0x197
 1391 03c8 27030000 		.4byte	0x327
 1392 03cc 10       		.byte	0x10
 1393 03cd 0F       		.uleb128 0xf
 1394 03ce 9D050000 		.4byte	.LASF77
 1395 03d2 0B       		.byte	0xb
 1396 03d3 9801     		.2byte	0x198
 1397 03d5 27030000 		.4byte	0x327
 1398 03d9 14       		.byte	0x14
 1399 03da 0F       		.uleb128 0xf
 1400 03db 93050000 		.4byte	.LASF78
 1401 03df 0B       		.byte	0xb
 1402 03e0 9B01     		.2byte	0x19b
 1403 03e2 27030000 		.4byte	0x327
 1404 03e6 18       		.byte	0x18
 1405 03e7 00       		.byte	0
 1406 03e8 03       		.uleb128 0x3
 1407 03e9 D9030000 		.4byte	.LASF79
 1408 03ed 0A       		.byte	0xa
 1409 03ee 5C       		.byte	0x5c
 1410 03ef F3030000 		.4byte	0x3f3
 1411 03f3 10       		.uleb128 0x10
 1412 03f4 04       		.byte	0x4
 1413 03f5 F9030000 		.4byte	0x3f9
 1414 03f9 12       		.uleb128 0x12
 1415 03fa 04040000 		.4byte	0x404
 1416 03fe 13       		.uleb128 0x13
 1417 03ff 04040000 		.4byte	0x404
 1418 0403 00       		.byte	0
 1419 0404 14       		.uleb128 0x14
 1420 0405 04       		.byte	0x4
 1421 0406 03       		.uleb128 0x3
 1422 0407 E9050000 		.4byte	.LASF80
 1423 040b 0A       		.byte	0xa
 1424 040c 61       		.byte	0x61
 1425 040d 11040000 		.4byte	0x411
ARM GAS  /tmp/cc5di5Tx.s 			page 26


 1426 0411 11       		.uleb128 0x11
 1427 0412 DD060000 		.4byte	.LASF81
 1428 0416 14       		.byte	0x14
 1429 0417 0B       		.byte	0xb
 1430 0418 6B01     		.2byte	0x16b
 1431 041a 60040000 		.4byte	0x460
 1432 041e 0F       		.uleb128 0xf
 1433 041f 74030000 		.4byte	.LASF82
 1434 0423 0B       		.byte	0xb
 1435 0424 6C01     		.2byte	0x16c
 1436 0426 AC070000 		.4byte	0x7ac
 1437 042a 00       		.byte	0
 1438 042b 0F       		.uleb128 0xf
 1439 042c 21030000 		.4byte	.LASF83
 1440 0430 0B       		.byte	0xb
 1441 0431 6D01     		.2byte	0x16d
 1442 0433 AC070000 		.4byte	0x7ac
 1443 0437 04       		.byte	0x4
 1444 0438 0F       		.uleb128 0xf
 1445 0439 93030000 		.4byte	.LASF84
 1446 043d 0B       		.byte	0xb
 1447 043e 6E01     		.2byte	0x16e
 1448 0440 FC010000 		.4byte	0x1fc
 1449 0444 08       		.byte	0x8
 1450 0445 0F       		.uleb128 0xf
 1451 0446 85010000 		.4byte	.LASF85
 1452 044a 0B       		.byte	0xb
 1453 044b 6F01     		.2byte	0x16f
 1454 044d E8030000 		.4byte	0x3e8
 1455 0451 0C       		.byte	0xc
 1456 0452 0F       		.uleb128 0xf
 1457 0453 3E080000 		.4byte	.LASF86
 1458 0457 0B       		.byte	0xb
 1459 0458 7101     		.2byte	0x171
 1460 045a 04040000 		.4byte	0x404
 1461 045e 10       		.byte	0x10
 1462 045f 00       		.byte	0
 1463 0460 03       		.uleb128 0x3
 1464 0461 C7010000 		.4byte	.LASF87
 1465 0465 0A       		.byte	0xa
 1466 0466 66       		.byte	0x66
 1467 0467 6B040000 		.4byte	0x46b
 1468 046b 11       		.uleb128 0x11
 1469 046c 31050000 		.4byte	.LASF88
 1470 0470 10       		.byte	0x10
 1471 0471 0B       		.byte	0xb
 1472 0472 7B01     		.2byte	0x17b
 1473 0474 AD040000 		.4byte	0x4ad
 1474 0478 0F       		.uleb128 0xf
 1475 0479 74030000 		.4byte	.LASF82
 1476 047d 0B       		.byte	0xb
 1477 047e 7C01     		.2byte	0x17c
 1478 0480 AC070000 		.4byte	0x7ac
 1479 0484 00       		.byte	0
 1480 0485 0F       		.uleb128 0xf
 1481 0486 21030000 		.4byte	.LASF83
 1482 048a 0B       		.byte	0xb
ARM GAS  /tmp/cc5di5Tx.s 			page 27


 1483 048b 7E01     		.2byte	0x17e
 1484 048d AC070000 		.4byte	0x7ac
 1485 0491 04       		.byte	0x4
 1486 0492 0F       		.uleb128 0xf
 1487 0493 93030000 		.4byte	.LASF84
 1488 0497 0B       		.byte	0xb
 1489 0498 8001     		.2byte	0x180
 1490 049a FC010000 		.4byte	0x1fc
 1491 049e 08       		.byte	0x8
 1492 049f 0F       		.uleb128 0xf
 1493 04a0 32070000 		.4byte	.LASF89
 1494 04a4 0B       		.byte	0xb
 1495 04a5 8201     		.2byte	0x182
 1496 04a7 07020000 		.4byte	0x207
 1497 04ab 0C       		.byte	0xc
 1498 04ac 00       		.byte	0
 1499 04ad 03       		.uleb128 0x3
 1500 04ae 9C030000 		.4byte	.LASF90
 1501 04b2 0A       		.byte	0xa
 1502 04b3 6B       		.byte	0x6b
 1503 04b4 B8040000 		.4byte	0x4b8
 1504 04b8 11       		.uleb128 0x11
 1505 04b9 0D060000 		.4byte	.LASF91
 1506 04bd 04       		.byte	0x4
 1507 04be 0B       		.byte	0xb
 1508 04bf A201     		.2byte	0x1a2
 1509 04c1 D3040000 		.4byte	0x4d3
 1510 04c5 0F       		.uleb128 0xf
 1511 04c6 E5070000 		.4byte	.LASF92
 1512 04ca 0B       		.byte	0xb
 1513 04cb AA01     		.2byte	0x1aa
 1514 04cd 9B070000 		.4byte	0x79b
 1515 04d1 00       		.byte	0
 1516 04d2 00       		.byte	0
 1517 04d3 03       		.uleb128 0x3
 1518 04d4 5D040000 		.4byte	.LASF93
 1519 04d8 0A       		.byte	0xa
 1520 04d9 70       		.byte	0x70
 1521 04da DE040000 		.4byte	0x4de
 1522 04de 15       		.uleb128 0x15
 1523 04df BB020000 		.4byte	.LASF94
 1524 04e3 5802     		.2byte	0x258
 1525 04e5 0B       		.byte	0xb
 1526 04e6 C201     		.2byte	0x1c2
 1527 04e8 3A050000 		.4byte	0x53a
 1528 04ec 0F       		.uleb128 0xf
 1529 04ed 6E080000 		.4byte	.LASF95
 1530 04f1 0B       		.byte	0xb
 1531 04f2 C601     		.2byte	0x1c6
 1532 04f4 81030000 		.4byte	0x381
 1533 04f8 00       		.byte	0
 1534 04f9 0F       		.uleb128 0xf
 1535 04fa 5A000000 		.4byte	.LASF96
 1536 04fe 0B       		.byte	0xb
 1537 04ff CA01     		.2byte	0x1ca
 1538 0501 60040000 		.4byte	0x460
 1539 0505 1C       		.byte	0x1c
ARM GAS  /tmp/cc5di5Tx.s 			page 28


 1540 0506 09       		.uleb128 0x9
 1541 0507 64626700 		.ascii	"dbg\000"
 1542 050b 0B       		.byte	0xb
 1543 050c CE01     		.2byte	0x1ce
 1544 050e AD040000 		.4byte	0x4ad
 1545 0512 2C       		.byte	0x2c
 1546 0513 0F       		.uleb128 0xf
 1547 0514 B5010000 		.4byte	.LASF97
 1548 0518 0B       		.byte	0xb
 1549 0519 D201     		.2byte	0x1d2
 1550 051b 0C020000 		.4byte	0x20c
 1551 051f 30       		.byte	0x30
 1552 0520 09       		.uleb128 0x9
 1553 0521 746D00   		.ascii	"tm\000"
 1554 0524 0B       		.byte	0xb
 1555 0525 D701     		.2byte	0x1d7
 1556 0527 C5060000 		.4byte	0x6c5
 1557 052b 78       		.byte	0x78
 1558 052c 0F       		.uleb128 0xf
 1559 052d 52030000 		.4byte	.LASF98
 1560 0531 0B       		.byte	0xb
 1561 0532 E301     		.2byte	0x1e3
 1562 0534 B2070000 		.4byte	0x7b2
 1563 0538 80       		.byte	0x80
 1564 0539 00       		.byte	0
 1565 053a 03       		.uleb128 0x3
 1566 053b 18030000 		.4byte	.LASF99
 1567 053f 0C       		.byte	0xc
 1568 0540 65       		.byte	0x65
 1569 0541 04040000 		.4byte	0x404
 1570 0545 03       		.uleb128 0x3
 1571 0546 BF040000 		.4byte	.LASF100
 1572 054a 0C       		.byte	0xc
 1573 054b 6D       		.byte	0x6d
 1574 054c EE000000 		.4byte	0xee
 1575 0550 0D       		.uleb128 0xd
 1576 0551 F6030000 		.4byte	.LASF101
 1577 0555 04       		.byte	0x4
 1578 0556 0C       		.byte	0xc
 1579 0557 89       		.byte	0x89
 1580 0558 69050000 		.4byte	0x569
 1581 055c 16       		.uleb128 0x16
 1582 055d 72313300 		.ascii	"r13\000"
 1583 0561 0C       		.byte	0xc
 1584 0562 8A       		.byte	0x8a
 1585 0563 AA060000 		.4byte	0x6aa
 1586 0567 00       		.byte	0
 1587 0568 00       		.byte	0
 1588 0569 0D       		.uleb128 0xd
 1589 056a 4E000000 		.4byte	.LASF102
 1590 056e 64       		.byte	0x64
 1591 056f 0D       		.byte	0xd
 1592 0570 F4       		.byte	0xf4
 1593 0571 AA060000 		.4byte	0x6aa
 1594 0575 16       		.uleb128 0x16
 1595 0576 73313600 		.ascii	"s16\000"
 1596 057a 0D       		.byte	0xd
ARM GAS  /tmp/cc5di5Tx.s 			page 29


 1597 057b F6       		.byte	0xf6
 1598 057c 3A050000 		.4byte	0x53a
 1599 0580 00       		.byte	0
 1600 0581 16       		.uleb128 0x16
 1601 0582 73313700 		.ascii	"s17\000"
 1602 0586 0D       		.byte	0xd
 1603 0587 F7       		.byte	0xf7
 1604 0588 3A050000 		.4byte	0x53a
 1605 058c 04       		.byte	0x4
 1606 058d 16       		.uleb128 0x16
 1607 058e 73313800 		.ascii	"s18\000"
 1608 0592 0D       		.byte	0xd
 1609 0593 F8       		.byte	0xf8
 1610 0594 3A050000 		.4byte	0x53a
 1611 0598 08       		.byte	0x8
 1612 0599 16       		.uleb128 0x16
 1613 059a 73313900 		.ascii	"s19\000"
 1614 059e 0D       		.byte	0xd
 1615 059f F9       		.byte	0xf9
 1616 05a0 3A050000 		.4byte	0x53a
 1617 05a4 0C       		.byte	0xc
 1618 05a5 16       		.uleb128 0x16
 1619 05a6 73323000 		.ascii	"s20\000"
 1620 05aa 0D       		.byte	0xd
 1621 05ab FA       		.byte	0xfa
 1622 05ac 3A050000 		.4byte	0x53a
 1623 05b0 10       		.byte	0x10
 1624 05b1 16       		.uleb128 0x16
 1625 05b2 73323100 		.ascii	"s21\000"
 1626 05b6 0D       		.byte	0xd
 1627 05b7 FB       		.byte	0xfb
 1628 05b8 3A050000 		.4byte	0x53a
 1629 05bc 14       		.byte	0x14
 1630 05bd 16       		.uleb128 0x16
 1631 05be 73323200 		.ascii	"s22\000"
 1632 05c2 0D       		.byte	0xd
 1633 05c3 FC       		.byte	0xfc
 1634 05c4 3A050000 		.4byte	0x53a
 1635 05c8 18       		.byte	0x18
 1636 05c9 16       		.uleb128 0x16
 1637 05ca 73323300 		.ascii	"s23\000"
 1638 05ce 0D       		.byte	0xd
 1639 05cf FD       		.byte	0xfd
 1640 05d0 3A050000 		.4byte	0x53a
 1641 05d4 1C       		.byte	0x1c
 1642 05d5 16       		.uleb128 0x16
 1643 05d6 73323400 		.ascii	"s24\000"
 1644 05da 0D       		.byte	0xd
 1645 05db FE       		.byte	0xfe
 1646 05dc 3A050000 		.4byte	0x53a
 1647 05e0 20       		.byte	0x20
 1648 05e1 16       		.uleb128 0x16
 1649 05e2 73323500 		.ascii	"s25\000"
 1650 05e6 0D       		.byte	0xd
 1651 05e7 FF       		.byte	0xff
 1652 05e8 3A050000 		.4byte	0x53a
 1653 05ec 24       		.byte	0x24
ARM GAS  /tmp/cc5di5Tx.s 			page 30


 1654 05ed 09       		.uleb128 0x9
 1655 05ee 73323600 		.ascii	"s26\000"
 1656 05f2 0D       		.byte	0xd
 1657 05f3 0001     		.2byte	0x100
 1658 05f5 3A050000 		.4byte	0x53a
 1659 05f9 28       		.byte	0x28
 1660 05fa 09       		.uleb128 0x9
 1661 05fb 73323700 		.ascii	"s27\000"
 1662 05ff 0D       		.byte	0xd
 1663 0600 0101     		.2byte	0x101
 1664 0602 3A050000 		.4byte	0x53a
 1665 0606 2C       		.byte	0x2c
 1666 0607 09       		.uleb128 0x9
 1667 0608 73323800 		.ascii	"s28\000"
 1668 060c 0D       		.byte	0xd
 1669 060d 0201     		.2byte	0x102
 1670 060f 3A050000 		.4byte	0x53a
 1671 0613 30       		.byte	0x30
 1672 0614 09       		.uleb128 0x9
 1673 0615 73323900 		.ascii	"s29\000"
 1674 0619 0D       		.byte	0xd
 1675 061a 0301     		.2byte	0x103
 1676 061c 3A050000 		.4byte	0x53a
 1677 0620 34       		.byte	0x34
 1678 0621 09       		.uleb128 0x9
 1679 0622 73333000 		.ascii	"s30\000"
 1680 0626 0D       		.byte	0xd
 1681 0627 0401     		.2byte	0x104
 1682 0629 3A050000 		.4byte	0x53a
 1683 062d 38       		.byte	0x38
 1684 062e 09       		.uleb128 0x9
 1685 062f 73333100 		.ascii	"s31\000"
 1686 0633 0D       		.byte	0xd
 1687 0634 0501     		.2byte	0x105
 1688 0636 3A050000 		.4byte	0x53a
 1689 063a 3C       		.byte	0x3c
 1690 063b 09       		.uleb128 0x9
 1691 063c 723400   		.ascii	"r4\000"
 1692 063f 0D       		.byte	0xd
 1693 0640 0701     		.2byte	0x107
 1694 0642 3A050000 		.4byte	0x53a
 1695 0646 40       		.byte	0x40
 1696 0647 09       		.uleb128 0x9
 1697 0648 723500   		.ascii	"r5\000"
 1698 064b 0D       		.byte	0xd
 1699 064c 0801     		.2byte	0x108
 1700 064e 3A050000 		.4byte	0x53a
 1701 0652 44       		.byte	0x44
 1702 0653 09       		.uleb128 0x9
 1703 0654 723600   		.ascii	"r6\000"
 1704 0657 0D       		.byte	0xd
 1705 0658 0901     		.2byte	0x109
 1706 065a 3A050000 		.4byte	0x53a
 1707 065e 48       		.byte	0x48
 1708 065f 09       		.uleb128 0x9
 1709 0660 723700   		.ascii	"r7\000"
 1710 0663 0D       		.byte	0xd
ARM GAS  /tmp/cc5di5Tx.s 			page 31


 1711 0664 0A01     		.2byte	0x10a
 1712 0666 3A050000 		.4byte	0x53a
 1713 066a 4C       		.byte	0x4c
 1714 066b 09       		.uleb128 0x9
 1715 066c 723800   		.ascii	"r8\000"
 1716 066f 0D       		.byte	0xd
 1717 0670 0B01     		.2byte	0x10b
 1718 0672 3A050000 		.4byte	0x53a
 1719 0676 50       		.byte	0x50
 1720 0677 09       		.uleb128 0x9
 1721 0678 723900   		.ascii	"r9\000"
 1722 067b 0D       		.byte	0xd
 1723 067c 0C01     		.2byte	0x10c
 1724 067e 3A050000 		.4byte	0x53a
 1725 0682 54       		.byte	0x54
 1726 0683 09       		.uleb128 0x9
 1727 0684 72313000 		.ascii	"r10\000"
 1728 0688 0D       		.byte	0xd
 1729 0689 0D01     		.2byte	0x10d
 1730 068b 3A050000 		.4byte	0x53a
 1731 068f 58       		.byte	0x58
 1732 0690 09       		.uleb128 0x9
 1733 0691 72313100 		.ascii	"r11\000"
 1734 0695 0D       		.byte	0xd
 1735 0696 0E01     		.2byte	0x10e
 1736 0698 3A050000 		.4byte	0x53a
 1737 069c 5C       		.byte	0x5c
 1738 069d 09       		.uleb128 0x9
 1739 069e 6C7200   		.ascii	"lr\000"
 1740 06a1 0D       		.byte	0xd
 1741 06a2 0F01     		.2byte	0x10f
 1742 06a4 3A050000 		.4byte	0x53a
 1743 06a8 60       		.byte	0x60
 1744 06a9 00       		.byte	0
 1745 06aa 10       		.uleb128 0x10
 1746 06ab 04       		.byte	0x4
 1747 06ac 69050000 		.4byte	0x569
 1748 06b0 17       		.uleb128 0x17
 1749 06b1 04       		.byte	0x4
 1750 06b2 0E       		.byte	0xe
 1751 06b3 38       		.byte	0x38
 1752 06b4 C5060000 		.4byte	0x6c5
 1753 06b8 0E       		.uleb128 0xe
 1754 06b9 FB070000 		.4byte	.LASF103
 1755 06bd 0E       		.byte	0xe
 1756 06be 3C       		.byte	0x3c
 1757 06bf 99010000 		.4byte	0x199
 1758 06c3 00       		.byte	0
 1759 06c4 00       		.byte	0
 1760 06c5 03       		.uleb128 0x3
 1761 06c6 20050000 		.4byte	.LASF104
 1762 06ca 0E       		.byte	0xe
 1763 06cb 3D       		.byte	0x3d
 1764 06cc B0060000 		.4byte	0x6b0
 1765 06d0 18       		.uleb128 0x18
 1766 06d1 04       		.byte	0x4
 1767 06d2 0B       		.byte	0xb
ARM GAS  /tmp/cc5di5Tx.s 			page 32


 1768 06d3 FA       		.byte	0xfa
 1769 06d4 2D070000 		.4byte	0x72d
 1770 06d8 19       		.uleb128 0x19
 1771 06d9 1A000000 		.4byte	.LASF105
 1772 06dd 0B       		.byte	0xb
 1773 06de 0101     		.2byte	0x101
 1774 06e0 DB010000 		.4byte	0x1db
 1775 06e4 19       		.uleb128 0x19
 1776 06e5 FA020000 		.4byte	.LASF106
 1777 06e9 0B       		.byte	0xb
 1778 06ea 0801     		.2byte	0x108
 1779 06ec DB010000 		.4byte	0x1db
 1780 06f0 19       		.uleb128 0x19
 1781 06f1 97020000 		.4byte	.LASF107
 1782 06f5 0B       		.byte	0xb
 1783 06f6 0F01     		.2byte	0x10f
 1784 06f8 04040000 		.4byte	0x404
 1785 06fc 19       		.uleb128 0x19
 1786 06fd B5020000 		.4byte	.LASF108
 1787 0701 0B       		.byte	0xb
 1788 0702 1601     		.2byte	0x116
 1789 0704 2D070000 		.4byte	0x72d
 1790 0708 19       		.uleb128 0x19
 1791 0709 8C030000 		.4byte	.LASF109
 1792 070d 0B       		.byte	0xb
 1793 070e 1E01     		.2byte	0x11e
 1794 0710 58070000 		.4byte	0x758
 1795 0714 19       		.uleb128 0x19
 1796 0715 23070000 		.4byte	.LASF110
 1797 0719 0B       		.byte	0xb
 1798 071a 2701     		.2byte	0x127
 1799 071c 8F070000 		.4byte	0x78f
 1800 0720 19       		.uleb128 0x19
 1801 0721 93060000 		.4byte	.LASF111
 1802 0725 0B       		.byte	0xb
 1803 0726 2F01     		.2byte	0x12f
 1804 0728 E6010000 		.4byte	0x1e6
 1805 072c 00       		.byte	0
 1806 072d 10       		.uleb128 0x10
 1807 072e 04       		.byte	0x4
 1808 072f 1C030000 		.4byte	0x31c
 1809 0733 0D       		.uleb128 0xd
 1810 0734 FB060000 		.4byte	.LASF112
 1811 0738 0C       		.byte	0xc
 1812 0739 0F       		.byte	0xf
 1813 073a 34       		.byte	0x34
 1814 073b 58070000 		.4byte	0x758
 1815 073f 0E       		.uleb128 0xe
 1816 0740 F2020000 		.4byte	.LASF113
 1817 0744 0F       		.byte	0xf
 1818 0745 35       		.byte	0x35
 1819 0746 51030000 		.4byte	0x351
 1820 074a 00       		.byte	0
 1821 074b 0E       		.uleb128 0xe
 1822 074c F0030000 		.4byte	.LASF114
 1823 0750 0F       		.byte	0xf
 1824 0751 37       		.byte	0x37
ARM GAS  /tmp/cc5di5Tx.s 			page 33


 1825 0752 F1010000 		.4byte	0x1f1
 1826 0756 08       		.byte	0x8
 1827 0757 00       		.byte	0
 1828 0758 10       		.uleb128 0x10
 1829 0759 04       		.byte	0x4
 1830 075a 33070000 		.4byte	0x733
 1831 075e 0D       		.uleb128 0xd
 1832 075f A7080000 		.4byte	.LASF115
 1833 0763 10       		.byte	0x10
 1834 0764 10       		.byte	0x10
 1835 0765 39       		.byte	0x39
 1836 0766 8F070000 		.4byte	0x78f
 1837 076a 0E       		.uleb128 0xe
 1838 076b 6B020000 		.4byte	.LASF116
 1839 076f 10       		.byte	0x10
 1840 0770 3A       		.byte	0x3a
 1841 0771 51030000 		.4byte	0x351
 1842 0775 00       		.byte	0
 1843 0776 0E       		.uleb128 0xe
 1844 0777 17090000 		.4byte	.LASF117
 1845 077b 10       		.byte	0x10
 1846 077c 3C       		.byte	0x3c
 1847 077d 27030000 		.4byte	0x327
 1848 0781 08       		.byte	0x8
 1849 0782 0E       		.uleb128 0xe
 1850 0783 B6070000 		.4byte	.LASF118
 1851 0787 10       		.byte	0x10
 1852 0788 3E       		.byte	0x3e
 1853 0789 E4080000 		.4byte	0x8e4
 1854 078d 0C       		.byte	0xc
 1855 078e 00       		.byte	0
 1856 078f 10       		.uleb128 0x10
 1857 0790 04       		.byte	0x4
 1858 0791 5E070000 		.4byte	0x75e
 1859 0795 10       		.uleb128 0x10
 1860 0796 04       		.byte	0x4
 1861 0797 A7070000 		.4byte	0x7a7
 1862 079b 05       		.uleb128 0x5
 1863 079c 95070000 		.4byte	0x795
 1864 07a0 02       		.uleb128 0x2
 1865 07a1 01       		.byte	0x1
 1866 07a2 08       		.byte	0x8
 1867 07a3 69070000 		.4byte	.LASF119
 1868 07a7 1A       		.uleb128 0x1a
 1869 07a8 A0070000 		.4byte	0x7a0
 1870 07ac 10       		.uleb128 0x10
 1871 07ad 04       		.byte	0x4
 1872 07ae 06040000 		.4byte	0x406
 1873 07b2 1B       		.uleb128 0x1b
 1874 07b3 45050000 		.4byte	0x545
 1875 07b7 C2070000 		.4byte	0x7c2
 1876 07bb 1C       		.uleb128 0x1c
 1877 07bc A6000000 		.4byte	0xa6
 1878 07c0 3A       		.byte	0x3a
 1879 07c1 00       		.byte	0
 1880 07c2 1D       		.uleb128 0x1d
 1881 07c3 636800   		.ascii	"ch\000"
ARM GAS  /tmp/cc5di5Tx.s 			page 34


 1882 07c6 0B       		.byte	0xb
 1883 07c7 0902     		.2byte	0x209
 1884 07c9 D3040000 		.4byte	0x4d3
 1885 07cd 17       		.uleb128 0x17
 1886 07ce 16       		.byte	0x16
 1887 07cf 11       		.byte	0x11
 1888 07d0 34       		.byte	0x34
 1889 07d1 AE080000 		.4byte	0x8ae
 1890 07d5 0E       		.uleb128 0xe
 1891 07d6 E2030000 		.4byte	.LASF120
 1892 07da 11       		.byte	0x11
 1893 07db 35       		.byte	0x35
 1894 07dc AE080000 		.4byte	0x8ae
 1895 07e0 00       		.byte	0
 1896 07e1 0E       		.uleb128 0xe
 1897 07e2 CA040000 		.4byte	.LASF121
 1898 07e6 11       		.byte	0x11
 1899 07e7 36       		.byte	0x36
 1900 07e8 AD000000 		.4byte	0xad
 1901 07ec 04       		.byte	0x4
 1902 07ed 0E       		.uleb128 0xe
 1903 07ee 8B050000 		.4byte	.LASF122
 1904 07f2 11       		.byte	0x11
 1905 07f3 37       		.byte	0x37
 1906 07f4 AD000000 		.4byte	0xad
 1907 07f8 05       		.byte	0x5
 1908 07f9 0E       		.uleb128 0xe
 1909 07fa 88060000 		.4byte	.LASF123
 1910 07fe 11       		.byte	0x11
 1911 07ff 38       		.byte	0x38
 1912 0800 C3000000 		.4byte	0xc3
 1913 0804 06       		.byte	0x6
 1914 0805 0E       		.uleb128 0xe
 1915 0806 DE050000 		.4byte	.LASF124
 1916 080a 11       		.byte	0x11
 1917 080b 39       		.byte	0x39
 1918 080c AD000000 		.4byte	0xad
 1919 0810 08       		.byte	0x8
 1920 0811 0E       		.uleb128 0xe
 1921 0812 59050000 		.4byte	.LASF125
 1922 0816 11       		.byte	0x11
 1923 0817 3A       		.byte	0x3a
 1924 0818 AD000000 		.4byte	0xad
 1925 081c 09       		.byte	0x9
 1926 081d 0E       		.uleb128 0xe
 1927 081e 40000000 		.4byte	.LASF126
 1928 0822 11       		.byte	0x11
 1929 0823 3B       		.byte	0x3b
 1930 0824 AD000000 		.4byte	0xad
 1931 0828 0A       		.byte	0xa
 1932 0829 0E       		.uleb128 0xe
 1933 082a EF070000 		.4byte	.LASF127
 1934 082e 11       		.byte	0x11
 1935 082f 3C       		.byte	0x3c
 1936 0830 AD000000 		.4byte	0xad
 1937 0834 0B       		.byte	0xb
 1938 0835 0E       		.uleb128 0xe
ARM GAS  /tmp/cc5di5Tx.s 			page 35


 1939 0836 54080000 		.4byte	.LASF128
 1940 083a 11       		.byte	0x11
 1941 083b 3D       		.byte	0x3d
 1942 083c AD000000 		.4byte	0xad
 1943 0840 0C       		.byte	0xc
 1944 0841 0E       		.uleb128 0xe
 1945 0842 EE060000 		.4byte	.LASF129
 1946 0846 11       		.byte	0x11
 1947 0847 3E       		.byte	0x3e
 1948 0848 AD000000 		.4byte	0xad
 1949 084c 0D       		.byte	0xd
 1950 084d 0E       		.uleb128 0xe
 1951 084e 00000000 		.4byte	.LASF130
 1952 0852 11       		.byte	0x11
 1953 0853 3F       		.byte	0x3f
 1954 0854 AD000000 		.4byte	0xad
 1955 0858 0E       		.byte	0xe
 1956 0859 0E       		.uleb128 0xe
 1957 085a 71050000 		.4byte	.LASF131
 1958 085e 11       		.byte	0x11
 1959 085f 40       		.byte	0x40
 1960 0860 AD000000 		.4byte	0xad
 1961 0864 0F       		.byte	0xf
 1962 0865 0E       		.uleb128 0xe
 1963 0866 46020000 		.4byte	.LASF132
 1964 086a 11       		.byte	0x11
 1965 086b 41       		.byte	0x41
 1966 086c AD000000 		.4byte	0xad
 1967 0870 10       		.byte	0x10
 1968 0871 0E       		.uleb128 0xe
 1969 0872 0E020000 		.4byte	.LASF133
 1970 0876 11       		.byte	0x11
 1971 0877 43       		.byte	0x43
 1972 0878 AD000000 		.4byte	0xad
 1973 087c 11       		.byte	0x11
 1974 087d 0E       		.uleb128 0xe
 1975 087e 56020000 		.4byte	.LASF134
 1976 0882 11       		.byte	0x11
 1977 0883 44       		.byte	0x44
 1978 0884 AD000000 		.4byte	0xad
 1979 0888 12       		.byte	0x12
 1980 0889 0E       		.uleb128 0xe
 1981 088a D2040000 		.4byte	.LASF135
 1982 088e 11       		.byte	0x11
 1983 088f 45       		.byte	0x45
 1984 0890 AD000000 		.4byte	0xad
 1985 0894 13       		.byte	0x13
 1986 0895 0E       		.uleb128 0xe
 1987 0896 A9060000 		.4byte	.LASF136
 1988 089a 11       		.byte	0x11
 1989 089b 46       		.byte	0x46
 1990 089c AD000000 		.4byte	0xad
 1991 08a0 14       		.byte	0x14
 1992 08a1 0E       		.uleb128 0xe
 1993 08a2 80040000 		.4byte	.LASF137
 1994 08a6 11       		.byte	0x11
 1995 08a7 48       		.byte	0x48
ARM GAS  /tmp/cc5di5Tx.s 			page 36


 1996 08a8 AD000000 		.4byte	0xad
 1997 08ac 15       		.byte	0x15
 1998 08ad 00       		.byte	0
 1999 08ae 1B       		.uleb128 0x1b
 2000 08af A0070000 		.4byte	0x7a0
 2001 08b3 BE080000 		.4byte	0x8be
 2002 08b7 1C       		.uleb128 0x1c
 2003 08b8 A6000000 		.4byte	0xa6
 2004 08bc 03       		.byte	0x3
 2005 08bd 00       		.byte	0
 2006 08be 03       		.uleb128 0x3
 2007 08bf E0020000 		.4byte	.LASF138
 2008 08c3 11       		.byte	0x11
 2009 08c4 49       		.byte	0x49
 2010 08c5 CD070000 		.4byte	0x7cd
 2011 08c9 1A       		.uleb128 0x1a
 2012 08ca BE080000 		.4byte	0x8be
 2013 08ce 07       		.uleb128 0x7
 2014 08cf AB030000 		.4byte	.LASF139
 2015 08d3 11       		.byte	0x11
 2016 08d4 6E       		.byte	0x6e
 2017 08d5 C9080000 		.4byte	0x8c9
 2018 08d9 03       		.uleb128 0x3
 2019 08da 4A030000 		.4byte	.LASF140
 2020 08de 10       		.byte	0x10
 2021 08df 34       		.byte	0x34
 2022 08e0 5E070000 		.4byte	0x75e
 2023 08e4 10       		.uleb128 0x10
 2024 08e5 04       		.byte	0x4
 2025 08e6 D9080000 		.4byte	0x8d9
 2026 08ea 10       		.uleb128 0x10
 2027 08eb 04       		.byte	0x4
 2028 08ec AD000000 		.4byte	0xad
 2029 08f0 02       		.uleb128 0x2
 2030 08f1 04       		.byte	0x4
 2031 08f2 04       		.byte	0x4
 2032 08f3 C4050000 		.4byte	.LASF141
 2033 08f7 02       		.uleb128 0x2
 2034 08f8 01       		.byte	0x1
 2035 08f9 02       		.byte	0x2
 2036 08fa 1D060000 		.4byte	.LASF142
 2037 08fe 07       		.uleb128 0x7
 2038 08ff 11040000 		.4byte	.LASF143
 2039 0903 12       		.byte	0x12
 2040 0904 EA       		.byte	0xea
 2041 0905 F7080000 		.4byte	0x8f7
 2042 0909 1E       		.uleb128 0x1e
 2043 090a 66080000 		.4byte	.LASF144
 2044 090e 01       		.byte	0x1
 2045 090f 24       		.byte	0x24
 2046 0910 C3000000 		.4byte	0xc3
 2047 0914 05       		.uleb128 0x5
 2048 0915 03       		.byte	0x3
 2049 0916 00000000 		.4byte	DataVar
 2050 091a 1B       		.uleb128 0x1b
 2051 091b C3000000 		.4byte	0xc3
 2052 091f 2B090000 		.4byte	0x92b
ARM GAS  /tmp/cc5di5Tx.s 			page 37


 2053 0923 1F       		.uleb128 0x1f
 2054 0924 A6000000 		.4byte	0xa6
 2055 0928 4902     		.2byte	0x249
 2056 092a 00       		.byte	0
 2057 092b 07       		.uleb128 0x7
 2058 092c 15080000 		.4byte	.LASF145
 2059 0930 01       		.byte	0x1
 2060 0931 27       		.byte	0x27
 2061 0932 1A090000 		.4byte	0x91a
 2062 0936 20       		.uleb128 0x20
 2063 0937 7E020000 		.4byte	.LASF149
 2064 093b 01       		.byte	0x1
 2065 093c 7102     		.2byte	0x271
 2066 093e C3000000 		.4byte	0xc3
 2067 0942 01       		.byte	0x1
 2068 0943 78090000 		.4byte	0x978
 2069 0947 21       		.uleb128 0x21
 2070 0948 A8020000 		.4byte	.LASF146
 2071 094c 01       		.byte	0x1
 2072 094d 7102     		.2byte	0x271
 2073 094f DE000000 		.4byte	0xde
 2074 0953 21       		.uleb128 0x21
 2075 0954 7E070000 		.4byte	.LASF147
 2076 0958 01       		.byte	0x1
 2077 0959 7102     		.2byte	0x271
 2078 095b AD000000 		.4byte	0xad
 2079 095f 22       		.uleb128 0x22
 2080 0960 08060000 		.4byte	.LASF148
 2081 0964 01       		.byte	0x1
 2082 0965 7202     		.2byte	0x272
 2083 0967 EA080000 		.4byte	0x8ea
 2084 096b 23       		.uleb128 0x23
 2085 096c 24       		.uleb128 0x24
 2086 096d 6900     		.ascii	"i\000"
 2087 096f 01       		.byte	0x1
 2088 0970 7402     		.2byte	0x274
 2089 0972 A6000000 		.4byte	0xa6
 2090 0976 00       		.byte	0
 2091 0977 00       		.byte	0
 2092 0978 20       		.uleb128 0x20
 2093 0979 29030000 		.4byte	.LASF150
 2094 097d 01       		.byte	0x1
 2095 097e 1402     		.2byte	0x214
 2096 0980 C3000000 		.4byte	0xc3
 2097 0984 01       		.byte	0x1
 2098 0985 F6090000 		.4byte	0x9f6
 2099 0989 21       		.uleb128 0x21
 2100 098a 8C040000 		.4byte	.LASF151
 2101 098e 01       		.byte	0x1
 2102 098f 1402     		.2byte	0x214
 2103 0991 C3000000 		.4byte	0xc3
 2104 0995 21       		.uleb128 0x21
 2105 0996 83080000 		.4byte	.LASF152
 2106 099a 01       		.byte	0x1
 2107 099b 1402     		.2byte	0x214
 2108 099d C3000000 		.4byte	0xc3
 2109 09a1 22       		.uleb128 0x22
ARM GAS  /tmp/cc5di5Tx.s 			page 38


 2110 09a2 DD010000 		.4byte	.LASF153
 2111 09a6 01       		.byte	0x1
 2112 09a7 1602     		.2byte	0x216
 2113 09a9 83010000 		.4byte	0x183
 2114 09ad 22       		.uleb128 0x22
 2115 09ae 74080000 		.4byte	.LASF154
 2116 09b2 01       		.byte	0x1
 2117 09b3 1702     		.2byte	0x217
 2118 09b5 DE000000 		.4byte	0xde
 2119 09b9 22       		.uleb128 0x22
 2120 09ba 53040000 		.4byte	.LASF155
 2121 09be 01       		.byte	0x1
 2122 09bf 1802     		.2byte	0x218
 2123 09c1 C3000000 		.4byte	0xc3
 2124 09c5 22       		.uleb128 0x22
 2125 09c6 5F070000 		.4byte	.LASF156
 2126 09ca 01       		.byte	0x1
 2127 09cb 1902     		.2byte	0x219
 2128 09cd C3000000 		.4byte	0xc3
 2129 09d1 22       		.uleb128 0x22
 2130 09d2 C0010000 		.4byte	.LASF157
 2131 09d6 01       		.byte	0x1
 2132 09d7 1902     		.2byte	0x219
 2133 09d9 C3000000 		.4byte	0xc3
 2134 09dd 22       		.uleb128 0x22
 2135 09de C0060000 		.4byte	.LASF158
 2136 09e2 01       		.byte	0x1
 2137 09e3 1A02     		.2byte	0x21a
 2138 09e5 C3000000 		.4byte	0xc3
 2139 09e9 22       		.uleb128 0x22
 2140 09ea B4040000 		.4byte	.LASF159
 2141 09ee 01       		.byte	0x1
 2142 09ef 1A02     		.2byte	0x21a
 2143 09f1 C3000000 		.4byte	0xc3
 2144 09f5 00       		.byte	0
 2145 09f6 25       		.uleb128 0x25
 2146 09f7 88080000 		.4byte	.LASF179
 2147 09fb 01       		.byte	0x1
 2148 09fc D701     		.2byte	0x1d7
 2149 09fe C3000000 		.4byte	0xc3
 2150 0a02 00000000 		.4byte	.LFB224
 2151 0a06 7C000000 		.4byte	.LFE224-.LFB224
 2152 0a0a 01       		.uleb128 0x1
 2153 0a0b 9C       		.byte	0x9c
 2154 0a0c CB0A0000 		.4byte	0xacb
 2155 0a10 26       		.uleb128 0x26
 2156 0a11 8C040000 		.4byte	.LASF151
 2157 0a15 01       		.byte	0x1
 2158 0a16 D701     		.2byte	0x1d7
 2159 0a18 C3000000 		.4byte	0xc3
 2160 0a1c 00000000 		.4byte	.LLST0
 2161 0a20 26       		.uleb128 0x26
 2162 0a21 83080000 		.4byte	.LASF152
 2163 0a25 01       		.byte	0x1
 2164 0a26 D701     		.2byte	0x1d7
 2165 0a28 C3000000 		.4byte	0xc3
 2166 0a2c 53000000 		.4byte	.LLST1
ARM GAS  /tmp/cc5di5Tx.s 			page 39


 2167 0a30 27       		.uleb128 0x27
 2168 0a31 DD010000 		.4byte	.LASF153
 2169 0a35 01       		.byte	0x1
 2170 0a36 D901     		.2byte	0x1d9
 2171 0a38 83010000 		.4byte	0x183
 2172 0a3c 8D000000 		.4byte	.LLST2
 2173 0a40 28       		.uleb128 0x28
 2174 0a41 5F070000 		.4byte	.LASF156
 2175 0a45 01       		.byte	0x1
 2176 0a46 DA01     		.2byte	0x1da
 2177 0a48 C3000000 		.4byte	0xc3
 2178 0a4c 00       		.byte	0
 2179 0a4d 27       		.uleb128 0x27
 2180 0a4e 98040000 		.4byte	.LASF160
 2181 0a52 01       		.byte	0x1
 2182 0a53 DB01     		.2byte	0x1db
 2183 0a55 DE000000 		.4byte	0xde
 2184 0a59 C3000000 		.4byte	.LLST3
 2185 0a5d 27       		.uleb128 0x27
 2186 0a5e 69040000 		.4byte	.LASF161
 2187 0a62 01       		.byte	0x1
 2188 0a63 DB01     		.2byte	0x1db
 2189 0a65 DE000000 		.4byte	0xde
 2190 0a69 1C010000 		.4byte	.LLST4
 2191 0a6d 29       		.uleb128 0x29
 2192 0a6e CB0A0000 		.4byte	0xacb
 2193 0a72 02000000 		.4byte	.LBB9
 2194 0a76 00000000 		.4byte	.Ldebug_ranges0+0
 2195 0a7a 01       		.byte	0x1
 2196 0a7b DE01     		.2byte	0x1de
 2197 0a7d A00A0000 		.4byte	0xaa0
 2198 0a81 2A       		.uleb128 0x2a
 2199 0a82 DC0A0000 		.4byte	0xadc
 2200 0a86 01       		.byte	0x1
 2201 0a87 2B       		.uleb128 0x2b
 2202 0a88 00000000 		.4byte	.Ldebug_ranges0+0
 2203 0a8c 2C       		.uleb128 0x2c
 2204 0a8d E80A0000 		.4byte	0xae8
 2205 0a91 6A010000 		.4byte	.LLST5
 2206 0a95 2C       		.uleb128 0x2c
 2207 0a96 F40A0000 		.4byte	0xaf4
 2208 0a9a 9F010000 		.4byte	.LLST6
 2209 0a9e 00       		.byte	0
 2210 0a9f 00       		.byte	0
 2211 0aa0 2D       		.uleb128 0x2d
 2212 0aa1 44000000 		.4byte	.LVL8
 2213 0aa5 A40F0000 		.4byte	0xfa4
 2214 0aa9 B40A0000 		.4byte	0xab4
 2215 0aad 2E       		.uleb128 0x2e
 2216 0aae 01       		.uleb128 0x1
 2217 0aaf 50       		.byte	0x50
 2218 0ab0 02       		.uleb128 0x2
 2219 0ab1 74       		.byte	0x74
 2220 0ab2 00       		.sleb128 0
 2221 0ab3 00       		.byte	0
 2222 0ab4 2F       		.uleb128 0x2f
 2223 0ab5 6C000000 		.4byte	.LVL18
ARM GAS  /tmp/cc5di5Tx.s 			page 40


 2224 0ab9 A40F0000 		.4byte	0xfa4
 2225 0abd 2E       		.uleb128 0x2e
 2226 0abe 01       		.uleb128 0x1
 2227 0abf 50       		.byte	0x50
 2228 0ac0 02       		.uleb128 0x2
 2229 0ac1 74       		.byte	0x74
 2230 0ac2 02       		.sleb128 2
 2231 0ac3 2E       		.uleb128 0x2e
 2232 0ac4 01       		.uleb128 0x1
 2233 0ac5 51       		.byte	0x51
 2234 0ac6 02       		.uleb128 0x2
 2235 0ac7 75       		.byte	0x75
 2236 0ac8 00       		.sleb128 0
 2237 0ac9 00       		.byte	0
 2238 0aca 00       		.byte	0
 2239 0acb 20       		.uleb128 0x20
 2240 0acc 42040000 		.4byte	.LASF162
 2241 0ad0 01       		.byte	0x1
 2242 0ad1 8F01     		.2byte	0x18f
 2243 0ad3 C3000000 		.4byte	0xc3
 2244 0ad7 01       		.byte	0x1
 2245 0ad8 010B0000 		.4byte	0xb01
 2246 0adc 21       		.uleb128 0x21
 2247 0add 46060000 		.4byte	.LASF163
 2248 0ae1 01       		.byte	0x1
 2249 0ae2 8F01     		.2byte	0x18f
 2250 0ae4 AD000000 		.4byte	0xad
 2251 0ae8 22       		.uleb128 0x22
 2252 0ae9 D2050000 		.4byte	.LASF164
 2253 0aed 01       		.byte	0x1
 2254 0aee 9101     		.2byte	0x191
 2255 0af0 C3000000 		.4byte	0xc3
 2256 0af4 22       		.uleb128 0x22
 2257 0af5 65050000 		.4byte	.LASF165
 2258 0af9 01       		.byte	0x1
 2259 0afa 9101     		.2byte	0x191
 2260 0afc C3000000 		.4byte	0xc3
 2261 0b00 00       		.byte	0
 2262 0b01 20       		.uleb128 0x20
 2263 0b02 A0040000 		.4byte	.LASF166
 2264 0b06 01       		.byte	0x1
 2265 0b07 6901     		.2byte	0x169
 2266 0b09 83010000 		.4byte	0x183
 2267 0b0d 01       		.byte	0x1
 2268 0b0e 1F0B0000 		.4byte	0xb1f
 2269 0b12 22       		.uleb128 0x22
 2270 0b13 DD010000 		.4byte	.LASF153
 2271 0b17 01       		.byte	0x1
 2272 0b18 6B01     		.2byte	0x16b
 2273 0b1a 83010000 		.4byte	0x183
 2274 0b1e 00       		.byte	0
 2275 0b1f 30       		.uleb128 0x30
 2276 0b20 A4010000 		.4byte	.LASF168
 2277 0b24 01       		.byte	0x1
 2278 0b25 4A01     		.2byte	0x14a
 2279 0b27 C3000000 		.4byte	0xc3
 2280 0b2b 00000000 		.4byte	.LFB221
ARM GAS  /tmp/cc5di5Tx.s 			page 41


 2281 0b2f D0000000 		.4byte	.LFE221-.LFB221
 2282 0b33 01       		.uleb128 0x1
 2283 0b34 9C       		.byte	0x9c
 2284 0b35 9D0C0000 		.4byte	0xc9d
 2285 0b39 26       		.uleb128 0x26
 2286 0b3a 8C040000 		.4byte	.LASF151
 2287 0b3e 01       		.byte	0x1
 2288 0b3f 4A01     		.2byte	0x14a
 2289 0b41 C3000000 		.4byte	0xc3
 2290 0b45 D4010000 		.4byte	.LLST25
 2291 0b49 26       		.uleb128 0x26
 2292 0b4a 83080000 		.4byte	.LASF152
 2293 0b4e 01       		.byte	0x1
 2294 0b4f 4A01     		.2byte	0x14a
 2295 0b51 C3000000 		.4byte	0xc3
 2296 0b55 0E020000 		.4byte	.LLST26
 2297 0b59 27       		.uleb128 0x27
 2298 0b5a 9B070000 		.4byte	.LASF167
 2299 0b5e 01       		.byte	0x1
 2300 0b5f 4C01     		.2byte	0x14c
 2301 0b61 C3000000 		.4byte	0xc3
 2302 0b65 48020000 		.4byte	.LLST27
 2303 0b69 31       		.uleb128 0x31
 2304 0b6a 78090000 		.4byte	0x978
 2305 0b6e 28000000 		.4byte	.LBB25
 2306 0b72 A8000000 		.4byte	.LBE25-.LBB25
 2307 0b76 01       		.byte	0x1
 2308 0b77 5C01     		.2byte	0x15c
 2309 0b79 860C0000 		.4byte	0xc86
 2310 0b7d 32       		.uleb128 0x32
 2311 0b7e 95090000 		.4byte	0x995
 2312 0b82 9F020000 		.4byte	.LLST28
 2313 0b86 33       		.uleb128 0x33
 2314 0b87 89090000 		.4byte	0x989
 2315 0b8b 01       		.uleb128 0x1
 2316 0b8c 55       		.byte	0x55
 2317 0b8d 34       		.uleb128 0x34
 2318 0b8e 28000000 		.4byte	.LBB26
 2319 0b92 A8000000 		.4byte	.LBE26-.LBB26
 2320 0b96 2C       		.uleb128 0x2c
 2321 0b97 A1090000 		.4byte	0x9a1
 2322 0b9b BD020000 		.4byte	.LLST29
 2323 0b9f 2C       		.uleb128 0x2c
 2324 0ba0 AD090000 		.4byte	0x9ad
 2325 0ba4 09030000 		.4byte	.LLST30
 2326 0ba8 2C       		.uleb128 0x2c
 2327 0ba9 B9090000 		.4byte	0x9b9
 2328 0bad 47030000 		.4byte	.LLST31
 2329 0bb1 35       		.uleb128 0x35
 2330 0bb2 C5090000 		.4byte	0x9c5
 2331 0bb6 00       		.byte	0
 2332 0bb7 2C       		.uleb128 0x2c
 2333 0bb8 D1090000 		.4byte	0x9d1
 2334 0bbc 7D030000 		.4byte	.LLST32
 2335 0bc0 2C       		.uleb128 0x2c
 2336 0bc1 DD090000 		.4byte	0x9dd
 2337 0bc5 9D030000 		.4byte	.LLST33
ARM GAS  /tmp/cc5di5Tx.s 			page 42


 2338 0bc9 2C       		.uleb128 0x2c
 2339 0bca E9090000 		.4byte	0x9e9
 2340 0bce D3030000 		.4byte	.LLST34
 2341 0bd2 31       		.uleb128 0x31
 2342 0bd3 CB0A0000 		.4byte	0xacb
 2343 0bd7 28000000 		.4byte	.LBB27
 2344 0bdb 10000000 		.4byte	.LBE27-.LBB27
 2345 0bdf 01       		.byte	0x1
 2346 0be0 1D02     		.2byte	0x21d
 2347 0be2 090C0000 		.4byte	0xc09
 2348 0be6 2A       		.uleb128 0x2a
 2349 0be7 DC0A0000 		.4byte	0xadc
 2350 0beb 00       		.byte	0
 2351 0bec 34       		.uleb128 0x34
 2352 0bed 28000000 		.4byte	.LBB28
 2353 0bf1 10000000 		.4byte	.LBE28-.LBB28
 2354 0bf5 2C       		.uleb128 0x2c
 2355 0bf6 E80A0000 		.4byte	0xae8
 2356 0bfa FE030000 		.4byte	.LLST35
 2357 0bfe 2C       		.uleb128 0x2c
 2358 0bff F40A0000 		.4byte	0xaf4
 2359 0c03 28040000 		.4byte	.LLST36
 2360 0c07 00       		.byte	0
 2361 0c08 00       		.byte	0
 2362 0c09 2D       		.uleb128 0x2d
 2363 0c0a 4E000000 		.4byte	.LVL104
 2364 0c0e A40F0000 		.4byte	0xfa4
 2365 0c12 240C0000 		.4byte	0xc24
 2366 0c16 2E       		.uleb128 0x2e
 2367 0c17 01       		.uleb128 0x1
 2368 0c18 50       		.byte	0x50
 2369 0c19 02       		.uleb128 0x2
 2370 0c1a 77       		.byte	0x77
 2371 0c1b 00       		.sleb128 0
 2372 0c1c 2E       		.uleb128 0x2e
 2373 0c1d 01       		.uleb128 0x1
 2374 0c1e 51       		.byte	0x51
 2375 0c1f 03       		.uleb128 0x3
 2376 0c20 0B       		.byte	0xb
 2377 0c21 EEEE     		.2byte	0xeeee
 2378 0c23 00       		.byte	0
 2379 0c24 2D       		.uleb128 0x2d
 2380 0c25 62000000 		.4byte	.LVL109
 2381 0c29 F6090000 		.4byte	0x9f6
 2382 0c2d 3E0C0000 		.4byte	0xc3e
 2383 0c31 2E       		.uleb128 0x2e
 2384 0c32 01       		.uleb128 0x1
 2385 0c33 50       		.byte	0x50
 2386 0c34 02       		.uleb128 0x2
 2387 0c35 75       		.byte	0x75
 2388 0c36 00       		.sleb128 0
 2389 0c37 2E       		.uleb128 0x2e
 2390 0c38 01       		.uleb128 0x1
 2391 0c39 51       		.byte	0x51
 2392 0c3a 02       		.uleb128 0x2
 2393 0c3b 76       		.byte	0x76
 2394 0c3c 00       		.sleb128 0
ARM GAS  /tmp/cc5di5Tx.s 			page 43


 2395 0c3d 00       		.byte	0
 2396 0c3e 2D       		.uleb128 0x2d
 2397 0c3f 88000000 		.4byte	.LVL113
 2398 0c43 9D0C0000 		.4byte	0xc9d
 2399 0c47 520C0000 		.4byte	0xc52
 2400 0c4b 2E       		.uleb128 0x2e
 2401 0c4c 01       		.uleb128 0x1
 2402 0c4d 51       		.byte	0x51
 2403 0c4e 02       		.uleb128 0x2
 2404 0c4f 71       		.byte	0x71
 2405 0c50 00       		.sleb128 0
 2406 0c51 00       		.byte	0
 2407 0c52 36       		.uleb128 0x36
 2408 0c53 98000000 		.4byte	.LVL115
 2409 0c57 F6090000 		.4byte	0x9f6
 2410 0c5b 2D       		.uleb128 0x2d
 2411 0c5c A6000000 		.4byte	.LVL117
 2412 0c60 CE0E0000 		.4byte	0xece
 2413 0c64 6F0C0000 		.4byte	0xc6f
 2414 0c68 2E       		.uleb128 0x2e
 2415 0c69 01       		.uleb128 0x1
 2416 0c6a 50       		.byte	0x50
 2417 0c6b 02       		.uleb128 0x2
 2418 0c6c 78       		.byte	0x78
 2419 0c6d 00       		.sleb128 0
 2420 0c6e 00       		.byte	0
 2421 0c6f 2F       		.uleb128 0x2f
 2422 0c70 B4000000 		.4byte	.LVL119
 2423 0c74 A40F0000 		.4byte	0xfa4
 2424 0c78 2E       		.uleb128 0x2e
 2425 0c79 01       		.uleb128 0x1
 2426 0c7a 50       		.byte	0x50
 2427 0c7b 02       		.uleb128 0x2
 2428 0c7c 77       		.byte	0x77
 2429 0c7d 00       		.sleb128 0
 2430 0c7e 2E       		.uleb128 0x2e
 2431 0c7f 01       		.uleb128 0x1
 2432 0c80 51       		.byte	0x51
 2433 0c81 01       		.uleb128 0x1
 2434 0c82 30       		.byte	0x30
 2435 0c83 00       		.byte	0
 2436 0c84 00       		.byte	0
 2437 0c85 00       		.byte	0
 2438 0c86 2F       		.uleb128 0x2f
 2439 0c87 14000000 		.4byte	.LVL93
 2440 0c8b F6090000 		.4byte	0x9f6
 2441 0c8f 2E       		.uleb128 0x2e
 2442 0c90 01       		.uleb128 0x1
 2443 0c91 50       		.byte	0x50
 2444 0c92 02       		.uleb128 0x2
 2445 0c93 75       		.byte	0x75
 2446 0c94 00       		.sleb128 0
 2447 0c95 2E       		.uleb128 0x2e
 2448 0c96 01       		.uleb128 0x1
 2449 0c97 51       		.byte	0x51
 2450 0c98 02       		.uleb128 0x2
 2451 0c99 76       		.byte	0x76
ARM GAS  /tmp/cc5di5Tx.s 			page 44


 2452 0c9a 00       		.sleb128 0
 2453 0c9b 00       		.byte	0
 2454 0c9c 00       		.byte	0
 2455 0c9d 30       		.uleb128 0x30
 2456 0c9e 2E080000 		.4byte	.LASF169
 2457 0ca2 01       		.byte	0x1
 2458 0ca3 0F01     		.2byte	0x10f
 2459 0ca5 C3000000 		.4byte	0xc3
 2460 0ca9 00000000 		.4byte	.LFB220
 2461 0cad 6C000000 		.4byte	.LFE220-.LFB220
 2462 0cb1 01       		.uleb128 0x1
 2463 0cb2 9C       		.byte	0x9c
 2464 0cb3 520D0000 		.4byte	0xd52
 2465 0cb7 26       		.uleb128 0x26
 2466 0cb8 8C040000 		.4byte	.LASF151
 2467 0cbc 01       		.byte	0x1
 2468 0cbd 0F01     		.2byte	0x10f
 2469 0cbf C3000000 		.4byte	0xc3
 2470 0cc3 52040000 		.4byte	.LLST11
 2471 0cc7 37       		.uleb128 0x37
 2472 0cc8 83080000 		.4byte	.LASF152
 2473 0ccc 01       		.byte	0x1
 2474 0ccd 0F01     		.2byte	0x10f
 2475 0ccf 520D0000 		.4byte	0xd52
 2476 0cd3 01       		.uleb128 0x1
 2477 0cd4 51       		.byte	0x51
 2478 0cd5 28       		.uleb128 0x28
 2479 0cd6 5F070000 		.4byte	.LASF156
 2480 0cda 01       		.byte	0x1
 2481 0cdb 1101     		.2byte	0x111
 2482 0cdd C3000000 		.4byte	0xc3
 2483 0ce1 00       		.byte	0
 2484 0ce2 27       		.uleb128 0x27
 2485 0ce3 39060000 		.4byte	.LASF170
 2486 0ce7 01       		.byte	0x1
 2487 0ce8 1201     		.2byte	0x112
 2488 0cea C3000000 		.4byte	0xc3
 2489 0cee A5040000 		.4byte	.LLST12
 2490 0cf2 27       		.uleb128 0x27
 2491 0cf3 B4040000 		.4byte	.LASF159
 2492 0cf7 01       		.byte	0x1
 2493 0cf8 1201     		.2byte	0x112
 2494 0cfa C3000000 		.4byte	0xc3
 2495 0cfe DF040000 		.4byte	.LLST13
 2496 0d02 27       		.uleb128 0x27
 2497 0d03 98040000 		.4byte	.LASF160
 2498 0d07 01       		.byte	0x1
 2499 0d08 1301     		.2byte	0x113
 2500 0d0a DE000000 		.4byte	0xde
 2501 0d0e 0B050000 		.4byte	.LLST14
 2502 0d12 27       		.uleb128 0x27
 2503 0d13 48050000 		.4byte	.LASF171
 2504 0d17 01       		.byte	0x1
 2505 0d18 1301     		.2byte	0x113
 2506 0d1a DE000000 		.4byte	0xde
 2507 0d1e 3E050000 		.4byte	.LLST15
 2508 0d22 38       		.uleb128 0x38
ARM GAS  /tmp/cc5di5Tx.s 			page 45


 2509 0d23 CB0A0000 		.4byte	0xacb
 2510 0d27 00000000 		.4byte	.LBB17
 2511 0d2b 18000000 		.4byte	.Ldebug_ranges0+0x18
 2512 0d2f 01       		.byte	0x1
 2513 0d30 1601     		.2byte	0x116
 2514 0d32 2A       		.uleb128 0x2a
 2515 0d33 DC0A0000 		.4byte	0xadc
 2516 0d37 00       		.byte	0
 2517 0d38 2B       		.uleb128 0x2b
 2518 0d39 18000000 		.4byte	.Ldebug_ranges0+0x18
 2519 0d3d 2C       		.uleb128 0x2c
 2520 0d3e E80A0000 		.4byte	0xae8
 2521 0d42 66050000 		.4byte	.LLST16
 2522 0d46 2C       		.uleb128 0x2c
 2523 0d47 F40A0000 		.4byte	0xaf4
 2524 0d4b 9B050000 		.4byte	.LLST17
 2525 0d4f 00       		.byte	0
 2526 0d50 00       		.byte	0
 2527 0d51 00       		.byte	0
 2528 0d52 10       		.uleb128 0x10
 2529 0d53 04       		.byte	0x4
 2530 0d54 C3000000 		.4byte	0xc3
 2531 0d58 39       		.uleb128 0x39
 2532 0d59 78040000 		.4byte	.LASF172
 2533 0d5d 01       		.byte	0x1
 2534 0d5e 38       		.byte	0x38
 2535 0d5f C3000000 		.4byte	0xc3
 2536 0d63 00000000 		.4byte	.LFB219
 2537 0d67 44010000 		.4byte	.LFE219-.LFB219
 2538 0d6b 01       		.uleb128 0x1
 2539 0d6c 9C       		.byte	0x9c
 2540 0d6d CE0E0000 		.4byte	0xece
 2541 0d71 3A       		.uleb128 0x3a
 2542 0d72 D2050000 		.4byte	.LASF164
 2543 0d76 01       		.byte	0x1
 2544 0d77 3A       		.byte	0x3a
 2545 0d78 C3000000 		.4byte	0xc3
 2546 0d7c D0050000 		.4byte	.LLST18
 2547 0d80 3A       		.uleb128 0x3a
 2548 0d81 65050000 		.4byte	.LASF165
 2549 0d85 01       		.byte	0x1
 2550 0d86 3A       		.byte	0x3a
 2551 0d87 C3000000 		.4byte	0xc3
 2552 0d8b 10060000 		.4byte	.LLST19
 2553 0d8f 3A       		.uleb128 0x3a
 2554 0d90 C0010000 		.4byte	.LASF157
 2555 0d94 01       		.byte	0x1
 2556 0d95 3B       		.byte	0x3b
 2557 0d96 C3000000 		.4byte	0xc3
 2558 0d9a 5B060000 		.4byte	.LLST20
 2559 0d9e 3A       		.uleb128 0x3a
 2560 0d9f C0060000 		.4byte	.LASF158
 2561 0da3 01       		.byte	0x1
 2562 0da4 3C       		.byte	0x3c
 2563 0da5 C3000000 		.4byte	0xc3
 2564 0da9 A9060000 		.4byte	.LLST21
 2565 0dad 3A       		.uleb128 0x3a
ARM GAS  /tmp/cc5di5Tx.s 			page 46


 2566 0dae B4040000 		.4byte	.LASF159
 2567 0db2 01       		.byte	0x1
 2568 0db3 3C       		.byte	0x3c
 2569 0db4 C3000000 		.4byte	0xc3
 2570 0db8 F7060000 		.4byte	.LLST22
 2571 0dbc 3B       		.uleb128 0x3b
 2572 0dbd 7800     		.ascii	"x\000"
 2573 0dbf 01       		.byte	0x1
 2574 0dc0 3D       		.byte	0x3d
 2575 0dc1 B8000000 		.4byte	0xb8
 2576 0dc5 45070000 		.4byte	.LLST23
 2577 0dc9 3A       		.uleb128 0x3a
 2578 0dca DD010000 		.4byte	.LASF153
 2579 0dce 01       		.byte	0x1
 2580 0dcf 3E       		.byte	0x3e
 2581 0dd0 C3000000 		.4byte	0xc3
 2582 0dd4 97070000 		.4byte	.LLST24
 2583 0dd8 36       		.uleb128 0x36
 2584 0dd9 26000000 		.4byte	.LVL57
 2585 0ddd 010B0000 		.4byte	0xb01
 2586 0de1 2D       		.uleb128 0x2d
 2587 0de2 60000000 		.4byte	.LVL63
 2588 0de6 9D0C0000 		.4byte	0xc9d
 2589 0dea F50D0000 		.4byte	0xdf5
 2590 0dee 2E       		.uleb128 0x2e
 2591 0def 01       		.uleb128 0x1
 2592 0df0 51       		.byte	0x51
 2593 0df1 02       		.uleb128 0x2
 2594 0df2 71       		.byte	0x71
 2595 0df3 00       		.sleb128 0
 2596 0df4 00       		.byte	0
 2597 0df5 36       		.uleb128 0x36
 2598 0df6 70000000 		.4byte	.LVL65
 2599 0dfa F6090000 		.4byte	0x9f6
 2600 0dfe 2D       		.uleb128 0x2d
 2601 0dff 80000000 		.4byte	.LVL67
 2602 0e03 A40F0000 		.4byte	0xfa4
 2603 0e07 1A0E0000 		.4byte	0xe1a
 2604 0e0b 2E       		.uleb128 0x2e
 2605 0e0c 01       		.uleb128 0x1
 2606 0e0d 50       		.byte	0x50
 2607 0e0e 05       		.uleb128 0x5
 2608 0e0f 0C       		.byte	0xc
 2609 0e10 00800008 		.4byte	0x8008000
 2610 0e14 2E       		.uleb128 0x2e
 2611 0e15 01       		.uleb128 0x1
 2612 0e16 51       		.byte	0x51
 2613 0e17 01       		.uleb128 0x1
 2614 0e18 30       		.byte	0x30
 2615 0e19 00       		.byte	0
 2616 0e1a 3C       		.uleb128 0x3c
 2617 0e1b 90000000 		.4byte	.LVL70
 2618 0e1f CE0E0000 		.4byte	0xece
 2619 0e23 2D0E0000 		.4byte	0xe2d
 2620 0e27 2E       		.uleb128 0x2e
 2621 0e28 01       		.uleb128 0x1
 2622 0e29 50       		.byte	0x50
ARM GAS  /tmp/cc5di5Tx.s 			page 47


 2623 0e2a 01       		.uleb128 0x1
 2624 0e2b 38       		.byte	0x38
 2625 0e2c 00       		.byte	0
 2626 0e2d 2D       		.uleb128 0x2d
 2627 0e2e 9E000000 		.4byte	.LVL71
 2628 0e32 CE0E0000 		.4byte	0xece
 2629 0e36 400E0000 		.4byte	0xe40
 2630 0e3a 2E       		.uleb128 0x2e
 2631 0e3b 01       		.uleb128 0x1
 2632 0e3c 50       		.byte	0x50
 2633 0e3d 01       		.uleb128 0x1
 2634 0e3e 38       		.byte	0x38
 2635 0e3f 00       		.byte	0
 2636 0e40 2D       		.uleb128 0x2d
 2637 0e41 AA000000 		.4byte	.LVL73
 2638 0e45 A40F0000 		.4byte	0xfa4
 2639 0e49 590E0000 		.4byte	0xe59
 2640 0e4d 2E       		.uleb128 0x2e
 2641 0e4e 01       		.uleb128 0x1
 2642 0e4f 50       		.byte	0x50
 2643 0e50 02       		.uleb128 0x2
 2644 0e51 76       		.byte	0x76
 2645 0e52 00       		.sleb128 0
 2646 0e53 2E       		.uleb128 0x2e
 2647 0e54 01       		.uleb128 0x1
 2648 0e55 51       		.byte	0x51
 2649 0e56 01       		.uleb128 0x1
 2650 0e57 30       		.byte	0x30
 2651 0e58 00       		.byte	0
 2652 0e59 2D       		.uleb128 0x2d
 2653 0e5a DE000000 		.4byte	.LVL80
 2654 0e5e 9D0C0000 		.4byte	0xc9d
 2655 0e62 6D0E0000 		.4byte	0xe6d
 2656 0e66 2E       		.uleb128 0x2e
 2657 0e67 01       		.uleb128 0x1
 2658 0e68 51       		.byte	0x51
 2659 0e69 02       		.uleb128 0x2
 2660 0e6a 71       		.byte	0x71
 2661 0e6b 00       		.sleb128 0
 2662 0e6c 00       		.byte	0
 2663 0e6d 36       		.uleb128 0x36
 2664 0e6e EE000000 		.4byte	.LVL82
 2665 0e72 F6090000 		.4byte	0x9f6
 2666 0e76 2D       		.uleb128 0x2d
 2667 0e77 FE000000 		.4byte	.LVL84
 2668 0e7b A40F0000 		.4byte	0xfa4
 2669 0e7f 920E0000 		.4byte	0xe92
 2670 0e83 2E       		.uleb128 0x2e
 2671 0e84 01       		.uleb128 0x1
 2672 0e85 50       		.byte	0x50
 2673 0e86 05       		.uleb128 0x5
 2674 0e87 0C       		.byte	0xc
 2675 0e88 00400008 		.4byte	0x8004000
 2676 0e8c 2E       		.uleb128 0x2e
 2677 0e8d 01       		.uleb128 0x1
 2678 0e8e 51       		.byte	0x51
 2679 0e8f 01       		.uleb128 0x1
ARM GAS  /tmp/cc5di5Tx.s 			page 48


 2680 0e90 30       		.byte	0x30
 2681 0e91 00       		.byte	0
 2682 0e92 3C       		.uleb128 0x3c
 2683 0e93 0E010000 		.4byte	.LVL87
 2684 0e97 CE0E0000 		.4byte	0xece
 2685 0e9b A50E0000 		.4byte	0xea5
 2686 0e9f 2E       		.uleb128 0x2e
 2687 0ea0 01       		.uleb128 0x1
 2688 0ea1 50       		.byte	0x50
 2689 0ea2 01       		.uleb128 0x1
 2690 0ea3 40       		.byte	0x40
 2691 0ea4 00       		.byte	0
 2692 0ea5 2D       		.uleb128 0x2d
 2693 0ea6 1C010000 		.4byte	.LVL88
 2694 0eaa CE0E0000 		.4byte	0xece
 2695 0eae B80E0000 		.4byte	0xeb8
 2696 0eb2 2E       		.uleb128 0x2e
 2697 0eb3 01       		.uleb128 0x1
 2698 0eb4 50       		.byte	0x50
 2699 0eb5 01       		.uleb128 0x1
 2700 0eb6 40       		.byte	0x40
 2701 0eb7 00       		.byte	0
 2702 0eb8 2F       		.uleb128 0x2f
 2703 0eb9 28010000 		.4byte	.LVL90
 2704 0ebd A40F0000 		.4byte	0xfa4
 2705 0ec1 2E       		.uleb128 0x2e
 2706 0ec2 01       		.uleb128 0x1
 2707 0ec3 50       		.byte	0x50
 2708 0ec4 02       		.uleb128 0x2
 2709 0ec5 75       		.byte	0x75
 2710 0ec6 00       		.sleb128 0
 2711 0ec7 2E       		.uleb128 0x2e
 2712 0ec8 01       		.uleb128 0x1
 2713 0ec9 51       		.byte	0x51
 2714 0eca 01       		.uleb128 0x1
 2715 0ecb 30       		.byte	0x30
 2716 0ecc 00       		.byte	0
 2717 0ecd 00       		.byte	0
 2718 0ece 3D       		.uleb128 0x3d
 2719 0ecf 36090000 		.4byte	0x936
 2720 0ed3 00000000 		.4byte	.LFB228
 2721 0ed7 2E000000 		.4byte	.LFE228-.LFB228
 2722 0edb 01       		.uleb128 0x1
 2723 0edc 9C       		.byte	0x9c
 2724 0edd 3A0F0000 		.4byte	0xf3a
 2725 0ee1 32       		.uleb128 0x32
 2726 0ee2 47090000 		.4byte	0x947
 2727 0ee6 E1070000 		.4byte	.LLST7
 2728 0eea 2C       		.uleb128 0x2c
 2729 0eeb 5F090000 		.4byte	0x95f
 2730 0eef FF070000 		.4byte	.LLST8
 2731 0ef3 2A       		.uleb128 0x2a
 2732 0ef4 53090000 		.4byte	0x953
 2733 0ef8 02       		.byte	0x2
 2734 0ef9 3E       		.uleb128 0x3e
 2735 0efa 6B090000 		.4byte	0x96b
 2736 0efe 12000000 		.4byte	.LBB13
ARM GAS  /tmp/cc5di5Tx.s 			page 49


 2737 0f02 16000000 		.4byte	.LBE13-.LBB13
 2738 0f06 290F0000 		.4byte	0xf29
 2739 0f0a 2C       		.uleb128 0x2c
 2740 0f0b 6C090000 		.4byte	0x96c
 2741 0f0f 3D080000 		.4byte	.LLST9
 2742 0f13 2F       		.uleb128 0x2f
 2743 0f14 26000000 		.4byte	.LVL26
 2744 0f18 B00F0000 		.4byte	0xfb0
 2745 0f1c 2E       		.uleb128 0x2e
 2746 0f1d 01       		.uleb128 0x1
 2747 0f1e 50       		.byte	0x50
 2748 0f1f 02       		.uleb128 0x2
 2749 0f20 74       		.byte	0x74
 2750 0f21 00       		.sleb128 0
 2751 0f22 2E       		.uleb128 0x2e
 2752 0f23 01       		.uleb128 0x1
 2753 0f24 51       		.byte	0x51
 2754 0f25 01       		.uleb128 0x1
 2755 0f26 32       		.byte	0x32
 2756 0f27 00       		.byte	0
 2757 0f28 00       		.byte	0
 2758 0f29 2F       		.uleb128 0x2f
 2759 0f2a 08000000 		.4byte	.LVL20
 2760 0f2e BC0F0000 		.4byte	0xfbc
 2761 0f32 2E       		.uleb128 0x2e
 2762 0f33 01       		.uleb128 0x1
 2763 0f34 50       		.byte	0x50
 2764 0f35 02       		.uleb128 0x2
 2765 0f36 74       		.byte	0x74
 2766 0f37 00       		.sleb128 0
 2767 0f38 00       		.byte	0
 2768 0f39 00       		.byte	0
 2769 0f3a 3D       		.uleb128 0x3d
 2770 0f3b 010B0000 		.4byte	0xb01
 2771 0f3f 00000000 		.4byte	.LFB222
 2772 0f43 2C000000 		.4byte	.LFE222-.LFB222
 2773 0f47 01       		.uleb128 0x1
 2774 0f48 9C       		.byte	0x9c
 2775 0f49 A40F0000 		.4byte	0xfa4
 2776 0f4d 2C       		.uleb128 0x2c
 2777 0f4e 120B0000 		.4byte	0xb12
 2778 0f52 79080000 		.4byte	.LLST10
 2779 0f56 3F       		.uleb128 0x3f
 2780 0f57 1C000000 		.4byte	.LBB16
 2781 0f5b 08000000 		.4byte	.LBE16-.LBB16
 2782 0f5f 780F0000 		.4byte	0xf78
 2783 0f63 40       		.uleb128 0x40
 2784 0f64 4D0F0000 		.4byte	0xf4d
 2785 0f68 2F       		.uleb128 0x2f
 2786 0f69 22000000 		.4byte	.LVL35
 2787 0f6d CE0E0000 		.4byte	0xece
 2788 0f71 2E       		.uleb128 0x2e
 2789 0f72 01       		.uleb128 0x1
 2790 0f73 50       		.byte	0x50
 2791 0f74 01       		.uleb128 0x1
 2792 0f75 40       		.byte	0x40
 2793 0f76 00       		.byte	0
ARM GAS  /tmp/cc5di5Tx.s 			page 50


 2794 0f77 00       		.byte	0
 2795 0f78 2D       		.uleb128 0x2d
 2796 0f79 08000000 		.4byte	.LVL30
 2797 0f7d CE0E0000 		.4byte	0xece
 2798 0f81 8B0F0000 		.4byte	0xf8b
 2799 0f85 2E       		.uleb128 0x2e
 2800 0f86 01       		.uleb128 0x1
 2801 0f87 50       		.byte	0x50
 2802 0f88 01       		.uleb128 0x1
 2803 0f89 38       		.byte	0x38
 2804 0f8a 00       		.byte	0
 2805 0f8b 2F       		.uleb128 0x2f
 2806 0f8c 18000000 		.4byte	.LVL33
 2807 0f90 A40F0000 		.4byte	0xfa4
 2808 0f94 2E       		.uleb128 0x2e
 2809 0f95 01       		.uleb128 0x1
 2810 0f96 50       		.byte	0x50
 2811 0f97 05       		.uleb128 0x5
 2812 0f98 0C       		.byte	0xc
 2813 0f99 00400008 		.4byte	0x8004000
 2814 0f9d 2E       		.uleb128 0x2e
 2815 0f9e 01       		.uleb128 0x1
 2816 0f9f 51       		.byte	0x51
 2817 0fa0 01       		.uleb128 0x1
 2818 0fa1 30       		.byte	0x30
 2819 0fa2 00       		.byte	0
 2820 0fa3 00       		.byte	0
 2821 0fa4 41       		.uleb128 0x41
 2822 0fa5 B7080000 		.4byte	.LASF173
 2823 0fa9 B7080000 		.4byte	.LASF173
 2824 0fad 07       		.byte	0x7
 2825 0fae C001     		.2byte	0x1c0
 2826 0fb0 41       		.uleb128 0x41
 2827 0fb1 6C060000 		.4byte	.LASF174
 2828 0fb5 6C060000 		.4byte	.LASF174
 2829 0fb9 07       		.byte	0x7
 2830 0fba BA01     		.2byte	0x1ba
 2831 0fbc 42       		.uleb128 0x42
 2832 0fbd DE040000 		.4byte	.LASF175
 2833 0fc1 DE040000 		.4byte	.LASF175
 2834 0fc5 13       		.byte	0x13
 2835 0fc6 1D       		.byte	0x1d
 2836 0fc7 00       		.byte	0
 2837              		.section	.debug_abbrev,"",%progbits
 2838              	.Ldebug_abbrev0:
 2839 0000 01       		.uleb128 0x1
 2840 0001 11       		.uleb128 0x11
 2841 0002 01       		.byte	0x1
 2842 0003 25       		.uleb128 0x25
 2843 0004 0E       		.uleb128 0xe
 2844 0005 13       		.uleb128 0x13
 2845 0006 0B       		.uleb128 0xb
 2846 0007 03       		.uleb128 0x3
 2847 0008 0E       		.uleb128 0xe
 2848 0009 1B       		.uleb128 0x1b
 2849 000a 0E       		.uleb128 0xe
 2850 000b 55       		.uleb128 0x55
ARM GAS  /tmp/cc5di5Tx.s 			page 51


 2851 000c 17       		.uleb128 0x17
 2852 000d 11       		.uleb128 0x11
 2853 000e 01       		.uleb128 0x1
 2854 000f 10       		.uleb128 0x10
 2855 0010 17       		.uleb128 0x17
 2856 0011 00       		.byte	0
 2857 0012 00       		.byte	0
 2858 0013 02       		.uleb128 0x2
 2859 0014 24       		.uleb128 0x24
 2860 0015 00       		.byte	0
 2861 0016 0B       		.uleb128 0xb
 2862 0017 0B       		.uleb128 0xb
 2863 0018 3E       		.uleb128 0x3e
 2864 0019 0B       		.uleb128 0xb
 2865 001a 03       		.uleb128 0x3
 2866 001b 0E       		.uleb128 0xe
 2867 001c 00       		.byte	0
 2868 001d 00       		.byte	0
 2869 001e 03       		.uleb128 0x3
 2870 001f 16       		.uleb128 0x16
 2871 0020 00       		.byte	0
 2872 0021 03       		.uleb128 0x3
 2873 0022 0E       		.uleb128 0xe
 2874 0023 3A       		.uleb128 0x3a
 2875 0024 0B       		.uleb128 0xb
 2876 0025 3B       		.uleb128 0x3b
 2877 0026 0B       		.uleb128 0xb
 2878 0027 49       		.uleb128 0x49
 2879 0028 13       		.uleb128 0x13
 2880 0029 00       		.byte	0
 2881 002a 00       		.byte	0
 2882 002b 04       		.uleb128 0x4
 2883 002c 24       		.uleb128 0x24
 2884 002d 00       		.byte	0
 2885 002e 0B       		.uleb128 0xb
 2886 002f 0B       		.uleb128 0xb
 2887 0030 3E       		.uleb128 0x3e
 2888 0031 0B       		.uleb128 0xb
 2889 0032 03       		.uleb128 0x3
 2890 0033 08       		.uleb128 0x8
 2891 0034 00       		.byte	0
 2892 0035 00       		.byte	0
 2893 0036 05       		.uleb128 0x5
 2894 0037 35       		.uleb128 0x35
 2895 0038 00       		.byte	0
 2896 0039 49       		.uleb128 0x49
 2897 003a 13       		.uleb128 0x13
 2898 003b 00       		.byte	0
 2899 003c 00       		.byte	0
 2900 003d 06       		.uleb128 0x6
 2901 003e 34       		.uleb128 0x34
 2902 003f 00       		.byte	0
 2903 0040 03       		.uleb128 0x3
 2904 0041 0E       		.uleb128 0xe
 2905 0042 3A       		.uleb128 0x3a
 2906 0043 0B       		.uleb128 0xb
 2907 0044 3B       		.uleb128 0x3b
ARM GAS  /tmp/cc5di5Tx.s 			page 52


 2908 0045 05       		.uleb128 0x5
 2909 0046 49       		.uleb128 0x49
 2910 0047 13       		.uleb128 0x13
 2911 0048 3F       		.uleb128 0x3f
 2912 0049 19       		.uleb128 0x19
 2913 004a 3C       		.uleb128 0x3c
 2914 004b 19       		.uleb128 0x19
 2915 004c 00       		.byte	0
 2916 004d 00       		.byte	0
 2917 004e 07       		.uleb128 0x7
 2918 004f 34       		.uleb128 0x34
 2919 0050 00       		.byte	0
 2920 0051 03       		.uleb128 0x3
 2921 0052 0E       		.uleb128 0xe
 2922 0053 3A       		.uleb128 0x3a
 2923 0054 0B       		.uleb128 0xb
 2924 0055 3B       		.uleb128 0x3b
 2925 0056 0B       		.uleb128 0xb
 2926 0057 49       		.uleb128 0x49
 2927 0058 13       		.uleb128 0x13
 2928 0059 3F       		.uleb128 0x3f
 2929 005a 19       		.uleb128 0x19
 2930 005b 3C       		.uleb128 0x3c
 2931 005c 19       		.uleb128 0x19
 2932 005d 00       		.byte	0
 2933 005e 00       		.byte	0
 2934 005f 08       		.uleb128 0x8
 2935 0060 13       		.uleb128 0x13
 2936 0061 01       		.byte	0x1
 2937 0062 0B       		.uleb128 0xb
 2938 0063 0B       		.uleb128 0xb
 2939 0064 3A       		.uleb128 0x3a
 2940 0065 0B       		.uleb128 0xb
 2941 0066 3B       		.uleb128 0x3b
 2942 0067 05       		.uleb128 0x5
 2943 0068 01       		.uleb128 0x1
 2944 0069 13       		.uleb128 0x13
 2945 006a 00       		.byte	0
 2946 006b 00       		.byte	0
 2947 006c 09       		.uleb128 0x9
 2948 006d 0D       		.uleb128 0xd
 2949 006e 00       		.byte	0
 2950 006f 03       		.uleb128 0x3
 2951 0070 08       		.uleb128 0x8
 2952 0071 3A       		.uleb128 0x3a
 2953 0072 0B       		.uleb128 0xb
 2954 0073 3B       		.uleb128 0x3b
 2955 0074 05       		.uleb128 0x5
 2956 0075 49       		.uleb128 0x49
 2957 0076 13       		.uleb128 0x13
 2958 0077 38       		.uleb128 0x38
 2959 0078 0B       		.uleb128 0xb
 2960 0079 00       		.byte	0
 2961 007a 00       		.byte	0
 2962 007b 0A       		.uleb128 0xa
 2963 007c 16       		.uleb128 0x16
 2964 007d 00       		.byte	0
ARM GAS  /tmp/cc5di5Tx.s 			page 53


 2965 007e 03       		.uleb128 0x3
 2966 007f 0E       		.uleb128 0xe
 2967 0080 3A       		.uleb128 0x3a
 2968 0081 0B       		.uleb128 0xb
 2969 0082 3B       		.uleb128 0x3b
 2970 0083 05       		.uleb128 0x5
 2971 0084 49       		.uleb128 0x49
 2972 0085 13       		.uleb128 0x13
 2973 0086 00       		.byte	0
 2974 0087 00       		.byte	0
 2975 0088 0B       		.uleb128 0xb
 2976 0089 04       		.uleb128 0x4
 2977 008a 01       		.byte	0x1
 2978 008b 3E       		.uleb128 0x3e
 2979 008c 0B       		.uleb128 0xb
 2980 008d 0B       		.uleb128 0xb
 2981 008e 0B       		.uleb128 0xb
 2982 008f 49       		.uleb128 0x49
 2983 0090 13       		.uleb128 0x13
 2984 0091 3A       		.uleb128 0x3a
 2985 0092 0B       		.uleb128 0xb
 2986 0093 3B       		.uleb128 0x3b
 2987 0094 0B       		.uleb128 0xb
 2988 0095 01       		.uleb128 0x1
 2989 0096 13       		.uleb128 0x13
 2990 0097 00       		.byte	0
 2991 0098 00       		.byte	0
 2992 0099 0C       		.uleb128 0xc
 2993 009a 28       		.uleb128 0x28
 2994 009b 00       		.byte	0
 2995 009c 03       		.uleb128 0x3
 2996 009d 0E       		.uleb128 0xe
 2997 009e 1C       		.uleb128 0x1c
 2998 009f 0B       		.uleb128 0xb
 2999 00a0 00       		.byte	0
 3000 00a1 00       		.byte	0
 3001 00a2 0D       		.uleb128 0xd
 3002 00a3 13       		.uleb128 0x13
 3003 00a4 01       		.byte	0x1
 3004 00a5 03       		.uleb128 0x3
 3005 00a6 0E       		.uleb128 0xe
 3006 00a7 0B       		.uleb128 0xb
 3007 00a8 0B       		.uleb128 0xb
 3008 00a9 3A       		.uleb128 0x3a
 3009 00aa 0B       		.uleb128 0xb
 3010 00ab 3B       		.uleb128 0x3b
 3011 00ac 0B       		.uleb128 0xb
 3012 00ad 01       		.uleb128 0x1
 3013 00ae 13       		.uleb128 0x13
 3014 00af 00       		.byte	0
 3015 00b0 00       		.byte	0
 3016 00b1 0E       		.uleb128 0xe
 3017 00b2 0D       		.uleb128 0xd
 3018 00b3 00       		.byte	0
 3019 00b4 03       		.uleb128 0x3
 3020 00b5 0E       		.uleb128 0xe
 3021 00b6 3A       		.uleb128 0x3a
ARM GAS  /tmp/cc5di5Tx.s 			page 54


 3022 00b7 0B       		.uleb128 0xb
 3023 00b8 3B       		.uleb128 0x3b
 3024 00b9 0B       		.uleb128 0xb
 3025 00ba 49       		.uleb128 0x49
 3026 00bb 13       		.uleb128 0x13
 3027 00bc 38       		.uleb128 0x38
 3028 00bd 0B       		.uleb128 0xb
 3029 00be 00       		.byte	0
 3030 00bf 00       		.byte	0
 3031 00c0 0F       		.uleb128 0xf
 3032 00c1 0D       		.uleb128 0xd
 3033 00c2 00       		.byte	0
 3034 00c3 03       		.uleb128 0x3
 3035 00c4 0E       		.uleb128 0xe
 3036 00c5 3A       		.uleb128 0x3a
 3037 00c6 0B       		.uleb128 0xb
 3038 00c7 3B       		.uleb128 0x3b
 3039 00c8 05       		.uleb128 0x5
 3040 00c9 49       		.uleb128 0x49
 3041 00ca 13       		.uleb128 0x13
 3042 00cb 38       		.uleb128 0x38
 3043 00cc 0B       		.uleb128 0xb
 3044 00cd 00       		.byte	0
 3045 00ce 00       		.byte	0
 3046 00cf 10       		.uleb128 0x10
 3047 00d0 0F       		.uleb128 0xf
 3048 00d1 00       		.byte	0
 3049 00d2 0B       		.uleb128 0xb
 3050 00d3 0B       		.uleb128 0xb
 3051 00d4 49       		.uleb128 0x49
 3052 00d5 13       		.uleb128 0x13
 3053 00d6 00       		.byte	0
 3054 00d7 00       		.byte	0
 3055 00d8 11       		.uleb128 0x11
 3056 00d9 13       		.uleb128 0x13
 3057 00da 01       		.byte	0x1
 3058 00db 03       		.uleb128 0x3
 3059 00dc 0E       		.uleb128 0xe
 3060 00dd 0B       		.uleb128 0xb
 3061 00de 0B       		.uleb128 0xb
 3062 00df 3A       		.uleb128 0x3a
 3063 00e0 0B       		.uleb128 0xb
 3064 00e1 3B       		.uleb128 0x3b
 3065 00e2 05       		.uleb128 0x5
 3066 00e3 01       		.uleb128 0x1
 3067 00e4 13       		.uleb128 0x13
 3068 00e5 00       		.byte	0
 3069 00e6 00       		.byte	0
 3070 00e7 12       		.uleb128 0x12
 3071 00e8 15       		.uleb128 0x15
 3072 00e9 01       		.byte	0x1
 3073 00ea 27       		.uleb128 0x27
 3074 00eb 19       		.uleb128 0x19
 3075 00ec 01       		.uleb128 0x1
 3076 00ed 13       		.uleb128 0x13
 3077 00ee 00       		.byte	0
 3078 00ef 00       		.byte	0
ARM GAS  /tmp/cc5di5Tx.s 			page 55


 3079 00f0 13       		.uleb128 0x13
 3080 00f1 05       		.uleb128 0x5
 3081 00f2 00       		.byte	0
 3082 00f3 49       		.uleb128 0x49
 3083 00f4 13       		.uleb128 0x13
 3084 00f5 00       		.byte	0
 3085 00f6 00       		.byte	0
 3086 00f7 14       		.uleb128 0x14
 3087 00f8 0F       		.uleb128 0xf
 3088 00f9 00       		.byte	0
 3089 00fa 0B       		.uleb128 0xb
 3090 00fb 0B       		.uleb128 0xb
 3091 00fc 00       		.byte	0
 3092 00fd 00       		.byte	0
 3093 00fe 15       		.uleb128 0x15
 3094 00ff 13       		.uleb128 0x13
 3095 0100 01       		.byte	0x1
 3096 0101 03       		.uleb128 0x3
 3097 0102 0E       		.uleb128 0xe
 3098 0103 0B       		.uleb128 0xb
 3099 0104 05       		.uleb128 0x5
 3100 0105 3A       		.uleb128 0x3a
 3101 0106 0B       		.uleb128 0xb
 3102 0107 3B       		.uleb128 0x3b
 3103 0108 05       		.uleb128 0x5
 3104 0109 01       		.uleb128 0x1
 3105 010a 13       		.uleb128 0x13
 3106 010b 00       		.byte	0
 3107 010c 00       		.byte	0
 3108 010d 16       		.uleb128 0x16
 3109 010e 0D       		.uleb128 0xd
 3110 010f 00       		.byte	0
 3111 0110 03       		.uleb128 0x3
 3112 0111 08       		.uleb128 0x8
 3113 0112 3A       		.uleb128 0x3a
 3114 0113 0B       		.uleb128 0xb
 3115 0114 3B       		.uleb128 0x3b
 3116 0115 0B       		.uleb128 0xb
 3117 0116 49       		.uleb128 0x49
 3118 0117 13       		.uleb128 0x13
 3119 0118 38       		.uleb128 0x38
 3120 0119 0B       		.uleb128 0xb
 3121 011a 00       		.byte	0
 3122 011b 00       		.byte	0
 3123 011c 17       		.uleb128 0x17
 3124 011d 13       		.uleb128 0x13
 3125 011e 01       		.byte	0x1
 3126 011f 0B       		.uleb128 0xb
 3127 0120 0B       		.uleb128 0xb
 3128 0121 3A       		.uleb128 0x3a
 3129 0122 0B       		.uleb128 0xb
 3130 0123 3B       		.uleb128 0x3b
 3131 0124 0B       		.uleb128 0xb
 3132 0125 01       		.uleb128 0x1
 3133 0126 13       		.uleb128 0x13
 3134 0127 00       		.byte	0
 3135 0128 00       		.byte	0
ARM GAS  /tmp/cc5di5Tx.s 			page 56


 3136 0129 18       		.uleb128 0x18
 3137 012a 17       		.uleb128 0x17
 3138 012b 01       		.byte	0x1
 3139 012c 0B       		.uleb128 0xb
 3140 012d 0B       		.uleb128 0xb
 3141 012e 3A       		.uleb128 0x3a
 3142 012f 0B       		.uleb128 0xb
 3143 0130 3B       		.uleb128 0x3b
 3144 0131 0B       		.uleb128 0xb
 3145 0132 01       		.uleb128 0x1
 3146 0133 13       		.uleb128 0x13
 3147 0134 00       		.byte	0
 3148 0135 00       		.byte	0
 3149 0136 19       		.uleb128 0x19
 3150 0137 0D       		.uleb128 0xd
 3151 0138 00       		.byte	0
 3152 0139 03       		.uleb128 0x3
 3153 013a 0E       		.uleb128 0xe
 3154 013b 3A       		.uleb128 0x3a
 3155 013c 0B       		.uleb128 0xb
 3156 013d 3B       		.uleb128 0x3b
 3157 013e 05       		.uleb128 0x5
 3158 013f 49       		.uleb128 0x49
 3159 0140 13       		.uleb128 0x13
 3160 0141 00       		.byte	0
 3161 0142 00       		.byte	0
 3162 0143 1A       		.uleb128 0x1a
 3163 0144 26       		.uleb128 0x26
 3164 0145 00       		.byte	0
 3165 0146 49       		.uleb128 0x49
 3166 0147 13       		.uleb128 0x13
 3167 0148 00       		.byte	0
 3168 0149 00       		.byte	0
 3169 014a 1B       		.uleb128 0x1b
 3170 014b 01       		.uleb128 0x1
 3171 014c 01       		.byte	0x1
 3172 014d 49       		.uleb128 0x49
 3173 014e 13       		.uleb128 0x13
 3174 014f 01       		.uleb128 0x1
 3175 0150 13       		.uleb128 0x13
 3176 0151 00       		.byte	0
 3177 0152 00       		.byte	0
 3178 0153 1C       		.uleb128 0x1c
 3179 0154 21       		.uleb128 0x21
 3180 0155 00       		.byte	0
 3181 0156 49       		.uleb128 0x49
 3182 0157 13       		.uleb128 0x13
 3183 0158 2F       		.uleb128 0x2f
 3184 0159 0B       		.uleb128 0xb
 3185 015a 00       		.byte	0
 3186 015b 00       		.byte	0
 3187 015c 1D       		.uleb128 0x1d
 3188 015d 34       		.uleb128 0x34
 3189 015e 00       		.byte	0
 3190 015f 03       		.uleb128 0x3
 3191 0160 08       		.uleb128 0x8
 3192 0161 3A       		.uleb128 0x3a
ARM GAS  /tmp/cc5di5Tx.s 			page 57


 3193 0162 0B       		.uleb128 0xb
 3194 0163 3B       		.uleb128 0x3b
 3195 0164 05       		.uleb128 0x5
 3196 0165 49       		.uleb128 0x49
 3197 0166 13       		.uleb128 0x13
 3198 0167 3F       		.uleb128 0x3f
 3199 0168 19       		.uleb128 0x19
 3200 0169 3C       		.uleb128 0x3c
 3201 016a 19       		.uleb128 0x19
 3202 016b 00       		.byte	0
 3203 016c 00       		.byte	0
 3204 016d 1E       		.uleb128 0x1e
 3205 016e 34       		.uleb128 0x34
 3206 016f 00       		.byte	0
 3207 0170 03       		.uleb128 0x3
 3208 0171 0E       		.uleb128 0xe
 3209 0172 3A       		.uleb128 0x3a
 3210 0173 0B       		.uleb128 0xb
 3211 0174 3B       		.uleb128 0x3b
 3212 0175 0B       		.uleb128 0xb
 3213 0176 49       		.uleb128 0x49
 3214 0177 13       		.uleb128 0x13
 3215 0178 3F       		.uleb128 0x3f
 3216 0179 19       		.uleb128 0x19
 3217 017a 02       		.uleb128 0x2
 3218 017b 18       		.uleb128 0x18
 3219 017c 00       		.byte	0
 3220 017d 00       		.byte	0
 3221 017e 1F       		.uleb128 0x1f
 3222 017f 21       		.uleb128 0x21
 3223 0180 00       		.byte	0
 3224 0181 49       		.uleb128 0x49
 3225 0182 13       		.uleb128 0x13
 3226 0183 2F       		.uleb128 0x2f
 3227 0184 05       		.uleb128 0x5
 3228 0185 00       		.byte	0
 3229 0186 00       		.byte	0
 3230 0187 20       		.uleb128 0x20
 3231 0188 2E       		.uleb128 0x2e
 3232 0189 01       		.byte	0x1
 3233 018a 03       		.uleb128 0x3
 3234 018b 0E       		.uleb128 0xe
 3235 018c 3A       		.uleb128 0x3a
 3236 018d 0B       		.uleb128 0xb
 3237 018e 3B       		.uleb128 0x3b
 3238 018f 05       		.uleb128 0x5
 3239 0190 27       		.uleb128 0x27
 3240 0191 19       		.uleb128 0x19
 3241 0192 49       		.uleb128 0x49
 3242 0193 13       		.uleb128 0x13
 3243 0194 20       		.uleb128 0x20
 3244 0195 0B       		.uleb128 0xb
 3245 0196 01       		.uleb128 0x1
 3246 0197 13       		.uleb128 0x13
 3247 0198 00       		.byte	0
 3248 0199 00       		.byte	0
 3249 019a 21       		.uleb128 0x21
ARM GAS  /tmp/cc5di5Tx.s 			page 58


 3250 019b 05       		.uleb128 0x5
 3251 019c 00       		.byte	0
 3252 019d 03       		.uleb128 0x3
 3253 019e 0E       		.uleb128 0xe
 3254 019f 3A       		.uleb128 0x3a
 3255 01a0 0B       		.uleb128 0xb
 3256 01a1 3B       		.uleb128 0x3b
 3257 01a2 05       		.uleb128 0x5
 3258 01a3 49       		.uleb128 0x49
 3259 01a4 13       		.uleb128 0x13
 3260 01a5 00       		.byte	0
 3261 01a6 00       		.byte	0
 3262 01a7 22       		.uleb128 0x22
 3263 01a8 34       		.uleb128 0x34
 3264 01a9 00       		.byte	0
 3265 01aa 03       		.uleb128 0x3
 3266 01ab 0E       		.uleb128 0xe
 3267 01ac 3A       		.uleb128 0x3a
 3268 01ad 0B       		.uleb128 0xb
 3269 01ae 3B       		.uleb128 0x3b
 3270 01af 05       		.uleb128 0x5
 3271 01b0 49       		.uleb128 0x49
 3272 01b1 13       		.uleb128 0x13
 3273 01b2 00       		.byte	0
 3274 01b3 00       		.byte	0
 3275 01b4 23       		.uleb128 0x23
 3276 01b5 0B       		.uleb128 0xb
 3277 01b6 01       		.byte	0x1
 3278 01b7 00       		.byte	0
 3279 01b8 00       		.byte	0
 3280 01b9 24       		.uleb128 0x24
 3281 01ba 34       		.uleb128 0x34
 3282 01bb 00       		.byte	0
 3283 01bc 03       		.uleb128 0x3
 3284 01bd 08       		.uleb128 0x8
 3285 01be 3A       		.uleb128 0x3a
 3286 01bf 0B       		.uleb128 0xb
 3287 01c0 3B       		.uleb128 0x3b
 3288 01c1 05       		.uleb128 0x5
 3289 01c2 49       		.uleb128 0x49
 3290 01c3 13       		.uleb128 0x13
 3291 01c4 00       		.byte	0
 3292 01c5 00       		.byte	0
 3293 01c6 25       		.uleb128 0x25
 3294 01c7 2E       		.uleb128 0x2e
 3295 01c8 01       		.byte	0x1
 3296 01c9 03       		.uleb128 0x3
 3297 01ca 0E       		.uleb128 0xe
 3298 01cb 3A       		.uleb128 0x3a
 3299 01cc 0B       		.uleb128 0xb
 3300 01cd 3B       		.uleb128 0x3b
 3301 01ce 05       		.uleb128 0x5
 3302 01cf 27       		.uleb128 0x27
 3303 01d0 19       		.uleb128 0x19
 3304 01d1 49       		.uleb128 0x49
 3305 01d2 13       		.uleb128 0x13
 3306 01d3 11       		.uleb128 0x11
ARM GAS  /tmp/cc5di5Tx.s 			page 59


 3307 01d4 01       		.uleb128 0x1
 3308 01d5 12       		.uleb128 0x12
 3309 01d6 06       		.uleb128 0x6
 3310 01d7 40       		.uleb128 0x40
 3311 01d8 18       		.uleb128 0x18
 3312 01d9 9742     		.uleb128 0x2117
 3313 01db 19       		.uleb128 0x19
 3314 01dc 01       		.uleb128 0x1
 3315 01dd 13       		.uleb128 0x13
 3316 01de 00       		.byte	0
 3317 01df 00       		.byte	0
 3318 01e0 26       		.uleb128 0x26
 3319 01e1 05       		.uleb128 0x5
 3320 01e2 00       		.byte	0
 3321 01e3 03       		.uleb128 0x3
 3322 01e4 0E       		.uleb128 0xe
 3323 01e5 3A       		.uleb128 0x3a
 3324 01e6 0B       		.uleb128 0xb
 3325 01e7 3B       		.uleb128 0x3b
 3326 01e8 05       		.uleb128 0x5
 3327 01e9 49       		.uleb128 0x49
 3328 01ea 13       		.uleb128 0x13
 3329 01eb 02       		.uleb128 0x2
 3330 01ec 17       		.uleb128 0x17
 3331 01ed 00       		.byte	0
 3332 01ee 00       		.byte	0
 3333 01ef 27       		.uleb128 0x27
 3334 01f0 34       		.uleb128 0x34
 3335 01f1 00       		.byte	0
 3336 01f2 03       		.uleb128 0x3
 3337 01f3 0E       		.uleb128 0xe
 3338 01f4 3A       		.uleb128 0x3a
 3339 01f5 0B       		.uleb128 0xb
 3340 01f6 3B       		.uleb128 0x3b
 3341 01f7 05       		.uleb128 0x5
 3342 01f8 49       		.uleb128 0x49
 3343 01f9 13       		.uleb128 0x13
 3344 01fa 02       		.uleb128 0x2
 3345 01fb 17       		.uleb128 0x17
 3346 01fc 00       		.byte	0
 3347 01fd 00       		.byte	0
 3348 01fe 28       		.uleb128 0x28
 3349 01ff 34       		.uleb128 0x34
 3350 0200 00       		.byte	0
 3351 0201 03       		.uleb128 0x3
 3352 0202 0E       		.uleb128 0xe
 3353 0203 3A       		.uleb128 0x3a
 3354 0204 0B       		.uleb128 0xb
 3355 0205 3B       		.uleb128 0x3b
 3356 0206 05       		.uleb128 0x5
 3357 0207 49       		.uleb128 0x49
 3358 0208 13       		.uleb128 0x13
 3359 0209 1C       		.uleb128 0x1c
 3360 020a 0B       		.uleb128 0xb
 3361 020b 00       		.byte	0
 3362 020c 00       		.byte	0
 3363 020d 29       		.uleb128 0x29
ARM GAS  /tmp/cc5di5Tx.s 			page 60


 3364 020e 1D       		.uleb128 0x1d
 3365 020f 01       		.byte	0x1
 3366 0210 31       		.uleb128 0x31
 3367 0211 13       		.uleb128 0x13
 3368 0212 52       		.uleb128 0x52
 3369 0213 01       		.uleb128 0x1
 3370 0214 55       		.uleb128 0x55
 3371 0215 17       		.uleb128 0x17
 3372 0216 58       		.uleb128 0x58
 3373 0217 0B       		.uleb128 0xb
 3374 0218 59       		.uleb128 0x59
 3375 0219 05       		.uleb128 0x5
 3376 021a 01       		.uleb128 0x1
 3377 021b 13       		.uleb128 0x13
 3378 021c 00       		.byte	0
 3379 021d 00       		.byte	0
 3380 021e 2A       		.uleb128 0x2a
 3381 021f 05       		.uleb128 0x5
 3382 0220 00       		.byte	0
 3383 0221 31       		.uleb128 0x31
 3384 0222 13       		.uleb128 0x13
 3385 0223 1C       		.uleb128 0x1c
 3386 0224 0B       		.uleb128 0xb
 3387 0225 00       		.byte	0
 3388 0226 00       		.byte	0
 3389 0227 2B       		.uleb128 0x2b
 3390 0228 0B       		.uleb128 0xb
 3391 0229 01       		.byte	0x1
 3392 022a 55       		.uleb128 0x55
 3393 022b 17       		.uleb128 0x17
 3394 022c 00       		.byte	0
 3395 022d 00       		.byte	0
 3396 022e 2C       		.uleb128 0x2c
 3397 022f 34       		.uleb128 0x34
 3398 0230 00       		.byte	0
 3399 0231 31       		.uleb128 0x31
 3400 0232 13       		.uleb128 0x13
 3401 0233 02       		.uleb128 0x2
 3402 0234 17       		.uleb128 0x17
 3403 0235 00       		.byte	0
 3404 0236 00       		.byte	0
 3405 0237 2D       		.uleb128 0x2d
 3406 0238 898201   		.uleb128 0x4109
 3407 023b 01       		.byte	0x1
 3408 023c 11       		.uleb128 0x11
 3409 023d 01       		.uleb128 0x1
 3410 023e 31       		.uleb128 0x31
 3411 023f 13       		.uleb128 0x13
 3412 0240 01       		.uleb128 0x1
 3413 0241 13       		.uleb128 0x13
 3414 0242 00       		.byte	0
 3415 0243 00       		.byte	0
 3416 0244 2E       		.uleb128 0x2e
 3417 0245 8A8201   		.uleb128 0x410a
 3418 0248 00       		.byte	0
 3419 0249 02       		.uleb128 0x2
 3420 024a 18       		.uleb128 0x18
ARM GAS  /tmp/cc5di5Tx.s 			page 61


 3421 024b 9142     		.uleb128 0x2111
 3422 024d 18       		.uleb128 0x18
 3423 024e 00       		.byte	0
 3424 024f 00       		.byte	0
 3425 0250 2F       		.uleb128 0x2f
 3426 0251 898201   		.uleb128 0x4109
 3427 0254 01       		.byte	0x1
 3428 0255 11       		.uleb128 0x11
 3429 0256 01       		.uleb128 0x1
 3430 0257 31       		.uleb128 0x31
 3431 0258 13       		.uleb128 0x13
 3432 0259 00       		.byte	0
 3433 025a 00       		.byte	0
 3434 025b 30       		.uleb128 0x30
 3435 025c 2E       		.uleb128 0x2e
 3436 025d 01       		.byte	0x1
 3437 025e 3F       		.uleb128 0x3f
 3438 025f 19       		.uleb128 0x19
 3439 0260 03       		.uleb128 0x3
 3440 0261 0E       		.uleb128 0xe
 3441 0262 3A       		.uleb128 0x3a
 3442 0263 0B       		.uleb128 0xb
 3443 0264 3B       		.uleb128 0x3b
 3444 0265 05       		.uleb128 0x5
 3445 0266 27       		.uleb128 0x27
 3446 0267 19       		.uleb128 0x19
 3447 0268 49       		.uleb128 0x49
 3448 0269 13       		.uleb128 0x13
 3449 026a 11       		.uleb128 0x11
 3450 026b 01       		.uleb128 0x1
 3451 026c 12       		.uleb128 0x12
 3452 026d 06       		.uleb128 0x6
 3453 026e 40       		.uleb128 0x40
 3454 026f 18       		.uleb128 0x18
 3455 0270 9742     		.uleb128 0x2117
 3456 0272 19       		.uleb128 0x19
 3457 0273 01       		.uleb128 0x1
 3458 0274 13       		.uleb128 0x13
 3459 0275 00       		.byte	0
 3460 0276 00       		.byte	0
 3461 0277 31       		.uleb128 0x31
 3462 0278 1D       		.uleb128 0x1d
 3463 0279 01       		.byte	0x1
 3464 027a 31       		.uleb128 0x31
 3465 027b 13       		.uleb128 0x13
 3466 027c 11       		.uleb128 0x11
 3467 027d 01       		.uleb128 0x1
 3468 027e 12       		.uleb128 0x12
 3469 027f 06       		.uleb128 0x6
 3470 0280 58       		.uleb128 0x58
 3471 0281 0B       		.uleb128 0xb
 3472 0282 59       		.uleb128 0x59
 3473 0283 05       		.uleb128 0x5
 3474 0284 01       		.uleb128 0x1
 3475 0285 13       		.uleb128 0x13
 3476 0286 00       		.byte	0
 3477 0287 00       		.byte	0
ARM GAS  /tmp/cc5di5Tx.s 			page 62


 3478 0288 32       		.uleb128 0x32
 3479 0289 05       		.uleb128 0x5
 3480 028a 00       		.byte	0
 3481 028b 31       		.uleb128 0x31
 3482 028c 13       		.uleb128 0x13
 3483 028d 02       		.uleb128 0x2
 3484 028e 17       		.uleb128 0x17
 3485 028f 00       		.byte	0
 3486 0290 00       		.byte	0
 3487 0291 33       		.uleb128 0x33
 3488 0292 05       		.uleb128 0x5
 3489 0293 00       		.byte	0
 3490 0294 31       		.uleb128 0x31
 3491 0295 13       		.uleb128 0x13
 3492 0296 02       		.uleb128 0x2
 3493 0297 18       		.uleb128 0x18
 3494 0298 00       		.byte	0
 3495 0299 00       		.byte	0
 3496 029a 34       		.uleb128 0x34
 3497 029b 0B       		.uleb128 0xb
 3498 029c 01       		.byte	0x1
 3499 029d 11       		.uleb128 0x11
 3500 029e 01       		.uleb128 0x1
 3501 029f 12       		.uleb128 0x12
 3502 02a0 06       		.uleb128 0x6
 3503 02a1 00       		.byte	0
 3504 02a2 00       		.byte	0
 3505 02a3 35       		.uleb128 0x35
 3506 02a4 34       		.uleb128 0x34
 3507 02a5 00       		.byte	0
 3508 02a6 31       		.uleb128 0x31
 3509 02a7 13       		.uleb128 0x13
 3510 02a8 1C       		.uleb128 0x1c
 3511 02a9 0B       		.uleb128 0xb
 3512 02aa 00       		.byte	0
 3513 02ab 00       		.byte	0
 3514 02ac 36       		.uleb128 0x36
 3515 02ad 898201   		.uleb128 0x4109
 3516 02b0 00       		.byte	0
 3517 02b1 11       		.uleb128 0x11
 3518 02b2 01       		.uleb128 0x1
 3519 02b3 31       		.uleb128 0x31
 3520 02b4 13       		.uleb128 0x13
 3521 02b5 00       		.byte	0
 3522 02b6 00       		.byte	0
 3523 02b7 37       		.uleb128 0x37
 3524 02b8 05       		.uleb128 0x5
 3525 02b9 00       		.byte	0
 3526 02ba 03       		.uleb128 0x3
 3527 02bb 0E       		.uleb128 0xe
 3528 02bc 3A       		.uleb128 0x3a
 3529 02bd 0B       		.uleb128 0xb
 3530 02be 3B       		.uleb128 0x3b
 3531 02bf 05       		.uleb128 0x5
 3532 02c0 49       		.uleb128 0x49
 3533 02c1 13       		.uleb128 0x13
 3534 02c2 02       		.uleb128 0x2
ARM GAS  /tmp/cc5di5Tx.s 			page 63


 3535 02c3 18       		.uleb128 0x18
 3536 02c4 00       		.byte	0
 3537 02c5 00       		.byte	0
 3538 02c6 38       		.uleb128 0x38
 3539 02c7 1D       		.uleb128 0x1d
 3540 02c8 01       		.byte	0x1
 3541 02c9 31       		.uleb128 0x31
 3542 02ca 13       		.uleb128 0x13
 3543 02cb 52       		.uleb128 0x52
 3544 02cc 01       		.uleb128 0x1
 3545 02cd 55       		.uleb128 0x55
 3546 02ce 17       		.uleb128 0x17
 3547 02cf 58       		.uleb128 0x58
 3548 02d0 0B       		.uleb128 0xb
 3549 02d1 59       		.uleb128 0x59
 3550 02d2 05       		.uleb128 0x5
 3551 02d3 00       		.byte	0
 3552 02d4 00       		.byte	0
 3553 02d5 39       		.uleb128 0x39
 3554 02d6 2E       		.uleb128 0x2e
 3555 02d7 01       		.byte	0x1
 3556 02d8 3F       		.uleb128 0x3f
 3557 02d9 19       		.uleb128 0x19
 3558 02da 03       		.uleb128 0x3
 3559 02db 0E       		.uleb128 0xe
 3560 02dc 3A       		.uleb128 0x3a
 3561 02dd 0B       		.uleb128 0xb
 3562 02de 3B       		.uleb128 0x3b
 3563 02df 0B       		.uleb128 0xb
 3564 02e0 27       		.uleb128 0x27
 3565 02e1 19       		.uleb128 0x19
 3566 02e2 49       		.uleb128 0x49
 3567 02e3 13       		.uleb128 0x13
 3568 02e4 11       		.uleb128 0x11
 3569 02e5 01       		.uleb128 0x1
 3570 02e6 12       		.uleb128 0x12
 3571 02e7 06       		.uleb128 0x6
 3572 02e8 40       		.uleb128 0x40
 3573 02e9 18       		.uleb128 0x18
 3574 02ea 9742     		.uleb128 0x2117
 3575 02ec 19       		.uleb128 0x19
 3576 02ed 01       		.uleb128 0x1
 3577 02ee 13       		.uleb128 0x13
 3578 02ef 00       		.byte	0
 3579 02f0 00       		.byte	0
 3580 02f1 3A       		.uleb128 0x3a
 3581 02f2 34       		.uleb128 0x34
 3582 02f3 00       		.byte	0
 3583 02f4 03       		.uleb128 0x3
 3584 02f5 0E       		.uleb128 0xe
 3585 02f6 3A       		.uleb128 0x3a
 3586 02f7 0B       		.uleb128 0xb
 3587 02f8 3B       		.uleb128 0x3b
 3588 02f9 0B       		.uleb128 0xb
 3589 02fa 49       		.uleb128 0x49
 3590 02fb 13       		.uleb128 0x13
 3591 02fc 02       		.uleb128 0x2
ARM GAS  /tmp/cc5di5Tx.s 			page 64


 3592 02fd 17       		.uleb128 0x17
 3593 02fe 00       		.byte	0
 3594 02ff 00       		.byte	0
 3595 0300 3B       		.uleb128 0x3b
 3596 0301 34       		.uleb128 0x34
 3597 0302 00       		.byte	0
 3598 0303 03       		.uleb128 0x3
 3599 0304 08       		.uleb128 0x8
 3600 0305 3A       		.uleb128 0x3a
 3601 0306 0B       		.uleb128 0xb
 3602 0307 3B       		.uleb128 0x3b
 3603 0308 0B       		.uleb128 0xb
 3604 0309 49       		.uleb128 0x49
 3605 030a 13       		.uleb128 0x13
 3606 030b 02       		.uleb128 0x2
 3607 030c 17       		.uleb128 0x17
 3608 030d 00       		.byte	0
 3609 030e 00       		.byte	0
 3610 030f 3C       		.uleb128 0x3c
 3611 0310 898201   		.uleb128 0x4109
 3612 0313 01       		.byte	0x1
 3613 0314 11       		.uleb128 0x11
 3614 0315 01       		.uleb128 0x1
 3615 0316 9542     		.uleb128 0x2115
 3616 0318 19       		.uleb128 0x19
 3617 0319 31       		.uleb128 0x31
 3618 031a 13       		.uleb128 0x13
 3619 031b 01       		.uleb128 0x1
 3620 031c 13       		.uleb128 0x13
 3621 031d 00       		.byte	0
 3622 031e 00       		.byte	0
 3623 031f 3D       		.uleb128 0x3d
 3624 0320 2E       		.uleb128 0x2e
 3625 0321 01       		.byte	0x1
 3626 0322 31       		.uleb128 0x31
 3627 0323 13       		.uleb128 0x13
 3628 0324 11       		.uleb128 0x11
 3629 0325 01       		.uleb128 0x1
 3630 0326 12       		.uleb128 0x12
 3631 0327 06       		.uleb128 0x6
 3632 0328 40       		.uleb128 0x40
 3633 0329 18       		.uleb128 0x18
 3634 032a 9742     		.uleb128 0x2117
 3635 032c 19       		.uleb128 0x19
 3636 032d 01       		.uleb128 0x1
 3637 032e 13       		.uleb128 0x13
 3638 032f 00       		.byte	0
 3639 0330 00       		.byte	0
 3640 0331 3E       		.uleb128 0x3e
 3641 0332 0B       		.uleb128 0xb
 3642 0333 01       		.byte	0x1
 3643 0334 31       		.uleb128 0x31
 3644 0335 13       		.uleb128 0x13
 3645 0336 11       		.uleb128 0x11
 3646 0337 01       		.uleb128 0x1
 3647 0338 12       		.uleb128 0x12
 3648 0339 06       		.uleb128 0x6
ARM GAS  /tmp/cc5di5Tx.s 			page 65


 3649 033a 01       		.uleb128 0x1
 3650 033b 13       		.uleb128 0x13
 3651 033c 00       		.byte	0
 3652 033d 00       		.byte	0
 3653 033e 3F       		.uleb128 0x3f
 3654 033f 0B       		.uleb128 0xb
 3655 0340 01       		.byte	0x1
 3656 0341 11       		.uleb128 0x11
 3657 0342 01       		.uleb128 0x1
 3658 0343 12       		.uleb128 0x12
 3659 0344 06       		.uleb128 0x6
 3660 0345 01       		.uleb128 0x1
 3661 0346 13       		.uleb128 0x13
 3662 0347 00       		.byte	0
 3663 0348 00       		.byte	0
 3664 0349 40       		.uleb128 0x40
 3665 034a 34       		.uleb128 0x34
 3666 034b 00       		.byte	0
 3667 034c 31       		.uleb128 0x31
 3668 034d 13       		.uleb128 0x13
 3669 034e 00       		.byte	0
 3670 034f 00       		.byte	0
 3671 0350 41       		.uleb128 0x41
 3672 0351 2E       		.uleb128 0x2e
 3673 0352 00       		.byte	0
 3674 0353 3F       		.uleb128 0x3f
 3675 0354 19       		.uleb128 0x19
 3676 0355 3C       		.uleb128 0x3c
 3677 0356 19       		.uleb128 0x19
 3678 0357 6E       		.uleb128 0x6e
 3679 0358 0E       		.uleb128 0xe
 3680 0359 03       		.uleb128 0x3
 3681 035a 0E       		.uleb128 0xe
 3682 035b 3A       		.uleb128 0x3a
 3683 035c 0B       		.uleb128 0xb
 3684 035d 3B       		.uleb128 0x3b
 3685 035e 05       		.uleb128 0x5
 3686 035f 00       		.byte	0
 3687 0360 00       		.byte	0
 3688 0361 42       		.uleb128 0x42
 3689 0362 2E       		.uleb128 0x2e
 3690 0363 00       		.byte	0
 3691 0364 3F       		.uleb128 0x3f
 3692 0365 19       		.uleb128 0x19
 3693 0366 3C       		.uleb128 0x3c
 3694 0367 19       		.uleb128 0x19
 3695 0368 6E       		.uleb128 0x6e
 3696 0369 0E       		.uleb128 0xe
 3697 036a 03       		.uleb128 0x3
 3698 036b 0E       		.uleb128 0xe
 3699 036c 3A       		.uleb128 0x3a
 3700 036d 0B       		.uleb128 0xb
 3701 036e 3B       		.uleb128 0x3b
 3702 036f 0B       		.uleb128 0xb
 3703 0370 00       		.byte	0
 3704 0371 00       		.byte	0
 3705 0372 00       		.byte	0
ARM GAS  /tmp/cc5di5Tx.s 			page 66


 3706              		.section	.debug_loc,"",%progbits
 3707              	.Ldebug_loc0:
 3708              	.LLST0:
 3709 0000 00000000 		.4byte	.LVL0
 3710 0004 40000000 		.4byte	.LVL7
 3711 0008 0100     		.2byte	0x1
 3712 000a 50       		.byte	0x50
 3713 000b 40000000 		.4byte	.LVL7
 3714 000f 4C000000 		.4byte	.LVL11
 3715 0013 0400     		.2byte	0x4
 3716 0015 F3       		.byte	0xf3
 3717 0016 01       		.uleb128 0x1
 3718 0017 50       		.byte	0x50
 3719 0018 9F       		.byte	0x9f
 3720 0019 4C000000 		.4byte	.LVL11
 3721 001d 5E000000 		.4byte	.LVL13
 3722 0021 0100     		.2byte	0x1
 3723 0023 50       		.byte	0x50
 3724 0024 5E000000 		.4byte	.LVL13
 3725 0028 60000000 		.4byte	.LVL14
 3726 002c 0400     		.2byte	0x4
 3727 002e F3       		.byte	0xf3
 3728 002f 01       		.uleb128 0x1
 3729 0030 50       		.byte	0x50
 3730 0031 9F       		.byte	0x9f
 3731 0032 60000000 		.4byte	.LVL14
 3732 0036 62000000 		.4byte	.LVL15
 3733 003a 0100     		.2byte	0x1
 3734 003c 50       		.byte	0x50
 3735 003d 62000000 		.4byte	.LVL15
 3736 0041 7C000000 		.4byte	.LFE224
 3737 0045 0400     		.2byte	0x4
 3738 0047 F3       		.byte	0xf3
 3739 0048 01       		.uleb128 0x1
 3740 0049 50       		.byte	0x50
 3741 004a 9F       		.byte	0x9f
 3742 004b 00000000 		.4byte	0
 3743 004f 00000000 		.4byte	0
 3744              	.LLST1:
 3745 0053 00000000 		.4byte	.LVL0
 3746 0057 43000000 		.4byte	.LVL8-1
 3747 005b 0100     		.2byte	0x1
 3748 005d 51       		.byte	0x51
 3749 005e 43000000 		.4byte	.LVL8-1
 3750 0062 4C000000 		.4byte	.LVL11
 3751 0066 0400     		.2byte	0x4
 3752 0068 F3       		.byte	0xf3
 3753 0069 01       		.uleb128 0x1
 3754 006a 51       		.byte	0x51
 3755 006b 9F       		.byte	0x9f
 3756 006c 4C000000 		.4byte	.LVL11
 3757 0070 64000000 		.4byte	.LVL16
 3758 0074 0100     		.2byte	0x1
 3759 0076 51       		.byte	0x51
 3760 0077 64000000 		.4byte	.LVL16
 3761 007b 7C000000 		.4byte	.LFE224
 3762 007f 0400     		.2byte	0x4
ARM GAS  /tmp/cc5di5Tx.s 			page 67


 3763 0081 F3       		.byte	0xf3
 3764 0082 01       		.uleb128 0x1
 3765 0083 51       		.byte	0x51
 3766 0084 9F       		.byte	0x9f
 3767 0085 00000000 		.4byte	0
 3768 0089 00000000 		.4byte	0
 3769              	.LLST2:
 3770 008d 00000000 		.4byte	.LVL0
 3771 0091 44000000 		.4byte	.LVL8
 3772 0095 0200     		.2byte	0x2
 3773 0097 39       		.byte	0x39
 3774 0098 9F       		.byte	0x9f
 3775 0099 44000000 		.4byte	.LVL8
 3776 009d 4A000000 		.4byte	.LVL10
 3777 00a1 0100     		.2byte	0x1
 3778 00a3 50       		.byte	0x50
 3779 00a4 4C000000 		.4byte	.LVL11
 3780 00a8 64000000 		.4byte	.LVL16
 3781 00ac 0200     		.2byte	0x2
 3782 00ae 39       		.byte	0x39
 3783 00af 9F       		.byte	0x9f
 3784 00b0 64000000 		.4byte	.LVL16
 3785 00b4 68000000 		.4byte	.LVL17
 3786 00b8 0100     		.2byte	0x1
 3787 00ba 50       		.byte	0x50
 3788 00bb 00000000 		.4byte	0
 3789 00bf 00000000 		.4byte	0
 3790              	.LLST3:
 3791 00c3 00000000 		.4byte	.LVL0
 3792 00c7 26000000 		.4byte	.LVL4
 3793 00cb 0600     		.2byte	0x6
 3794 00cd 0C       		.byte	0xc
 3795 00ce 00400008 		.4byte	0x8004000
 3796 00d2 9F       		.byte	0x9f
 3797 00d3 26000000 		.4byte	.LVL4
 3798 00d7 4C000000 		.4byte	.LVL11
 3799 00db 0100     		.2byte	0x1
 3800 00dd 54       		.byte	0x54
 3801 00de 4C000000 		.4byte	.LVL11
 3802 00e2 5C000000 		.4byte	.LVL12
 3803 00e6 0600     		.2byte	0x6
 3804 00e8 0C       		.byte	0xc
 3805 00e9 00400008 		.4byte	0x8004000
 3806 00ed 9F       		.byte	0x9f
 3807 00ee 5C000000 		.4byte	.LVL12
 3808 00f2 60000000 		.4byte	.LVL14
 3809 00f6 0100     		.2byte	0x1
 3810 00f8 54       		.byte	0x54
 3811 00f9 60000000 		.4byte	.LVL14
 3812 00fd 64000000 		.4byte	.LVL16
 3813 0101 0600     		.2byte	0x6
 3814 0103 0C       		.byte	0xc
 3815 0104 00400008 		.4byte	0x8004000
 3816 0108 9F       		.byte	0x9f
 3817 0109 64000000 		.4byte	.LVL16
 3818 010d 7C000000 		.4byte	.LFE224
 3819 0111 0100     		.2byte	0x1
ARM GAS  /tmp/cc5di5Tx.s 			page 68


 3820 0113 54       		.byte	0x54
 3821 0114 00000000 		.4byte	0
 3822 0118 00000000 		.4byte	0
 3823              	.LLST4:
 3824 011c 00000000 		.4byte	.LVL0
 3825 0120 2A000000 		.4byte	.LVL5
 3826 0124 0600     		.2byte	0x6
 3827 0126 0C       		.byte	0xc
 3828 0127 00800008 		.4byte	0x8008000
 3829 012b 9F       		.byte	0x9f
 3830 012c 2A000000 		.4byte	.LVL5
 3831 0130 43000000 		.4byte	.LVL8-1
 3832 0134 0100     		.2byte	0x1
 3833 0136 52       		.byte	0x52
 3834 0137 4C000000 		.4byte	.LVL11
 3835 013b 5C000000 		.4byte	.LVL12
 3836 013f 0600     		.2byte	0x6
 3837 0141 0C       		.byte	0xc
 3838 0142 00800008 		.4byte	0x8008000
 3839 0146 9F       		.byte	0x9f
 3840 0147 5C000000 		.4byte	.LVL12
 3841 014b 60000000 		.4byte	.LVL14
 3842 014f 0100     		.2byte	0x1
 3843 0151 52       		.byte	0x52
 3844 0152 60000000 		.4byte	.LVL14
 3845 0156 64000000 		.4byte	.LVL16
 3846 015a 0600     		.2byte	0x6
 3847 015c 0C       		.byte	0xc
 3848 015d 00800008 		.4byte	0x8008000
 3849 0161 9F       		.byte	0x9f
 3850 0162 00000000 		.4byte	0
 3851 0166 00000000 		.4byte	0
 3852              	.LLST5:
 3853 016a 00000000 		.4byte	.LVL0
 3854 016e 0E000000 		.4byte	.LVL1
 3855 0172 0200     		.2byte	0x2
 3856 0174 36       		.byte	0x36
 3857 0175 9F       		.byte	0x9f
 3858 0176 0E000000 		.4byte	.LVL1
 3859 017a 20000000 		.4byte	.LVL3
 3860 017e 0100     		.2byte	0x1
 3861 0180 52       		.byte	0x52
 3862 0181 4C000000 		.4byte	.LVL11
 3863 0185 5C000000 		.4byte	.LVL12
 3864 0189 0100     		.2byte	0x1
 3865 018b 52       		.byte	0x52
 3866 018c 60000000 		.4byte	.LVL14
 3867 0190 64000000 		.4byte	.LVL16
 3868 0194 0100     		.2byte	0x1
 3869 0196 52       		.byte	0x52
 3870 0197 00000000 		.4byte	0
 3871 019b 00000000 		.4byte	0
 3872              	.LLST6:
 3873 019f 00000000 		.4byte	.LVL0
 3874 01a3 0E000000 		.4byte	.LVL1
 3875 01a7 0200     		.2byte	0x2
 3876 01a9 36       		.byte	0x36
ARM GAS  /tmp/cc5di5Tx.s 			page 69


 3877 01aa 9F       		.byte	0x9f
 3878 01ab 0E000000 		.4byte	.LVL1
 3879 01af 1E000000 		.4byte	.LVL2
 3880 01b3 0100     		.2byte	0x1
 3881 01b5 54       		.byte	0x54
 3882 01b6 4C000000 		.4byte	.LVL11
 3883 01ba 5C000000 		.4byte	.LVL12
 3884 01be 0100     		.2byte	0x1
 3885 01c0 54       		.byte	0x54
 3886 01c1 60000000 		.4byte	.LVL14
 3887 01c5 64000000 		.4byte	.LVL16
 3888 01c9 0100     		.2byte	0x1
 3889 01cb 54       		.byte	0x54
 3890 01cc 00000000 		.4byte	0
 3891 01d0 00000000 		.4byte	0
 3892              	.LLST25:
 3893 01d4 00000000 		.4byte	.LVL92
 3894 01d8 13000000 		.4byte	.LVL93-1
 3895 01dc 0100     		.2byte	0x1
 3896 01de 50       		.byte	0x50
 3897 01df 13000000 		.4byte	.LVL93-1
 3898 01e3 20000000 		.4byte	.LVL96
 3899 01e7 0400     		.2byte	0x4
 3900 01e9 F3       		.byte	0xf3
 3901 01ea 01       		.uleb128 0x1
 3902 01eb 50       		.byte	0x50
 3903 01ec 9F       		.byte	0x9f
 3904 01ed 20000000 		.4byte	.LVL96
 3905 01f1 24000000 		.4byte	.LVL98
 3906 01f5 0100     		.2byte	0x1
 3907 01f7 50       		.byte	0x50
 3908 01f8 24000000 		.4byte	.LVL98
 3909 01fc D0000000 		.4byte	.LFE221
 3910 0200 0400     		.2byte	0x4
 3911 0202 F3       		.byte	0xf3
 3912 0203 01       		.uleb128 0x1
 3913 0204 50       		.byte	0x50
 3914 0205 9F       		.byte	0x9f
 3915 0206 00000000 		.4byte	0
 3916 020a 00000000 		.4byte	0
 3917              	.LLST26:
 3918 020e 00000000 		.4byte	.LVL92
 3919 0212 13000000 		.4byte	.LVL93-1
 3920 0216 0100     		.2byte	0x1
 3921 0218 51       		.byte	0x51
 3922 0219 13000000 		.4byte	.LVL93-1
 3923 021d 20000000 		.4byte	.LVL96
 3924 0221 0400     		.2byte	0x4
 3925 0223 F3       		.byte	0xf3
 3926 0224 01       		.uleb128 0x1
 3927 0225 51       		.byte	0x51
 3928 0226 9F       		.byte	0x9f
 3929 0227 20000000 		.4byte	.LVL96
 3930 022b 28000000 		.4byte	.LVL99
 3931 022f 0100     		.2byte	0x1
 3932 0231 51       		.byte	0x51
 3933 0232 28000000 		.4byte	.LVL99
ARM GAS  /tmp/cc5di5Tx.s 			page 70


 3934 0236 D0000000 		.4byte	.LFE221
 3935 023a 0400     		.2byte	0x4
 3936 023c F3       		.byte	0xf3
 3937 023d 01       		.uleb128 0x1
 3938 023e 51       		.byte	0x51
 3939 023f 9F       		.byte	0x9f
 3940 0240 00000000 		.4byte	0
 3941 0244 00000000 		.4byte	0
 3942              	.LLST27:
 3943 0248 00000000 		.4byte	.LVL92
 3944 024c 18000000 		.4byte	.LVL94
 3945 0250 0200     		.2byte	0x2
 3946 0252 30       		.byte	0x30
 3947 0253 9F       		.byte	0x9f
 3948 0254 18000000 		.4byte	.LVL94
 3949 0258 1A000000 		.4byte	.LVL95
 3950 025c 0100     		.2byte	0x1
 3951 025e 50       		.byte	0x50
 3952 025f 1A000000 		.4byte	.LVL95
 3953 0263 20000000 		.4byte	.LVL96
 3954 0267 0100     		.2byte	0x1
 3955 0269 54       		.byte	0x54
 3956 026a 20000000 		.4byte	.LVL96
 3957 026e 22000000 		.4byte	.LVL97
 3958 0272 0200     		.2byte	0x2
 3959 0274 30       		.byte	0x30
 3960 0275 9F       		.byte	0x9f
 3961 0276 22000000 		.4byte	.LVL97
 3962 027a 28000000 		.4byte	.LVL99
 3963 027e 0100     		.2byte	0x1
 3964 0280 54       		.byte	0x54
 3965 0281 28000000 		.4byte	.LVL99
 3966 0285 4A000000 		.4byte	.LVL103
 3967 0289 0100     		.2byte	0x1
 3968 028b 50       		.byte	0x50
 3969 028c 56000000 		.4byte	.LVL106
 3970 0290 5A000000 		.4byte	.LVL107
 3971 0294 0100     		.2byte	0x1
 3972 0296 50       		.byte	0x50
 3973 0297 00000000 		.4byte	0
 3974 029b 00000000 		.4byte	0
 3975              	.LLST28:
 3976 029f 28000000 		.4byte	.LVL99
 3977 02a3 52000000 		.4byte	.LVL105
 3978 02a7 0100     		.2byte	0x1
 3979 02a9 56       		.byte	0x56
 3980 02aa 56000000 		.4byte	.LVL106
 3981 02ae 6A000000 		.4byte	.LVL111
 3982 02b2 0100     		.2byte	0x1
 3983 02b4 56       		.byte	0x56
 3984 02b5 00000000 		.4byte	0
 3985 02b9 00000000 		.4byte	0
 3986              	.LLST29:
 3987 02bd 28000000 		.4byte	.LVL99
 3988 02c1 4E000000 		.4byte	.LVL104
 3989 02c5 0200     		.2byte	0x2
 3990 02c7 39       		.byte	0x39
ARM GAS  /tmp/cc5di5Tx.s 			page 71


 3991 02c8 9F       		.byte	0x9f
 3992 02c9 4E000000 		.4byte	.LVL104
 3993 02cd 52000000 		.4byte	.LVL105
 3994 02d1 0100     		.2byte	0x1
 3995 02d3 50       		.byte	0x50
 3996 02d4 56000000 		.4byte	.LVL106
 3997 02d8 5A000000 		.4byte	.LVL107
 3998 02dc 0200     		.2byte	0x2
 3999 02de 39       		.byte	0x39
 4000 02df 9F       		.byte	0x9f
 4001 02e0 5A000000 		.4byte	.LVL107
 4002 02e4 5E000000 		.4byte	.LVL108
 4003 02e8 0100     		.2byte	0x1
 4004 02ea 50       		.byte	0x50
 4005 02eb A6000000 		.4byte	.LVL117
 4006 02ef AE000000 		.4byte	.LVL118
 4007 02f3 0100     		.2byte	0x1
 4008 02f5 50       		.byte	0x50
 4009 02f6 B4000000 		.4byte	.LVL119
 4010 02fa D0000000 		.4byte	.LFE221
 4011 02fe 0100     		.2byte	0x1
 4012 0300 50       		.byte	0x50
 4013 0301 00000000 		.4byte	0
 4014 0305 00000000 		.4byte	0
 4015              	.LLST30:
 4016 0309 28000000 		.4byte	.LVL99
 4017 030d 44000000 		.4byte	.LVL102
 4018 0311 0600     		.2byte	0x6
 4019 0313 0C       		.byte	0xc
 4020 0314 00400008 		.4byte	0x8004000
 4021 0318 9F       		.byte	0x9f
 4022 0319 44000000 		.4byte	.LVL102
 4023 031d 56000000 		.4byte	.LVL106
 4024 0321 0100     		.2byte	0x1
 4025 0323 57       		.byte	0x57
 4026 0324 56000000 		.4byte	.LVL106
 4027 0328 5A000000 		.4byte	.LVL107
 4028 032c 0600     		.2byte	0x6
 4029 032e 0C       		.byte	0xc
 4030 032f 00400008 		.4byte	0x8004000
 4031 0333 9F       		.byte	0x9f
 4032 0334 5A000000 		.4byte	.LVL107
 4033 0338 D0000000 		.4byte	.LFE221
 4034 033c 0100     		.2byte	0x1
 4035 033e 57       		.byte	0x57
 4036 033f 00000000 		.4byte	0
 4037 0343 00000000 		.4byte	0
 4038              	.LLST31:
 4039 0347 28000000 		.4byte	.LVL99
 4040 034b 44000000 		.4byte	.LVL102
 4041 034f 0200     		.2byte	0x2
 4042 0351 30       		.byte	0x30
 4043 0352 9F       		.byte	0x9f
 4044 0353 44000000 		.4byte	.LVL102
 4045 0357 56000000 		.4byte	.LVL106
 4046 035b 0100     		.2byte	0x1
 4047 035d 58       		.byte	0x58
ARM GAS  /tmp/cc5di5Tx.s 			page 72


 4048 035e 56000000 		.4byte	.LVL106
 4049 0362 5A000000 		.4byte	.LVL107
 4050 0366 0200     		.2byte	0x2
 4051 0368 30       		.byte	0x30
 4052 0369 9F       		.byte	0x9f
 4053 036a 5A000000 		.4byte	.LVL107
 4054 036e D0000000 		.4byte	.LFE221
 4055 0372 0100     		.2byte	0x1
 4056 0374 58       		.byte	0x58
 4057 0375 00000000 		.4byte	0
 4058 0379 00000000 		.4byte	0
 4059              	.LLST32:
 4060 037d 28000000 		.4byte	.LVL99
 4061 0381 52000000 		.4byte	.LVL105
 4062 0385 0200     		.2byte	0x2
 4063 0387 30       		.byte	0x30
 4064 0388 9F       		.byte	0x9f
 4065 0389 56000000 		.4byte	.LVL106
 4066 038d 74000000 		.4byte	.LVL112
 4067 0391 0200     		.2byte	0x2
 4068 0393 30       		.byte	0x30
 4069 0394 9F       		.byte	0x9f
 4070 0395 00000000 		.4byte	0
 4071 0399 00000000 		.4byte	0
 4072              	.LLST33:
 4073 039d 28000000 		.4byte	.LVL99
 4074 03a1 52000000 		.4byte	.LVL105
 4075 03a5 0200     		.2byte	0x2
 4076 03a7 30       		.byte	0x30
 4077 03a8 9F       		.byte	0x9f
 4078 03a9 56000000 		.4byte	.LVL106
 4079 03ad 66000000 		.4byte	.LVL110
 4080 03b1 0200     		.2byte	0x2
 4081 03b3 30       		.byte	0x30
 4082 03b4 9F       		.byte	0x9f
 4083 03b5 66000000 		.4byte	.LVL110
 4084 03b9 74000000 		.4byte	.LVL112
 4085 03bd 0100     		.2byte	0x1
 4086 03bf 50       		.byte	0x50
 4087 03c0 98000000 		.4byte	.LVL115
 4088 03c4 A0000000 		.4byte	.LVL116
 4089 03c8 0100     		.2byte	0x1
 4090 03ca 50       		.byte	0x50
 4091 03cb 00000000 		.4byte	0
 4092 03cf 00000000 		.4byte	0
 4093              	.LLST34:
 4094 03d3 28000000 		.4byte	.LVL99
 4095 03d7 52000000 		.4byte	.LVL105
 4096 03db 0200     		.2byte	0x2
 4097 03dd 30       		.byte	0x30
 4098 03de 9F       		.byte	0x9f
 4099 03df 56000000 		.4byte	.LVL106
 4100 03e3 74000000 		.4byte	.LVL112
 4101 03e7 0200     		.2byte	0x2
 4102 03e9 30       		.byte	0x30
 4103 03ea 9F       		.byte	0x9f
 4104 03eb 88000000 		.4byte	.LVL113
ARM GAS  /tmp/cc5di5Tx.s 			page 73


 4105 03ef 94000000 		.4byte	.LVL114
 4106 03f3 0100     		.2byte	0x1
 4107 03f5 50       		.byte	0x50
 4108 03f6 00000000 		.4byte	0
 4109 03fa 00000000 		.4byte	0
 4110              	.LLST35:
 4111 03fe 28000000 		.4byte	.LVL99
 4112 0402 32000000 		.4byte	.LVL100
 4113 0406 0200     		.2byte	0x2
 4114 0408 36       		.byte	0x36
 4115 0409 9F       		.byte	0x9f
 4116 040a 32000000 		.4byte	.LVL100
 4117 040e 4D000000 		.4byte	.LVL104-1
 4118 0412 0100     		.2byte	0x1
 4119 0414 53       		.byte	0x53
 4120 0415 56000000 		.4byte	.LVL106
 4121 0419 5A000000 		.4byte	.LVL107
 4122 041d 0100     		.2byte	0x1
 4123 041f 53       		.byte	0x53
 4124 0420 00000000 		.4byte	0
 4125 0424 00000000 		.4byte	0
 4126              	.LLST36:
 4127 0428 28000000 		.4byte	.LVL99
 4128 042c 34000000 		.4byte	.LVL101
 4129 0430 0200     		.2byte	0x2
 4130 0432 36       		.byte	0x36
 4131 0433 9F       		.byte	0x9f
 4132 0434 34000000 		.4byte	.LVL101
 4133 0438 4D000000 		.4byte	.LVL104-1
 4134 043c 0100     		.2byte	0x1
 4135 043e 52       		.byte	0x52
 4136 043f 56000000 		.4byte	.LVL106
 4137 0443 5A000000 		.4byte	.LVL107
 4138 0447 0100     		.2byte	0x1
 4139 0449 52       		.byte	0x52
 4140 044a 00000000 		.4byte	0
 4141 044e 00000000 		.4byte	0
 4142              	.LLST11:
 4143 0452 00000000 		.4byte	.LVL36
 4144 0456 36000000 		.4byte	.LVL48
 4145 045a 0100     		.2byte	0x1
 4146 045c 50       		.byte	0x50
 4147 045d 36000000 		.4byte	.LVL48
 4148 0461 3C000000 		.4byte	.LVL49
 4149 0465 0400     		.2byte	0x4
 4150 0467 F3       		.byte	0xf3
 4151 0468 01       		.uleb128 0x1
 4152 0469 50       		.byte	0x50
 4153 046a 9F       		.byte	0x9f
 4154 046b 3C000000 		.4byte	.LVL49
 4155 046f 44000000 		.4byte	.LVL51
 4156 0473 0100     		.2byte	0x1
 4157 0475 50       		.byte	0x50
 4158 0476 44000000 		.4byte	.LVL51
 4159 047a 4A000000 		.4byte	.LVL52
 4160 047e 0400     		.2byte	0x4
 4161 0480 F3       		.byte	0xf3
ARM GAS  /tmp/cc5di5Tx.s 			page 74


 4162 0481 01       		.uleb128 0x1
 4163 0482 50       		.byte	0x50
 4164 0483 9F       		.byte	0x9f
 4165 0484 4A000000 		.4byte	.LVL52
 4166 0488 4C000000 		.4byte	.LVL53
 4167 048c 0100     		.2byte	0x1
 4168 048e 50       		.byte	0x50
 4169 048f 4C000000 		.4byte	.LVL53
 4170 0493 6C000000 		.4byte	.LFE220
 4171 0497 0400     		.2byte	0x4
 4172 0499 F3       		.byte	0xf3
 4173 049a 01       		.uleb128 0x1
 4174 049b 50       		.byte	0x50
 4175 049c 9F       		.byte	0x9f
 4176 049d 00000000 		.4byte	0
 4177 04a1 00000000 		.4byte	0
 4178              	.LLST12:
 4179 04a5 00000000 		.4byte	.LVL36
 4180 04a9 22000000 		.4byte	.LVL43
 4181 04ad 0400     		.2byte	0x4
 4182 04af 0A       		.byte	0xa
 4183 04b0 5555     		.2byte	0x5555
 4184 04b2 9F       		.byte	0x9f
 4185 04b3 22000000 		.4byte	.LVL43
 4186 04b7 28000000 		.4byte	.LVL44
 4187 04bb 0100     		.2byte	0x1
 4188 04bd 52       		.byte	0x52
 4189 04be 2A000000 		.4byte	.LVL45
 4190 04c2 2E000000 		.4byte	.LVL46
 4191 04c6 0100     		.2byte	0x1
 4192 04c8 52       		.byte	0x52
 4193 04c9 4A000000 		.4byte	.LVL52
 4194 04cd 6C000000 		.4byte	.LFE220
 4195 04d1 0400     		.2byte	0x4
 4196 04d3 0A       		.byte	0xa
 4197 04d4 5555     		.2byte	0x5555
 4198 04d6 9F       		.byte	0x9f
 4199 04d7 00000000 		.4byte	0
 4200 04db 00000000 		.4byte	0
 4201              	.LLST13:
 4202 04df 00000000 		.4byte	.LVL36
 4203 04e3 42000000 		.4byte	.LVL50
 4204 04e7 0200     		.2byte	0x2
 4205 04e9 31       		.byte	0x31
 4206 04ea 9F       		.byte	0x9f
 4207 04eb 42000000 		.4byte	.LVL50
 4208 04ef 4A000000 		.4byte	.LVL52
 4209 04f3 0200     		.2byte	0x2
 4210 04f5 30       		.byte	0x30
 4211 04f6 9F       		.byte	0x9f
 4212 04f7 4A000000 		.4byte	.LVL52
 4213 04fb 6C000000 		.4byte	.LFE220
 4214 04ff 0200     		.2byte	0x2
 4215 0501 31       		.byte	0x31
 4216 0502 9F       		.byte	0x9f
 4217 0503 00000000 		.4byte	0
 4218 0507 00000000 		.4byte	0
ARM GAS  /tmp/cc5di5Tx.s 			page 75


 4219              	.LLST14:
 4220 050b 00000000 		.4byte	.LVL36
 4221 050f 20000000 		.4byte	.LVL42
 4222 0513 0600     		.2byte	0x6
 4223 0515 0C       		.byte	0xc
 4224 0516 00400008 		.4byte	0x8004000
 4225 051a 9F       		.byte	0x9f
 4226 051b 28000000 		.4byte	.LVL44
 4227 051f 3C000000 		.4byte	.LVL49
 4228 0523 0100     		.2byte	0x1
 4229 0525 53       		.byte	0x53
 4230 0526 4A000000 		.4byte	.LVL52
 4231 052a 6C000000 		.4byte	.LFE220
 4232 052e 0600     		.2byte	0x6
 4233 0530 0C       		.byte	0xc
 4234 0531 00400008 		.4byte	0x8004000
 4235 0535 9F       		.byte	0x9f
 4236 0536 00000000 		.4byte	0
 4237 053a 00000000 		.4byte	0
 4238              	.LLST15:
 4239 053e 00000000 		.4byte	.LVL36
 4240 0542 20000000 		.4byte	.LVL42
 4241 0546 0600     		.2byte	0x6
 4242 0548 0C       		.byte	0xc
 4243 0549 00400008 		.4byte	0x8004000
 4244 054d 9F       		.byte	0x9f
 4245 054e 4A000000 		.4byte	.LVL52
 4246 0552 6C000000 		.4byte	.LFE220
 4247 0556 0600     		.2byte	0x6
 4248 0558 0C       		.byte	0xc
 4249 0559 00400008 		.4byte	0x8004000
 4250 055d 9F       		.byte	0x9f
 4251 055e 00000000 		.4byte	0
 4252 0562 00000000 		.4byte	0
 4253              	.LLST16:
 4254 0566 00000000 		.4byte	.LVL36
 4255 056a 0A000000 		.4byte	.LVL37
 4256 056e 0200     		.2byte	0x2
 4257 0570 36       		.byte	0x36
 4258 0571 9F       		.byte	0x9f
 4259 0572 0A000000 		.4byte	.LVL37
 4260 0576 14000000 		.4byte	.LVL38
 4261 057a 0100     		.2byte	0x1
 4262 057c 53       		.byte	0x53
 4263 057d 1A000000 		.4byte	.LVL40
 4264 0581 1C000000 		.4byte	.LVL41
 4265 0585 0100     		.2byte	0x1
 4266 0587 53       		.byte	0x53
 4267 0588 4A000000 		.4byte	.LVL52
 4268 058c 6C000000 		.4byte	.LFE220
 4269 0590 0100     		.2byte	0x1
 4270 0592 53       		.byte	0x53
 4271 0593 00000000 		.4byte	0
 4272 0597 00000000 		.4byte	0
 4273              	.LLST17:
 4274 059b 00000000 		.4byte	.LVL36
 4275 059f 0A000000 		.4byte	.LVL37
ARM GAS  /tmp/cc5di5Tx.s 			page 76


 4276 05a3 0200     		.2byte	0x2
 4277 05a5 36       		.byte	0x36
 4278 05a6 9F       		.byte	0x9f
 4279 05a7 0A000000 		.4byte	.LVL37
 4280 05ab 18000000 		.4byte	.LVL39
 4281 05af 0100     		.2byte	0x1
 4282 05b1 52       		.byte	0x52
 4283 05b2 1A000000 		.4byte	.LVL40
 4284 05b6 20000000 		.4byte	.LVL42
 4285 05ba 0100     		.2byte	0x1
 4286 05bc 52       		.byte	0x52
 4287 05bd 4A000000 		.4byte	.LVL52
 4288 05c1 6C000000 		.4byte	.LFE220
 4289 05c5 0100     		.2byte	0x1
 4290 05c7 52       		.byte	0x52
 4291 05c8 00000000 		.4byte	0
 4292 05cc 00000000 		.4byte	0
 4293              	.LLST18:
 4294 05d0 00000000 		.4byte	.LVL54
 4295 05d4 0E000000 		.4byte	.LVL55
 4296 05d8 0200     		.2byte	0x2
 4297 05da 36       		.byte	0x36
 4298 05db 9F       		.byte	0x9f
 4299 05dc 0E000000 		.4byte	.LVL55
 4300 05e0 28000000 		.4byte	.LVL58
 4301 05e4 0100     		.2byte	0x1
 4302 05e6 54       		.byte	0x54
 4303 05e7 2C000000 		.4byte	.LVL59
 4304 05eb 44000000 		.4byte	.LVL60
 4305 05ef 0100     		.2byte	0x1
 4306 05f1 54       		.byte	0x54
 4307 05f2 90000000 		.4byte	.LVL70
 4308 05f6 BA000000 		.4byte	.LVL76
 4309 05fa 0100     		.2byte	0x1
 4310 05fc 54       		.byte	0x54
 4311 05fd 0E010000 		.4byte	.LVL87
 4312 0601 44010000 		.4byte	.LFE219
 4313 0605 0100     		.2byte	0x1
 4314 0607 54       		.byte	0x54
 4315 0608 00000000 		.4byte	0
 4316 060c 00000000 		.4byte	0
 4317              	.LLST19:
 4318 0610 00000000 		.4byte	.LVL54
 4319 0614 16000000 		.4byte	.LVL56
 4320 0618 0200     		.2byte	0x2
 4321 061a 36       		.byte	0x36
 4322 061b 9F       		.byte	0x9f
 4323 061c 16000000 		.4byte	.LVL56
 4324 0620 25000000 		.4byte	.LVL57-1
 4325 0624 0100     		.2byte	0x1
 4326 0626 53       		.byte	0x53
 4327 0627 2C000000 		.4byte	.LVL59
 4328 062b 44000000 		.4byte	.LVL60
 4329 062f 0100     		.2byte	0x1
 4330 0631 53       		.byte	0x53
 4331 0632 90000000 		.4byte	.LVL70
 4332 0636 9D000000 		.4byte	.LVL71-1
ARM GAS  /tmp/cc5di5Tx.s 			page 77


 4333 063a 0100     		.2byte	0x1
 4334 063c 53       		.byte	0x53
 4335 063d AE000000 		.4byte	.LVL75
 4336 0641 C2000000 		.4byte	.LVL77
 4337 0645 0100     		.2byte	0x1
 4338 0647 53       		.byte	0x53
 4339 0648 0E010000 		.4byte	.LVL87
 4340 064c 1B010000 		.4byte	.LVL88-1
 4341 0650 0100     		.2byte	0x1
 4342 0652 53       		.byte	0x53
 4343 0653 00000000 		.4byte	0
 4344 0657 00000000 		.4byte	0
 4345              	.LLST20:
 4346 065b 00000000 		.4byte	.LVL54
 4347 065f 28000000 		.4byte	.LVL58
 4348 0663 0200     		.2byte	0x2
 4349 0665 30       		.byte	0x30
 4350 0666 9F       		.byte	0x9f
 4351 0667 2C000000 		.4byte	.LVL59
 4352 066b 44000000 		.4byte	.LVL60
 4353 066f 0200     		.2byte	0x2
 4354 0671 30       		.byte	0x30
 4355 0672 9F       		.byte	0x9f
 4356 0673 44000000 		.4byte	.LVL60
 4357 0677 5A000000 		.4byte	.LVL62
 4358 067b 0100     		.2byte	0x1
 4359 067d 54       		.byte	0x54
 4360 067e 90000000 		.4byte	.LVL70
 4361 0682 C2000000 		.4byte	.LVL77
 4362 0686 0200     		.2byte	0x2
 4363 0688 30       		.byte	0x30
 4364 0689 9F       		.byte	0x9f
 4365 068a C2000000 		.4byte	.LVL77
 4366 068e D8000000 		.4byte	.LVL79
 4367 0692 0100     		.2byte	0x1
 4368 0694 54       		.byte	0x54
 4369 0695 0E010000 		.4byte	.LVL87
 4370 0699 44010000 		.4byte	.LFE219
 4371 069d 0200     		.2byte	0x2
 4372 069f 30       		.byte	0x30
 4373 06a0 9F       		.byte	0x9f
 4374 06a1 00000000 		.4byte	0
 4375 06a5 00000000 		.4byte	0
 4376              	.LLST21:
 4377 06a9 00000000 		.4byte	.LVL54
 4378 06ad 28000000 		.4byte	.LVL58
 4379 06b1 0200     		.2byte	0x2
 4380 06b3 30       		.byte	0x30
 4381 06b4 9F       		.byte	0x9f
 4382 06b5 2C000000 		.4byte	.LVL59
 4383 06b9 44000000 		.4byte	.LVL60
 4384 06bd 0200     		.2byte	0x2
 4385 06bf 30       		.byte	0x30
 4386 06c0 9F       		.byte	0x9f
 4387 06c1 70000000 		.4byte	.LVL65
 4388 06c5 74000000 		.4byte	.LVL66
 4389 06c9 0100     		.2byte	0x1
ARM GAS  /tmp/cc5di5Tx.s 			page 78


 4390 06cb 50       		.byte	0x50
 4391 06cc 90000000 		.4byte	.LVL70
 4392 06d0 C2000000 		.4byte	.LVL77
 4393 06d4 0200     		.2byte	0x2
 4394 06d6 30       		.byte	0x30
 4395 06d7 9F       		.byte	0x9f
 4396 06d8 EE000000 		.4byte	.LVL82
 4397 06dc F2000000 		.4byte	.LVL83
 4398 06e0 0100     		.2byte	0x1
 4399 06e2 50       		.byte	0x50
 4400 06e3 0E010000 		.4byte	.LVL87
 4401 06e7 44010000 		.4byte	.LFE219
 4402 06eb 0200     		.2byte	0x2
 4403 06ed 30       		.byte	0x30
 4404 06ee 9F       		.byte	0x9f
 4405 06ef 00000000 		.4byte	0
 4406 06f3 00000000 		.4byte	0
 4407              	.LLST22:
 4408 06f7 00000000 		.4byte	.LVL54
 4409 06fb 28000000 		.4byte	.LVL58
 4410 06ff 0200     		.2byte	0x2
 4411 0701 30       		.byte	0x30
 4412 0702 9F       		.byte	0x9f
 4413 0703 2C000000 		.4byte	.LVL59
 4414 0707 44000000 		.4byte	.LVL60
 4415 070b 0200     		.2byte	0x2
 4416 070d 30       		.byte	0x30
 4417 070e 9F       		.byte	0x9f
 4418 070f 60000000 		.4byte	.LVL63
 4419 0713 6C000000 		.4byte	.LVL64
 4420 0717 0100     		.2byte	0x1
 4421 0719 50       		.byte	0x50
 4422 071a 90000000 		.4byte	.LVL70
 4423 071e C2000000 		.4byte	.LVL77
 4424 0722 0200     		.2byte	0x2
 4425 0724 30       		.byte	0x30
 4426 0725 9F       		.byte	0x9f
 4427 0726 DE000000 		.4byte	.LVL80
 4428 072a EA000000 		.4byte	.LVL81
 4429 072e 0100     		.2byte	0x1
 4430 0730 50       		.byte	0x50
 4431 0731 0E010000 		.4byte	.LVL87
 4432 0735 44010000 		.4byte	.LFE219
 4433 0739 0200     		.2byte	0x2
 4434 073b 30       		.byte	0x30
 4435 073c 9F       		.byte	0x9f
 4436 073d 00000000 		.4byte	0
 4437 0741 00000000 		.4byte	0
 4438              	.LLST23:
 4439 0745 00000000 		.4byte	.LVL54
 4440 0749 28000000 		.4byte	.LVL58
 4441 074d 0300     		.2byte	0x3
 4442 074f 09       		.byte	0x9
 4443 0750 FF       		.byte	0xff
 4444 0751 9F       		.byte	0x9f
 4445 0752 2C000000 		.4byte	.LVL59
 4446 0756 44000000 		.4byte	.LVL60
ARM GAS  /tmp/cc5di5Tx.s 			page 79


 4447 075a 0300     		.2byte	0x3
 4448 075c 09       		.byte	0x9
 4449 075d FF       		.byte	0xff
 4450 075e 9F       		.byte	0x9f
 4451 075f 44000000 		.4byte	.LVL60
 4452 0763 86000000 		.4byte	.LVL69
 4453 0767 0100     		.2byte	0x1
 4454 0769 56       		.byte	0x56
 4455 076a 90000000 		.4byte	.LVL70
 4456 076e C2000000 		.4byte	.LVL77
 4457 0772 0300     		.2byte	0x3
 4458 0774 09       		.byte	0x9
 4459 0775 FF       		.byte	0xff
 4460 0776 9F       		.byte	0x9f
 4461 0777 C2000000 		.4byte	.LVL77
 4462 077b 04010000 		.4byte	.LVL86
 4463 077f 0100     		.2byte	0x1
 4464 0781 56       		.byte	0x56
 4465 0782 0E010000 		.4byte	.LVL87
 4466 0786 44010000 		.4byte	.LFE219
 4467 078a 0300     		.2byte	0x3
 4468 078c 09       		.byte	0x9
 4469 078d FF       		.byte	0xff
 4470 078e 9F       		.byte	0x9f
 4471 078f 00000000 		.4byte	0
 4472 0793 00000000 		.4byte	0
 4473              	.LLST24:
 4474 0797 82000000 		.4byte	.LVL68
 4475 079b 86000000 		.4byte	.LVL69
 4476 079f 0100     		.2byte	0x1
 4477 07a1 50       		.byte	0x50
 4478 07a2 9E000000 		.4byte	.LVL71
 4479 07a6 A4000000 		.4byte	.LVL72
 4480 07aa 0100     		.2byte	0x1
 4481 07ac 50       		.byte	0x50
 4482 07ad AC000000 		.4byte	.LVL74
 4483 07b1 AE000000 		.4byte	.LVL75
 4484 07b5 0100     		.2byte	0x1
 4485 07b7 50       		.byte	0x50
 4486 07b8 00010000 		.4byte	.LVL85
 4487 07bc 04010000 		.4byte	.LVL86
 4488 07c0 0100     		.2byte	0x1
 4489 07c2 50       		.byte	0x50
 4490 07c3 1C010000 		.4byte	.LVL88
 4491 07c7 22010000 		.4byte	.LVL89
 4492 07cb 0100     		.2byte	0x1
 4493 07cd 50       		.byte	0x50
 4494 07ce 2A010000 		.4byte	.LVL91
 4495 07d2 44010000 		.4byte	.LFE219
 4496 07d6 0100     		.2byte	0x1
 4497 07d8 50       		.byte	0x50
 4498 07d9 00000000 		.4byte	0
 4499 07dd 00000000 		.4byte	0
 4500              	.LLST7:
 4501 07e1 00000000 		.4byte	.LVL19
 4502 07e5 07000000 		.4byte	.LVL20-1
 4503 07e9 0100     		.2byte	0x1
ARM GAS  /tmp/cc5di5Tx.s 			page 80


 4504 07eb 50       		.byte	0x50
 4505 07ec 07000000 		.4byte	.LVL20-1
 4506 07f0 2E000000 		.4byte	.LFE228
 4507 07f4 0100     		.2byte	0x1
 4508 07f6 54       		.byte	0x54
 4509 07f7 00000000 		.4byte	0
 4510 07fb 00000000 		.4byte	0
 4511              	.LLST8:
 4512 07ff 08000000 		.4byte	.LVL20
 4513 0803 10000000 		.4byte	.LVL21
 4514 0807 0100     		.2byte	0x1
 4515 0809 50       		.byte	0x50
 4516 080a 10000000 		.4byte	.LVL21
 4517 080e 12000000 		.4byte	.LVL22
 4518 0812 0300     		.2byte	0x3
 4519 0814 70       		.byte	0x70
 4520 0815 01       		.sleb128 1
 4521 0816 9F       		.byte	0x9f
 4522 0817 12000000 		.4byte	.LVL22
 4523 081b 25000000 		.4byte	.LVL26-1
 4524 081f 0500     		.2byte	0x5
 4525 0821 72       		.byte	0x72
 4526 0822 81807F   		.sleb128 -16383
 4527 0825 9F       		.byte	0x9f
 4528 0826 2A000000 		.4byte	.LVL27
 4529 082a 2E000000 		.4byte	.LFE228
 4530 082e 0500     		.2byte	0x5
 4531 0830 72       		.byte	0x72
 4532 0831 81807F   		.sleb128 -16383
 4533 0834 9F       		.byte	0x9f
 4534 0835 00000000 		.4byte	0
 4535 0839 00000000 		.4byte	0
 4536              	.LLST9:
 4537 083d 08000000 		.4byte	.LVL20
 4538 0841 12000000 		.4byte	.LVL22
 4539 0845 0200     		.2byte	0x2
 4540 0847 30       		.byte	0x30
 4541 0848 9F       		.byte	0x9f
 4542 0849 12000000 		.4byte	.LVL22
 4543 084d 20000000 		.4byte	.LVL25
 4544 0851 0A00     		.2byte	0xa
 4545 0853 70       		.byte	0x70
 4546 0854 00       		.sleb128 0
 4547 0855 72       		.byte	0x72
 4548 0856 00       		.sleb128 0
 4549 0857 1C       		.byte	0x1c
 4550 0858 23       		.byte	0x23
 4551 0859 808001   		.uleb128 0x4000
 4552 085c 9F       		.byte	0x9f
 4553 085d 2A000000 		.4byte	.LVL27
 4554 0861 2C000000 		.4byte	.LVL28
 4555 0865 0A00     		.2byte	0xa
 4556 0867 70       		.byte	0x70
 4557 0868 00       		.sleb128 0
 4558 0869 72       		.byte	0x72
 4559 086a 00       		.sleb128 0
 4560 086b 1C       		.byte	0x1c
ARM GAS  /tmp/cc5di5Tx.s 			page 81


 4561 086c 23       		.byte	0x23
 4562 086d 808001   		.uleb128 0x4000
 4563 0870 9F       		.byte	0x9f
 4564 0871 00000000 		.4byte	0
 4565 0875 00000000 		.4byte	0
 4566              	.LLST10:
 4567 0879 00000000 		.4byte	.LVL29
 4568 087d 0A000000 		.4byte	.LVL31
 4569 0881 0200     		.2byte	0x2
 4570 0883 39       		.byte	0x39
 4571 0884 9F       		.byte	0x9f
 4572 0885 0A000000 		.4byte	.LVL31
 4573 0889 14000000 		.4byte	.LVL32
 4574 088d 0100     		.2byte	0x1
 4575 088f 50       		.byte	0x50
 4576 0890 18000000 		.4byte	.LVL33
 4577 0894 1E000000 		.4byte	.LVL34
 4578 0898 0100     		.2byte	0x1
 4579 089a 50       		.byte	0x50
 4580 089b 00000000 		.4byte	0
 4581 089f 00000000 		.4byte	0
 4582              		.section	.debug_aranges,"",%progbits
 4583 0000 44000000 		.4byte	0x44
 4584 0004 0200     		.2byte	0x2
 4585 0006 00000000 		.4byte	.Ldebug_info0
 4586 000a 04       		.byte	0x4
 4587 000b 00       		.byte	0
 4588 000c 0000     		.2byte	0
 4589 000e 0000     		.2byte	0
 4590 0010 00000000 		.4byte	.LFB224
 4591 0014 7C000000 		.4byte	.LFE224-.LFB224
 4592 0018 00000000 		.4byte	.LFB228
 4593 001c 2E000000 		.4byte	.LFE228-.LFB228
 4594 0020 00000000 		.4byte	.LFB222
 4595 0024 2C000000 		.4byte	.LFE222-.LFB222
 4596 0028 00000000 		.4byte	.LFB220
 4597 002c 6C000000 		.4byte	.LFE220-.LFB220
 4598 0030 00000000 		.4byte	.LFB219
 4599 0034 44010000 		.4byte	.LFE219-.LFB219
 4600 0038 00000000 		.4byte	.LFB221
 4601 003c D0000000 		.4byte	.LFE221-.LFB221
 4602 0040 00000000 		.4byte	0
 4603 0044 00000000 		.4byte	0
 4604              		.section	.debug_ranges,"",%progbits
 4605              	.Ldebug_ranges0:
 4606 0000 02000000 		.4byte	.LBB9
 4607 0004 1A000000 		.4byte	.LBE9
 4608 0008 4C000000 		.4byte	.LBB12
 4609 000c 5C000000 		.4byte	.LBE12
 4610 0010 00000000 		.4byte	0
 4611 0014 00000000 		.4byte	0
 4612 0018 00000000 		.4byte	.LBB17
 4613 001c 0A000000 		.4byte	.LBE17
 4614 0020 0C000000 		.4byte	.LBB20
 4615 0024 20000000 		.4byte	.LBE20
 4616 0028 00000000 		.4byte	0
 4617 002c 00000000 		.4byte	0
ARM GAS  /tmp/cc5di5Tx.s 			page 82


 4618 0030 00000000 		.4byte	.LFB224
 4619 0034 7C000000 		.4byte	.LFE224
 4620 0038 00000000 		.4byte	.LFB228
 4621 003c 2E000000 		.4byte	.LFE228
 4622 0040 00000000 		.4byte	.LFB222
 4623 0044 2C000000 		.4byte	.LFE222
 4624 0048 00000000 		.4byte	.LFB220
 4625 004c 6C000000 		.4byte	.LFE220
 4626 0050 00000000 		.4byte	.LFB219
 4627 0054 44010000 		.4byte	.LFE219
 4628 0058 00000000 		.4byte	.LFB221
 4629 005c D0000000 		.4byte	.LFE221
 4630 0060 00000000 		.4byte	0
 4631 0064 00000000 		.4byte	0
 4632              		.section	.debug_line,"",%progbits
 4633              	.Ldebug_line0:
 4634 0000 0C040000 		.section	.debug_str,"MS",%progbits,1
 4634      02006F02 
 4634      00000201 
 4634      FB0E0D00 
 4634      01010101 
 4635              	.LASF130:
 4636 0000 63665F6F 		.ascii	"cf_off_older\000"
 4636      66665F6F 
 4636      6C646572 
 4636      00
 4637              	.LASF71:
 4638 000d 72656164 		.ascii	"ready_list_t\000"
 4638      795F6C69 
 4638      73745F74 
 4638      00
 4639              	.LASF105:
 4640 001a 7264796D 		.ascii	"rdymsg\000"
 4640      736700
 4641              	.LASF20:
 4642 0021 75696E74 		.ascii	"uint64_t\000"
 4642      36345F74 
 4642      00
 4643              	.LASF42:
 4644 002a 6576656E 		.ascii	"eventmask_t\000"
 4644      746D6173 
 4644      6B5F7400 
 4645              	.LASF2:
 4646 0036 5F5F7569 		.ascii	"__uint8_t\000"
 4646      6E74385F 
 4646      7400
 4647              	.LASF126:
 4648 0040 63685F74 		.ascii	"ch_threadsize\000"
 4648      68726561 
 4648      6473697A 
 4648      6500
 4649              	.LASF102:
 4650 004e 706F7274 		.ascii	"port_intctx\000"
 4650      5F696E74 
 4650      63747800 
 4651              	.LASF96:
 4652 005a 76746C69 		.ascii	"vtlist\000"
ARM GAS  /tmp/cc5di5Tx.s 			page 83


 4652      737400
 4653              	.LASF176:
 4654 0061 474E5520 		.ascii	"GNU C99 7.3.1 20180622 (release) [ARM/embedded-7-br"
 4654      43393920 
 4654      372E332E 
 4654      31203230 
 4654      31383036 
 4655 0094 616E6368 		.ascii	"anch revision 261907] -mcpu=cortex-m4 -mfloat-abi=h"
 4655      20726576 
 4655      6973696F 
 4655      6E203236 
 4655      31393037 
 4656 00c7 61726420 		.ascii	"ard -mfpu=fpv4-sp-d16 -mno-thumb-interwork -mthumb "
 4656      2D6D6670 
 4656      753D6670 
 4656      76342D73 
 4656      702D6431 
 4657 00fa 2D676764 		.ascii	"-ggdb -O2 -std=gnu99 -fomit-frame-pointer -falign-f"
 4657      62202D4F 
 4657      32202D73 
 4657      74643D67 
 4657      6E753939 
 4658 012d 756E6374 		.ascii	"unctions=16 -ffunction-sections -fdata-sections -fn"
 4658      696F6E73 
 4658      3D313620 
 4658      2D666675 
 4658      6E637469 
 4659 0160 6F2D636F 		.ascii	"o-common -fsingle-precision-constant\000"
 4659      6D6D6F6E 
 4659      202D6673 
 4659      696E676C 
 4659      652D7072 
 4660              	.LASF85:
 4661 0185 76745F66 		.ascii	"vt_func\000"
 4661      756E6300 
 4662              	.LASF13:
 4663 018d 6C6F6E67 		.ascii	"long long unsigned int\000"
 4663      206C6F6E 
 4663      6720756E 
 4663      7369676E 
 4663      65642069 
 4664              	.LASF168:
 4665 01a4 45455F57 		.ascii	"EE_WriteVariable\000"
 4665      72697465 
 4665      56617269 
 4665      61626C65 
 4665      00
 4666              	.LASF97:
 4667 01b5 6D61696E 		.ascii	"mainthread\000"
 4667      74687265 
 4667      616400
 4668              	.LASF157:
 4669 01c0 56617249 		.ascii	"VarIdx\000"
 4669      647800
 4670              	.LASF87:
 4671 01c7 76697274 		.ascii	"virtual_timers_list_t\000"
 4671      75616C5F 
ARM GAS  /tmp/cc5di5Tx.s 			page 84


 4671      74696D65 
 4671      72735F6C 
 4671      6973745F 
 4672              	.LASF153:
 4673 01dd 466C6173 		.ascii	"FlashStatus\000"
 4673      68537461 
 4673      74757300 
 4674              	.LASF21:
 4675 01e9 49544D5F 		.ascii	"ITM_RxBuffer\000"
 4675      52784275 
 4675      66666572 
 4675      00
 4676              	.LASF70:
 4677 01f6 63685F74 		.ascii	"ch_threads_queue\000"
 4677      68726561 
 4677      64735F71 
 4677      75657565 
 4677      00
 4678              	.LASF48:
 4679 0207 705F7072 		.ascii	"p_prio\000"
 4679      696F00
 4680              	.LASF133:
 4681 020e 63665F6F 		.ascii	"cf_off_state\000"
 4681      66665F73 
 4681      74617465 
 4681      00
 4682              	.LASF16:
 4683 021b 696E7431 		.ascii	"int16_t\000"
 4683      365F7400 
 4684              	.LASF11:
 4685 0223 6C6F6E67 		.ascii	"long long int\000"
 4685      206C6F6E 
 4685      6720696E 
 4685      7400
 4686              	.LASF0:
 4687 0231 7369676E 		.ascii	"signed char\000"
 4687      65642063 
 4687      68617200 
 4688              	.LASF177:
 4689 023d 65657072 		.ascii	"eeprom.c\000"
 4689      6F6D2E63 
 4689      00
 4690              	.LASF132:
 4691 0246 63665F6F 		.ascii	"cf_off_stklimit\000"
 4691      66665F73 
 4691      746B6C69 
 4691      6D697400 
 4692              	.LASF134:
 4693 0256 63665F6F 		.ascii	"cf_off_flags\000"
 4693      66665F66 
 4693      6C616773 
 4693      00
 4694              	.LASF64:
 4695 0263 705F6D70 		.ascii	"p_mpool\000"
 4695      6F6F6C00 
 4696              	.LASF116:
 4697 026b 6D5F7175 		.ascii	"m_queue\000"
ARM GAS  /tmp/cc5di5Tx.s 			page 85


 4697      65756500 
 4698              	.LASF24:
 4699 0273 464C4153 		.ascii	"FLASH_BUSY\000"
 4699      485F4255 
 4699      535900
 4700              	.LASF149:
 4701 027e 45455F45 		.ascii	"EE_EraseSectorIfNotEmpty\000"
 4701      72617365 
 4701      53656374 
 4701      6F724966 
 4701      4E6F7445 
 4702              	.LASF107:
 4703 0297 77746F62 		.ascii	"wtobjp\000"
 4703      6A7000
 4704              	.LASF39:
 4705 029e 74736C69 		.ascii	"tslices_t\000"
 4705      6365735F 
 4705      7400
 4706              	.LASF146:
 4707 02a8 464C4153 		.ascii	"FLASH_Sector\000"
 4707      485F5365 
 4707      63746F72 
 4707      00
 4708              	.LASF108:
 4709 02b5 77747472 		.ascii	"wttrp\000"
 4709      7000
 4710              	.LASF94:
 4711 02bb 63685F73 		.ascii	"ch_system\000"
 4711      79737465 
 4711      6D00
 4712              	.LASF8:
 4713 02c5 6C6F6E67 		.ascii	"long int\000"
 4713      20696E74 
 4713      00
 4714              	.LASF37:
 4715 02ce 74737461 		.ascii	"tstate_t\000"
 4715      74655F74 
 4715      00
 4716              	.LASF17:
 4717 02d7 75696E74 		.ascii	"uint16_t\000"
 4717      31365F74 
 4717      00
 4718              	.LASF138:
 4719 02e0 63686465 		.ascii	"chdebug_t\000"
 4719      6275675F 
 4719      7400
 4720              	.LASF50:
 4721 02ea 705F6E65 		.ascii	"p_newer\000"
 4721      77657200 
 4722              	.LASF113:
 4723 02f2 735F7175 		.ascii	"s_queue\000"
 4723      65756500 
 4724              	.LASF106:
 4725 02fa 65786974 		.ascii	"exitcode\000"
 4725      636F6465 
 4725      00
 4726              	.LASF33:
ARM GAS  /tmp/cc5di5Tx.s 			page 86


 4727 0303 464C4153 		.ascii	"FLASH_Status\000"
 4727      485F5374 
 4727      61747573 
 4727      00
 4728              	.LASF76:
 4729 0310 725F6E65 		.ascii	"r_newer\000"
 4729      77657200 
 4730              	.LASF99:
 4731 0318 72656761 		.ascii	"regarm_t\000"
 4731      726D5F74 
 4731      00
 4732              	.LASF83:
 4733 0321 76745F70 		.ascii	"vt_prev\000"
 4733      72657600 
 4734              	.LASF150:
 4735 0329 45455F50 		.ascii	"EE_PageTransfer\000"
 4735      61676554 
 4735      72616E73 
 4735      66657200 
 4736              	.LASF3:
 4737 0339 5F5F696E 		.ascii	"__int16_t\000"
 4737      7431365F 
 4737      7400
 4738              	.LASF34:
 4739 0343 73697A65 		.ascii	"size_t\000"
 4739      5F7400
 4740              	.LASF140:
 4741 034a 6D757465 		.ascii	"mutex_t\000"
 4741      785F7400 
 4742              	.LASF98:
 4743 0352 69646C65 		.ascii	"idle_thread_wa\000"
 4743      5F746872 
 4743      6561645F 
 4743      776100
 4744              	.LASF43:
 4745 0361 636E745F 		.ascii	"cnt_t\000"
 4745      7400
 4746              	.LASF14:
 4747 0367 756E7369 		.ascii	"unsigned int\000"
 4747      676E6564 
 4747      20696E74 
 4747      00
 4748              	.LASF82:
 4749 0374 76745F6E 		.ascii	"vt_next\000"
 4749      65787400 
 4750              	.LASF22:
 4751 037c 53797374 		.ascii	"SystemCoreClock\000"
 4751      656D436F 
 4751      7265436C 
 4751      6F636B00 
 4752              	.LASF109:
 4753 038c 77747365 		.ascii	"wtsemp\000"
 4753      6D7000
 4754              	.LASF84:
 4755 0393 76745F64 		.ascii	"vt_delta\000"
 4755      656C7461 
 4755      00
ARM GAS  /tmp/cc5di5Tx.s 			page 87


 4756              	.LASF90:
 4757 039c 73797374 		.ascii	"system_debug_t\000"
 4757      656D5F64 
 4757      65627567 
 4757      5F7400
 4758              	.LASF139:
 4759 03ab 63685F64 		.ascii	"ch_debug\000"
 4759      65627567 
 4759      00
 4760              	.LASF178:
 4761 03b4 2F686F6D 		.ascii	"/home/patrick/git_bldc\000"
 4761      652F7061 
 4761      74726963 
 4761      6B2F6769 
 4761      745F626C 
 4762              	.LASF72:
 4763 03cb 63685F72 		.ascii	"ch_ready_list\000"
 4763      65616479 
 4763      5F6C6973 
 4763      7400
 4764              	.LASF79:
 4765 03d9 76746675 		.ascii	"vtfunc_t\000"
 4765      6E635F74 
 4765      00
 4766              	.LASF120:
 4767 03e2 63685F69 		.ascii	"ch_identifier\000"
 4767      64656E74 
 4767      69666965 
 4767      7200
 4768              	.LASF114:
 4769 03f0 735F636E 		.ascii	"s_cnt\000"
 4769      7400
 4770              	.LASF101:
 4771 03f6 636F6E74 		.ascii	"context\000"
 4771      65787400 
 4772              	.LASF6:
 4773 03fe 73686F72 		.ascii	"short unsigned int\000"
 4773      7420756E 
 4773      7369676E 
 4773      65642069 
 4773      6E7400
 4774              	.LASF143:
 4775 0411 636F6E66 		.ascii	"conf_general_permanent_nrf_found\000"
 4775      5F67656E 
 4775      6572616C 
 4775      5F706572 
 4775      6D616E65 
 4776              	.LASF67:
 4777 0432 63685F74 		.ascii	"ch_thread\000"
 4777      68726561 
 4777      6400
 4778              	.LASF41:
 4779 043c 6D73675F 		.ascii	"msg_t\000"
 4779      7400
 4780              	.LASF162:
 4781 0442 45455F46 		.ascii	"EE_FindValidPage\000"
 4781      696E6456 
ARM GAS  /tmp/cc5di5Tx.s 			page 88


 4781      616C6964 
 4781      50616765 
 4781      00
 4782              	.LASF155:
 4783 0453 4F6C6450 		.ascii	"OldPageId\000"
 4783      61676549 
 4783      6400
 4784              	.LASF93:
 4785 045d 63685F73 		.ascii	"ch_system_t\000"
 4785      79737465 
 4785      6D5F7400 
 4786              	.LASF161:
 4787 0469 50616765 		.ascii	"PageEndAddress\000"
 4787      456E6441 
 4787      64647265 
 4787      737300
 4788              	.LASF172:
 4789 0478 45455F49 		.ascii	"EE_Init\000"
 4789      6E697400 
 4790              	.LASF137:
 4791 0480 63665F6F 		.ascii	"cf_off_time\000"
 4791      66665F74 
 4791      696D6500 
 4792              	.LASF151:
 4793 048c 56697274 		.ascii	"VirtAddress\000"
 4793      41646472 
 4793      65737300 
 4794              	.LASF160:
 4795 0498 41646472 		.ascii	"Address\000"
 4795      65737300 
 4796              	.LASF166:
 4797 04a0 45455F46 		.ascii	"EE_Format\000"
 4797      6F726D61 
 4797      7400
 4798              	.LASF7:
 4799 04aa 5F5F696E 		.ascii	"__int32_t\000"
 4799      7433325F 
 4799      7400
 4800              	.LASF159:
 4801 04b4 52656164 		.ascii	"ReadStatus\000"
 4801      53746174 
 4801      757300
 4802              	.LASF100:
 4803 04bf 73746B61 		.ascii	"stkalign_t\000"
 4803      6C69676E 
 4803      5F7400
 4804              	.LASF121:
 4805 04ca 63685F7A 		.ascii	"ch_zero\000"
 4805      65726F00 
 4806              	.LASF135:
 4807 04d2 63665F6F 		.ascii	"cf_off_refs\000"
 4807      66665F72 
 4807      65667300 
 4808              	.LASF175:
 4809 04de 666C6173 		.ascii	"flash_helper_get_sector_address\000"
 4809      685F6865 
 4809      6C706572 
ARM GAS  /tmp/cc5di5Tx.s 			page 89


 4809      5F676574 
 4809      5F736563 
 4810              	.LASF74:
 4811 04fe 725F7072 		.ascii	"r_prio\000"
 4811      696F00
 4812              	.LASF35:
 4813 0505 7274636E 		.ascii	"rtcnt_t\000"
 4813      745F7400 
 4814              	.LASF65:
 4815 050d 74687265 		.ascii	"thread_reference_t\000"
 4815      61645F72 
 4815      65666572 
 4815      656E6365 
 4815      5F7400
 4816              	.LASF104:
 4817 0520 746D5F63 		.ascii	"tm_calibration_t\000"
 4817      616C6962 
 4817      72617469 
 4817      6F6E5F74 
 4817      00
 4818              	.LASF88:
 4819 0531 63685F76 		.ascii	"ch_virtual_timers_list\000"
 4819      69727475 
 4819      616C5F74 
 4819      696D6572 
 4819      735F6C69 
 4820              	.LASF171:
 4821 0548 50616765 		.ascii	"PageStartAddress\000"
 4821      53746172 
 4821      74416464 
 4821      72657373 
 4821      00
 4822              	.LASF125:
 4823 0559 63685F74 		.ascii	"ch_timesize\000"
 4823      696D6573 
 4823      697A6500 
 4824              	.LASF165:
 4825 0565 50616765 		.ascii	"PageStatus1\000"
 4825      53746174 
 4825      75733100 
 4826              	.LASF131:
 4827 0571 63665F6F 		.ascii	"cf_off_name\000"
 4827      66665F6E 
 4827      616D6500 
 4828              	.LASF51:
 4829 057d 705F6F6C 		.ascii	"p_older\000"
 4829      64657200 
 4830              	.LASF75:
 4831 0585 725F6374 		.ascii	"r_ctx\000"
 4831      7800
 4832              	.LASF122:
 4833 058b 63685F73 		.ascii	"ch_size\000"
 4833      697A6500 
 4834              	.LASF78:
 4835 0593 725F6375 		.ascii	"r_current\000"
 4835      7272656E 
 4835      7400
ARM GAS  /tmp/cc5di5Tx.s 			page 90


 4836              	.LASF77:
 4837 059d 725F6F6C 		.ascii	"r_older\000"
 4837      64657200 
 4838              	.LASF30:
 4839 05a5 464C4153 		.ascii	"FLASH_ERROR_PROGRAM\000"
 4839      485F4552 
 4839      524F525F 
 4839      50524F47 
 4839      52414D00 
 4840              	.LASF12:
 4841 05b9 5F5F7569 		.ascii	"__uint64_t\000"
 4841      6E743634 
 4841      5F7400
 4842              	.LASF141:
 4843 05c4 666C6F61 		.ascii	"float\000"
 4843      7400
 4844              	.LASF38:
 4845 05ca 74726566 		.ascii	"trefs_t\000"
 4845      735F7400 
 4846              	.LASF164:
 4847 05d2 50616765 		.ascii	"PageStatus0\000"
 4847      53746174 
 4847      75733000 
 4848              	.LASF124:
 4849 05de 63685F70 		.ascii	"ch_ptrsize\000"
 4849      74727369 
 4849      7A6500
 4850              	.LASF80:
 4851 05e9 76697274 		.ascii	"virtual_timer_t\000"
 4851      75616C5F 
 4851      74696D65 
 4851      725F7400 
 4852              	.LASF47:
 4853 05f9 705F7072 		.ascii	"p_prev\000"
 4853      657600
 4854              	.LASF40:
 4855 0600 74707269 		.ascii	"tprio_t\000"
 4855      6F5F7400 
 4856              	.LASF148:
 4857 0608 61646472 		.ascii	"addr\000"
 4857      00
 4858              	.LASF91:
 4859 060d 63685F73 		.ascii	"ch_system_debug\000"
 4859      79737465 
 4859      6D5F6465 
 4859      62756700 
 4860              	.LASF142:
 4861 061d 5F426F6F 		.ascii	"_Bool\000"
 4861      6C00
 4862              	.LASF18:
 4863 0623 696E7433 		.ascii	"int32_t\000"
 4863      325F7400 
 4864              	.LASF1:
 4865 062b 756E7369 		.ascii	"unsigned char\000"
 4865      676E6564 
 4865      20636861 
 4865      7200
ARM GAS  /tmp/cc5di5Tx.s 			page 91


 4866              	.LASF170:
 4867 0639 41646472 		.ascii	"AddressValue\000"
 4867      65737356 
 4867      616C7565 
 4867      00
 4868              	.LASF163:
 4869 0646 4F706572 		.ascii	"Operation\000"
 4869      6174696F 
 4869      6E00
 4870              	.LASF62:
 4871 0650 705F6D74 		.ascii	"p_mtxlist\000"
 4871      786C6973 
 4871      7400
 4872              	.LASF4:
 4873 065a 73686F72 		.ascii	"short int\000"
 4873      7420696E 
 4873      7400
 4874              	.LASF53:
 4875 0664 705F7374 		.ascii	"p_state\000"
 4875      61746500 
 4876              	.LASF174:
 4877 066c 464C4153 		.ascii	"FLASH_EraseSector\000"
 4877      485F4572 
 4877      61736553 
 4877      6563746F 
 4877      7200
 4878              	.LASF56:
 4879 067e 705F7072 		.ascii	"p_preempt\000"
 4879      65656D70 
 4879      7400
 4880              	.LASF123:
 4881 0688 63685F76 		.ascii	"ch_version\000"
 4881      65727369 
 4881      6F6E00
 4882              	.LASF111:
 4883 0693 65776D61 		.ascii	"ewmask\000"
 4883      736B00
 4884              	.LASF46:
 4885 069a 705F6E65 		.ascii	"p_next\000"
 4885      787400
 4886              	.LASF36:
 4887 06a1 746D6F64 		.ascii	"tmode_t\000"
 4887      655F7400 
 4888              	.LASF136:
 4889 06a9 63665F6F 		.ascii	"cf_off_preempt\000"
 4889      66665F70 
 4889      7265656D 
 4889      707400
 4890              	.LASF54:
 4891 06b8 705F666C 		.ascii	"p_flags\000"
 4891      61677300 
 4892              	.LASF158:
 4893 06c0 45657072 		.ascii	"EepromStatus\000"
 4893      6F6D5374 
 4893      61747573 
 4893      00
 4894              	.LASF69:
ARM GAS  /tmp/cc5di5Tx.s 			page 92


 4895 06cd 74687265 		.ascii	"threads_queue_t\000"
 4895      6164735F 
 4895      71756575 
 4895      655F7400 
 4896              	.LASF81:
 4897 06dd 63685F76 		.ascii	"ch_virtual_timer\000"
 4897      69727475 
 4897      616C5F74 
 4897      696D6572 
 4897      00
 4898              	.LASF129:
 4899 06ee 63665F6F 		.ascii	"cf_off_newer\000"
 4899      66665F6E 
 4899      65776572 
 4899      00
 4900              	.LASF112:
 4901 06fb 63685F73 		.ascii	"ch_semaphore\000"
 4901      656D6170 
 4901      686F7265 
 4901      00
 4902              	.LASF61:
 4903 0708 705F6570 		.ascii	"p_epending\000"
 4903      656E6469 
 4903      6E6700
 4904              	.LASF28:
 4905 0713 464C4153 		.ascii	"FLASH_ERROR_PGA\000"
 4905      485F4552 
 4905      524F525F 
 4905      50474100 
 4906              	.LASF110:
 4907 0723 77746D74 		.ascii	"wtmtxp\000"
 4907      787000
 4908              	.LASF73:
 4909 072a 725F7175 		.ascii	"r_queue\000"
 4909      65756500 
 4910              	.LASF89:
 4911 0732 76745F73 		.ascii	"vt_systime\000"
 4911      79737469 
 4911      6D6500
 4912              	.LASF68:
 4913 073d 63685F74 		.ascii	"ch_threads_list\000"
 4913      68726561 
 4913      64735F6C 
 4913      69737400 
 4914              	.LASF10:
 4915 074d 6C6F6E67 		.ascii	"long unsigned int\000"
 4915      20756E73 
 4915      69676E65 
 4915      6420696E 
 4915      7400
 4916              	.LASF156:
 4917 075f 56616C69 		.ascii	"ValidPage\000"
 4917      64506167 
 4917      6500
 4918              	.LASF119:
 4919 0769 63686172 		.ascii	"char\000"
 4919      00
ARM GAS  /tmp/cc5di5Tx.s 			page 93


 4920              	.LASF27:
 4921 076e 464C4153 		.ascii	"FLASH_ERROR_PGP\000"
 4921      485F4552 
 4921      524F525F 
 4921      50475000 
 4922              	.LASF147:
 4923 077e 566F6C74 		.ascii	"VoltageRange\000"
 4923      61676552 
 4923      616E6765 
 4923      00
 4924              	.LASF26:
 4925 078b 464C4153 		.ascii	"FLASH_ERROR_PGS\000"
 4925      485F4552 
 4925      524F525F 
 4925      50475300 
 4926              	.LASF167:
 4927 079b 53746174 		.ascii	"Status\000"
 4927      757300
 4928              	.LASF5:
 4929 07a2 5F5F7569 		.ascii	"__uint16_t\000"
 4929      6E743136 
 4929      5F7400
 4930              	.LASF45:
 4931 07ad 74687265 		.ascii	"thread_t\000"
 4931      61645F74 
 4931      00
 4932              	.LASF118:
 4933 07b6 6D5F6E65 		.ascii	"m_next\000"
 4933      787400
 4934              	.LASF44:
 4935 07bd 73797374 		.ascii	"systime_t\000"
 4935      696D655F 
 4935      7400
 4936              	.LASF63:
 4937 07c7 705F7265 		.ascii	"p_realprio\000"
 4937      616C7072 
 4937      696F00
 4938              	.LASF15:
 4939 07d2 75696E74 		.ascii	"uint8_t\000"
 4939      385F7400 
 4940              	.LASF9:
 4941 07da 5F5F7569 		.ascii	"__uint32_t\000"
 4941      6E743332 
 4941      5F7400
 4942              	.LASF92:
 4943 07e5 70616E69 		.ascii	"panic_msg\000"
 4943      635F6D73 
 4943      6700
 4944              	.LASF127:
 4945 07ef 63665F6F 		.ascii	"cf_off_prio\000"
 4945      66665F70 
 4945      72696F00 
 4946              	.LASF103:
 4947 07fb 6F666673 		.ascii	"offset\000"
 4947      657400
 4948              	.LASF23:
 4949 0802 5057525F 		.ascii	"PWR_TypeDef\000"
ARM GAS  /tmp/cc5di5Tx.s 			page 94


 4949      54797065 
 4949      44656600 
 4950              	.LASF57:
 4951 080e 705F7469 		.ascii	"p_time\000"
 4951      6D6500
 4952              	.LASF145:
 4953 0815 56697274 		.ascii	"VirtAddVarTab\000"
 4953      41646456 
 4953      61725461 
 4953      6200
 4954              	.LASF59:
 4955 0823 705F6D73 		.ascii	"p_msgqueue\000"
 4955      67717565 
 4955      756500
 4956              	.LASF169:
 4957 082e 45455F52 		.ascii	"EE_ReadVariable\000"
 4957      65616456 
 4957      61726961 
 4957      626C6500 
 4958              	.LASF86:
 4959 083e 76745F70 		.ascii	"vt_par\000"
 4959      617200
 4960              	.LASF25:
 4961 0845 464C4153 		.ascii	"FLASH_ERROR_RD\000"
 4961      485F4552 
 4961      524F525F 
 4961      524400
 4962              	.LASF128:
 4963 0854 63665F6F 		.ascii	"cf_off_ctx\000"
 4963      66665F63 
 4963      747800
 4964              	.LASF55:
 4965 085f 705F7265 		.ascii	"p_refs\000"
 4965      667300
 4966              	.LASF144:
 4967 0866 44617461 		.ascii	"DataVar\000"
 4967      56617200 
 4968              	.LASF95:
 4969 086e 726C6973 		.ascii	"rlist\000"
 4969      7400
 4970              	.LASF154:
 4971 0874 4E657750 		.ascii	"NewPageAddress\000"
 4971      61676541 
 4971      64647265 
 4971      737300
 4972              	.LASF152:
 4973 0883 44617461 		.ascii	"Data\000"
 4973      00
 4974              	.LASF179:
 4975 0888 45455F56 		.ascii	"EE_VerifyPageFullWriteVariable\000"
 4975      65726966 
 4975      79506167 
 4975      6546756C 
 4975      6C577269 
 4976              	.LASF115:
 4977 08a7 63685F6D 		.ascii	"ch_mutex\000"
 4977      75746578 
ARM GAS  /tmp/cc5di5Tx.s 			page 95


 4977      00
 4978              	.LASF52:
 4979 08b0 705F6E61 		.ascii	"p_name\000"
 4979      6D6500
 4980              	.LASF173:
 4981 08b7 464C4153 		.ascii	"FLASH_ProgramHalfWord\000"
 4981      485F5072 
 4981      6F677261 
 4981      6D48616C 
 4981      66576F72 
 4982              	.LASF66:
 4983 08cd 74687265 		.ascii	"threads_list_t\000"
 4983      6164735F 
 4983      6C697374 
 4983      5F7400
 4984              	.LASF29:
 4985 08dc 464C4153 		.ascii	"FLASH_ERROR_WRP\000"
 4985      485F4552 
 4985      524F525F 
 4985      57525000 
 4986              	.LASF60:
 4987 08ec 705F6D73 		.ascii	"p_msg\000"
 4987      6700
 4988              	.LASF32:
 4989 08f2 464C4153 		.ascii	"FLASH_COMPLETE\000"
 4989      485F434F 
 4989      4D504C45 
 4989      544500
 4990              	.LASF31:
 4991 0901 464C4153 		.ascii	"FLASH_ERROR_OPERATION\000"
 4991      485F4552 
 4991      524F525F 
 4991      4F504552 
 4991      4154494F 
 4992              	.LASF117:
 4993 0917 6D5F6F77 		.ascii	"m_owner\000"
 4993      6E657200 
 4994              	.LASF19:
 4995 091f 75696E74 		.ascii	"uint32_t\000"
 4995      33325F74 
 4995      00
 4996              	.LASF49:
 4997 0928 705F6374 		.ascii	"p_ctx\000"
 4997      7800
 4998              	.LASF58:
 4999 092e 705F7761 		.ascii	"p_waiting\000"
 4999      6974696E 
 4999      6700
 5000              		.ident	"GCC: (GNU Tools for Arm Embedded Processors 7-2018-q3-update) 7.3.1 20180622 (release) [AR
ARM GAS  /tmp/cc5di5Tx.s 			page 96


DEFINED SYMBOLS
                            *ABS*:0000000000000000 eeprom.c
     /tmp/cc5di5Tx.s:18     .text.EE_VerifyPageFullWriteVariable:0000000000000000 $t
     /tmp/cc5di5Tx.s:25     .text.EE_VerifyPageFullWriteVariable:0000000000000000 EE_VerifyPageFullWriteVariable
     /tmp/cc5di5Tx.s:153    .text.EE_VerifyPageFullWriteVariable:0000000000000070 $d
     /tmp/cc5di5Tx.s:160    .text.EE_EraseSectorIfNotEmpty.constprop.1:0000000000000000 $t
     /tmp/cc5di5Tx.s:167    .text.EE_EraseSectorIfNotEmpty.constprop.1:0000000000000000 EE_EraseSectorIfNotEmpty.constprop.1
     /tmp/cc5di5Tx.s:222    .text.EE_Format:0000000000000000 $t
     /tmp/cc5di5Tx.s:229    .text.EE_Format:0000000000000000 EE_Format
     /tmp/cc5di5Tx.s:275    .text.EE_Format:0000000000000028 $d
     /tmp/cc5di5Tx.s:280    .text.EE_ReadVariable:0000000000000000 $t
     /tmp/cc5di5Tx.s:288    .text.EE_ReadVariable:0000000000000000 EE_ReadVariable
     /tmp/cc5di5Tx.s:401    .text.EE_ReadVariable:0000000000000054 $d
     /tmp/cc5di5Tx.s:411    .text.EE_Init:0000000000000000 $t
     /tmp/cc5di5Tx.s:419    .text.EE_Init:0000000000000000 EE_Init
     /tmp/cc5di5Tx.s:690    .text.EE_Init:000000000000012c $d
     /tmp/cc5di5Tx.s:700    .text.EE_WriteVariable:0000000000000000 $t
     /tmp/cc5di5Tx.s:708    .text.EE_WriteVariable:0000000000000000 EE_WriteVariable
     /tmp/cc5di5Tx.s:890    .text.EE_WriteVariable:00000000000000bc $d
     /tmp/cc5di5Tx.s:906    .bss.DataVar:0000000000000000 DataVar
     /tmp/cc5di5Tx.s:902    .bss.DataVar:0000000000000000 $d

UNDEFINED SYMBOLS
FLASH_ProgramHalfWord
flash_helper_get_sector_address
FLASH_EraseSector
VirtAddVarTab
