ARM GAS  /tmp/cc5di5Tx.s 			page 1


   1              		.cpu cortex-m4
   2              		.eabi_attribute 27, 1
   3              		.eabi_attribute 28, 1
   4              		.eabi_attribute 20, 1
   5              		.eabi_attribute 21, 1
   6              		.eabi_attribute 23, 3
   7              		.eabi_attribute 24, 1
   8              		.eabi_attribute 25, 1
   9              		.eabi_attribute 26, 1
  10              		.eabi_attribute 30, 2
  11              		.eabi_attribute 34, 1
  12              		.eabi_attribute 18, 4
  13              		.file	"eeprom.c"
  14              		.text
  15              	.Ltext0:
  16              		.cfi_sections	.debug_frame
  17              		.section	.text.EE_VerifyPageFullWriteVariable,"ax",%progbits
  18              		.align	1
  19              		.p2align 4,,15
  20              		.syntax unified
  21              		.thumb
  22              		.thumb_func
  23              		.fpu fpv4-sp-d16
  24              		.type	EE_VerifyPageFullWriteVariable, %function
  25              	EE_VerifyPageFullWriteVariable:
  26              	.LFB224:
  27              		.file 1 "eeprom.c"
  28              		.loc 1 472 0
  29              		.cfi_startproc
  30              		@ args = 0, pretend = 0, frame = 0
  31              		@ frame_needed = 0, uses_anonymous_args = 0
  32              	.LVL0:
  33 0000 38B5     		push	{r3, r4, r5, lr}
  34              		.cfi_def_cfa_offset 16
  35              		.cfi_offset 3, -16
  36              		.cfi_offset 4, -12
  37              		.cfi_offset 5, -8
  38              		.cfi_offset 14, -4
  39              	.LBB9:
  40              	.LBB10:
  41              		.loc 1 404 0
  42 0002 1B4A     		ldr	r2, .L19
  43              		.loc 1 407 0
  44 0004 1B4B     		ldr	r3, .L19+4
  45              		.loc 1 404 0
  46 0006 1288     		ldrh	r2, [r2]
  47              		.loc 1 407 0
  48 0008 1B88     		ldrh	r3, [r3]
  49 000a 9CB2     		uxth	r4, r3
  50              		.loc 1 404 0
  51 000c 92B2     		uxth	r2, r2
  52              	.LVL1:
  53              		.loc 1 413 0
  54 000e ECB9     		cbnz	r4, .L2
  55              		.loc 1 416 0
  56 0010 4EF6EE63 		movw	r3, #61166
  57              		.loc 1 418 0
ARM GAS  /tmp/cc5di5Tx.s 			page 2


  58 0014 D31A     		subs	r3, r2, r3
  59 0016 18BF     		it	ne
  60 0018 0123     		movne	r3, #1
  61              	.L3:
  62              	.LBE10:
  63              	.LBE9:
  64              		.loc 1 487 0
  65 001a 03F50054 		add	r4, r3, #8192
  66              	.LVL2:
  67              		.loc 1 490 0
  68 001e 164A     		ldr	r2, .L19+8
  69              	.LVL3:
  70              		.loc 1 487 0
  71 0020 0134     		adds	r4, r4, #1
  72              		.loc 1 490 0
  73 0022 0133     		adds	r3, r3, #1
  74              		.loc 1 487 0
  75 0024 A403     		lsls	r4, r4, #14
  76              	.LVL4:
  77              		.loc 1 490 0
  78 0026 02EB8332 		add	r2, r2, r3, lsl #14
  79              	.LVL5:
  80              		.loc 1 493 0
  81 002a 9442     		cmp	r4, r2
  82 002c 03D3     		bcc	.L8
  83 002e 15E0     		b	.L10
  84              	.L6:
  85              		.loc 1 513 0
  86 0030 0434     		adds	r4, r4, #4
  87              	.LVL6:
  88              		.loc 1 493 0
  89 0032 A242     		cmp	r2, r4
  90 0034 12D9     		bls	.L10
  91              	.L8:
  92              		.loc 1 496 0
  93 0036 2368     		ldr	r3, [r4]
  94 0038 0133     		adds	r3, r3, #1
  95 003a F9D1     		bne	.L6
  96 003c 0546     		mov	r5, r0
  97              		.loc 1 499 0
  98 003e 2046     		mov	r0, r4
  99              	.LVL7:
 100 0040 FFF7FEFF 		bl	FLASH_ProgramHalfWord
 101              	.LVL8:
 102              		.loc 1 501 0
 103 0044 0928     		cmp	r0, #9
 104 0046 0DD0     		beq	.L7
 105              	.LVL9:
 106              	.L17:
 107              		.loc 1 508 0
 108 0048 80B2     		uxth	r0, r0
 109              	.LVL10:
 110              		.loc 1 519 0
 111 004a 38BD     		pop	{r3, r4, r5, pc}
 112              	.LVL11:
 113              	.L2:
 114              	.LBB12:
ARM GAS  /tmp/cc5di5Tx.s 			page 3


 115              	.LBB11:
 116              		.loc 1 425 0
 117 004c 42B9     		cbnz	r2, .L9
 118              		.loc 1 428 0
 119 004e 4EF6EE63 		movw	r3, #61166
 120              		.loc 1 418 0
 121 0052 E31A     		subs	r3, r4, r3
 122 0054 B3FA83F3 		clz	r3, r3
 123 0058 5B09     		lsrs	r3, r3, #5
 124 005a DEE7     		b	.L3
 125              	.LVL12:
 126              	.L10:
 127              	.LBE11:
 128              	.LBE12:
 129              		.loc 1 518 0
 130 005c 8020     		movs	r0, #128
 131              	.LVL13:
 132              		.loc 1 519 0
 133 005e 38BD     		pop	{r3, r4, r5, pc}
 134              	.LVL14:
 135              	.L9:
 136              		.loc 1 483 0
 137 0060 AB20     		movs	r0, #171
 138              	.LVL15:
 139              		.loc 1 519 0
 140 0062 38BD     		pop	{r3, r4, r5, pc}
 141              	.LVL16:
 142              	.L7:
 143              		.loc 1 506 0
 144 0064 2946     		mov	r1, r5
 145 0066 A01C     		adds	r0, r4, #2
 146              	.LVL17:
 147 0068 FFF7FEFF 		bl	FLASH_ProgramHalfWord
 148              	.LVL18:
 149 006c ECE7     		b	.L17
 150              	.L20:
 151 006e 00BF     		.align	2
 152              	.L19:
 153 0070 00400008 		.word	134234112
 154 0074 00800008 		.word	134250496
 155 0078 FE3F0008 		.word	134234110
 156              		.cfi_endproc
 157              	.LFE224:
 158              		.size	EE_VerifyPageFullWriteVariable, .-EE_VerifyPageFullWriteVariable
 159              		.section	.text.EE_EraseSectorIfNotEmpty.constprop.1,"ax",%progbits
 160              		.align	1
 161              		.p2align 4,,15
 162              		.syntax unified
 163              		.thumb
 164              		.thumb_func
 165              		.fpu fpv4-sp-d16
 166              		.type	EE_EraseSectorIfNotEmpty.constprop.1, %function
 167              	EE_EraseSectorIfNotEmpty.constprop.1:
 168              	.LFB228:
 169              		.loc 1 625 0
 170              		.cfi_startproc
 171              		@ args = 0, pretend = 0, frame = 0
ARM GAS  /tmp/cc5di5Tx.s 			page 4


 172              		@ frame_needed = 0, uses_anonymous_args = 0
 173              	.LVL19:
 174 0000 10B5     		push	{r4, lr}
 175              		.cfi_def_cfa_offset 8
 176              		.cfi_offset 4, -8
 177              		.cfi_offset 14, -4
 178              		.loc 1 625 0
 179 0002 0446     		mov	r4, r0
 180              		.loc 1 626 0
 181 0004 FFF7FEFF 		bl	flash_helper_get_sector_address
 182              	.LVL20:
 183 0008 00F57F52 		add	r2, r0, #16320
 184 000c 3F32     		adds	r2, r2, #63
 185 000e 0138     		subs	r0, r0, #1
 186              	.LVL21:
 187 0010 01E0     		b	.L24
 188              	.LVL22:
 189              	.L22:
 190              	.LBB13:
 191              		.loc 1 628 0
 192 0012 9042     		cmp	r0, r2
 193 0014 09D0     		beq	.L27
 194              	.LVL23:
 195              	.L24:
 196              		.loc 1 629 0
 197 0016 10F8013F 		ldrb	r3, [r0, #1]!	@ zero_extendqisi2
 198              	.LVL24:
 199 001a FF2B     		cmp	r3, #255
 200 001c F9D0     		beq	.L22
 201              		.loc 1 630 0
 202 001e 2046     		mov	r0, r4
 203              	.LVL25:
 204 0020 0221     		movs	r1, #2
 205 0022 FFF7FEFF 		bl	FLASH_EraseSector
 206              	.LVL26:
 207 0026 80B2     		uxth	r0, r0
 208              	.LBE13:
 209              		.loc 1 635 0
 210 0028 10BD     		pop	{r4, pc}
 211              	.LVL27:
 212              	.L27:
 213              		.loc 1 634 0
 214 002a 0920     		movs	r0, #9
 215              	.LVL28:
 216              		.loc 1 635 0
 217 002c 10BD     		pop	{r4, pc}
 218              		.cfi_endproc
 219              	.LFE228:
 220              		.size	EE_EraseSectorIfNotEmpty.constprop.1, .-EE_EraseSectorIfNotEmpty.constprop.1
 221 002e 00BF     		.section	.text.EE_Format,"ax",%progbits
 222              		.align	1
 223              		.p2align 4,,15
 224              		.syntax unified
 225              		.thumb
 226              		.thumb_func
 227              		.fpu fpv4-sp-d16
 228              		.type	EE_Format, %function
ARM GAS  /tmp/cc5di5Tx.s 			page 5


 229              	EE_Format:
 230              	.LFB222:
 231              		.loc 1 362 0
 232              		.cfi_startproc
 233              		@ args = 0, pretend = 0, frame = 0
 234              		@ frame_needed = 0, uses_anonymous_args = 0
 235              	.LVL29:
 236 0000 08B5     		push	{r3, lr}
 237              		.cfi_def_cfa_offset 8
 238              		.cfi_offset 3, -8
 239              		.cfi_offset 14, -4
 240              		.loc 1 366 0
 241 0002 0820     		movs	r0, #8
 242 0004 FFF7FEFF 		bl	EE_EraseSectorIfNotEmpty.constprop.1
 243              	.LVL30:
 244 0008 C0B2     		uxtb	r0, r0
 245              	.LVL31:
 246              		.loc 1 369 0
 247 000a 0928     		cmp	r0, #9
 248 000c 00D0     		beq	.L31
 249              	.L29:
 250              		.loc 1 388 0
 251 000e 08BD     		pop	{r3, pc}
 252              	.L31:
 253              		.loc 1 375 0
 254 0010 0021     		movs	r1, #0
 255 0012 0548     		ldr	r0, .L32
 256              	.LVL32:
 257 0014 FFF7FEFF 		bl	FLASH_ProgramHalfWord
 258              	.LVL33:
 259              		.loc 1 378 0
 260 0018 0928     		cmp	r0, #9
 261 001a F8D1     		bne	.L29
 262              	.LBB16:
 263              		.loc 1 384 0
 264 001c 1020     		movs	r0, #16
 265              	.LVL34:
 266 001e FFF7FEFF 		bl	EE_EraseSectorIfNotEmpty.constprop.1
 267              	.LVL35:
 268 0022 C0B2     		uxtb	r0, r0
 269              	.LBE16:
 270              		.loc 1 388 0
 271 0024 08BD     		pop	{r3, pc}
 272              	.L33:
 273 0026 00BF     		.align	2
 274              	.L32:
 275 0028 00400008 		.word	134234112
 276              		.cfi_endproc
 277              	.LFE222:
 278              		.size	EE_Format, .-EE_Format
 279              		.section	.text.EE_ReadVariable,"ax",%progbits
 280              		.align	1
 281              		.p2align 4,,15
 282              		.global	EE_ReadVariable
 283              		.syntax unified
 284              		.thumb
 285              		.thumb_func
ARM GAS  /tmp/cc5di5Tx.s 			page 6


 286              		.fpu fpv4-sp-d16
 287              		.type	EE_ReadVariable, %function
 288              	EE_ReadVariable:
 289              	.LFB220:
 290              		.loc 1 272 0
 291              		.cfi_startproc
 292              		@ args = 0, pretend = 0, frame = 0
 293              		@ frame_needed = 0, uses_anonymous_args = 0
 294              		@ link register save eliminated.
 295              	.LVL36:
 296              	.LBB17:
 297              	.LBB18:
 298              		.loc 1 404 0
 299 0000 144B     		ldr	r3, .L46
 300              		.loc 1 407 0
 301 0002 154A     		ldr	r2, .L46+4
 302              		.loc 1 404 0
 303 0004 1B88     		ldrh	r3, [r3]
 304              		.loc 1 407 0
 305 0006 1288     		ldrh	r2, [r2]
 306              		.loc 1 404 0
 307 0008 9BB2     		uxth	r3, r3
 308              	.LVL37:
 309              	.LBE18:
 310              	.LBE17:
 311              		.loc 1 272 0
 312 000a 10B4     		push	{r4}
 313              		.cfi_def_cfa_offset 4
 314              		.cfi_offset 4, -4
 315              	.LBB20:
 316              	.LBB19:
 317              		.loc 1 443 0
 318 000c 2BB1     		cbz	r3, .L40
 319 000e 92B2     		uxth	r2, r2
 320              		.loc 1 447 0
 321 0010 DAB9     		cbnz	r2, .L45
 322 0012 124B     		ldr	r3, .L46+8
 323              	.LVL38:
 324 0014 124C     		ldr	r4, .L46+12
 325 0016 1A46     		mov	r2, r3
 326              	.LVL39:
 327 0018 02E0     		b	.L35
 328              	.LVL40:
 329              	.L40:
 330              		.loc 1 443 0
 331 001a 124B     		ldr	r3, .L46+16
 332              	.LVL41:
 333 001c 124C     		ldr	r4, .L46+20
 334 001e 1A46     		mov	r2, r3
 335              	.LVL42:
 336              	.L35:
 337              	.LBE19:
 338              	.LBE20:
 339              		.loc 1 296 0
 340 0020 1288     		ldrh	r2, [r2]
 341              	.LVL43:
 342              		.loc 1 299 0
ARM GAS  /tmp/cc5di5Tx.s 			page 7


 343 0022 9042     		cmp	r0, r2
 344 0024 03D1     		bne	.L37
 345 0026 09E0     		b	.L39
 346              	.LVL44:
 347              	.L38:
 348              		.loc 1 296 0
 349 0028 1A88     		ldrh	r2, [r3]
 350              	.LVL45:
 351              		.loc 1 299 0
 352 002a 9042     		cmp	r0, r2
 353 002c 06D0     		beq	.L39
 354              	.LVL46:
 355              	.L37:
 356              		.loc 1 312 0
 357 002e 043B     		subs	r3, r3, #4
 358              	.LVL47:
 359              		.loc 1 293 0
 360 0030 A342     		cmp	r3, r4
 361 0032 F9D8     		bhi	.L38
 362              		.loc 1 274 0
 363 0034 0120     		movs	r0, #1
 364              	.LVL48:
 365              		.loc 1 318 0
 366 0036 5DF8044B 		ldr	r4, [sp], #4
 367              		.cfi_remember_state
 368              		.cfi_restore 4
 369              		.cfi_def_cfa_offset 0
 370 003a 7047     		bx	lr
 371              	.LVL49:
 372              	.L39:
 373              		.cfi_restore_state
 374              		.loc 1 302 0
 375 003c 33F8023C 		ldrh	r3, [r3, #-2]
 376 0040 0B80     		strh	r3, [r1]	@ movhi
 377              	.LVL50:
 378              		.loc 1 305 0
 379 0042 0020     		movs	r0, #0
 380              	.LVL51:
 381              		.loc 1 318 0
 382 0044 5DF8044B 		ldr	r4, [sp], #4
 383              		.cfi_remember_state
 384              		.cfi_restore 4
 385              		.cfi_def_cfa_offset 0
 386 0048 7047     		bx	lr
 387              	.LVL52:
 388              	.L45:
 389              		.cfi_restore_state
 390              		.loc 1 283 0
 391 004a AB20     		movs	r0, #171
 392              	.LVL53:
 393              		.loc 1 318 0
 394 004c 5DF8044B 		ldr	r4, [sp], #4
 395              		.cfi_restore 4
 396              		.cfi_def_cfa_offset 0
 397 0050 7047     		bx	lr
 398              	.L47:
 399 0052 00BF     		.align	2
ARM GAS  /tmp/cc5di5Tx.s 			page 8


 400              	.L46:
 401 0054 00400008 		.word	134234112
 402 0058 00800008 		.word	134250496
 403 005c FEBF0008 		.word	134266878
 404 0060 02800008 		.word	134250498
 405 0064 FE7F0008 		.word	134250494
 406 0068 02400008 		.word	134234114
 407              		.cfi_endproc
 408              	.LFE220:
 409              		.size	EE_ReadVariable, .-EE_ReadVariable
 410              		.section	.text.EE_Init,"ax",%progbits
 411              		.align	1
 412              		.p2align 4,,15
 413              		.global	EE_Init
 414              		.syntax unified
 415              		.thumb
 416              		.thumb_func
 417              		.fpu fpv4-sp-d16
 418              		.type	EE_Init, %function
 419              	EE_Init:
 420              	.LFB219:
 421              		.loc 1 57 0
 422              		.cfi_startproc
 423              		@ args = 0, pretend = 0, frame = 0
 424              		@ frame_needed = 0, uses_anonymous_args = 0
 425              	.LVL54:
 426 0000 2DE9F843 		push	{r3, r4, r5, r6, r7, r8, r9, lr}
 427              		.cfi_def_cfa_offset 32
 428              		.cfi_offset 3, -32
 429              		.cfi_offset 4, -28
 430              		.cfi_offset 5, -24
 431              		.cfi_offset 6, -20
 432              		.cfi_offset 7, -16
 433              		.cfi_offset 8, -12
 434              		.cfi_offset 9, -8
 435              		.cfi_offset 14, -4
 436              		.loc 1 65 0
 437 0004 494D     		ldr	r5, .L86
 438              		.loc 1 67 0
 439 0006 4A4E     		ldr	r6, .L86+4
 440              		.loc 1 65 0
 441 0008 2C88     		ldrh	r4, [r5]
 442              		.loc 1 67 0
 443 000a 3388     		ldrh	r3, [r6]
 444              		.loc 1 65 0
 445 000c A4B2     		uxth	r4, r4
 446              	.LVL55:
 447              		.loc 1 70 0
 448 000e 4EF6EE62 		movw	r2, #61166
 449 0012 9442     		cmp	r4, r2
 450              		.loc 1 67 0
 451 0014 9BB2     		uxth	r3, r3
 452              	.LVL56:
 453              		.loc 1 70 0
 454 0016 4AD0     		beq	.L50
 455 0018 4FF6FF71 		movw	r1, #65535
 456 001c 8C42     		cmp	r4, r1
ARM GAS  /tmp/cc5di5Tx.s 			page 9


 457 001e 37D0     		beq	.L51
 458 0020 24B1     		cbz	r4, .L85
 459              	.L79:
 460              		.loc 1 249 0
 461 0022 FFF7FEFF 		bl	EE_Format
 462              	.LVL57:
 463 0026 80B2     		uxth	r0, r0
 464              	.LVL58:
 465              	.L55:
 466              		.loc 1 259 0
 467 0028 BDE8F883 		pop	{r3, r4, r5, r6, r7, r8, r9, pc}
 468              	.LVL59:
 469              	.L85:
 470              		.loc 1 184 0
 471 002c 002B     		cmp	r3, #0
 472 002e F8D0     		beq	.L79
 473              		.loc 1 194 0
 474 0030 8B42     		cmp	r3, r1
 475 0032 67D0     		beq	.L84
 476 0034 3F4D     		ldr	r5, .L86+8
 477              		.loc 1 209 0
 478 0036 404F     		ldr	r7, .L86+12
 479              		.loc 1 216 0
 480 0038 DFF80081 		ldr	r8, .L86+16
 481              		.loc 1 61 0
 482 003c 4FF0FF36 		mov	r6, #-1
 483              		.loc 1 207 0
 484 0040 40F24A29 		movw	r9, #586
 485              	.LVL60:
 486              	.L65:
 487              		.loc 1 209 0
 488 0044 35F8023B 		ldrh	r3, [r5], #2
 489 0048 3A88     		ldrh	r2, [r7]
 490              		.loc 1 216 0
 491 004a 3C49     		ldr	r1, .L86+16
 492              		.loc 1 209 0
 493 004c 9342     		cmp	r3, r2
 494              		.loc 1 211 0
 495 004e 08BF     		it	eq
 496 0050 26B2     		sxtheq	r6, r4
 497              	.LVL61:
 498              		.loc 1 213 0
 499 0052 B442     		cmp	r4, r6
 500              		.loc 1 216 0
 501 0054 1846     		mov	r0, r3
 502 0056 04F10104 		add	r4, r4, #1
 503              	.LVL62:
 504              		.loc 1 213 0
 505 005a 0BD0     		beq	.L67
 506              		.loc 1 216 0
 507 005c FFF7FEFF 		bl	EE_ReadVariable
 508              	.LVL63:
 509              		.loc 1 218 0
 510 0060 0128     		cmp	r0, #1
 511 0062 07D0     		beq	.L67
 512              		.loc 1 221 0
 513 0064 B8F80010 		ldrh	r1, [r8]
ARM GAS  /tmp/cc5di5Tx.s 			page 10


 514 0068 35F8020C 		ldrh	r0, [r5, #-2]
 515              	.LVL64:
 516 006c FFF7FEFF 		bl	EE_VerifyPageFullWriteVariable
 517              	.LVL65:
 518              		.loc 1 223 0
 519 0070 0928     		cmp	r0, #9
 520 0072 D9D1     		bne	.L55
 521              	.LVL66:
 522              	.L67:
 523              		.loc 1 207 0
 524 0074 4C45     		cmp	r4, r9
 525 0076 E5D1     		bne	.L65
 526              		.loc 1 231 0
 527 0078 0021     		movs	r1, #0
 528 007a 2D48     		ldr	r0, .L86+4
 529 007c FFF7FEFF 		bl	FLASH_ProgramHalfWord
 530              	.LVL67:
 531 0080 80B2     		uxth	r0, r0
 532              	.LVL68:
 533              		.loc 1 233 0
 534 0082 0928     		cmp	r0, #9
 535 0084 D0D1     		bne	.L55
 536              	.LVL69:
 537              	.L83:
 538              		.loc 1 238 0
 539 0086 0820     		movs	r0, #8
 540              		.loc 1 259 0
 541 0088 BDE8F843 		pop	{r3, r4, r5, r6, r7, r8, r9, lr}
 542              		.cfi_remember_state
 543              		.cfi_restore 14
 544              		.cfi_restore 9
 545              		.cfi_restore 8
 546              		.cfi_restore 7
 547              		.cfi_restore 6
 548              		.cfi_restore 5
 549              		.cfi_restore 4
 550              		.cfi_restore 3
 551              		.cfi_def_cfa_offset 0
 552              		.loc 1 238 0
 553 008c FFF7FEBF 		b	EE_EraseSectorIfNotEmpty.constprop.1
 554              	.LVL70:
 555              	.L51:
 556              		.cfi_restore_state
 557              		.loc 1 73 0
 558 0090 002B     		cmp	r3, #0
 559 0092 F8D0     		beq	.L83
 560              		.loc 1 83 0
 561 0094 9342     		cmp	r3, r2
 562 0096 C4D1     		bne	.L79
 563              		.loc 1 86 0
 564 0098 0820     		movs	r0, #8
 565 009a FFF7FEFF 		bl	EE_EraseSectorIfNotEmpty.constprop.1
 566              	.LVL71:
 567              		.loc 1 88 0
 568 009e 0928     		cmp	r0, #9
 569 00a0 C2D1     		bne	.L55
 570              		.loc 1 93 0
ARM GAS  /tmp/cc5di5Tx.s 			page 11


 571 00a2 3046     		mov	r0, r6
 572              	.LVL72:
 573 00a4 0021     		movs	r1, #0
 574 00a6 FFF7FEFF 		bl	FLASH_ProgramHalfWord
 575              	.LVL73:
 576 00aa 80B2     		uxth	r0, r0
 577              	.LVL74:
 578 00ac BCE7     		b	.L55
 579              	.LVL75:
 580              	.L50:
 581              		.loc 1 113 0
 582 00ae 73BB     		cbnz	r3, .L56
 583 00b0 204D     		ldr	r5, .L86+8
 584              		.loc 1 118 0
 585 00b2 234F     		ldr	r7, .L86+20
 586              		.loc 1 125 0
 587 00b4 DFF88480 		ldr	r8, .L86+16
 588              		.loc 1 113 0
 589 00b8 1C46     		mov	r4, r3
 590              	.LVL76:
 591              		.loc 1 61 0
 592 00ba 4FF0FF36 		mov	r6, #-1
 593              		.loc 1 116 0
 594 00be 40F24A29 		movw	r9, #586
 595              	.LVL77:
 596              	.L59:
 597              		.loc 1 118 0
 598 00c2 35F8023B 		ldrh	r3, [r5], #2
 599 00c6 3A88     		ldrh	r2, [r7]
 600              		.loc 1 125 0
 601 00c8 1C49     		ldr	r1, .L86+16
 602              		.loc 1 118 0
 603 00ca 9342     		cmp	r3, r2
 604              		.loc 1 120 0
 605 00cc 08BF     		it	eq
 606 00ce 26B2     		sxtheq	r6, r4
 607              	.LVL78:
 608              		.loc 1 122 0
 609 00d0 B442     		cmp	r4, r6
 610              		.loc 1 125 0
 611 00d2 1846     		mov	r0, r3
 612 00d4 04F10104 		add	r4, r4, #1
 613              	.LVL79:
 614              		.loc 1 122 0
 615 00d8 0BD0     		beq	.L61
 616              		.loc 1 125 0
 617 00da FFF7FEFF 		bl	EE_ReadVariable
 618              	.LVL80:
 619              		.loc 1 127 0
 620 00de 0128     		cmp	r0, #1
 621 00e0 07D0     		beq	.L61
 622              		.loc 1 130 0
 623 00e2 B8F80010 		ldrh	r1, [r8]
 624 00e6 35F8020C 		ldrh	r0, [r5, #-2]
 625              	.LVL81:
 626 00ea FFF7FEFF 		bl	EE_VerifyPageFullWriteVariable
 627              	.LVL82:
ARM GAS  /tmp/cc5di5Tx.s 			page 12


 628              		.loc 1 132 0
 629 00ee 0928     		cmp	r0, #9
 630 00f0 9AD1     		bne	.L55
 631              	.LVL83:
 632              	.L61:
 633              		.loc 1 116 0
 634 00f2 4C45     		cmp	r4, r9
 635 00f4 E5D1     		bne	.L59
 636              		.loc 1 140 0
 637 00f6 0021     		movs	r1, #0
 638 00f8 0C48     		ldr	r0, .L86
 639 00fa FFF7FEFF 		bl	FLASH_ProgramHalfWord
 640              	.LVL84:
 641 00fe 80B2     		uxth	r0, r0
 642              	.LVL85:
 643              		.loc 1 142 0
 644 0100 0928     		cmp	r0, #9
 645 0102 91D1     		bne	.L55
 646              	.LVL86:
 647              	.L84:
 648              		.loc 1 197 0
 649 0104 1020     		movs	r0, #16
 650              		.loc 1 259 0
 651 0106 BDE8F843 		pop	{r3, r4, r5, r6, r7, r8, r9, lr}
 652              		.cfi_remember_state
 653              		.cfi_restore 14
 654              		.cfi_restore 9
 655              		.cfi_restore 8
 656              		.cfi_restore 7
 657              		.cfi_restore 6
 658              		.cfi_restore 5
 659              		.cfi_restore 4
 660              		.cfi_restore 3
 661              		.cfi_def_cfa_offset 0
 662              		.loc 1 197 0
 663 010a FFF7FEBF 		b	EE_EraseSectorIfNotEmpty.constprop.1
 664              	.LVL87:
 665              	.L56:
 666              		.cfi_restore_state
 667              		.loc 1 154 0
 668 010e 4FF6FF72 		movw	r2, #65535
 669 0112 9342     		cmp	r3, r2
 670 0114 85D1     		bne	.L79
 671              		.loc 1 157 0
 672 0116 1020     		movs	r0, #16
 673 0118 FFF7FEFF 		bl	EE_EraseSectorIfNotEmpty.constprop.1
 674              	.LVL88:
 675              		.loc 1 159 0
 676 011c 0928     		cmp	r0, #9
 677 011e 83D1     		bne	.L55
 678              		.loc 1 164 0
 679 0120 2846     		mov	r0, r5
 680              	.LVL89:
 681 0122 0021     		movs	r1, #0
 682 0124 FFF7FEFF 		bl	FLASH_ProgramHalfWord
 683              	.LVL90:
 684 0128 80B2     		uxth	r0, r0
ARM GAS  /tmp/cc5di5Tx.s 			page 13


 685              	.LVL91:
 686 012a 7DE7     		b	.L55
 687              	.L87:
 688              		.align	2
 689              	.L86:
 690 012c 00400008 		.word	134234112
 691 0130 00800008 		.word	134250496
 692 0134 00000000 		.word	VirtAddVarTab
 693 0138 06800008 		.word	134250502
 694 013c 00000000 		.word	.LANCHOR0
 695 0140 06400008 		.word	134234118
 696              		.cfi_endproc
 697              	.LFE219:
 698              		.size	EE_Init, .-EE_Init
 699              		.section	.text.EE_WriteVariable,"ax",%progbits
 700              		.align	1
 701              		.p2align 4,,15
 702              		.global	EE_WriteVariable
 703              		.syntax unified
 704              		.thumb
 705              		.thumb_func
 706              		.fpu fpv4-sp-d16
 707              		.type	EE_WriteVariable, %function
 708              	EE_WriteVariable:
 709              	.LFB221:
 710              		.loc 1 331 0
 711              		.cfi_startproc
 712              		@ args = 0, pretend = 0, frame = 0
 713              		@ frame_needed = 0, uses_anonymous_args = 0
 714              	.LVL92:
 715              		.loc 1 335 0
 716 0000 2E4B     		ldr	r3, .L113
 717 0002 5B68     		ldr	r3, [r3, #4]
 718 0004 5B07     		lsls	r3, r3, #29
 719              		.loc 1 331 0
 720 0006 2DE9F047 		push	{r4, r5, r6, r7, r8, r9, r10, lr}
 721              		.cfi_def_cfa_offset 32
 722              		.cfi_offset 4, -32
 723              		.cfi_offset 5, -28
 724              		.cfi_offset 6, -24
 725              		.cfi_offset 7, -20
 726              		.cfi_offset 8, -16
 727              		.cfi_offset 9, -12
 728              		.cfi_offset 10, -8
 729              		.cfi_offset 14, -4
 730              		.loc 1 335 0
 731 000a 09D4     		bmi	.L97
 732 000c 0546     		mov	r5, r0
 733 000e 0E46     		mov	r6, r1
 734              		.loc 1 342 0
 735 0010 FFF7FEFF 		bl	EE_VerifyPageFullWriteVariable
 736              	.LVL93:
 737              		.loc 1 345 0
 738 0014 8028     		cmp	r0, #128
 739              		.loc 1 342 0
 740 0016 0446     		mov	r4, r0
 741              	.LVL94:
ARM GAS  /tmp/cc5di5Tx.s 			page 14


 742              		.loc 1 345 0
 743 0018 06D0     		beq	.L111
 744              	.LVL95:
 745              	.L89:
 746              		.loc 1 353 0
 747 001a 2046     		mov	r0, r4
 748 001c BDE8F087 		pop	{r4, r5, r6, r7, r8, r9, r10, pc}
 749              	.LVL96:
 750              	.L97:
 751              		.loc 1 337 0
 752 0020 0724     		movs	r4, #7
 753              	.LVL97:
 754              		.loc 1 353 0
 755 0022 2046     		mov	r0, r4
 756              	.LVL98:
 757 0024 BDE8F087 		pop	{r4, r5, r6, r7, r8, r9, r10, pc}
 758              	.LVL99:
 759              	.L111:
 760              	.LBB25:
 761              	.LBB26:
 762              	.LBB27:
 763              	.LBB28:
 764              		.loc 1 404 0
 765 0028 2549     		ldr	r1, .L113+4
 766              		.loc 1 407 0
 767 002a 264F     		ldr	r7, .L113+8
 768              		.loc 1 404 0
 769 002c 0B88     		ldrh	r3, [r1]
 770              		.loc 1 407 0
 771 002e 3A88     		ldrh	r2, [r7]
 772              		.loc 1 404 0
 773 0030 9BB2     		uxth	r3, r3
 774              	.LVL100:
 775              		.loc 1 407 0
 776 0032 92B2     		uxth	r2, r2
 777              	.LVL101:
 778              		.loc 1 443 0
 779 0034 23B1     		cbz	r3, .L98
 780              		.loc 1 447 0
 781 0036 72B9     		cbnz	r2, .L99
 782              	.LBE28:
 783              	.LBE27:
 784              		.loc 1 546 0
 785 0038 0F46     		mov	r7, r1
 786              		.loc 1 549 0
 787 003a 4FF01008 		mov	r8, #16
 788 003e 01E0     		b	.L90
 789              	.L98:
 790              		.loc 1 557 0
 791 0040 4FF00808 		mov	r8, #8
 792              	.L90:
 793              	.LVL102:
 794              		.loc 1 565 0
 795 0044 4EF6EE61 		movw	r1, #61166
 796 0048 3846     		mov	r0, r7
 797              	.LVL103:
 798 004a FFF7FEFF 		bl	FLASH_ProgramHalfWord
ARM GAS  /tmp/cc5di5Tx.s 			page 15


 799              	.LVL104:
 800              		.loc 1 567 0
 801 004e 0928     		cmp	r0, #9
 802 0050 03D0     		beq	.L91
 803              	.LVL105:
 804              	.L110:
 805              		.loc 1 614 0
 806 0052 84B2     		uxth	r4, r0
 807 0054 E1E7     		b	.L89
 808              	.LVL106:
 809              	.L99:
 810              		.loc 1 561 0
 811 0056 AB24     		movs	r4, #171
 812 0058 DFE7     		b	.L89
 813              	.LVL107:
 814              	.L91:
 815              		.loc 1 573 0
 816 005a 3146     		mov	r1, r6
 817 005c 2846     		mov	r0, r5
 818              	.LVL108:
 819 005e FFF7FEFF 		bl	EE_VerifyPageFullWriteVariable
 820              	.LVL109:
 821              		.loc 1 575 0
 822 0062 0928     		cmp	r0, #9
 823              		.loc 1 573 0
 824 0064 0446     		mov	r4, r0
 825              	.LVL110:
 826              		.loc 1 575 0
 827 0066 D8D1     		bne	.L89
 828 0068 174E     		ldr	r6, .L113+12
 829              	.LVL111:
 830              		.loc 1 586 0
 831 006a DFF860A0 		ldr	r10, .L113+16
 832 006e 06F29449 		addw	r9, r6, #1172
 833 0072 01E0     		b	.L93
 834              	.LVL112:
 835              	.L95:
 836              		.loc 1 581 0
 837 0074 4E45     		cmp	r6, r9
 838 0076 13D0     		beq	.L112
 839              	.L93:
 840              		.loc 1 583 0
 841 0078 36F8023B 		ldrh	r3, [r6], #2
 842              		.loc 1 586 0
 843 007c 1349     		ldr	r1, .L113+16
 844              		.loc 1 583 0
 845 007e 9D42     		cmp	r5, r3
 846              		.loc 1 586 0
 847 0080 1846     		mov	r0, r3
 848              		.loc 1 583 0
 849 0082 F7D0     		beq	.L95
 850              		.loc 1 586 0
 851 0084 FFF7FEFF 		bl	EE_ReadVariable
 852              	.LVL113:
 853              		.loc 1 588 0
 854 0088 0128     		cmp	r0, #1
 855 008a F3D0     		beq	.L95
ARM GAS  /tmp/cc5di5Tx.s 			page 16


 856              		.loc 1 591 0
 857 008c BAF80010 		ldrh	r1, [r10]
 858 0090 36F8020C 		ldrh	r0, [r6, #-2]
 859              	.LVL114:
 860 0094 FFF7FEFF 		bl	EE_VerifyPageFullWriteVariable
 861              	.LVL115:
 862              		.loc 1 593 0
 863 0098 0928     		cmp	r0, #9
 864 009a EBD0     		beq	.L95
 865 009c 0446     		mov	r4, r0
 866 009e BCE7     		b	.L89
 867              	.LVL116:
 868              	.L112:
 869              		.loc 1 602 0
 870 00a0 4046     		mov	r0, r8
 871 00a2 FFF7FEFF 		bl	EE_EraseSectorIfNotEmpty.constprop.1
 872              	.LVL117:
 873              		.loc 1 604 0
 874 00a6 C0B2     		uxtb	r0, r0
 875 00a8 0928     		cmp	r0, #9
 876 00aa D2D1     		bne	.L110
 877              		.loc 1 610 0
 878 00ac 3846     		mov	r0, r7
 879              	.LVL118:
 880 00ae 0021     		movs	r1, #0
 881 00b0 FFF7FEFF 		bl	FLASH_ProgramHalfWord
 882              	.LVL119:
 883              		.loc 1 612 0
 884 00b4 0928     		cmp	r0, #9
 885 00b6 CCD1     		bne	.L110
 886 00b8 AFE7     		b	.L89
 887              	.L114:
 888 00ba 00BF     		.align	2
 889              	.L113:
 890 00bc 00700040 		.word	1073770496
 891 00c0 00400008 		.word	134234112
 892 00c4 00800008 		.word	134250496
 893 00c8 00000000 		.word	VirtAddVarTab
 894 00cc 00000000 		.word	.LANCHOR0
 895              	.LBE26:
 896              	.LBE25:
 897              		.cfi_endproc
 898              	.LFE221:
 899              		.size	EE_WriteVariable, .-EE_WriteVariable
 900              		.global	DataVar
 901              		.section	.bss.DataVar,"aw",%nobits
 902              		.align	1
 903              		.set	.LANCHOR0,. + 0
 904              		.type	DataVar, %object
 905              		.size	DataVar, 2
 906              	DataVar:
 907 0000 0000     		.space	2
 908              		.text
 909              	.Letext0:
 910              		.file 2 "/usr/arm-none-eabi/include/machine/_default_types.h"
 911              		.file 3 "/usr/arm-none-eabi/include/sys/_stdint.h"
 912              		.file 4 "ChibiOS_3.0.2/os/ext/CMSIS/include/core_cm4.h"
ARM GAS  /tmp/cc5di5Tx.s 			page 17


 913              		.file 5 "ChibiOS_3.0.2/os/ext/CMSIS/ST/system_stm32f4xx.h"
 914              		.file 6 "ChibiOS_3.0.2/os/ext/CMSIS/ST/stm32f407xx.h"
 915              		.file 7 "ChibiOS_3.0.2/ext/stdperiph_stm32f4/inc/stm32f4xx_flash.h"
 916              		.file 8 "/usr/lib/gcc/arm-none-eabi/7.3.1/include/stddef.h"
 917              		.file 9 "ChibiOS_3.0.2/os/rt/ports/ARMCMx/compilers/GCC/chtypes.h"
 918              		.file 10 "ChibiOS_3.0.2/os/rt/include/chsystypes.h"
 919              		.file 11 "ChibiOS_3.0.2/os/rt/include/chschd.h"
 920              		.file 12 "ChibiOS_3.0.2/os/rt/ports/ARMCMx/chcore.h"
 921              		.file 13 "ChibiOS_3.0.2/os/rt/ports/ARMCMx/chcore_v7m.h"
 922              		.file 14 "ChibiOS_3.0.2/os/rt/include/chtm.h"
 923              		.file 15 "ChibiOS_3.0.2/os/rt/include/chsem.h"
 924              		.file 16 "ChibiOS_3.0.2/os/rt/include/chmtx.h"
 925              		.file 17 "ChibiOS_3.0.2/os/rt/include/chregistry.h"
 926              		.file 18 "conf_general.h"
 927              		.file 19 "flash_helper.h"