ARM GAS  /tmp/cctcmyYh.s 			page 1


   1              		.cpu cortex-m4
   2              		.eabi_attribute 27, 1
   3              		.eabi_attribute 28, 1
   4              		.eabi_attribute 20, 1
   5              		.eabi_attribute 21, 1
   6              		.eabi_attribute 23, 3
   7              		.eabi_attribute 24, 1
   8              		.eabi_attribute 25, 1
   9              		.eabi_attribute 26, 1
  10              		.eabi_attribute 30, 2
  11              		.eabi_attribute 34, 1
  12              		.eabi_attribute 18, 4
  13              		.file	"encoder.c"
  14              		.text
  15              	.Ltext0:
  16              		.cfi_sections	.debug_frame
  17              		.section	.text.spi_transfer.isra.0.constprop.1,"ax",%progbits
  18              		.align	1
  19              		.p2align 4,,15
  20              		.syntax unified
  21              		.thumb
  22              		.thumb_func
  23              		.fpu fpv4-sp-d16
  24              		.type	spi_transfer.isra.0.constprop.1, %function
  25              	spi_transfer.isra.0.constprop.1:
  26              	.LFB280:
  27              		.file 1 "encoder.c"
  28              		.loc 1 484 0
  29              		.cfi_startproc
  30              		@ args = 0, pretend = 0, frame = 0
  31              		@ frame_needed = 0, uses_anonymous_args = 0
  32              	.LVL0:
  33 0000 2DE9F843 		push	{r3, r4, r5, r6, r7, r8, r9, lr}
  34              		.cfi_def_cfa_offset 32
  35              		.cfi_offset 3, -32
  36              		.cfi_offset 4, -28
  37              		.cfi_offset 5, -24
  38              		.cfi_offset 6, -20
  39              		.cfi_offset 7, -16
  40              		.cfi_offset 8, -12
  41              		.cfi_offset 9, -8
  42              		.cfi_offset 14, -4
  43              	.LBB146:
  44              	.LBB147:
  45              	.LBB148:
  46              	.LBB149:
  47              		.loc 1 494 0
  48 0004 4027     		movs	r7, #64
  49 0006 164D     		ldr	r5, .L10
  50              	.LBE149:
  51              	.LBE148:
  52              	.LBE147:
  53              	.LBE146:
  54              		.loc 1 484 0
  55 0008 8146     		mov	r9, r0
  56              	.LBB187:
  57              	.LBB185:
ARM GAS  /tmp/cctcmyYh.s 			page 2


  58              	.LBB183:
  59              	.LBB181:
  60              		.loc 1 494 0
  61 000a B846     		mov	r8, r7	@ movhi
  62              	.LBE181:
  63              	.LBE183:
  64              	.LBE185:
  65              	.LBE187:
  66              		.loc 1 484 0
  67 000c 1026     		movs	r6, #16
  68 000e 0024     		movs	r4, #0
  69              	.LVL1:
  70              	.L3:
  71              	.LBB188:
  72              	.LBB186:
  73              	.LBB184:
  74              	.LBB182:
  75              	.LBB150:
  76              	.LBB151:
  77              	.LBB152:
  78              		.file 2 "ChibiOS_3.0.2/os/ext/CMSIS/include/core_cmInstr.h"
  79              		.loc 2 327 0
  80              		.syntax unified
  81              	@ 327 "ChibiOS_3.0.2/os/ext/CMSIS/include/core_cmInstr.h" 1
  82 0010 00BF     		nop
  83              	@ 0 "" 2
  84              		.thumb
  85              		.syntax unified
  86              	.LBE152:
  87              	.LBE151:
  88              	.LBB153:
  89              	.LBB154:
  90              		.syntax unified
  91              	@ 327 "ChibiOS_3.0.2/os/ext/CMSIS/include/core_cmInstr.h" 1
  92 0012 00BF     		nop
  93              	@ 0 "" 2
  94              		.thumb
  95              		.syntax unified
  96              	.LBE154:
  97              	.LBE153:
  98              	.LBB155:
  99              	.LBB156:
 100              		.syntax unified
 101              	@ 327 "ChibiOS_3.0.2/os/ext/CMSIS/include/core_cmInstr.h" 1
 102 0014 00BF     		nop
 103              	@ 0 "" 2
 104              		.thumb
 105              		.syntax unified
 106              	.LBE156:
 107              	.LBE155:
 108              	.LBB157:
 109              	.LBB158:
 110              		.syntax unified
 111              	@ 327 "ChibiOS_3.0.2/os/ext/CMSIS/include/core_cmInstr.h" 1
 112 0016 00BF     		nop
 113              	@ 0 "" 2
 114              		.thumb
ARM GAS  /tmp/cctcmyYh.s 			page 3


 115              		.syntax unified
 116              	.LBE158:
 117              	.LBE157:
 118              	.LBE150:
 119              		.loc 1 494 0
 120 0018 A5F81880 		strh	r8, [r5, #24]	@ movhi
 121              	.LBB159:
 122              	.LBB160:
 123              	.LBB161:
 124              		.loc 2 327 0
 125              		.syntax unified
 126              	@ 327 "ChibiOS_3.0.2/os/ext/CMSIS/include/core_cmInstr.h" 1
 127 001c 00BF     		nop
 128              	@ 0 "" 2
 129              		.thumb
 130              		.syntax unified
 131              	.LBE161:
 132              	.LBE160:
 133              	.LBB162:
 134              	.LBB163:
 135              		.syntax unified
 136              	@ 327 "ChibiOS_3.0.2/os/ext/CMSIS/include/core_cmInstr.h" 1
 137 001e 00BF     		nop
 138              	@ 0 "" 2
 139              		.thumb
 140              		.syntax unified
 141              	.LBE163:
 142              	.LBE162:
 143              	.LBB164:
 144              	.LBB165:
 145              		.syntax unified
 146              	@ 327 "ChibiOS_3.0.2/os/ext/CMSIS/include/core_cmInstr.h" 1
 147 0020 00BF     		nop
 148              	@ 0 "" 2
 149              		.thumb
 150              		.syntax unified
 151              	.LBE165:
 152              	.LBE164:
 153              	.LBB166:
 154              	.LBB167:
 155              		.syntax unified
 156              	@ 327 "ChibiOS_3.0.2/os/ext/CMSIS/include/core_cmInstr.h" 1
 157 0022 00BF     		nop
 158              	@ 0 "" 2
 159              		.thumb
 160              		.syntax unified
 161              	.LBE167:
 162              	.LBE166:
 163              	.LBE159:
 164              		.loc 1 498 0
 165 0024 2869     		ldr	r0, [r5, #16]
 166              	.LVL2:
 167              	.LBB168:
 168              	.LBB169:
 169              		.loc 2 327 0
 170              		.syntax unified
 171              	@ 327 "ChibiOS_3.0.2/os/ext/CMSIS/include/core_cmInstr.h" 1
ARM GAS  /tmp/cctcmyYh.s 			page 4


 172 0026 00BF     		nop
 173              	@ 0 "" 2
 174              		.thumb
 175              		.syntax unified
 176              	.LBE169:
 177              	.LBE168:
 178              		.loc 1 500 0
 179 0028 2969     		ldr	r1, [r5, #16]
 180              	.LVL3:
 181              	.LBB170:
 182              	.LBB171:
 183              		.loc 2 327 0
 184              		.syntax unified
 185              	@ 327 "ChibiOS_3.0.2/os/ext/CMSIS/include/core_cmInstr.h" 1
 186 002a 00BF     		nop
 187              	@ 0 "" 2
 188              		.thumb
 189              		.syntax unified
 190              	.LBE171:
 191              	.LBE170:
 192              		.loc 1 502 0
 193 002c 2A69     		ldr	r2, [r5, #16]
 194              	.LVL4:
 195              		.loc 1 504 0
 196 002e 6400     		lsls	r4, r4, #1
 197              	.LVL5:
 198              		.loc 1 505 0
 199 0030 C1F3C011 		ubfx	r1, r1, #7, #1
 200              	.LVL6:
 201 0034 C0F3C010 		ubfx	r0, r0, #7, #1
 202              	.LVL7:
 203 0038 C2F3C012 		ubfx	r2, r2, #7, #1
 204              	.LVL8:
 205              		.loc 1 504 0
 206 003c A4B2     		uxth	r4, r4
 207              	.LVL9:
 208              		.loc 1 505 0
 209 003e FFF7FEFF 		bl	utils_middle_of_3_int
 210              	.LVL10:
 211 0042 08B1     		cbz	r0, .L5
 212              		.loc 1 506 0
 213 0044 44F00104 		orr	r4, r4, #1
 214              	.LVL11:
 215              	.L5:
 216              		.loc 1 509 0
 217 0048 6F83     		strh	r7, [r5, #26]	@ movhi
 218              	.LBB172:
 219              	.LBB173:
 220              	.LBB174:
 221              		.loc 2 327 0
 222              		.syntax unified
 223              	@ 327 "ChibiOS_3.0.2/os/ext/CMSIS/include/core_cmInstr.h" 1
 224 004a 00BF     		nop
 225              	@ 0 "" 2
 226              		.thumb
 227              		.syntax unified
 228              	.LBE174:
ARM GAS  /tmp/cctcmyYh.s 			page 5


 229              	.LBE173:
 230              	.LBB175:
 231              	.LBB176:
 232              		.syntax unified
 233              	@ 327 "ChibiOS_3.0.2/os/ext/CMSIS/include/core_cmInstr.h" 1
 234 004c 00BF     		nop
 235              	@ 0 "" 2
 236              		.thumb
 237              		.syntax unified
 238              	.LBE176:
 239              	.LBE175:
 240              	.LBB177:
 241              	.LBB178:
 242              		.syntax unified
 243              	@ 327 "ChibiOS_3.0.2/os/ext/CMSIS/include/core_cmInstr.h" 1
 244 004e 00BF     		nop
 245              	@ 0 "" 2
 246              		.thumb
 247              		.syntax unified
 248              	.LBE178:
 249              	.LBE177:
 250              	.LBB179:
 251              	.LBB180:
 252              		.syntax unified
 253              	@ 327 "ChibiOS_3.0.2/os/ext/CMSIS/include/core_cmInstr.h" 1
 254 0050 00BF     		nop
 255              	@ 0 "" 2
 256              	.LVL12:
 257              		.thumb
 258              		.syntax unified
 259              	.LBE180:
 260              	.LBE179:
 261              	.LBE172:
 262              	.LBE182:
 263              		.loc 1 489 0
 264 0052 013E     		subs	r6, r6, #1
 265              	.LVL13:
 266 0054 DCD1     		bne	.L3
 267              	.LBE184:
 268              		.loc 1 514 0
 269 0056 A9F80040 		strh	r4, [r9]	@ movhi
 270              	.LVL14:
 271              	.LBE186:
 272              	.LBE188:
 273              		.loc 1 517 0
 274 005a BDE8F883 		pop	{r3, r4, r5, r6, r7, r8, r9, pc}
 275              	.LVL15:
 276              	.L11:
 277 005e 00BF     		.align	2
 278              	.L10:
 279 0060 00080240 		.word	1073874944
 280              		.cfi_endproc
 281              	.LFE280:
 282              		.size	spi_transfer.isra.0.constprop.1, .-spi_transfer.isra.0.constprop.1
 283              		.section	.text.encoder_spi_get_error_cnt,"ax",%progbits
 284              		.align	1
 285              		.p2align 4,,15
ARM GAS  /tmp/cctcmyYh.s 			page 6


 286              		.global	encoder_spi_get_error_cnt
 287              		.syntax unified
 288              		.thumb
 289              		.thumb_func
 290              		.fpu fpv4-sp-d16
 291              		.type	encoder_spi_get_error_cnt, %function
 292              	encoder_spi_get_error_cnt:
 293              	.LFB256:
 294              		.loc 1 103 0
 295              		.cfi_startproc
 296              		@ args = 0, pretend = 0, frame = 0
 297              		@ frame_needed = 0, uses_anonymous_args = 0
 298              		@ link register save eliminated.
 299              		.loc 1 104 0
 300 0000 014B     		ldr	r3, .L13
 301              		.loc 1 105 0
 302 0002 1868     		ldr	r0, [r3]
 303 0004 7047     		bx	lr
 304              	.L14:
 305 0006 00BF     		.align	2
 306              	.L13:
 307 0008 00000000 		.word	.LANCHOR0
 308              		.cfi_endproc
 309              	.LFE256:
 310              		.size	encoder_spi_get_error_cnt, .-encoder_spi_get_error_cnt
 311              		.section	.text.encoder_spi_get_val,"ax",%progbits
 312              		.align	1
 313              		.p2align 4,,15
 314              		.global	encoder_spi_get_val
 315              		.syntax unified
 316              		.thumb
 317              		.thumb_func
 318              		.fpu fpv4-sp-d16
 319              		.type	encoder_spi_get_val, %function
 320              	encoder_spi_get_val:
 321              	.LFB257:
 322              		.loc 1 107 0
 323              		.cfi_startproc
 324              		@ args = 0, pretend = 0, frame = 0
 325              		@ frame_needed = 0, uses_anonymous_args = 0
 326              		@ link register save eliminated.
 327              		.loc 1 108 0
 328 0000 014B     		ldr	r3, .L16
 329              		.loc 1 109 0
 330 0002 1888     		ldrh	r0, [r3]
 331 0004 7047     		bx	lr
 332              	.L17:
 333 0006 00BF     		.align	2
 334              	.L16:
 335 0008 00000000 		.word	.LANCHOR1
 336              		.cfi_endproc
 337              	.LFE257:
 338              		.size	encoder_spi_get_val, .-encoder_spi_get_val
 339              		.section	.text.encoder_spi_get_error_rate,"ax",%progbits
 340              		.align	1
 341              		.p2align 4,,15
 342              		.global	encoder_spi_get_error_rate
ARM GAS  /tmp/cctcmyYh.s 			page 7


 343              		.syntax unified
 344              		.thumb
 345              		.thumb_func
 346              		.fpu fpv4-sp-d16
 347              		.type	encoder_spi_get_error_rate, %function
 348              	encoder_spi_get_error_rate:
 349              	.LFB258:
 350              		.loc 1 111 0
 351              		.cfi_startproc
 352              		@ args = 0, pretend = 0, frame = 0
 353              		@ frame_needed = 0, uses_anonymous_args = 0
 354              		@ link register save eliminated.
 355              		.loc 1 112 0
 356 0000 014B     		ldr	r3, .L19
 357              		.loc 1 113 0
 358 0002 93ED000A 		vldr.32	s0, [r3]
 359 0006 7047     		bx	lr
 360              	.L20:
 361              		.align	2
 362              	.L19:
 363 0008 00000000 		.word	.LANCHOR2
 364              		.cfi_endproc
 365              	.LFE258:
 366              		.size	encoder_spi_get_error_rate, .-encoder_spi_get_error_rate
 367              		.section	.text.encoder_sincos_get_signal_below_min_error_cnt,"ax",%progbits
 368              		.align	1
 369              		.p2align 4,,15
 370              		.global	encoder_sincos_get_signal_below_min_error_cnt
 371              		.syntax unified
 372              		.thumb
 373              		.thumb_func
 374              		.fpu fpv4-sp-d16
 375              		.type	encoder_sincos_get_signal_below_min_error_cnt, %function
 376              	encoder_sincos_get_signal_below_min_error_cnt:
 377              	.LFB259:
 378              		.loc 1 115 0
 379              		.cfi_startproc
 380              		@ args = 0, pretend = 0, frame = 0
 381              		@ frame_needed = 0, uses_anonymous_args = 0
 382              		@ link register save eliminated.
 383              		.loc 1 116 0
 384 0000 014B     		ldr	r3, .L22
 385              		.loc 1 117 0
 386 0002 1868     		ldr	r0, [r3]
 387 0004 7047     		bx	lr
 388              	.L23:
 389 0006 00BF     		.align	2
 390              	.L22:
 391 0008 00000000 		.word	.LANCHOR3
 392              		.cfi_endproc
 393              	.LFE259:
 394              		.size	encoder_sincos_get_signal_below_min_error_cnt, .-encoder_sincos_get_signal_below_min_error_c
 395              		.section	.text.encoder_sincos_get_signal_above_max_error_cnt,"ax",%progbits
 396              		.align	1
 397              		.p2align 4,,15
 398              		.global	encoder_sincos_get_signal_above_max_error_cnt
 399              		.syntax unified
ARM GAS  /tmp/cctcmyYh.s 			page 8


 400              		.thumb
 401              		.thumb_func
 402              		.fpu fpv4-sp-d16
 403              		.type	encoder_sincos_get_signal_above_max_error_cnt, %function
 404              	encoder_sincos_get_signal_above_max_error_cnt:
 405              	.LFB260:
 406              		.loc 1 119 0
 407              		.cfi_startproc
 408              		@ args = 0, pretend = 0, frame = 0
 409              		@ frame_needed = 0, uses_anonymous_args = 0
 410              		@ link register save eliminated.
 411              		.loc 1 120 0
 412 0000 014B     		ldr	r3, .L25
 413              		.loc 1 121 0
 414 0002 1868     		ldr	r0, [r3]
 415 0004 7047     		bx	lr
 416              	.L26:
 417 0006 00BF     		.align	2
 418              	.L25:
 419 0008 00000000 		.word	.LANCHOR4
 420              		.cfi_endproc
 421              	.LFE260:
 422              		.size	encoder_sincos_get_signal_above_max_error_cnt, .-encoder_sincos_get_signal_above_max_error_c
 423              		.section	.text.encoder_sincos_get_signal_below_min_error_rate,"ax",%progbits
 424              		.align	1
 425              		.p2align 4,,15
 426              		.global	encoder_sincos_get_signal_below_min_error_rate
 427              		.syntax unified
 428              		.thumb
 429              		.thumb_func
 430              		.fpu fpv4-sp-d16
 431              		.type	encoder_sincos_get_signal_below_min_error_rate, %function
 432              	encoder_sincos_get_signal_below_min_error_rate:
 433              	.LFB261:
 434              		.loc 1 123 0
 435              		.cfi_startproc
 436              		@ args = 0, pretend = 0, frame = 0
 437              		@ frame_needed = 0, uses_anonymous_args = 0
 438              		@ link register save eliminated.
 439              		.loc 1 124 0
 440 0000 014B     		ldr	r3, .L28
 441              		.loc 1 125 0
 442 0002 93ED000A 		vldr.32	s0, [r3]
 443 0006 7047     		bx	lr
 444              	.L29:
 445              		.align	2
 446              	.L28:
 447 0008 00000000 		.word	.LANCHOR5
 448              		.cfi_endproc
 449              	.LFE261:
 450              		.size	encoder_sincos_get_signal_below_min_error_rate, .-encoder_sincos_get_signal_below_min_error_
 451              		.section	.text.encoder_sincos_get_signal_above_max_error_rate,"ax",%progbits
 452              		.align	1
 453              		.p2align 4,,15
 454              		.global	encoder_sincos_get_signal_above_max_error_rate
 455              		.syntax unified
 456              		.thumb
ARM GAS  /tmp/cctcmyYh.s 			page 9


 457              		.thumb_func
 458              		.fpu fpv4-sp-d16
 459              		.type	encoder_sincos_get_signal_above_max_error_rate, %function
 460              	encoder_sincos_get_signal_above_max_error_rate:
 461              	.LFB262:
 462              		.loc 1 127 0
 463              		.cfi_startproc
 464              		@ args = 0, pretend = 0, frame = 0
 465              		@ frame_needed = 0, uses_anonymous_args = 0
 466              		@ link register save eliminated.
 467              		.loc 1 128 0
 468 0000 014B     		ldr	r3, .L31
 469              		.loc 1 129 0
 470 0002 93ED000A 		vldr.32	s0, [r3]
 471 0006 7047     		bx	lr
 472              	.L32:
 473              		.align	2
 474              	.L31:
 475 0008 00000000 		.word	.LANCHOR6
 476              		.cfi_endproc
 477              	.LFE262:
 478              		.size	encoder_sincos_get_signal_above_max_error_rate, .-encoder_sincos_get_signal_above_max_error_
 479              		.section	.text.encoder_deinit,"ax",%progbits
 480              		.align	1
 481              		.p2align 4,,15
 482              		.global	encoder_deinit
 483              		.syntax unified
 484              		.thumb
 485              		.thumb_func
 486              		.fpu fpv4-sp-d16
 487              		.type	encoder_deinit, %function
 488              	encoder_deinit:
 489              	.LFB263:
 490              		.loc 1 131 0
 491              		.cfi_startproc
 492              		@ args = 0, pretend = 0, frame = 0
 493              		@ frame_needed = 0, uses_anonymous_args = 0
 494 0000 38B5     		push	{r3, r4, r5, lr}
 495              		.cfi_def_cfa_offset 16
 496              		.cfi_offset 3, -16
 497              		.cfi_offset 4, -12
 498              		.cfi_offset 5, -8
 499              		.cfi_offset 14, -4
 500              		.loc 1 132 0
 501 0002 1720     		movs	r0, #23
 502              		.loc 1 137 0
 503 0004 184C     		ldr	r4, .L35
 504              		.loc 1 145 0
 505 0006 194D     		ldr	r5, .L35+4
 506              		.loc 1 132 0
 507 0008 FFF7FEFF 		bl	nvicDisableVector
 508              	.LVL16:
 509              		.loc 1 133 0
 510 000c 1D20     		movs	r0, #29
 511 000e FFF7FEFF 		bl	nvicDisableVector
 512              	.LVL17:
 513              		.loc 1 135 0
ARM GAS  /tmp/cctcmyYh.s 			page 10


 514 0012 1748     		ldr	r0, .L35+8
 515 0014 FFF7FEFF 		bl	TIM_DeInit
 516              	.LVL18:
 517              		.loc 1 137 0
 518 0018 2046     		mov	r0, r4
 519 001a 2022     		movs	r2, #32
 520 001c 8021     		movs	r1, #128
 521 001e FFF7FEFF 		bl	_pal_lld_setgroupmode
 522              	.LVL19:
 523              		.loc 1 138 0
 524 0022 2046     		mov	r0, r4
 525 0024 2022     		movs	r2, #32
 526 0026 4021     		movs	r1, #64
 527 0028 FFF7FEFF 		bl	_pal_lld_setgroupmode
 528              	.LVL20:
 529              		.loc 1 139 0
 530 002c 2046     		mov	r0, r4
 531 002e 2022     		movs	r2, #32
 532 0030 4FF48071 		mov	r1, #256
 533 0034 FFF7FEFF 		bl	_pal_lld_setgroupmode
 534              	.LVL21:
 535              		.loc 1 141 0
 536 0038 2046     		mov	r0, r4
 537 003a 2022     		movs	r2, #32
 538 003c 4021     		movs	r1, #64
 539 003e FFF7FEFF 		bl	_pal_lld_setgroupmode
 540              	.LVL22:
 541              		.loc 1 142 0
 542 0042 2046     		mov	r0, r4
 543 0044 2022     		movs	r2, #32
 544 0046 8021     		movs	r1, #128
 545 0048 FFF7FEFF 		bl	_pal_lld_setgroupmode
 546              	.LVL23:
 547              		.loc 1 146 0
 548 004c 094A     		ldr	r2, .L35+12
 549              		.loc 1 144 0
 550 004e 0A49     		ldr	r1, .L35+16
 551              		.loc 1 147 0
 552 0050 0A4C     		ldr	r4, .L35+20
 553              		.loc 1 148 0
 554 0052 0B48     		ldr	r0, .L35+24
 555              		.loc 1 146 0
 556 0054 0023     		movs	r3, #0
 557 0056 1360     		str	r3, [r2]	@ float
 558              		.loc 1 144 0
 559 0058 0022     		movs	r2, #0
 560 005a 0A70     		strb	r2, [r1]
 561              		.loc 1 149 0
 562 005c 0949     		ldr	r1, .L35+28
 563              		.loc 1 145 0
 564 005e 2A70     		strb	r2, [r5]
 565              		.loc 1 147 0
 566 0060 2360     		str	r3, [r4]	@ float
 567              		.loc 1 148 0
 568 0062 0360     		str	r3, [r0]	@ float
 569              		.loc 1 149 0
 570 0064 0B60     		str	r3, [r1]	@ float
ARM GAS  /tmp/cctcmyYh.s 			page 11


 571              		.loc 1 150 0
 572 0066 38BD     		pop	{r3, r4, r5, pc}
 573              	.L36:
 574              		.align	2
 575              	.L35:
 576 0068 00080240 		.word	1073874944
 577 006c 00000000 		.word	.LANCHOR8
 578 0070 00040040 		.word	1073742848
 579 0074 00000000 		.word	.LANCHOR9
 580 0078 00000000 		.word	.LANCHOR7
 581 007c 00000000 		.word	.LANCHOR2
 582 0080 00000000 		.word	.LANCHOR5
 583 0084 00000000 		.word	.LANCHOR6
 584              		.cfi_endproc
 585              	.LFE263:
 586              		.size	encoder_deinit, .-encoder_deinit
 587              		.section	.text.encoder_init_abi,"ax",%progbits
 588              		.align	1
 589              		.p2align 4,,15
 590              		.global	encoder_init_abi
 591              		.syntax unified
 592              		.thumb
 593              		.thumb_func
 594              		.fpu fpv4-sp-d16
 595              		.type	encoder_init_abi, %function
 596              	encoder_init_abi:
 597              	.LFB264:
 598              		.loc 1 152 0
 599              		.cfi_startproc
 600              		@ args = 0, pretend = 0, frame = 8
 601              		@ frame_needed = 0, uses_anonymous_args = 0
 602              	.LVL24:
 603 0000 70B5     		push	{r4, r5, r6, lr}
 604              		.cfi_def_cfa_offset 16
 605              		.cfi_offset 4, -16
 606              		.cfi_offset 5, -12
 607              		.cfi_offset 6, -8
 608              		.cfi_offset 14, -4
 609              		.loc 1 157 0
 610 0002 284E     		ldr	r6, .L39
 611              		.loc 1 159 0
 612 0004 284C     		ldr	r4, .L39+4
 613              		.loc 1 156 0
 614 0006 294B     		ldr	r3, .L39+8
 615              		.loc 1 157 0
 616 0008 3060     		str	r0, [r6]
 617              		.loc 1 152 0
 618 000a 82B0     		sub	sp, sp, #8
 619              		.cfi_def_cfa_offset 24
 620              		.loc 1 156 0
 621 000c 0025     		movs	r5, #0
 622              		.loc 1 159 0
 623 000e 2046     		mov	r0, r4
 624              	.LVL25:
 625 0010 4FF48172 		mov	r2, #258
 626 0014 4021     		movs	r1, #64
 627              		.loc 1 156 0
ARM GAS  /tmp/cctcmyYh.s 			page 12


 628 0016 1D70     		strb	r5, [r3]
 629              		.loc 1 159 0
 630 0018 FFF7FEFF 		bl	_pal_lld_setgroupmode
 631              	.LVL26:
 632              		.loc 1 160 0
 633 001c 4FF48172 		mov	r2, #258
 634 0020 2046     		mov	r0, r4
 635 0022 8021     		movs	r1, #128
 636 0024 FFF7FEFF 		bl	_pal_lld_setgroupmode
 637              	.LVL27:
 638              		.loc 1 164 0
 639 0028 0121     		movs	r1, #1
 640 002a 0220     		movs	r0, #2
 641              		.loc 1 169 0
 642 002c A4F50134 		sub	r4, r4, #132096
 643              		.loc 1 164 0
 644 0030 FFF7FEFF 		bl	RCC_APB1PeriphClockCmd
 645              	.LVL28:
 646              		.loc 1 167 0
 647 0034 0121     		movs	r1, #1
 648 0036 4FF48040 		mov	r0, #16384
 649 003a FFF7FEFF 		bl	RCC_APB2PeriphClockCmd
 650              	.LVL29:
 651              		.loc 1 169 0
 652 003e 2A46     		mov	r2, r5
 653 0040 2B46     		mov	r3, r5
 654 0042 2046     		mov	r0, r4
 655 0044 0321     		movs	r1, #3
 656 0046 FFF7FEFF 		bl	TIM_EncoderInterfaceConfig
 657              	.LVL30:
 658              		.loc 1 172 0
 659 004a 3168     		ldr	r1, [r6]
 660 004c 2046     		mov	r0, r4
 661 004e 0139     		subs	r1, r1, #1
 662 0050 FFF7FEFF 		bl	TIM_SetAutoreload
 663              	.LVL31:
 664              		.loc 1 175 0
 665 0054 A369     		ldr	r3, [r4, #24]
 666 0056 43F4C043 		orr	r3, r3, #24576
 667 005a 43F06003 		orr	r3, r3, #96
 668 005e A361     		str	r3, [r4, #24]
 669              		.loc 1 176 0
 670 0060 E369     		ldr	r3, [r4, #28]
 671 0062 43F06003 		orr	r3, r3, #96
 672 0066 E361     		str	r3, [r4, #28]
 673              		.loc 1 178 0
 674 0068 2046     		mov	r0, r4
 675 006a 0121     		movs	r1, #1
 676 006c FFF7FEFF 		bl	TIM_Cmd
 677              	.LVL32:
 678              		.loc 1 183 0
 679 0070 0821     		movs	r1, #8
 680 0072 0220     		movs	r0, #2
 681 0074 FFF7FEFF 		bl	SYSCFG_EXTILineConfig
 682              	.LVL33:
 683              		.loc 1 189 0
 684 0078 0124     		movs	r4, #1
ARM GAS  /tmp/cctcmyYh.s 			page 13


 685              		.loc 1 186 0
 686 007a 4FF48072 		mov	r2, #256
 687              		.loc 1 188 0
 688 007e 0823     		movs	r3, #8
 689              		.loc 1 190 0
 690 0080 6846     		mov	r0, sp
 691              		.loc 1 188 0
 692 0082 8DF80530 		strb	r3, [sp, #5]
 693              		.loc 1 186 0
 694 0086 0092     		str	r2, [sp]
 695              		.loc 1 187 0
 696 0088 8DF80450 		strb	r5, [sp, #4]
 697              		.loc 1 189 0
 698 008c 8DF80640 		strb	r4, [sp, #6]
 699              		.loc 1 190 0
 700 0090 FFF7FEFF 		bl	EXTI_Init
 701              	.LVL34:
 702              		.loc 1 193 0
 703 0094 2946     		mov	r1, r5
 704 0096 1720     		movs	r0, #23
 705 0098 FFF7FEFF 		bl	nvicEnableVector
 706              	.LVL35:
 707              		.loc 1 195 0
 708 009c 044B     		ldr	r3, .L39+12
 709 009e 1C70     		strb	r4, [r3]
 710              		.loc 1 196 0
 711 00a0 02B0     		add	sp, sp, #8
 712              		.cfi_def_cfa_offset 16
 713              		@ sp needed
 714 00a2 70BD     		pop	{r4, r5, r6, pc}
 715              	.L40:
 716              		.align	2
 717              	.L39:
 718 00a4 00000000 		.word	.LANCHOR10
 719 00a8 00080240 		.word	1073874944
 720 00ac 00000000 		.word	.LANCHOR7
 721 00b0 00000000 		.word	.LANCHOR8
 722              		.cfi_endproc
 723              	.LFE264:
 724              		.size	encoder_init_abi, .-encoder_init_abi
 725              		.section	.text.encoder_init_as5047p_spi,"ax",%progbits
 726              		.align	1
 727              		.p2align 4,,15
 728              		.global	encoder_init_as5047p_spi
 729              		.syntax unified
 730              		.thumb
 731              		.thumb_func
 732              		.fpu fpv4-sp-d16
 733              		.type	encoder_init_as5047p_spi, %function
 734              	encoder_init_as5047p_spi:
 735              	.LFB265:
 736              		.loc 1 198 0
 737              		.cfi_startproc
 738              		@ args = 0, pretend = 0, frame = 16
 739              		@ frame_needed = 0, uses_anonymous_args = 0
 740 0000 30B5     		push	{r4, r5, lr}
 741              		.cfi_def_cfa_offset 12
ARM GAS  /tmp/cctcmyYh.s 			page 14


 742              		.cfi_offset 4, -12
 743              		.cfi_offset 5, -8
 744              		.cfi_offset 14, -4
 745              		.loc 1 201 0
 746 0002 1E4D     		ldr	r5, .L43
 747              		.loc 1 220 0
 748 0004 1E4C     		ldr	r4, .L43+4
 749              		.loc 1 198 0
 750 0006 85B0     		sub	sp, sp, #20
 751              		.cfi_def_cfa_offset 32
 752              		.loc 1 201 0
 753 0008 2846     		mov	r0, r5
 754 000a 0022     		movs	r2, #0
 755 000c 8021     		movs	r1, #128
 756 000e FFF7FEFF 		bl	_pal_lld_setgroupmode
 757              	.LVL36:
 758              		.loc 1 202 0
 759 0012 2846     		mov	r0, r5
 760 0014 1922     		movs	r2, #25
 761 0016 4021     		movs	r1, #64
 762 0018 FFF7FEFF 		bl	_pal_lld_setgroupmode
 763              	.LVL37:
 764              		.loc 1 203 0
 765 001c 2846     		mov	r0, r5
 766 001e 1922     		movs	r2, #25
 767 0020 4FF48071 		mov	r1, #256
 768 0024 FFF7FEFF 		bl	_pal_lld_setgroupmode
 769              	.LVL38:
 770              		.loc 1 212 0
 771 0028 0121     		movs	r1, #1
 772 002a 0220     		movs	r0, #2
 773 002c FFF7FEFF 		bl	RCC_APB1PeriphClockCmd
 774              	.LVL39:
 775              		.loc 1 215 0
 776 0030 0023     		movs	r3, #0
 777              		.loc 1 220 0
 778 0032 2046     		mov	r0, r4
 779              		.loc 1 216 0
 780 0034 41F26702 		movw	r2, #4199
 781              		.loc 1 220 0
 782 0038 01A9     		add	r1, sp, #4
 783              		.loc 1 215 0
 784 003a 0193     		str	r3, [sp, #4]
 785              		.loc 1 217 0
 786 003c ADF80C30 		strh	r3, [sp, #12]	@ movhi
 787              		.loc 1 218 0
 788 0040 8DF80E30 		strb	r3, [sp, #14]
 789              		.loc 1 216 0
 790 0044 0292     		str	r2, [sp, #8]
 791              		.loc 1 220 0
 792 0046 FFF7FEFF 		bl	TIM_TimeBaseInit
 793              	.LVL40:
 794              		.loc 1 223 0
 795 004a 0122     		movs	r2, #1
 796 004c 1146     		mov	r1, r2
 797 004e 2046     		mov	r0, r4
 798 0050 FFF7FEFF 		bl	TIM_ITConfig
ARM GAS  /tmp/cctcmyYh.s 			page 15


 799              	.LVL41:
 800              		.loc 1 226 0
 801 0054 2046     		mov	r0, r4
 802 0056 0121     		movs	r1, #1
 803 0058 FFF7FEFF 		bl	TIM_Cmd
 804              	.LVL42:
 805              		.loc 1 228 0
 806 005c 0621     		movs	r1, #6
 807 005e 1D20     		movs	r0, #29
 808 0060 FFF7FEFF 		bl	nvicEnableVector
 809              	.LVL43:
 810              		.loc 1 230 0
 811 0064 074C     		ldr	r4, .L43+8
 812              		.loc 1 231 0
 813 0066 0849     		ldr	r1, .L43+12
 814              		.loc 1 232 0
 815 0068 084B     		ldr	r3, .L43+16
 816 006a 0022     		movs	r2, #0
 817              		.loc 1 230 0
 818 006c 0225     		movs	r5, #2
 819              		.loc 1 231 0
 820 006e 0120     		movs	r0, #1
 821              		.loc 1 230 0
 822 0070 2570     		strb	r5, [r4]
 823              		.loc 1 231 0
 824 0072 0870     		strb	r0, [r1]
 825              		.loc 1 232 0
 826 0074 1A60     		str	r2, [r3]	@ float
 827              		.loc 1 233 0
 828 0076 05B0     		add	sp, sp, #20
 829              		.cfi_def_cfa_offset 12
 830              		@ sp needed
 831 0078 30BD     		pop	{r4, r5, pc}
 832              	.L44:
 833 007a 00BF     		.align	2
 834              	.L43:
 835 007c 00080240 		.word	1073874944
 836 0080 00040040 		.word	1073742848
 837 0084 00000000 		.word	.LANCHOR8
 838 0088 00000000 		.word	.LANCHOR7
 839 008c 00000000 		.word	.LANCHOR2
 840              		.cfi_endproc
 841              	.LFE265:
 842              		.size	encoder_init_as5047p_spi, .-encoder_init_as5047p_spi
 843              		.section	.text.encoder_init_ad2s1205_spi,"ax",%progbits
 844              		.align	1
 845              		.p2align 4,,15
 846              		.global	encoder_init_ad2s1205_spi
 847              		.syntax unified
 848              		.thumb
 849              		.thumb_func
 850              		.fpu fpv4-sp-d16
 851              		.type	encoder_init_ad2s1205_spi, %function
 852              	encoder_init_ad2s1205_spi:
 853              	.LFB266:
 854              		.loc 1 235 0
 855              		.cfi_startproc
ARM GAS  /tmp/cctcmyYh.s 			page 16


 856              		@ args = 0, pretend = 0, frame = 16
 857              		@ frame_needed = 0, uses_anonymous_args = 0
 858 0000 30B5     		push	{r4, r5, lr}
 859              		.cfi_def_cfa_offset 12
 860              		.cfi_offset 4, -12
 861              		.cfi_offset 5, -8
 862              		.cfi_offset 14, -4
 863              		.loc 1 238 0
 864 0002 1C4D     		ldr	r5, .L47
 865              		.loc 1 267 0
 866 0004 1C4C     		ldr	r4, .L47+4
 867              		.loc 1 235 0
 868 0006 85B0     		sub	sp, sp, #20
 869              		.cfi_def_cfa_offset 32
 870              		.loc 1 238 0
 871 0008 2846     		mov	r0, r5
 872 000a 0022     		movs	r2, #0
 873 000c 8021     		movs	r1, #128
 874 000e FFF7FEFF 		bl	_pal_lld_setgroupmode
 875              	.LVL44:
 876              		.loc 1 239 0
 877 0012 2846     		mov	r0, r5
 878 0014 1922     		movs	r2, #25
 879 0016 4021     		movs	r1, #64
 880 0018 FFF7FEFF 		bl	_pal_lld_setgroupmode
 881              	.LVL45:
 882              		.loc 1 240 0
 883 001c 2846     		mov	r0, r5
 884 001e 1922     		movs	r2, #25
 885 0020 4FF48071 		mov	r1, #256
 886 0024 FFF7FEFF 		bl	_pal_lld_setgroupmode
 887              	.LVL46:
 888              		.loc 1 259 0
 889 0028 0121     		movs	r1, #1
 890 002a 0220     		movs	r0, #2
 891 002c FFF7FEFF 		bl	RCC_APB1PeriphClockCmd
 892              	.LVL47:
 893              		.loc 1 262 0
 894 0030 0023     		movs	r3, #0
 895              		.loc 1 267 0
 896 0032 2046     		mov	r0, r4
 897              		.loc 1 263 0
 898 0034 41F26702 		movw	r2, #4199
 899              		.loc 1 267 0
 900 0038 01A9     		add	r1, sp, #4
 901              		.loc 1 262 0
 902 003a 0193     		str	r3, [sp, #4]
 903              		.loc 1 264 0
 904 003c ADF80C30 		strh	r3, [sp, #12]	@ movhi
 905              		.loc 1 265 0
 906 0040 8DF80E30 		strb	r3, [sp, #14]
 907              		.loc 1 263 0
 908 0044 0292     		str	r2, [sp, #8]
 909              		.loc 1 267 0
 910 0046 FFF7FEFF 		bl	TIM_TimeBaseInit
 911              	.LVL48:
 912              		.loc 1 270 0
ARM GAS  /tmp/cctcmyYh.s 			page 17


 913 004a 0122     		movs	r2, #1
 914 004c 1146     		mov	r1, r2
 915 004e 2046     		mov	r0, r4
 916 0050 FFF7FEFF 		bl	TIM_ITConfig
 917              	.LVL49:
 918              		.loc 1 273 0
 919 0054 2046     		mov	r0, r4
 920 0056 0121     		movs	r1, #1
 921 0058 FFF7FEFF 		bl	TIM_Cmd
 922              	.LVL50:
 923              		.loc 1 275 0
 924 005c 0621     		movs	r1, #6
 925 005e 1D20     		movs	r0, #29
 926 0060 FFF7FEFF 		bl	nvicEnableVector
 927              	.LVL51:
 928              		.loc 1 277 0
 929 0064 0549     		ldr	r1, .L47+8
 930              		.loc 1 278 0
 931 0066 064B     		ldr	r3, .L47+12
 932              		.loc 1 277 0
 933 0068 0320     		movs	r0, #3
 934              		.loc 1 278 0
 935 006a 0122     		movs	r2, #1
 936              		.loc 1 277 0
 937 006c 0870     		strb	r0, [r1]
 938              		.loc 1 278 0
 939 006e 1A70     		strb	r2, [r3]
 940              		.loc 1 279 0
 941 0070 05B0     		add	sp, sp, #20
 942              		.cfi_def_cfa_offset 12
 943              		@ sp needed
 944 0072 30BD     		pop	{r4, r5, pc}
 945              	.L48:
 946              		.align	2
 947              	.L47:
 948 0074 00080240 		.word	1073874944
 949 0078 00040040 		.word	1073742848
 950 007c 00000000 		.word	.LANCHOR8
 951 0080 00000000 		.word	.LANCHOR7
 952              		.cfi_endproc
 953              	.LFE266:
 954              		.size	encoder_init_ad2s1205_spi, .-encoder_init_ad2s1205_spi
 955              		.section	.text.encoder_init_sincos,"ax",%progbits
 956              		.align	1
 957              		.p2align 4,,15
 958              		.global	encoder_init_sincos
 959              		.syntax unified
 960              		.thumb
 961              		.thumb_func
 962              		.fpu fpv4-sp-d16
 963              		.type	encoder_init_sincos, %function
 964              	encoder_init_sincos:
 965              	.LFB267:
 966              		.loc 1 282 0
 967              		.cfi_startproc
 968              		@ args = 0, pretend = 0, frame = 0
 969              		@ frame_needed = 0, uses_anonymous_args = 0
ARM GAS  /tmp/cctcmyYh.s 			page 18


 970              		@ link register save eliminated.
 971              	.LVL52:
 972              		.loc 1 284 0
 973 0000 0F49     		ldr	r1, .L51
 974              		.loc 1 288 0
 975 0002 104B     		ldr	r3, .L51+4
 976              		.loc 1 287 0
 977 0004 1048     		ldr	r0, .L51+8
 978              		.loc 1 290 0
 979 0006 114A     		ldr	r2, .L51+12
 980              		.loc 1 282 0
 981 0008 30B4     		push	{r4, r5}
 982              		.cfi_def_cfa_offset 8
 983              		.cfi_offset 4, -8
 984              		.cfi_offset 5, -4
 985              		.loc 1 284 0
 986 000a 81ED000A 		vstr.32	s0, [r1]
 987              		.loc 1 285 0
 988 000e 104D     		ldr	r5, .L51+16
 989              		.loc 1 286 0
 990 0010 104C     		ldr	r4, .L51+20
 991              		.loc 1 291 0
 992 0012 1149     		ldr	r1, .L51+24
 993              		.loc 1 288 0
 994 0014 83ED002A 		vstr.32	s4, [r3]
 995              		.loc 1 290 0
 996 0018 0023     		movs	r3, #0
 997              		.loc 1 285 0
 998 001a C5ED000A 		vstr.32	s1, [r5]
 999              		.loc 1 286 0
 1000 001e 84ED001A 		vstr.32	s2, [r4]
 1001              		.loc 1 300 0
 1002 0022 0E4D     		ldr	r5, .L51+28
 1003              		.loc 1 301 0
 1004 0024 0E4C     		ldr	r4, .L51+32
 1005              		.loc 1 287 0
 1006 0026 C0ED001A 		vstr.32	s3, [r0]
 1007              		.loc 1 291 0
 1008 002a 0B60     		str	r3, [r1]
 1009              		.loc 1 292 0
 1010 002c 0D48     		ldr	r0, .L51+36
 1011              		.loc 1 293 0
 1012 002e 0E49     		ldr	r1, .L51+40
 1013              		.loc 1 290 0
 1014 0030 1360     		str	r3, [r2]
 1015              		.loc 1 292 0
 1016 0032 0022     		movs	r2, #0
 1017              		.loc 1 300 0
 1018 0034 2B70     		strb	r3, [r5]
 1019              		.loc 1 301 0
 1020 0036 2370     		strb	r3, [r4]
 1021              		.loc 1 292 0
 1022 0038 0260     		str	r2, [r0]	@ float
 1023              		.loc 1 293 0
 1024 003a 0A60     		str	r2, [r1]	@ float
 1025              		.loc 1 303 0
 1026 003c 30BC     		pop	{r4, r5}
ARM GAS  /tmp/cctcmyYh.s 			page 19


 1027              		.cfi_restore 5
 1028              		.cfi_restore 4
 1029              		.cfi_def_cfa_offset 0
 1030 003e 7047     		bx	lr
 1031              	.L52:
 1032              		.align	2
 1033              	.L51:
 1034 0040 00000000 		.word	.LANCHOR11
 1035 0044 00000000 		.word	.LANCHOR15
 1036 0048 00000000 		.word	.LANCHOR14
 1037 004c 00000000 		.word	.LANCHOR3
 1038 0050 00000000 		.word	.LANCHOR12
 1039 0054 00000000 		.word	.LANCHOR13
 1040 0058 00000000 		.word	.LANCHOR4
 1041 005c 00000000 		.word	.LANCHOR8
 1042 0060 00000000 		.word	.LANCHOR7
 1043 0064 00000000 		.word	.LANCHOR5
 1044 0068 00000000 		.word	.LANCHOR6
 1045              		.cfi_endproc
 1046              	.LFE267:
 1047              		.size	encoder_init_sincos, .-encoder_init_sincos
 1048              		.section	.text.encoder_is_configured,"ax",%progbits
 1049              		.align	1
 1050              		.p2align 4,,15
 1051              		.global	encoder_is_configured
 1052              		.syntax unified
 1053              		.thumb
 1054              		.thumb_func
 1055              		.fpu fpv4-sp-d16
 1056              		.type	encoder_is_configured, %function
 1057              	encoder_is_configured:
 1058              	.LFB268:
 1059              		.loc 1 305 0
 1060              		.cfi_startproc
 1061              		@ args = 0, pretend = 0, frame = 0
 1062              		@ frame_needed = 0, uses_anonymous_args = 0
 1063              		@ link register save eliminated.
 1064              		.loc 1 306 0
 1065 0000 024B     		ldr	r3, .L54
 1066 0002 1878     		ldrb	r0, [r3]	@ zero_extendqisi2
 1067              		.loc 1 307 0
 1068 0004 0030     		adds	r0, r0, #0
 1069 0006 18BF     		it	ne
 1070 0008 0120     		movne	r0, #1
 1071 000a 7047     		bx	lr
 1072              	.L55:
 1073              		.align	2
 1074              	.L54:
 1075 000c 00000000 		.word	.LANCHOR8
 1076              		.cfi_endproc
 1077              	.LFE268:
 1078              		.size	encoder_is_configured, .-encoder_is_configured
 1079              		.section	.text.encoder_read_deg,"ax",%progbits
 1080              		.align	1
 1081              		.p2align 4,,15
 1082              		.global	encoder_read_deg
 1083              		.syntax unified
ARM GAS  /tmp/cctcmyYh.s 			page 20


 1084              		.thumb
 1085              		.thumb_func
 1086              		.fpu fpv4-sp-d16
 1087              		.type	encoder_read_deg, %function
 1088              	encoder_read_deg:
 1089              	.LFB269:
 1090              		.loc 1 315 0
 1091              		.cfi_startproc
 1092              		@ args = 0, pretend = 0, frame = 0
 1093              		@ frame_needed = 0, uses_anonymous_args = 0
 1094              		@ link register save eliminated.
 1095              		.loc 1 318 0
 1096 0000 124B     		ldr	r3, .L62
 1097 0002 1B78     		ldrb	r3, [r3]	@ zero_extendqisi2
 1098 0004 012B     		cmp	r3, #1
 1099 0006 0DD0     		beq	.L58
 1100 0008 08D3     		bcc	.L57
 1101 000a 032B     		cmp	r3, #3
 1102 000c 06D8     		bhi	.L57
 1103              		.loc 1 325 0
 1104 000e 104A     		ldr	r2, .L62+4
 1105 0010 104B     		ldr	r3, .L62+8
 1106 0012 92ED000A 		vldr.32	s0, [r2]
 1107 0016 83ED000A 		vstr.32	s0, [r3]
 1108              		.loc 1 365 0
 1109 001a 7047     		bx	lr
 1110              	.L57:
 1111 001c 0D4B     		ldr	r3, .L62+8
 1112 001e 93ED000A 		vldr.32	s0, [r3]
 1113 0022 7047     		bx	lr
 1114              	.L58:
 1115              		.loc 1 320 0
 1116 0024 0C4A     		ldr	r2, .L62+12
 1117 0026 0D4B     		ldr	r3, .L62+16
 1118 0028 D2ED097A 		vldr.32	s15, [r2, #36]	@ int
 1119 002c 93ED007A 		vldr.32	s14, [r3]	@ int
 1120 0030 DFED0B6A 		vldr.32	s13, .L62+20
 1121 0034 074B     		ldr	r3, .L62+8
 1122 0036 F8EE677A 		vcvt.f32.u32	s15, s15
 1123 003a B8EE477A 		vcvt.f32.u32	s14, s14
 1124 003e 67EEA67A 		vmul.f32	s15, s15, s13
 1125 0042 87EE870A 		vdiv.f32	s0, s15, s14
 1126 0046 83ED000A 		vstr.32	s0, [r3]
 1127              		.loc 1 321 0
 1128 004a 7047     		bx	lr
 1129              	.L63:
 1130              		.align	2
 1131              	.L62:
 1132 004c 00000000 		.word	.LANCHOR8
 1133 0050 00000000 		.word	.LANCHOR9
 1134 0054 00000000 		.word	.LANCHOR16
 1135 0058 00040040 		.word	1073742848
 1136 005c 00000000 		.word	.LANCHOR10
 1137 0060 0000B443 		.word	1135869952
 1138              		.cfi_endproc
 1139              	.LFE269:
 1140              		.size	encoder_read_deg, .-encoder_read_deg
ARM GAS  /tmp/cctcmyYh.s 			page 21


 1141              		.section	.text.encoder_reset,"ax",%progbits
 1142              		.align	1
 1143              		.p2align 4,,15
 1144              		.global	encoder_reset
 1145              		.syntax unified
 1146              		.thumb
 1147              		.thumb_func
 1148              		.fpu fpv4-sp-d16
 1149              		.type	encoder_reset, %function
 1150              	encoder_reset:
 1151              	.LFB270:
 1152              		.loc 1 370 0
 1153              		.cfi_startproc
 1154              		@ args = 0, pretend = 0, frame = 0
 1155              		@ frame_needed = 0, uses_anonymous_args = 0
 1156              		@ link register save eliminated.
 1157              	.LBB189:
 1158              	.LBB190:
 1159              		.loc 2 327 0
 1160              		.syntax unified
 1161              	@ 327 "ChibiOS_3.0.2/os/ext/CMSIS/include/core_cmInstr.h" 1
 1162 0000 00BF     		nop
 1163              	@ 0 "" 2
 1164              		.thumb
 1165              		.syntax unified
 1166              	.LBE190:
 1167              	.LBE189:
 1168              	.LBB191:
 1169              	.LBB192:
 1170              		.syntax unified
 1171              	@ 327 "ChibiOS_3.0.2/os/ext/CMSIS/include/core_cmInstr.h" 1
 1172 0002 00BF     		nop
 1173              	@ 0 "" 2
 1174              		.thumb
 1175              		.syntax unified
 1176              	.LBE192:
 1177              	.LBE191:
 1178              	.LBB193:
 1179              	.LBB194:
 1180              		.syntax unified
 1181              	@ 327 "ChibiOS_3.0.2/os/ext/CMSIS/include/core_cmInstr.h" 1
 1182 0004 00BF     		nop
 1183              	@ 0 "" 2
 1184              		.thumb
 1185              		.syntax unified
 1186              	.LBE194:
 1187              	.LBE193:
 1188              	.LBB195:
 1189              	.LBB196:
 1190              		.syntax unified
 1191              	@ 327 "ChibiOS_3.0.2/os/ext/CMSIS/include/core_cmInstr.h" 1
 1192 0006 00BF     		nop
 1193              	@ 0 "" 2
 1194              		.thumb
 1195              		.syntax unified
 1196              	.LBE196:
 1197              	.LBE195:
ARM GAS  /tmp/cctcmyYh.s 			page 22


 1198              		.loc 1 377 0
 1199 0008 144B     		ldr	r3, .L71
 1200 000a 1B69     		ldr	r3, [r3, #16]
 1201 000c DB05     		lsls	r3, r3, #23
 1202 000e 1DD5     		bpl	.L64
 1203              	.LBB197:
 1204              		.loc 1 382 0
 1205 0010 134A     		ldr	r2, .L71+4
 1206              		.loc 1 378 0
 1207 0012 1449     		ldr	r1, .L71+8
 1208              		.loc 1 382 0
 1209 0014 1378     		ldrb	r3, [r2]	@ zero_extendqisi2
 1210              		.loc 1 378 0
 1211 0016 486A     		ldr	r0, [r1, #36]
 1212              	.LVL53:
 1213              		.loc 1 382 0
 1214 0018 9BB1     		cbz	r3, .L67
 1215              		.loc 1 380 0
 1216 001a 1349     		ldr	r1, .L71+12
 1217 001c 134B     		ldr	r3, .L71+16
 1218 001e 0968     		ldr	r1, [r1]
 1219 0020 A3FB01C3 		umull	ip, r3, r3, r1
 1220 0024 1B09     		lsrs	r3, r3, #4
 1221              		.loc 1 384 0
 1222 0026 C91A     		subs	r1, r1, r3
 1223 0028 8142     		cmp	r1, r0
 1224 002a 10D3     		bcc	.L68
 1225              		.loc 1 384 0 is_stmt 0 discriminator 1
 1226 002c 9842     		cmp	r0, r3
 1227 002e 0ED3     		bcc	.L68
 1228              		.loc 1 388 0 is_stmt 1
 1229 0030 0F49     		ldr	r1, .L71+20
 1230 0032 0B68     		ldr	r3, [r1]
 1231 0034 0133     		adds	r3, r3, #1
 1232              		.loc 1 390 0
 1233 0036 052B     		cmp	r3, #5
 1234              		.loc 1 388 0
 1235 0038 0B60     		str	r3, [r1]
 1236              		.loc 1 390 0
 1237 003a 07DD     		ble	.L64
 1238              		.loc 1 391 0
 1239 003c 0023     		movs	r3, #0
 1240 003e 1370     		strb	r3, [r2]
 1241 0040 7047     		bx	lr
 1242              	.L67:
 1243              		.loc 1 397 0
 1244 0042 0B48     		ldr	r0, .L71+20
 1245              	.LVL54:
 1246              		.loc 1 395 0
 1247 0044 4B62     		str	r3, [r1, #36]
 1248              	.LVL55:
 1249              		.loc 1 396 0
 1250 0046 0121     		movs	r1, #1
 1251              		.loc 1 397 0
 1252 0048 0360     		str	r3, [r0]
 1253              		.loc 1 396 0
 1254 004a 1170     		strb	r1, [r2]
ARM GAS  /tmp/cctcmyYh.s 			page 23


 1255              	.L64:
 1256              	.LBE197:
 1257              		.loc 1 400 0
 1258 004c 7047     		bx	lr
 1259              	.LVL56:
 1260              	.L68:
 1261              	.LBB198:
 1262              		.loc 1 385 0
 1263 004e 0549     		ldr	r1, .L71+8
 1264              		.loc 1 386 0
 1265 0050 074A     		ldr	r2, .L71+20
 1266              		.loc 1 385 0
 1267 0052 0023     		movs	r3, #0
 1268 0054 4B62     		str	r3, [r1, #36]
 1269              	.LVL57:
 1270              		.loc 1 386 0
 1271 0056 1360     		str	r3, [r2]
 1272 0058 7047     		bx	lr
 1273              	.L72:
 1274 005a 00BF     		.align	2
 1275              	.L71:
 1276 005c 00080240 		.word	1073874944
 1277 0060 00000000 		.word	.LANCHOR7
 1278 0064 00040040 		.word	1073742848
 1279 0068 00000000 		.word	.LANCHOR10
 1280 006c CDCCCCCC 		.word	-858993459
 1281 0070 00000000 		.word	.LANCHOR17
 1282              	.LBE198:
 1283              		.cfi_endproc
 1284              	.LFE270:
 1285              		.size	encoder_reset, .-encoder_reset
 1286              		.section	.text.spi_check_parity,"ax",%progbits
 1287              		.align	1
 1288              		.p2align 4,,15
 1289              		.global	spi_check_parity
 1290              		.syntax unified
 1291              		.thumb
 1292              		.thumb_func
 1293              		.fpu fpv4-sp-d16
 1294              		.type	spi_check_parity, %function
 1295              	spi_check_parity:
 1296              	.LFB271:
 1297              		.loc 1 403 0
 1298              		.cfi_startproc
 1299              		@ args = 0, pretend = 0, frame = 0
 1300              		@ frame_needed = 0, uses_anonymous_args = 0
 1301              		@ link register save eliminated.
 1302              	.LVL58:
 1303              		.loc 1 404 0
 1304 0000 80EA1020 		eor	r0, r0, r0, lsr #8
 1305              	.LVL59:
 1306              		.loc 1 405 0
 1307 0004 80EA1010 		eor	r0, r0, r0, lsr #4
 1308              	.LVL60:
 1309              		.loc 1 406 0
 1310 0008 80EA9000 		eor	r0, r0, r0, lsr #2
 1311              	.LVL61:
ARM GAS  /tmp/cctcmyYh.s 			page 24


 1312              		.loc 1 407 0
 1313 000c 80EA5000 		eor	r0, r0, r0, lsr #1
 1314              	.LVL62:
 1315              		.loc 1 408 0
 1316 0010 C043     		mvns	r0, r0
 1317              		.loc 1 409 0
 1318 0012 00F00100 		and	r0, r0, #1
 1319 0016 7047     		bx	lr
 1320              		.cfi_endproc
 1321              	.LFE271:
 1322              		.size	spi_check_parity, .-spi_check_parity
 1323              		.section	.text.encoder_tim_isr,"ax",%progbits
 1324              		.align	1
 1325              		.p2align 4,,15
 1326              		.global	encoder_tim_isr
 1327              		.syntax unified
 1328              		.thumb
 1329              		.thumb_func
 1330              		.fpu fpv4-sp-d16
 1331              		.type	encoder_tim_isr, %function
 1332              	encoder_tim_isr:
 1333              	.LFB272:
 1334              		.loc 1 414 0
 1335              		.cfi_startproc
 1336              		@ args = 0, pretend = 0, frame = 8
 1337              		@ frame_needed = 0, uses_anonymous_args = 0
 1338 0000 70B5     		push	{r4, r5, r6, lr}
 1339              		.cfi_def_cfa_offset 16
 1340              		.cfi_offset 4, -16
 1341              		.cfi_offset 5, -12
 1342              		.cfi_offset 6, -8
 1343              		.cfi_offset 14, -4
 1344              		.loc 1 417 0
 1345 0002 3B4C     		ldr	r4, .L87
 1346 0004 2378     		ldrb	r3, [r4]	@ zero_extendqisi2
 1347 0006 022B     		cmp	r3, #2
 1348              		.loc 1 414 0
 1349 0008 82B0     		sub	sp, sp, #8
 1350              		.cfi_def_cfa_offset 24
 1351              		.loc 1 417 0
 1352 000a 25D0     		beq	.L85
 1353              	.L75:
 1354              		.loc 1 433 0
 1355 000c 032B     		cmp	r3, #3
 1356 000e 01D0     		beq	.L86
 1357              	.L74:
 1358              		.loc 1 457 0
 1359 0010 02B0     		add	sp, sp, #8
 1360              		.cfi_remember_state
 1361              		.cfi_def_cfa_offset 16
 1362              		@ sp needed
 1363 0012 70BD     		pop	{r4, r5, r6, pc}
 1364              	.L86:
 1365              		.cfi_restore_state
 1366              	.LBB199:
 1367              	.LBB200:
 1368              	.LBB201:
ARM GAS  /tmp/cctcmyYh.s 			page 25


 1369              		.loc 1 520 0
 1370 0014 374C     		ldr	r4, .L87+4
 1371 0016 4FF48075 		mov	r5, #256
 1372 001a 6583     		strh	r5, [r4, #26]	@ movhi
 1373              	.LBE201:
 1374              	.LBE200:
 1375              		.loc 1 441 0
 1376 001c 0DF10600 		add	r0, sp, #6
 1377 0020 FFF7FEFF 		bl	spi_transfer.isra.0.constprop.1
 1378              	.LVL63:
 1379              	.LBB202:
 1380              	.LBB203:
 1381              		.loc 1 524 0
 1382 0024 2583     		strh	r5, [r4, #24]	@ movhi
 1383              	.LBE203:
 1384              	.LBE202:
 1385              		.loc 1 444 0
 1386 0026 BDF80630 		ldrh	r3, [sp, #6]
 1387              	.LVL64:
 1388              		.loc 1 453 0
 1389 002a 03F00C02 		and	r2, r3, #12
 1390 002e 0C2A     		cmp	r2, #12
 1391 0030 EED1     		bne	.L74
 1392              		.loc 1 453 0 is_stmt 0 discriminator 2
 1393 0032 9A07     		lsls	r2, r3, #30
 1394 0034 ECD5     		bpl	.L74
 1395              		.loc 1 454 0 is_stmt 1
 1396 0036 1B09     		lsrs	r3, r3, #4
 1397              	.LVL65:
 1398 0038 07EE903A 		vmov	s15, r3	@ int
 1399 003c DFED2E6A 		vldr.32	s13, .L87+8
 1400 0040 9FED2E7A 		vldr.32	s14, .L87+12
 1401 0044 2E4B     		ldr	r3, .L87+16
 1402 0046 F8EE677A 		vcvt.f32.u32	s15, s15
 1403 004a 67EEA67A 		vmul.f32	s15, s15, s13
 1404 004e 67EE877A 		vmul.f32	s15, s15, s14
 1405 0052 C3ED007A 		vstr.32	s15, [r3]
 1406              	.LBE199:
 1407              		.loc 1 457 0
 1408 0056 DBE7     		b	.L74
 1409              	.LVL66:
 1410              	.L85:
 1411              	.LBB204:
 1412              	.LBB205:
 1413              		.loc 1 520 0
 1414 0058 264D     		ldr	r5, .L87+4
 1415 005a 4FF48076 		mov	r6, #256
 1416              	.LBE205:
 1417              	.LBE204:
 1418              		.loc 1 419 0
 1419 005e 0DF10600 		add	r0, sp, #6
 1420              	.LBB207:
 1421              	.LBB206:
 1422              		.loc 1 520 0
 1423 0062 6E83     		strh	r6, [r5, #26]	@ movhi
 1424              	.LBE206:
 1425              	.LBE207:
ARM GAS  /tmp/cctcmyYh.s 			page 26


 1426              		.loc 1 419 0
 1427 0064 FFF7FEFF 		bl	spi_transfer.isra.0.constprop.1
 1428              	.LVL67:
 1429              	.LBB208:
 1430              	.LBB209:
 1431              		.loc 1 524 0
 1432 0068 2E83     		strh	r6, [r5, #24]	@ movhi
 1433              	.LBE209:
 1434              	.LBE208:
 1435              		.loc 1 422 0
 1436 006a BDF80620 		ldrh	r2, [sp, #6]
 1437 006e 2549     		ldr	r1, .L87+20
 1438              	.LBB210:
 1439              	.LBB211:
 1440              		.loc 1 404 0
 1441 0070 82EA1223 		eor	r3, r2, r2, lsr #8
 1442              		.loc 1 405 0
 1443 0074 83EA1313 		eor	r3, r3, r3, lsr #4
 1444              		.loc 1 406 0
 1445 0078 83EA9303 		eor	r3, r3, r3, lsr #2
 1446              		.loc 1 407 0
 1447 007c 83EA5303 		eor	r3, r3, r3, lsr #1
 1448              	.LBE211:
 1449              	.LBE210:
 1450              		.loc 1 423 0
 1451 0080 D807     		lsls	r0, r3, #31
 1452              		.loc 1 422 0
 1453 0082 0A80     		strh	r2, [r1]	@ movhi
 1454 0084 2049     		ldr	r1, .L87+24
 1455              		.loc 1 423 0
 1456 0086 20D4     		bmi	.L76
 1457              		.loc 1 423 0 is_stmt 0 discriminator 1
 1458 0088 4FF6FF73 		movw	r3, #65535
 1459 008c 9A42     		cmp	r2, r3
 1460 008e D1ED007A 		vldr.32	s15, [r1]
 1461 0092 1CD0     		beq	.L77
 1462              		.loc 1 424 0 is_stmt 1
 1463 0094 C2F30D02 		ubfx	r2, r2, #0, #14
 1464              		.loc 1 425 0
 1465 0098 07EE102A 		vmov	s14, r2	@ int
 1466 009c DFED165A 		vldr.32	s11, .L87+8
 1467              		.loc 1 426 0
 1468 00a0 9FED1A6A 		vldr.32	s12, .L87+28
 1469              		.loc 1 425 0
 1470 00a4 DFED1A6A 		vldr.32	s13, .L87+32
 1471 00a8 1548     		ldr	r0, .L87+16
 1472              		.loc 1 424 0
 1473 00aa ADF80620 		strh	r2, [sp, #6]	@ movhi
 1474              		.loc 1 425 0
 1475 00ae B8EE477A 		vcvt.f32.u32	s14, s14
 1476              		.loc 1 426 0
 1477 00b2 E7EEC67A 		vfms.f32	s15, s15, s12
 1478 00b6 2378     		ldrb	r3, [r4]	@ zero_extendqisi2
 1479              		.loc 1 425 0
 1480 00b8 27EE257A 		vmul.f32	s14, s14, s11
 1481              		.loc 1 426 0
 1482 00bc C1ED007A 		vstr.32	s15, [r1]
ARM GAS  /tmp/cctcmyYh.s 			page 27


 1483              		.loc 1 425 0
 1484 00c0 27EE267A 		vmul.f32	s14, s14, s13
 1485 00c4 80ED007A 		vstr.32	s14, [r0]
 1486              		.loc 1 426 0
 1487 00c8 A0E7     		b	.L75
 1488              	.L76:
 1489 00ca D1ED007A 		vldr.32	s15, [r1]
 1490              	.L77:
 1491              		.loc 1 429 0
 1492 00ce DFED0F6A 		vldr.32	s13, .L87+28
 1493              		.loc 1 428 0
 1494 00d2 1048     		ldr	r0, .L87+36
 1495 00d4 2378     		ldrb	r3, [r4]	@ zero_extendqisi2
 1496 00d6 0268     		ldr	r2, [r0]
 1497              		.loc 1 429 0
 1498 00d8 B7EE007A 		vmov.f32	s14, #1.0e+0
 1499 00dc 37EEC77A 		vsub.f32	s14, s15, s14
 1500              		.loc 1 428 0
 1501 00e0 0132     		adds	r2, r2, #1
 1502              		.loc 1 429 0
 1503 00e2 E7EE667A 		vfms.f32	s15, s14, s13
 1504              		.loc 1 428 0
 1505 00e6 0260     		str	r2, [r0]
 1506              		.loc 1 429 0
 1507 00e8 C1ED007A 		vstr.32	s15, [r1]
 1508 00ec 8EE7     		b	.L75
 1509              	.L88:
 1510 00ee 00BF     		.align	2
 1511              	.L87:
 1512 00f0 00000000 		.word	.LANCHOR8
 1513 00f4 00080240 		.word	1073874944
 1514 00f8 0000B443 		.word	1135869952
 1515 00fc 00008039 		.word	964689920
 1516 0100 00000000 		.word	.LANCHOR9
 1517 0104 00000000 		.word	.LANCHOR1
 1518 0108 00000000 		.word	.LANCHOR2
 1519 010c 17B75138 		.word	944879383
 1520 0110 00008038 		.word	947912704
 1521 0114 00000000 		.word	.LANCHOR0
 1522              		.cfi_endproc
 1523              	.LFE272:
 1524              		.size	encoder_tim_isr, .-encoder_tim_isr
 1525              		.section	.text.encoder_set_counts,"ax",%progbits
 1526              		.align	1
 1527              		.p2align 4,,15
 1528              		.global	encoder_set_counts
 1529              		.syntax unified
 1530              		.thumb
 1531              		.thumb_func
 1532              		.fpu fpv4-sp-d16
 1533              		.type	encoder_set_counts, %function
 1534              	encoder_set_counts:
 1535              	.LFB273:
 1536              		.loc 1 465 0
 1537              		.cfi_startproc
 1538              		@ args = 0, pretend = 0, frame = 0
 1539              		@ frame_needed = 0, uses_anonymous_args = 0
ARM GAS  /tmp/cctcmyYh.s 			page 28


 1540              	.LVL68:
 1541              		.loc 1 466 0
 1542 0000 074A     		ldr	r2, .L92
 1543              		.loc 1 465 0
 1544 0002 08B5     		push	{r3, lr}
 1545              		.cfi_def_cfa_offset 8
 1546              		.cfi_offset 3, -8
 1547              		.cfi_offset 14, -4
 1548              		.loc 1 466 0
 1549 0004 1368     		ldr	r3, [r2]
 1550 0006 8342     		cmp	r3, r0
 1551 0008 08D0     		beq	.L89
 1552 000a 0346     		mov	r3, r0
 1553              		.loc 1 468 0
 1554 000c 411E     		subs	r1, r0, #1
 1555 000e 0548     		ldr	r0, .L92+4
 1556              	.LVL69:
 1557              		.loc 1 467 0
 1558 0010 1360     		str	r3, [r2]
 1559              		.loc 1 468 0
 1560 0012 FFF7FEFF 		bl	TIM_SetAutoreload
 1561              	.LVL70:
 1562              		.loc 1 469 0
 1563 0016 044B     		ldr	r3, .L92+8
 1564 0018 0022     		movs	r2, #0
 1565 001a 1A70     		strb	r2, [r3]
 1566              	.L89:
 1567              		.loc 1 471 0
 1568 001c 08BD     		pop	{r3, pc}
 1569              	.L93:
 1570 001e 00BF     		.align	2
 1571              	.L92:
 1572 0020 00000000 		.word	.LANCHOR10
 1573 0024 00040040 		.word	1073742848
 1574 0028 00000000 		.word	.LANCHOR7
 1575              		.cfi_endproc
 1576              	.LFE273:
 1577              		.size	encoder_set_counts, .-encoder_set_counts
 1578              		.section	.text.encoder_index_found,"ax",%progbits
 1579              		.align	1
 1580              		.p2align 4,,15
 1581              		.global	encoder_index_found
 1582              		.syntax unified
 1583              		.thumb
 1584              		.thumb_func
 1585              		.fpu fpv4-sp-d16
 1586              		.type	encoder_index_found, %function
 1587              	encoder_index_found:
 1588              	.LFB274:
 1589              		.loc 1 479 0
 1590              		.cfi_startproc
 1591              		@ args = 0, pretend = 0, frame = 0
 1592              		@ frame_needed = 0, uses_anonymous_args = 0
 1593              		@ link register save eliminated.
 1594              		.loc 1 480 0
 1595 0000 014B     		ldr	r3, .L95
 1596              		.loc 1 481 0
ARM GAS  /tmp/cctcmyYh.s 			page 29


 1597 0002 1878     		ldrb	r0, [r3]	@ zero_extendqisi2
 1598 0004 7047     		bx	lr
 1599              	.L96:
 1600 0006 00BF     		.align	2
 1601              	.L95:
 1602 0008 00000000 		.word	.LANCHOR7
 1603              		.cfi_endproc
 1604              	.LFE274:
 1605              		.size	encoder_index_found, .-encoder_index_found
 1606              		.global	sincos_signal_above_max_error_rate
 1607              		.global	sincos_signal_low_error_rate
 1608              		.global	sincos_signal_above_max_error_cnt
 1609              		.global	sincos_signal_below_min_error_cnt
 1610              		.global	sincos_filter_constant
 1611              		.global	cos_offset
 1612              		.global	cos_gain
 1613              		.global	sin_offset
 1614              		.global	sin_gain
 1615              		.global	spi_error_rate
 1616              		.global	spi_error_cnt
 1617              		.global	spi_val
 1618              		.section	.bss.angle.11659,"aw",%nobits
 1619              		.align	2
 1620              		.set	.LANCHOR16,. + 0
 1621              		.type	angle.11659, %object
 1622              		.size	angle.11659, 4
 1623              	angle.11659:
 1624 0000 00000000 		.space	4
 1625              		.section	.bss.bad_pulses.11669,"aw",%nobits
 1626              		.align	2
 1627              		.set	.LANCHOR17,. + 0
 1628              		.type	bad_pulses.11669, %object
 1629              		.size	bad_pulses.11669, 4
 1630              	bad_pulses.11669:
 1631 0000 00000000 		.space	4
 1632              		.section	.bss.cos_gain,"aw",%nobits
 1633              		.align	2
 1634              		.set	.LANCHOR13,. + 0
 1635              		.type	cos_gain, %object
 1636              		.size	cos_gain, 4
 1637              	cos_gain:
 1638 0000 00000000 		.space	4
 1639              		.section	.bss.cos_offset,"aw",%nobits
 1640              		.align	2
 1641              		.set	.LANCHOR14,. + 0
 1642              		.type	cos_offset, %object
 1643              		.size	cos_offset, 4
 1644              	cos_offset:
 1645 0000 00000000 		.space	4
 1646              		.section	.bss.index_found,"aw",%nobits
 1647              		.set	.LANCHOR7,. + 0
 1648              		.type	index_found, %object
 1649              		.size	index_found, 1
 1650              	index_found:
 1651 0000 00       		.space	1
 1652              		.section	.bss.last_enc_angle,"aw",%nobits
 1653              		.align	2
ARM GAS  /tmp/cctcmyYh.s 			page 30


 1654              		.set	.LANCHOR9,. + 0
 1655              		.type	last_enc_angle, %object
 1656              		.size	last_enc_angle, 4
 1657              	last_enc_angle:
 1658 0000 00000000 		.space	4
 1659              		.section	.bss.mode,"aw",%nobits
 1660              		.set	.LANCHOR8,. + 0
 1661              		.type	mode, %object
 1662              		.size	mode, 1
 1663              	mode:
 1664 0000 00       		.space	1
 1665              		.section	.bss.sin_gain,"aw",%nobits
 1666              		.align	2
 1667              		.set	.LANCHOR11,. + 0
 1668              		.type	sin_gain, %object
 1669              		.size	sin_gain, 4
 1670              	sin_gain:
 1671 0000 00000000 		.space	4
 1672              		.section	.bss.sin_offset,"aw",%nobits
 1673              		.align	2
 1674              		.set	.LANCHOR12,. + 0
 1675              		.type	sin_offset, %object
 1676              		.size	sin_offset, 4
 1677              	sin_offset:
 1678 0000 00000000 		.space	4
 1679              		.section	.bss.sincos_filter_constant,"aw",%nobits
 1680              		.align	2
 1681              		.set	.LANCHOR15,. + 0
 1682              		.type	sincos_filter_constant, %object
 1683              		.size	sincos_filter_constant, 4
 1684              	sincos_filter_constant:
 1685 0000 00000000 		.space	4
 1686              		.section	.bss.sincos_signal_above_max_error_cnt,"aw",%nobits
 1687              		.align	2
 1688              		.set	.LANCHOR4,. + 0
 1689              		.type	sincos_signal_above_max_error_cnt, %object
 1690              		.size	sincos_signal_above_max_error_cnt, 4
 1691              	sincos_signal_above_max_error_cnt:
 1692 0000 00000000 		.space	4
 1693              		.section	.bss.sincos_signal_above_max_error_rate,"aw",%nobits
 1694              		.align	2
 1695              		.set	.LANCHOR6,. + 0
 1696              		.type	sincos_signal_above_max_error_rate, %object
 1697              		.size	sincos_signal_above_max_error_rate, 4
 1698              	sincos_signal_above_max_error_rate:
 1699 0000 00000000 		.space	4
 1700              		.section	.bss.sincos_signal_below_min_error_cnt,"aw",%nobits
 1701              		.align	2
 1702              		.set	.LANCHOR3,. + 0
 1703              		.type	sincos_signal_below_min_error_cnt, %object
 1704              		.size	sincos_signal_below_min_error_cnt, 4
 1705              	sincos_signal_below_min_error_cnt:
 1706 0000 00000000 		.space	4
 1707              		.section	.bss.sincos_signal_low_error_rate,"aw",%nobits
 1708              		.align	2
 1709              		.set	.LANCHOR5,. + 0
 1710              		.type	sincos_signal_low_error_rate, %object
ARM GAS  /tmp/cctcmyYh.s 			page 31


 1711              		.size	sincos_signal_low_error_rate, 4
 1712              	sincos_signal_low_error_rate:
 1713 0000 00000000 		.space	4
 1714              		.section	.bss.spi_error_cnt,"aw",%nobits
 1715              		.align	2
 1716              		.set	.LANCHOR0,. + 0
 1717              		.type	spi_error_cnt, %object
 1718              		.size	spi_error_cnt, 4
 1719              	spi_error_cnt:
 1720 0000 00000000 		.space	4
 1721              		.section	.bss.spi_error_rate,"aw",%nobits
 1722              		.align	2
 1723              		.set	.LANCHOR2,. + 0
 1724              		.type	spi_error_rate, %object
 1725              		.size	spi_error_rate, 4
 1726              	spi_error_rate:
 1727 0000 00000000 		.space	4
 1728              		.section	.bss.spi_val,"aw",%nobits
 1729              		.align	1
 1730              		.set	.LANCHOR1,. + 0
 1731              		.type	spi_val, %object
 1732              		.size	spi_val, 2
 1733              	spi_val:
 1734 0000 0000     		.space	2
 1735              		.section	.data.enc_counts,"aw",%progbits
 1736              		.align	2
 1737              		.set	.LANCHOR10,. + 0
 1738              		.type	enc_counts, %object
 1739              		.size	enc_counts, 4
 1740              	enc_counts:
 1741 0000 10270000 		.word	10000
 1742              		.text
 1743              	.Letext0:
 1744              		.file 3 "/usr/arm-none-eabi/include/machine/_default_types.h"
 1745              		.file 4 "/usr/arm-none-eabi/include/sys/_stdint.h"
 1746              		.file 5 "/usr/lib/gcc/arm-none-eabi/7.3.1/include/stddef.h"
 1747              		.file 6 "ChibiOS_3.0.2/os/rt/ports/ARMCMx/compilers/GCC/chtypes.h"
 1748              		.file 7 "ChibiOS_3.0.2/os/rt/include/chsystypes.h"
 1749              		.file 8 "ChibiOS_3.0.2/os/rt/include/chschd.h"
 1750              		.file 9 "ChibiOS_3.0.2/os/ext/CMSIS/include/core_cm4.h"
 1751              		.file 10 "ChibiOS_3.0.2/os/ext/CMSIS/ST/system_stm32f4xx.h"
 1752              		.file 11 "ChibiOS_3.0.2/os/ext/CMSIS/ST/stm32f407xx.h"
 1753              		.file 12 "ChibiOS_3.0.2/os/ext/CMSIS/ST/stm32f4xx.h"
 1754              		.file 13 "ChibiOS_3.0.2/os/rt/ports/ARMCMx/chcore.h"
 1755              		.file 14 "ChibiOS_3.0.2/os/rt/ports/ARMCMx/chcore_v7m.h"
 1756              		.file 15 "ChibiOS_3.0.2/os/rt/include/chtm.h"
 1757              		.file 16 "ChibiOS_3.0.2/os/rt/include/chsem.h"
 1758              		.file 17 "ChibiOS_3.0.2/os/rt/include/chmtx.h"
 1759              		.file 18 "ChibiOS_3.0.2/os/rt/include/chregistry.h"
 1760              		.file 19 "ChibiOS_3.0.2/os/rt/include/chevents.h"
 1761              		.file 20 "ChibiOS_3.0.2/os/rt/include/chqueues.h"
 1762              		.file 21 "conf_general.h"
 1763              		.file 22 "ChibiOS_3.0.2/ext/stdperiph_stm32f4/inc/stm32f4xx_exti.h"
 1764              		.file 23 "ChibiOS_3.0.2/ext/stdperiph_stm32f4/inc/stm32f4xx_tim.h"
 1765              		.file 24 "ChibiOS_3.0.2/os/hal/ports/STM32/STM32F4xx/stm32_dma.h"
 1766              		.file 25 "ChibiOS_3.0.2/os/hal/ports/STM32/LLD/GPIOv2/pal_lld.h"
 1767              		.file 26 "ChibiOS_3.0.2/os/hal/include/can.h"
ARM GAS  /tmp/cctcmyYh.s 			page 32


 1768              		.file 27 "ChibiOS_3.0.2/os/hal/ports/STM32/LLD/can_lld.h"
 1769              		.file 28 "ChibiOS_3.0.2/os/hal/include/i2c.h"
 1770              		.file 29 "ChibiOS_3.0.2/os/hal/ports/STM32/LLD/I2Cv1/i2c_lld.h"
 1771              		.file 30 "ChibiOS_3.0.2/os/hal/include/icu.h"
 1772              		.file 31 "ChibiOS_3.0.2/os/hal/ports/STM32/LLD/TIMv1/icu_lld.h"
 1773              		.file 32 "ChibiOS_3.0.2/os/hal/ports/STM32/LLD/TIMv1/stm32_tim.h"
 1774              		.file 33 "ChibiOS_3.0.2/os/hal/include/serial.h"
 1775              		.file 34 "ChibiOS_3.0.2/os/hal/ports/STM32/LLD/USARTv1/serial_lld.h"
 1776              		.file 35 "ChibiOS_3.0.2/os/hal/include/spi.h"
 1777              		.file 36 "ChibiOS_3.0.2/os/hal/ports/STM32/LLD/SPIv1/spi_lld.h"
 1778              		.file 37 "ChibiOS_3.0.2/os/hal/include/usb.h"
 1779              		.file 38 "ChibiOS_3.0.2/os/hal/ports/STM32/LLD/OTGv1/usb_lld.h"
 1780              		.file 39 "ChibiOS_3.0.2/os/hal/ports/STM32/LLD/OTGv1/stm32_otg.h"
 1781              		.file 40 "mc_interface.h"
 1782              		.file 41 "/usr/arm-none-eabi/include/sys/lock.h"
 1783              		.file 42 "/usr/arm-none-eabi/include/sys/_types.h"
 1784              		.file 43 "/usr/arm-none-eabi/include/sys/reent.h"
 1785              		.file 44 "/usr/arm-none-eabi/include/math.h"
 1786              		.file 45 "ChibiOS_3.0.2/ext/stdperiph_stm32f4/inc/stm32f4xx_rcc.h"
 1787              		.file 46 "ChibiOS_3.0.2/os/hal/ports/common/ARMCMx/nvic.h"
 1788              		.file 47 "ChibiOS_3.0.2/ext/stdperiph_stm32f4/inc/stm32f4xx_syscfg.h"
 1789              		.file 48 "utils.h"