ARM GAS  /tmp/ccC8Q1dS.s 			page 1


   1              		.cpu cortex-m4
   2              		.eabi_attribute 27, 1
   3              		.eabi_attribute 28, 1
   4              		.eabi_attribute 20, 1
   5              		.eabi_attribute 21, 1
   6              		.eabi_attribute 23, 3
   7              		.eabi_attribute 24, 1
   8              		.eabi_attribute 25, 1
   9              		.eabi_attribute 26, 1
  10              		.eabi_attribute 30, 2
  11              		.eabi_attribute 34, 1
  12              		.eabi_attribute 18, 4
  13              		.file	"esc_RawCommand.c"
  14              		.text
  15              	.Ltext0:
  16              		.cfi_sections	.debug_frame
  17              		.section	.text.uavcan_equipment_esc_RawCommand_encode_internal,"ax",%progbits
  18              		.align	1
  19              		.p2align 4,,15
  20              		.global	uavcan_equipment_esc_RawCommand_encode_internal
  21              		.syntax unified
  22              		.thumb
  23              		.thumb_func
  24              		.fpu fpv4-sp-d16
  25              		.type	uavcan_equipment_esc_RawCommand_encode_internal, %function
  26              	uavcan_equipment_esc_RawCommand_encode_internal:
  27              	.LFB0:
  28              		.file 1 "libcanard/dsdl/uavcan/equipment/esc/esc_RawCommand.c"
  29              		.loc 1 40 0
  30              		.cfi_startproc
  31              		@ args = 0, pretend = 0, frame = 0
  32              		@ frame_needed = 0, uses_anonymous_args = 0
  33              	.LVL0:
  34 0000 F8B5     		push	{r3, r4, r5, r6, r7, lr}
  35              		.cfi_def_cfa_offset 24
  36              		.cfi_offset 3, -24
  37              		.cfi_offset 4, -20
  38              		.cfi_offset 5, -16
  39              		.cfi_offset 6, -12
  40              		.cfi_offset 7, -8
  41              		.cfi_offset 14, -4
  42              		.loc 1 40 0
  43 0002 0646     		mov	r6, r0
  44 0004 0F46     		mov	r7, r1
  45 0006 1546     		mov	r5, r2
  46              		.loc 1 44 0
  47 0008 93B1     		cbz	r3, .L11
  48              	.LVL1:
  49              	.L2:
  50              		.loc 1 52 0 discriminator 1
  51 000a 3378     		ldrb	r3, [r6]	@ zero_extendqisi2
  52 000c 73B1     		cbz	r3, .L3
  53              		.loc 1 52 0 is_stmt 0
  54 000e 0024     		movs	r4, #0
  55              	.LVL2:
  56              	.L4:
  57              		.loc 1 57 0 is_stmt 1 discriminator 3
ARM GAS  /tmp/ccC8Q1dS.s 			page 2


  58 0010 7368     		ldr	r3, [r6, #4]
  59              		.loc 1 54 0 discriminator 3
  60 0012 2946     		mov	r1, r5
  61 0014 03EB4403 		add	r3, r3, r4, lsl #1
  62 0018 0E22     		movs	r2, #14
  63 001a 3846     		mov	r0, r7
  64 001c FFF7FEFF 		bl	canardEncodeScalar
  65              	.LVL3:
  66              		.loc 1 52 0 discriminator 3
  67 0020 3378     		ldrb	r3, [r6]	@ zero_extendqisi2
  68 0022 0134     		adds	r4, r4, #1
  69              	.LVL4:
  70 0024 A342     		cmp	r3, r4
  71              		.loc 1 58 0 discriminator 3
  72 0026 05F10E05 		add	r5, r5, #14
  73              	.LVL5:
  74              		.loc 1 52 0 discriminator 3
  75 002a F1D8     		bhi	.L4
  76              	.LVL6:
  77              	.L3:
  78              		.loc 1 62 0
  79 002c 2846     		mov	r0, r5
  80 002e F8BD     		pop	{r3, r4, r5, r6, r7, pc}
  81              	.LVL7:
  82              	.L11:
  83              		.loc 1 47 0
  84 0030 0346     		mov	r3, r0
  85              	.LVL8:
  86 0032 2946     		mov	r1, r5
  87              	.LVL9:
  88 0034 0522     		movs	r2, #5
  89              	.LVL10:
  90 0036 3846     		mov	r0, r7
  91              	.LVL11:
  92 0038 FFF7FEFF 		bl	canardEncodeScalar
  93              	.LVL12:
  94              		.loc 1 48 0
  95 003c 0535     		adds	r5, r5, #5
  96              	.LVL13:
  97 003e E4E7     		b	.L2
  98              		.cfi_endproc
  99              	.LFE0:
 100              		.size	uavcan_equipment_esc_RawCommand_encode_internal, .-uavcan_equipment_esc_RawCommand_encode_in
 101              		.section	.text.uavcan_equipment_esc_RawCommand_encode,"ax",%progbits
 102              		.align	1
 103              		.p2align 4,,15
 104              		.global	uavcan_equipment_esc_RawCommand_encode
 105              		.syntax unified
 106              		.thumb
 107              		.thumb_func
 108              		.fpu fpv4-sp-d16
 109              		.type	uavcan_equipment_esc_RawCommand_encode, %function
 110              	uavcan_equipment_esc_RawCommand_encode:
 111              	.LFB1:
 112              		.loc 1 71 0
 113              		.cfi_startproc
 114              		@ args = 0, pretend = 0, frame = 0
ARM GAS  /tmp/ccC8Q1dS.s 			page 3


 115              		@ frame_needed = 0, uses_anonymous_args = 0
 116              	.LVL14:
 117 0000 08B5     		push	{r3, lr}
 118              		.cfi_def_cfa_offset 8
 119              		.cfi_offset 3, -8
 120              		.cfi_offset 14, -4
 121              		.loc 1 74 0
 122 0002 0022     		movs	r2, #0
 123 0004 0123     		movs	r3, #1
 124 0006 FFF7FEFF 		bl	uavcan_equipment_esc_RawCommand_encode_internal
 125              	.LVL15:
 126              		.loc 1 76 0
 127 000a 0730     		adds	r0, r0, #7
 128              	.LVL16:
 129              		.loc 1 77 0
 130 000c C008     		lsrs	r0, r0, #3
 131              	.LVL17:
 132 000e 08BD     		pop	{r3, pc}
 133              		.cfi_endproc
 134              	.LFE1:
 135              		.size	uavcan_equipment_esc_RawCommand_encode, .-uavcan_equipment_esc_RawCommand_encode
 136              		.section	.text.uavcan_equipment_esc_RawCommand_decode_internal,"ax",%progbits
 137              		.align	1
 138              		.p2align 4,,15
 139              		.global	uavcan_equipment_esc_RawCommand_decode_internal
 140              		.syntax unified
 141              		.thumb
 142              		.thumb_func
 143              		.fpu fpv4-sp-d16
 144              		.type	uavcan_equipment_esc_RawCommand_decode_internal, %function
 145              	uavcan_equipment_esc_RawCommand_decode_internal:
 146              	.LFB2:
 147              		.loc 1 98 0
 148              		.cfi_startproc
 149              		@ args = 8, pretend = 0, frame = 0
 150              		@ frame_needed = 0, uses_anonymous_args = 0
 151              	.LVL18:
 152 0000 2DE9F043 		push	{r4, r5, r6, r7, r8, r9, lr}
 153              		.cfi_def_cfa_offset 28
 154              		.cfi_offset 4, -28
 155              		.cfi_offset 5, -24
 156              		.cfi_offset 6, -20
 157              		.cfi_offset 7, -16
 158              		.cfi_offset 8, -12
 159              		.cfi_offset 9, -8
 160              		.cfi_offset 14, -4
 161 0004 83B0     		sub	sp, sp, #12
 162              		.cfi_def_cfa_offset 40
 163              		.loc 1 98 0
 164 0006 1E46     		mov	r6, r3
 165 0008 8146     		mov	r9, r0
 166 000a 9046     		mov	r8, r2
 167 000c 9DF82C30 		ldrb	r3, [sp, #44]	@ zero_extendqisi2
 168              	.LVL19:
 169              		.loc 1 104 0
 170 0010 09B1     		cbz	r1, .L15
 171              		.loc 1 104 0 is_stmt 0 discriminator 1
ARM GAS  /tmp/ccC8Q1dS.s 			page 4


 172 0012 012B     		cmp	r3, #1
 173 0014 12D0     		beq	.L38
 174              	.L15:
 175              		.loc 1 112 0 is_stmt 1
 176 0016 CDF80080 		str	r8, [sp]
 177 001a 0023     		movs	r3, #0
 178 001c 0522     		movs	r2, #5
 179              	.LVL20:
 180 001e 0A99     		ldr	r1, [sp, #40]
 181              	.LVL21:
 182 0020 4846     		mov	r0, r9
 183              	.LVL22:
 184 0022 FFF7FEFF 		bl	canardDecodeScalar
 185              	.LVL23:
 186              		.loc 1 117 0
 187 0026 0528     		cmp	r0, #5
 188              		.loc 1 112 0
 189 0028 0446     		mov	r4, r0
 190              	.LVL24:
 191              		.loc 1 117 0
 192 002a 34D0     		beq	.L39
 193              	.LVL25:
 194              	.L17:
 195              		.loc 1 156 0
 196 002c 002C     		cmp	r4, #0
 197 002e A8BF     		it	ge
 198 0030 6FF00804 		mvnge	r4, #8
 199              	.LVL26:
 200              	.L14:
 201              		.loc 1 158 0
 202 0034 2046     		mov	r0, r4
 203 0036 03B0     		add	sp, sp, #12
 204              		.cfi_remember_state
 205              		.cfi_def_cfa_offset 28
 206              		@ sp needed
 207 0038 BDE8F083 		pop	{r4, r5, r6, r7, r8, r9, pc}
 208              	.LVL27:
 209              	.L38:
 210              		.cfi_restore_state
 211              		.loc 1 107 0
 212 003c 0A9A     		ldr	r2, [sp, #40]
 213              	.LVL28:
 214 003e 184B     		ldr	r3, .L41
 215 0040 0A9C     		ldr	r4, [sp, #40]
 216 0042 C2EBC101 		rsb	r1, r2, r1, lsl #3
 217              	.LVL29:
 218 0046 83FB0123 		smull	r2, r3, r3, r1
 219 004a 0B44     		add	r3, r3, r1
 220 004c C917     		asrs	r1, r1, #31
 221 004e C1EBE303 		rsb	r3, r1, r3, asr #3
 222 0052 DBB2     		uxtb	r3, r3
 223 0054 88F80030 		strb	r3, [r8]
 224              	.LVL30:
 225              	.L16:
 226              		.loc 1 125 0
 227 0058 16B1     		cbz	r6, .L18
 228              		.loc 1 127 0
ARM GAS  /tmp/ccC8Q1dS.s 			page 5


 229 005a 3268     		ldr	r2, [r6]
 230 005c C8F80420 		str	r2, [r8, #4]
 231              	.L18:
 232              		.loc 1 130 0 discriminator 1
 233 0060 002B     		cmp	r3, #0
 234 0062 E7D0     		beq	.L14
 235              		.loc 1 130 0 is_stmt 0
 236 0064 0025     		movs	r5, #0
 237 0066 06E0     		b	.L21
 238              	.LVL31:
 239              	.L40:
 240              		.loc 1 143 0 is_stmt 1
 241 0068 3368     		ldr	r3, [r6]
 242 006a 0233     		adds	r3, r3, #2
 243 006c 3360     		str	r3, [r6]
 244              	.LVL32:
 245              	.L20:
 246              		.loc 1 130 0 discriminator 2
 247 006e 98F80030 		ldrb	r3, [r8]	@ zero_extendqisi2
 248 0072 AB42     		cmp	r3, r5
 249 0074 DED9     		bls	.L14
 250              	.LVL33:
 251              	.L21:
 252              		.loc 1 134 0
 253 0076 0123     		movs	r3, #1
 254 0078 0E22     		movs	r2, #14
 255 007a 2146     		mov	r1, r4
 256 007c 4846     		mov	r0, r9
 257              		.loc 1 130 0
 258 007e 1D44     		add	r5, r5, r3
 259              	.LVL34:
 260              		.loc 1 145 0
 261 0080 1444     		add	r4, r4, r2
 262              	.LVL35:
 263              		.loc 1 132 0
 264 0082 002E     		cmp	r6, #0
 265 0084 F3D0     		beq	.L20
 266              	.LVL36:
 267              		.loc 1 134 0
 268 0086 3768     		ldr	r7, [r6]
 269 0088 0097     		str	r7, [sp]
 270 008a FFF7FEFF 		bl	canardDecodeScalar
 271              	.LVL37:
 272              		.loc 1 139 0
 273 008e 0E28     		cmp	r0, #14
 274 0090 EAD0     		beq	.L40
 275              		.loc 1 149 0
 276 0092 0446     		mov	r4, r0
 277              	.LVL38:
 278 0094 CAE7     		b	.L17
 279              	.LVL39:
 280              	.L39:
 281              		.loc 1 121 0
 282 0096 0A9A     		ldr	r2, [sp, #40]
 283 0098 98F80030 		ldrb	r3, [r8]	@ zero_extendqisi2
 284 009c 541D     		adds	r4, r2, #5
 285              	.LVL40:
ARM GAS  /tmp/ccC8Q1dS.s 			page 6


 286 009e DBE7     		b	.L16
 287              	.L42:
 288              		.align	2
 289              	.L41:
 290 00a0 93244992 		.word	-1840700269
 291              		.cfi_endproc
 292              	.LFE2:
 293              		.size	uavcan_equipment_esc_RawCommand_decode_internal, .-uavcan_equipment_esc_RawCommand_decode_in
 294              		.section	.text.uavcan_equipment_esc_RawCommand_decode,"ax",%progbits
 295              		.align	1
 296              		.p2align 4,,15
 297              		.global	uavcan_equipment_esc_RawCommand_decode
 298              		.syntax unified
 299              		.thumb
 300              		.thumb_func
 301              		.fpu fpv4-sp-d16
 302              		.type	uavcan_equipment_esc_RawCommand_decode, %function
 303              	uavcan_equipment_esc_RawCommand_decode:
 304              	.LFB3:
 305              		.loc 1 174 0
 306              		.cfi_startproc
 307              		@ args = 0, pretend = 0, frame = 0
 308              		@ frame_needed = 0, uses_anonymous_args = 0
 309              	.LVL41:
 310 0000 2DE9F04F 		push	{r4, r5, r6, r7, r8, r9, r10, fp, lr}
 311              		.cfi_def_cfa_offset 36
 312              		.cfi_offset 4, -36
 313              		.cfi_offset 5, -32
 314              		.cfi_offset 6, -28
 315              		.cfi_offset 7, -24
 316              		.cfi_offset 8, -20
 317              		.cfi_offset 9, -16
 318              		.cfi_offset 10, -12
 319              		.cfi_offset 11, -8
 320              		.cfi_offset 14, -4
 321 0004 1646     		mov	r6, r2
 322              		.loc 1 182 0
 323 0006 0022     		movs	r2, #0
 324              	.LVL42:
 325              		.loc 1 174 0
 326 0008 83B0     		sub	sp, sp, #12
 327              		.cfi_def_cfa_offset 48
 328              		.loc 1 174 0
 329 000a 8246     		mov	r10, r0
 330 000c 8946     		mov	r9, r1
 331 000e 9846     		mov	r8, r3
 332 0010 771E     		subs	r7, r6, #1
 333 0012 F51D     		adds	r5, r6, #7
 334              	.LBB2:
 335              		.loc 1 189 0
 336 0014 1446     		mov	r4, r2
 337              	.LBE2:
 338              		.loc 1 174 0
 339 0016 4FF0020B 		mov	fp, #2
 340              	.LVL43:
 341              	.L46:
 342 001a 3B46     		mov	r3, r7
ARM GAS  /tmp/ccC8Q1dS.s 			page 7


 343              	.LVL44:
 344              	.L44:
 345              	.LBB3:
 346              		.loc 1 189 0 discriminator 3
 347 001c 03F8014F 		strb	r4, [r3, #1]!
 348              		.loc 1 187 0 discriminator 3
 349 0020 AB42     		cmp	r3, r5
 350 0022 FBD1     		bne	.L44
 351              	.LBE3:
 352              		.loc 1 192 0
 353 0024 CDE90042 		strd	r4, r2, [sp]
 354 0028 4346     		mov	r3, r8
 355 002a 3246     		mov	r2, r6
 356              	.LVL45:
 357 002c 4946     		mov	r1, r9
 358 002e 5046     		mov	r0, r10
 359 0030 FFF7FEFF 		bl	uavcan_equipment_esc_RawCommand_decode_internal
 360              	.LVL46:
 361              		.loc 1 194 0
 362 0034 0028     		cmp	r0, #0
 363 0036 02DB     		blt	.L50
 364              	.L43:
 365              		.loc 1 207 0
 366 0038 03B0     		add	sp, sp, #12
 367              		.cfi_remember_state
 368              		.cfi_def_cfa_offset 36
 369              		@ sp needed
 370 003a BDE8F08F 		pop	{r4, r5, r6, r7, r8, r9, r10, fp, pc}
 371              	.LVL47:
 372              	.L50:
 373              		.cfi_restore_state
 374              		.loc 1 203 0
 375 003e 0122     		movs	r2, #1
 376              		.loc 1 199 0
 377 0040 9345     		cmp	fp, r2
 378 0042 F9D0     		beq	.L43
 379 0044 9346     		mov	fp, r2
 380 0046 E8E7     		b	.L46
 381              		.cfi_endproc
 382              	.LFE3:
 383              		.size	uavcan_equipment_esc_RawCommand_decode, .-uavcan_equipment_esc_RawCommand_decode
 384              		.text
 385              	.Letext0:
 386              		.file 2 "/usr/arm-none-eabi/include/machine/_default_types.h"
 387              		.file 3 "/usr/arm-none-eabi/include/sys/_stdint.h"
 388              		.file 4 "libcanard/canard.h"
 389              		.file 5 "libcanard/dsdl/uavcan/equipment/esc/RawCommand.h"