ARM GAS  /tmp/ccq2O3dX.s 			page 1


   1              		.cpu cortex-m4
   2              		.eabi_attribute 27, 1
   3              		.eabi_attribute 28, 1
   4              		.eabi_attribute 20, 1
   5              		.eabi_attribute 21, 1
   6              		.eabi_attribute 23, 3
   7              		.eabi_attribute 24, 1
   8              		.eabi_attribute 25, 1
   9              		.eabi_attribute 26, 1
  10              		.eabi_attribute 30, 2
  11              		.eabi_attribute 34, 1
  12              		.eabi_attribute 18, 4
  13              		.file	"esc_RPMCommand.c"
  14              		.text
  15              	.Ltext0:
  16              		.cfi_sections	.debug_frame
  17              		.section	.text.uavcan_equipment_esc_RPMCommand_encode_internal,"ax",%progbits
  18              		.align	1
  19              		.p2align 4,,15
  20              		.global	uavcan_equipment_esc_RPMCommand_encode_internal
  21              		.syntax unified
  22              		.thumb
  23              		.thumb_func
  24              		.fpu fpv4-sp-d16
  25              		.type	uavcan_equipment_esc_RPMCommand_encode_internal, %function
  26              	uavcan_equipment_esc_RPMCommand_encode_internal:
  27              	.LFB0:
  28              		.file 1 "libcanard/dsdl/uavcan/equipment/esc/esc_RPMCommand.c"
  29              		.loc 1 40 0
  30              		.cfi_startproc
  31              		@ args = 0, pretend = 0, frame = 0
  32              		@ frame_needed = 0, uses_anonymous_args = 0
  33              	.LVL0:
  34 0000 F8B5     		push	{r3, r4, r5, r6, r7, lr}
  35              		.cfi_def_cfa_offset 24
  36              		.cfi_offset 3, -24
  37              		.cfi_offset 4, -20
  38              		.cfi_offset 5, -16
  39              		.cfi_offset 6, -12
  40              		.cfi_offset 7, -8
  41              		.cfi_offset 14, -4
  42              		.loc 1 40 0
  43 0002 0646     		mov	r6, r0
  44 0004 0F46     		mov	r7, r1
  45 0006 1546     		mov	r5, r2
  46              		.loc 1 44 0
  47 0008 93B1     		cbz	r3, .L11
  48              	.LVL1:
  49              	.L2:
  50              		.loc 1 52 0 discriminator 1
  51 000a 3378     		ldrb	r3, [r6]	@ zero_extendqisi2
  52 000c 73B1     		cbz	r3, .L3
  53              		.loc 1 52 0 is_stmt 0
  54 000e 0024     		movs	r4, #0
  55              	.LVL2:
  56              	.L4:
  57              		.loc 1 57 0 is_stmt 1 discriminator 3
ARM GAS  /tmp/ccq2O3dX.s 			page 2


  58 0010 7368     		ldr	r3, [r6, #4]
  59              		.loc 1 54 0 discriminator 3
  60 0012 2946     		mov	r1, r5
  61 0014 03EB8403 		add	r3, r3, r4, lsl #2
  62 0018 1222     		movs	r2, #18
  63 001a 3846     		mov	r0, r7
  64 001c FFF7FEFF 		bl	canardEncodeScalar
  65              	.LVL3:
  66              		.loc 1 52 0 discriminator 3
  67 0020 3378     		ldrb	r3, [r6]	@ zero_extendqisi2
  68 0022 0134     		adds	r4, r4, #1
  69              	.LVL4:
  70 0024 A342     		cmp	r3, r4
  71              		.loc 1 58 0 discriminator 3
  72 0026 05F11205 		add	r5, r5, #18
  73              	.LVL5:
  74              		.loc 1 52 0 discriminator 3
  75 002a F1D8     		bhi	.L4
  76              	.LVL6:
  77              	.L3:
  78              		.loc 1 62 0
  79 002c 2846     		mov	r0, r5
  80 002e F8BD     		pop	{r3, r4, r5, r6, r7, pc}
  81              	.LVL7:
  82              	.L11:
  83              		.loc 1 47 0
  84 0030 0346     		mov	r3, r0
  85              	.LVL8:
  86 0032 2946     		mov	r1, r5
  87              	.LVL9:
  88 0034 0522     		movs	r2, #5
  89              	.LVL10:
  90 0036 3846     		mov	r0, r7
  91              	.LVL11:
  92 0038 FFF7FEFF 		bl	canardEncodeScalar
  93              	.LVL12:
  94              		.loc 1 48 0
  95 003c 0535     		adds	r5, r5, #5
  96              	.LVL13:
  97 003e E4E7     		b	.L2
  98              		.cfi_endproc
  99              	.LFE0:
 100              		.size	uavcan_equipment_esc_RPMCommand_encode_internal, .-uavcan_equipment_esc_RPMCommand_encode_in
 101              		.section	.text.uavcan_equipment_esc_RPMCommand_encode,"ax",%progbits
 102              		.align	1
 103              		.p2align 4,,15
 104              		.global	uavcan_equipment_esc_RPMCommand_encode
 105              		.syntax unified
 106              		.thumb
 107              		.thumb_func
 108              		.fpu fpv4-sp-d16
 109              		.type	uavcan_equipment_esc_RPMCommand_encode, %function
 110              	uavcan_equipment_esc_RPMCommand_encode:
 111              	.LFB1:
 112              		.loc 1 71 0
 113              		.cfi_startproc
 114              		@ args = 0, pretend = 0, frame = 0
ARM GAS  /tmp/ccq2O3dX.s 			page 3


 115              		@ frame_needed = 0, uses_anonymous_args = 0
 116              	.LVL14:
 117 0000 08B5     		push	{r3, lr}
 118              		.cfi_def_cfa_offset 8
 119              		.cfi_offset 3, -8
 120              		.cfi_offset 14, -4
 121              		.loc 1 74 0
 122 0002 0022     		movs	r2, #0
 123 0004 0123     		movs	r3, #1
 124 0006 FFF7FEFF 		bl	uavcan_equipment_esc_RPMCommand_encode_internal
 125              	.LVL15:
 126              		.loc 1 76 0
 127 000a 0730     		adds	r0, r0, #7
 128              	.LVL16:
 129              		.loc 1 77 0
 130 000c C008     		lsrs	r0, r0, #3
 131              	.LVL17:
 132 000e 08BD     		pop	{r3, pc}
 133              		.cfi_endproc
 134              	.LFE1:
 135              		.size	uavcan_equipment_esc_RPMCommand_encode, .-uavcan_equipment_esc_RPMCommand_encode
 136              		.section	.text.uavcan_equipment_esc_RPMCommand_decode_internal,"ax",%progbits
 137              		.align	1
 138              		.p2align 4,,15
 139              		.global	uavcan_equipment_esc_RPMCommand_decode_internal
 140              		.syntax unified
 141              		.thumb
 142              		.thumb_func
 143              		.fpu fpv4-sp-d16
 144              		.type	uavcan_equipment_esc_RPMCommand_decode_internal, %function
 145              	uavcan_equipment_esc_RPMCommand_decode_internal:
 146              	.LFB2:
 147              		.loc 1 98 0
 148              		.cfi_startproc
 149              		@ args = 8, pretend = 0, frame = 0
 150              		@ frame_needed = 0, uses_anonymous_args = 0
 151              	.LVL18:
 152 0000 2DE9F043 		push	{r4, r5, r6, r7, r8, r9, lr}
 153              		.cfi_def_cfa_offset 28
 154              		.cfi_offset 4, -28
 155              		.cfi_offset 5, -24
 156              		.cfi_offset 6, -20
 157              		.cfi_offset 7, -16
 158              		.cfi_offset 8, -12
 159              		.cfi_offset 9, -8
 160              		.cfi_offset 14, -4
 161 0004 83B0     		sub	sp, sp, #12
 162              		.cfi_def_cfa_offset 40
 163              		.loc 1 98 0
 164 0006 1E46     		mov	r6, r3
 165 0008 8146     		mov	r9, r0
 166 000a 9046     		mov	r8, r2
 167 000c 9DF82C30 		ldrb	r3, [sp, #44]	@ zero_extendqisi2
 168              	.LVL19:
 169              		.loc 1 104 0
 170 0010 09B1     		cbz	r1, .L15
 171              		.loc 1 104 0 is_stmt 0 discriminator 1
ARM GAS  /tmp/ccq2O3dX.s 			page 4


 172 0012 012B     		cmp	r3, #1
 173 0014 12D0     		beq	.L38
 174              	.L15:
 175              		.loc 1 112 0 is_stmt 1
 176 0016 CDF80080 		str	r8, [sp]
 177 001a 0023     		movs	r3, #0
 178 001c 0522     		movs	r2, #5
 179              	.LVL20:
 180 001e 0A99     		ldr	r1, [sp, #40]
 181              	.LVL21:
 182 0020 4846     		mov	r0, r9
 183              	.LVL22:
 184 0022 FFF7FEFF 		bl	canardDecodeScalar
 185              	.LVL23:
 186              		.loc 1 117 0
 187 0026 0528     		cmp	r0, #5
 188              		.loc 1 112 0
 189 0028 0446     		mov	r4, r0
 190              	.LVL24:
 191              		.loc 1 117 0
 192 002a 33D0     		beq	.L39
 193              	.LVL25:
 194              	.L17:
 195              		.loc 1 156 0
 196 002c 002C     		cmp	r4, #0
 197 002e A8BF     		it	ge
 198 0030 6FF00804 		mvnge	r4, #8
 199              	.LVL26:
 200              	.L14:
 201              		.loc 1 158 0
 202 0034 2046     		mov	r0, r4
 203 0036 03B0     		add	sp, sp, #12
 204              		.cfi_remember_state
 205              		.cfi_def_cfa_offset 28
 206              		@ sp needed
 207 0038 BDE8F083 		pop	{r4, r5, r6, r7, r8, r9, pc}
 208              	.LVL27:
 209              	.L38:
 210              		.cfi_restore_state
 211              		.loc 1 107 0
 212 003c 0A9A     		ldr	r2, [sp, #40]
 213              	.LVL28:
 214 003e 184B     		ldr	r3, .L41
 215 0040 0A9C     		ldr	r4, [sp, #40]
 216 0042 C2EBC101 		rsb	r1, r2, r1, lsl #3
 217              	.LVL29:
 218 0046 83FB0123 		smull	r2, r3, r3, r1
 219 004a C917     		asrs	r1, r1, #31
 220 004c C1EBA303 		rsb	r3, r1, r3, asr #2
 221 0050 DBB2     		uxtb	r3, r3
 222 0052 88F80030 		strb	r3, [r8]
 223              	.LVL30:
 224              	.L16:
 225              		.loc 1 125 0
 226 0056 16B1     		cbz	r6, .L18
 227              		.loc 1 127 0
 228 0058 3268     		ldr	r2, [r6]
ARM GAS  /tmp/ccq2O3dX.s 			page 5


 229 005a C8F80420 		str	r2, [r8, #4]
 230              	.L18:
 231              		.loc 1 130 0 discriminator 1
 232 005e 002B     		cmp	r3, #0
 233 0060 E8D0     		beq	.L14
 234              		.loc 1 130 0 is_stmt 0
 235 0062 0025     		movs	r5, #0
 236 0064 06E0     		b	.L21
 237              	.LVL31:
 238              	.L40:
 239              		.loc 1 143 0 is_stmt 1
 240 0066 3368     		ldr	r3, [r6]
 241 0068 0433     		adds	r3, r3, #4
 242 006a 3360     		str	r3, [r6]
 243              	.LVL32:
 244              	.L20:
 245              		.loc 1 130 0 discriminator 2
 246 006c 98F80030 		ldrb	r3, [r8]	@ zero_extendqisi2
 247 0070 AB42     		cmp	r3, r5
 248 0072 DFD9     		bls	.L14
 249              	.LVL33:
 250              	.L21:
 251              		.loc 1 134 0
 252 0074 0123     		movs	r3, #1
 253 0076 1222     		movs	r2, #18
 254 0078 2146     		mov	r1, r4
 255 007a 4846     		mov	r0, r9
 256              		.loc 1 130 0
 257 007c 1D44     		add	r5, r5, r3
 258              	.LVL34:
 259              		.loc 1 145 0
 260 007e 1444     		add	r4, r4, r2
 261              	.LVL35:
 262              		.loc 1 132 0
 263 0080 002E     		cmp	r6, #0
 264 0082 F3D0     		beq	.L20
 265              	.LVL36:
 266              		.loc 1 134 0
 267 0084 3768     		ldr	r7, [r6]
 268 0086 0097     		str	r7, [sp]
 269 0088 FFF7FEFF 		bl	canardDecodeScalar
 270              	.LVL37:
 271              		.loc 1 139 0
 272 008c 1228     		cmp	r0, #18
 273 008e EAD0     		beq	.L40
 274              		.loc 1 149 0
 275 0090 0446     		mov	r4, r0
 276              	.LVL38:
 277 0092 CBE7     		b	.L17
 278              	.LVL39:
 279              	.L39:
 280              		.loc 1 121 0
 281 0094 0A9A     		ldr	r2, [sp, #40]
 282 0096 98F80030 		ldrb	r3, [r8]	@ zero_extendqisi2
 283 009a 541D     		adds	r4, r2, #5
 284              	.LVL40:
 285 009c DBE7     		b	.L16
ARM GAS  /tmp/ccq2O3dX.s 			page 6


 286              	.L42:
 287 009e 00BF     		.align	2
 288              	.L41:
 289 00a0 398EE338 		.word	954437177
 290              		.cfi_endproc
 291              	.LFE2:
 292              		.size	uavcan_equipment_esc_RPMCommand_decode_internal, .-uavcan_equipment_esc_RPMCommand_decode_in
 293              		.section	.text.uavcan_equipment_esc_RPMCommand_decode,"ax",%progbits
 294              		.align	1
 295              		.p2align 4,,15
 296              		.global	uavcan_equipment_esc_RPMCommand_decode
 297              		.syntax unified
 298              		.thumb
 299              		.thumb_func
 300              		.fpu fpv4-sp-d16
 301              		.type	uavcan_equipment_esc_RPMCommand_decode, %function
 302              	uavcan_equipment_esc_RPMCommand_decode:
 303              	.LFB3:
 304              		.loc 1 174 0
 305              		.cfi_startproc
 306              		@ args = 0, pretend = 0, frame = 0
 307              		@ frame_needed = 0, uses_anonymous_args = 0
 308              	.LVL41:
 309 0000 2DE9F04F 		push	{r4, r5, r6, r7, r8, r9, r10, fp, lr}
 310              		.cfi_def_cfa_offset 36
 311              		.cfi_offset 4, -36
 312              		.cfi_offset 5, -32
 313              		.cfi_offset 6, -28
 314              		.cfi_offset 7, -24
 315              		.cfi_offset 8, -20
 316              		.cfi_offset 9, -16
 317              		.cfi_offset 10, -12
 318              		.cfi_offset 11, -8
 319              		.cfi_offset 14, -4
 320 0004 1646     		mov	r6, r2
 321              		.loc 1 182 0
 322 0006 0022     		movs	r2, #0
 323              	.LVL42:
 324              		.loc 1 174 0
 325 0008 83B0     		sub	sp, sp, #12
 326              		.cfi_def_cfa_offset 48
 327              		.loc 1 174 0
 328 000a 8246     		mov	r10, r0
 329 000c 8946     		mov	r9, r1
 330 000e 9846     		mov	r8, r3
 331 0010 771E     		subs	r7, r6, #1
 332 0012 F51D     		adds	r5, r6, #7
 333              	.LBB2:
 334              		.loc 1 189 0
 335 0014 1446     		mov	r4, r2
 336              	.LBE2:
 337              		.loc 1 174 0
 338 0016 4FF0020B 		mov	fp, #2
 339              	.LVL43:
 340              	.L46:
 341 001a 3B46     		mov	r3, r7
 342              	.LVL44:
ARM GAS  /tmp/ccq2O3dX.s 			page 7


 343              	.L44:
 344              	.LBB3:
 345              		.loc 1 189 0 discriminator 3
 346 001c 03F8014F 		strb	r4, [r3, #1]!
 347              		.loc 1 187 0 discriminator 3
 348 0020 AB42     		cmp	r3, r5
 349 0022 FBD1     		bne	.L44
 350              	.LBE3:
 351              		.loc 1 192 0
 352 0024 CDE90042 		strd	r4, r2, [sp]
 353 0028 4346     		mov	r3, r8
 354 002a 3246     		mov	r2, r6
 355              	.LVL45:
 356 002c 4946     		mov	r1, r9
 357 002e 5046     		mov	r0, r10
 358 0030 FFF7FEFF 		bl	uavcan_equipment_esc_RPMCommand_decode_internal
 359              	.LVL46:
 360              		.loc 1 194 0
 361 0034 0028     		cmp	r0, #0
 362 0036 02DB     		blt	.L50
 363              	.L43:
 364              		.loc 1 207 0
 365 0038 03B0     		add	sp, sp, #12
 366              		.cfi_remember_state
 367              		.cfi_def_cfa_offset 36
 368              		@ sp needed
 369 003a BDE8F08F 		pop	{r4, r5, r6, r7, r8, r9, r10, fp, pc}
 370              	.LVL47:
 371              	.L50:
 372              		.cfi_restore_state
 373              		.loc 1 203 0
 374 003e 0122     		movs	r2, #1
 375              		.loc 1 199 0
 376 0040 9345     		cmp	fp, r2
 377 0042 F9D0     		beq	.L43
 378 0044 9346     		mov	fp, r2
 379 0046 E8E7     		b	.L46
 380              		.cfi_endproc
 381              	.LFE3:
 382              		.size	uavcan_equipment_esc_RPMCommand_decode, .-uavcan_equipment_esc_RPMCommand_decode
 383              		.text
 384              	.Letext0:
 385              		.file 2 "/usr/arm-none-eabi/include/machine/_default_types.h"
 386              		.file 3 "/usr/arm-none-eabi/include/sys/_stdint.h"
 387              		.file 4 "libcanard/canard.h"
 388              		.file 5 "libcanard/dsdl/uavcan/equipment/esc/RPMCommand.h"