ARM GAS  /tmp/ccq2O3dX.s 			page 1


   1              		.cpu cortex-m4
   2              		.eabi_attribute 27, 1
   3              		.eabi_attribute 28, 1
   4              		.eabi_attribute 20, 1
   5              		.eabi_attribute 21, 1
   6              		.eabi_attribute 23, 3
   7              		.eabi_attribute 24, 1
   8              		.eabi_attribute 25, 1
   9              		.eabi_attribute 26, 1
  10              		.eabi_attribute 30, 2
  11              		.eabi_attribute 34, 1
  12              		.eabi_attribute 18, 4
  13              		.file	"esc_RPMCommand.c"
  14              		.text
  15              	.Ltext0:
  16              		.cfi_sections	.debug_frame
  17              		.section	.text.uavcan_equipment_esc_RPMCommand_encode_internal,"ax",%progbits
  18              		.align	1
  19              		.p2align 4,,15
  20              		.global	uavcan_equipment_esc_RPMCommand_encode_internal
  21              		.syntax unified
  22              		.thumb
  23              		.thumb_func
  24              		.fpu fpv4-sp-d16
  25              		.type	uavcan_equipment_esc_RPMCommand_encode_internal, %function
  26              	uavcan_equipment_esc_RPMCommand_encode_internal:
  27              	.LFB0:
  28              		.file 1 "libcanard/dsdl/uavcan/equipment/esc/esc_RPMCommand.c"
  29              		.loc 1 40 0
  30              		.cfi_startproc
  31              		@ args = 0, pretend = 0, frame = 0
  32              		@ frame_needed = 0, uses_anonymous_args = 0
  33              	.LVL0:
  34 0000 F8B5     		push	{r3, r4, r5, r6, r7, lr}
  35              		.cfi_def_cfa_offset 24
  36              		.cfi_offset 3, -24
  37              		.cfi_offset 4, -20
  38              		.cfi_offset 5, -16
  39              		.cfi_offset 6, -12
  40              		.cfi_offset 7, -8
  41              		.cfi_offset 14, -4
  42              		.loc 1 40 0
  43 0002 0646     		mov	r6, r0
  44 0004 0F46     		mov	r7, r1
  45 0006 1546     		mov	r5, r2
  46              		.loc 1 44 0
  47 0008 93B1     		cbz	r3, .L11
  48              	.LVL1:
  49              	.L2:
  50              		.loc 1 52 0 discriminator 1
  51 000a 3378     		ldrb	r3, [r6]	@ zero_extendqisi2
  52 000c 73B1     		cbz	r3, .L3
  53              		.loc 1 52 0 is_stmt 0
  54 000e 0024     		movs	r4, #0
  55              	.LVL2:
  56              	.L4:
  57              		.loc 1 57 0 is_stmt 1 discriminator 3
ARM GAS  /tmp/ccq2O3dX.s 			page 2


  58 0010 7368     		ldr	r3, [r6, #4]
  59              		.loc 1 54 0 discriminator 3
  60 0012 2946     		mov	r1, r5
  61 0014 03EB8403 		add	r3, r3, r4, lsl #2
  62 0018 1222     		movs	r2, #18
  63 001a 3846     		mov	r0, r7
  64 001c FFF7FEFF 		bl	canardEncodeScalar
  65              	.LVL3:
  66              		.loc 1 52 0 discriminator 3
  67 0020 3378     		ldrb	r3, [r6]	@ zero_extendqisi2
  68 0022 0134     		adds	r4, r4, #1
  69              	.LVL4:
  70 0024 A342     		cmp	r3, r4
  71              		.loc 1 58 0 discriminator 3
  72 0026 05F11205 		add	r5, r5, #18
  73              	.LVL5:
  74              		.loc 1 52 0 discriminator 3
  75 002a F1D8     		bhi	.L4
  76              	.LVL6:
  77              	.L3:
  78              		.loc 1 62 0
  79 002c 2846     		mov	r0, r5
  80 002e F8BD     		pop	{r3, r4, r5, r6, r7, pc}
  81              	.LVL7:
  82              	.L11:
  83              		.loc 1 47 0
  84 0030 0346     		mov	r3, r0
  85              	.LVL8:
  86 0032 2946     		mov	r1, r5
  87              	.LVL9:
  88 0034 0522     		movs	r2, #5
  89              	.LVL10:
  90 0036 3846     		mov	r0, r7
  91              	.LVL11:
  92 0038 FFF7FEFF 		bl	canardEncodeScalar
  93              	.LVL12:
  94              		.loc 1 48 0
  95 003c 0535     		adds	r5, r5, #5
  96              	.LVL13:
  97 003e E4E7     		b	.L2
  98              		.cfi_endproc
  99              	.LFE0:
 100              		.size	uavcan_equipment_esc_RPMCommand_encode_internal, .-uavcan_equipment_esc_RPMCommand_encode_in
 101              		.section	.text.uavcan_equipment_esc_RPMCommand_encode,"ax",%progbits
 102              		.align	1
 103              		.p2align 4,,15
 104              		.global	uavcan_equipment_esc_RPMCommand_encode
 105              		.syntax unified
 106              		.thumb
 107              		.thumb_func
 108              		.fpu fpv4-sp-d16
 109              		.type	uavcan_equipment_esc_RPMCommand_encode, %function
 110              	uavcan_equipment_esc_RPMCommand_encode:
 111              	.LFB1:
 112              		.loc 1 71 0
 113              		.cfi_startproc
 114              		@ args = 0, pretend = 0, frame = 0
ARM GAS  /tmp/ccq2O3dX.s 			page 3


 115              		@ frame_needed = 0, uses_anonymous_args = 0
 116              	.LVL14:
 117 0000 08B5     		push	{r3, lr}
 118              		.cfi_def_cfa_offset 8
 119              		.cfi_offset 3, -8
 120              		.cfi_offset 14, -4
 121              		.loc 1 74 0
 122 0002 0022     		movs	r2, #0
 123 0004 0123     		movs	r3, #1
 124 0006 FFF7FEFF 		bl	uavcan_equipment_esc_RPMCommand_encode_internal
 125              	.LVL15:
 126              		.loc 1 76 0
 127 000a 0730     		adds	r0, r0, #7
 128              	.LVL16:
 129              		.loc 1 77 0
 130 000c C008     		lsrs	r0, r0, #3
 131              	.LVL17:
 132 000e 08BD     		pop	{r3, pc}
 133              		.cfi_endproc
 134              	.LFE1:
 135              		.size	uavcan_equipment_esc_RPMCommand_encode, .-uavcan_equipment_esc_RPMCommand_encode
 136              		.section	.text.uavcan_equipment_esc_RPMCommand_decode_internal,"ax",%progbits
 137              		.align	1
 138              		.p2align 4,,15
 139              		.global	uavcan_equipment_esc_RPMCommand_decode_internal
 140              		.syntax unified
 141              		.thumb
 142              		.thumb_func
 143              		.fpu fpv4-sp-d16
 144              		.type	uavcan_equipment_esc_RPMCommand_decode_internal, %function
 145              	uavcan_equipment_esc_RPMCommand_decode_internal:
 146              	.LFB2:
 147              		.loc 1 98 0
 148              		.cfi_startproc
 149              		@ args = 8, pretend = 0, frame = 0
 150              		@ frame_needed = 0, uses_anonymous_args = 0
 151              	.LVL18:
 152 0000 2DE9F043 		push	{r4, r5, r6, r7, r8, r9, lr}
 153              		.cfi_def_cfa_offset 28
 154              		.cfi_offset 4, -28
 155              		.cfi_offset 5, -24
 156              		.cfi_offset 6, -20
 157              		.cfi_offset 7, -16
 158              		.cfi_offset 8, -12
 159              		.cfi_offset 9, -8
 160              		.cfi_offset 14, -4
 161 0004 83B0     		sub	sp, sp, #12
 162              		.cfi_def_cfa_offset 40
 163              		.loc 1 98 0
 164 0006 1E46     		mov	r6, r3
 165 0008 8146     		mov	r9, r0
 166 000a 9046     		mov	r8, r2
 167 000c 9DF82C30 		ldrb	r3, [sp, #44]	@ zero_extendqisi2
 168              	.LVL19:
 169              		.loc 1 104 0
 170 0010 09B1     		cbz	r1, .L15
 171              		.loc 1 104 0 is_stmt 0 discriminator 1
ARM GAS  /tmp/ccq2O3dX.s 			page 4


 172 0012 012B     		cmp	r3, #1
 173 0014 12D0     		beq	.L38
 174              	.L15:
 175              		.loc 1 112 0 is_stmt 1
 176 0016 CDF80080 		str	r8, [sp]
 177 001a 0023     		movs	r3, #0
 178 001c 0522     		movs	r2, #5
 179              	.LVL20:
 180 001e 0A99     		ldr	r1, [sp, #40]
 181              	.LVL21:
 182 0020 4846     		mov	r0, r9
 183              	.LVL22:
 184 0022 FFF7FEFF 		bl	canardDecodeScalar
 185              	.LVL23:
 186              		.loc 1 117 0
 187 0026 0528     		cmp	r0, #5
 188              		.loc 1 112 0
 189 0028 0446     		mov	r4, r0
 190              	.LVL24:
 191              		.loc 1 117 0
 192 002a 33D0     		beq	.L39
 193              	.LVL25:
 194              	.L17:
 195              		.loc 1 156 0
 196 002c 002C     		cmp	r4, #0
 197 002e A8BF     		it	ge
 198 0030 6FF00804 		mvnge	r4, #8
 199              	.LVL26:
 200              	.L14:
 201              		.loc 1 158 0
 202 0034 2046     		mov	r0, r4
 203 0036 03B0     		add	sp, sp, #12
 204              		.cfi_remember_state
 205              		.cfi_def_cfa_offset 28
 206              		@ sp needed
 207 0038 BDE8F083 		pop	{r4, r5, r6, r7, r8, r9, pc}
 208              	.LVL27:
 209              	.L38:
 210              		.cfi_restore_state
 211              		.loc 1 107 0
 212 003c 0A9A     		ldr	r2, [sp, #40]
 213              	.LVL28:
 214 003e 184B     		ldr	r3, .L41
 215 0040 0A9C     		ldr	r4, [sp, #40]
 216 0042 C2EBC101 		rsb	r1, r2, r1, lsl #3
 217              	.LVL29:
 218 0046 83FB0123 		smull	r2, r3, r3, r1
 219 004a C917     		asrs	r1, r1, #31
 220 004c C1EBA303 		rsb	r3, r1, r3, asr #2
 221 0050 DBB2     		uxtb	r3, r3
 222 0052 88F80030 		strb	r3, [r8]
 223              	.LVL30:
 224              	.L16:
 225              		.loc 1 125 0
 226 0056 16B1     		cbz	r6, .L18
 227              		.loc 1 127 0
 228 0058 3268     		ldr	r2, [r6]
ARM GAS  /tmp/ccq2O3dX.s 			page 5


 229 005a C8F80420 		str	r2, [r8, #4]
 230              	.L18:
 231              		.loc 1 130 0 discriminator 1
 232 005e 002B     		cmp	r3, #0
 233 0060 E8D0     		beq	.L14
 234              		.loc 1 130 0 is_stmt 0
 235 0062 0025     		movs	r5, #0
 236 0064 06E0     		b	.L21
 237              	.LVL31:
 238              	.L40:
 239              		.loc 1 143 0 is_stmt 1
 240 0066 3368     		ldr	r3, [r6]
 241 0068 0433     		adds	r3, r3, #4
 242 006a 3360     		str	r3, [r6]
 243              	.LVL32:
 244              	.L20:
 245              		.loc 1 130 0 discriminator 2
 246 006c 98F80030 		ldrb	r3, [r8]	@ zero_extendqisi2
 247 0070 AB42     		cmp	r3, r5
 248 0072 DFD9     		bls	.L14
 249              	.LVL33:
 250              	.L21:
 251              		.loc 1 134 0
 252 0074 0123     		movs	r3, #1
 253 0076 1222     		movs	r2, #18
 254 0078 2146     		mov	r1, r4
 255 007a 4846     		mov	r0, r9
 256              		.loc 1 130 0
 257 007c 1D44     		add	r5, r5, r3
 258              	.LVL34:
 259              		.loc 1 145 0
 260 007e 1444     		add	r4, r4, r2
 261              	.LVL35:
 262              		.loc 1 132 0
 263 0080 002E     		cmp	r6, #0
 264 0082 F3D0     		beq	.L20
 265              	.LVL36:
 266              		.loc 1 134 0
 267 0084 3768     		ldr	r7, [r6]
 268 0086 0097     		str	r7, [sp]
 269 0088 FFF7FEFF 		bl	canardDecodeScalar
 270              	.LVL37:
 271              		.loc 1 139 0
 272 008c 1228     		cmp	r0, #18
 273 008e EAD0     		beq	.L40
 274              		.loc 1 149 0
 275 0090 0446     		mov	r4, r0
 276              	.LVL38:
 277 0092 CBE7     		b	.L17
 278              	.LVL39:
 279              	.L39:
 280              		.loc 1 121 0
 281 0094 0A9A     		ldr	r2, [sp, #40]
 282 0096 98F80030 		ldrb	r3, [r8]	@ zero_extendqisi2
 283 009a 541D     		adds	r4, r2, #5
 284              	.LVL40:
 285 009c DBE7     		b	.L16
ARM GAS  /tmp/ccq2O3dX.s 			page 6


 286              	.L42:
 287 009e 00BF     		.align	2
 288              	.L41:
 289 00a0 398EE338 		.word	954437177
 290              		.cfi_endproc
 291              	.LFE2:
 292              		.size	uavcan_equipment_esc_RPMCommand_decode_internal, .-uavcan_equipment_esc_RPMCommand_decode_in
 293              		.section	.text.uavcan_equipment_esc_RPMCommand_decode,"ax",%progbits
 294              		.align	1
 295              		.p2align 4,,15
 296              		.global	uavcan_equipment_esc_RPMCommand_decode
 297              		.syntax unified
 298              		.thumb
 299              		.thumb_func
 300              		.fpu fpv4-sp-d16
 301              		.type	uavcan_equipment_esc_RPMCommand_decode, %function
 302              	uavcan_equipment_esc_RPMCommand_decode:
 303              	.LFB3:
 304              		.loc 1 174 0
 305              		.cfi_startproc
 306              		@ args = 0, pretend = 0, frame = 0
 307              		@ frame_needed = 0, uses_anonymous_args = 0
 308              	.LVL41:
 309 0000 2DE9F04F 		push	{r4, r5, r6, r7, r8, r9, r10, fp, lr}
 310              		.cfi_def_cfa_offset 36
 311              		.cfi_offset 4, -36
 312              		.cfi_offset 5, -32
 313              		.cfi_offset 6, -28
 314              		.cfi_offset 7, -24
 315              		.cfi_offset 8, -20
 316              		.cfi_offset 9, -16
 317              		.cfi_offset 10, -12
 318              		.cfi_offset 11, -8
 319              		.cfi_offset 14, -4
 320 0004 1646     		mov	r6, r2
 321              		.loc 1 182 0
 322 0006 0022     		movs	r2, #0
 323              	.LVL42:
 324              		.loc 1 174 0
 325 0008 83B0     		sub	sp, sp, #12
 326              		.cfi_def_cfa_offset 48
 327              		.loc 1 174 0
 328 000a 8246     		mov	r10, r0
 329 000c 8946     		mov	r9, r1
 330 000e 9846     		mov	r8, r3
 331 0010 771E     		subs	r7, r6, #1
 332 0012 F51D     		adds	r5, r6, #7
 333              	.LBB2:
 334              		.loc 1 189 0
 335 0014 1446     		mov	r4, r2
 336              	.LBE2:
 337              		.loc 1 174 0
 338 0016 4FF0020B 		mov	fp, #2
 339              	.LVL43:
 340              	.L46:
 341 001a 3B46     		mov	r3, r7
 342              	.LVL44:
ARM GAS  /tmp/ccq2O3dX.s 			page 7


 343              	.L44:
 344              	.LBB3:
 345              		.loc 1 189 0 discriminator 3
 346 001c 03F8014F 		strb	r4, [r3, #1]!
 347              		.loc 1 187 0 discriminator 3
 348 0020 AB42     		cmp	r3, r5
 349 0022 FBD1     		bne	.L44
 350              	.LBE3:
 351              		.loc 1 192 0
 352 0024 CDE90042 		strd	r4, r2, [sp]
 353 0028 4346     		mov	r3, r8
 354 002a 3246     		mov	r2, r6
 355              	.LVL45:
 356 002c 4946     		mov	r1, r9
 357 002e 5046     		mov	r0, r10
 358 0030 FFF7FEFF 		bl	uavcan_equipment_esc_RPMCommand_decode_internal
 359              	.LVL46:
 360              		.loc 1 194 0
 361 0034 0028     		cmp	r0, #0
 362 0036 02DB     		blt	.L50
 363              	.L43:
 364              		.loc 1 207 0
 365 0038 03B0     		add	sp, sp, #12
 366              		.cfi_remember_state
 367              		.cfi_def_cfa_offset 36
 368              		@ sp needed
 369 003a BDE8F08F 		pop	{r4, r5, r6, r7, r8, r9, r10, fp, pc}
 370              	.LVL47:
 371              	.L50:
 372              		.cfi_restore_state
 373              		.loc 1 203 0
 374 003e 0122     		movs	r2, #1
 375              		.loc 1 199 0
 376 0040 9345     		cmp	fp, r2
 377 0042 F9D0     		beq	.L43
 378 0044 9346     		mov	fp, r2
 379 0046 E8E7     		b	.L46
 380              		.cfi_endproc
 381              	.LFE3:
 382              		.size	uavcan_equipment_esc_RPMCommand_decode, .-uavcan_equipment_esc_RPMCommand_decode
 383              		.text
 384              	.Letext0:
 385              		.file 2 "/usr/arm-none-eabi/include/machine/_default_types.h"
 386              		.file 3 "/usr/arm-none-eabi/include/sys/_stdint.h"
 387              		.file 4 "libcanard/canard.h"
 388              		.file 5 "libcanard/dsdl/uavcan/equipment/esc/RPMCommand.h"
 389              		.section	.debug_info,"",%progbits
 390              	.Ldebug_info0:
 391 0000 12050000 		.4byte	0x512
 392 0004 0400     		.2byte	0x4
 393 0006 00000000 		.4byte	.Ldebug_abbrev0
 394 000a 04       		.byte	0x4
 395 000b 01       		.uleb128 0x1
 396 000c 44030000 		.4byte	.LASF49
 397 0010 0C       		.byte	0xc
 398 0011 77000000 		.4byte	.LASF50
 399 0015 C4020000 		.4byte	.LASF51
ARM GAS  /tmp/ccq2O3dX.s 			page 8


 400 0019 18000000 		.4byte	.Ldebug_ranges0+0x18
 401 001d 00000000 		.4byte	0
 402 0021 00000000 		.4byte	.Ldebug_line0
 403 0025 02       		.uleb128 0x2
 404 0026 01       		.byte	0x1
 405 0027 06       		.byte	0x6
 406 0028 7A010000 		.4byte	.LASF0
 407 002c 03       		.uleb128 0x3
 408 002d E9000000 		.4byte	.LASF3
 409 0031 02       		.byte	0x2
 410 0032 2B       		.byte	0x2b
 411 0033 37000000 		.4byte	0x37
 412 0037 02       		.uleb128 0x2
 413 0038 01       		.byte	0x1
 414 0039 08       		.byte	0x8
 415 003a 36010000 		.4byte	.LASF1
 416 003e 02       		.uleb128 0x2
 417 003f 02       		.byte	0x2
 418 0040 05       		.byte	0x5
 419 0041 4F000000 		.4byte	.LASF2
 420 0045 03       		.uleb128 0x3
 421 0046 64000000 		.4byte	.LASF4
 422 004a 02       		.byte	0x2
 423 004b 39       		.byte	0x39
 424 004c 50000000 		.4byte	0x50
 425 0050 02       		.uleb128 0x2
 426 0051 02       		.byte	0x2
 427 0052 07       		.byte	0x7
 428 0053 0D020000 		.4byte	.LASF5
 429 0057 03       		.uleb128 0x3
 430 0058 DB020000 		.4byte	.LASF6
 431 005c 02       		.byte	0x2
 432 005d 4D       		.byte	0x4d
 433 005e 62000000 		.4byte	0x62
 434 0062 02       		.uleb128 0x2
 435 0063 04       		.byte	0x4
 436 0064 05       		.byte	0x5
 437 0065 C6000000 		.4byte	.LASF7
 438 0069 03       		.uleb128 0x3
 439 006a 59000000 		.4byte	.LASF8
 440 006e 02       		.byte	0x2
 441 006f 4F       		.byte	0x4f
 442 0070 74000000 		.4byte	0x74
 443 0074 02       		.uleb128 0x2
 444 0075 04       		.byte	0x4
 445 0076 07       		.byte	0x7
 446 0077 A8020000 		.4byte	.LASF9
 447 007b 02       		.uleb128 0x2
 448 007c 08       		.byte	0x8
 449 007d 05       		.byte	0x5
 450 007e AC000000 		.4byte	.LASF10
 451 0082 03       		.uleb128 0x3
 452 0083 7E020000 		.4byte	.LASF11
 453 0087 02       		.byte	0x2
 454 0088 69       		.byte	0x69
 455 0089 8D000000 		.4byte	0x8d
 456 008d 02       		.uleb128 0x2
ARM GAS  /tmp/ccq2O3dX.s 			page 9


 457 008e 08       		.byte	0x8
 458 008f 07       		.byte	0x7
 459 0090 86010000 		.4byte	.LASF12
 460 0094 04       		.uleb128 0x4
 461 0095 04       		.byte	0x4
 462 0096 05       		.byte	0x5
 463 0097 696E7400 		.ascii	"int\000"
 464 009b 02       		.uleb128 0x2
 465 009c 04       		.byte	0x4
 466 009d 07       		.byte	0x7
 467 009e A6010000 		.4byte	.LASF13
 468 00a2 03       		.uleb128 0x3
 469 00a3 6F000000 		.4byte	.LASF14
 470 00a7 03       		.byte	0x3
 471 00a8 18       		.byte	0x18
 472 00a9 2C000000 		.4byte	0x2c
 473 00ad 05       		.uleb128 0x5
 474 00ae A2000000 		.4byte	0xa2
 475 00b2 03       		.uleb128 0x3
 476 00b3 B3010000 		.4byte	.LASF15
 477 00b7 03       		.byte	0x3
 478 00b8 24       		.byte	0x24
 479 00b9 45000000 		.4byte	0x45
 480 00bd 03       		.uleb128 0x3
 481 00be 5B020000 		.4byte	.LASF16
 482 00c2 03       		.byte	0x3
 483 00c3 2C       		.byte	0x2c
 484 00c4 57000000 		.4byte	0x57
 485 00c8 05       		.uleb128 0x5
 486 00c9 BD000000 		.4byte	0xbd
 487 00cd 03       		.uleb128 0x3
 488 00ce 9D010000 		.4byte	.LASF17
 489 00d2 03       		.byte	0x3
 490 00d3 30       		.byte	0x30
 491 00d4 69000000 		.4byte	0x69
 492 00d8 03       		.uleb128 0x3
 493 00d9 1B000000 		.4byte	.LASF18
 494 00dd 03       		.byte	0x3
 495 00de 3C       		.byte	0x3c
 496 00df 82000000 		.4byte	0x82
 497 00e3 03       		.uleb128 0x3
 498 00e4 97020000 		.4byte	.LASF19
 499 00e8 04       		.byte	0x4
 500 00e9 99       		.byte	0x99
 501 00ea F3000000 		.4byte	0xf3
 502 00ee 05       		.uleb128 0x5
 503 00ef E3000000 		.4byte	0xe3
 504 00f3 06       		.uleb128 0x6
 505 00f4 97020000 		.4byte	.LASF19
 506 00f8 20       		.byte	0x20
 507 00f9 04       		.byte	0x4
 508 00fa 0F01     		.2byte	0x10f
 509 00fc 83010000 		.4byte	0x183
 510 0100 07       		.uleb128 0x7
 511 0101 07010000 		.4byte	.LASF20
 512 0105 04       		.byte	0x4
 513 0106 1401     		.2byte	0x114
ARM GAS  /tmp/ccq2O3dX.s 			page 10


 514 0108 D8000000 		.4byte	0xd8
 515 010c 00       		.byte	0
 516 010d 07       		.uleb128 0x7
 517 010e 71020000 		.4byte	.LASF21
 518 0112 04       		.byte	0x4
 519 0113 2801     		.2byte	0x128
 520 0115 DE010000 		.4byte	0x1de
 521 0119 08       		.byte	0x8
 522 011a 07       		.uleb128 0x7
 523 011b 44010000 		.4byte	.LASF22
 524 011f 04       		.byte	0x4
 525 0120 2D01     		.2byte	0x12d
 526 0122 D6010000 		.4byte	0x1d6
 527 0126 0C       		.byte	0xc
 528 0127 07       		.uleb128 0x7
 529 0128 FA000000 		.4byte	.LASF23
 530 012c 04       		.byte	0x4
 531 012d 2F01     		.2byte	0x12f
 532 012f DE010000 		.4byte	0x1de
 533 0133 10       		.byte	0x10
 534 0134 07       		.uleb128 0x7
 535 0135 0C030000 		.4byte	.LASF24
 536 0139 04       		.byte	0x4
 537 013a 3101     		.2byte	0x131
 538 013c B2000000 		.4byte	0xb2
 539 0140 14       		.byte	0x14
 540 0141 07       		.uleb128 0x7
 541 0142 00000000 		.4byte	.LASF25
 542 0146 04       		.byte	0x4
 543 0147 3601     		.2byte	0x136
 544 0149 B2000000 		.4byte	0xb2
 545 014d 16       		.byte	0x16
 546 014e 07       		.uleb128 0x7
 547 014f 63020000 		.4byte	.LASF26
 548 0153 04       		.byte	0x4
 549 0154 3701     		.2byte	0x137
 550 0156 A2000000 		.4byte	0xa2
 551 015a 18       		.byte	0x18
 552 015b 07       		.uleb128 0x7
 553 015c 18030000 		.4byte	.LASF27
 554 0160 04       		.byte	0x4
 555 0161 3801     		.2byte	0x138
 556 0163 A2000000 		.4byte	0xa2
 557 0167 19       		.byte	0x19
 558 0168 07       		.uleb128 0x7
 559 0169 12000000 		.4byte	.LASF28
 560 016d 04       		.byte	0x4
 561 016e 3901     		.2byte	0x139
 562 0170 A2000000 		.4byte	0xa2
 563 0174 1A       		.byte	0x1a
 564 0175 07       		.uleb128 0x7
 565 0176 FE010000 		.4byte	.LASF29
 566 017a 04       		.byte	0x4
 567 017b 3A01     		.2byte	0x13a
 568 017d A2000000 		.4byte	0xa2
 569 0181 1B       		.byte	0x1b
 570 0182 00       		.byte	0
ARM GAS  /tmp/ccq2O3dX.s 			page 11


 571 0183 02       		.uleb128 0x2
 572 0184 01       		.byte	0x1
 573 0185 02       		.byte	0x2
 574 0186 55020000 		.4byte	.LASF30
 575 018a 02       		.uleb128 0x2
 576 018b 01       		.byte	0x1
 577 018c 08       		.byte	0x8
 578 018d 50020000 		.4byte	.LASF31
 579 0191 08       		.uleb128 0x8
 580 0192 BC010000 		.4byte	.LASF32
 581 0196 04       		.byte	0x4
 582 0197 04       		.byte	0x4
 583 0198 D7       		.byte	0xd7
 584 0199 B6010000 		.4byte	0x1b6
 585 019d 09       		.uleb128 0x9
 586 019e 3F030000 		.4byte	.LASF33
 587 01a2 04       		.byte	0x4
 588 01a3 D9       		.byte	0xd9
 589 01a4 B6010000 		.4byte	0x1b6
 590 01a8 00       		.byte	0
 591 01a9 09       		.uleb128 0x9
 592 01aa 89020000 		.4byte	.LASF34
 593 01ae 04       		.byte	0x4
 594 01af DA       		.byte	0xda
 595 01b0 BC010000 		.4byte	0x1bc
 596 01b4 04       		.byte	0x4
 597 01b5 00       		.byte	0
 598 01b6 0A       		.uleb128 0xa
 599 01b7 04       		.byte	0x4
 600 01b8 91010000 		.4byte	0x191
 601 01bc 0B       		.uleb128 0xb
 602 01bd A2000000 		.4byte	0xa2
 603 01c1 CB010000 		.4byte	0x1cb
 604 01c5 0C       		.uleb128 0xc
 605 01c6 9B000000 		.4byte	0x9b
 606 01ca 00       		.byte	0
 607 01cb 03       		.uleb128 0x3
 608 01cc BC010000 		.4byte	.LASF32
 609 01d0 04       		.byte	0x4
 610 01d1 DB       		.byte	0xdb
 611 01d2 91010000 		.4byte	0x191
 612 01d6 0A       		.uleb128 0xa
 613 01d7 04       		.byte	0x4
 614 01d8 CB010000 		.4byte	0x1cb
 615 01dc 0D       		.uleb128 0xd
 616 01dd 04       		.byte	0x4
 617 01de 0A       		.uleb128 0xa
 618 01df 04       		.byte	0x4
 619 01e0 AD000000 		.4byte	0xad
 620 01e4 0E       		.uleb128 0xe
 621 01e5 08       		.byte	0x8
 622 01e6 05       		.byte	0x5
 623 01e7 31       		.byte	0x31
 624 01e8 05020000 		.4byte	0x205
 625 01ec 0F       		.uleb128 0xf
 626 01ed 6C656E00 		.ascii	"len\000"
 627 01f1 05       		.byte	0x5
ARM GAS  /tmp/ccq2O3dX.s 			page 12


 628 01f2 33       		.byte	0x33
 629 01f3 A2000000 		.4byte	0xa2
 630 01f7 00       		.byte	0
 631 01f8 09       		.uleb128 0x9
 632 01f9 89020000 		.4byte	.LASF34
 633 01fd 05       		.byte	0x5
 634 01fe 34       		.byte	0x34
 635 01ff 05020000 		.4byte	0x205
 636 0203 04       		.byte	0x4
 637 0204 00       		.byte	0
 638 0205 0A       		.uleb128 0xa
 639 0206 04       		.byte	0x4
 640 0207 BD000000 		.4byte	0xbd
 641 020b 0E       		.uleb128 0xe
 642 020c 08       		.byte	0x8
 643 020d 05       		.byte	0x5
 644 020e 2E       		.byte	0x2e
 645 020f 20020000 		.4byte	0x220
 646 0213 0F       		.uleb128 0xf
 647 0214 72706D00 		.ascii	"rpm\000"
 648 0218 05       		.byte	0x5
 649 0219 35       		.byte	0x35
 650 021a E4010000 		.4byte	0x1e4
 651 021e 00       		.byte	0
 652 021f 00       		.byte	0
 653 0220 03       		.uleb128 0x3
 654 0221 16010000 		.4byte	.LASF35
 655 0225 05       		.byte	0x5
 656 0226 37       		.byte	0x37
 657 0227 0B020000 		.4byte	0x20b
 658 022b 10       		.uleb128 0x10
 659 022c E5020000 		.4byte	.LASF40
 660 0230 01       		.byte	0x1
 661 0231 AA       		.byte	0xaa
 662 0232 BD000000 		.4byte	0xbd
 663 0236 00000000 		.4byte	.LFB3
 664 023a 48000000 		.4byte	.LFE3-.LFB3
 665 023e 01       		.uleb128 0x1
 666 023f 9C       		.byte	0x9c
 667 0240 EB020000 		.4byte	0x2eb
 668 0244 11       		.uleb128 0x11
 669 0245 8E020000 		.4byte	.LASF36
 670 0249 01       		.byte	0x1
 671 024a AA       		.byte	0xaa
 672 024b EB020000 		.4byte	0x2eb
 673 024f 00000000 		.4byte	.LLST16
 674 0253 11       		.uleb128 0x11
 675 0254 0C030000 		.4byte	.LASF24
 676 0258 01       		.byte	0x1
 677 0259 AB       		.byte	0xab
 678 025a B2000000 		.4byte	0xb2
 679 025e 1E000000 		.4byte	.LLST17
 680 0262 11       		.uleb128 0x11
 681 0263 0D000000 		.4byte	.LASF37
 682 0267 01       		.byte	0x1
 683 0268 AC       		.byte	0xac
 684 0269 F1020000 		.4byte	0x2f1
ARM GAS  /tmp/ccq2O3dX.s 			page 13


 685 026d 3F000000 		.4byte	.LLST18
 686 0271 11       		.uleb128 0x11
 687 0272 BA000000 		.4byte	.LASF38
 688 0276 01       		.byte	0x1
 689 0277 AD       		.byte	0xad
 690 0278 F7020000 		.4byte	0x2f7
 691 027c 5D000000 		.4byte	.LLST19
 692 0280 12       		.uleb128 0x12
 693 0281 CF000000 		.4byte	.LASF39
 694 0285 01       		.byte	0x1
 695 0286 AF       		.byte	0xaf
 696 0287 C8000000 		.4byte	0xc8
 697 028b 00       		.byte	0
 698 028c 13       		.uleb128 0x13
 699 028d 72657400 		.ascii	"ret\000"
 700 0291 01       		.byte	0x1
 701 0292 B0       		.byte	0xb0
 702 0293 BD000000 		.4byte	0xbd
 703 0297 7B000000 		.4byte	.LLST20
 704 029b 13       		.uleb128 0x13
 705 029c 74616F00 		.ascii	"tao\000"
 706 02a0 01       		.byte	0x1
 707 02a1 B6       		.byte	0xb6
 708 02a2 A2000000 		.4byte	0xa2
 709 02a6 9A000000 		.4byte	.LLST21
 710 02aa 14       		.uleb128 0x14
 711 02ab 00000000 		.4byte	.Ldebug_ranges0+0
 712 02af C1020000 		.4byte	0x2c1
 713 02b3 13       		.uleb128 0x13
 714 02b4 6300     		.ascii	"c\000"
 715 02b6 01       		.byte	0x1
 716 02b7 BB       		.byte	0xbb
 717 02b8 CD000000 		.4byte	0xcd
 718 02bc B9000000 		.4byte	.LLST22
 719 02c0 00       		.byte	0
 720 02c1 15       		.uleb128 0x15
 721 02c2 34000000 		.4byte	.LVL46
 722 02c6 03030000 		.4byte	0x303
 723 02ca 16       		.uleb128 0x16
 724 02cb 01       		.uleb128 0x1
 725 02cc 50       		.byte	0x50
 726 02cd 02       		.uleb128 0x2
 727 02ce 7A       		.byte	0x7a
 728 02cf 00       		.sleb128 0
 729 02d0 16       		.uleb128 0x16
 730 02d1 01       		.uleb128 0x1
 731 02d2 51       		.byte	0x51
 732 02d3 02       		.uleb128 0x2
 733 02d4 79       		.byte	0x79
 734 02d5 00       		.sleb128 0
 735 02d6 16       		.uleb128 0x16
 736 02d7 01       		.uleb128 0x1
 737 02d8 52       		.byte	0x52
 738 02d9 02       		.uleb128 0x2
 739 02da 76       		.byte	0x76
 740 02db 00       		.sleb128 0
 741 02dc 16       		.uleb128 0x16
ARM GAS  /tmp/ccq2O3dX.s 			page 14


 742 02dd 01       		.uleb128 0x1
 743 02de 53       		.byte	0x53
 744 02df 02       		.uleb128 0x2
 745 02e0 78       		.byte	0x78
 746 02e1 00       		.sleb128 0
 747 02e2 16       		.uleb128 0x16
 748 02e3 02       		.uleb128 0x2
 749 02e4 7D       		.byte	0x7d
 750 02e5 00       		.sleb128 0
 751 02e6 02       		.uleb128 0x2
 752 02e7 74       		.byte	0x74
 753 02e8 00       		.sleb128 0
 754 02e9 00       		.byte	0
 755 02ea 00       		.byte	0
 756 02eb 0A       		.uleb128 0xa
 757 02ec 04       		.byte	0x4
 758 02ed EE000000 		.4byte	0xee
 759 02f1 0A       		.uleb128 0xa
 760 02f2 04       		.byte	0x4
 761 02f3 20020000 		.4byte	0x220
 762 02f7 0A       		.uleb128 0xa
 763 02f8 04       		.byte	0x4
 764 02f9 FD020000 		.4byte	0x2fd
 765 02fd 0A       		.uleb128 0xa
 766 02fe 04       		.byte	0x4
 767 02ff A2000000 		.4byte	0xa2
 768 0303 10       		.uleb128 0x10
 769 0304 20020000 		.4byte	.LASF41
 770 0308 01       		.byte	0x1
 771 0309 5B       		.byte	0x5b
 772 030a BD000000 		.4byte	0xbd
 773 030e 00000000 		.4byte	.LFB2
 774 0312 A4000000 		.4byte	.LFE2-.LFB2
 775 0316 01       		.uleb128 0x1
 776 0317 9C       		.byte	0x9c
 777 0318 F1030000 		.4byte	0x3f1
 778 031c 11       		.uleb128 0x11
 779 031d 8E020000 		.4byte	.LASF36
 780 0321 01       		.byte	0x1
 781 0322 5C       		.byte	0x5c
 782 0323 EB020000 		.4byte	0x2eb
 783 0327 CD000000 		.4byte	.LLST8
 784 032b 11       		.uleb128 0x11
 785 032c 0C030000 		.4byte	.LASF24
 786 0330 01       		.byte	0x1
 787 0331 5D       		.byte	0x5d
 788 0332 B2000000 		.4byte	0xb2
 789 0336 17010000 		.4byte	.LLST9
 790 033a 11       		.uleb128 0x11
 791 033b 0D000000 		.4byte	.LASF37
 792 033f 01       		.byte	0x1
 793 0340 5E       		.byte	0x5e
 794 0341 F1020000 		.4byte	0x2f1
 795 0345 51010000 		.4byte	.LLST10
 796 0349 11       		.uleb128 0x11
 797 034a BA000000 		.4byte	.LASF38
 798 034e 01       		.byte	0x1
ARM GAS  /tmp/ccq2O3dX.s 			page 15


 799 034f 5F       		.byte	0x5f
 800 0350 F7020000 		.4byte	0x2f7
 801 0354 85010000 		.4byte	.LLST11
 802 0358 11       		.uleb128 0x11
 803 0359 CF000000 		.4byte	.LASF39
 804 035d 01       		.byte	0x1
 805 035e 60       		.byte	0x60
 806 035f BD000000 		.4byte	0xbd
 807 0363 A3010000 		.4byte	.LLST12
 808 0367 17       		.uleb128 0x17
 809 0368 74616F00 		.ascii	"tao\000"
 810 036c 01       		.byte	0x1
 811 036d 61       		.byte	0x61
 812 036e A2000000 		.4byte	0xa2
 813 0372 15020000 		.4byte	.LLST13
 814 0376 13       		.uleb128 0x13
 815 0377 72657400 		.ascii	"ret\000"
 816 037b 01       		.byte	0x1
 817 037c 63       		.byte	0x63
 818 037d BD000000 		.4byte	0xbd
 819 0381 35020000 		.4byte	.LLST14
 820 0385 13       		.uleb128 0x13
 821 0386 6300     		.ascii	"c\000"
 822 0388 01       		.byte	0x1
 823 0389 64       		.byte	0x64
 824 038a CD000000 		.4byte	0xcd
 825 038e 76020000 		.4byte	.LLST15
 826 0392 18       		.uleb128 0x18
 827 0393 24000000 		.4byte	.LASF52
 828 0397 01       		.byte	0x1
 829 0398 95       		.byte	0x95
 830 0399 2C000000 		.4byte	.L17
 831 039d 19       		.uleb128 0x19
 832 039e 26000000 		.4byte	.LVL23
 833 03a2 FD040000 		.4byte	0x4fd
 834 03a6 C9030000 		.4byte	0x3c9
 835 03aa 16       		.uleb128 0x16
 836 03ab 01       		.uleb128 0x1
 837 03ac 50       		.byte	0x50
 838 03ad 02       		.uleb128 0x2
 839 03ae 79       		.byte	0x79
 840 03af 00       		.sleb128 0
 841 03b0 16       		.uleb128 0x16
 842 03b1 01       		.uleb128 0x1
 843 03b2 51       		.byte	0x51
 844 03b3 03       		.uleb128 0x3
 845 03b4 91       		.byte	0x91
 846 03b5 00       		.sleb128 0
 847 03b6 06       		.byte	0x6
 848 03b7 16       		.uleb128 0x16
 849 03b8 01       		.uleb128 0x1
 850 03b9 52       		.byte	0x52
 851 03ba 01       		.uleb128 0x1
 852 03bb 35       		.byte	0x35
 853 03bc 16       		.uleb128 0x16
 854 03bd 01       		.uleb128 0x1
 855 03be 53       		.byte	0x53
ARM GAS  /tmp/ccq2O3dX.s 			page 16


 856 03bf 01       		.uleb128 0x1
 857 03c0 30       		.byte	0x30
 858 03c1 16       		.uleb128 0x16
 859 03c2 02       		.uleb128 0x2
 860 03c3 7D       		.byte	0x7d
 861 03c4 00       		.sleb128 0
 862 03c5 02       		.uleb128 0x2
 863 03c6 78       		.byte	0x78
 864 03c7 00       		.sleb128 0
 865 03c8 00       		.byte	0
 866 03c9 15       		.uleb128 0x15
 867 03ca 8C000000 		.4byte	.LVL37
 868 03ce FD040000 		.4byte	0x4fd
 869 03d2 16       		.uleb128 0x16
 870 03d3 01       		.uleb128 0x1
 871 03d4 50       		.byte	0x50
 872 03d5 02       		.uleb128 0x2
 873 03d6 79       		.byte	0x79
 874 03d7 00       		.sleb128 0
 875 03d8 16       		.uleb128 0x16
 876 03d9 01       		.uleb128 0x1
 877 03da 51       		.byte	0x51
 878 03db 02       		.uleb128 0x2
 879 03dc 74       		.byte	0x74
 880 03dd 6E       		.sleb128 -18
 881 03de 16       		.uleb128 0x16
 882 03df 01       		.uleb128 0x1
 883 03e0 52       		.byte	0x52
 884 03e1 01       		.uleb128 0x1
 885 03e2 42       		.byte	0x42
 886 03e3 16       		.uleb128 0x16
 887 03e4 01       		.uleb128 0x1
 888 03e5 53       		.byte	0x53
 889 03e6 01       		.uleb128 0x1
 890 03e7 31       		.byte	0x31
 891 03e8 16       		.uleb128 0x16
 892 03e9 02       		.uleb128 0x2
 893 03ea 7D       		.byte	0x7d
 894 03eb 00       		.sleb128 0
 895 03ec 02       		.uleb128 0x2
 896 03ed 77       		.byte	0x77
 897 03ee 00       		.sleb128 0
 898 03ef 00       		.byte	0
 899 03f0 00       		.byte	0
 900 03f1 10       		.uleb128 0x10
 901 03f2 53010000 		.4byte	.LASF42
 902 03f6 01       		.byte	0x1
 903 03f7 46       		.byte	0x46
 904 03f8 CD000000 		.4byte	0xcd
 905 03fc 00000000 		.4byte	.LFB1
 906 0400 10000000 		.4byte	.LFE1-.LFB1
 907 0404 01       		.uleb128 0x1
 908 0405 9C       		.byte	0x9c
 909 0406 5A040000 		.4byte	0x45a
 910 040a 11       		.uleb128 0x11
 911 040b F3000000 		.4byte	.LASF43
 912 040f 01       		.byte	0x1
ARM GAS  /tmp/ccq2O3dX.s 			page 17


 913 0410 46       		.byte	0x46
 914 0411 F1020000 		.4byte	0x2f1
 915 0415 C7020000 		.4byte	.LLST5
 916 0419 11       		.uleb128 0x11
 917 041a 37030000 		.4byte	.LASF44
 918 041e 01       		.byte	0x1
 919 041f 46       		.byte	0x46
 920 0420 DC010000 		.4byte	0x1dc
 921 0424 E8020000 		.4byte	.LLST6
 922 0428 1A       		.uleb128 0x1a
 923 0429 CF000000 		.4byte	.LASF39
 924 042d 01       		.byte	0x1
 925 042e 48       		.byte	0x48
 926 042f CD000000 		.4byte	0xcd
 927 0433 09030000 		.4byte	.LLST7
 928 0437 15       		.uleb128 0x15
 929 0438 0A000000 		.4byte	.LVL15
 930 043c 5A040000 		.4byte	0x45a
 931 0440 16       		.uleb128 0x16
 932 0441 01       		.uleb128 0x1
 933 0442 50       		.byte	0x50
 934 0443 03       		.uleb128 0x3
 935 0444 F3       		.byte	0xf3
 936 0445 01       		.uleb128 0x1
 937 0446 50       		.byte	0x50
 938 0447 16       		.uleb128 0x16
 939 0448 01       		.uleb128 0x1
 940 0449 51       		.byte	0x51
 941 044a 03       		.uleb128 0x3
 942 044b F3       		.byte	0xf3
 943 044c 01       		.uleb128 0x1
 944 044d 51       		.byte	0x51
 945 044e 16       		.uleb128 0x16
 946 044f 01       		.uleb128 0x1
 947 0450 52       		.byte	0x52
 948 0451 01       		.uleb128 0x1
 949 0452 30       		.byte	0x30
 950 0453 16       		.uleb128 0x16
 951 0454 01       		.uleb128 0x1
 952 0455 53       		.byte	0x53
 953 0456 01       		.uleb128 0x1
 954 0457 31       		.byte	0x31
 955 0458 00       		.byte	0
 956 0459 00       		.byte	0
 957 045a 10       		.uleb128 0x10
 958 045b CE010000 		.4byte	.LASF45
 959 045f 01       		.byte	0x1
 960 0460 24       		.byte	0x24
 961 0461 CD000000 		.4byte	0xcd
 962 0465 00000000 		.4byte	.LFB0
 963 0469 40000000 		.4byte	.LFE0-.LFB0
 964 046d 01       		.uleb128 0x1
 965 046e 9C       		.byte	0x9c
 966 046f FD040000 		.4byte	0x4fd
 967 0473 11       		.uleb128 0x11
 968 0474 F3000000 		.4byte	.LASF43
 969 0478 01       		.byte	0x1
ARM GAS  /tmp/ccq2O3dX.s 			page 18


 970 0479 24       		.byte	0x24
 971 047a F1020000 		.4byte	0x2f1
 972 047e 35030000 		.4byte	.LLST0
 973 0482 11       		.uleb128 0x11
 974 0483 37030000 		.4byte	.LASF44
 975 0487 01       		.byte	0x1
 976 0488 25       		.byte	0x25
 977 0489 DC010000 		.4byte	0x1dc
 978 048d 69030000 		.4byte	.LLST1
 979 0491 11       		.uleb128 0x11
 980 0492 CF000000 		.4byte	.LASF39
 981 0496 01       		.byte	0x1
 982 0497 26       		.byte	0x26
 983 0498 CD000000 		.4byte	0xcd
 984 049c 9D030000 		.4byte	.LLST2
 985 04a0 11       		.uleb128 0x11
 986 04a1 BA020000 		.4byte	.LASF46
 987 04a5 01       		.byte	0x1
 988 04a6 27       		.byte	0x27
 989 04a7 A2000000 		.4byte	0xa2
 990 04ab D1030000 		.4byte	.LLST3
 991 04af 13       		.uleb128 0x13
 992 04b0 6300     		.ascii	"c\000"
 993 04b2 01       		.byte	0x1
 994 04b3 29       		.byte	0x29
 995 04b4 CD000000 		.4byte	0xcd
 996 04b8 0B040000 		.4byte	.LLST4
 997 04bc 19       		.uleb128 0x19
 998 04bd 20000000 		.4byte	.LVL3
 999 04c1 09050000 		.4byte	0x509
 1000 04c5 DB040000 		.4byte	0x4db
 1001 04c9 16       		.uleb128 0x16
 1002 04ca 01       		.uleb128 0x1
 1003 04cb 50       		.byte	0x50
 1004 04cc 02       		.uleb128 0x2
 1005 04cd 77       		.byte	0x77
 1006 04ce 00       		.sleb128 0
 1007 04cf 16       		.uleb128 0x16
 1008 04d0 01       		.uleb128 0x1
 1009 04d1 51       		.byte	0x51
 1010 04d2 02       		.uleb128 0x2
 1011 04d3 75       		.byte	0x75
 1012 04d4 00       		.sleb128 0
 1013 04d5 16       		.uleb128 0x16
 1014 04d6 01       		.uleb128 0x1
 1015 04d7 52       		.byte	0x52
 1016 04d8 01       		.uleb128 0x1
 1017 04d9 42       		.byte	0x42
 1018 04da 00       		.byte	0
 1019 04db 15       		.uleb128 0x15
 1020 04dc 3C000000 		.4byte	.LVL12
 1021 04e0 09050000 		.4byte	0x509
 1022 04e4 16       		.uleb128 0x16
 1023 04e5 01       		.uleb128 0x1
 1024 04e6 50       		.byte	0x50
 1025 04e7 02       		.uleb128 0x2
 1026 04e8 77       		.byte	0x77
ARM GAS  /tmp/ccq2O3dX.s 			page 19


 1027 04e9 00       		.sleb128 0
 1028 04ea 16       		.uleb128 0x16
 1029 04eb 01       		.uleb128 0x1
 1030 04ec 51       		.byte	0x51
 1031 04ed 02       		.uleb128 0x2
 1032 04ee 75       		.byte	0x75
 1033 04ef 00       		.sleb128 0
 1034 04f0 16       		.uleb128 0x16
 1035 04f1 01       		.uleb128 0x1
 1036 04f2 52       		.byte	0x52
 1037 04f3 01       		.uleb128 0x1
 1038 04f4 35       		.byte	0x35
 1039 04f5 16       		.uleb128 0x16
 1040 04f6 01       		.uleb128 0x1
 1041 04f7 53       		.byte	0x53
 1042 04f8 02       		.uleb128 0x2
 1043 04f9 76       		.byte	0x76
 1044 04fa 00       		.sleb128 0
 1045 04fb 00       		.byte	0
 1046 04fc 00       		.byte	0
 1047 04fd 1B       		.uleb128 0x1b
 1048 04fe 24030000 		.4byte	.LASF47
 1049 0502 24030000 		.4byte	.LASF47
 1050 0506 04       		.byte	0x4
 1051 0507 CD01     		.2byte	0x1cd
 1052 0509 1B       		.uleb128 0x1b
 1053 050a D6000000 		.4byte	.LASF48
 1054 050e D6000000 		.4byte	.LASF48
 1055 0512 04       		.byte	0x4
 1056 0513 E701     		.2byte	0x1e7
 1057 0515 00       		.byte	0
 1058              		.section	.debug_abbrev,"",%progbits
 1059              	.Ldebug_abbrev0:
 1060 0000 01       		.uleb128 0x1
 1061 0001 11       		.uleb128 0x11
 1062 0002 01       		.byte	0x1
 1063 0003 25       		.uleb128 0x25
 1064 0004 0E       		.uleb128 0xe
 1065 0005 13       		.uleb128 0x13
 1066 0006 0B       		.uleb128 0xb
 1067 0007 03       		.uleb128 0x3
 1068 0008 0E       		.uleb128 0xe
 1069 0009 1B       		.uleb128 0x1b
 1070 000a 0E       		.uleb128 0xe
 1071 000b 55       		.uleb128 0x55
 1072 000c 17       		.uleb128 0x17
 1073 000d 11       		.uleb128 0x11
 1074 000e 01       		.uleb128 0x1
 1075 000f 10       		.uleb128 0x10
 1076 0010 17       		.uleb128 0x17
 1077 0011 00       		.byte	0
 1078 0012 00       		.byte	0
 1079 0013 02       		.uleb128 0x2
 1080 0014 24       		.uleb128 0x24
 1081 0015 00       		.byte	0
 1082 0016 0B       		.uleb128 0xb
 1083 0017 0B       		.uleb128 0xb
ARM GAS  /tmp/ccq2O3dX.s 			page 20


 1084 0018 3E       		.uleb128 0x3e
 1085 0019 0B       		.uleb128 0xb
 1086 001a 03       		.uleb128 0x3
 1087 001b 0E       		.uleb128 0xe
 1088 001c 00       		.byte	0
 1089 001d 00       		.byte	0
 1090 001e 03       		.uleb128 0x3
 1091 001f 16       		.uleb128 0x16
 1092 0020 00       		.byte	0
 1093 0021 03       		.uleb128 0x3
 1094 0022 0E       		.uleb128 0xe
 1095 0023 3A       		.uleb128 0x3a
 1096 0024 0B       		.uleb128 0xb
 1097 0025 3B       		.uleb128 0x3b
 1098 0026 0B       		.uleb128 0xb
 1099 0027 49       		.uleb128 0x49
 1100 0028 13       		.uleb128 0x13
 1101 0029 00       		.byte	0
 1102 002a 00       		.byte	0
 1103 002b 04       		.uleb128 0x4
 1104 002c 24       		.uleb128 0x24
 1105 002d 00       		.byte	0
 1106 002e 0B       		.uleb128 0xb
 1107 002f 0B       		.uleb128 0xb
 1108 0030 3E       		.uleb128 0x3e
 1109 0031 0B       		.uleb128 0xb
 1110 0032 03       		.uleb128 0x3
 1111 0033 08       		.uleb128 0x8
 1112 0034 00       		.byte	0
 1113 0035 00       		.byte	0
 1114 0036 05       		.uleb128 0x5
 1115 0037 26       		.uleb128 0x26
 1116 0038 00       		.byte	0
 1117 0039 49       		.uleb128 0x49
 1118 003a 13       		.uleb128 0x13
 1119 003b 00       		.byte	0
 1120 003c 00       		.byte	0
 1121 003d 06       		.uleb128 0x6
 1122 003e 13       		.uleb128 0x13
 1123 003f 01       		.byte	0x1
 1124 0040 03       		.uleb128 0x3
 1125 0041 0E       		.uleb128 0xe
 1126 0042 0B       		.uleb128 0xb
 1127 0043 0B       		.uleb128 0xb
 1128 0044 3A       		.uleb128 0x3a
 1129 0045 0B       		.uleb128 0xb
 1130 0046 3B       		.uleb128 0x3b
 1131 0047 05       		.uleb128 0x5
 1132 0048 01       		.uleb128 0x1
 1133 0049 13       		.uleb128 0x13
 1134 004a 00       		.byte	0
 1135 004b 00       		.byte	0
 1136 004c 07       		.uleb128 0x7
 1137 004d 0D       		.uleb128 0xd
 1138 004e 00       		.byte	0
 1139 004f 03       		.uleb128 0x3
 1140 0050 0E       		.uleb128 0xe
ARM GAS  /tmp/ccq2O3dX.s 			page 21


 1141 0051 3A       		.uleb128 0x3a
 1142 0052 0B       		.uleb128 0xb
 1143 0053 3B       		.uleb128 0x3b
 1144 0054 05       		.uleb128 0x5
 1145 0055 49       		.uleb128 0x49
 1146 0056 13       		.uleb128 0x13
 1147 0057 38       		.uleb128 0x38
 1148 0058 0B       		.uleb128 0xb
 1149 0059 00       		.byte	0
 1150 005a 00       		.byte	0
 1151 005b 08       		.uleb128 0x8
 1152 005c 13       		.uleb128 0x13
 1153 005d 01       		.byte	0x1
 1154 005e 03       		.uleb128 0x3
 1155 005f 0E       		.uleb128 0xe
 1156 0060 0B       		.uleb128 0xb
 1157 0061 0B       		.uleb128 0xb
 1158 0062 3A       		.uleb128 0x3a
 1159 0063 0B       		.uleb128 0xb
 1160 0064 3B       		.uleb128 0x3b
 1161 0065 0B       		.uleb128 0xb
 1162 0066 01       		.uleb128 0x1
 1163 0067 13       		.uleb128 0x13
 1164 0068 00       		.byte	0
 1165 0069 00       		.byte	0
 1166 006a 09       		.uleb128 0x9
 1167 006b 0D       		.uleb128 0xd
 1168 006c 00       		.byte	0
 1169 006d 03       		.uleb128 0x3
 1170 006e 0E       		.uleb128 0xe
 1171 006f 3A       		.uleb128 0x3a
 1172 0070 0B       		.uleb128 0xb
 1173 0071 3B       		.uleb128 0x3b
 1174 0072 0B       		.uleb128 0xb
 1175 0073 49       		.uleb128 0x49
 1176 0074 13       		.uleb128 0x13
 1177 0075 38       		.uleb128 0x38
 1178 0076 0B       		.uleb128 0xb
 1179 0077 00       		.byte	0
 1180 0078 00       		.byte	0
 1181 0079 0A       		.uleb128 0xa
 1182 007a 0F       		.uleb128 0xf
 1183 007b 00       		.byte	0
 1184 007c 0B       		.uleb128 0xb
 1185 007d 0B       		.uleb128 0xb
 1186 007e 49       		.uleb128 0x49
 1187 007f 13       		.uleb128 0x13
 1188 0080 00       		.byte	0
 1189 0081 00       		.byte	0
 1190 0082 0B       		.uleb128 0xb
 1191 0083 01       		.uleb128 0x1
 1192 0084 01       		.byte	0x1
 1193 0085 49       		.uleb128 0x49
 1194 0086 13       		.uleb128 0x13
 1195 0087 01       		.uleb128 0x1
 1196 0088 13       		.uleb128 0x13
 1197 0089 00       		.byte	0
ARM GAS  /tmp/ccq2O3dX.s 			page 22


 1198 008a 00       		.byte	0
 1199 008b 0C       		.uleb128 0xc
 1200 008c 21       		.uleb128 0x21
 1201 008d 00       		.byte	0
 1202 008e 49       		.uleb128 0x49
 1203 008f 13       		.uleb128 0x13
 1204 0090 00       		.byte	0
 1205 0091 00       		.byte	0
 1206 0092 0D       		.uleb128 0xd
 1207 0093 0F       		.uleb128 0xf
 1208 0094 00       		.byte	0
 1209 0095 0B       		.uleb128 0xb
 1210 0096 0B       		.uleb128 0xb
 1211 0097 00       		.byte	0
 1212 0098 00       		.byte	0
 1213 0099 0E       		.uleb128 0xe
 1214 009a 13       		.uleb128 0x13
 1215 009b 01       		.byte	0x1
 1216 009c 0B       		.uleb128 0xb
 1217 009d 0B       		.uleb128 0xb
 1218 009e 3A       		.uleb128 0x3a
 1219 009f 0B       		.uleb128 0xb
 1220 00a0 3B       		.uleb128 0x3b
 1221 00a1 0B       		.uleb128 0xb
 1222 00a2 01       		.uleb128 0x1
 1223 00a3 13       		.uleb128 0x13
 1224 00a4 00       		.byte	0
 1225 00a5 00       		.byte	0
 1226 00a6 0F       		.uleb128 0xf
 1227 00a7 0D       		.uleb128 0xd
 1228 00a8 00       		.byte	0
 1229 00a9 03       		.uleb128 0x3
 1230 00aa 08       		.uleb128 0x8
 1231 00ab 3A       		.uleb128 0x3a
 1232 00ac 0B       		.uleb128 0xb
 1233 00ad 3B       		.uleb128 0x3b
 1234 00ae 0B       		.uleb128 0xb
 1235 00af 49       		.uleb128 0x49
 1236 00b0 13       		.uleb128 0x13
 1237 00b1 38       		.uleb128 0x38
 1238 00b2 0B       		.uleb128 0xb
 1239 00b3 00       		.byte	0
 1240 00b4 00       		.byte	0
 1241 00b5 10       		.uleb128 0x10
 1242 00b6 2E       		.uleb128 0x2e
 1243 00b7 01       		.byte	0x1
 1244 00b8 3F       		.uleb128 0x3f
 1245 00b9 19       		.uleb128 0x19
 1246 00ba 03       		.uleb128 0x3
 1247 00bb 0E       		.uleb128 0xe
 1248 00bc 3A       		.uleb128 0x3a
 1249 00bd 0B       		.uleb128 0xb
 1250 00be 3B       		.uleb128 0x3b
 1251 00bf 0B       		.uleb128 0xb
 1252 00c0 27       		.uleb128 0x27
 1253 00c1 19       		.uleb128 0x19
 1254 00c2 49       		.uleb128 0x49
ARM GAS  /tmp/ccq2O3dX.s 			page 23


 1255 00c3 13       		.uleb128 0x13
 1256 00c4 11       		.uleb128 0x11
 1257 00c5 01       		.uleb128 0x1
 1258 00c6 12       		.uleb128 0x12
 1259 00c7 06       		.uleb128 0x6
 1260 00c8 40       		.uleb128 0x40
 1261 00c9 18       		.uleb128 0x18
 1262 00ca 9742     		.uleb128 0x2117
 1263 00cc 19       		.uleb128 0x19
 1264 00cd 01       		.uleb128 0x1
 1265 00ce 13       		.uleb128 0x13
 1266 00cf 00       		.byte	0
 1267 00d0 00       		.byte	0
 1268 00d1 11       		.uleb128 0x11
 1269 00d2 05       		.uleb128 0x5
 1270 00d3 00       		.byte	0
 1271 00d4 03       		.uleb128 0x3
 1272 00d5 0E       		.uleb128 0xe
 1273 00d6 3A       		.uleb128 0x3a
 1274 00d7 0B       		.uleb128 0xb
 1275 00d8 3B       		.uleb128 0x3b
 1276 00d9 0B       		.uleb128 0xb
 1277 00da 49       		.uleb128 0x49
 1278 00db 13       		.uleb128 0x13
 1279 00dc 02       		.uleb128 0x2
 1280 00dd 17       		.uleb128 0x17
 1281 00de 00       		.byte	0
 1282 00df 00       		.byte	0
 1283 00e0 12       		.uleb128 0x12
 1284 00e1 34       		.uleb128 0x34
 1285 00e2 00       		.byte	0
 1286 00e3 03       		.uleb128 0x3
 1287 00e4 0E       		.uleb128 0xe
 1288 00e5 3A       		.uleb128 0x3a
 1289 00e6 0B       		.uleb128 0xb
 1290 00e7 3B       		.uleb128 0x3b
 1291 00e8 0B       		.uleb128 0xb
 1292 00e9 49       		.uleb128 0x49
 1293 00ea 13       		.uleb128 0x13
 1294 00eb 1C       		.uleb128 0x1c
 1295 00ec 0B       		.uleb128 0xb
 1296 00ed 00       		.byte	0
 1297 00ee 00       		.byte	0
 1298 00ef 13       		.uleb128 0x13
 1299 00f0 34       		.uleb128 0x34
 1300 00f1 00       		.byte	0
 1301 00f2 03       		.uleb128 0x3
 1302 00f3 08       		.uleb128 0x8
 1303 00f4 3A       		.uleb128 0x3a
 1304 00f5 0B       		.uleb128 0xb
 1305 00f6 3B       		.uleb128 0x3b
 1306 00f7 0B       		.uleb128 0xb
 1307 00f8 49       		.uleb128 0x49
 1308 00f9 13       		.uleb128 0x13
 1309 00fa 02       		.uleb128 0x2
 1310 00fb 17       		.uleb128 0x17
 1311 00fc 00       		.byte	0
ARM GAS  /tmp/ccq2O3dX.s 			page 24


 1312 00fd 00       		.byte	0
 1313 00fe 14       		.uleb128 0x14
 1314 00ff 0B       		.uleb128 0xb
 1315 0100 01       		.byte	0x1
 1316 0101 55       		.uleb128 0x55
 1317 0102 17       		.uleb128 0x17
 1318 0103 01       		.uleb128 0x1
 1319 0104 13       		.uleb128 0x13
 1320 0105 00       		.byte	0
 1321 0106 00       		.byte	0
 1322 0107 15       		.uleb128 0x15
 1323 0108 898201   		.uleb128 0x4109
 1324 010b 01       		.byte	0x1
 1325 010c 11       		.uleb128 0x11
 1326 010d 01       		.uleb128 0x1
 1327 010e 31       		.uleb128 0x31
 1328 010f 13       		.uleb128 0x13
 1329 0110 00       		.byte	0
 1330 0111 00       		.byte	0
 1331 0112 16       		.uleb128 0x16
 1332 0113 8A8201   		.uleb128 0x410a
 1333 0116 00       		.byte	0
 1334 0117 02       		.uleb128 0x2
 1335 0118 18       		.uleb128 0x18
 1336 0119 9142     		.uleb128 0x2111
 1337 011b 18       		.uleb128 0x18
 1338 011c 00       		.byte	0
 1339 011d 00       		.byte	0
 1340 011e 17       		.uleb128 0x17
 1341 011f 05       		.uleb128 0x5
 1342 0120 00       		.byte	0
 1343 0121 03       		.uleb128 0x3
 1344 0122 08       		.uleb128 0x8
 1345 0123 3A       		.uleb128 0x3a
 1346 0124 0B       		.uleb128 0xb
 1347 0125 3B       		.uleb128 0x3b
 1348 0126 0B       		.uleb128 0xb
 1349 0127 49       		.uleb128 0x49
 1350 0128 13       		.uleb128 0x13
 1351 0129 02       		.uleb128 0x2
 1352 012a 17       		.uleb128 0x17
 1353 012b 00       		.byte	0
 1354 012c 00       		.byte	0
 1355 012d 18       		.uleb128 0x18
 1356 012e 0A       		.uleb128 0xa
 1357 012f 00       		.byte	0
 1358 0130 03       		.uleb128 0x3
 1359 0131 0E       		.uleb128 0xe
 1360 0132 3A       		.uleb128 0x3a
 1361 0133 0B       		.uleb128 0xb
 1362 0134 3B       		.uleb128 0x3b
 1363 0135 0B       		.uleb128 0xb
 1364 0136 11       		.uleb128 0x11
 1365 0137 01       		.uleb128 0x1
 1366 0138 00       		.byte	0
 1367 0139 00       		.byte	0
 1368 013a 19       		.uleb128 0x19
ARM GAS  /tmp/ccq2O3dX.s 			page 25


 1369 013b 898201   		.uleb128 0x4109
 1370 013e 01       		.byte	0x1
 1371 013f 11       		.uleb128 0x11
 1372 0140 01       		.uleb128 0x1
 1373 0141 31       		.uleb128 0x31
 1374 0142 13       		.uleb128 0x13
 1375 0143 01       		.uleb128 0x1
 1376 0144 13       		.uleb128 0x13
 1377 0145 00       		.byte	0
 1378 0146 00       		.byte	0
 1379 0147 1A       		.uleb128 0x1a
 1380 0148 34       		.uleb128 0x34
 1381 0149 00       		.byte	0
 1382 014a 03       		.uleb128 0x3
 1383 014b 0E       		.uleb128 0xe
 1384 014c 3A       		.uleb128 0x3a
 1385 014d 0B       		.uleb128 0xb
 1386 014e 3B       		.uleb128 0x3b
 1387 014f 0B       		.uleb128 0xb
 1388 0150 49       		.uleb128 0x49
 1389 0151 13       		.uleb128 0x13
 1390 0152 02       		.uleb128 0x2
 1391 0153 17       		.uleb128 0x17
 1392 0154 00       		.byte	0
 1393 0155 00       		.byte	0
 1394 0156 1B       		.uleb128 0x1b
 1395 0157 2E       		.uleb128 0x2e
 1396 0158 00       		.byte	0
 1397 0159 3F       		.uleb128 0x3f
 1398 015a 19       		.uleb128 0x19
 1399 015b 3C       		.uleb128 0x3c
 1400 015c 19       		.uleb128 0x19
 1401 015d 6E       		.uleb128 0x6e
 1402 015e 0E       		.uleb128 0xe
 1403 015f 03       		.uleb128 0x3
 1404 0160 0E       		.uleb128 0xe
 1405 0161 3A       		.uleb128 0x3a
 1406 0162 0B       		.uleb128 0xb
 1407 0163 3B       		.uleb128 0x3b
 1408 0164 05       		.uleb128 0x5
 1409 0165 00       		.byte	0
 1410 0166 00       		.byte	0
 1411 0167 00       		.byte	0
 1412              		.section	.debug_loc,"",%progbits
 1413              	.Ldebug_loc0:
 1414              	.LLST16:
 1415 0000 00000000 		.4byte	.LVL41
 1416 0004 1A000000 		.4byte	.LVL43
 1417 0008 0100     		.2byte	0x1
 1418 000a 50       		.byte	0x50
 1419 000b 1A000000 		.4byte	.LVL43
 1420 000f 48000000 		.4byte	.LFE3
 1421 0013 0100     		.2byte	0x1
 1422 0015 5A       		.byte	0x5a
 1423 0016 00000000 		.4byte	0
 1424 001a 00000000 		.4byte	0
 1425              	.LLST17:
ARM GAS  /tmp/ccq2O3dX.s 			page 26


 1426 001e 00000000 		.4byte	.LVL41
 1427 0022 1A000000 		.4byte	.LVL43
 1428 0026 0100     		.2byte	0x1
 1429 0028 51       		.byte	0x51
 1430 0029 1A000000 		.4byte	.LVL43
 1431 002d 48000000 		.4byte	.LFE3
 1432 0031 0400     		.2byte	0x4
 1433 0033 F3       		.byte	0xf3
 1434 0034 01       		.uleb128 0x1
 1435 0035 51       		.byte	0x51
 1436 0036 9F       		.byte	0x9f
 1437 0037 00000000 		.4byte	0
 1438 003b 00000000 		.4byte	0
 1439              	.LLST18:
 1440 003f 00000000 		.4byte	.LVL41
 1441 0043 08000000 		.4byte	.LVL42
 1442 0047 0100     		.2byte	0x1
 1443 0049 52       		.byte	0x52
 1444 004a 08000000 		.4byte	.LVL42
 1445 004e 48000000 		.4byte	.LFE3
 1446 0052 0100     		.2byte	0x1
 1447 0054 56       		.byte	0x56
 1448 0055 00000000 		.4byte	0
 1449 0059 00000000 		.4byte	0
 1450              	.LLST19:
 1451 005d 00000000 		.4byte	.LVL41
 1452 0061 1A000000 		.4byte	.LVL43
 1453 0065 0100     		.2byte	0x1
 1454 0067 53       		.byte	0x53
 1455 0068 1A000000 		.4byte	.LVL43
 1456 006c 48000000 		.4byte	.LFE3
 1457 0070 0100     		.2byte	0x1
 1458 0072 58       		.byte	0x58
 1459 0073 00000000 		.4byte	0
 1460 0077 00000000 		.4byte	0
 1461              	.LLST20:
 1462 007b 00000000 		.4byte	.LVL41
 1463 007f 1A000000 		.4byte	.LVL43
 1464 0083 0200     		.2byte	0x2
 1465 0085 30       		.byte	0x30
 1466 0086 9F       		.byte	0x9f
 1467 0087 34000000 		.4byte	.LVL46
 1468 008b 48000000 		.4byte	.LFE3
 1469 008f 0100     		.2byte	0x1
 1470 0091 50       		.byte	0x50
 1471 0092 00000000 		.4byte	0
 1472 0096 00000000 		.4byte	0
 1473              	.LLST21:
 1474 009a 00000000 		.4byte	.LVL41
 1475 009e 1A000000 		.4byte	.LVL43
 1476 00a2 0200     		.2byte	0x2
 1477 00a4 30       		.byte	0x30
 1478 00a5 9F       		.byte	0x9f
 1479 00a6 1A000000 		.4byte	.LVL43
 1480 00aa 2C000000 		.4byte	.LVL45
 1481 00ae 0100     		.2byte	0x1
 1482 00b0 52       		.byte	0x52
ARM GAS  /tmp/ccq2O3dX.s 			page 27


 1483 00b1 00000000 		.4byte	0
 1484 00b5 00000000 		.4byte	0
 1485              	.LLST22:
 1486 00b9 1A000000 		.4byte	.LVL43
 1487 00bd 1C000000 		.4byte	.LVL44
 1488 00c1 0200     		.2byte	0x2
 1489 00c3 30       		.byte	0x30
 1490 00c4 9F       		.byte	0x9f
 1491 00c5 00000000 		.4byte	0
 1492 00c9 00000000 		.4byte	0
 1493              	.LLST8:
 1494 00cd 00000000 		.4byte	.LVL18
 1495 00d1 22000000 		.4byte	.LVL22
 1496 00d5 0100     		.2byte	0x1
 1497 00d7 50       		.byte	0x50
 1498 00d8 22000000 		.4byte	.LVL22
 1499 00dc 3C000000 		.4byte	.LVL27
 1500 00e0 0100     		.2byte	0x1
 1501 00e2 59       		.byte	0x59
 1502 00e3 3C000000 		.4byte	.LVL27
 1503 00e7 56000000 		.4byte	.LVL30
 1504 00eb 0100     		.2byte	0x1
 1505 00ed 50       		.byte	0x50
 1506 00ee 56000000 		.4byte	.LVL30
 1507 00f2 84000000 		.4byte	.LVL36
 1508 00f6 0100     		.2byte	0x1
 1509 00f8 59       		.byte	0x59
 1510 00f9 84000000 		.4byte	.LVL36
 1511 00fd 8B000000 		.4byte	.LVL37-1
 1512 0101 0100     		.2byte	0x1
 1513 0103 50       		.byte	0x50
 1514 0104 8B000000 		.4byte	.LVL37-1
 1515 0108 A4000000 		.4byte	.LFE2
 1516 010c 0100     		.2byte	0x1
 1517 010e 59       		.byte	0x59
 1518 010f 00000000 		.4byte	0
 1519 0113 00000000 		.4byte	0
 1520              	.LLST9:
 1521 0117 00000000 		.4byte	.LVL18
 1522 011b 20000000 		.4byte	.LVL21
 1523 011f 0100     		.2byte	0x1
 1524 0121 51       		.byte	0x51
 1525 0122 20000000 		.4byte	.LVL21
 1526 0126 3C000000 		.4byte	.LVL27
 1527 012a 0400     		.2byte	0x4
 1528 012c F3       		.byte	0xf3
 1529 012d 01       		.uleb128 0x1
 1530 012e 51       		.byte	0x51
 1531 012f 9F       		.byte	0x9f
 1532 0130 3C000000 		.4byte	.LVL27
 1533 0134 46000000 		.4byte	.LVL29
 1534 0138 0100     		.2byte	0x1
 1535 013a 51       		.byte	0x51
 1536 013b 46000000 		.4byte	.LVL29
 1537 013f A4000000 		.4byte	.LFE2
 1538 0143 0400     		.2byte	0x4
 1539 0145 F3       		.byte	0xf3
ARM GAS  /tmp/ccq2O3dX.s 			page 28


 1540 0146 01       		.uleb128 0x1
 1541 0147 51       		.byte	0x51
 1542 0148 9F       		.byte	0x9f
 1543 0149 00000000 		.4byte	0
 1544 014d 00000000 		.4byte	0
 1545              	.LLST10:
 1546 0151 00000000 		.4byte	.LVL18
 1547 0155 1E000000 		.4byte	.LVL20
 1548 0159 0100     		.2byte	0x1
 1549 015b 52       		.byte	0x52
 1550 015c 1E000000 		.4byte	.LVL20
 1551 0160 3C000000 		.4byte	.LVL27
 1552 0164 0100     		.2byte	0x1
 1553 0166 58       		.byte	0x58
 1554 0167 3C000000 		.4byte	.LVL27
 1555 016b 3E000000 		.4byte	.LVL28
 1556 016f 0100     		.2byte	0x1
 1557 0171 52       		.byte	0x52
 1558 0172 3E000000 		.4byte	.LVL28
 1559 0176 A4000000 		.4byte	.LFE2
 1560 017a 0100     		.2byte	0x1
 1561 017c 58       		.byte	0x58
 1562 017d 00000000 		.4byte	0
 1563 0181 00000000 		.4byte	0
 1564              	.LLST11:
 1565 0185 00000000 		.4byte	.LVL18
 1566 0189 10000000 		.4byte	.LVL19
 1567 018d 0100     		.2byte	0x1
 1568 018f 53       		.byte	0x53
 1569 0190 10000000 		.4byte	.LVL19
 1570 0194 A4000000 		.4byte	.LFE2
 1571 0198 0100     		.2byte	0x1
 1572 019a 56       		.byte	0x56
 1573 019b 00000000 		.4byte	0
 1574 019f 00000000 		.4byte	0
 1575              	.LLST12:
 1576 01a3 00000000 		.4byte	.LVL18
 1577 01a7 2C000000 		.4byte	.LVL25
 1578 01ab 0200     		.2byte	0x2
 1579 01ad 91       		.byte	0x91
 1580 01ae 00       		.sleb128 0
 1581 01af 3C000000 		.4byte	.LVL27
 1582 01b3 56000000 		.4byte	.LVL30
 1583 01b7 0200     		.2byte	0x2
 1584 01b9 91       		.byte	0x91
 1585 01ba 00       		.sleb128 0
 1586 01bb 56000000 		.4byte	.LVL30
 1587 01bf 66000000 		.4byte	.LVL31
 1588 01c3 0100     		.2byte	0x1
 1589 01c5 54       		.byte	0x54
 1590 01c6 66000000 		.4byte	.LVL31
 1591 01ca 6C000000 		.4byte	.LVL32
 1592 01ce 0300     		.2byte	0x3
 1593 01d0 74       		.byte	0x74
 1594 01d1 6E       		.sleb128 -18
 1595 01d2 9F       		.byte	0x9f
 1596 01d3 6C000000 		.4byte	.LVL32
ARM GAS  /tmp/ccq2O3dX.s 			page 29


 1597 01d7 80000000 		.4byte	.LVL35
 1598 01db 0100     		.2byte	0x1
 1599 01dd 54       		.byte	0x54
 1600 01de 80000000 		.4byte	.LVL35
 1601 01e2 8B000000 		.4byte	.LVL37-1
 1602 01e6 0100     		.2byte	0x1
 1603 01e8 51       		.byte	0x51
 1604 01e9 8B000000 		.4byte	.LVL37-1
 1605 01ed 92000000 		.4byte	.LVL38
 1606 01f1 0300     		.2byte	0x3
 1607 01f3 74       		.byte	0x74
 1608 01f4 6E       		.sleb128 -18
 1609 01f5 9F       		.byte	0x9f
 1610 01f6 94000000 		.4byte	.LVL39
 1611 01fa 9C000000 		.4byte	.LVL40
 1612 01fe 0200     		.2byte	0x2
 1613 0200 91       		.byte	0x91
 1614 0201 00       		.sleb128 0
 1615 0202 9C000000 		.4byte	.LVL40
 1616 0206 A4000000 		.4byte	.LFE2
 1617 020a 0100     		.2byte	0x1
 1618 020c 54       		.byte	0x54
 1619 020d 00000000 		.4byte	0
 1620 0211 00000000 		.4byte	0
 1621              	.LLST13:
 1622 0215 00000000 		.4byte	.LVL18
 1623 0219 3C000000 		.4byte	.LVL27
 1624 021d 0200     		.2byte	0x2
 1625 021f 91       		.byte	0x91
 1626 0220 04       		.sleb128 4
 1627 0221 3C000000 		.4byte	.LVL27
 1628 0225 A4000000 		.4byte	.LFE2
 1629 0229 0200     		.2byte	0x2
 1630 022b 91       		.byte	0x91
 1631 022c 04       		.sleb128 4
 1632 022d 00000000 		.4byte	0
 1633 0231 00000000 		.4byte	0
 1634              	.LLST14:
 1635 0235 00000000 		.4byte	.LVL18
 1636 0239 2A000000 		.4byte	.LVL24
 1637 023d 0200     		.2byte	0x2
 1638 023f 30       		.byte	0x30
 1639 0240 9F       		.byte	0x9f
 1640 0241 2A000000 		.4byte	.LVL24
 1641 0245 34000000 		.4byte	.LVL26
 1642 0249 0100     		.2byte	0x1
 1643 024b 50       		.byte	0x50
 1644 024c 3C000000 		.4byte	.LVL27
 1645 0250 56000000 		.4byte	.LVL30
 1646 0254 0200     		.2byte	0x2
 1647 0256 30       		.byte	0x30
 1648 0257 9F       		.byte	0x9f
 1649 0258 66000000 		.4byte	.LVL31
 1650 025c 6C000000 		.4byte	.LVL32
 1651 0260 0100     		.2byte	0x1
 1652 0262 50       		.byte	0x50
 1653 0263 8C000000 		.4byte	.LVL37
ARM GAS  /tmp/ccq2O3dX.s 			page 30


 1654 0267 A4000000 		.4byte	.LFE2
 1655 026b 0100     		.2byte	0x1
 1656 026d 50       		.byte	0x50
 1657 026e 00000000 		.4byte	0
 1658 0272 00000000 		.4byte	0
 1659              	.LLST15:
 1660 0276 00000000 		.4byte	.LVL18
 1661 027a 2C000000 		.4byte	.LVL25
 1662 027e 0200     		.2byte	0x2
 1663 0280 30       		.byte	0x30
 1664 0281 9F       		.byte	0x9f
 1665 0282 3C000000 		.4byte	.LVL27
 1666 0286 66000000 		.4byte	.LVL31
 1667 028a 0200     		.2byte	0x2
 1668 028c 30       		.byte	0x30
 1669 028d 9F       		.byte	0x9f
 1670 028e 66000000 		.4byte	.LVL31
 1671 0292 6C000000 		.4byte	.LVL32
 1672 0296 0300     		.2byte	0x3
 1673 0298 75       		.byte	0x75
 1674 0299 7F       		.sleb128 -1
 1675 029a 9F       		.byte	0x9f
 1676 029b 6C000000 		.4byte	.LVL32
 1677 029f 7E000000 		.4byte	.LVL34
 1678 02a3 0100     		.2byte	0x1
 1679 02a5 55       		.byte	0x55
 1680 02a6 7E000000 		.4byte	.LVL34
 1681 02aa 94000000 		.4byte	.LVL39
 1682 02ae 0300     		.2byte	0x3
 1683 02b0 75       		.byte	0x75
 1684 02b1 7F       		.sleb128 -1
 1685 02b2 9F       		.byte	0x9f
 1686 02b3 94000000 		.4byte	.LVL39
 1687 02b7 A4000000 		.4byte	.LFE2
 1688 02bb 0200     		.2byte	0x2
 1689 02bd 30       		.byte	0x30
 1690 02be 9F       		.byte	0x9f
 1691 02bf 00000000 		.4byte	0
 1692 02c3 00000000 		.4byte	0
 1693              	.LLST5:
 1694 02c7 00000000 		.4byte	.LVL14
 1695 02cb 09000000 		.4byte	.LVL15-1
 1696 02cf 0100     		.2byte	0x1
 1697 02d1 50       		.byte	0x50
 1698 02d2 09000000 		.4byte	.LVL15-1
 1699 02d6 10000000 		.4byte	.LFE1
 1700 02da 0400     		.2byte	0x4
 1701 02dc F3       		.byte	0xf3
 1702 02dd 01       		.uleb128 0x1
 1703 02de 50       		.byte	0x50
 1704 02df 9F       		.byte	0x9f
 1705 02e0 00000000 		.4byte	0
 1706 02e4 00000000 		.4byte	0
 1707              	.LLST6:
 1708 02e8 00000000 		.4byte	.LVL14
 1709 02ec 09000000 		.4byte	.LVL15-1
 1710 02f0 0100     		.2byte	0x1
ARM GAS  /tmp/ccq2O3dX.s 			page 31


 1711 02f2 51       		.byte	0x51
 1712 02f3 09000000 		.4byte	.LVL15-1
 1713 02f7 10000000 		.4byte	.LFE1
 1714 02fb 0400     		.2byte	0x4
 1715 02fd F3       		.byte	0xf3
 1716 02fe 01       		.uleb128 0x1
 1717 02ff 51       		.byte	0x51
 1718 0300 9F       		.byte	0x9f
 1719 0301 00000000 		.4byte	0
 1720 0305 00000000 		.4byte	0
 1721              	.LLST7:
 1722 0309 00000000 		.4byte	.LVL14
 1723 030d 0A000000 		.4byte	.LVL15
 1724 0311 0200     		.2byte	0x2
 1725 0313 30       		.byte	0x30
 1726 0314 9F       		.byte	0x9f
 1727 0315 0A000000 		.4byte	.LVL15
 1728 0319 0C000000 		.4byte	.LVL16
 1729 031d 0100     		.2byte	0x1
 1730 031f 50       		.byte	0x50
 1731 0320 0C000000 		.4byte	.LVL16
 1732 0324 0E000000 		.4byte	.LVL17
 1733 0328 0300     		.2byte	0x3
 1734 032a 70       		.byte	0x70
 1735 032b 79       		.sleb128 -7
 1736 032c 9F       		.byte	0x9f
 1737 032d 00000000 		.4byte	0
 1738 0331 00000000 		.4byte	0
 1739              	.LLST0:
 1740 0335 00000000 		.4byte	.LVL0
 1741 0339 0A000000 		.4byte	.LVL1
 1742 033d 0100     		.2byte	0x1
 1743 033f 50       		.byte	0x50
 1744 0340 0A000000 		.4byte	.LVL1
 1745 0344 30000000 		.4byte	.LVL7
 1746 0348 0100     		.2byte	0x1
 1747 034a 56       		.byte	0x56
 1748 034b 30000000 		.4byte	.LVL7
 1749 034f 38000000 		.4byte	.LVL11
 1750 0353 0100     		.2byte	0x1
 1751 0355 50       		.byte	0x50
 1752 0356 38000000 		.4byte	.LVL11
 1753 035a 40000000 		.4byte	.LFE0
 1754 035e 0100     		.2byte	0x1
 1755 0360 56       		.byte	0x56
 1756 0361 00000000 		.4byte	0
 1757 0365 00000000 		.4byte	0
 1758              	.LLST1:
 1759 0369 00000000 		.4byte	.LVL0
 1760 036d 0A000000 		.4byte	.LVL1
 1761 0371 0100     		.2byte	0x1
 1762 0373 51       		.byte	0x51
 1763 0374 0A000000 		.4byte	.LVL1
 1764 0378 30000000 		.4byte	.LVL7
 1765 037c 0100     		.2byte	0x1
 1766 037e 57       		.byte	0x57
 1767 037f 30000000 		.4byte	.LVL7
ARM GAS  /tmp/ccq2O3dX.s 			page 32


 1768 0383 34000000 		.4byte	.LVL9
 1769 0387 0100     		.2byte	0x1
 1770 0389 51       		.byte	0x51
 1771 038a 34000000 		.4byte	.LVL9
 1772 038e 40000000 		.4byte	.LFE0
 1773 0392 0100     		.2byte	0x1
 1774 0394 57       		.byte	0x57
 1775 0395 00000000 		.4byte	0
 1776 0399 00000000 		.4byte	0
 1777              	.LLST2:
 1778 039d 00000000 		.4byte	.LVL0
 1779 03a1 0A000000 		.4byte	.LVL1
 1780 03a5 0100     		.2byte	0x1
 1781 03a7 52       		.byte	0x52
 1782 03a8 0A000000 		.4byte	.LVL1
 1783 03ac 30000000 		.4byte	.LVL7
 1784 03b0 0100     		.2byte	0x1
 1785 03b2 55       		.byte	0x55
 1786 03b3 30000000 		.4byte	.LVL7
 1787 03b7 36000000 		.4byte	.LVL10
 1788 03bb 0100     		.2byte	0x1
 1789 03bd 52       		.byte	0x52
 1790 03be 36000000 		.4byte	.LVL10
 1791 03c2 40000000 		.4byte	.LFE0
 1792 03c6 0100     		.2byte	0x1
 1793 03c8 55       		.byte	0x55
 1794 03c9 00000000 		.4byte	0
 1795 03cd 00000000 		.4byte	0
 1796              	.LLST3:
 1797 03d1 00000000 		.4byte	.LVL0
 1798 03d5 0A000000 		.4byte	.LVL1
 1799 03d9 0100     		.2byte	0x1
 1800 03db 53       		.byte	0x53
 1801 03dc 0A000000 		.4byte	.LVL1
 1802 03e0 30000000 		.4byte	.LVL7
 1803 03e4 0400     		.2byte	0x4
 1804 03e6 F3       		.byte	0xf3
 1805 03e7 01       		.uleb128 0x1
 1806 03e8 53       		.byte	0x53
 1807 03e9 9F       		.byte	0x9f
 1808 03ea 30000000 		.4byte	.LVL7
 1809 03ee 32000000 		.4byte	.LVL8
 1810 03f2 0100     		.2byte	0x1
 1811 03f4 53       		.byte	0x53
 1812 03f5 32000000 		.4byte	.LVL8
 1813 03f9 40000000 		.4byte	.LFE0
 1814 03fd 0400     		.2byte	0x4
 1815 03ff F3       		.byte	0xf3
 1816 0400 01       		.uleb128 0x1
 1817 0401 53       		.byte	0x53
 1818 0402 9F       		.byte	0x9f
 1819 0403 00000000 		.4byte	0
 1820 0407 00000000 		.4byte	0
 1821              	.LLST4:
 1822 040b 00000000 		.4byte	.LVL0
 1823 040f 10000000 		.4byte	.LVL2
 1824 0413 0200     		.2byte	0x2
ARM GAS  /tmp/ccq2O3dX.s 			page 33


 1825 0415 30       		.byte	0x30
 1826 0416 9F       		.byte	0x9f
 1827 0417 10000000 		.4byte	.LVL2
 1828 041b 24000000 		.4byte	.LVL4
 1829 041f 0100     		.2byte	0x1
 1830 0421 54       		.byte	0x54
 1831 0422 24000000 		.4byte	.LVL4
 1832 0426 2A000000 		.4byte	.LVL5
 1833 042a 0300     		.2byte	0x3
 1834 042c 74       		.byte	0x74
 1835 042d 7F       		.sleb128 -1
 1836 042e 9F       		.byte	0x9f
 1837 042f 2A000000 		.4byte	.LVL5
 1838 0433 2C000000 		.4byte	.LVL6
 1839 0437 0100     		.2byte	0x1
 1840 0439 54       		.byte	0x54
 1841 043a 30000000 		.4byte	.LVL7
 1842 043e 40000000 		.4byte	.LFE0
 1843 0442 0200     		.2byte	0x2
 1844 0444 30       		.byte	0x30
 1845 0445 9F       		.byte	0x9f
 1846 0446 00000000 		.4byte	0
 1847 044a 00000000 		.4byte	0
 1848              		.section	.debug_aranges,"",%progbits
 1849 0000 34000000 		.4byte	0x34
 1850 0004 0200     		.2byte	0x2
 1851 0006 00000000 		.4byte	.Ldebug_info0
 1852 000a 04       		.byte	0x4
 1853 000b 00       		.byte	0
 1854 000c 0000     		.2byte	0
 1855 000e 0000     		.2byte	0
 1856 0010 00000000 		.4byte	.LFB0
 1857 0014 40000000 		.4byte	.LFE0-.LFB0
 1858 0018 00000000 		.4byte	.LFB1
 1859 001c 10000000 		.4byte	.LFE1-.LFB1
 1860 0020 00000000 		.4byte	.LFB2
 1861 0024 A4000000 		.4byte	.LFE2-.LFB2
 1862 0028 00000000 		.4byte	.LFB3
 1863 002c 48000000 		.4byte	.LFE3-.LFB3
 1864 0030 00000000 		.4byte	0
 1865 0034 00000000 		.4byte	0
 1866              		.section	.debug_ranges,"",%progbits
 1867              	.Ldebug_ranges0:
 1868 0000 14000000 		.4byte	.LBB2
 1869 0004 16000000 		.4byte	.LBE2
 1870 0008 1C000000 		.4byte	.LBB3
 1871 000c 24000000 		.4byte	.LBE3
 1872 0010 00000000 		.4byte	0
 1873 0014 00000000 		.4byte	0
 1874 0018 00000000 		.4byte	.LFB0
 1875 001c 40000000 		.4byte	.LFE0
 1876 0020 00000000 		.4byte	.LFB1
 1877 0024 10000000 		.4byte	.LFE1
 1878 0028 00000000 		.4byte	.LFB2
 1879 002c A4000000 		.4byte	.LFE2
 1880 0030 00000000 		.4byte	.LFB3
 1881 0034 48000000 		.4byte	.LFE3
ARM GAS  /tmp/ccq2O3dX.s 			page 34


 1882 0038 00000000 		.4byte	0
 1883 003c 00000000 		.4byte	0
 1884              		.section	.debug_line,"",%progbits
 1885              	.Ldebug_line0:
 1886 0000 A0010000 		.section	.debug_str,"MS",%progbits,1
 1886      0200D400 
 1886      00000201 
 1886      FB0E0D00 
 1886      01010101 
 1887              	.LASF25:
 1888 0000 64617461 		.ascii	"data_type_id\000"
 1888      5F747970 
 1888      655F6964 
 1888      00
 1889              	.LASF37:
 1890 000d 64657374 		.ascii	"dest\000"
 1890      00
 1891              	.LASF28:
 1892 0012 7072696F 		.ascii	"priority\000"
 1892      72697479 
 1892      00
 1893              	.LASF18:
 1894 001b 75696E74 		.ascii	"uint64_t\000"
 1894      36345F74 
 1894      00
 1895              	.LASF52:
 1896 0024 75617663 		.ascii	"uavcan_equipment_esc_RPMCommand_error_exit\000"
 1896      616E5F65 
 1896      71756970 
 1896      6D656E74 
 1896      5F657363 
 1897              	.LASF2:
 1898 004f 73686F72 		.ascii	"short int\000"
 1898      7420696E 
 1898      7400
 1899              	.LASF8:
 1900 0059 5F5F7569 		.ascii	"__uint32_t\000"
 1900      6E743332 
 1900      5F7400
 1901              	.LASF4:
 1902 0064 5F5F7569 		.ascii	"__uint16_t\000"
 1902      6E743136 
 1902      5F7400
 1903              	.LASF14:
 1904 006f 75696E74 		.ascii	"uint8_t\000"
 1904      385F7400 
 1905              	.LASF50:
 1906 0077 6C696263 		.ascii	"libcanard/dsdl/uavcan/equipment/esc/esc_RPMCommand."
 1906      616E6172 
 1906      642F6473 
 1906      646C2F75 
 1906      61766361 
 1907 00aa 6300     		.ascii	"c\000"
 1908              	.LASF10:
 1909 00ac 6C6F6E67 		.ascii	"long long int\000"
 1909      206C6F6E 
 1909      6720696E 
ARM GAS  /tmp/ccq2O3dX.s 			page 35


 1909      7400
 1910              	.LASF38:
 1911 00ba 64796E5F 		.ascii	"dyn_arr_buf\000"
 1911      6172725F 
 1911      62756600 
 1912              	.LASF7:
 1913 00c6 6C6F6E67 		.ascii	"long int\000"
 1913      20696E74 
 1913      00
 1914              	.LASF39:
 1915 00cf 6F666673 		.ascii	"offset\000"
 1915      657400
 1916              	.LASF48:
 1917 00d6 63616E61 		.ascii	"canardEncodeScalar\000"
 1917      7264456E 
 1917      636F6465 
 1917      5363616C 
 1917      617200
 1918              	.LASF3:
 1919 00e9 5F5F7569 		.ascii	"__uint8_t\000"
 1919      6E74385F 
 1919      7400
 1920              	.LASF43:
 1921 00f3 736F7572 		.ascii	"source\000"
 1921      636500
 1922              	.LASF23:
 1923 00fa 7061796C 		.ascii	"payload_tail\000"
 1923      6F61645F 
 1923      7461696C 
 1923      00
 1924              	.LASF20:
 1925 0107 74696D65 		.ascii	"timestamp_usec\000"
 1925      7374616D 
 1925      705F7573 
 1925      656300
 1926              	.LASF35:
 1927 0116 75617663 		.ascii	"uavcan_equipment_esc_RPMCommand\000"
 1927      616E5F65 
 1927      71756970 
 1927      6D656E74 
 1927      5F657363 
 1928              	.LASF1:
 1929 0136 756E7369 		.ascii	"unsigned char\000"
 1929      676E6564 
 1929      20636861 
 1929      7200
 1930              	.LASF22:
 1931 0144 7061796C 		.ascii	"payload_middle\000"
 1931      6F61645F 
 1931      6D696464 
 1931      6C6500
 1932              	.LASF42:
 1933 0153 75617663 		.ascii	"uavcan_equipment_esc_RPMCommand_encode\000"
 1933      616E5F65 
 1933      71756970 
 1933      6D656E74 
 1933      5F657363 
ARM GAS  /tmp/ccq2O3dX.s 			page 36


 1934              	.LASF0:
 1935 017a 7369676E 		.ascii	"signed char\000"
 1935      65642063 
 1935      68617200 
 1936              	.LASF12:
 1937 0186 6C6F6E67 		.ascii	"long long unsigned int\000"
 1937      206C6F6E 
 1937      6720756E 
 1937      7369676E 
 1937      65642069 
 1938              	.LASF17:
 1939 019d 75696E74 		.ascii	"uint32_t\000"
 1939      33325F74 
 1939      00
 1940              	.LASF13:
 1941 01a6 756E7369 		.ascii	"unsigned int\000"
 1941      676E6564 
 1941      20696E74 
 1941      00
 1942              	.LASF15:
 1943 01b3 75696E74 		.ascii	"uint16_t\000"
 1943      31365F74 
 1943      00
 1944              	.LASF32:
 1945 01bc 43616E61 		.ascii	"CanardBufferBlock\000"
 1945      72644275 
 1945      66666572 
 1945      426C6F63 
 1945      6B00
 1946              	.LASF45:
 1947 01ce 75617663 		.ascii	"uavcan_equipment_esc_RPMCommand_encode_internal\000"
 1947      616E5F65 
 1947      71756970 
 1947      6D656E74 
 1947      5F657363 
 1948              	.LASF29:
 1949 01fe 736F7572 		.ascii	"source_node_id\000"
 1949      63655F6E 
 1949      6F64655F 
 1949      696400
 1950              	.LASF5:
 1951 020d 73686F72 		.ascii	"short unsigned int\000"
 1951      7420756E 
 1951      7369676E 
 1951      65642069 
 1951      6E7400
 1952              	.LASF41:
 1953 0220 75617663 		.ascii	"uavcan_equipment_esc_RPMCommand_decode_internal\000"
 1953      616E5F65 
 1953      71756970 
 1953      6D656E74 
 1953      5F657363 
 1954              	.LASF31:
 1955 0250 63686172 		.ascii	"char\000"
 1955      00
 1956              	.LASF30:
 1957 0255 5F426F6F 		.ascii	"_Bool\000"
ARM GAS  /tmp/ccq2O3dX.s 			page 37


 1957      6C00
 1958              	.LASF16:
 1959 025b 696E7433 		.ascii	"int32_t\000"
 1959      325F7400 
 1960              	.LASF26:
 1961 0263 7472616E 		.ascii	"transfer_type\000"
 1961      73666572 
 1961      5F747970 
 1961      6500
 1962              	.LASF21:
 1963 0271 7061796C 		.ascii	"payload_head\000"
 1963      6F61645F 
 1963      68656164 
 1963      00
 1964              	.LASF11:
 1965 027e 5F5F7569 		.ascii	"__uint64_t\000"
 1965      6E743634 
 1965      5F7400
 1966              	.LASF34:
 1967 0289 64617461 		.ascii	"data\000"
 1967      00
 1968              	.LASF36:
 1969 028e 7472616E 		.ascii	"transfer\000"
 1969      73666572 
 1969      00
 1970              	.LASF19:
 1971 0297 43616E61 		.ascii	"CanardRxTransfer\000"
 1971      72645278 
 1971      5472616E 
 1971      73666572 
 1971      00
 1972              	.LASF9:
 1973 02a8 6C6F6E67 		.ascii	"long unsigned int\000"
 1973      20756E73 
 1973      69676E65 
 1973      6420696E 
 1973      7400
 1974              	.LASF46:
 1975 02ba 726F6F74 		.ascii	"root_item\000"
 1975      5F697465 
 1975      6D00
 1976              	.LASF51:
 1977 02c4 2F686F6D 		.ascii	"/home/patrick/git_bldc\000"
 1977      652F7061 
 1977      74726963 
 1977      6B2F6769 
 1977      745F626C 
 1978              	.LASF6:
 1979 02db 5F5F696E 		.ascii	"__int32_t\000"
 1979      7433325F 
 1979      7400
 1980              	.LASF40:
 1981 02e5 75617663 		.ascii	"uavcan_equipment_esc_RPMCommand_decode\000"
 1981      616E5F65 
 1981      71756970 
 1981      6D656E74 
 1981      5F657363 
ARM GAS  /tmp/ccq2O3dX.s 			page 38


 1982              	.LASF24:
 1983 030c 7061796C 		.ascii	"payload_len\000"
 1983      6F61645F 
 1983      6C656E00 
 1984              	.LASF27:
 1985 0318 7472616E 		.ascii	"transfer_id\000"
 1985      73666572 
 1985      5F696400 
 1986              	.LASF47:
 1987 0324 63616E61 		.ascii	"canardDecodeScalar\000"
 1987      72644465 
 1987      636F6465 
 1987      5363616C 
 1987      617200
 1988              	.LASF44:
 1989 0337 6D73675F 		.ascii	"msg_buf\000"
 1989      62756600 
 1990              	.LASF33:
 1991 033f 6E657874 		.ascii	"next\000"
 1991      00
 1992              	.LASF49:
 1993 0344 474E5520 		.ascii	"GNU C99 7.3.1 20180622 (release) [ARM/embedded-7-br"
 1993      43393920 
 1993      372E332E 
 1993      31203230 
 1993      31383036 
 1994 0377 616E6368 		.ascii	"anch revision 261907] -mcpu=cortex-m4 -mfloat-abi=h"
 1994      20726576 
 1994      6973696F 
 1994      6E203236 
 1994      31393037 
 1995 03aa 61726420 		.ascii	"ard -mfpu=fpv4-sp-d16 -mno-thumb-interwork -mthumb "
 1995      2D6D6670 
 1995      753D6670 
 1995      76342D73 
 1995      702D6431 
 1996 03dd 2D676764 		.ascii	"-ggdb -O2 -std=gnu99 -fomit-frame-pointer -falign-f"
 1996      62202D4F 
 1996      32202D73 
 1996      74643D67 
 1996      6E753939 
 1997 0410 756E6374 		.ascii	"unctions=16 -ffunction-sections -fdata-sections -fn"
 1997      696F6E73 
 1997      3D313620 
 1997      2D666675 
 1997      6E637469 
 1998 0443 6F2D636F 		.ascii	"o-common -fsingle-precision-constant\000"
 1998      6D6D6F6E 
 1998      202D6673 
 1998      696E676C 
 1998      652D7072 
 1999              		.ident	"GCC: (GNU Tools for Arm Embedded Processors 7-2018-q3-update) 7.3.1 20180622 (release) [AR
ARM GAS  /tmp/ccq2O3dX.s 			page 39


DEFINED SYMBOLS
                            *ABS*:0000000000000000 esc_RPMCommand.c
     /tmp/ccq2O3dX.s:18     .text.uavcan_equipment_esc_RPMCommand_encode_internal:0000000000000000 $t
     /tmp/ccq2O3dX.s:26     .text.uavcan_equipment_esc_RPMCommand_encode_internal:0000000000000000 uavcan_equipment_esc_RPMCommand_encode_internal
     /tmp/ccq2O3dX.s:102    .text.uavcan_equipment_esc_RPMCommand_encode:0000000000000000 $t
     /tmp/ccq2O3dX.s:110    .text.uavcan_equipment_esc_RPMCommand_encode:0000000000000000 uavcan_equipment_esc_RPMCommand_encode
     /tmp/ccq2O3dX.s:137    .text.uavcan_equipment_esc_RPMCommand_decode_internal:0000000000000000 $t
     /tmp/ccq2O3dX.s:145    .text.uavcan_equipment_esc_RPMCommand_decode_internal:0000000000000000 uavcan_equipment_esc_RPMCommand_decode_internal
     /tmp/ccq2O3dX.s:289    .text.uavcan_equipment_esc_RPMCommand_decode_internal:00000000000000a0 $d
     /tmp/ccq2O3dX.s:294    .text.uavcan_equipment_esc_RPMCommand_decode:0000000000000000 $t
     /tmp/ccq2O3dX.s:302    .text.uavcan_equipment_esc_RPMCommand_decode:0000000000000000 uavcan_equipment_esc_RPMCommand_decode

UNDEFINED SYMBOLS
canardEncodeScalar
canardDecodeScalar
