ARM GAS  /tmp/ccC8Q1dS.s 			page 1


   1              		.cpu cortex-m4
   2              		.eabi_attribute 27, 1
   3              		.eabi_attribute 28, 1
   4              		.eabi_attribute 20, 1
   5              		.eabi_attribute 21, 1
   6              		.eabi_attribute 23, 3
   7              		.eabi_attribute 24, 1
   8              		.eabi_attribute 25, 1
   9              		.eabi_attribute 26, 1
  10              		.eabi_attribute 30, 2
  11              		.eabi_attribute 34, 1
  12              		.eabi_attribute 18, 4
  13              		.file	"esc_RawCommand.c"
  14              		.text
  15              	.Ltext0:
  16              		.cfi_sections	.debug_frame
  17              		.section	.text.uavcan_equipment_esc_RawCommand_encode_internal,"ax",%progbits
  18              		.align	1
  19              		.p2align 4,,15
  20              		.global	uavcan_equipment_esc_RawCommand_encode_internal
  21              		.syntax unified
  22              		.thumb
  23              		.thumb_func
  24              		.fpu fpv4-sp-d16
  25              		.type	uavcan_equipment_esc_RawCommand_encode_internal, %function
  26              	uavcan_equipment_esc_RawCommand_encode_internal:
  27              	.LFB0:
  28              		.file 1 "libcanard/dsdl/uavcan/equipment/esc/esc_RawCommand.c"
  29              		.loc 1 40 0
  30              		.cfi_startproc
  31              		@ args = 0, pretend = 0, frame = 0
  32              		@ frame_needed = 0, uses_anonymous_args = 0
  33              	.LVL0:
  34 0000 F8B5     		push	{r3, r4, r5, r6, r7, lr}
  35              		.cfi_def_cfa_offset 24
  36              		.cfi_offset 3, -24
  37              		.cfi_offset 4, -20
  38              		.cfi_offset 5, -16
  39              		.cfi_offset 6, -12
  40              		.cfi_offset 7, -8
  41              		.cfi_offset 14, -4
  42              		.loc 1 40 0
  43 0002 0646     		mov	r6, r0
  44 0004 0F46     		mov	r7, r1
  45 0006 1546     		mov	r5, r2
  46              		.loc 1 44 0
  47 0008 93B1     		cbz	r3, .L11
  48              	.LVL1:
  49              	.L2:
  50              		.loc 1 52 0 discriminator 1
  51 000a 3378     		ldrb	r3, [r6]	@ zero_extendqisi2
  52 000c 73B1     		cbz	r3, .L3
  53              		.loc 1 52 0 is_stmt 0
  54 000e 0024     		movs	r4, #0
  55              	.LVL2:
  56              	.L4:
  57              		.loc 1 57 0 is_stmt 1 discriminator 3
ARM GAS  /tmp/ccC8Q1dS.s 			page 2


  58 0010 7368     		ldr	r3, [r6, #4]
  59              		.loc 1 54 0 discriminator 3
  60 0012 2946     		mov	r1, r5
  61 0014 03EB4403 		add	r3, r3, r4, lsl #1
  62 0018 0E22     		movs	r2, #14
  63 001a 3846     		mov	r0, r7
  64 001c FFF7FEFF 		bl	canardEncodeScalar
  65              	.LVL3:
  66              		.loc 1 52 0 discriminator 3
  67 0020 3378     		ldrb	r3, [r6]	@ zero_extendqisi2
  68 0022 0134     		adds	r4, r4, #1
  69              	.LVL4:
  70 0024 A342     		cmp	r3, r4
  71              		.loc 1 58 0 discriminator 3
  72 0026 05F10E05 		add	r5, r5, #14
  73              	.LVL5:
  74              		.loc 1 52 0 discriminator 3
  75 002a F1D8     		bhi	.L4
  76              	.LVL6:
  77              	.L3:
  78              		.loc 1 62 0
  79 002c 2846     		mov	r0, r5
  80 002e F8BD     		pop	{r3, r4, r5, r6, r7, pc}
  81              	.LVL7:
  82              	.L11:
  83              		.loc 1 47 0
  84 0030 0346     		mov	r3, r0
  85              	.LVL8:
  86 0032 2946     		mov	r1, r5
  87              	.LVL9:
  88 0034 0522     		movs	r2, #5
  89              	.LVL10:
  90 0036 3846     		mov	r0, r7
  91              	.LVL11:
  92 0038 FFF7FEFF 		bl	canardEncodeScalar
  93              	.LVL12:
  94              		.loc 1 48 0
  95 003c 0535     		adds	r5, r5, #5
  96              	.LVL13:
  97 003e E4E7     		b	.L2
  98              		.cfi_endproc
  99              	.LFE0:
 100              		.size	uavcan_equipment_esc_RawCommand_encode_internal, .-uavcan_equipment_esc_RawCommand_encode_in
 101              		.section	.text.uavcan_equipment_esc_RawCommand_encode,"ax",%progbits
 102              		.align	1
 103              		.p2align 4,,15
 104              		.global	uavcan_equipment_esc_RawCommand_encode
 105              		.syntax unified
 106              		.thumb
 107              		.thumb_func
 108              		.fpu fpv4-sp-d16
 109              		.type	uavcan_equipment_esc_RawCommand_encode, %function
 110              	uavcan_equipment_esc_RawCommand_encode:
 111              	.LFB1:
 112              		.loc 1 71 0
 113              		.cfi_startproc
 114              		@ args = 0, pretend = 0, frame = 0
ARM GAS  /tmp/ccC8Q1dS.s 			page 3


 115              		@ frame_needed = 0, uses_anonymous_args = 0
 116              	.LVL14:
 117 0000 08B5     		push	{r3, lr}
 118              		.cfi_def_cfa_offset 8
 119              		.cfi_offset 3, -8
 120              		.cfi_offset 14, -4
 121              		.loc 1 74 0
 122 0002 0022     		movs	r2, #0
 123 0004 0123     		movs	r3, #1
 124 0006 FFF7FEFF 		bl	uavcan_equipment_esc_RawCommand_encode_internal
 125              	.LVL15:
 126              		.loc 1 76 0
 127 000a 0730     		adds	r0, r0, #7
 128              	.LVL16:
 129              		.loc 1 77 0
 130 000c C008     		lsrs	r0, r0, #3
 131              	.LVL17:
 132 000e 08BD     		pop	{r3, pc}
 133              		.cfi_endproc
 134              	.LFE1:
 135              		.size	uavcan_equipment_esc_RawCommand_encode, .-uavcan_equipment_esc_RawCommand_encode
 136              		.section	.text.uavcan_equipment_esc_RawCommand_decode_internal,"ax",%progbits
 137              		.align	1
 138              		.p2align 4,,15
 139              		.global	uavcan_equipment_esc_RawCommand_decode_internal
 140              		.syntax unified
 141              		.thumb
 142              		.thumb_func
 143              		.fpu fpv4-sp-d16
 144              		.type	uavcan_equipment_esc_RawCommand_decode_internal, %function
 145              	uavcan_equipment_esc_RawCommand_decode_internal:
 146              	.LFB2:
 147              		.loc 1 98 0
 148              		.cfi_startproc
 149              		@ args = 8, pretend = 0, frame = 0
 150              		@ frame_needed = 0, uses_anonymous_args = 0
 151              	.LVL18:
 152 0000 2DE9F043 		push	{r4, r5, r6, r7, r8, r9, lr}
 153              		.cfi_def_cfa_offset 28
 154              		.cfi_offset 4, -28
 155              		.cfi_offset 5, -24
 156              		.cfi_offset 6, -20
 157              		.cfi_offset 7, -16
 158              		.cfi_offset 8, -12
 159              		.cfi_offset 9, -8
 160              		.cfi_offset 14, -4
 161 0004 83B0     		sub	sp, sp, #12
 162              		.cfi_def_cfa_offset 40
 163              		.loc 1 98 0
 164 0006 1E46     		mov	r6, r3
 165 0008 8146     		mov	r9, r0
 166 000a 9046     		mov	r8, r2
 167 000c 9DF82C30 		ldrb	r3, [sp, #44]	@ zero_extendqisi2
 168              	.LVL19:
 169              		.loc 1 104 0
 170 0010 09B1     		cbz	r1, .L15
 171              		.loc 1 104 0 is_stmt 0 discriminator 1
ARM GAS  /tmp/ccC8Q1dS.s 			page 4


 172 0012 012B     		cmp	r3, #1
 173 0014 12D0     		beq	.L38
 174              	.L15:
 175              		.loc 1 112 0 is_stmt 1
 176 0016 CDF80080 		str	r8, [sp]
 177 001a 0023     		movs	r3, #0
 178 001c 0522     		movs	r2, #5
 179              	.LVL20:
 180 001e 0A99     		ldr	r1, [sp, #40]
 181              	.LVL21:
 182 0020 4846     		mov	r0, r9
 183              	.LVL22:
 184 0022 FFF7FEFF 		bl	canardDecodeScalar
 185              	.LVL23:
 186              		.loc 1 117 0
 187 0026 0528     		cmp	r0, #5
 188              		.loc 1 112 0
 189 0028 0446     		mov	r4, r0
 190              	.LVL24:
 191              		.loc 1 117 0
 192 002a 34D0     		beq	.L39
 193              	.LVL25:
 194              	.L17:
 195              		.loc 1 156 0
 196 002c 002C     		cmp	r4, #0
 197 002e A8BF     		it	ge
 198 0030 6FF00804 		mvnge	r4, #8
 199              	.LVL26:
 200              	.L14:
 201              		.loc 1 158 0
 202 0034 2046     		mov	r0, r4
 203 0036 03B0     		add	sp, sp, #12
 204              		.cfi_remember_state
 205              		.cfi_def_cfa_offset 28
 206              		@ sp needed
 207 0038 BDE8F083 		pop	{r4, r5, r6, r7, r8, r9, pc}
 208              	.LVL27:
 209              	.L38:
 210              		.cfi_restore_state
 211              		.loc 1 107 0
 212 003c 0A9A     		ldr	r2, [sp, #40]
 213              	.LVL28:
 214 003e 184B     		ldr	r3, .L41
 215 0040 0A9C     		ldr	r4, [sp, #40]
 216 0042 C2EBC101 		rsb	r1, r2, r1, lsl #3
 217              	.LVL29:
 218 0046 83FB0123 		smull	r2, r3, r3, r1
 219 004a 0B44     		add	r3, r3, r1
 220 004c C917     		asrs	r1, r1, #31
 221 004e C1EBE303 		rsb	r3, r1, r3, asr #3
 222 0052 DBB2     		uxtb	r3, r3
 223 0054 88F80030 		strb	r3, [r8]
 224              	.LVL30:
 225              	.L16:
 226              		.loc 1 125 0
 227 0058 16B1     		cbz	r6, .L18
 228              		.loc 1 127 0
ARM GAS  /tmp/ccC8Q1dS.s 			page 5


 229 005a 3268     		ldr	r2, [r6]
 230 005c C8F80420 		str	r2, [r8, #4]
 231              	.L18:
 232              		.loc 1 130 0 discriminator 1
 233 0060 002B     		cmp	r3, #0
 234 0062 E7D0     		beq	.L14
 235              		.loc 1 130 0 is_stmt 0
 236 0064 0025     		movs	r5, #0
 237 0066 06E0     		b	.L21
 238              	.LVL31:
 239              	.L40:
 240              		.loc 1 143 0 is_stmt 1
 241 0068 3368     		ldr	r3, [r6]
 242 006a 0233     		adds	r3, r3, #2
 243 006c 3360     		str	r3, [r6]
 244              	.LVL32:
 245              	.L20:
 246              		.loc 1 130 0 discriminator 2
 247 006e 98F80030 		ldrb	r3, [r8]	@ zero_extendqisi2
 248 0072 AB42     		cmp	r3, r5
 249 0074 DED9     		bls	.L14
 250              	.LVL33:
 251              	.L21:
 252              		.loc 1 134 0
 253 0076 0123     		movs	r3, #1
 254 0078 0E22     		movs	r2, #14
 255 007a 2146     		mov	r1, r4
 256 007c 4846     		mov	r0, r9
 257              		.loc 1 130 0
 258 007e 1D44     		add	r5, r5, r3
 259              	.LVL34:
 260              		.loc 1 145 0
 261 0080 1444     		add	r4, r4, r2
 262              	.LVL35:
 263              		.loc 1 132 0
 264 0082 002E     		cmp	r6, #0
 265 0084 F3D0     		beq	.L20
 266              	.LVL36:
 267              		.loc 1 134 0
 268 0086 3768     		ldr	r7, [r6]
 269 0088 0097     		str	r7, [sp]
 270 008a FFF7FEFF 		bl	canardDecodeScalar
 271              	.LVL37:
 272              		.loc 1 139 0
 273 008e 0E28     		cmp	r0, #14
 274 0090 EAD0     		beq	.L40
 275              		.loc 1 149 0
 276 0092 0446     		mov	r4, r0
 277              	.LVL38:
 278 0094 CAE7     		b	.L17
 279              	.LVL39:
 280              	.L39:
 281              		.loc 1 121 0
 282 0096 0A9A     		ldr	r2, [sp, #40]
 283 0098 98F80030 		ldrb	r3, [r8]	@ zero_extendqisi2
 284 009c 541D     		adds	r4, r2, #5
 285              	.LVL40:
ARM GAS  /tmp/ccC8Q1dS.s 			page 6


 286 009e DBE7     		b	.L16
 287              	.L42:
 288              		.align	2
 289              	.L41:
 290 00a0 93244992 		.word	-1840700269
 291              		.cfi_endproc
 292              	.LFE2:
 293              		.size	uavcan_equipment_esc_RawCommand_decode_internal, .-uavcan_equipment_esc_RawCommand_decode_in
 294              		.section	.text.uavcan_equipment_esc_RawCommand_decode,"ax",%progbits
 295              		.align	1
 296              		.p2align 4,,15
 297              		.global	uavcan_equipment_esc_RawCommand_decode
 298              		.syntax unified
 299              		.thumb
 300              		.thumb_func
 301              		.fpu fpv4-sp-d16
 302              		.type	uavcan_equipment_esc_RawCommand_decode, %function
 303              	uavcan_equipment_esc_RawCommand_decode:
 304              	.LFB3:
 305              		.loc 1 174 0
 306              		.cfi_startproc
 307              		@ args = 0, pretend = 0, frame = 0
 308              		@ frame_needed = 0, uses_anonymous_args = 0
 309              	.LVL41:
 310 0000 2DE9F04F 		push	{r4, r5, r6, r7, r8, r9, r10, fp, lr}
 311              		.cfi_def_cfa_offset 36
 312              		.cfi_offset 4, -36
 313              		.cfi_offset 5, -32
 314              		.cfi_offset 6, -28
 315              		.cfi_offset 7, -24
 316              		.cfi_offset 8, -20
 317              		.cfi_offset 9, -16
 318              		.cfi_offset 10, -12
 319              		.cfi_offset 11, -8
 320              		.cfi_offset 14, -4
 321 0004 1646     		mov	r6, r2
 322              		.loc 1 182 0
 323 0006 0022     		movs	r2, #0
 324              	.LVL42:
 325              		.loc 1 174 0
 326 0008 83B0     		sub	sp, sp, #12
 327              		.cfi_def_cfa_offset 48
 328              		.loc 1 174 0
 329 000a 8246     		mov	r10, r0
 330 000c 8946     		mov	r9, r1
 331 000e 9846     		mov	r8, r3
 332 0010 771E     		subs	r7, r6, #1
 333 0012 F51D     		adds	r5, r6, #7
 334              	.LBB2:
 335              		.loc 1 189 0
 336 0014 1446     		mov	r4, r2
 337              	.LBE2:
 338              		.loc 1 174 0
 339 0016 4FF0020B 		mov	fp, #2
 340              	.LVL43:
 341              	.L46:
 342 001a 3B46     		mov	r3, r7
ARM GAS  /tmp/ccC8Q1dS.s 			page 7


 343              	.LVL44:
 344              	.L44:
 345              	.LBB3:
 346              		.loc 1 189 0 discriminator 3
 347 001c 03F8014F 		strb	r4, [r3, #1]!
 348              		.loc 1 187 0 discriminator 3
 349 0020 AB42     		cmp	r3, r5
 350 0022 FBD1     		bne	.L44
 351              	.LBE3:
 352              		.loc 1 192 0
 353 0024 CDE90042 		strd	r4, r2, [sp]
 354 0028 4346     		mov	r3, r8
 355 002a 3246     		mov	r2, r6
 356              	.LVL45:
 357 002c 4946     		mov	r1, r9
 358 002e 5046     		mov	r0, r10
 359 0030 FFF7FEFF 		bl	uavcan_equipment_esc_RawCommand_decode_internal
 360              	.LVL46:
 361              		.loc 1 194 0
 362 0034 0028     		cmp	r0, #0
 363 0036 02DB     		blt	.L50
 364              	.L43:
 365              		.loc 1 207 0
 366 0038 03B0     		add	sp, sp, #12
 367              		.cfi_remember_state
 368              		.cfi_def_cfa_offset 36
 369              		@ sp needed
 370 003a BDE8F08F 		pop	{r4, r5, r6, r7, r8, r9, r10, fp, pc}
 371              	.LVL47:
 372              	.L50:
 373              		.cfi_restore_state
 374              		.loc 1 203 0
 375 003e 0122     		movs	r2, #1
 376              		.loc 1 199 0
 377 0040 9345     		cmp	fp, r2
 378 0042 F9D0     		beq	.L43
 379 0044 9346     		mov	fp, r2
 380 0046 E8E7     		b	.L46
 381              		.cfi_endproc
 382              	.LFE3:
 383              		.size	uavcan_equipment_esc_RawCommand_decode, .-uavcan_equipment_esc_RawCommand_decode
 384              		.text
 385              	.Letext0:
 386              		.file 2 "/usr/arm-none-eabi/include/machine/_default_types.h"
 387              		.file 3 "/usr/arm-none-eabi/include/sys/_stdint.h"
 388              		.file 4 "libcanard/canard.h"
 389              		.file 5 "libcanard/dsdl/uavcan/equipment/esc/RawCommand.h"
 390              		.section	.debug_info,"",%progbits
 391              	.Ldebug_info0:
 392 0000 28050000 		.4byte	0x528
 393 0004 0400     		.2byte	0x4
 394 0006 00000000 		.4byte	.Ldebug_abbrev0
 395 000a 04       		.byte	0x4
 396 000b 01       		.uleb128 0x1
 397 000c 56030000 		.4byte	.LASF51
 398 0010 0C       		.byte	0xc
 399 0011 FD000000 		.4byte	.LASF52
ARM GAS  /tmp/ccC8Q1dS.s 			page 8


 400 0015 DB020000 		.4byte	.LASF53
 401 0019 18000000 		.4byte	.Ldebug_ranges0+0x18
 402 001d 00000000 		.4byte	0
 403 0021 00000000 		.4byte	.Ldebug_line0
 404 0025 02       		.uleb128 0x2
 405 0026 01       		.byte	0x1
 406 0027 06       		.byte	0x6
 407 0028 4F010000 		.4byte	.LASF0
 408 002c 03       		.uleb128 0x3
 409 002d D0000000 		.4byte	.LASF2
 410 0031 02       		.byte	0x2
 411 0032 2B       		.byte	0x2b
 412 0033 37000000 		.4byte	0x37
 413 0037 02       		.uleb128 0x2
 414 0038 01       		.byte	0x1
 415 0039 08       		.byte	0x8
 416 003a 32010000 		.4byte	.LASF1
 417 003e 03       		.uleb128 0x3
 418 003f FC020000 		.4byte	.LASF3
 419 0043 02       		.byte	0x2
 420 0044 37       		.byte	0x37
 421 0045 49000000 		.4byte	0x49
 422 0049 02       		.uleb128 0x2
 423 004a 02       		.byte	0x2
 424 004b 05       		.byte	0x5
 425 004c 24000000 		.4byte	.LASF4
 426 0050 03       		.uleb128 0x3
 427 0051 93000000 		.4byte	.LASF5
 428 0055 02       		.byte	0x2
 429 0056 39       		.byte	0x39
 430 0057 5B000000 		.4byte	0x5b
 431 005b 02       		.uleb128 0x2
 432 005c 02       		.byte	0x2
 433 005d 07       		.byte	0x7
 434 005e E2010000 		.4byte	.LASF6
 435 0062 03       		.uleb128 0x3
 436 0063 F2020000 		.4byte	.LASF7
 437 0067 02       		.byte	0x2
 438 0068 4D       		.byte	0x4d
 439 0069 6D000000 		.4byte	0x6d
 440 006d 02       		.uleb128 0x2
 441 006e 04       		.byte	0x4
 442 006f 05       		.byte	0x5
 443 0070 C0000000 		.4byte	.LASF8
 444 0074 03       		.uleb128 0x3
 445 0075 88000000 		.4byte	.LASF9
 446 0079 02       		.byte	0x2
 447 007a 4F       		.byte	0x4f
 448 007b 7F000000 		.4byte	0x7f
 449 007f 02       		.uleb128 0x2
 450 0080 04       		.byte	0x4
 451 0081 07       		.byte	0x7
 452 0082 68020000 		.4byte	.LASF10
 453 0086 02       		.uleb128 0x2
 454 0087 08       		.byte	0x8
 455 0088 05       		.byte	0x5
 456 0089 A6000000 		.4byte	.LASF11
ARM GAS  /tmp/ccC8Q1dS.s 			page 9


 457 008d 03       		.uleb128 0x3
 458 008e 3E020000 		.4byte	.LASF12
 459 0092 02       		.byte	0x2
 460 0093 69       		.byte	0x69
 461 0094 98000000 		.4byte	0x98
 462 0098 02       		.uleb128 0x2
 463 0099 08       		.byte	0x8
 464 009a 07       		.byte	0x7
 465 009b 5B010000 		.4byte	.LASF13
 466 009f 04       		.uleb128 0x4
 467 00a0 04       		.byte	0x4
 468 00a1 05       		.byte	0x5
 469 00a2 696E7400 		.ascii	"int\000"
 470 00a6 02       		.uleb128 0x2
 471 00a7 04       		.byte	0x4
 472 00a8 07       		.byte	0x7
 473 00a9 7B010000 		.4byte	.LASF14
 474 00ad 03       		.uleb128 0x3
 475 00ae 9E000000 		.4byte	.LASF15
 476 00b2 03       		.byte	0x3
 477 00b3 18       		.byte	0x18
 478 00b4 2C000000 		.4byte	0x2c
 479 00b8 05       		.uleb128 0x5
 480 00b9 AD000000 		.4byte	0xad
 481 00bd 03       		.uleb128 0x3
 482 00be 29020000 		.4byte	.LASF16
 483 00c2 03       		.byte	0x3
 484 00c3 20       		.byte	0x20
 485 00c4 3E000000 		.4byte	0x3e
 486 00c8 03       		.uleb128 0x3
 487 00c9 88010000 		.4byte	.LASF17
 488 00cd 03       		.byte	0x3
 489 00ce 24       		.byte	0x24
 490 00cf 50000000 		.4byte	0x50
 491 00d3 03       		.uleb128 0x3
 492 00d4 13020000 		.4byte	.LASF18
 493 00d8 03       		.byte	0x3
 494 00d9 2C       		.byte	0x2c
 495 00da 62000000 		.4byte	0x62
 496 00de 05       		.uleb128 0x5
 497 00df D3000000 		.4byte	0xd3
 498 00e3 03       		.uleb128 0x3
 499 00e4 72010000 		.4byte	.LASF19
 500 00e8 03       		.byte	0x3
 501 00e9 30       		.byte	0x30
 502 00ea 74000000 		.4byte	0x74
 503 00ee 03       		.uleb128 0x3
 504 00ef 1B000000 		.4byte	.LASF20
 505 00f3 03       		.byte	0x3
 506 00f4 3C       		.byte	0x3c
 507 00f5 8D000000 		.4byte	0x8d
 508 00f9 03       		.uleb128 0x3
 509 00fa 57020000 		.4byte	.LASF21
 510 00fe 04       		.byte	0x4
 511 00ff 99       		.byte	0x99
 512 0100 09010000 		.4byte	0x109
 513 0104 05       		.uleb128 0x5
ARM GAS  /tmp/ccC8Q1dS.s 			page 10


 514 0105 F9000000 		.4byte	0xf9
 515 0109 06       		.uleb128 0x6
 516 010a 57020000 		.4byte	.LASF21
 517 010e 20       		.byte	0x20
 518 010f 04       		.byte	0x4
 519 0110 0F01     		.2byte	0x10f
 520 0112 99010000 		.4byte	0x199
 521 0116 07       		.uleb128 0x7
 522 0117 EE000000 		.4byte	.LASF22
 523 011b 04       		.byte	0x4
 524 011c 1401     		.2byte	0x114
 525 011e EE000000 		.4byte	0xee
 526 0122 00       		.byte	0
 527 0123 07       		.uleb128 0x7
 528 0124 31020000 		.4byte	.LASF23
 529 0128 04       		.byte	0x4
 530 0129 2801     		.2byte	0x128
 531 012b F4010000 		.4byte	0x1f4
 532 012f 08       		.byte	0x8
 533 0130 07       		.uleb128 0x7
 534 0131 40010000 		.4byte	.LASF24
 535 0135 04       		.byte	0x4
 536 0136 2D01     		.2byte	0x12d
 537 0138 EC010000 		.4byte	0x1ec
 538 013c 0C       		.byte	0xc
 539 013d 07       		.uleb128 0x7
 540 013e E1000000 		.4byte	.LASF25
 541 0142 04       		.byte	0x4
 542 0143 2F01     		.2byte	0x12f
 543 0145 F4010000 		.4byte	0x1f4
 544 0149 10       		.byte	0x10
 545 014a 07       		.uleb128 0x7
 546 014b 06030000 		.4byte	.LASF26
 547 014f 04       		.byte	0x4
 548 0150 3101     		.2byte	0x131
 549 0152 C8000000 		.4byte	0xc8
 550 0156 14       		.byte	0x14
 551 0157 07       		.uleb128 0x7
 552 0158 00000000 		.4byte	.LASF27
 553 015c 04       		.byte	0x4
 554 015d 3601     		.2byte	0x136
 555 015f C8000000 		.4byte	0xc8
 556 0163 16       		.byte	0x16
 557 0164 07       		.uleb128 0x7
 558 0165 1B020000 		.4byte	.LASF28
 559 0169 04       		.byte	0x4
 560 016a 3701     		.2byte	0x137
 561 016c AD000000 		.4byte	0xad
 562 0170 18       		.byte	0x18
 563 0171 07       		.uleb128 0x7
 564 0172 12030000 		.4byte	.LASF29
 565 0176 04       		.byte	0x4
 566 0177 3801     		.2byte	0x138
 567 0179 AD000000 		.4byte	0xad
 568 017d 19       		.byte	0x19
 569 017e 07       		.uleb128 0x7
 570 017f 12000000 		.4byte	.LASF30
ARM GAS  /tmp/ccC8Q1dS.s 			page 11


 571 0183 04       		.byte	0x4
 572 0184 3901     		.2byte	0x139
 573 0186 AD000000 		.4byte	0xad
 574 018a 1A       		.byte	0x1a
 575 018b 07       		.uleb128 0x7
 576 018c A3010000 		.4byte	.LASF31
 577 0190 04       		.byte	0x4
 578 0191 3A01     		.2byte	0x13a
 579 0193 AD000000 		.4byte	0xad
 580 0197 1B       		.byte	0x1b
 581 0198 00       		.byte	0
 582 0199 02       		.uleb128 0x2
 583 019a 01       		.byte	0x1
 584 019b 02       		.byte	0x2
 585 019c 0D020000 		.4byte	.LASF32
 586 01a0 02       		.uleb128 0x2
 587 01a1 01       		.byte	0x1
 588 01a2 08       		.byte	0x8
 589 01a3 08020000 		.4byte	.LASF33
 590 01a7 08       		.uleb128 0x8
 591 01a8 91010000 		.4byte	.LASF34
 592 01ac 04       		.byte	0x4
 593 01ad 04       		.byte	0x4
 594 01ae D7       		.byte	0xd7
 595 01af CC010000 		.4byte	0x1cc
 596 01b3 09       		.uleb128 0x9
 597 01b4 51030000 		.4byte	.LASF35
 598 01b8 04       		.byte	0x4
 599 01b9 D9       		.byte	0xd9
 600 01ba CC010000 		.4byte	0x1cc
 601 01be 00       		.byte	0
 602 01bf 09       		.uleb128 0x9
 603 01c0 49020000 		.4byte	.LASF36
 604 01c4 04       		.byte	0x4
 605 01c5 DA       		.byte	0xda
 606 01c6 D2010000 		.4byte	0x1d2
 607 01ca 04       		.byte	0x4
 608 01cb 00       		.byte	0
 609 01cc 0A       		.uleb128 0xa
 610 01cd 04       		.byte	0x4
 611 01ce A7010000 		.4byte	0x1a7
 612 01d2 0B       		.uleb128 0xb
 613 01d3 AD000000 		.4byte	0xad
 614 01d7 E1010000 		.4byte	0x1e1
 615 01db 0C       		.uleb128 0xc
 616 01dc A6000000 		.4byte	0xa6
 617 01e0 00       		.byte	0
 618 01e1 03       		.uleb128 0x3
 619 01e2 91010000 		.4byte	.LASF34
 620 01e6 04       		.byte	0x4
 621 01e7 DB       		.byte	0xdb
 622 01e8 A7010000 		.4byte	0x1a7
 623 01ec 0A       		.uleb128 0xa
 624 01ed 04       		.byte	0x4
 625 01ee E1010000 		.4byte	0x1e1
 626 01f2 0D       		.uleb128 0xd
 627 01f3 04       		.byte	0x4
ARM GAS  /tmp/ccC8Q1dS.s 			page 12


 628 01f4 0A       		.uleb128 0xa
 629 01f5 04       		.byte	0x4
 630 01f6 B8000000 		.4byte	0xb8
 631 01fa 0E       		.uleb128 0xe
 632 01fb 08       		.byte	0x8
 633 01fc 05       		.byte	0x5
 634 01fd 30       		.byte	0x30
 635 01fe 1B020000 		.4byte	0x21b
 636 0202 0F       		.uleb128 0xf
 637 0203 6C656E00 		.ascii	"len\000"
 638 0207 05       		.byte	0x5
 639 0208 32       		.byte	0x32
 640 0209 AD000000 		.4byte	0xad
 641 020d 00       		.byte	0
 642 020e 09       		.uleb128 0x9
 643 020f 49020000 		.4byte	.LASF36
 644 0213 05       		.byte	0x5
 645 0214 33       		.byte	0x33
 646 0215 1B020000 		.4byte	0x21b
 647 0219 04       		.byte	0x4
 648 021a 00       		.byte	0
 649 021b 0A       		.uleb128 0xa
 650 021c 04       		.byte	0x4
 651 021d BD000000 		.4byte	0xbd
 652 0221 0E       		.uleb128 0xe
 653 0222 08       		.byte	0x8
 654 0223 05       		.byte	0x5
 655 0224 2D       		.byte	0x2d
 656 0225 36020000 		.4byte	0x236
 657 0229 0F       		.uleb128 0xf
 658 022a 636D6400 		.ascii	"cmd\000"
 659 022e 05       		.byte	0x5
 660 022f 34       		.byte	0x34
 661 0230 FA010000 		.4byte	0x1fa
 662 0234 00       		.byte	0
 663 0235 00       		.byte	0
 664 0236 03       		.uleb128 0x3
 665 0237 31030000 		.4byte	.LASF37
 666 023b 05       		.byte	0x5
 667 023c 36       		.byte	0x36
 668 023d 21020000 		.4byte	0x221
 669 0241 10       		.uleb128 0x10
 670 0242 2E000000 		.4byte	.LASF42
 671 0246 01       		.byte	0x1
 672 0247 AA       		.byte	0xaa
 673 0248 D3000000 		.4byte	0xd3
 674 024c 00000000 		.4byte	.LFB3
 675 0250 48000000 		.4byte	.LFE3-.LFB3
 676 0254 01       		.uleb128 0x1
 677 0255 9C       		.byte	0x9c
 678 0256 01030000 		.4byte	0x301
 679 025a 11       		.uleb128 0x11
 680 025b 4E020000 		.4byte	.LASF38
 681 025f 01       		.byte	0x1
 682 0260 AA       		.byte	0xaa
 683 0261 01030000 		.4byte	0x301
 684 0265 00000000 		.4byte	.LLST16
ARM GAS  /tmp/ccC8Q1dS.s 			page 13


 685 0269 11       		.uleb128 0x11
 686 026a 06030000 		.4byte	.LASF26
 687 026e 01       		.byte	0x1
 688 026f AB       		.byte	0xab
 689 0270 C8000000 		.4byte	0xc8
 690 0274 1E000000 		.4byte	.LLST17
 691 0278 11       		.uleb128 0x11
 692 0279 0D000000 		.4byte	.LASF39
 693 027d 01       		.byte	0x1
 694 027e AC       		.byte	0xac
 695 027f 07030000 		.4byte	0x307
 696 0283 3F000000 		.4byte	.LLST18
 697 0287 11       		.uleb128 0x11
 698 0288 B4000000 		.4byte	.LASF40
 699 028c 01       		.byte	0x1
 700 028d AD       		.byte	0xad
 701 028e 0D030000 		.4byte	0x30d
 702 0292 5D000000 		.4byte	.LLST19
 703 0296 12       		.uleb128 0x12
 704 0297 C9000000 		.4byte	.LASF41
 705 029b 01       		.byte	0x1
 706 029c AF       		.byte	0xaf
 707 029d DE000000 		.4byte	0xde
 708 02a1 00       		.byte	0
 709 02a2 13       		.uleb128 0x13
 710 02a3 72657400 		.ascii	"ret\000"
 711 02a7 01       		.byte	0x1
 712 02a8 B0       		.byte	0xb0
 713 02a9 D3000000 		.4byte	0xd3
 714 02ad 7B000000 		.4byte	.LLST20
 715 02b1 13       		.uleb128 0x13
 716 02b2 74616F00 		.ascii	"tao\000"
 717 02b6 01       		.byte	0x1
 718 02b7 B6       		.byte	0xb6
 719 02b8 AD000000 		.4byte	0xad
 720 02bc 9A000000 		.4byte	.LLST21
 721 02c0 14       		.uleb128 0x14
 722 02c1 00000000 		.4byte	.Ldebug_ranges0+0
 723 02c5 D7020000 		.4byte	0x2d7
 724 02c9 13       		.uleb128 0x13
 725 02ca 6300     		.ascii	"c\000"
 726 02cc 01       		.byte	0x1
 727 02cd BB       		.byte	0xbb
 728 02ce E3000000 		.4byte	0xe3
 729 02d2 B9000000 		.4byte	.LLST22
 730 02d6 00       		.byte	0
 731 02d7 15       		.uleb128 0x15
 732 02d8 34000000 		.4byte	.LVL46
 733 02dc 19030000 		.4byte	0x319
 734 02e0 16       		.uleb128 0x16
 735 02e1 01       		.uleb128 0x1
 736 02e2 50       		.byte	0x50
 737 02e3 02       		.uleb128 0x2
 738 02e4 7A       		.byte	0x7a
 739 02e5 00       		.sleb128 0
 740 02e6 16       		.uleb128 0x16
 741 02e7 01       		.uleb128 0x1
ARM GAS  /tmp/ccC8Q1dS.s 			page 14


 742 02e8 51       		.byte	0x51
 743 02e9 02       		.uleb128 0x2
 744 02ea 79       		.byte	0x79
 745 02eb 00       		.sleb128 0
 746 02ec 16       		.uleb128 0x16
 747 02ed 01       		.uleb128 0x1
 748 02ee 52       		.byte	0x52
 749 02ef 02       		.uleb128 0x2
 750 02f0 76       		.byte	0x76
 751 02f1 00       		.sleb128 0
 752 02f2 16       		.uleb128 0x16
 753 02f3 01       		.uleb128 0x1
 754 02f4 53       		.byte	0x53
 755 02f5 02       		.uleb128 0x2
 756 02f6 78       		.byte	0x78
 757 02f7 00       		.sleb128 0
 758 02f8 16       		.uleb128 0x16
 759 02f9 02       		.uleb128 0x2
 760 02fa 7D       		.byte	0x7d
 761 02fb 00       		.sleb128 0
 762 02fc 02       		.uleb128 0x2
 763 02fd 74       		.byte	0x74
 764 02fe 00       		.sleb128 0
 765 02ff 00       		.byte	0
 766 0300 00       		.byte	0
 767 0301 0A       		.uleb128 0xa
 768 0302 04       		.byte	0x4
 769 0303 04010000 		.4byte	0x104
 770 0307 0A       		.uleb128 0xa
 771 0308 04       		.byte	0x4
 772 0309 36020000 		.4byte	0x236
 773 030d 0A       		.uleb128 0xa
 774 030e 04       		.byte	0x4
 775 030f 13030000 		.4byte	0x313
 776 0313 0A       		.uleb128 0xa
 777 0314 04       		.byte	0x4
 778 0315 AD000000 		.4byte	0xad
 779 0319 10       		.uleb128 0x10
 780 031a B2010000 		.4byte	.LASF43
 781 031e 01       		.byte	0x1
 782 031f 5B       		.byte	0x5b
 783 0320 D3000000 		.4byte	0xd3
 784 0324 00000000 		.4byte	.LFB2
 785 0328 A4000000 		.4byte	.LFE2-.LFB2
 786 032c 01       		.uleb128 0x1
 787 032d 9C       		.byte	0x9c
 788 032e 07040000 		.4byte	0x407
 789 0332 11       		.uleb128 0x11
 790 0333 4E020000 		.4byte	.LASF38
 791 0337 01       		.byte	0x1
 792 0338 5C       		.byte	0x5c
 793 0339 01030000 		.4byte	0x301
 794 033d CD000000 		.4byte	.LLST8
 795 0341 11       		.uleb128 0x11
 796 0342 06030000 		.4byte	.LASF26
 797 0346 01       		.byte	0x1
 798 0347 5D       		.byte	0x5d
ARM GAS  /tmp/ccC8Q1dS.s 			page 15


 799 0348 C8000000 		.4byte	0xc8
 800 034c 17010000 		.4byte	.LLST9
 801 0350 11       		.uleb128 0x11
 802 0351 0D000000 		.4byte	.LASF39
 803 0355 01       		.byte	0x1
 804 0356 5E       		.byte	0x5e
 805 0357 07030000 		.4byte	0x307
 806 035b 51010000 		.4byte	.LLST10
 807 035f 11       		.uleb128 0x11
 808 0360 B4000000 		.4byte	.LASF40
 809 0364 01       		.byte	0x1
 810 0365 5F       		.byte	0x5f
 811 0366 0D030000 		.4byte	0x30d
 812 036a 85010000 		.4byte	.LLST11
 813 036e 11       		.uleb128 0x11
 814 036f C9000000 		.4byte	.LASF41
 815 0373 01       		.byte	0x1
 816 0374 60       		.byte	0x60
 817 0375 D3000000 		.4byte	0xd3
 818 0379 A3010000 		.4byte	.LLST12
 819 037d 17       		.uleb128 0x17
 820 037e 74616F00 		.ascii	"tao\000"
 821 0382 01       		.byte	0x1
 822 0383 61       		.byte	0x61
 823 0384 AD000000 		.4byte	0xad
 824 0388 15020000 		.4byte	.LLST13
 825 038c 13       		.uleb128 0x13
 826 038d 72657400 		.ascii	"ret\000"
 827 0391 01       		.byte	0x1
 828 0392 63       		.byte	0x63
 829 0393 D3000000 		.4byte	0xd3
 830 0397 35020000 		.4byte	.LLST14
 831 039b 13       		.uleb128 0x13
 832 039c 6300     		.ascii	"c\000"
 833 039e 01       		.byte	0x1
 834 039f 64       		.byte	0x64
 835 03a0 E3000000 		.4byte	0xe3
 836 03a4 76020000 		.4byte	.LLST15
 837 03a8 18       		.uleb128 0x18
 838 03a9 5D000000 		.4byte	.LASF54
 839 03ad 01       		.byte	0x1
 840 03ae 95       		.byte	0x95
 841 03af 2C000000 		.4byte	.L17
 842 03b3 19       		.uleb128 0x19
 843 03b4 26000000 		.4byte	.LVL23
 844 03b8 13050000 		.4byte	0x513
 845 03bc DF030000 		.4byte	0x3df
 846 03c0 16       		.uleb128 0x16
 847 03c1 01       		.uleb128 0x1
 848 03c2 50       		.byte	0x50
 849 03c3 02       		.uleb128 0x2
 850 03c4 79       		.byte	0x79
 851 03c5 00       		.sleb128 0
 852 03c6 16       		.uleb128 0x16
 853 03c7 01       		.uleb128 0x1
 854 03c8 51       		.byte	0x51
 855 03c9 03       		.uleb128 0x3
ARM GAS  /tmp/ccC8Q1dS.s 			page 16


 856 03ca 91       		.byte	0x91
 857 03cb 00       		.sleb128 0
 858 03cc 06       		.byte	0x6
 859 03cd 16       		.uleb128 0x16
 860 03ce 01       		.uleb128 0x1
 861 03cf 52       		.byte	0x52
 862 03d0 01       		.uleb128 0x1
 863 03d1 35       		.byte	0x35
 864 03d2 16       		.uleb128 0x16
 865 03d3 01       		.uleb128 0x1
 866 03d4 53       		.byte	0x53
 867 03d5 01       		.uleb128 0x1
 868 03d6 30       		.byte	0x30
 869 03d7 16       		.uleb128 0x16
 870 03d8 02       		.uleb128 0x2
 871 03d9 7D       		.byte	0x7d
 872 03da 00       		.sleb128 0
 873 03db 02       		.uleb128 0x2
 874 03dc 78       		.byte	0x78
 875 03dd 00       		.sleb128 0
 876 03de 00       		.byte	0
 877 03df 15       		.uleb128 0x15
 878 03e0 8E000000 		.4byte	.LVL37
 879 03e4 13050000 		.4byte	0x513
 880 03e8 16       		.uleb128 0x16
 881 03e9 01       		.uleb128 0x1
 882 03ea 50       		.byte	0x50
 883 03eb 02       		.uleb128 0x2
 884 03ec 79       		.byte	0x79
 885 03ed 00       		.sleb128 0
 886 03ee 16       		.uleb128 0x16
 887 03ef 01       		.uleb128 0x1
 888 03f0 51       		.byte	0x51
 889 03f1 02       		.uleb128 0x2
 890 03f2 74       		.byte	0x74
 891 03f3 72       		.sleb128 -14
 892 03f4 16       		.uleb128 0x16
 893 03f5 01       		.uleb128 0x1
 894 03f6 52       		.byte	0x52
 895 03f7 01       		.uleb128 0x1
 896 03f8 3E       		.byte	0x3e
 897 03f9 16       		.uleb128 0x16
 898 03fa 01       		.uleb128 0x1
 899 03fb 53       		.byte	0x53
 900 03fc 01       		.uleb128 0x1
 901 03fd 31       		.byte	0x31
 902 03fe 16       		.uleb128 0x16
 903 03ff 02       		.uleb128 0x2
 904 0400 7D       		.byte	0x7d
 905 0401 00       		.sleb128 0
 906 0402 02       		.uleb128 0x2
 907 0403 77       		.byte	0x77
 908 0404 00       		.sleb128 0
 909 0405 00       		.byte	0
 910 0406 00       		.byte	0
 911 0407 10       		.uleb128 0x10
 912 0408 7A020000 		.4byte	.LASF44
ARM GAS  /tmp/ccC8Q1dS.s 			page 17


 913 040c 01       		.byte	0x1
 914 040d 46       		.byte	0x46
 915 040e E3000000 		.4byte	0xe3
 916 0412 00000000 		.4byte	.LFB1
 917 0416 10000000 		.4byte	.LFE1-.LFB1
 918 041a 01       		.uleb128 0x1
 919 041b 9C       		.byte	0x9c
 920 041c 70040000 		.4byte	0x470
 921 0420 11       		.uleb128 0x11
 922 0421 DA000000 		.4byte	.LASF45
 923 0425 01       		.byte	0x1
 924 0426 46       		.byte	0x46
 925 0427 07030000 		.4byte	0x307
 926 042b C7020000 		.4byte	.LLST5
 927 042f 11       		.uleb128 0x11
 928 0430 55000000 		.4byte	.LASF46
 929 0434 01       		.byte	0x1
 930 0435 46       		.byte	0x46
 931 0436 F2010000 		.4byte	0x1f2
 932 043a E8020000 		.4byte	.LLST6
 933 043e 1A       		.uleb128 0x1a
 934 043f C9000000 		.4byte	.LASF41
 935 0443 01       		.byte	0x1
 936 0444 48       		.byte	0x48
 937 0445 E3000000 		.4byte	0xe3
 938 0449 09030000 		.4byte	.LLST7
 939 044d 15       		.uleb128 0x15
 940 044e 0A000000 		.4byte	.LVL15
 941 0452 70040000 		.4byte	0x470
 942 0456 16       		.uleb128 0x16
 943 0457 01       		.uleb128 0x1
 944 0458 50       		.byte	0x50
 945 0459 03       		.uleb128 0x3
 946 045a F3       		.byte	0xf3
 947 045b 01       		.uleb128 0x1
 948 045c 50       		.byte	0x50
 949 045d 16       		.uleb128 0x16
 950 045e 01       		.uleb128 0x1
 951 045f 51       		.byte	0x51
 952 0460 03       		.uleb128 0x3
 953 0461 F3       		.byte	0xf3
 954 0462 01       		.uleb128 0x1
 955 0463 51       		.byte	0x51
 956 0464 16       		.uleb128 0x16
 957 0465 01       		.uleb128 0x1
 958 0466 52       		.byte	0x52
 959 0467 01       		.uleb128 0x1
 960 0468 30       		.byte	0x30
 961 0469 16       		.uleb128 0x16
 962 046a 01       		.uleb128 0x1
 963 046b 53       		.byte	0x53
 964 046c 01       		.uleb128 0x1
 965 046d 31       		.byte	0x31
 966 046e 00       		.byte	0
 967 046f 00       		.byte	0
 968 0470 10       		.uleb128 0x10
 969 0471 A1020000 		.4byte	.LASF47
ARM GAS  /tmp/ccC8Q1dS.s 			page 18


 970 0475 01       		.byte	0x1
 971 0476 24       		.byte	0x24
 972 0477 E3000000 		.4byte	0xe3
 973 047b 00000000 		.4byte	.LFB0
 974 047f 40000000 		.4byte	.LFE0-.LFB0
 975 0483 01       		.uleb128 0x1
 976 0484 9C       		.byte	0x9c
 977 0485 13050000 		.4byte	0x513
 978 0489 11       		.uleb128 0x11
 979 048a DA000000 		.4byte	.LASF45
 980 048e 01       		.byte	0x1
 981 048f 24       		.byte	0x24
 982 0490 07030000 		.4byte	0x307
 983 0494 35030000 		.4byte	.LLST0
 984 0498 11       		.uleb128 0x11
 985 0499 55000000 		.4byte	.LASF46
 986 049d 01       		.byte	0x1
 987 049e 25       		.byte	0x25
 988 049f F2010000 		.4byte	0x1f2
 989 04a3 69030000 		.4byte	.LLST1
 990 04a7 11       		.uleb128 0x11
 991 04a8 C9000000 		.4byte	.LASF41
 992 04ac 01       		.byte	0x1
 993 04ad 26       		.byte	0x26
 994 04ae E3000000 		.4byte	0xe3
 995 04b2 9D030000 		.4byte	.LLST2
 996 04b6 11       		.uleb128 0x11
 997 04b7 D1020000 		.4byte	.LASF48
 998 04bb 01       		.byte	0x1
 999 04bc 27       		.byte	0x27
 1000 04bd AD000000 		.4byte	0xad
 1001 04c1 D1030000 		.4byte	.LLST3
 1002 04c5 13       		.uleb128 0x13
 1003 04c6 6300     		.ascii	"c\000"
 1004 04c8 01       		.byte	0x1
 1005 04c9 29       		.byte	0x29
 1006 04ca E3000000 		.4byte	0xe3
 1007 04ce 0B040000 		.4byte	.LLST4
 1008 04d2 19       		.uleb128 0x19
 1009 04d3 20000000 		.4byte	.LVL3
 1010 04d7 1F050000 		.4byte	0x51f
 1011 04db F1040000 		.4byte	0x4f1
 1012 04df 16       		.uleb128 0x16
 1013 04e0 01       		.uleb128 0x1
 1014 04e1 50       		.byte	0x50
 1015 04e2 02       		.uleb128 0x2
 1016 04e3 77       		.byte	0x77
 1017 04e4 00       		.sleb128 0
 1018 04e5 16       		.uleb128 0x16
 1019 04e6 01       		.uleb128 0x1
 1020 04e7 51       		.byte	0x51
 1021 04e8 02       		.uleb128 0x2
 1022 04e9 75       		.byte	0x75
 1023 04ea 00       		.sleb128 0
 1024 04eb 16       		.uleb128 0x16
 1025 04ec 01       		.uleb128 0x1
 1026 04ed 52       		.byte	0x52
ARM GAS  /tmp/ccC8Q1dS.s 			page 19


 1027 04ee 01       		.uleb128 0x1
 1028 04ef 3E       		.byte	0x3e
 1029 04f0 00       		.byte	0
 1030 04f1 15       		.uleb128 0x15
 1031 04f2 3C000000 		.4byte	.LVL12
 1032 04f6 1F050000 		.4byte	0x51f
 1033 04fa 16       		.uleb128 0x16
 1034 04fb 01       		.uleb128 0x1
 1035 04fc 50       		.byte	0x50
 1036 04fd 02       		.uleb128 0x2
 1037 04fe 77       		.byte	0x77
 1038 04ff 00       		.sleb128 0
 1039 0500 16       		.uleb128 0x16
 1040 0501 01       		.uleb128 0x1
 1041 0502 51       		.byte	0x51
 1042 0503 02       		.uleb128 0x2
 1043 0504 75       		.byte	0x75
 1044 0505 00       		.sleb128 0
 1045 0506 16       		.uleb128 0x16
 1046 0507 01       		.uleb128 0x1
 1047 0508 52       		.byte	0x52
 1048 0509 01       		.uleb128 0x1
 1049 050a 35       		.byte	0x35
 1050 050b 16       		.uleb128 0x16
 1051 050c 01       		.uleb128 0x1
 1052 050d 53       		.byte	0x53
 1053 050e 02       		.uleb128 0x2
 1054 050f 76       		.byte	0x76
 1055 0510 00       		.sleb128 0
 1056 0511 00       		.byte	0
 1057 0512 00       		.byte	0
 1058 0513 1B       		.uleb128 0x1b
 1059 0514 1E030000 		.4byte	.LASF49
 1060 0518 1E030000 		.4byte	.LASF49
 1061 051c 04       		.byte	0x4
 1062 051d CD01     		.2byte	0x1cd
 1063 051f 1B       		.uleb128 0x1b
 1064 0520 F5010000 		.4byte	.LASF50
 1065 0524 F5010000 		.4byte	.LASF50
 1066 0528 04       		.byte	0x4
 1067 0529 E701     		.2byte	0x1e7
 1068 052b 00       		.byte	0
 1069              		.section	.debug_abbrev,"",%progbits
 1070              	.Ldebug_abbrev0:
 1071 0000 01       		.uleb128 0x1
 1072 0001 11       		.uleb128 0x11
 1073 0002 01       		.byte	0x1
 1074 0003 25       		.uleb128 0x25
 1075 0004 0E       		.uleb128 0xe
 1076 0005 13       		.uleb128 0x13
 1077 0006 0B       		.uleb128 0xb
 1078 0007 03       		.uleb128 0x3
 1079 0008 0E       		.uleb128 0xe
 1080 0009 1B       		.uleb128 0x1b
 1081 000a 0E       		.uleb128 0xe
 1082 000b 55       		.uleb128 0x55
 1083 000c 17       		.uleb128 0x17
ARM GAS  /tmp/ccC8Q1dS.s 			page 20


 1084 000d 11       		.uleb128 0x11
 1085 000e 01       		.uleb128 0x1
 1086 000f 10       		.uleb128 0x10
 1087 0010 17       		.uleb128 0x17
 1088 0011 00       		.byte	0
 1089 0012 00       		.byte	0
 1090 0013 02       		.uleb128 0x2
 1091 0014 24       		.uleb128 0x24
 1092 0015 00       		.byte	0
 1093 0016 0B       		.uleb128 0xb
 1094 0017 0B       		.uleb128 0xb
 1095 0018 3E       		.uleb128 0x3e
 1096 0019 0B       		.uleb128 0xb
 1097 001a 03       		.uleb128 0x3
 1098 001b 0E       		.uleb128 0xe
 1099 001c 00       		.byte	0
 1100 001d 00       		.byte	0
 1101 001e 03       		.uleb128 0x3
 1102 001f 16       		.uleb128 0x16
 1103 0020 00       		.byte	0
 1104 0021 03       		.uleb128 0x3
 1105 0022 0E       		.uleb128 0xe
 1106 0023 3A       		.uleb128 0x3a
 1107 0024 0B       		.uleb128 0xb
 1108 0025 3B       		.uleb128 0x3b
 1109 0026 0B       		.uleb128 0xb
 1110 0027 49       		.uleb128 0x49
 1111 0028 13       		.uleb128 0x13
 1112 0029 00       		.byte	0
 1113 002a 00       		.byte	0
 1114 002b 04       		.uleb128 0x4
 1115 002c 24       		.uleb128 0x24
 1116 002d 00       		.byte	0
 1117 002e 0B       		.uleb128 0xb
 1118 002f 0B       		.uleb128 0xb
 1119 0030 3E       		.uleb128 0x3e
 1120 0031 0B       		.uleb128 0xb
 1121 0032 03       		.uleb128 0x3
 1122 0033 08       		.uleb128 0x8
 1123 0034 00       		.byte	0
 1124 0035 00       		.byte	0
 1125 0036 05       		.uleb128 0x5
 1126 0037 26       		.uleb128 0x26
 1127 0038 00       		.byte	0
 1128 0039 49       		.uleb128 0x49
 1129 003a 13       		.uleb128 0x13
 1130 003b 00       		.byte	0
 1131 003c 00       		.byte	0
 1132 003d 06       		.uleb128 0x6
 1133 003e 13       		.uleb128 0x13
 1134 003f 01       		.byte	0x1
 1135 0040 03       		.uleb128 0x3
 1136 0041 0E       		.uleb128 0xe
 1137 0042 0B       		.uleb128 0xb
 1138 0043 0B       		.uleb128 0xb
 1139 0044 3A       		.uleb128 0x3a
 1140 0045 0B       		.uleb128 0xb
ARM GAS  /tmp/ccC8Q1dS.s 			page 21


 1141 0046 3B       		.uleb128 0x3b
 1142 0047 05       		.uleb128 0x5
 1143 0048 01       		.uleb128 0x1
 1144 0049 13       		.uleb128 0x13
 1145 004a 00       		.byte	0
 1146 004b 00       		.byte	0
 1147 004c 07       		.uleb128 0x7
 1148 004d 0D       		.uleb128 0xd
 1149 004e 00       		.byte	0
 1150 004f 03       		.uleb128 0x3
 1151 0050 0E       		.uleb128 0xe
 1152 0051 3A       		.uleb128 0x3a
 1153 0052 0B       		.uleb128 0xb
 1154 0053 3B       		.uleb128 0x3b
 1155 0054 05       		.uleb128 0x5
 1156 0055 49       		.uleb128 0x49
 1157 0056 13       		.uleb128 0x13
 1158 0057 38       		.uleb128 0x38
 1159 0058 0B       		.uleb128 0xb
 1160 0059 00       		.byte	0
 1161 005a 00       		.byte	0
 1162 005b 08       		.uleb128 0x8
 1163 005c 13       		.uleb128 0x13
 1164 005d 01       		.byte	0x1
 1165 005e 03       		.uleb128 0x3
 1166 005f 0E       		.uleb128 0xe
 1167 0060 0B       		.uleb128 0xb
 1168 0061 0B       		.uleb128 0xb
 1169 0062 3A       		.uleb128 0x3a
 1170 0063 0B       		.uleb128 0xb
 1171 0064 3B       		.uleb128 0x3b
 1172 0065 0B       		.uleb128 0xb
 1173 0066 01       		.uleb128 0x1
 1174 0067 13       		.uleb128 0x13
 1175 0068 00       		.byte	0
 1176 0069 00       		.byte	0
 1177 006a 09       		.uleb128 0x9
 1178 006b 0D       		.uleb128 0xd
 1179 006c 00       		.byte	0
 1180 006d 03       		.uleb128 0x3
 1181 006e 0E       		.uleb128 0xe
 1182 006f 3A       		.uleb128 0x3a
 1183 0070 0B       		.uleb128 0xb
 1184 0071 3B       		.uleb128 0x3b
 1185 0072 0B       		.uleb128 0xb
 1186 0073 49       		.uleb128 0x49
 1187 0074 13       		.uleb128 0x13
 1188 0075 38       		.uleb128 0x38
 1189 0076 0B       		.uleb128 0xb
 1190 0077 00       		.byte	0
 1191 0078 00       		.byte	0
 1192 0079 0A       		.uleb128 0xa
 1193 007a 0F       		.uleb128 0xf
 1194 007b 00       		.byte	0
 1195 007c 0B       		.uleb128 0xb
 1196 007d 0B       		.uleb128 0xb
 1197 007e 49       		.uleb128 0x49
ARM GAS  /tmp/ccC8Q1dS.s 			page 22


 1198 007f 13       		.uleb128 0x13
 1199 0080 00       		.byte	0
 1200 0081 00       		.byte	0
 1201 0082 0B       		.uleb128 0xb
 1202 0083 01       		.uleb128 0x1
 1203 0084 01       		.byte	0x1
 1204 0085 49       		.uleb128 0x49
 1205 0086 13       		.uleb128 0x13
 1206 0087 01       		.uleb128 0x1
 1207 0088 13       		.uleb128 0x13
 1208 0089 00       		.byte	0
 1209 008a 00       		.byte	0
 1210 008b 0C       		.uleb128 0xc
 1211 008c 21       		.uleb128 0x21
 1212 008d 00       		.byte	0
 1213 008e 49       		.uleb128 0x49
 1214 008f 13       		.uleb128 0x13
 1215 0090 00       		.byte	0
 1216 0091 00       		.byte	0
 1217 0092 0D       		.uleb128 0xd
 1218 0093 0F       		.uleb128 0xf
 1219 0094 00       		.byte	0
 1220 0095 0B       		.uleb128 0xb
 1221 0096 0B       		.uleb128 0xb
 1222 0097 00       		.byte	0
 1223 0098 00       		.byte	0
 1224 0099 0E       		.uleb128 0xe
 1225 009a 13       		.uleb128 0x13
 1226 009b 01       		.byte	0x1
 1227 009c 0B       		.uleb128 0xb
 1228 009d 0B       		.uleb128 0xb
 1229 009e 3A       		.uleb128 0x3a
 1230 009f 0B       		.uleb128 0xb
 1231 00a0 3B       		.uleb128 0x3b
 1232 00a1 0B       		.uleb128 0xb
 1233 00a2 01       		.uleb128 0x1
 1234 00a3 13       		.uleb128 0x13
 1235 00a4 00       		.byte	0
 1236 00a5 00       		.byte	0
 1237 00a6 0F       		.uleb128 0xf
 1238 00a7 0D       		.uleb128 0xd
 1239 00a8 00       		.byte	0
 1240 00a9 03       		.uleb128 0x3
 1241 00aa 08       		.uleb128 0x8
 1242 00ab 3A       		.uleb128 0x3a
 1243 00ac 0B       		.uleb128 0xb
 1244 00ad 3B       		.uleb128 0x3b
 1245 00ae 0B       		.uleb128 0xb
 1246 00af 49       		.uleb128 0x49
 1247 00b0 13       		.uleb128 0x13
 1248 00b1 38       		.uleb128 0x38
 1249 00b2 0B       		.uleb128 0xb
 1250 00b3 00       		.byte	0
 1251 00b4 00       		.byte	0
 1252 00b5 10       		.uleb128 0x10
 1253 00b6 2E       		.uleb128 0x2e
 1254 00b7 01       		.byte	0x1
ARM GAS  /tmp/ccC8Q1dS.s 			page 23


 1255 00b8 3F       		.uleb128 0x3f
 1256 00b9 19       		.uleb128 0x19
 1257 00ba 03       		.uleb128 0x3
 1258 00bb 0E       		.uleb128 0xe
 1259 00bc 3A       		.uleb128 0x3a
 1260 00bd 0B       		.uleb128 0xb
 1261 00be 3B       		.uleb128 0x3b
 1262 00bf 0B       		.uleb128 0xb
 1263 00c0 27       		.uleb128 0x27
 1264 00c1 19       		.uleb128 0x19
 1265 00c2 49       		.uleb128 0x49
 1266 00c3 13       		.uleb128 0x13
 1267 00c4 11       		.uleb128 0x11
 1268 00c5 01       		.uleb128 0x1
 1269 00c6 12       		.uleb128 0x12
 1270 00c7 06       		.uleb128 0x6
 1271 00c8 40       		.uleb128 0x40
 1272 00c9 18       		.uleb128 0x18
 1273 00ca 9742     		.uleb128 0x2117
 1274 00cc 19       		.uleb128 0x19
 1275 00cd 01       		.uleb128 0x1
 1276 00ce 13       		.uleb128 0x13
 1277 00cf 00       		.byte	0
 1278 00d0 00       		.byte	0
 1279 00d1 11       		.uleb128 0x11
 1280 00d2 05       		.uleb128 0x5
 1281 00d3 00       		.byte	0
 1282 00d4 03       		.uleb128 0x3
 1283 00d5 0E       		.uleb128 0xe
 1284 00d6 3A       		.uleb128 0x3a
 1285 00d7 0B       		.uleb128 0xb
 1286 00d8 3B       		.uleb128 0x3b
 1287 00d9 0B       		.uleb128 0xb
 1288 00da 49       		.uleb128 0x49
 1289 00db 13       		.uleb128 0x13
 1290 00dc 02       		.uleb128 0x2
 1291 00dd 17       		.uleb128 0x17
 1292 00de 00       		.byte	0
 1293 00df 00       		.byte	0
 1294 00e0 12       		.uleb128 0x12
 1295 00e1 34       		.uleb128 0x34
 1296 00e2 00       		.byte	0
 1297 00e3 03       		.uleb128 0x3
 1298 00e4 0E       		.uleb128 0xe
 1299 00e5 3A       		.uleb128 0x3a
 1300 00e6 0B       		.uleb128 0xb
 1301 00e7 3B       		.uleb128 0x3b
 1302 00e8 0B       		.uleb128 0xb
 1303 00e9 49       		.uleb128 0x49
 1304 00ea 13       		.uleb128 0x13
 1305 00eb 1C       		.uleb128 0x1c
 1306 00ec 0B       		.uleb128 0xb
 1307 00ed 00       		.byte	0
 1308 00ee 00       		.byte	0
 1309 00ef 13       		.uleb128 0x13
 1310 00f0 34       		.uleb128 0x34
 1311 00f1 00       		.byte	0
ARM GAS  /tmp/ccC8Q1dS.s 			page 24


 1312 00f2 03       		.uleb128 0x3
 1313 00f3 08       		.uleb128 0x8
 1314 00f4 3A       		.uleb128 0x3a
 1315 00f5 0B       		.uleb128 0xb
 1316 00f6 3B       		.uleb128 0x3b
 1317 00f7 0B       		.uleb128 0xb
 1318 00f8 49       		.uleb128 0x49
 1319 00f9 13       		.uleb128 0x13
 1320 00fa 02       		.uleb128 0x2
 1321 00fb 17       		.uleb128 0x17
 1322 00fc 00       		.byte	0
 1323 00fd 00       		.byte	0
 1324 00fe 14       		.uleb128 0x14
 1325 00ff 0B       		.uleb128 0xb
 1326 0100 01       		.byte	0x1
 1327 0101 55       		.uleb128 0x55
 1328 0102 17       		.uleb128 0x17
 1329 0103 01       		.uleb128 0x1
 1330 0104 13       		.uleb128 0x13
 1331 0105 00       		.byte	0
 1332 0106 00       		.byte	0
 1333 0107 15       		.uleb128 0x15
 1334 0108 898201   		.uleb128 0x4109
 1335 010b 01       		.byte	0x1
 1336 010c 11       		.uleb128 0x11
 1337 010d 01       		.uleb128 0x1
 1338 010e 31       		.uleb128 0x31
 1339 010f 13       		.uleb128 0x13
 1340 0110 00       		.byte	0
 1341 0111 00       		.byte	0
 1342 0112 16       		.uleb128 0x16
 1343 0113 8A8201   		.uleb128 0x410a
 1344 0116 00       		.byte	0
 1345 0117 02       		.uleb128 0x2
 1346 0118 18       		.uleb128 0x18
 1347 0119 9142     		.uleb128 0x2111
 1348 011b 18       		.uleb128 0x18
 1349 011c 00       		.byte	0
 1350 011d 00       		.byte	0
 1351 011e 17       		.uleb128 0x17
 1352 011f 05       		.uleb128 0x5
 1353 0120 00       		.byte	0
 1354 0121 03       		.uleb128 0x3
 1355 0122 08       		.uleb128 0x8
 1356 0123 3A       		.uleb128 0x3a
 1357 0124 0B       		.uleb128 0xb
 1358 0125 3B       		.uleb128 0x3b
 1359 0126 0B       		.uleb128 0xb
 1360 0127 49       		.uleb128 0x49
 1361 0128 13       		.uleb128 0x13
 1362 0129 02       		.uleb128 0x2
 1363 012a 17       		.uleb128 0x17
 1364 012b 00       		.byte	0
 1365 012c 00       		.byte	0
 1366 012d 18       		.uleb128 0x18
 1367 012e 0A       		.uleb128 0xa
 1368 012f 00       		.byte	0
ARM GAS  /tmp/ccC8Q1dS.s 			page 25


 1369 0130 03       		.uleb128 0x3
 1370 0131 0E       		.uleb128 0xe
 1371 0132 3A       		.uleb128 0x3a
 1372 0133 0B       		.uleb128 0xb
 1373 0134 3B       		.uleb128 0x3b
 1374 0135 0B       		.uleb128 0xb
 1375 0136 11       		.uleb128 0x11
 1376 0137 01       		.uleb128 0x1
 1377 0138 00       		.byte	0
 1378 0139 00       		.byte	0
 1379 013a 19       		.uleb128 0x19
 1380 013b 898201   		.uleb128 0x4109
 1381 013e 01       		.byte	0x1
 1382 013f 11       		.uleb128 0x11
 1383 0140 01       		.uleb128 0x1
 1384 0141 31       		.uleb128 0x31
 1385 0142 13       		.uleb128 0x13
 1386 0143 01       		.uleb128 0x1
 1387 0144 13       		.uleb128 0x13
 1388 0145 00       		.byte	0
 1389 0146 00       		.byte	0
 1390 0147 1A       		.uleb128 0x1a
 1391 0148 34       		.uleb128 0x34
 1392 0149 00       		.byte	0
 1393 014a 03       		.uleb128 0x3
 1394 014b 0E       		.uleb128 0xe
 1395 014c 3A       		.uleb128 0x3a
 1396 014d 0B       		.uleb128 0xb
 1397 014e 3B       		.uleb128 0x3b
 1398 014f 0B       		.uleb128 0xb
 1399 0150 49       		.uleb128 0x49
 1400 0151 13       		.uleb128 0x13
 1401 0152 02       		.uleb128 0x2
 1402 0153 17       		.uleb128 0x17
 1403 0154 00       		.byte	0
 1404 0155 00       		.byte	0
 1405 0156 1B       		.uleb128 0x1b
 1406 0157 2E       		.uleb128 0x2e
 1407 0158 00       		.byte	0
 1408 0159 3F       		.uleb128 0x3f
 1409 015a 19       		.uleb128 0x19
 1410 015b 3C       		.uleb128 0x3c
 1411 015c 19       		.uleb128 0x19
 1412 015d 6E       		.uleb128 0x6e
 1413 015e 0E       		.uleb128 0xe
 1414 015f 03       		.uleb128 0x3
 1415 0160 0E       		.uleb128 0xe
 1416 0161 3A       		.uleb128 0x3a
 1417 0162 0B       		.uleb128 0xb
 1418 0163 3B       		.uleb128 0x3b
 1419 0164 05       		.uleb128 0x5
 1420 0165 00       		.byte	0
 1421 0166 00       		.byte	0
 1422 0167 00       		.byte	0
 1423              		.section	.debug_loc,"",%progbits
 1424              	.Ldebug_loc0:
 1425              	.LLST16:
ARM GAS  /tmp/ccC8Q1dS.s 			page 26


 1426 0000 00000000 		.4byte	.LVL41
 1427 0004 1A000000 		.4byte	.LVL43
 1428 0008 0100     		.2byte	0x1
 1429 000a 50       		.byte	0x50
 1430 000b 1A000000 		.4byte	.LVL43
 1431 000f 48000000 		.4byte	.LFE3
 1432 0013 0100     		.2byte	0x1
 1433 0015 5A       		.byte	0x5a
 1434 0016 00000000 		.4byte	0
 1435 001a 00000000 		.4byte	0
 1436              	.LLST17:
 1437 001e 00000000 		.4byte	.LVL41
 1438 0022 1A000000 		.4byte	.LVL43
 1439 0026 0100     		.2byte	0x1
 1440 0028 51       		.byte	0x51
 1441 0029 1A000000 		.4byte	.LVL43
 1442 002d 48000000 		.4byte	.LFE3
 1443 0031 0400     		.2byte	0x4
 1444 0033 F3       		.byte	0xf3
 1445 0034 01       		.uleb128 0x1
 1446 0035 51       		.byte	0x51
 1447 0036 9F       		.byte	0x9f
 1448 0037 00000000 		.4byte	0
 1449 003b 00000000 		.4byte	0
 1450              	.LLST18:
 1451 003f 00000000 		.4byte	.LVL41
 1452 0043 08000000 		.4byte	.LVL42
 1453 0047 0100     		.2byte	0x1
 1454 0049 52       		.byte	0x52
 1455 004a 08000000 		.4byte	.LVL42
 1456 004e 48000000 		.4byte	.LFE3
 1457 0052 0100     		.2byte	0x1
 1458 0054 56       		.byte	0x56
 1459 0055 00000000 		.4byte	0
 1460 0059 00000000 		.4byte	0
 1461              	.LLST19:
 1462 005d 00000000 		.4byte	.LVL41
 1463 0061 1A000000 		.4byte	.LVL43
 1464 0065 0100     		.2byte	0x1
 1465 0067 53       		.byte	0x53
 1466 0068 1A000000 		.4byte	.LVL43
 1467 006c 48000000 		.4byte	.LFE3
 1468 0070 0100     		.2byte	0x1
 1469 0072 58       		.byte	0x58
 1470 0073 00000000 		.4byte	0
 1471 0077 00000000 		.4byte	0
 1472              	.LLST20:
 1473 007b 00000000 		.4byte	.LVL41
 1474 007f 1A000000 		.4byte	.LVL43
 1475 0083 0200     		.2byte	0x2
 1476 0085 30       		.byte	0x30
 1477 0086 9F       		.byte	0x9f
 1478 0087 34000000 		.4byte	.LVL46
 1479 008b 48000000 		.4byte	.LFE3
 1480 008f 0100     		.2byte	0x1
 1481 0091 50       		.byte	0x50
 1482 0092 00000000 		.4byte	0
ARM GAS  /tmp/ccC8Q1dS.s 			page 27


 1483 0096 00000000 		.4byte	0
 1484              	.LLST21:
 1485 009a 00000000 		.4byte	.LVL41
 1486 009e 1A000000 		.4byte	.LVL43
 1487 00a2 0200     		.2byte	0x2
 1488 00a4 30       		.byte	0x30
 1489 00a5 9F       		.byte	0x9f
 1490 00a6 1A000000 		.4byte	.LVL43
 1491 00aa 2C000000 		.4byte	.LVL45
 1492 00ae 0100     		.2byte	0x1
 1493 00b0 52       		.byte	0x52
 1494 00b1 00000000 		.4byte	0
 1495 00b5 00000000 		.4byte	0
 1496              	.LLST22:
 1497 00b9 1A000000 		.4byte	.LVL43
 1498 00bd 1C000000 		.4byte	.LVL44
 1499 00c1 0200     		.2byte	0x2
 1500 00c3 30       		.byte	0x30
 1501 00c4 9F       		.byte	0x9f
 1502 00c5 00000000 		.4byte	0
 1503 00c9 00000000 		.4byte	0
 1504              	.LLST8:
 1505 00cd 00000000 		.4byte	.LVL18
 1506 00d1 22000000 		.4byte	.LVL22
 1507 00d5 0100     		.2byte	0x1
 1508 00d7 50       		.byte	0x50
 1509 00d8 22000000 		.4byte	.LVL22
 1510 00dc 3C000000 		.4byte	.LVL27
 1511 00e0 0100     		.2byte	0x1
 1512 00e2 59       		.byte	0x59
 1513 00e3 3C000000 		.4byte	.LVL27
 1514 00e7 58000000 		.4byte	.LVL30
 1515 00eb 0100     		.2byte	0x1
 1516 00ed 50       		.byte	0x50
 1517 00ee 58000000 		.4byte	.LVL30
 1518 00f2 86000000 		.4byte	.LVL36
 1519 00f6 0100     		.2byte	0x1
 1520 00f8 59       		.byte	0x59
 1521 00f9 86000000 		.4byte	.LVL36
 1522 00fd 8D000000 		.4byte	.LVL37-1
 1523 0101 0100     		.2byte	0x1
 1524 0103 50       		.byte	0x50
 1525 0104 8D000000 		.4byte	.LVL37-1
 1526 0108 A4000000 		.4byte	.LFE2
 1527 010c 0100     		.2byte	0x1
 1528 010e 59       		.byte	0x59
 1529 010f 00000000 		.4byte	0
 1530 0113 00000000 		.4byte	0
 1531              	.LLST9:
 1532 0117 00000000 		.4byte	.LVL18
 1533 011b 20000000 		.4byte	.LVL21
 1534 011f 0100     		.2byte	0x1
 1535 0121 51       		.byte	0x51
 1536 0122 20000000 		.4byte	.LVL21
 1537 0126 3C000000 		.4byte	.LVL27
 1538 012a 0400     		.2byte	0x4
 1539 012c F3       		.byte	0xf3
ARM GAS  /tmp/ccC8Q1dS.s 			page 28


 1540 012d 01       		.uleb128 0x1
 1541 012e 51       		.byte	0x51
 1542 012f 9F       		.byte	0x9f
 1543 0130 3C000000 		.4byte	.LVL27
 1544 0134 46000000 		.4byte	.LVL29
 1545 0138 0100     		.2byte	0x1
 1546 013a 51       		.byte	0x51
 1547 013b 46000000 		.4byte	.LVL29
 1548 013f A4000000 		.4byte	.LFE2
 1549 0143 0400     		.2byte	0x4
 1550 0145 F3       		.byte	0xf3
 1551 0146 01       		.uleb128 0x1
 1552 0147 51       		.byte	0x51
 1553 0148 9F       		.byte	0x9f
 1554 0149 00000000 		.4byte	0
 1555 014d 00000000 		.4byte	0
 1556              	.LLST10:
 1557 0151 00000000 		.4byte	.LVL18
 1558 0155 1E000000 		.4byte	.LVL20
 1559 0159 0100     		.2byte	0x1
 1560 015b 52       		.byte	0x52
 1561 015c 1E000000 		.4byte	.LVL20
 1562 0160 3C000000 		.4byte	.LVL27
 1563 0164 0100     		.2byte	0x1
 1564 0166 58       		.byte	0x58
 1565 0167 3C000000 		.4byte	.LVL27
 1566 016b 3E000000 		.4byte	.LVL28
 1567 016f 0100     		.2byte	0x1
 1568 0171 52       		.byte	0x52
 1569 0172 3E000000 		.4byte	.LVL28
 1570 0176 A4000000 		.4byte	.LFE2
 1571 017a 0100     		.2byte	0x1
 1572 017c 58       		.byte	0x58
 1573 017d 00000000 		.4byte	0
 1574 0181 00000000 		.4byte	0
 1575              	.LLST11:
 1576 0185 00000000 		.4byte	.LVL18
 1577 0189 10000000 		.4byte	.LVL19
 1578 018d 0100     		.2byte	0x1
 1579 018f 53       		.byte	0x53
 1580 0190 10000000 		.4byte	.LVL19
 1581 0194 A4000000 		.4byte	.LFE2
 1582 0198 0100     		.2byte	0x1
 1583 019a 56       		.byte	0x56
 1584 019b 00000000 		.4byte	0
 1585 019f 00000000 		.4byte	0
 1586              	.LLST12:
 1587 01a3 00000000 		.4byte	.LVL18
 1588 01a7 2C000000 		.4byte	.LVL25
 1589 01ab 0200     		.2byte	0x2
 1590 01ad 91       		.byte	0x91
 1591 01ae 00       		.sleb128 0
 1592 01af 3C000000 		.4byte	.LVL27
 1593 01b3 58000000 		.4byte	.LVL30
 1594 01b7 0200     		.2byte	0x2
 1595 01b9 91       		.byte	0x91
 1596 01ba 00       		.sleb128 0
ARM GAS  /tmp/ccC8Q1dS.s 			page 29


 1597 01bb 58000000 		.4byte	.LVL30
 1598 01bf 68000000 		.4byte	.LVL31
 1599 01c3 0100     		.2byte	0x1
 1600 01c5 54       		.byte	0x54
 1601 01c6 68000000 		.4byte	.LVL31
 1602 01ca 6E000000 		.4byte	.LVL32
 1603 01ce 0300     		.2byte	0x3
 1604 01d0 74       		.byte	0x74
 1605 01d1 72       		.sleb128 -14
 1606 01d2 9F       		.byte	0x9f
 1607 01d3 6E000000 		.4byte	.LVL32
 1608 01d7 82000000 		.4byte	.LVL35
 1609 01db 0100     		.2byte	0x1
 1610 01dd 54       		.byte	0x54
 1611 01de 82000000 		.4byte	.LVL35
 1612 01e2 8D000000 		.4byte	.LVL37-1
 1613 01e6 0100     		.2byte	0x1
 1614 01e8 51       		.byte	0x51
 1615 01e9 8D000000 		.4byte	.LVL37-1
 1616 01ed 94000000 		.4byte	.LVL38
 1617 01f1 0300     		.2byte	0x3
 1618 01f3 74       		.byte	0x74
 1619 01f4 72       		.sleb128 -14
 1620 01f5 9F       		.byte	0x9f
 1621 01f6 96000000 		.4byte	.LVL39
 1622 01fa 9E000000 		.4byte	.LVL40
 1623 01fe 0200     		.2byte	0x2
 1624 0200 91       		.byte	0x91
 1625 0201 00       		.sleb128 0
 1626 0202 9E000000 		.4byte	.LVL40
 1627 0206 A4000000 		.4byte	.LFE2
 1628 020a 0100     		.2byte	0x1
 1629 020c 54       		.byte	0x54
 1630 020d 00000000 		.4byte	0
 1631 0211 00000000 		.4byte	0
 1632              	.LLST13:
 1633 0215 00000000 		.4byte	.LVL18
 1634 0219 3C000000 		.4byte	.LVL27
 1635 021d 0200     		.2byte	0x2
 1636 021f 91       		.byte	0x91
 1637 0220 04       		.sleb128 4
 1638 0221 3C000000 		.4byte	.LVL27
 1639 0225 A4000000 		.4byte	.LFE2
 1640 0229 0200     		.2byte	0x2
 1641 022b 91       		.byte	0x91
 1642 022c 04       		.sleb128 4
 1643 022d 00000000 		.4byte	0
 1644 0231 00000000 		.4byte	0
 1645              	.LLST14:
 1646 0235 00000000 		.4byte	.LVL18
 1647 0239 2A000000 		.4byte	.LVL24
 1648 023d 0200     		.2byte	0x2
 1649 023f 30       		.byte	0x30
 1650 0240 9F       		.byte	0x9f
 1651 0241 2A000000 		.4byte	.LVL24
 1652 0245 34000000 		.4byte	.LVL26
 1653 0249 0100     		.2byte	0x1
ARM GAS  /tmp/ccC8Q1dS.s 			page 30


 1654 024b 50       		.byte	0x50
 1655 024c 3C000000 		.4byte	.LVL27
 1656 0250 58000000 		.4byte	.LVL30
 1657 0254 0200     		.2byte	0x2
 1658 0256 30       		.byte	0x30
 1659 0257 9F       		.byte	0x9f
 1660 0258 68000000 		.4byte	.LVL31
 1661 025c 6E000000 		.4byte	.LVL32
 1662 0260 0100     		.2byte	0x1
 1663 0262 50       		.byte	0x50
 1664 0263 8E000000 		.4byte	.LVL37
 1665 0267 A4000000 		.4byte	.LFE2
 1666 026b 0100     		.2byte	0x1
 1667 026d 50       		.byte	0x50
 1668 026e 00000000 		.4byte	0
 1669 0272 00000000 		.4byte	0
 1670              	.LLST15:
 1671 0276 00000000 		.4byte	.LVL18
 1672 027a 2C000000 		.4byte	.LVL25
 1673 027e 0200     		.2byte	0x2
 1674 0280 30       		.byte	0x30
 1675 0281 9F       		.byte	0x9f
 1676 0282 3C000000 		.4byte	.LVL27
 1677 0286 68000000 		.4byte	.LVL31
 1678 028a 0200     		.2byte	0x2
 1679 028c 30       		.byte	0x30
 1680 028d 9F       		.byte	0x9f
 1681 028e 68000000 		.4byte	.LVL31
 1682 0292 6E000000 		.4byte	.LVL32
 1683 0296 0300     		.2byte	0x3
 1684 0298 75       		.byte	0x75
 1685 0299 7F       		.sleb128 -1
 1686 029a 9F       		.byte	0x9f
 1687 029b 6E000000 		.4byte	.LVL32
 1688 029f 80000000 		.4byte	.LVL34
 1689 02a3 0100     		.2byte	0x1
 1690 02a5 55       		.byte	0x55
 1691 02a6 80000000 		.4byte	.LVL34
 1692 02aa 96000000 		.4byte	.LVL39
 1693 02ae 0300     		.2byte	0x3
 1694 02b0 75       		.byte	0x75
 1695 02b1 7F       		.sleb128 -1
 1696 02b2 9F       		.byte	0x9f
 1697 02b3 96000000 		.4byte	.LVL39
 1698 02b7 A4000000 		.4byte	.LFE2
 1699 02bb 0200     		.2byte	0x2
 1700 02bd 30       		.byte	0x30
 1701 02be 9F       		.byte	0x9f
 1702 02bf 00000000 		.4byte	0
 1703 02c3 00000000 		.4byte	0
 1704              	.LLST5:
 1705 02c7 00000000 		.4byte	.LVL14
 1706 02cb 09000000 		.4byte	.LVL15-1
 1707 02cf 0100     		.2byte	0x1
 1708 02d1 50       		.byte	0x50
 1709 02d2 09000000 		.4byte	.LVL15-1
 1710 02d6 10000000 		.4byte	.LFE1
ARM GAS  /tmp/ccC8Q1dS.s 			page 31


 1711 02da 0400     		.2byte	0x4
 1712 02dc F3       		.byte	0xf3
 1713 02dd 01       		.uleb128 0x1
 1714 02de 50       		.byte	0x50
 1715 02df 9F       		.byte	0x9f
 1716 02e0 00000000 		.4byte	0
 1717 02e4 00000000 		.4byte	0
 1718              	.LLST6:
 1719 02e8 00000000 		.4byte	.LVL14
 1720 02ec 09000000 		.4byte	.LVL15-1
 1721 02f0 0100     		.2byte	0x1
 1722 02f2 51       		.byte	0x51
 1723 02f3 09000000 		.4byte	.LVL15-1
 1724 02f7 10000000 		.4byte	.LFE1
 1725 02fb 0400     		.2byte	0x4
 1726 02fd F3       		.byte	0xf3
 1727 02fe 01       		.uleb128 0x1
 1728 02ff 51       		.byte	0x51
 1729 0300 9F       		.byte	0x9f
 1730 0301 00000000 		.4byte	0
 1731 0305 00000000 		.4byte	0
 1732              	.LLST7:
 1733 0309 00000000 		.4byte	.LVL14
 1734 030d 0A000000 		.4byte	.LVL15
 1735 0311 0200     		.2byte	0x2
 1736 0313 30       		.byte	0x30
 1737 0314 9F       		.byte	0x9f
 1738 0315 0A000000 		.4byte	.LVL15
 1739 0319 0C000000 		.4byte	.LVL16
 1740 031d 0100     		.2byte	0x1
 1741 031f 50       		.byte	0x50
 1742 0320 0C000000 		.4byte	.LVL16
 1743 0324 0E000000 		.4byte	.LVL17
 1744 0328 0300     		.2byte	0x3
 1745 032a 70       		.byte	0x70
 1746 032b 79       		.sleb128 -7
 1747 032c 9F       		.byte	0x9f
 1748 032d 00000000 		.4byte	0
 1749 0331 00000000 		.4byte	0
 1750              	.LLST0:
 1751 0335 00000000 		.4byte	.LVL0
 1752 0339 0A000000 		.4byte	.LVL1
 1753 033d 0100     		.2byte	0x1
 1754 033f 50       		.byte	0x50
 1755 0340 0A000000 		.4byte	.LVL1
 1756 0344 30000000 		.4byte	.LVL7
 1757 0348 0100     		.2byte	0x1
 1758 034a 56       		.byte	0x56
 1759 034b 30000000 		.4byte	.LVL7
 1760 034f 38000000 		.4byte	.LVL11
 1761 0353 0100     		.2byte	0x1
 1762 0355 50       		.byte	0x50
 1763 0356 38000000 		.4byte	.LVL11
 1764 035a 40000000 		.4byte	.LFE0
 1765 035e 0100     		.2byte	0x1
 1766 0360 56       		.byte	0x56
 1767 0361 00000000 		.4byte	0
ARM GAS  /tmp/ccC8Q1dS.s 			page 32


 1768 0365 00000000 		.4byte	0
 1769              	.LLST1:
 1770 0369 00000000 		.4byte	.LVL0
 1771 036d 0A000000 		.4byte	.LVL1
 1772 0371 0100     		.2byte	0x1
 1773 0373 51       		.byte	0x51
 1774 0374 0A000000 		.4byte	.LVL1
 1775 0378 30000000 		.4byte	.LVL7
 1776 037c 0100     		.2byte	0x1
 1777 037e 57       		.byte	0x57
 1778 037f 30000000 		.4byte	.LVL7
 1779 0383 34000000 		.4byte	.LVL9
 1780 0387 0100     		.2byte	0x1
 1781 0389 51       		.byte	0x51
 1782 038a 34000000 		.4byte	.LVL9
 1783 038e 40000000 		.4byte	.LFE0
 1784 0392 0100     		.2byte	0x1
 1785 0394 57       		.byte	0x57
 1786 0395 00000000 		.4byte	0
 1787 0399 00000000 		.4byte	0
 1788              	.LLST2:
 1789 039d 00000000 		.4byte	.LVL0
 1790 03a1 0A000000 		.4byte	.LVL1
 1791 03a5 0100     		.2byte	0x1
 1792 03a7 52       		.byte	0x52
 1793 03a8 0A000000 		.4byte	.LVL1
 1794 03ac 30000000 		.4byte	.LVL7
 1795 03b0 0100     		.2byte	0x1
 1796 03b2 55       		.byte	0x55
 1797 03b3 30000000 		.4byte	.LVL7
 1798 03b7 36000000 		.4byte	.LVL10
 1799 03bb 0100     		.2byte	0x1
 1800 03bd 52       		.byte	0x52
 1801 03be 36000000 		.4byte	.LVL10
 1802 03c2 40000000 		.4byte	.LFE0
 1803 03c6 0100     		.2byte	0x1
 1804 03c8 55       		.byte	0x55
 1805 03c9 00000000 		.4byte	0
 1806 03cd 00000000 		.4byte	0
 1807              	.LLST3:
 1808 03d1 00000000 		.4byte	.LVL0
 1809 03d5 0A000000 		.4byte	.LVL1
 1810 03d9 0100     		.2byte	0x1
 1811 03db 53       		.byte	0x53
 1812 03dc 0A000000 		.4byte	.LVL1
 1813 03e0 30000000 		.4byte	.LVL7
 1814 03e4 0400     		.2byte	0x4
 1815 03e6 F3       		.byte	0xf3
 1816 03e7 01       		.uleb128 0x1
 1817 03e8 53       		.byte	0x53
 1818 03e9 9F       		.byte	0x9f
 1819 03ea 30000000 		.4byte	.LVL7
 1820 03ee 32000000 		.4byte	.LVL8
 1821 03f2 0100     		.2byte	0x1
 1822 03f4 53       		.byte	0x53
 1823 03f5 32000000 		.4byte	.LVL8
 1824 03f9 40000000 		.4byte	.LFE0
ARM GAS  /tmp/ccC8Q1dS.s 			page 33


 1825 03fd 0400     		.2byte	0x4
 1826 03ff F3       		.byte	0xf3
 1827 0400 01       		.uleb128 0x1
 1828 0401 53       		.byte	0x53
 1829 0402 9F       		.byte	0x9f
 1830 0403 00000000 		.4byte	0
 1831 0407 00000000 		.4byte	0
 1832              	.LLST4:
 1833 040b 00000000 		.4byte	.LVL0
 1834 040f 10000000 		.4byte	.LVL2
 1835 0413 0200     		.2byte	0x2
 1836 0415 30       		.byte	0x30
 1837 0416 9F       		.byte	0x9f
 1838 0417 10000000 		.4byte	.LVL2
 1839 041b 24000000 		.4byte	.LVL4
 1840 041f 0100     		.2byte	0x1
 1841 0421 54       		.byte	0x54
 1842 0422 24000000 		.4byte	.LVL4
 1843 0426 2A000000 		.4byte	.LVL5
 1844 042a 0300     		.2byte	0x3
 1845 042c 74       		.byte	0x74
 1846 042d 7F       		.sleb128 -1
 1847 042e 9F       		.byte	0x9f
 1848 042f 2A000000 		.4byte	.LVL5
 1849 0433 2C000000 		.4byte	.LVL6
 1850 0437 0100     		.2byte	0x1
 1851 0439 54       		.byte	0x54
 1852 043a 30000000 		.4byte	.LVL7
 1853 043e 40000000 		.4byte	.LFE0
 1854 0442 0200     		.2byte	0x2
 1855 0444 30       		.byte	0x30
 1856 0445 9F       		.byte	0x9f
 1857 0446 00000000 		.4byte	0
 1858 044a 00000000 		.4byte	0
 1859              		.section	.debug_aranges,"",%progbits
 1860 0000 34000000 		.4byte	0x34
 1861 0004 0200     		.2byte	0x2
 1862 0006 00000000 		.4byte	.Ldebug_info0
 1863 000a 04       		.byte	0x4
 1864 000b 00       		.byte	0
 1865 000c 0000     		.2byte	0
 1866 000e 0000     		.2byte	0
 1867 0010 00000000 		.4byte	.LFB0
 1868 0014 40000000 		.4byte	.LFE0-.LFB0
 1869 0018 00000000 		.4byte	.LFB1
 1870 001c 10000000 		.4byte	.LFE1-.LFB1
 1871 0020 00000000 		.4byte	.LFB2
 1872 0024 A4000000 		.4byte	.LFE2-.LFB2
 1873 0028 00000000 		.4byte	.LFB3
 1874 002c 48000000 		.4byte	.LFE3-.LFB3
 1875 0030 00000000 		.4byte	0
 1876 0034 00000000 		.4byte	0
 1877              		.section	.debug_ranges,"",%progbits
 1878              	.Ldebug_ranges0:
 1879 0000 14000000 		.4byte	.LBB2
 1880 0004 16000000 		.4byte	.LBE2
 1881 0008 1C000000 		.4byte	.LBB3
ARM GAS  /tmp/ccC8Q1dS.s 			page 34


 1882 000c 24000000 		.4byte	.LBE3
 1883 0010 00000000 		.4byte	0
 1884 0014 00000000 		.4byte	0
 1885 0018 00000000 		.4byte	.LFB0
 1886 001c 40000000 		.4byte	.LFE0
 1887 0020 00000000 		.4byte	.LFB1
 1888 0024 10000000 		.4byte	.LFE1
 1889 0028 00000000 		.4byte	.LFB2
 1890 002c A4000000 		.4byte	.LFE2
 1891 0030 00000000 		.4byte	.LFB3
 1892 0034 48000000 		.4byte	.LFE3
 1893 0038 00000000 		.4byte	0
 1894 003c 00000000 		.4byte	0
 1895              		.section	.debug_line,"",%progbits
 1896              	.Ldebug_line0:
 1897 0000 A0010000 		.section	.debug_str,"MS",%progbits,1
 1897      0200D400 
 1897      00000201 
 1897      FB0E0D00 
 1897      01010101 
 1898              	.LASF27:
 1899 0000 64617461 		.ascii	"data_type_id\000"
 1899      5F747970 
 1899      655F6964 
 1899      00
 1900              	.LASF39:
 1901 000d 64657374 		.ascii	"dest\000"
 1901      00
 1902              	.LASF30:
 1903 0012 7072696F 		.ascii	"priority\000"
 1903      72697479 
 1903      00
 1904              	.LASF20:
 1905 001b 75696E74 		.ascii	"uint64_t\000"
 1905      36345F74 
 1905      00
 1906              	.LASF4:
 1907 0024 73686F72 		.ascii	"short int\000"
 1907      7420696E 
 1907      7400
 1908              	.LASF42:
 1909 002e 75617663 		.ascii	"uavcan_equipment_esc_RawCommand_decode\000"
 1909      616E5F65 
 1909      71756970 
 1909      6D656E74 
 1909      5F657363 
 1910              	.LASF46:
 1911 0055 6D73675F 		.ascii	"msg_buf\000"
 1911      62756600 
 1912              	.LASF54:
 1913 005d 75617663 		.ascii	"uavcan_equipment_esc_RawCommand_error_exit\000"
 1913      616E5F65 
 1913      71756970 
 1913      6D656E74 
 1913      5F657363 
 1914              	.LASF9:
 1915 0088 5F5F7569 		.ascii	"__uint32_t\000"
ARM GAS  /tmp/ccC8Q1dS.s 			page 35


 1915      6E743332 
 1915      5F7400
 1916              	.LASF5:
 1917 0093 5F5F7569 		.ascii	"__uint16_t\000"
 1917      6E743136 
 1917      5F7400
 1918              	.LASF15:
 1919 009e 75696E74 		.ascii	"uint8_t\000"
 1919      385F7400 
 1920              	.LASF11:
 1921 00a6 6C6F6E67 		.ascii	"long long int\000"
 1921      206C6F6E 
 1921      6720696E 
 1921      7400
 1922              	.LASF40:
 1923 00b4 64796E5F 		.ascii	"dyn_arr_buf\000"
 1923      6172725F 
 1923      62756600 
 1924              	.LASF8:
 1925 00c0 6C6F6E67 		.ascii	"long int\000"
 1925      20696E74 
 1925      00
 1926              	.LASF41:
 1927 00c9 6F666673 		.ascii	"offset\000"
 1927      657400
 1928              	.LASF2:
 1929 00d0 5F5F7569 		.ascii	"__uint8_t\000"
 1929      6E74385F 
 1929      7400
 1930              	.LASF45:
 1931 00da 736F7572 		.ascii	"source\000"
 1931      636500
 1932              	.LASF25:
 1933 00e1 7061796C 		.ascii	"payload_tail\000"
 1933      6F61645F 
 1933      7461696C 
 1933      00
 1934              	.LASF22:
 1935 00ee 74696D65 		.ascii	"timestamp_usec\000"
 1935      7374616D 
 1935      705F7573 
 1935      656300
 1936              	.LASF52:
 1937 00fd 6C696263 		.ascii	"libcanard/dsdl/uavcan/equipment/esc/esc_RawCommand."
 1937      616E6172 
 1937      642F6473 
 1937      646C2F75 
 1937      61766361 
 1938 0130 6300     		.ascii	"c\000"
 1939              	.LASF1:
 1940 0132 756E7369 		.ascii	"unsigned char\000"
 1940      676E6564 
 1940      20636861 
 1940      7200
 1941              	.LASF24:
 1942 0140 7061796C 		.ascii	"payload_middle\000"
 1942      6F61645F 
ARM GAS  /tmp/ccC8Q1dS.s 			page 36


 1942      6D696464 
 1942      6C6500
 1943              	.LASF0:
 1944 014f 7369676E 		.ascii	"signed char\000"
 1944      65642063 
 1944      68617200 
 1945              	.LASF13:
 1946 015b 6C6F6E67 		.ascii	"long long unsigned int\000"
 1946      206C6F6E 
 1946      6720756E 
 1946      7369676E 
 1946      65642069 
 1947              	.LASF19:
 1948 0172 75696E74 		.ascii	"uint32_t\000"
 1948      33325F74 
 1948      00
 1949              	.LASF14:
 1950 017b 756E7369 		.ascii	"unsigned int\000"
 1950      676E6564 
 1950      20696E74 
 1950      00
 1951              	.LASF17:
 1952 0188 75696E74 		.ascii	"uint16_t\000"
 1952      31365F74 
 1952      00
 1953              	.LASF34:
 1954 0191 43616E61 		.ascii	"CanardBufferBlock\000"
 1954      72644275 
 1954      66666572 
 1954      426C6F63 
 1954      6B00
 1955              	.LASF31:
 1956 01a3 736F7572 		.ascii	"source_node_id\000"
 1956      63655F6E 
 1956      6F64655F 
 1956      696400
 1957              	.LASF43:
 1958 01b2 75617663 		.ascii	"uavcan_equipment_esc_RawCommand_decode_internal\000"
 1958      616E5F65 
 1958      71756970 
 1958      6D656E74 
 1958      5F657363 
 1959              	.LASF6:
 1960 01e2 73686F72 		.ascii	"short unsigned int\000"
 1960      7420756E 
 1960      7369676E 
 1960      65642069 
 1960      6E7400
 1961              	.LASF50:
 1962 01f5 63616E61 		.ascii	"canardEncodeScalar\000"
 1962      7264456E 
 1962      636F6465 
 1962      5363616C 
 1962      617200
 1963              	.LASF33:
 1964 0208 63686172 		.ascii	"char\000"
 1964      00
ARM GAS  /tmp/ccC8Q1dS.s 			page 37


 1965              	.LASF32:
 1966 020d 5F426F6F 		.ascii	"_Bool\000"
 1966      6C00
 1967              	.LASF18:
 1968 0213 696E7433 		.ascii	"int32_t\000"
 1968      325F7400 
 1969              	.LASF28:
 1970 021b 7472616E 		.ascii	"transfer_type\000"
 1970      73666572 
 1970      5F747970 
 1970      6500
 1971              	.LASF16:
 1972 0229 696E7431 		.ascii	"int16_t\000"
 1972      365F7400 
 1973              	.LASF23:
 1974 0231 7061796C 		.ascii	"payload_head\000"
 1974      6F61645F 
 1974      68656164 
 1974      00
 1975              	.LASF12:
 1976 023e 5F5F7569 		.ascii	"__uint64_t\000"
 1976      6E743634 
 1976      5F7400
 1977              	.LASF36:
 1978 0249 64617461 		.ascii	"data\000"
 1978      00
 1979              	.LASF38:
 1980 024e 7472616E 		.ascii	"transfer\000"
 1980      73666572 
 1980      00
 1981              	.LASF21:
 1982 0257 43616E61 		.ascii	"CanardRxTransfer\000"
 1982      72645278 
 1982      5472616E 
 1982      73666572 
 1982      00
 1983              	.LASF10:
 1984 0268 6C6F6E67 		.ascii	"long unsigned int\000"
 1984      20756E73 
 1984      69676E65 
 1984      6420696E 
 1984      7400
 1985              	.LASF44:
 1986 027a 75617663 		.ascii	"uavcan_equipment_esc_RawCommand_encode\000"
 1986      616E5F65 
 1986      71756970 
 1986      6D656E74 
 1986      5F657363 
 1987              	.LASF47:
 1988 02a1 75617663 		.ascii	"uavcan_equipment_esc_RawCommand_encode_internal\000"
 1988      616E5F65 
 1988      71756970 
 1988      6D656E74 
 1988      5F657363 
 1989              	.LASF48:
 1990 02d1 726F6F74 		.ascii	"root_item\000"
 1990      5F697465 
ARM GAS  /tmp/ccC8Q1dS.s 			page 38


 1990      6D00
 1991              	.LASF53:
 1992 02db 2F686F6D 		.ascii	"/home/patrick/git_bldc\000"
 1992      652F7061 
 1992      74726963 
 1992      6B2F6769 
 1992      745F626C 
 1993              	.LASF7:
 1994 02f2 5F5F696E 		.ascii	"__int32_t\000"
 1994      7433325F 
 1994      7400
 1995              	.LASF3:
 1996 02fc 5F5F696E 		.ascii	"__int16_t\000"
 1996      7431365F 
 1996      7400
 1997              	.LASF26:
 1998 0306 7061796C 		.ascii	"payload_len\000"
 1998      6F61645F 
 1998      6C656E00 
 1999              	.LASF29:
 2000 0312 7472616E 		.ascii	"transfer_id\000"
 2000      73666572 
 2000      5F696400 
 2001              	.LASF49:
 2002 031e 63616E61 		.ascii	"canardDecodeScalar\000"
 2002      72644465 
 2002      636F6465 
 2002      5363616C 
 2002      617200
 2003              	.LASF37:
 2004 0331 75617663 		.ascii	"uavcan_equipment_esc_RawCommand\000"
 2004      616E5F65 
 2004      71756970 
 2004      6D656E74 
 2004      5F657363 
 2005              	.LASF35:
 2006 0351 6E657874 		.ascii	"next\000"
 2006      00
 2007              	.LASF51:
 2008 0356 474E5520 		.ascii	"GNU C99 7.3.1 20180622 (release) [ARM/embedded-7-br"
 2008      43393920 
 2008      372E332E 
 2008      31203230 
 2008      31383036 
 2009 0389 616E6368 		.ascii	"anch revision 261907] -mcpu=cortex-m4 -mfloat-abi=h"
 2009      20726576 
 2009      6973696F 
 2009      6E203236 
 2009      31393037 
 2010 03bc 61726420 		.ascii	"ard -mfpu=fpv4-sp-d16 -mno-thumb-interwork -mthumb "
 2010      2D6D6670 
 2010      753D6670 
 2010      76342D73 
 2010      702D6431 
 2011 03ef 2D676764 		.ascii	"-ggdb -O2 -std=gnu99 -fomit-frame-pointer -falign-f"
 2011      62202D4F 
 2011      32202D73 
ARM GAS  /tmp/ccC8Q1dS.s 			page 39


 2011      74643D67 
 2011      6E753939 
 2012 0422 756E6374 		.ascii	"unctions=16 -ffunction-sections -fdata-sections -fn"
 2012      696F6E73 
 2012      3D313620 
 2012      2D666675 
 2012      6E637469 
 2013 0455 6F2D636F 		.ascii	"o-common -fsingle-precision-constant\000"
 2013      6D6D6F6E 
 2013      202D6673 
 2013      696E676C 
 2013      652D7072 
 2014              		.ident	"GCC: (GNU Tools for Arm Embedded Processors 7-2018-q3-update) 7.3.1 20180622 (release) [AR
ARM GAS  /tmp/ccC8Q1dS.s 			page 40


DEFINED SYMBOLS
                            *ABS*:0000000000000000 esc_RawCommand.c
     /tmp/ccC8Q1dS.s:18     .text.uavcan_equipment_esc_RawCommand_encode_internal:0000000000000000 $t
     /tmp/ccC8Q1dS.s:26     .text.uavcan_equipment_esc_RawCommand_encode_internal:0000000000000000 uavcan_equipment_esc_RawCommand_encode_internal
     /tmp/ccC8Q1dS.s:102    .text.uavcan_equipment_esc_RawCommand_encode:0000000000000000 $t
     /tmp/ccC8Q1dS.s:110    .text.uavcan_equipment_esc_RawCommand_encode:0000000000000000 uavcan_equipment_esc_RawCommand_encode
     /tmp/ccC8Q1dS.s:137    .text.uavcan_equipment_esc_RawCommand_decode_internal:0000000000000000 $t
     /tmp/ccC8Q1dS.s:145    .text.uavcan_equipment_esc_RawCommand_decode_internal:0000000000000000 uavcan_equipment_esc_RawCommand_decode_internal
     /tmp/ccC8Q1dS.s:290    .text.uavcan_equipment_esc_RawCommand_decode_internal:00000000000000a0 $d
     /tmp/ccC8Q1dS.s:295    .text.uavcan_equipment_esc_RawCommand_decode:0000000000000000 $t
     /tmp/ccC8Q1dS.s:303    .text.uavcan_equipment_esc_RawCommand_decode:0000000000000000 uavcan_equipment_esc_RawCommand_decode

UNDEFINED SYMBOLS
canardEncodeScalar
canardDecodeScalar
