ARM GAS  /tmp/cct2jbUt.s 			page 1


   1              		.cpu cortex-m4
   2              		.eabi_attribute 27, 1
   3              		.eabi_attribute 28, 1
   4              		.eabi_attribute 20, 1
   5              		.eabi_attribute 21, 1
   6              		.eabi_attribute 23, 3
   7              		.eabi_attribute 24, 1
   8              		.eabi_attribute 25, 1
   9              		.eabi_attribute 26, 1
  10              		.eabi_attribute 30, 2
  11              		.eabi_attribute 34, 1
  12              		.eabi_attribute 18, 4
  13              		.file	"flash_helper.c"
  14              		.text
  15              	.Ltext0:
  16              		.cfi_sections	.debug_frame
  17              		.section	.text.flash_helper_erase_new_app,"ax",%progbits
  18              		.align	1
  19              		.p2align 4,,15
  20              		.global	flash_helper_erase_new_app
  21              		.syntax unified
  22              		.thumb
  23              		.thumb_func
  24              		.fpu fpv4-sp-d16
  25              		.type	flash_helper_erase_new_app, %function
  26              	flash_helper_erase_new_app:
  27              	.LFB256:
  28              		.file 1 "flash_helper.c"
  29              		.loc 1 104 0
  30              		.cfi_startproc
  31              		@ args = 0, pretend = 0, frame = 8
  32              		@ frame_needed = 0, uses_anonymous_args = 0
  33              	.LVL0:
  34 0000 10B5     		push	{r4, lr}
  35              		.cfi_def_cfa_offset 8
  36              		.cfi_offset 4, -8
  37              		.cfi_offset 14, -4
  38 0002 82B0     		sub	sp, sp, #8
  39              		.cfi_def_cfa_offset 16
  40              		.loc 1 104 0
  41 0004 0446     		mov	r4, r0
  42              		.loc 1 105 0
  43 0006 FFF7FEFF 		bl	FLASH_Unlock
  44              	.LVL1:
  45              		.loc 1 106 0
  46 000a F220     		movs	r0, #242
  47 000c FFF7FEFF 		bl	FLASH_ClearFlag
  48              	.LVL2:
  49              		.loc 1 109 0
  50 0010 04F10064 		add	r4, r4, #134217728
  51              	.LVL3:
  52              		.loc 1 111 0
  53 0014 FFF7FEFF 		bl	mc_interface_unlock
  54              	.LVL4:
  55              		.loc 1 112 0
  56 0018 FFF7FEFF 		bl	mc_interface_release_motor
  57              	.LVL5:
ARM GAS  /tmp/cct2jbUt.s 			page 2


  58              		.loc 1 113 0
  59 001c FFF7FEFF 		bl	utils_sys_lock_cnt
  60              	.LVL6:
  61              		.loc 1 114 0
  62 0020 FFF7FEFF 		bl	timeout_configure_IWDT_slowest
  63              	.LVL7:
  64              	.LBB23:
  65              		.loc 1 117 0
  66 0024 174B     		ldr	r3, .L10
  67              	.LBE23:
  68              		.loc 1 109 0
  69 0026 04F50024 		add	r4, r4, #524288
  70              	.LVL8:
  71              	.LBB28:
  72              		.loc 1 117 0
  73 002a 9C42     		cmp	r4, r3
  74 002c 1AD9     		bls	.L2
  75              	.LBB24:
  76              		.loc 1 118 0
  77 002e 0221     		movs	r1, #2
  78 0030 4020     		movs	r0, #64
  79 0032 FFF7FEFF 		bl	FLASH_EraseSector
  80              	.LVL9:
  81 0036 80B2     		uxth	r0, r0
  82              	.LVL10:
  83              		.loc 1 119 0
  84 0038 0928     		cmp	r0, #9
  85 003a 1CD1     		bne	.L3
  86              	.LVL11:
  87              	.LBE24:
  88              		.loc 1 117 0
  89 003c 124B     		ldr	r3, .L10+4
  90 003e 9C42     		cmp	r4, r3
  91 0040 10D9     		bls	.L2
  92              	.LBB25:
  93              		.loc 1 118 0
  94 0042 0221     		movs	r1, #2
  95 0044 4820     		movs	r0, #72
  96              	.LVL12:
  97 0046 FFF7FEFF 		bl	FLASH_EraseSector
  98              	.LVL13:
  99 004a 80B2     		uxth	r0, r0
 100              	.LVL14:
 101              		.loc 1 119 0
 102 004c 0928     		cmp	r0, #9
 103 004e 12D1     		bne	.L3
 104              	.LVL15:
 105              	.LBE25:
 106              		.loc 1 117 0
 107 0050 0E4B     		ldr	r3, .L10+8
 108 0052 9C42     		cmp	r4, r3
 109 0054 06D9     		bls	.L2
 110              	.LBB26:
 111              		.loc 1 118 0
 112 0056 0221     		movs	r1, #2
 113 0058 5020     		movs	r0, #80
 114              	.LVL16:
ARM GAS  /tmp/cct2jbUt.s 			page 3


 115 005a FFF7FEFF 		bl	FLASH_EraseSector
 116              	.LVL17:
 117 005e 80B2     		uxth	r0, r0
 118              	.LVL18:
 119              		.loc 1 119 0
 120 0060 0928     		cmp	r0, #9
 121 0062 08D1     		bne	.L3
 122              	.LVL19:
 123              	.L2:
 124              	.LBE26:
 125              	.LBE28:
 126              		.loc 1 127 0
 127 0064 FFF7FEFF 		bl	FLASH_Lock
 128              	.LVL20:
 129              		.loc 1 129 0
 130 0068 FFF7FEFF 		bl	timeout_configure_IWDT
 131              	.LVL21:
 132              		.loc 1 130 0
 133 006c FFF7FEFF 		bl	utils_sys_unlock_cnt
 134              	.LVL22:
 135              		.loc 1 132 0
 136 0070 0920     		movs	r0, #9
 137              		.loc 1 133 0
 138 0072 02B0     		add	sp, sp, #8
 139              		.cfi_remember_state
 140              		.cfi_def_cfa_offset 8
 141              		@ sp needed
 142 0074 10BD     		pop	{r4, pc}
 143              	.LVL23:
 144              	.L3:
 145              		.cfi_restore_state
 146 0076 0190     		str	r0, [sp, #4]
 147              	.LBB29:
 148              	.LBB27:
 149              		.loc 1 120 0
 150 0078 FFF7FEFF 		bl	FLASH_Lock
 151              	.LVL24:
 152              		.loc 1 121 0
 153 007c 0198     		ldr	r0, [sp, #4]
 154              	.LBE27:
 155              	.LBE29:
 156              		.loc 1 133 0
 157 007e 02B0     		add	sp, sp, #8
 158              		.cfi_def_cfa_offset 8
 159              		@ sp needed
 160 0080 10BD     		pop	{r4, pc}
 161              	.LVL25:
 162              	.L11:
 163 0082 00BF     		.align	2
 164              	.L10:
 165 0084 00000808 		.word	134742016
 166 0088 00000A08 		.word	134873088
 167 008c 00000C08 		.word	135004160
 168              		.cfi_endproc
 169              	.LFE256:
 170              		.size	flash_helper_erase_new_app, .-flash_helper_erase_new_app
 171              		.section	.text.flash_helper_write_new_app_data,"ax",%progbits
ARM GAS  /tmp/cct2jbUt.s 			page 4


 172              		.align	1
 173              		.p2align 4,,15
 174              		.global	flash_helper_write_new_app_data
 175              		.syntax unified
 176              		.thumb
 177              		.thumb_func
 178              		.fpu fpv4-sp-d16
 179              		.type	flash_helper_write_new_app_data, %function
 180              	flash_helper_write_new_app_data:
 181              	.LFB257:
 182              		.loc 1 135 0
 183              		.cfi_startproc
 184              		@ args = 0, pretend = 0, frame = 0
 185              		@ frame_needed = 0, uses_anonymous_args = 0
 186              	.LVL26:
 187 0000 F8B5     		push	{r3, r4, r5, r6, r7, lr}
 188              		.cfi_def_cfa_offset 24
 189              		.cfi_offset 3, -24
 190              		.cfi_offset 4, -20
 191              		.cfi_offset 5, -16
 192              		.cfi_offset 6, -12
 193              		.cfi_offset 7, -8
 194              		.cfi_offset 14, -4
 195              		.loc 1 135 0
 196 0002 1746     		mov	r7, r2
 197 0004 0D46     		mov	r5, r1
 198 0006 0646     		mov	r6, r0
 199              		.loc 1 136 0
 200 0008 FFF7FEFF 		bl	FLASH_Unlock
 201              	.LVL27:
 202              		.loc 1 137 0
 203 000c F220     		movs	r0, #242
 204 000e FFF7FEFF 		bl	FLASH_ClearFlag
 205              	.LVL28:
 206              		.loc 1 140 0
 207 0012 FFF7FEFF 		bl	mc_interface_unlock
 208              	.LVL29:
 209              		.loc 1 141 0
 210 0016 FFF7FEFF 		bl	mc_interface_release_motor
 211              	.LVL30:
 212              		.loc 1 142 0
 213 001a FFF7FEFF 		bl	utils_sys_lock_cnt
 214              	.LVL31:
 215              		.loc 1 143 0
 216 001e FFF7FEFF 		bl	timeout_configure_IWDT_slowest
 217              	.LVL32:
 218              	.LBB30:
 219              		.loc 1 145 0
 220 0022 AFB1     		cbz	r7, .L13
 221 0024 A6F1F736 		sub	r6, r6, #-134744073
 222              	.LVL33:
 223 0028 A6F60806 		subw	r6, r6, #2056
 224              	.LVL34:
 225 002c 6C1E     		subs	r4, r5, #1
 226 002e 761B     		subs	r6, r6, r5
 227              	.LVL35:
 228 0030 2744     		add	r7, r7, r4
ARM GAS  /tmp/cct2jbUt.s 			page 5


 229              	.LVL36:
 230 0032 01E0     		b	.L16
 231              	.LVL37:
 232              	.L14:
 233              		.loc 1 145 0 is_stmt 0 discriminator 2
 234 0034 BC42     		cmp	r4, r7
 235 0036 0BD0     		beq	.L13
 236              	.LVL38:
 237              	.L16:
 238 0038 3019     		adds	r0, r6, r4
 239              	.LBB31:
 240              		.loc 1 146 0 is_stmt 1
 241 003a 14F8011F 		ldrb	r1, [r4, #1]!	@ zero_extendqisi2
 242              	.LVL39:
 243 003e FFF7FEFF 		bl	FLASH_ProgramByte
 244              	.LVL40:
 245 0042 85B2     		uxth	r5, r0
 246              	.LVL41:
 247              		.loc 1 147 0
 248 0044 092D     		cmp	r5, #9
 249 0046 F5D0     		beq	.L14
 250              		.loc 1 148 0
 251 0048 FFF7FEFF 		bl	FLASH_Lock
 252              	.LVL42:
 253              	.LBE31:
 254              	.LBE30:
 255              		.loc 1 159 0
 256 004c 2846     		mov	r0, r5
 257 004e F8BD     		pop	{r3, r4, r5, r6, r7, pc}
 258              	.LVL43:
 259              	.L13:
 260              		.loc 1 158 0
 261 0050 0925     		movs	r5, #9
 262              		.loc 1 152 0
 263 0052 FFF7FEFF 		bl	FLASH_Lock
 264              	.LVL44:
 265              		.loc 1 154 0
 266 0056 FFF7FEFF 		bl	timeout_configure_IWDT
 267              	.LVL45:
 268              		.loc 1 156 0
 269 005a FFF7FEFF 		bl	utils_sys_unlock_cnt
 270              	.LVL46:
 271              		.loc 1 159 0
 272 005e 2846     		mov	r0, r5
 273 0060 F8BD     		pop	{r3, r4, r5, r6, r7, pc}
 274              		.cfi_endproc
 275              	.LFE257:
 276              		.size	flash_helper_write_new_app_data, .-flash_helper_write_new_app_data
 277 0062 00BF     		.section	.text.flash_helper_jump_to_bootloader,"ax",%progbits
 278              		.align	1
 279              		.p2align 4,,15
 280              		.global	flash_helper_jump_to_bootloader
 281              		.syntax unified
 282              		.thumb
 283              		.thumb_func
 284              		.fpu fpv4-sp-d16
 285              		.type	flash_helper_jump_to_bootloader, %function
ARM GAS  /tmp/cct2jbUt.s 			page 6


 286              	flash_helper_jump_to_bootloader:
 287              	.LFB258:
 288              		.loc 1 164 0
 289              		.cfi_startproc
 290              		@ args = 0, pretend = 0, frame = 0
 291              		@ frame_needed = 1, uses_anonymous_args = 0
 292 0000 80B5     		push	{r7, lr}
 293              		.cfi_def_cfa_offset 8
 294              		.cfi_offset 7, -8
 295              		.cfi_offset 14, -4
 296 0002 00AF     		add	r7, sp, #0
 297              		.cfi_def_cfa_register 7
 298              		.loc 1 167 0
 299 0004 FFF7FEFF 		bl	mc_interface_unlock
 300              	.LVL47:
 301              		.loc 1 168 0
 302 0008 FFF7FEFF 		bl	mc_interface_release_motor
 303              	.LVL48:
 304              		.loc 1 169 0
 305 000c 1A48     		ldr	r0, .L26
 306 000e 026D     		ldr	r2, [r0, #80]
 307 0010 936B     		ldr	r3, [r2, #56]
 308 0012 23F40023 		bic	r3, r3, #524288
 309 0016 9363     		str	r3, [r2, #56]
 310              		.loc 1 170 0
 311 0018 FFF7FEFF 		bl	usbStop
 312              	.LVL49:
 313              		.loc 1 172 0
 314 001c 1748     		ldr	r0, .L26+4
 315 001e FFF7FEFF 		bl	sdStop
 316              	.LVL50:
 317              		.loc 1 173 0
 318 0022 0022     		movs	r2, #0
 319 0024 4FF48061 		mov	r1, #1024
 320 0028 1548     		ldr	r0, .L26+8
 321 002a FFF7FEFF 		bl	_pal_lld_setgroupmode
 322              	.LVL51:
 323              		.loc 1 174 0
 324 002e 0022     		movs	r2, #0
 325 0030 4FF40061 		mov	r1, #2048
 326 0034 1248     		ldr	r0, .L26+8
 327 0036 FFF7FEFF 		bl	_pal_lld_setgroupmode
 328              	.LVL52:
 329              		.loc 1 177 0
 330 003a FFF7FEFF 		bl	timeout_configure_IWDT_slowest
 331              	.LVL53:
 332              	.LBB32:
 333              	.LBB33:
 334              	.LBB34:
 335              	.LBB35:
 336              		.file 2 "ChibiOS_3.0.2/os/ext/CMSIS/include/core_cmFunc.h"
 337              		.loc 2 342 0
 338              		.syntax unified
 339              	@ 342 "ChibiOS_3.0.2/os/ext/CMSIS/include/core_cmFunc.h" 1
 340 003e 72B6     		cpsid i
 341              	@ 0 "" 2
 342              	.LVL54:
ARM GAS  /tmp/cct2jbUt.s 			page 7


 343              		.thumb
 344              		.syntax unified
 345              	.LBE35:
 346              	.LBE34:
 347              	.LBE33:
 348              	.LBE32:
 349              		.loc 1 188 0
 350 0040 104A     		ldr	r2, .L26+12
 351              		.loc 1 194 0
 352 0042 114B     		ldr	r3, .L26+16
 353              		.loc 1 188 0
 354 0044 1068     		ldr	r0, [r2]
 355              	.LVL55:
 356              		.loc 1 194 0
 357 0046 4FF00062 		mov	r2, #134217728
 358 004a 5A60     		str	r2, [r3, #4]
 359              	.LVL56:
 360              	.LBB36:
 361              		.loc 1 197 0
 362 004c 0022     		movs	r2, #0
 363              	.LVL57:
 364              	.L23:
 365 004e 9300     		lsls	r3, r2, #2
 366 0050 03F16043 		add	r3, r3, #-536870912
 367 0054 03F56143 		add	r3, r3, #57600
 368              		.loc 1 197 0 is_stmt 0 discriminator 3
 369 0058 0132     		adds	r2, r2, #1
 370              	.LVL58:
 371              		.loc 1 198 0 is_stmt 1 discriminator 3
 372 005a D3F80012 		ldr	r1, [r3, #512]
 373 005e C3F88010 		str	r1, [r3, #128]
 374              		.loc 1 197 0 discriminator 3
 375 0062 082A     		cmp	r2, #8
 376 0064 F3D1     		bne	.L23
 377              	.LBE36:
 378              		.loc 1 202 0
 379 0066 094B     		ldr	r3, .L26+20
 380 0068 1B68     		ldr	r3, [r3]
 381              	.LVL59:
 382              	.LBB37:
 383              	.LBB38:
 384              		.loc 2 468 0
 385              		.syntax unified
 386              	@ 468 "ChibiOS_3.0.2/os/ext/CMSIS/include/core_cmFunc.h" 1
 387 006a 83F30888 		MSR msp, r3
 388              	
 389              	@ 0 "" 2
 390              	.LVL60:
 391              		.thumb
 392              		.syntax unified
 393              	.LBE38:
 394              	.LBE37:
 395              		.loc 1 206 0
 396 006e BD46     		mov	sp, r7
 397              		.cfi_def_cfa_register 13
 398              		@ sp needed
 399 0070 BDE88040 		pop	{r7, lr}
ARM GAS  /tmp/cct2jbUt.s 			page 8


 400              		.cfi_restore 14
 401              		.cfi_restore 7
 402              		.cfi_def_cfa_offset 0
 403              		.loc 1 205 0
 404 0074 0047     		bx	r0	@ indirect register sibling call
 405              	.LVL61:
 406              	.L27:
 407 0076 00BF     		.align	2
 408              	.L26:
 409 0078 00000000 		.word	USBD1
 410 007c 00000000 		.word	SD3
 411 0080 00040240 		.word	1073873920
 412 0084 04000E08 		.word	135135236
 413 0088 00ED00E0 		.word	-536810240
 414 008c 00000E08 		.word	135135232
 415              		.cfi_endproc
 416              	.LFE258:
 417              		.size	flash_helper_jump_to_bootloader, .-flash_helper_jump_to_bootloader
 418              		.section	.text.flash_helper_get_sector_address,"ax",%progbits
 419              		.align	1
 420              		.p2align 4,,15
 421              		.global	flash_helper_get_sector_address
 422              		.syntax unified
 423              		.thumb
 424              		.thumb_func
 425              		.fpu fpv4-sp-d16
 426              		.type	flash_helper_get_sector_address, %function
 427              	flash_helper_get_sector_address:
 428              	.LFB259:
 429              		.loc 1 208 0
 430              		.cfi_startproc
 431              		@ args = 0, pretend = 0, frame = 0
 432              		@ frame_needed = 0, uses_anonymous_args = 0
 433              		@ link register save eliminated.
 434              	.LVL62:
 435              		.loc 1 208 0
 436 0000 0022     		movs	r2, #0
 437 0002 0849     		ldr	r1, .L36
 438              	.LBB39:
 439              		.loc 1 211 0
 440 0004 1346     		mov	r3, r2
 441 0006 01E0     		b	.L31
 442              	.LVL63:
 443              	.L35:
 444 0008 31F8022F 		ldrh	r2, [r1, #2]!
 445              	.LVL64:
 446              	.L31:
 447              		.loc 1 212 0
 448 000c 8242     		cmp	r2, r0
 449 000e 04D0     		beq	.L34
 450              		.loc 1 211 0 discriminator 2
 451 0010 0133     		adds	r3, r3, #1
 452              	.LVL65:
 453 0012 0C2B     		cmp	r3, #12
 454 0014 F8D1     		bne	.L35
 455              	.LBE39:
 456              		.loc 1 209 0
ARM GAS  /tmp/cct2jbUt.s 			page 9


 457 0016 0020     		movs	r0, #0
 458              	.LVL66:
 459              		.loc 1 219 0
 460 0018 7047     		bx	lr
 461              	.LVL67:
 462              	.L34:
 463              	.LBB40:
 464              		.loc 1 213 0
 465 001a 034A     		ldr	r2, .L36+4
 466 001c 52F82300 		ldr	r0, [r2, r3, lsl #2]
 467              	.LVL68:
 468              		.loc 1 214 0
 469 0020 7047     		bx	lr
 470              	.L37:
 471 0022 00BF     		.align	2
 472              	.L36:
 473 0024 00000000 		.word	.LANCHOR0
 474 0028 00000000 		.word	.LANCHOR1
 475              	.LBE40:
 476              		.cfi_endproc
 477              	.LFE259:
 478              		.size	flash_helper_get_sector_address, .-flash_helper_get_sector_address
 479              		.section	.text.flash_helper_verify_flash_memory,"ax",%progbits
 480              		.align	1
 481              		.p2align 4,,15
 482              		.global	flash_helper_verify_flash_memory
 483              		.syntax unified
 484              		.thumb
 485              		.thumb_func
 486              		.fpu fpv4-sp-d16
 487              		.type	flash_helper_verify_flash_memory, %function
 488              	flash_helper_verify_flash_memory:
 489              	.LFB260:
 490              		.loc 1 225 0
 491              		.cfi_startproc
 492              		@ args = 0, pretend = 0, frame = 0
 493              		@ frame_needed = 0, uses_anonymous_args = 0
 494 0000 38B5     		push	{r3, r4, r5, lr}
 495              		.cfi_def_cfa_offset 16
 496              		.cfi_offset 3, -16
 497              		.cfi_offset 4, -12
 498              		.cfi_offset 5, -8
 499              		.cfi_offset 14, -4
 500              		.loc 1 229 0
 501 0002 2D4C     		ldr	r4, .L48
 502 0004 2568     		ldr	r5, [r4]
 503 0006 DDB9     		cbnz	r5, .L39
 504              		.loc 1 230 0
 505 0008 0121     		movs	r1, #1
 506 000a 4FF48050 		mov	r0, #4096
 507 000e FFF7FEFF 		bl	RCC_AHB1PeriphClockCmd
 508              	.LVL69:
 509              		.loc 1 231 0
 510 0012 FFF7FEFF 		bl	crc32_reset
 511              	.LVL70:
 512              		.loc 1 234 0
 513 0016 4FF48051 		mov	r1, #4096
ARM GAS  /tmp/cct2jbUt.s 			page 10


 514 001a 4FF00060 		mov	r0, #134217728
 515 001e FFF7FEFF 		bl	crc32
 516              	.LVL71:
 517              		.loc 1 239 0
 518 0022 2649     		ldr	r1, .L48+4
 519 0024 2648     		ldr	r0, .L48+8
 520 0026 FFF7FEFF 		bl	crc32
 521              	.LVL72:
 522              		.loc 1 241 0
 523 002a 2946     		mov	r1, r5
 524              		.loc 1 239 0
 525 002c 0446     		mov	r4, r0
 526              	.LVL73:
 527              		.loc 1 241 0
 528 002e 4FF48050 		mov	r0, #4096
 529              	.LVL74:
 530 0032 FFF7FEFF 		bl	RCC_AHB1PeriphClockCmd
 531              	.LVL75:
 532              		.loc 1 244 0
 533 0036 002C     		cmp	r4, #0
 534 0038 18BF     		it	ne
 535 003a 0E24     		movne	r4, #14
 536              	.LVL76:
 537              		.loc 1 283 0
 538 003c 2046     		mov	r0, r4
 539 003e 38BD     		pop	{r3, r4, r5, pc}
 540              	.L39:
 541              	.LBB48:
 542              		.loc 1 246 0
 543 0040 FFF7FEFF 		bl	FLASH_Unlock
 544              	.LVL77:
 545              		.loc 1 247 0
 546 0044 F220     		movs	r0, #242
 547 0046 FFF7FEFF 		bl	FLASH_ClearFlag
 548              	.LVL78:
 549              		.loc 1 251 0
 550 004a 2046     		mov	r0, r4
 551 004c 0021     		movs	r1, #0
 552 004e FFF7FEFF 		bl	FLASH_ProgramWord
 553              	.LVL79:
 554              		.loc 1 252 0
 555 0052 0928     		cmp	r0, #9
 556 0054 1CD1     		bne	.L42
 557              		.loc 1 258 0
 558 0056 0121     		movs	r1, #1
 559 0058 4FF48050 		mov	r0, #4096
 560              	.LVL80:
 561 005c FFF7FEFF 		bl	RCC_AHB1PeriphClockCmd
 562              	.LVL81:
 563              		.loc 1 259 0
 564 0060 FFF7FEFF 		bl	crc32_reset
 565              	.LVL82:
 566              		.loc 1 262 0
 567 0064 4FF48051 		mov	r1, #4096
 568 0068 4FF00060 		mov	r0, #134217728
 569 006c FFF7FEFF 		bl	crc32
 570              	.LVL83:
ARM GAS  /tmp/cct2jbUt.s 			page 11


 571              		.loc 1 267 0
 572 0070 1449     		ldr	r1, .L48+12
 573 0072 1348     		ldr	r0, .L48+8
 574 0074 FFF7FEFF 		bl	crc32
 575              	.LVL84:
 576              		.loc 1 269 0
 577 0078 0021     		movs	r1, #0
 578              		.loc 1 267 0
 579 007a 0446     		mov	r4, r0
 580              	.LVL85:
 581              		.loc 1 269 0
 582 007c 4FF48050 		mov	r0, #4096
 583              	.LVL86:
 584 0080 FFF7FEFF 		bl	RCC_AHB1PeriphClockCmd
 585              	.LVL87:
 586              		.loc 1 272 0
 587 0084 2146     		mov	r1, r4
 588 0086 1048     		ldr	r0, .L48+16
 589 0088 FFF7FEFF 		bl	FLASH_ProgramWord
 590              	.LVL88:
 591              		.loc 1 273 0
 592 008c 0928     		cmp	r0, #9
 593 008e 04D0     		beq	.L47
 594              	.LVL89:
 595              	.L42:
 596              		.loc 1 254 0
 597 0090 0E24     		movs	r4, #14
 598              		.loc 1 253 0
 599 0092 FFF7FEFF 		bl	FLASH_Lock
 600              	.LVL90:
 601              	.LBE48:
 602              		.loc 1 283 0
 603 0096 2046     		mov	r0, r4
 604 0098 38BD     		pop	{r3, r4, r5, pc}
 605              	.LVL91:
 606              	.L47:
 607              	.LBB55:
 608              		.loc 1 277 0
 609 009a FFF7FEFF 		bl	FLASH_Lock
 610              	.LVL92:
 611              	.LBB49:
 612              	.LBB50:
 613              	.LBB51:
 614              	.LBB52:
 615              		.file 3 "ChibiOS_3.0.2/os/ext/CMSIS/include/core_cmInstr.h"
 616              		.loc 3 382 0
 617              		.syntax unified
 618              	@ 382 "ChibiOS_3.0.2/os/ext/CMSIS/include/core_cmInstr.h" 1
 619 009e BFF34F8F 		dsb
 620              	@ 0 "" 2
 621              		.thumb
 622              		.syntax unified
 623              	.LBE52:
 624              	.LBE51:
 625              		.file 4 "ChibiOS_3.0.2/os/ext/CMSIS/include/core_cm4.h"
 626              		.loc 4 1643 0
 627 00a2 0A49     		ldr	r1, .L48+20
ARM GAS  /tmp/cct2jbUt.s 			page 12


 628 00a4 0A4B     		ldr	r3, .L48+24
 629 00a6 CA68     		ldr	r2, [r1, #12]
 630 00a8 02F4E062 		and	r2, r2, #1792
 631 00ac 1343     		orrs	r3, r3, r2
 632              		.loc 4 1642 0
 633 00ae CB60     		str	r3, [r1, #12]
 634              	.LBB53:
 635              	.LBB54:
 636              		.loc 3 382 0
 637              		.syntax unified
 638              	@ 382 "ChibiOS_3.0.2/os/ext/CMSIS/include/core_cmInstr.h" 1
 639 00b0 BFF34F8F 		dsb
 640              	@ 0 "" 2
 641              		.thumb
 642              		.syntax unified
 643              	.L43:
 644 00b4 FEE7     		b	.L43
 645              	.L49:
 646 00b6 00BF     		.align	2
 647              	.L48:
 648 00b8 F0FF0508 		.word	134610928
 649 00bc FE4F0100 		.word	86014
 650 00c0 00C00008 		.word	134266880
 651 00c4 FD4F0100 		.word	86013
 652 00c8 F4FF0508 		.word	134610932
 653 00cc 00ED00E0 		.word	-536810240
 654 00d0 0400FA05 		.word	100270084
 655              	.LBE54:
 656              	.LBE53:
 657              	.LBE50:
 658              	.LBE49:
 659              	.LBE55:
 660              		.cfi_endproc
 661              	.LFE260:
 662              		.size	flash_helper_verify_flash_memory, .-flash_helper_verify_flash_memory
 663              		.section	.text.flash_helper_verify_flash_memory_chunk,"ax",%progbits
 664              		.align	1
 665              		.p2align 4,,15
 666              		.global	flash_helper_verify_flash_memory_chunk
 667              		.syntax unified
 668              		.thumb
 669              		.thumb_func
 670              		.fpu fpv4-sp-d16
 671              		.type	flash_helper_verify_flash_memory_chunk, %function
 672              	flash_helper_verify_flash_memory_chunk:
 673              	.LFB261:
 674              		.loc 1 285 0
 675              		.cfi_startproc
 676              		@ args = 0, pretend = 0, frame = 0
 677              		@ frame_needed = 0, uses_anonymous_args = 0
 678              	.LVL93:
 679 0000 38B5     		push	{r3, r4, r5, lr}
 680              		.cfi_def_cfa_offset 16
 681              		.cfi_offset 3, -16
 682              		.cfi_offset 4, -12
 683              		.cfi_offset 5, -8
 684              		.cfi_offset 14, -4
ARM GAS  /tmp/cct2jbUt.s 			page 13


 685              		.loc 1 293 0
 686 0002 204C     		ldr	r4, .L66
 687 0004 2068     		ldr	r0, [r4]
 688 0006 A8B3     		cbz	r0, .L63
 689              	.L51:
 690              		.loc 1 297 0
 691 0008 1F4D     		ldr	r5, .L66+4
 692 000a 00F58063 		add	r3, r0, #1024
 693 000e AB42     		cmp	r3, r5
 694 0010 18D9     		bls	.L52
 695              		.loc 1 298 0
 696 0012 C0F5AF25 		rsb	r5, r0, #358400
 697 0016 05F5FF65 		add	r5, r5, #2040
 698              	.LVL94:
 699              	.L53:
 700              		.loc 1 304 0
 701 001a A0F58040 		sub	r0, r0, #16384
 702 001e 20F00300 		bic	r0, r0, #3
 703 0022 00F10060 		add	r0, r0, #134217728
 704 0026 A908     		lsrs	r1, r5, #2
 705 0028 00F54040 		add	r0, r0, #49152
 706 002c FFF7FEFF 		bl	crc32
 707              	.LVL95:
 708              		.loc 1 307 0
 709 0030 2268     		ldr	r2, [r4]
 710              		.loc 1 308 0
 711 0032 154B     		ldr	r3, .L66+4
 712              		.loc 1 307 0
 713 0034 1544     		add	r5, r5, r2
 714              	.LVL96:
 715              		.loc 1 308 0
 716 0036 9D42     		cmp	r5, r3
 717 0038 17D9     		bls	.L64
 718              		.loc 1 309 0
 719 003a 0023     		movs	r3, #0
 720 003c 2360     		str	r3, [r4]
 721              		.loc 1 310 0
 722 003e A8B1     		cbz	r0, .L57
 723              		.loc 1 311 0
 724 0040 0E20     		movs	r0, #14
 725              	.LVL97:
 726              		.loc 1 316 0
 727 0042 38BD     		pop	{r3, r4, r5, pc}
 728              	.LVL98:
 729              	.L52:
 730              		.loc 1 301 0
 731 0044 B0F5804F 		cmp	r0, #16384
 732 0048 18D2     		bcs	.L58
 733              		.loc 1 302 0
 734 004a 20F00300 		bic	r0, r0, #3
 735 004e 00F10060 		add	r0, r0, #134217728
 736 0052 4FF48071 		mov	r1, #256
 737 0056 FFF7FEFF 		bl	crc32
 738              	.LVL99:
 739              		.loc 1 307 0
 740 005a 2368     		ldr	r3, [r4]
 741 005c 03F58063 		add	r3, r3, #1024
ARM GAS  /tmp/cct2jbUt.s 			page 14


 742              		.loc 1 308 0
 743 0060 AB42     		cmp	r3, r5
 744 0062 05D9     		bls	.L65
 745              		.loc 1 309 0
 746 0064 0020     		movs	r0, #0
 747 0066 2060     		str	r0, [r4]
 748              		.loc 1 316 0
 749 0068 38BD     		pop	{r3, r4, r5, pc}
 750              	.LVL100:
 751              	.L64:
 752              		.loc 1 307 0
 753 006a 2560     		str	r5, [r4]
 754              	.LVL101:
 755              	.L57:
 756              		.loc 1 288 0
 757 006c 0020     		movs	r0, #0
 758              		.loc 1 316 0
 759 006e 38BD     		pop	{r3, r4, r5, pc}
 760              	.LVL102:
 761              	.L65:
 762              		.loc 1 307 0
 763 0070 2360     		str	r3, [r4]
 764 0072 FBE7     		b	.L57
 765              	.L63:
 766              		.loc 1 294 0
 767 0074 FFF7FEFF 		bl	crc32_reset
 768              	.LVL103:
 769 0078 2068     		ldr	r0, [r4]
 770 007a C5E7     		b	.L51
 771              	.L58:
 772              		.loc 1 287 0
 773 007c 4FF48065 		mov	r5, #1024
 774 0080 CBE7     		b	.L53
 775              	.L67:
 776 0082 00BF     		.align	2
 777              	.L66:
 778 0084 00000000 		.word	.LANCHOR2
 779 0088 F77F0500 		.word	360439
 780              		.cfi_endproc
 781              	.LFE261:
 782              		.size	flash_helper_verify_flash_memory_chunk, .-flash_helper_verify_flash_memory_chunk
 783              		.global	crc_info
 784              		.section	.bss.index.11349,"aw",%nobits
 785              		.align	2
 786              		.set	.LANCHOR2,. + 0
 787              		.type	index.11349, %object
 788              		.size	index.11349, 4
 789              	index.11349:
 790 0000 00000000 		.space	4
 791              		.section	.crcinfo,"a",%progbits
 792              		.align	2
 793              		.type	crc_info, %object
 794              		.size	crc_info, 8
 795              	crc_info:
 796 0000 FFFFFFFF 		.word	-1
 797 0004 FFFFFFFF 		.word	-1
 798              		.section	.rodata.flash_addr,"a",%progbits
ARM GAS  /tmp/cct2jbUt.s 			page 15


 799              		.align	2
 800              		.set	.LANCHOR1,. + 0
 801              		.type	flash_addr, %object
 802              		.size	flash_addr, 48
 803              	flash_addr:
 804 0000 00000008 		.word	134217728
 805 0004 00400008 		.word	134234112
 806 0008 00800008 		.word	134250496
 807 000c 00C00008 		.word	134266880
 808 0010 00000108 		.word	134283264
 809 0014 00000208 		.word	134348800
 810 0018 00000408 		.word	134479872
 811 001c 00000608 		.word	134610944
 812 0020 00000808 		.word	134742016
 813 0024 00000A08 		.word	134873088
 814 0028 00000C08 		.word	135004160
 815 002c 00000E08 		.word	135135232
 816              		.section	.rodata.flash_sector,"a",%progbits
 817              		.align	2
 818              		.set	.LANCHOR0,. + 0
 819              		.type	flash_sector, %object
 820              		.size	flash_sector, 24
 821              	flash_sector:
 822 0000 0000     		.short	0
 823 0002 0800     		.short	8
 824 0004 1000     		.short	16
 825 0006 1800     		.short	24
 826 0008 2000     		.short	32
 827 000a 2800     		.short	40
 828 000c 3000     		.short	48
 829 000e 3800     		.short	56
 830 0010 4000     		.short	64
 831 0012 4800     		.short	72
 832 0014 5000     		.short	80
 833 0016 5800     		.short	88
 834              		.text
 835              	.Letext0:
 836              		.file 5 "/usr/arm-none-eabi/include/machine/_default_types.h"
 837              		.file 6 "/usr/arm-none-eabi/include/sys/_stdint.h"
 838              		.file 7 "/usr/lib/gcc/arm-none-eabi/7.3.1/include/stddef.h"
 839              		.file 8 "ChibiOS_3.0.2/os/rt/ports/ARMCMx/compilers/GCC/chtypes.h"
 840              		.file 9 "ChibiOS_3.0.2/os/rt/include/chsystypes.h"
 841              		.file 10 "ChibiOS_3.0.2/os/rt/include/chschd.h"
 842              		.file 11 "ChibiOS_3.0.2/os/ext/CMSIS/ST/system_stm32f4xx.h"
 843              		.file 12 "ChibiOS_3.0.2/os/ext/CMSIS/ST/stm32f407xx.h"
 844              		.file 13 "ChibiOS_3.0.2/os/rt/ports/ARMCMx/chcore.h"
 845              		.file 14 "ChibiOS_3.0.2/os/rt/ports/ARMCMx/chcore_v7m.h"
 846              		.file 15 "ChibiOS_3.0.2/os/rt/include/chtm.h"
 847              		.file 16 "ChibiOS_3.0.2/os/rt/include/chsem.h"
 848              		.file 17 "ChibiOS_3.0.2/os/rt/include/chmtx.h"
 849              		.file 18 "ChibiOS_3.0.2/os/rt/include/chregistry.h"
 850              		.file 19 "ChibiOS_3.0.2/os/rt/include/chevents.h"
 851              		.file 20 "ChibiOS_3.0.2/os/rt/include/chqueues.h"
 852              		.file 21 "ChibiOS_3.0.2/os/ext/CMSIS/ST/stm32f4xx.h"
 853              		.file 22 "datatypes.h"
 854              		.file 23 "conf_general.h"
 855              		.file 24 "ChibiOS_3.0.2/ext/stdperiph_stm32f4/inc/stm32f4xx_flash.h"
ARM GAS  /tmp/cct2jbUt.s 			page 16


 856              		.file 25 "ChibiOS_3.0.2/os/hal/ports/STM32/STM32F4xx/stm32_dma.h"
 857              		.file 26 "ChibiOS_3.0.2/os/hal/ports/STM32/LLD/GPIOv2/pal_lld.h"
 858              		.file 27 "ChibiOS_3.0.2/os/hal/include/can.h"
 859              		.file 28 "ChibiOS_3.0.2/os/hal/ports/STM32/LLD/can_lld.h"
 860              		.file 29 "ChibiOS_3.0.2/os/hal/include/i2c.h"
 861              		.file 30 "ChibiOS_3.0.2/os/hal/ports/STM32/LLD/I2Cv1/i2c_lld.h"
 862              		.file 31 "ChibiOS_3.0.2/os/hal/include/icu.h"
 863              		.file 32 "ChibiOS_3.0.2/os/hal/ports/STM32/LLD/TIMv1/icu_lld.h"
 864              		.file 33 "ChibiOS_3.0.2/os/hal/ports/STM32/LLD/TIMv1/stm32_tim.h"
 865              		.file 34 "ChibiOS_3.0.2/os/hal/include/serial.h"
 866              		.file 35 "ChibiOS_3.0.2/os/hal/ports/STM32/LLD/USARTv1/serial_lld.h"
 867              		.file 36 "ChibiOS_3.0.2/os/hal/include/spi.h"
 868              		.file 37 "ChibiOS_3.0.2/os/hal/ports/STM32/LLD/SPIv1/spi_lld.h"
 869              		.file 38 "ChibiOS_3.0.2/os/hal/include/usb.h"
 870              		.file 39 "ChibiOS_3.0.2/os/hal/ports/STM32/LLD/OTGv1/usb_lld.h"
 871              		.file 40 "ChibiOS_3.0.2/os/hal/ports/STM32/LLD/OTGv1/stm32_otg.h"
 872              		.file 41 "mc_interface.h"
 873              		.file 42 "/usr/arm-none-eabi/include/sys/lock.h"
 874              		.file 43 "/usr/arm-none-eabi/include/sys/_types.h"
 875              		.file 44 "/usr/arm-none-eabi/include/sys/reent.h"
 876              		.file 45 "ChibiOS_3.0.2/os/rt/include/chsys.h"
 877              		.file 46 "crc.h"
 878              		.file 47 "ChibiOS_3.0.2/ext/stdperiph_stm32f4/inc/stm32f4xx_rcc.h"
 879              		.file 48 "timeout.h"
 880              		.file 49 "utils.h"