ARM GAS  /tmp/cctZgYEP.s 			page 1


   1              		.cpu cortex-m4
   2              		.eabi_attribute 27, 1
   3              		.eabi_attribute 28, 1
   4              		.eabi_attribute 20, 1
   5              		.eabi_attribute 21, 1
   6              		.eabi_attribute 23, 3
   7              		.eabi_attribute 24, 1
   8              		.eabi_attribute 25, 1
   9              		.eabi_attribute 26, 1
  10              		.eabi_attribute 30, 2
  11              		.eabi_attribute 34, 1
  12              		.eabi_attribute 18, 4
  13              		.file	"hw.c"
  14              		.text
  15              	.Ltext0:
  16              		.cfi_sections	.debug_frame
  17              		.section	.text.hw_init_gpio,"ax",%progbits
  18              		.align	1
  19              		.p2align 4,,15
  20              		.global	hw_init_gpio
  21              		.syntax unified
  22              		.thumb
  23              		.thumb_func
  24              		.fpu fpv4-sp-d16
  25              		.type	hw_init_gpio, %function
  26              	hw_init_gpio:
  27              	.LFB256:
  28              		.file 1 "hwconf/hw_60.c"
  29              		.loc 1 36 0
  30              		.cfi_startproc
  31              		@ args = 0, pretend = 0, frame = 0
  32              		@ frame_needed = 0, uses_anonymous_args = 0
  33              		.loc 1 38 0
  34 0000 0121     		movs	r1, #1
  35              		.loc 1 36 0
  36 0002 2DE9F843 		push	{r3, r4, r5, r6, r7, r8, r9, lr}
  37              		.cfi_def_cfa_offset 32
  38              		.cfi_offset 3, -32
  39              		.cfi_offset 4, -28
  40              		.cfi_offset 5, -24
  41              		.cfi_offset 6, -20
  42              		.cfi_offset 7, -16
  43              		.cfi_offset 8, -12
  44              		.cfi_offset 9, -8
  45              		.cfi_offset 14, -4
  46              		.loc 1 38 0
  47 0006 0846     		mov	r0, r1
  48 0008 FFF7FEFF 		bl	RCC_AHB1PeriphClockCmd
  49              	.LVL0:
  50              		.loc 1 39 0
  51 000c 0121     		movs	r1, #1
  52 000e 0220     		movs	r0, #2
  53              		.loc 1 44 0
  54 0010 504E     		ldr	r6, .L4
  55              		.loc 1 65 0
  56 0012 DFF84C91 		ldr	r9, .L4+12
  57              		.loc 1 72 0
ARM GAS  /tmp/cctZgYEP.s 			page 2


  58 0016 504D     		ldr	r5, .L4+4
  59              		.loc 1 93 0
  60 0018 504C     		ldr	r4, .L4+8
  61              		.loc 1 39 0
  62 001a FFF7FEFF 		bl	RCC_AHB1PeriphClockCmd
  63              	.LVL1:
  64              		.loc 1 40 0
  65 001e 0121     		movs	r1, #1
  66 0020 0420     		movs	r0, #4
  67 0022 FFF7FEFF 		bl	RCC_AHB1PeriphClockCmd
  68              	.LVL2:
  69              		.loc 1 41 0
  70 0026 0121     		movs	r1, #1
  71 0028 0820     		movs	r0, #8
  72 002a FFF7FEFF 		bl	RCC_AHB1PeriphClockCmd
  73              	.LVL3:
  74              		.loc 1 44 0
  75 002e 3046     		mov	r0, r6
  76 0030 1922     		movs	r2, #25
  77 0032 0121     		movs	r1, #1
  78              		.loc 1 62 0
  79 0034 2027     		movs	r7, #32
  80              		.loc 1 44 0
  81 0036 FFF7FEFF 		bl	_pal_lld_setgroupmode
  82              	.LVL4:
  83              		.loc 1 47 0
  84 003a 3046     		mov	r0, r6
  85 003c 1922     		movs	r2, #25
  86 003e 0221     		movs	r1, #2
  87 0040 FFF7FEFF 		bl	_pal_lld_setgroupmode
  88              	.LVL5:
  89              		.loc 1 57 0
  90 0044 3046     		mov	r0, r6
  91 0046 3946     		mov	r1, r7
  92 0048 1922     		movs	r2, #25
  93 004a FFF7FEFF 		bl	_pal_lld_setgroupmode
  94              	.LVL6:
  95              		.loc 1 65 0
  96 004e 0421     		movs	r1, #4
  97              		.loc 1 69 0
  98 0050 8846     		mov	r8, r1
  99              		.loc 1 65 0
 100 0052 4846     		mov	r0, r9
 101              		.loc 1 62 0
 102 0054 3783     		strh	r7, [r6, #24]	@ movhi
 103              		.loc 1 65 0
 104 0056 1922     		movs	r2, #25
 105 0058 FFF7FEFF 		bl	_pal_lld_setgroupmode
 106              	.LVL7:
 107              		.loc 1 72 0
 108 005c 2846     		mov	r0, r5
 109              		.loc 1 69 0
 110 005e A9F81A80 		strh	r8, [r9, #26]	@ movhi
 111              		.loc 1 72 0
 112 0062 9A22     		movs	r2, #154
 113 0064 4FF48071 		mov	r1, #256
 114 0068 FFF7FEFF 		bl	_pal_lld_setgroupmode
ARM GAS  /tmp/cctZgYEP.s 			page 3


 115              	.LVL8:
 116              		.loc 1 75 0
 117 006c 2846     		mov	r0, r5
 118 006e 9A22     		movs	r2, #154
 119 0070 4FF40071 		mov	r1, #512
 120 0074 FFF7FEFF 		bl	_pal_lld_setgroupmode
 121              	.LVL9:
 122              		.loc 1 78 0
 123 0078 2846     		mov	r0, r5
 124 007a 9A22     		movs	r2, #154
 125 007c 4FF48061 		mov	r1, #1024
 126 0080 FFF7FEFF 		bl	_pal_lld_setgroupmode
 127              	.LVL10:
 128              		.loc 1 82 0
 129 0084 3046     		mov	r0, r6
 130 0086 9A22     		movs	r2, #154
 131 0088 4FF40051 		mov	r1, #8192
 132 008c FFF7FEFF 		bl	_pal_lld_setgroupmode
 133              	.LVL11:
 134              		.loc 1 85 0
 135 0090 3046     		mov	r0, r6
 136 0092 9A22     		movs	r2, #154
 137 0094 4FF48041 		mov	r1, #16384
 138 0098 FFF7FEFF 		bl	_pal_lld_setgroupmode
 139              	.LVL12:
 140              		.loc 1 88 0
 141 009c 3046     		mov	r0, r6
 142 009e 9A22     		movs	r2, #154
 143 00a0 4FF40041 		mov	r1, #32768
 144 00a4 FFF7FEFF 		bl	_pal_lld_setgroupmode
 145              	.LVL13:
 146              		.loc 1 93 0
 147 00a8 3A46     		mov	r2, r7
 148 00aa 2046     		mov	r0, r4
 149 00ac 4021     		movs	r1, #64
 150 00ae FFF7FEFF 		bl	_pal_lld_setgroupmode
 151              	.LVL14:
 152              		.loc 1 94 0
 153 00b2 3A46     		mov	r2, r7
 154 00b4 2046     		mov	r0, r4
 155 00b6 8021     		movs	r1, #128
 156 00b8 FFF7FEFF 		bl	_pal_lld_setgroupmode
 157              	.LVL15:
 158              		.loc 1 95 0
 159 00bc 3A46     		mov	r2, r7
 160 00be 2046     		mov	r0, r4
 161 00c0 4FF48071 		mov	r1, #256
 162 00c4 FFF7FEFF 		bl	_pal_lld_setgroupmode
 163              	.LVL16:
 164              		.loc 1 98 0
 165 00c8 3A46     		mov	r2, r7
 166 00ca 3046     		mov	r0, r6
 167 00cc 8021     		movs	r1, #128
 168 00ce FFF7FEFF 		bl	_pal_lld_setgroupmode
 169              	.LVL17:
 170              		.loc 1 101 0
 171 00d2 2846     		mov	r0, r5
ARM GAS  /tmp/cctZgYEP.s 			page 4


 172 00d4 0322     		movs	r2, #3
 173 00d6 0121     		movs	r1, #1
 174 00d8 FFF7FEFF 		bl	_pal_lld_setgroupmode
 175              	.LVL18:
 176              		.loc 1 102 0
 177 00dc 2846     		mov	r0, r5
 178 00de 0322     		movs	r2, #3
 179 00e0 0221     		movs	r1, #2
 180 00e2 FFF7FEFF 		bl	_pal_lld_setgroupmode
 181              	.LVL19:
 182              		.loc 1 103 0
 183 00e6 4146     		mov	r1, r8
 184 00e8 2846     		mov	r0, r5
 185 00ea 0322     		movs	r2, #3
 186 00ec FFF7FEFF 		bl	_pal_lld_setgroupmode
 187              	.LVL20:
 188              		.loc 1 104 0
 189 00f0 2846     		mov	r0, r5
 190 00f2 0322     		movs	r2, #3
 191 00f4 0821     		movs	r1, #8
 192 00f6 FFF7FEFF 		bl	_pal_lld_setgroupmode
 193              	.LVL21:
 194              		.loc 1 105 0
 195 00fa 3946     		mov	r1, r7
 196 00fc 2846     		mov	r0, r5
 197 00fe 0322     		movs	r2, #3
 198 0100 FFF7FEFF 		bl	_pal_lld_setgroupmode
 199              	.LVL22:
 200              		.loc 1 106 0
 201 0104 2846     		mov	r0, r5
 202 0106 0322     		movs	r2, #3
 203 0108 4021     		movs	r1, #64
 204 010a FFF7FEFF 		bl	_pal_lld_setgroupmode
 205              	.LVL23:
 206              		.loc 1 108 0
 207 010e 2046     		mov	r0, r4
 208 0110 0322     		movs	r2, #3
 209 0112 0121     		movs	r1, #1
 210 0114 FFF7FEFF 		bl	_pal_lld_setgroupmode
 211              	.LVL24:
 212              		.loc 1 109 0
 213 0118 2046     		mov	r0, r4
 214 011a 0322     		movs	r2, #3
 215 011c 0221     		movs	r1, #2
 216 011e FFF7FEFF 		bl	_pal_lld_setgroupmode
 217              	.LVL25:
 218              		.loc 1 110 0
 219 0122 4146     		mov	r1, r8
 220 0124 2046     		mov	r0, r4
 221 0126 0322     		movs	r2, #3
 222 0128 FFF7FEFF 		bl	_pal_lld_setgroupmode
 223              	.LVL26:
 224              		.loc 1 111 0
 225 012c 2046     		mov	r0, r4
 226 012e 0322     		movs	r2, #3
 227 0130 0821     		movs	r1, #8
 228 0132 FFF7FEFF 		bl	_pal_lld_setgroupmode
ARM GAS  /tmp/cctZgYEP.s 			page 5


 229              	.LVL27:
 230              		.loc 1 112 0
 231 0136 2046     		mov	r0, r4
 232 0138 0322     		movs	r2, #3
 233 013a 1021     		movs	r1, #16
 234 013c FFF7FEFF 		bl	_pal_lld_setgroupmode
 235              	.LVL28:
 236              		.loc 1 113 0
 237 0140 3946     		mov	r1, r7
 238 0142 2046     		mov	r0, r4
 239 0144 0322     		movs	r2, #3
 240 0146 FFF7FEFF 		bl	_pal_lld_setgroupmode
 241              	.LVL29:
 242              		.loc 1 116 0
 243 014a BDE8F843 		pop	{r3, r4, r5, r6, r7, r8, r9, lr}
 244              		.cfi_restore 14
 245              		.cfi_restore 9
 246              		.cfi_restore 8
 247              		.cfi_restore 7
 248              		.cfi_restore 6
 249              		.cfi_restore 5
 250              		.cfi_restore 4
 251              		.cfi_restore 3
 252              		.cfi_def_cfa_offset 0
 253              		.loc 1 115 0
 254 014e FFF7FEBF 		b	drv8301_init
 255              	.LVL30:
 256              	.L5:
 257 0152 00BF     		.align	2
 258              	.L4:
 259 0154 00040240 		.word	1073873920
 260 0158 00000240 		.word	1073872896
 261 015c 00080240 		.word	1073874944
 262 0160 000C0240 		.word	1073875968
 263              		.cfi_endproc
 264              	.LFE256:
 265              		.size	hw_init_gpio, .-hw_init_gpio
 266              		.section	.text.hw_setup_adc_channels,"ax",%progbits
 267              		.align	1
 268              		.p2align 4,,15
 269              		.global	hw_setup_adc_channels
 270              		.syntax unified
 271              		.thumb
 272              		.thumb_func
 273              		.fpu fpv4-sp-d16
 274              		.type	hw_setup_adc_channels, %function
 275              	hw_setup_adc_channels:
 276              	.LFB257:
 277              		.loc 1 118 0
 278              		.cfi_startproc
 279              		@ args = 0, pretend = 0, frame = 0
 280              		@ frame_needed = 0, uses_anonymous_args = 0
 281 0000 70B5     		push	{r4, r5, r6, lr}
 282              		.cfi_def_cfa_offset 16
 283              		.cfi_offset 4, -16
 284              		.cfi_offset 5, -12
 285              		.cfi_offset 6, -8
ARM GAS  /tmp/cctZgYEP.s 			page 6


 286              		.cfi_offset 14, -4
 287              		.loc 1 120 0
 288 0002 4A4E     		ldr	r6, .L8
 289              		.loc 1 127 0
 290 0004 4A4D     		ldr	r5, .L8+4
 291              		.loc 1 134 0
 292 0006 4B4C     		ldr	r4, .L8+8
 293              		.loc 1 120 0
 294 0008 0123     		movs	r3, #1
 295 000a 3046     		mov	r0, r6
 296 000c 1A46     		mov	r2, r3
 297 000e 0021     		movs	r1, #0
 298 0010 FFF7FEFF 		bl	ADC_RegularChannelConfig
 299              	.LVL31:
 300              		.loc 1 121 0
 301 0014 3046     		mov	r0, r6
 302 0016 0123     		movs	r3, #1
 303 0018 0222     		movs	r2, #2
 304 001a 0A21     		movs	r1, #10
 305 001c FFF7FEFF 		bl	ADC_RegularChannelConfig
 306              	.LVL32:
 307              		.loc 1 122 0
 308 0020 3046     		mov	r0, r6
 309 0022 0123     		movs	r3, #1
 310 0024 0322     		movs	r2, #3
 311 0026 0521     		movs	r1, #5
 312 0028 FFF7FEFF 		bl	ADC_RegularChannelConfig
 313              	.LVL33:
 314              		.loc 1 123 0
 315 002c 3046     		mov	r0, r6
 316 002e 0123     		movs	r3, #1
 317 0030 0422     		movs	r2, #4
 318 0032 0E21     		movs	r1, #14
 319 0034 FFF7FEFF 		bl	ADC_RegularChannelConfig
 320              	.LVL34:
 321              		.loc 1 124 0
 322 0038 3046     		mov	r0, r6
 323 003a 0123     		movs	r3, #1
 324 003c 0522     		movs	r2, #5
 325 003e 1121     		movs	r1, #17
 326 0040 FFF7FEFF 		bl	ADC_RegularChannelConfig
 327              	.LVL35:
 328              		.loc 1 127 0
 329 0044 0123     		movs	r3, #1
 330 0046 2846     		mov	r0, r5
 331 0048 1A46     		mov	r2, r3
 332 004a 1946     		mov	r1, r3
 333 004c FFF7FEFF 		bl	ADC_RegularChannelConfig
 334              	.LVL36:
 335              		.loc 1 128 0
 336 0050 2846     		mov	r0, r5
 337 0052 0123     		movs	r3, #1
 338 0054 0222     		movs	r2, #2
 339 0056 0B21     		movs	r1, #11
 340 0058 FFF7FEFF 		bl	ADC_RegularChannelConfig
 341              	.LVL37:
 342              		.loc 1 129 0
ARM GAS  /tmp/cctZgYEP.s 			page 7


 343 005c 2846     		mov	r0, r5
 344 005e 0123     		movs	r3, #1
 345 0060 0322     		movs	r2, #3
 346 0062 0621     		movs	r1, #6
 347 0064 FFF7FEFF 		bl	ADC_RegularChannelConfig
 348              	.LVL38:
 349              		.loc 1 130 0
 350 0068 2846     		mov	r0, r5
 351 006a 0123     		movs	r3, #1
 352 006c 0422     		movs	r2, #4
 353 006e 0F21     		movs	r1, #15
 354 0070 FFF7FEFF 		bl	ADC_RegularChannelConfig
 355              	.LVL39:
 356              		.loc 1 131 0
 357 0074 2846     		mov	r0, r5
 358 0076 0123     		movs	r3, #1
 359 0078 0522     		movs	r2, #5
 360 007a 0021     		movs	r1, #0
 361 007c FFF7FEFF 		bl	ADC_RegularChannelConfig
 362              	.LVL40:
 363              		.loc 1 134 0
 364 0080 0123     		movs	r3, #1
 365 0082 2046     		mov	r0, r4
 366 0084 1A46     		mov	r2, r3
 367 0086 0221     		movs	r1, #2
 368 0088 FFF7FEFF 		bl	ADC_RegularChannelConfig
 369              	.LVL41:
 370              		.loc 1 135 0
 371 008c 2046     		mov	r0, r4
 372 008e 0123     		movs	r3, #1
 373 0090 0222     		movs	r2, #2
 374 0092 0C21     		movs	r1, #12
 375 0094 FFF7FEFF 		bl	ADC_RegularChannelConfig
 376              	.LVL42:
 377              		.loc 1 136 0
 378 0098 0322     		movs	r2, #3
 379 009a 2046     		mov	r0, r4
 380 009c 1146     		mov	r1, r2
 381 009e 0123     		movs	r3, #1
 382 00a0 FFF7FEFF 		bl	ADC_RegularChannelConfig
 383              	.LVL43:
 384              		.loc 1 137 0
 385 00a4 2046     		mov	r0, r4
 386 00a6 0123     		movs	r3, #1
 387 00a8 0422     		movs	r2, #4
 388 00aa 0D21     		movs	r1, #13
 389 00ac FFF7FEFF 		bl	ADC_RegularChannelConfig
 390              	.LVL44:
 391              		.loc 1 138 0
 392 00b0 0123     		movs	r3, #1
 393 00b2 2046     		mov	r0, r4
 394 00b4 1946     		mov	r1, r3
 395 00b6 0522     		movs	r2, #5
 396 00b8 FFF7FEFF 		bl	ADC_RegularChannelConfig
 397              	.LVL45:
 398              		.loc 1 141 0
 399 00bc 0123     		movs	r3, #1
ARM GAS  /tmp/cctZgYEP.s 			page 8


 400 00be 3046     		mov	r0, r6
 401 00c0 1A46     		mov	r2, r3
 402 00c2 0A21     		movs	r1, #10
 403 00c4 FFF7FEFF 		bl	ADC_InjectedChannelConfig
 404              	.LVL46:
 405              		.loc 1 142 0
 406 00c8 0123     		movs	r3, #1
 407 00ca 2846     		mov	r0, r5
 408 00cc 1A46     		mov	r2, r3
 409 00ce 0B21     		movs	r1, #11
 410 00d0 FFF7FEFF 		bl	ADC_InjectedChannelConfig
 411              	.LVL47:
 412              		.loc 1 143 0
 413 00d4 0123     		movs	r3, #1
 414 00d6 2046     		mov	r0, r4
 415 00d8 1A46     		mov	r2, r3
 416 00da 0C21     		movs	r1, #12
 417 00dc FFF7FEFF 		bl	ADC_InjectedChannelConfig
 418              	.LVL48:
 419              		.loc 1 144 0
 420 00e0 3046     		mov	r0, r6
 421 00e2 0123     		movs	r3, #1
 422 00e4 0222     		movs	r2, #2
 423 00e6 0A21     		movs	r1, #10
 424 00e8 FFF7FEFF 		bl	ADC_InjectedChannelConfig
 425              	.LVL49:
 426              		.loc 1 145 0
 427 00ec 2846     		mov	r0, r5
 428 00ee 0123     		movs	r3, #1
 429 00f0 0222     		movs	r2, #2
 430 00f2 0B21     		movs	r1, #11
 431 00f4 FFF7FEFF 		bl	ADC_InjectedChannelConfig
 432              	.LVL50:
 433              		.loc 1 146 0
 434 00f8 2046     		mov	r0, r4
 435 00fa 0123     		movs	r3, #1
 436 00fc 0222     		movs	r2, #2
 437 00fe 0C21     		movs	r1, #12
 438 0100 FFF7FEFF 		bl	ADC_InjectedChannelConfig
 439              	.LVL51:
 440              		.loc 1 147 0
 441 0104 3046     		mov	r0, r6
 442 0106 0123     		movs	r3, #1
 443 0108 0322     		movs	r2, #3
 444 010a 0A21     		movs	r1, #10
 445 010c FFF7FEFF 		bl	ADC_InjectedChannelConfig
 446              	.LVL52:
 447              		.loc 1 148 0
 448 0110 2846     		mov	r0, r5
 449 0112 0123     		movs	r3, #1
 450 0114 0322     		movs	r2, #3
 451 0116 0B21     		movs	r1, #11
 452 0118 FFF7FEFF 		bl	ADC_InjectedChannelConfig
 453              	.LVL53:
 454              		.loc 1 149 0
 455 011c 2046     		mov	r0, r4
 456 011e 0123     		movs	r3, #1
ARM GAS  /tmp/cctZgYEP.s 			page 9


 457 0120 0322     		movs	r2, #3
 458 0122 0C21     		movs	r1, #12
 459              		.loc 1 150 0
 460 0124 BDE87040 		pop	{r4, r5, r6, lr}
 461              		.cfi_restore 14
 462              		.cfi_restore 6
 463              		.cfi_restore 5
 464              		.cfi_restore 4
 465              		.cfi_def_cfa_offset 0
 466              		.loc 1 149 0
 467 0128 FFF7FEBF 		b	ADC_InjectedChannelConfig
 468              	.LVL54:
 469              	.L9:
 470              		.align	2
 471              	.L8:
 472 012c 00200140 		.word	1073815552
 473 0130 00210140 		.word	1073815808
 474 0134 00220140 		.word	1073816064
 475              		.cfi_endproc
 476              	.LFE257:
 477              		.size	hw_setup_adc_channels, .-hw_setup_adc_channels
 478              		.section	.text.hw_start_i2c,"ax",%progbits
 479              		.align	1
 480              		.p2align 4,,15
 481              		.global	hw_start_i2c
 482              		.syntax unified
 483              		.thumb
 484              		.thumb_func
 485              		.fpu fpv4-sp-d16
 486              		.type	hw_start_i2c, %function
 487              	hw_start_i2c:
 488              	.LFB258:
 489              		.loc 1 152 0
 490              		.cfi_startproc
 491              		@ args = 0, pretend = 0, frame = 0
 492              		@ frame_needed = 0, uses_anonymous_args = 0
 493 0000 10B5     		push	{r4, lr}
 494              		.cfi_def_cfa_offset 8
 495              		.cfi_offset 4, -8
 496              		.cfi_offset 14, -4
 497              		.loc 1 155 0
 498 0002 0F4C     		ldr	r4, .L13
 499              		.loc 1 153 0
 500 0004 0F48     		ldr	r0, .L13+4
 501 0006 FFF7FEFF 		bl	i2cAcquireBus
 502              	.LVL55:
 503              		.loc 1 155 0
 504 000a 2378     		ldrb	r3, [r4]	@ zero_extendqisi2
 505 000c 9BB9     		cbnz	r3, .L11
 506              		.loc 1 156 0
 507 000e 40F22E22 		movw	r2, #558
 508 0012 4FF48061 		mov	r1, #1024
 509 0016 0C48     		ldr	r0, .L13+8
 510 0018 FFF7FEFF 		bl	_pal_lld_setgroupmode
 511              	.LVL56:
 512              		.loc 1 161 0
 513 001c 40F22E22 		movw	r2, #558
ARM GAS  /tmp/cctZgYEP.s 			page 10


 514 0020 4FF40061 		mov	r1, #2048
 515 0024 0848     		ldr	r0, .L13+8
 516 0026 FFF7FEFF 		bl	_pal_lld_setgroupmode
 517              	.LVL57:
 518              		.loc 1 167 0
 519 002a 0849     		ldr	r1, .L13+12
 520 002c 0548     		ldr	r0, .L13+4
 521 002e FFF7FEFF 		bl	i2cStart
 522              	.LVL58:
 523              		.loc 1 168 0
 524 0032 0123     		movs	r3, #1
 525 0034 2370     		strb	r3, [r4]
 526              	.L11:
 527              		.loc 1 171 0
 528 0036 0348     		ldr	r0, .L13+4
 529              		.loc 1 172 0
 530 0038 BDE81040 		pop	{r4, lr}
 531              		.cfi_restore 14
 532              		.cfi_restore 4
 533              		.cfi_def_cfa_offset 0
 534              		.loc 1 171 0
 535 003c FFF7FEBF 		b	i2cReleaseBus
 536              	.LVL59:
 537              	.L14:
 538              		.align	2
 539              	.L13:
 540 0040 00000000 		.word	.LANCHOR0
 541 0044 00000000 		.word	I2CD2
 542 0048 00040240 		.word	1073873920
 543 004c 00000000 		.word	.LANCHOR1
 544              		.cfi_endproc
 545              	.LFE258:
 546              		.size	hw_start_i2c, .-hw_start_i2c
 547              		.section	.text.hw_stop_i2c,"ax",%progbits
 548              		.align	1
 549              		.p2align 4,,15
 550              		.global	hw_stop_i2c
 551              		.syntax unified
 552              		.thumb
 553              		.thumb_func
 554              		.fpu fpv4-sp-d16
 555              		.type	hw_stop_i2c, %function
 556              	hw_stop_i2c:
 557              	.LFB259:
 558              		.loc 1 174 0
 559              		.cfi_startproc
 560              		@ args = 0, pretend = 0, frame = 0
 561              		@ frame_needed = 0, uses_anonymous_args = 0
 562 0000 10B5     		push	{r4, lr}
 563              		.cfi_def_cfa_offset 8
 564              		.cfi_offset 4, -8
 565              		.cfi_offset 14, -4
 566              		.loc 1 177 0
 567 0002 0E4C     		ldr	r4, .L21
 568              		.loc 1 175 0
 569 0004 0E48     		ldr	r0, .L21+4
 570 0006 FFF7FEFF 		bl	i2cAcquireBus
ARM GAS  /tmp/cctZgYEP.s 			page 11


 571              	.LVL60:
 572              		.loc 1 177 0
 573 000a 2378     		ldrb	r3, [r4]	@ zero_extendqisi2
 574 000c 83B1     		cbz	r3, .L16
 575              		.loc 1 178 0
 576 000e 0022     		movs	r2, #0
 577 0010 4FF48061 		mov	r1, #1024
 578 0014 0B48     		ldr	r0, .L21+8
 579 0016 FFF7FEFF 		bl	_pal_lld_setgroupmode
 580              	.LVL61:
 581              		.loc 1 179 0
 582 001a 0022     		movs	r2, #0
 583 001c 4FF40061 		mov	r1, #2048
 584 0020 0848     		ldr	r0, .L21+8
 585 0022 FFF7FEFF 		bl	_pal_lld_setgroupmode
 586              	.LVL62:
 587              		.loc 1 181 0
 588 0026 0648     		ldr	r0, .L21+4
 589 0028 FFF7FEFF 		bl	i2cStop
 590              	.LVL63:
 591              		.loc 1 182 0
 592 002c 0023     		movs	r3, #0
 593 002e 2370     		strb	r3, [r4]
 594              	.L16:
 595              		.loc 1 186 0
 596 0030 0348     		ldr	r0, .L21+4
 597              		.loc 1 187 0
 598 0032 BDE81040 		pop	{r4, lr}
 599              		.cfi_restore 14
 600              		.cfi_restore 4
 601              		.cfi_def_cfa_offset 0
 602              		.loc 1 186 0
 603 0036 FFF7FEBF 		b	i2cReleaseBus
 604              	.LVL64:
 605              	.L22:
 606 003a 00BF     		.align	2
 607              	.L21:
 608 003c 00000000 		.word	.LANCHOR0
 609 0040 00000000 		.word	I2CD2
 610 0044 00040240 		.word	1073873920
 611              		.cfi_endproc
 612              	.LFE259:
 613              		.size	hw_stop_i2c, .-hw_stop_i2c
 614              		.section	.text.hw_try_restore_i2c,"ax",%progbits
 615              		.align	1
 616              		.p2align 4,,15
 617              		.global	hw_try_restore_i2c
 618              		.syntax unified
 619              		.thumb
 620              		.thumb_func
 621              		.fpu fpv4-sp-d16
 622              		.type	hw_try_restore_i2c, %function
 623              	hw_try_restore_i2c:
 624              	.LFB260:
 625              		.loc 1 192 0
 626              		.cfi_startproc
 627              		@ args = 0, pretend = 0, frame = 0
ARM GAS  /tmp/cctZgYEP.s 			page 12


 628              		@ frame_needed = 0, uses_anonymous_args = 0
 629 0000 F8B5     		push	{r3, r4, r5, r6, r7, lr}
 630              		.cfi_def_cfa_offset 24
 631              		.cfi_offset 3, -24
 632              		.cfi_offset 4, -20
 633              		.cfi_offset 5, -16
 634              		.cfi_offset 6, -12
 635              		.cfi_offset 7, -8
 636              		.cfi_offset 14, -4
 637              		.loc 1 193 0
 638 0002 284B     		ldr	r3, .L29
 639 0004 1B78     		ldrb	r3, [r3]	@ zero_extendqisi2
 640 0006 03B9     		cbnz	r3, .L28
 641              		.loc 1 244 0
 642 0008 F8BD     		pop	{r3, r4, r5, r6, r7, pc}
 643              	.L28:
 644              		.loc 1 196 0
 645 000a 274D     		ldr	r5, .L29+4
 646              		.loc 1 194 0
 647 000c 2748     		ldr	r0, .L29+8
 648 000e FFF7FEFF 		bl	i2cAcquireBus
 649              	.LVL65:
 650              		.loc 1 196 0
 651 0012 2846     		mov	r0, r5
 652 0014 2C22     		movs	r2, #44
 653 0016 4FF48061 		mov	r1, #1024
 654 001a FFF7FEFF 		bl	_pal_lld_setgroupmode
 655              	.LVL66:
 656              		.loc 1 201 0
 657 001e 2846     		mov	r0, r5
 658 0020 2C22     		movs	r2, #44
 659 0022 4FF40061 		mov	r1, #2048
 660 0026 FFF7FEFF 		bl	_pal_lld_setgroupmode
 661              	.LVL67:
 662              		.loc 1 206 0
 663 002a 4FF48066 		mov	r6, #1024
 664              		.loc 1 207 0
 665 002e 4FF40063 		mov	r3, #2048
 666              		.loc 1 206 0
 667 0032 2E83     		strh	r6, [r5, #24]	@ movhi
 668              		.loc 1 209 0
 669 0034 0120     		movs	r0, #1
 670              		.loc 1 207 0
 671 0036 2B83     		strh	r3, [r5, #24]	@ movhi
 672              		.loc 1 209 0
 673 0038 FFF7FEFF 		bl	chThdSleep
 674              	.LVL68:
 675              	.LBB2:
 676              		.loc 1 212 0
 677 003c 3746     		mov	r7, r6	@ movhi
 678              	.LBE2:
 679              		.loc 1 209 0
 680 003e 1024     		movs	r4, #16
 681              	.LVL69:
 682              	.L25:
 683              	.LBB3:
 684              		.loc 1 213 0 discriminator 3
ARM GAS  /tmp/cctZgYEP.s 			page 13


 685 0040 0120     		movs	r0, #1
 686              		.loc 1 212 0 discriminator 3
 687 0042 6F83     		strh	r7, [r5, #26]	@ movhi
 688              		.loc 1 213 0 discriminator 3
 689 0044 FFF7FEFF 		bl	chThdSleep
 690              	.LVL70:
 691              		.loc 1 214 0 discriminator 3
 692 0048 2E83     		strh	r6, [r5, #24]	@ movhi
 693              		.loc 1 215 0 discriminator 3
 694 004a 0120     		movs	r0, #1
 695 004c FFF7FEFF 		bl	chThdSleep
 696              	.LVL71:
 697              		.loc 1 211 0 discriminator 3
 698 0050 013C     		subs	r4, r4, #1
 699              	.LVL72:
 700 0052 F5D1     		bne	.L25
 701              	.LBE3:
 702              		.loc 1 219 0
 703 0054 4FF40067 		mov	r7, #2048
 704 0058 6F83     		strh	r7, [r5, #26]	@ movhi
 705              		.loc 1 220 0
 706 005a 0120     		movs	r0, #1
 707 005c FFF7FEFF 		bl	chThdSleep
 708              	.LVL73:
 709              		.loc 1 221 0
 710 0060 6E83     		strh	r6, [r5, #26]	@ movhi
 711              		.loc 1 222 0
 712 0062 0120     		movs	r0, #1
 713 0064 FFF7FEFF 		bl	chThdSleep
 714              	.LVL74:
 715              		.loc 1 223 0
 716 0068 2E83     		strh	r6, [r5, #24]	@ movhi
 717              		.loc 1 224 0
 718 006a 0120     		movs	r0, #1
 719 006c FFF7FEFF 		bl	chThdSleep
 720              	.LVL75:
 721              		.loc 1 239 0
 722 0070 0E4C     		ldr	r4, .L29+8
 723              	.LVL76:
 724              		.loc 1 225 0
 725 0072 2F83     		strh	r7, [r5, #24]	@ movhi
 726              		.loc 1 227 0
 727 0074 40F22E22 		movw	r2, #558
 728 0078 4FF48061 		mov	r1, #1024
 729 007c 0A48     		ldr	r0, .L29+4
 730 007e FFF7FEFF 		bl	_pal_lld_setgroupmode
 731              	.LVL77:
 732              		.loc 1 233 0
 733 0082 3946     		mov	r1, r7
 734 0084 40F22E22 		movw	r2, #558
 735 0088 0748     		ldr	r0, .L29+4
 736 008a FFF7FEFF 		bl	_pal_lld_setgroupmode
 737              	.LVL78:
 738              		.loc 1 239 0
 739 008e 0123     		movs	r3, #1
 740              		.loc 1 240 0
 741 0090 2046     		mov	r0, r4
ARM GAS  /tmp/cctZgYEP.s 			page 14


 742 0092 0749     		ldr	r1, .L29+12
 743              		.loc 1 239 0
 744 0094 2370     		strb	r3, [r4]
 745              		.loc 1 240 0
 746 0096 FFF7FEFF 		bl	i2cStart
 747              	.LVL79:
 748              		.loc 1 242 0
 749 009a 2046     		mov	r0, r4
 750              		.loc 1 244 0
 751 009c BDE8F840 		pop	{r3, r4, r5, r6, r7, lr}
 752              		.cfi_restore 14
 753              		.cfi_restore 7
 754              		.cfi_restore 6
 755              		.cfi_restore 5
 756              		.cfi_restore 4
 757              		.cfi_restore 3
 758              		.cfi_def_cfa_offset 0
 759              		.loc 1 242 0
 760 00a0 FFF7FEBF 		b	i2cReleaseBus
 761              	.LVL80:
 762              	.L30:
 763              		.align	2
 764              	.L29:
 765 00a4 00000000 		.word	.LANCHOR0
 766 00a8 00040240 		.word	1073873920
 767 00ac 00000000 		.word	I2CD2
 768 00b0 00000000 		.word	.LANCHOR1
 769              		.cfi_endproc
 770              	.LFE260:
 771              		.size	hw_try_restore_i2c, .-hw_try_restore_i2c
 772              		.section	.text.hw_id_from_uuid,"ax",%progbits
 773              		.align	1
 774              		.p2align 4,,15
 775              		.global	hw_id_from_uuid
 776              		.syntax unified
 777              		.thumb
 778              		.thumb_func
 779              		.fpu fpv4-sp-d16
 780              		.type	hw_id_from_uuid, %function
 781              	hw_id_from_uuid:
 782              	.LFB261:
 783              		.file 2 "hwconf/hw.c"
 784              		.loc 2 24 0
 785              		.cfi_startproc
 786              		@ args = 0, pretend = 0, frame = 0
 787              		@ frame_needed = 0, uses_anonymous_args = 0
 788 0000 08B5     		push	{r3, lr}
 789              		.cfi_def_cfa_offset 8
 790              		.cfi_offset 3, -8
 791              		.cfi_offset 14, -4
 792              		.loc 2 25 0
 793 0002 0C21     		movs	r1, #12
 794 0004 0248     		ldr	r0, .L33
 795 0006 FFF7FEFF 		bl	utils_crc32c
 796              	.LVL81:
 797              		.loc 2 26 0
 798 000a 00F07F00 		and	r0, r0, #127
ARM GAS  /tmp/cctZgYEP.s 			page 15


 799 000e 08BD     		pop	{r3, pc}
 800              	.L34:
 801              		.align	2
 802              	.L33:
 803 0010 107AFF1F 		.word	536836624
 804              		.cfi_endproc
 805              	.LFE261:
 806              		.size	hw_id_from_uuid, .-hw_id_from_uuid
 807              		.section	.bss.i2c_running,"aw",%nobits
 808              		.set	.LANCHOR0,. + 0
 809              		.type	i2c_running, %object
 810              		.size	i2c_running, 1
 811              	i2c_running:
 812 0000 00       		.space	1
 813              		.section	.rodata.i2cfg,"a",%progbits
 814              		.align	2
 815              		.set	.LANCHOR1,. + 0
 816              		.type	i2cfg, %object
 817              		.size	i2cfg, 12
 818              	i2cfg:
 819 0000 01       		.byte	1
 820 0001 000000   		.space	3
 821 0004 A0860100 		.word	100000
 822 0008 01       		.byte	1
 823 0009 000000   		.space	3
 824              		.text
 825              	.Letext0:
 826              		.file 3 "/usr/arm-none-eabi/include/machine/_default_types.h"
 827              		.file 4 "/usr/arm-none-eabi/include/sys/_stdint.h"
 828              		.file 5 "/usr/lib/gcc/arm-none-eabi/7.3.1/include/stddef.h"
 829              		.file 6 "ChibiOS_3.0.2/os/rt/ports/ARMCMx/compilers/GCC/chtypes.h"
 830              		.file 7 "ChibiOS_3.0.2/os/rt/include/chsystypes.h"
 831              		.file 8 "ChibiOS_3.0.2/os/rt/include/chschd.h"
 832              		.file 9 "ChibiOS_3.0.2/os/ext/CMSIS/include/core_cm4.h"
 833              		.file 10 "ChibiOS_3.0.2/os/ext/CMSIS/ST/system_stm32f4xx.h"
 834              		.file 11 "ChibiOS_3.0.2/os/ext/CMSIS/ST/stm32f407xx.h"
 835              		.file 12 "ChibiOS_3.0.2/os/rt/ports/ARMCMx/chcore.h"
 836              		.file 13 "ChibiOS_3.0.2/os/rt/ports/ARMCMx/chcore_v7m.h"
 837              		.file 14 "ChibiOS_3.0.2/os/rt/include/chtm.h"
 838              		.file 15 "ChibiOS_3.0.2/os/rt/include/chsem.h"
 839              		.file 16 "ChibiOS_3.0.2/os/rt/include/chmtx.h"
 840              		.file 17 "ChibiOS_3.0.2/os/rt/include/chregistry.h"
 841              		.file 18 "ChibiOS_3.0.2/os/rt/include/chevents.h"
 842              		.file 19 "ChibiOS_3.0.2/os/rt/include/chqueues.h"
 843              		.file 20 "./conf_general.h"
 844              		.file 21 "ChibiOS_3.0.2/os/hal/ports/STM32/STM32F4xx/stm32_dma.h"
 845              		.file 22 "ChibiOS_3.0.2/os/hal/ports/STM32/LLD/GPIOv2/pal_lld.h"
 846              		.file 23 "ChibiOS_3.0.2/os/ext/CMSIS/ST/stm32f4xx.h"
 847              		.file 24 "ChibiOS_3.0.2/os/hal/include/can.h"
 848              		.file 25 "ChibiOS_3.0.2/os/hal/ports/STM32/LLD/can_lld.h"
 849              		.file 26 "ChibiOS_3.0.2/os/hal/include/i2c.h"
 850              		.file 27 "ChibiOS_3.0.2/os/hal/ports/STM32/LLD/I2Cv1/i2c_lld.h"
 851              		.file 28 "ChibiOS_3.0.2/os/hal/include/icu.h"
 852              		.file 29 "ChibiOS_3.0.2/os/hal/ports/STM32/LLD/TIMv1/icu_lld.h"
 853              		.file 30 "ChibiOS_3.0.2/os/hal/ports/STM32/LLD/TIMv1/stm32_tim.h"
 854              		.file 31 "ChibiOS_3.0.2/os/hal/include/serial.h"
 855              		.file 32 "ChibiOS_3.0.2/os/hal/ports/STM32/LLD/USARTv1/serial_lld.h"
ARM GAS  /tmp/cctZgYEP.s 			page 16


 856              		.file 33 "ChibiOS_3.0.2/os/hal/include/spi.h"
 857              		.file 34 "ChibiOS_3.0.2/os/hal/ports/STM32/LLD/SPIv1/spi_lld.h"
 858              		.file 35 "ChibiOS_3.0.2/os/hal/include/usb.h"
 859              		.file 36 "ChibiOS_3.0.2/os/hal/ports/STM32/LLD/OTGv1/usb_lld.h"
 860              		.file 37 "ChibiOS_3.0.2/os/hal/ports/STM32/LLD/OTGv1/stm32_otg.h"
 861              		.file 38 "./utils.h"
 862              		.file 39 "ChibiOS_3.0.2/os/rt/include/chthreads.h"
 863              		.file 40 "ChibiOS_3.0.2/ext/stdperiph_stm32f4/inc/stm32f4xx_adc.h"
 864              		.file 41 "ChibiOS_3.0.2/ext/stdperiph_stm32f4/inc/stm32f4xx_rcc.h"
 865              		.file 42 "hwconf/drv8301.h"