ARM GAS  /tmp/cco80xgS.s 			page 1


   1              		.cpu cortex-m4
   2              		.eabi_attribute 27, 1
   3              		.eabi_attribute 28, 1
   4              		.eabi_attribute 20, 1
   5              		.eabi_attribute 21, 1
   6              		.eabi_attribute 23, 3
   7              		.eabi_attribute 24, 1
   8              		.eabi_attribute 25, 1
   9              		.eabi_attribute 26, 1
  10              		.eabi_attribute 30, 2
  11              		.eabi_attribute 34, 1
  12              		.eabi_attribute 18, 4
  13              		.file	"i2c_lld.c"
  14              		.text
  15              	.Ltext0:
  16              		.cfi_sections	.debug_frame
  17              		.section	.text.i2c_lld_serve_tx_end_irq,"ax",%progbits
  18              		.align	1
  19              		.p2align 4,,15
  20              		.syntax unified
  21              		.thumb
  22              		.thumb_func
  23              		.fpu fpv4-sp-d16
  24              		.type	i2c_lld_serve_tx_end_irq, %function
  25              	i2c_lld_serve_tx_end_irq:
  26              	.LFB261:
  27              		.file 1 "ChibiOS_3.0.2/os/hal/ports/STM32/LLD/I2Cv1/i2c_lld.c"
  28              		.loc 1 332 0
  29              		.cfi_startproc
  30              		@ args = 0, pretend = 0, frame = 0
  31              		@ frame_needed = 0, uses_anonymous_args = 0
  32              	.LVL0:
  33              		.loc 1 337 0
  34 0000 11F00C0F 		tst	r1, #12
  35              		.loc 1 332 0
  36 0004 38B5     		push	{r3, r4, r5, lr}
  37              		.cfi_def_cfa_offset 16
  38              		.cfi_offset 3, -16
  39              		.cfi_offset 4, -12
  40              		.cfi_offset 5, -8
  41              		.cfi_offset 14, -4
  42              		.loc 1 332 0
  43 0006 0546     		mov	r5, r0
  44              		.loc 1 333 0
  45 0008 446B     		ldr	r4, [r0, #52]
  46              	.LVL1:
  47              		.loc 1 337 0
  48 000a 12D1     		bne	.L10
  49              	.LVL2:
  50              	.L2:
  51              		.loc 1 344 0
  52 000c 296B     		ldr	r1, [r5, #48]
  53 000e 0A68     		ldr	r2, [r1]
  54 0010 1368     		ldr	r3, [r2]
  55 0012 23F01F03 		bic	r3, r3, #31
  56 0016 1360     		str	r3, [r2]
  57              	.L3:
ARM GAS  /tmp/cco80xgS.s 			page 2


  58              		.loc 1 344 0 is_stmt 0 discriminator 2
  59 0018 1368     		ldr	r3, [r2]
  60 001a DB07     		lsls	r3, r3, #31
  61 001c FCD4     		bmi	.L3
  62              		.loc 1 344 0 discriminator 3
  63 001e 087A     		ldrb	r0, [r1, #8]	@ zero_extendqisi2
  64 0020 4A68     		ldr	r2, [r1, #4]
  65 0022 3D23     		movs	r3, #61
  66 0024 8340     		lsls	r3, r3, r0
  67 0026 1360     		str	r3, [r2]
  68              		.loc 1 348 0 is_stmt 1 discriminator 3
  69 0028 6368     		ldr	r3, [r4, #4]
  70 002a 43F40073 		orr	r3, r3, #512
  71 002e 6360     		str	r3, [r4, #4]
  72              		.loc 1 349 0 discriminator 3
  73 0030 38BD     		pop	{r3, r4, r5, pc}
  74              	.LVL3:
  75              	.L10:
  76              	.LBB209:
  77              	.LBB210:
  78              		.file 2 "ChibiOS_3.0.2/os/hal/osal/rt/osal.h"
  79              		.loc 2 462 0
  80 0032 0248     		ldr	r0, .L11
  81              	.LVL4:
  82 0034 FFF7FEFF 		bl	chSysHalt
  83              	.LVL5:
  84 0038 E8E7     		b	.L2
  85              	.L12:
  86 003a 00BF     		.align	2
  87              	.L11:
  88 003c 00000000 		.word	.LC0
  89              	.LBE210:
  90              	.LBE209:
  91              		.cfi_endproc
  92              	.LFE261:
  93              		.size	i2c_lld_serve_tx_end_irq, .-i2c_lld_serve_tx_end_irq
  94              		.section	.text.i2c_lld_serve_rx_end_irq,"ax",%progbits
  95              		.align	1
  96              		.p2align 4,,15
  97              		.syntax unified
  98              		.thumb
  99              		.thumb_func
 100              		.fpu fpv4-sp-d16
 101              		.type	i2c_lld_serve_rx_end_irq, %function
 102              	i2c_lld_serve_rx_end_irq:
 103              	.LFB260:
 104              		.loc 1 305 0
 105              		.cfi_startproc
 106              		@ args = 0, pretend = 0, frame = 0
 107              		@ frame_needed = 0, uses_anonymous_args = 0
 108              	.LVL6:
 109              		.loc 1 310 0
 110 0000 11F00C0F 		tst	r1, #12
 111              		.loc 1 305 0
 112 0004 70B5     		push	{r4, r5, r6, lr}
 113              		.cfi_def_cfa_offset 16
 114              		.cfi_offset 4, -16
ARM GAS  /tmp/cco80xgS.s 			page 3


 115              		.cfi_offset 5, -12
 116              		.cfi_offset 6, -8
 117              		.cfi_offset 14, -4
 118              		.loc 1 305 0
 119 0006 0646     		mov	r6, r0
 120              		.loc 1 306 0
 121 0008 456B     		ldr	r5, [r0, #52]
 122              	.LVL7:
 123              		.loc 1 310 0
 124 000a 25D1     		bne	.L21
 125              	.LVL8:
 126              	.L14:
 127              		.loc 1 317 0
 128 000c F26A     		ldr	r2, [r6, #44]
 129 000e 1368     		ldr	r3, [r2]
 130 0010 1968     		ldr	r1, [r3]
 131 0012 21F01F01 		bic	r1, r1, #31
 132 0016 1960     		str	r1, [r3]
 133              	.L15:
 134              		.loc 1 317 0 is_stmt 0 discriminator 2
 135 0018 1C68     		ldr	r4, [r3]
 136 001a 14F00104 		ands	r4, r4, #1
 137 001e FBD1     		bne	.L15
 138              		.loc 1 317 0 discriminator 3
 139 0020 117A     		ldrb	r1, [r2, #8]	@ zero_extendqisi2
 140 0022 5268     		ldr	r2, [r2, #4]
 141 0024 3D23     		movs	r3, #61
 142 0026 8B40     		lsls	r3, r3, r1
 143 0028 1360     		str	r3, [r2]
 144              		.loc 1 319 0 is_stmt 1 discriminator 3
 145 002a 6B68     		ldr	r3, [r5, #4]
 146 002c 23F48053 		bic	r3, r3, #4096
 147 0030 6B60     		str	r3, [r5, #4]
 148              		.loc 1 320 0 discriminator 3
 149 0032 2B68     		ldr	r3, [r5]
 150 0034 23F48063 		bic	r3, r3, #1024
 151 0038 2B60     		str	r3, [r5]
 152              		.loc 1 321 0 discriminator 3
 153 003a 2B68     		ldr	r3, [r5]
 154 003c 43F40073 		orr	r3, r3, #512
 155 0040 2B60     		str	r3, [r5]
 156              	.LVL9:
 157              	.LBB211:
 158              	.LBB212:
 159              	.LBB213:
 160              	.LBB214:
 161              	.LBB215:
 162              	.LBB216:
 163              		.file 3 "ChibiOS_3.0.2/os/ext/CMSIS/include/core_cmFunc.h"
 164              		.loc 3 546 0 discriminator 3
 165 0042 2023     		movs	r3, #32
 166              		.syntax unified
 167              	@ 546 "ChibiOS_3.0.2/os/ext/CMSIS/include/core_cmFunc.h" 1
 168 0044 83F31188 		MSR basepri, r3
 169              	@ 0 "" 2
 170              	.LVL10:
 171              		.thumb
ARM GAS  /tmp/cco80xgS.s 			page 4


 172              		.syntax unified
 173              	.LBE216:
 174              	.LBE215:
 175              	.LBE214:
 176              	.LBE213:
 177              	.LBE212:
 178              	.LBE211:
 179              	.LBB217:
 180              	.LBB218:
 181              		.loc 2 728 0 discriminator 3
 182 0048 06F11C00 		add	r0, r6, #28
 183              	.LVL11:
 184 004c 2146     		mov	r1, r4
 185 004e FFF7FEFF 		bl	chThdResumeI
 186              	.LVL12:
 187              	.LBE218:
 188              	.LBE217:
 189              	.LBB219:
 190              	.LBB220:
 191              	.LBB221:
 192              	.LBB222:
 193              	.LBB223:
 194              	.LBB224:
 195              		.loc 3 546 0 discriminator 3
 196              		.syntax unified
 197              	@ 546 "ChibiOS_3.0.2/os/ext/CMSIS/include/core_cmFunc.h" 1
 198 0052 84F31188 		MSR basepri, r4
 199              	@ 0 "" 2
 200              	.LVL13:
 201              		.thumb
 202              		.syntax unified
 203              	.LBE224:
 204              	.LBE223:
 205              	.LBE222:
 206              	.LBE221:
 207              	.LBE220:
 208              	.LBE219:
 209              		.loc 1 323 0 discriminator 3
 210 0056 70BD     		pop	{r4, r5, r6, pc}
 211              	.LVL14:
 212              	.L21:
 213              	.LBB225:
 214              	.LBB226:
 215              		.loc 2 462 0
 216 0058 0148     		ldr	r0, .L22
 217              	.LVL15:
 218 005a FFF7FEFF 		bl	chSysHalt
 219              	.LVL16:
 220 005e D5E7     		b	.L14
 221              	.L23:
 222              		.align	2
 223              	.L22:
 224 0060 00000000 		.word	.LC0
 225              	.LBE226:
 226              	.LBE225:
 227              		.cfi_endproc
 228              	.LFE260:
ARM GAS  /tmp/cco80xgS.s 			page 5


 229              		.size	i2c_lld_serve_rx_end_irq, .-i2c_lld_serve_rx_end_irq
 230              		.section	.text.VectorC4,"ax",%progbits
 231              		.align	1
 232              		.p2align 4,,15
 233              		.global	VectorC4
 234              		.syntax unified
 235              		.thumb
 236              		.thumb_func
 237              		.fpu fpv4-sp-d16
 238              		.type	VectorC4, %function
 239              	VectorC4:
 240              	.LFB263:
 241              		.loc 1 436 0
 242              		.cfi_startproc
 243              		@ args = 0, pretend = 0, frame = 0
 244              		@ frame_needed = 0, uses_anonymous_args = 0
 245              	.LVL17:
 246              	.LBB243:
 247              	.LBB244:
 248              		.loc 1 246 0
 249 0000 3948     		ldr	r0, .L40
 250              		.loc 1 253 0
 251 0002 3A4A     		ldr	r2, .L40+4
 252              	.LBE244:
 253              	.LBE243:
 254              		.loc 1 436 0
 255 0004 70B5     		push	{r4, r5, r6, lr}
 256              		.cfi_def_cfa_offset 16
 257              		.cfi_offset 4, -16
 258              		.cfi_offset 5, -12
 259              		.cfi_offset 6, -8
 260              		.cfi_offset 14, -4
 261              	.LBB262:
 262              	.LBB259:
 263              		.loc 1 246 0
 264 0006 446B     		ldr	r4, [r0, #52]
 265              	.LVL18:
 266              		.loc 1 247 0
 267 0008 A369     		ldr	r3, [r4, #24]
 268              	.LVL19:
 269              		.loc 1 248 0
 270 000a 6569     		ldr	r5, [r4, #20]
 271              	.LVL20:
 272              		.loc 1 253 0
 273 000c 45EA0343 		orr	r3, r5, r3, lsl #16
 274              	.LVL21:
 275 0010 23F07F43 		bic	r3, r3, #-16777216
 276 0014 9342     		cmp	r3, r2
 277 0016 50D0     		beq	.L26
 278 0018 22D8     		bhi	.L27
 279 001a 073A     		subs	r2, r2, #7
 280 001c 9342     		cmp	r3, r2
 281 001e 40D0     		beq	.L28
 282 0020 0132     		adds	r2, r2, #1
 283 0022 9342     		cmp	r3, r2
 284 0024 14D1     		bne	.L25
 285              		.loc 1 267 0
ARM GAS  /tmp/cco80xgS.s 			page 6


 286 0026 6268     		ldr	r2, [r4, #4]
 287              		.loc 1 268 0
 288 0028 C36A     		ldr	r3, [r0, #44]
 289              		.loc 1 267 0
 290 002a 22F40072 		bic	r2, r2, #512
 291              		.loc 1 268 0
 292 002e 1B68     		ldr	r3, [r3]
 293              		.loc 1 267 0
 294 0030 6260     		str	r2, [r4, #4]
 295              		.loc 1 268 0
 296 0032 1A68     		ldr	r2, [r3]
 297 0034 42F00102 		orr	r2, r2, #1
 298 0038 1A60     		str	r2, [r3]
 299              		.loc 1 269 0
 300 003a 6268     		ldr	r2, [r4, #4]
 301 003c 42F48052 		orr	r2, r2, #4096
 302 0040 6260     		str	r2, [r4, #4]
 303              		.loc 1 270 0
 304 0042 5B68     		ldr	r3, [r3, #4]
 305 0044 012B     		cmp	r3, #1
 306 0046 03D8     		bhi	.L25
 307              		.loc 1 271 0
 308 0048 2368     		ldr	r3, [r4]
 309 004a 23F48063 		bic	r3, r3, #1024
 310 004e 2360     		str	r3, [r4]
 311              	.L25:
 312              		.loc 1 293 0
 313 0050 15F00A0F 		tst	r5, #10
 314              		.loc 1 294 0
 315 0054 18BF     		it	ne
 316 0056 A369     		ldrne	r3, [r4, #24]
 317              	.LVL22:
 318              	.LBE259:
 319              	.LBE262:
 320              		.loc 1 443 0
 321 0058 BDE87040 		pop	{r4, r5, r6, lr}
 322              		.cfi_remember_state
 323              		.cfi_restore 14
 324              		.cfi_restore 6
 325              		.cfi_restore 5
 326              		.cfi_restore 4
 327              		.cfi_def_cfa_offset 0
 328              		.loc 1 442 0
 329 005c FFF7FEBF 		b	_port_irq_epilogue
 330              	.LVL23:
 331              	.L27:
 332              		.cfi_restore_state
 333              	.LBB263:
 334              	.LBB260:
 335              		.loc 1 253 0
 336 0060 234A     		ldr	r2, .L40+8
 337 0062 9342     		cmp	r3, r2
 338 0064 12D0     		beq	.L30
 339 0066 0232     		adds	r2, r2, #2
 340 0068 9342     		cmp	r3, r2
 341 006a F1D1     		bne	.L25
 342              		.loc 1 279 0
ARM GAS  /tmp/cco80xgS.s 			page 7


 343 006c C36A     		ldr	r3, [r0, #44]
 344 006e 1B68     		ldr	r3, [r3]
 345 0070 5E68     		ldr	r6, [r3, #4]
 346 0072 3EB3     		cbz	r6, .L33
 347              		.loc 1 282 0
 348 0074 2368     		ldr	r3, [r4]
 349              		.loc 1 281 0
 350 0076 028C     		ldrh	r2, [r0, #32]
 351              		.loc 1 282 0
 352 0078 43F4A063 		orr	r3, r3, #1280
 353              		.loc 1 281 0
 354 007c 42F00102 		orr	r2, r2, #1
 355 0080 0284     		strh	r2, [r0, #32]	@ movhi
 356              		.loc 1 282 0
 357 0082 2360     		str	r3, [r4]
 358              	.LVL24:
 359              	.LBE260:
 360              	.LBE263:
 361              		.loc 1 443 0
 362 0084 BDE87040 		pop	{r4, r5, r6, lr}
 363              		.cfi_remember_state
 364              		.cfi_restore 14
 365              		.cfi_restore 6
 366              		.cfi_restore 5
 367              		.cfi_restore 4
 368              		.cfi_def_cfa_offset 0
 369              		.loc 1 442 0
 370 0088 FFF7FEBF 		b	_port_irq_epilogue
 371              	.LVL25:
 372              	.L30:
 373              		.cfi_restore_state
 374              	.LBB264:
 375              	.LBB261:
 376              		.loc 1 274 0
 377 008c 6368     		ldr	r3, [r4, #4]
 378              		.loc 1 275 0
 379 008e 026B     		ldr	r2, [r0, #48]
 380              		.loc 1 274 0
 381 0090 23F40073 		bic	r3, r3, #512
 382              		.loc 1 275 0
 383 0094 1268     		ldr	r2, [r2]
 384              		.loc 1 274 0
 385 0096 6360     		str	r3, [r4, #4]
 386              		.loc 1 275 0
 387 0098 1368     		ldr	r3, [r2]
 388 009a 43F00103 		orr	r3, r3, #1
 389 009e 1360     		str	r3, [r2]
 390 00a0 D6E7     		b	.L25
 391              	.L28:
 392              		.loc 1 255 0
 393 00a2 038C     		ldrh	r3, [r0, #32]
 394 00a4 1A0A     		lsrs	r2, r3, #8
 395 00a6 0BD0     		beq	.L39
 396              		.loc 1 257 0
 397 00a8 03F00103 		and	r3, r3, #1
 398 00ac 43F0F003 		orr	r3, r3, #240
 399 00b0 02F00602 		and	r2, r2, #6
ARM GAS  /tmp/cco80xgS.s 			page 8


 400 00b4 1343     		orrs	r3, r3, r2
 401 00b6 2361     		str	r3, [r4, #16]
 402 00b8 CAE7     		b	.L25
 403              	.L26:
 404              		.loc 1 264 0
 405 00ba 038C     		ldrh	r3, [r0, #32]
 406 00bc C3F34703 		ubfx	r3, r3, #1, #8
 407              	.L39:
 408 00c0 2361     		str	r3, [r4, #16]
 409 00c2 C5E7     		b	.L25
 410              	.L33:
 411              		.loc 1 285 0
 412 00c4 6368     		ldr	r3, [r4, #4]
 413 00c6 23F40073 		bic	r3, r3, #512
 414 00ca 6360     		str	r3, [r4, #4]
 415              		.loc 1 286 0
 416 00cc 2368     		ldr	r3, [r4]
 417 00ce 43F40073 		orr	r3, r3, #512
 418 00d2 2360     		str	r3, [r4]
 419              	.LVL26:
 420              	.LBB245:
 421              	.LBB246:
 422              	.LBB247:
 423              	.LBB248:
 424              	.LBB249:
 425              	.LBB250:
 426              		.loc 3 546 0
 427 00d4 2023     		movs	r3, #32
 428              		.syntax unified
 429              	@ 546 "ChibiOS_3.0.2/os/ext/CMSIS/include/core_cmFunc.h" 1
 430 00d6 83F31188 		MSR basepri, r3
 431              	@ 0 "" 2
 432              	.LVL27:
 433              		.thumb
 434              		.syntax unified
 435              	.LBE250:
 436              	.LBE249:
 437              	.LBE248:
 438              	.LBE247:
 439              	.LBE246:
 440              	.LBE245:
 441              	.LBB251:
 442              	.LBB252:
 443              		.loc 2 728 0
 444 00da 1C30     		adds	r0, r0, #28
 445 00dc 3146     		mov	r1, r6
 446 00de FFF7FEFF 		bl	chThdResumeI
 447              	.LVL28:
 448              	.LBE252:
 449              	.LBE251:
 450              	.LBB253:
 451              	.LBB254:
 452              	.LBB255:
 453              	.LBB256:
 454              	.LBB257:
 455              	.LBB258:
 456              		.loc 3 546 0
ARM GAS  /tmp/cco80xgS.s 			page 9


 457              		.syntax unified
 458              	@ 546 "ChibiOS_3.0.2/os/ext/CMSIS/include/core_cmFunc.h" 1
 459 00e2 86F31188 		MSR basepri, r6
 460              	@ 0 "" 2
 461              	.LVL29:
 462              		.thumb
 463              		.syntax unified
 464 00e6 B3E7     		b	.L25
 465              	.L41:
 466              		.align	2
 467              	.L40:
 468 00e8 00000000 		.word	.LANCHOR0
 469 00ec 08000300 		.word	196616
 470 00f0 82000700 		.word	458882
 471              	.LBE258:
 472              	.LBE257:
 473              	.LBE256:
 474              	.LBE255:
 475              	.LBE254:
 476              	.LBE253:
 477              	.LBE261:
 478              	.LBE264:
 479              		.cfi_endproc
 480              	.LFE263:
 481              		.size	VectorC4, .-VectorC4
 482              		.section	.text.VectorC8,"ax",%progbits
 483              		.align	1
 484              		.p2align 4,,15
 485              		.global	VectorC8
 486              		.syntax unified
 487              		.thumb
 488              		.thumb_func
 489              		.fpu fpv4-sp-d16
 490              		.type	VectorC8, %function
 491              	VectorC8:
 492              	.LFB264:
 493              		.loc 1 450 0
 494              		.cfi_startproc
 495              		@ args = 0, pretend = 0, frame = 0
 496              		@ frame_needed = 0, uses_anonymous_args = 0
 497              		.loc 1 451 0
 498 0000 3448     		ldr	r0, .L74
 499              		.loc 1 450 0
 500 0002 F8B5     		push	{r3, r4, r5, r6, r7, lr}
 501              		.cfi_def_cfa_offset 24
 502              		.cfi_offset 3, -24
 503              		.cfi_offset 4, -20
 504              		.cfi_offset 5, -16
 505              		.cfi_offset 6, -12
 506              		.cfi_offset 7, -8
 507              		.cfi_offset 14, -4
 508              	.LBB281:
 509              	.LBB282:
 510              		.loc 1 362 0
 511 0004 D0E90C75 		ldrd	r7, r5, [r0, #48]
 512              	.LBE282:
 513              	.LBE281:
ARM GAS  /tmp/cco80xgS.s 			page 10


 514              		.loc 1 451 0
 515 0008 6C69     		ldr	r4, [r5, #20]
 516              	.LBB302:
 517              	.LBB297:
 518              		.loc 1 362 0
 519 000a 3A68     		ldr	r2, [r7]
 520              	.LBE297:
 521              	.LBE302:
 522              		.loc 1 455 0
 523 000c 04F45F43 		and	r3, r4, #57088
 524 0010 DB43     		mvns	r3, r3
 525 0012 6B61     		str	r3, [r5, #20]
 526              	.LBB303:
 527              	.LBB298:
 528              		.loc 1 362 0
 529 0014 1368     		ldr	r3, [r2]
 530 0016 23F01F03 		bic	r3, r3, #31
 531 001a 1360     		str	r3, [r2]
 532              	.LBE298:
 533              	.LBE303:
 534              		.loc 1 451 0
 535 001c A1B2     		uxth	r1, r4
 536              	.LVL30:
 537              	.L43:
 538              	.LBB304:
 539              	.LBB299:
 540              		.loc 1 362 0
 541 001e 1368     		ldr	r3, [r2]
 542 0020 DB07     		lsls	r3, r3, #31
 543 0022 FCD4     		bmi	.L43
 544 0024 3A7A     		ldrb	r2, [r7, #8]	@ zero_extendqisi2
 545              		.loc 1 363 0
 546 0026 C66A     		ldr	r6, [r0, #44]
 547              		.loc 1 362 0
 548 0028 7F68     		ldr	r7, [r7, #4]
 549 002a 3D23     		movs	r3, #61
 550 002c 9340     		lsls	r3, r3, r2
 551              		.loc 1 363 0
 552 002e 3268     		ldr	r2, [r6]
 553              		.loc 1 362 0
 554 0030 3B60     		str	r3, [r7]
 555              		.loc 1 363 0
 556 0032 1368     		ldr	r3, [r2]
 557 0034 23F01F03 		bic	r3, r3, #31
 558 0038 1360     		str	r3, [r2]
 559              	.L44:
 560 003a 1368     		ldr	r3, [r2]
 561 003c DF07     		lsls	r7, r3, #31
 562 003e FCD4     		bmi	.L44
 563 0040 377A     		ldrb	r7, [r6, #8]	@ zero_extendqisi2
 564 0042 7268     		ldr	r2, [r6, #4]
 565 0044 3D23     		movs	r3, #61
 566 0046 BB40     		lsls	r3, r3, r7
 567 0048 1360     		str	r3, [r2]
 568              		.loc 1 367 0
 569 004a 11F48073 		ands	r3, r1, #256
 570              		.loc 1 368 0
ARM GAS  /tmp/cco80xgS.s 			page 11


 571 004e 18BF     		it	ne
 572 0050 0123     		movne	r3, #1
 573              		.loc 1 370 0
 574 0052 8A05     		lsls	r2, r1, #22
 575              		.loc 1 368 0
 576 0054 8360     		str	r3, [r0, #8]
 577              		.loc 1 371 0
 578 0056 44BF     		itt	mi
 579 0058 43F00203 		orrmi	r3, r3, #2
 580 005c 8360     		strmi	r3, [r0, #8]
 581              		.loc 1 373 0
 582 005e 4F05     		lsls	r7, r1, #21
 583 0060 0AD5     		bpl	.L48
 584              		.loc 1 374 0
 585 0062 6A68     		ldr	r2, [r5, #4]
 586 0064 22F40072 		bic	r2, r2, #512
 587 0068 6A60     		str	r2, [r5, #4]
 588              		.loc 1 375 0
 589 006a 2A68     		ldr	r2, [r5]
 590              		.loc 1 376 0
 591 006c 43F00403 		orr	r3, r3, #4
 592              		.loc 1 375 0
 593 0070 42F40072 		orr	r2, r2, #512
 594 0074 2A60     		str	r2, [r5]
 595              		.loc 1 376 0
 596 0076 8360     		str	r3, [r0, #8]
 597              	.L48:
 598              		.loc 1 379 0
 599 0078 0E05     		lsls	r6, r1, #20
 600              		.loc 1 380 0
 601 007a 44BF     		itt	mi
 602 007c 43F00803 		orrmi	r3, r3, #8
 603 0080 8360     		strmi	r3, [r0, #8]
 604              		.loc 1 382 0
 605 0082 4D04     		lsls	r5, r1, #17
 606              		.loc 1 383 0
 607 0084 44BF     		itt	mi
 608 0086 43F02003 		orrmi	r3, r3, #32
 609 008a 8360     		strmi	r3, [r0, #8]
 610              		.loc 1 385 0
 611 008c CA04     		lsls	r2, r1, #19
 612 008e 24B2     		sxth	r4, r4
 613 0090 13D5     		bpl	.L51
 614              		.loc 1 386 0
 615 0092 43F01003 		orr	r3, r3, #16
 616              		.loc 1 388 0
 617 0096 002C     		cmp	r4, #0
 618              		.loc 1 386 0
 619 0098 8360     		str	r3, [r0, #8]
 620              		.loc 1 388 0
 621 009a 16DB     		blt	.L52
 622              	.L53:
 623              	.LVL31:
 624              	.LBB283:
 625              	.LBB284:
 626              	.LBB285:
 627              	.LBB286:
ARM GAS  /tmp/cco80xgS.s 			page 12


 628              	.LBB287:
 629              	.LBB288:
 630              		.loc 3 546 0
 631 009c 2023     		movs	r3, #32
 632              		.syntax unified
 633              	@ 546 "ChibiOS_3.0.2/os/ext/CMSIS/include/core_cmFunc.h" 1
 634 009e 83F31188 		MSR basepri, r3
 635              	@ 0 "" 2
 636              	.LVL32:
 637              		.thumb
 638              		.syntax unified
 639              	.LBE288:
 640              	.LBE287:
 641              	.LBE286:
 642              	.LBE285:
 643              	.LBE284:
 644              	.LBE283:
 645              	.LBB289:
 646              	.LBB290:
 647              		.loc 2 728 0
 648 00a2 6FF00101 		mvn	r1, #1
 649              	.LVL33:
 650 00a6 0C48     		ldr	r0, .L74+4
 651 00a8 FFF7FEFF 		bl	chThdResumeI
 652              	.LVL34:
 653              	.LBE290:
 654              	.LBE289:
 655              	.LBB291:
 656              	.LBB292:
 657              	.LBB293:
 658              	.LBB294:
 659              	.LBB295:
 660              	.LBB296:
 661              		.loc 3 546 0
 662 00ac 0023     		movs	r3, #0
 663              		.syntax unified
 664              	@ 546 "ChibiOS_3.0.2/os/ext/CMSIS/include/core_cmFunc.h" 1
 665 00ae 83F31188 		MSR basepri, r3
 666              	@ 0 "" 2
 667              	.LVL35:
 668              		.thumb
 669              		.syntax unified
 670              	.LBE296:
 671              	.LBE295:
 672              	.LBE294:
 673              	.LBE293:
 674              	.LBE292:
 675              	.LBE291:
 676              	.LBE299:
 677              	.LBE304:
 678              		.loc 1 459 0
 679 00b2 BDE8F840 		pop	{r3, r4, r5, r6, r7, lr}
 680              		.cfi_remember_state
 681              		.cfi_restore 14
 682              		.cfi_restore 7
 683              		.cfi_restore 6
 684              		.cfi_restore 5
ARM GAS  /tmp/cco80xgS.s 			page 13


 685              		.cfi_restore 4
 686              		.cfi_restore 3
 687              		.cfi_def_cfa_offset 0
 688              	.LVL36:
 689              		.loc 1 458 0
 690 00b6 FFF7FEBF 		b	_port_irq_epilogue
 691              	.LVL37:
 692              	.L51:
 693              		.cfi_restore_state
 694              	.LBB305:
 695              	.LBB300:
 696              		.loc 1 388 0
 697 00ba 002C     		cmp	r4, #0
 698 00bc 05DB     		blt	.L52
 699              		.loc 1 392 0
 700 00be 002B     		cmp	r3, #0
 701 00c0 ECD1     		bne	.L53
 702              	.LVL38:
 703              	.LBE300:
 704              	.LBE305:
 705              		.loc 1 459 0
 706 00c2 BDE8F840 		pop	{r3, r4, r5, r6, r7, lr}
 707              		.cfi_remember_state
 708              		.cfi_restore 14
 709              		.cfi_restore 7
 710              		.cfi_restore 6
 711              		.cfi_restore 5
 712              		.cfi_restore 4
 713              		.cfi_restore 3
 714              		.cfi_def_cfa_offset 0
 715              		.loc 1 458 0
 716 00c6 FFF7FEBF 		b	_port_irq_epilogue
 717              	.LVL39:
 718              	.L52:
 719              		.cfi_restore_state
 720              	.LBB306:
 721              	.LBB301:
 722              		.loc 1 389 0
 723 00ca 43F04003 		orr	r3, r3, #64
 724 00ce 8360     		str	r3, [r0, #8]
 725 00d0 E4E7     		b	.L53
 726              	.L75:
 727 00d2 00BF     		.align	2
 728              	.L74:
 729 00d4 00000000 		.word	.LANCHOR0
 730 00d8 1C000000 		.word	.LANCHOR0+28
 731              	.LBE301:
 732              	.LBE306:
 733              		.cfi_endproc
 734              	.LFE264:
 735              		.size	VectorC8, .-VectorC8
 736              		.section	.text.i2c_lld_init,"ax",%progbits
 737              		.align	1
 738              		.p2align 4,,15
 739              		.global	i2c_lld_init
 740              		.syntax unified
 741              		.thumb
ARM GAS  /tmp/cco80xgS.s 			page 14


 742              		.thumb_func
 743              		.fpu fpv4-sp-d16
 744              		.type	i2c_lld_init, %function
 745              	i2c_lld_init:
 746              	.LFB265:
 747              		.loc 1 503 0
 748              		.cfi_startproc
 749              		@ args = 0, pretend = 0, frame = 0
 750              		@ frame_needed = 0, uses_anonymous_args = 0
 751 0000 10B5     		push	{r4, lr}
 752              		.cfi_def_cfa_offset 8
 753              		.cfi_offset 4, -8
 754              		.cfi_offset 14, -4
 755              		.loc 1 514 0
 756 0002 074C     		ldr	r4, .L78
 757 0004 2046     		mov	r0, r4
 758 0006 FFF7FEFF 		bl	i2cObjectInit
 759              	.LVL40:
 760              		.loc 1 517 0
 761 000a 064B     		ldr	r3, .L78+4
 762              		.loc 1 516 0
 763 000c 064A     		ldr	r2, .L78+8
 764 000e 6263     		str	r2, [r4, #52]
 765              		.loc 1 515 0
 766 0010 0021     		movs	r1, #0
 767              		.loc 1 518 0
 768 0012 03F13C02 		add	r2, r3, #60
 769              		.loc 1 515 0
 770 0016 E161     		str	r1, [r4, #28]
 771              		.loc 1 518 0
 772 0018 C4E90B32 		strd	r3, r2, [r4, #44]
 773              		.loc 1 528 0
 774 001c 10BD     		pop	{r4, pc}
 775              	.L79:
 776 001e 00BF     		.align	2
 777              	.L78:
 778 0020 00000000 		.word	.LANCHOR0
 779 0024 18000000 		.word	_stm32_dma_streams+24
 780 0028 00580040 		.word	1073764352
 781              		.cfi_endproc
 782              	.LFE265:
 783              		.size	i2c_lld_init, .-i2c_lld_init
 784              		.section	.text.i2c_lld_start,"ax",%progbits
 785              		.align	1
 786              		.p2align 4,,15
 787              		.global	i2c_lld_start
 788              		.syntax unified
 789              		.thumb
 790              		.thumb_func
 791              		.fpu fpv4-sp-d16
 792              		.type	i2c_lld_start, %function
 793              	i2c_lld_start:
 794              	.LFB266:
 795              		.loc 1 537 0
 796              		.cfi_startproc
 797              		@ args = 0, pretend = 0, frame = 0
 798              		@ frame_needed = 0, uses_anonymous_args = 0
ARM GAS  /tmp/cco80xgS.s 			page 15


 799              	.LVL41:
 800 0000 F8B5     		push	{r3, r4, r5, r6, r7, lr}
 801              		.cfi_def_cfa_offset 24
 802              		.cfi_offset 3, -24
 803              		.cfi_offset 4, -20
 804              		.cfi_offset 5, -16
 805              		.cfi_offset 6, -12
 806              		.cfi_offset 7, -8
 807              		.cfi_offset 14, -4
 808              		.loc 1 550 0
 809 0002 0378     		ldrb	r3, [r0]	@ zero_extendqisi2
 810              		.loc 1 538 0
 811 0004 456B     		ldr	r5, [r0, #52]
 812              	.LVL42:
 813              		.loc 1 540 0
 814 0006 40F25642 		movw	r2, #1110
 815 000a 8262     		str	r2, [r0, #40]
 816              		.loc 1 550 0
 817 000c 012B     		cmp	r3, #1
 818              		.loc 1 544 0
 819 000e 40F21642 		movw	r2, #1046
 820              		.loc 1 537 0
 821 0012 0446     		mov	r4, r0
 822              		.loc 1 544 0
 823 0014 4262     		str	r2, [r0, #36]
 824              		.loc 1 550 0
 825 0016 3CD0     		beq	.L95
 826              	.L91:
 827              		.loc 1 538 0
 828 0018 2B46     		mov	r3, r5
 829              	.LVL43:
 830              	.L81:
 831              		.loc 1 633 0
 832 001a D4E90B12 		ldrd	r1, r2, [r4, #44]
 833              		.loc 1 641 0
 834 001e 6068     		ldr	r0, [r4, #4]
 835              	.LVL44:
 836              		.loc 1 632 0
 837 0020 0F68     		ldr	r7, [r1]
 838              		.loc 1 633 0
 839 0022 D2F800C0 		ldr	ip, [r2]
 840              	.LBB312:
 841              	.LBB313:
 842              		.loc 1 146 0
 843 0026 4168     		ldr	r1, [r0, #4]
 844              	.LVL45:
 845              		.loc 1 161 0
 846 0028 464E     		ldr	r6, .L100
 847              	.LBE313:
 848              	.LBE312:
 849              		.loc 1 632 0
 850 002a 05F11002 		add	r2, r5, #16
 851 002e BA60     		str	r2, [r7, #8]
 852              		.loc 1 638 0
 853 0030 4FF41064 		mov	r4, #2304
 854              	.LVL46:
 855              		.loc 1 633 0
ARM GAS  /tmp/cco80xgS.s 			page 16


 856 0034 CCF80820 		str	r2, [ip, #8]
 857              		.loc 1 636 0
 858 0038 4FF40047 		mov	r7, #32768
 859              		.loc 1 637 0
 860 003c 0022     		movs	r2, #0
 861              		.loc 1 636 0
 862 003e 2F60     		str	r7, [r5]
 863              		.loc 1 637 0
 864 0040 2A60     		str	r2, [r5]
 865              		.loc 1 638 0
 866 0042 6C60     		str	r4, [r5, #4]
 867              	.LBB317:
 868              	.LBB314:
 869              		.loc 1 154 0
 870 0044 5C68     		ldr	r4, [r3, #4]
 871 0046 4FF6C077 		movw	r7, #65472
 872 004a 3C40     		ands	r4, r4, r7
 873              		.loc 1 147 0
 874 004c 077A     		ldrb	r7, [r0, #8]	@ zero_extendqisi2
 875              	.LVL47:
 876              		.loc 1 154 0
 877 004e 5C60     		str	r4, [r3, #4]
 878              		.loc 1 155 0
 879 0050 5C68     		ldr	r4, [r3, #4]
 880              		.loc 1 161 0
 881 0052 B142     		cmp	r1, r6
 882              		.loc 1 155 0
 883 0054 44F02A04 		orr	r4, r4, #42
 884 0058 5C60     		str	r4, [r3, #4]
 885              	.LVL48:
 886              		.loc 1 161 0
 887 005a 49DD     		ble	.L96
 888              		.loc 1 177 0
 889 005c 3A4C     		ldr	r4, .L100+4
 890 005e A142     		cmp	r1, r4
 891 0060 07DC     		bgt	.L83
 892              		.loc 1 183 0
 893 0062 022F     		cmp	r7, #2
 894 0064 56D0     		beq	.L97
 895              		.loc 1 189 0
 896 0066 032F     		cmp	r7, #3
 897 0068 5FD0     		beq	.L98
 898 006a 48F6FF72 		movw	r2, #36863
 899              	.LVL49:
 900              	.L85:
 901              		.loc 1 202 0
 902 006e 0D21     		movs	r1, #13
 903 0070 1962     		str	r1, [r3, #32]
 904              	.L83:
 905              		.loc 1 207 0
 906 0072 DA61     		str	r2, [r3, #28]
 907              	.LVL50:
 908              	.LBE314:
 909              	.LBE317:
 910              	.LBB318:
 911              	.LBB319:
 912              		.loc 1 223 0
ARM GAS  /tmp/cco80xgS.s 			page 17


 913 0074 0178     		ldrb	r1, [r0]	@ zero_extendqisi2
 914              		.loc 1 222 0
 915 0076 1A68     		ldr	r2, [r3]
 916              		.loc 1 223 0
 917 0078 0229     		cmp	r1, #2
 918              		.loc 1 222 0
 919 007a 92B2     		uxth	r2, r2
 920              	.LVL51:
 921              		.loc 1 223 0
 922 007c 44D0     		beq	.L87
 923 007e 0329     		cmp	r1, #3
 924 0080 3FD0     		beq	.L88
 925 0082 0129     		cmp	r1, #1
 926 0084 30D0     		beq	.L99
 927              	.L86:
 928              		.loc 1 235 0
 929 0086 1A60     		str	r2, [r3]
 930              	.LVL52:
 931              	.LBE319:
 932              	.LBE318:
 933              		.loc 1 645 0
 934 0088 2B68     		ldr	r3, [r5]
 935 008a 43F00103 		orr	r3, r3, #1
 936 008e 2B60     		str	r3, [r5]
 937              		.loc 1 646 0
 938 0090 F8BD     		pop	{r3, r4, r5, r6, r7, pc}
 939              	.LVL53:
 940              	.L95:
 941              		.loc 1 579 0
 942 0092 2E4B     		ldr	r3, .L100+8
 943 0094 9842     		cmp	r0, r3
 944 0096 BFD1     		bne	.L91
 945              	.LBB322:
 946              		.loc 1 582 0
 947 0098 2D4E     		ldr	r6, .L100+12
 948              		.loc 1 583 0
 949 009a C06A     		ldr	r0, [r0, #44]
 950              	.LVL54:
 951              		.loc 1 582 0
 952 009c 336A     		ldr	r3, [r6, #32]
 953              		.loc 1 583 0
 954 009e 2D4A     		ldr	r2, .L100+16
 955              		.loc 1 582 0
 956 00a0 43F48003 		orr	r3, r3, #4194304
 957 00a4 0021     		movs	r1, #0
 958 00a6 3362     		str	r3, [r6, #32]
 959              		.loc 1 583 0
 960 00a8 2346     		mov	r3, r4
 961              		.loc 1 582 0
 962 00aa 3162     		str	r1, [r6, #32]
 963              		.loc 1 583 0
 964 00ac 0521     		movs	r1, #5
 965 00ae FFF7FEFF 		bl	dmaStreamAllocate
 966              	.LVL55:
 967              		.loc 1 588 0
 968 00b2 294A     		ldr	r2, .L100+20
 969 00b4 206B     		ldr	r0, [r4, #48]
ARM GAS  /tmp/cco80xgS.s 			page 18


 970 00b6 2346     		mov	r3, r4
 971 00b8 0521     		movs	r1, #5
 972 00ba FFF7FEFF 		bl	dmaStreamAllocate
 973              	.LVL56:
 974              		.loc 1 593 0
 975 00be 336C     		ldr	r3, [r6, #64]
 976 00c0 43F48003 		orr	r3, r3, #4194304
 977 00c4 3364     		str	r3, [r6, #64]
 978              		.loc 1 594 0
 979 00c6 0521     		movs	r1, #5
 980 00c8 2120     		movs	r0, #33
 981 00ca FFF7FEFF 		bl	nvicEnableVector
 982              	.LVL57:
 983              		.loc 1 595 0
 984 00ce 0521     		movs	r1, #5
 985 00d0 2220     		movs	r0, #34
 986 00d2 FFF7FEFF 		bl	nvicEnableVector
 987              	.LVL58:
 988              		.loc 1 597 0
 989 00d6 616A     		ldr	r1, [r4, #36]
 990 00d8 2048     		ldr	r0, .L100+24
 991              		.loc 1 599 0
 992 00da A26A     		ldr	r2, [r4, #40]
 993 00dc 636B     		ldr	r3, [r4, #52]
 994              		.loc 1 597 0
 995 00de 0143     		orrs	r1, r1, r0
 996              		.loc 1 599 0
 997 00e0 0243     		orrs	r2, r2, r0
 998 00e2 C4E90912 		strd	r1, r2, [r4, #36]
 999 00e6 98E7     		b	.L81
 1000              	.LVL59:
 1001              	.L99:
 1002              	.LBE322:
 1003              	.LBB323:
 1004              	.LBB320:
 1005              		.loc 1 225 0
 1006 00e8 22F00A02 		bic	r2, r2, #10
 1007              	.LVL60:
 1008 00ec 92B2     		uxth	r2, r2
 1009              	.LVL61:
 1010 00ee CAE7     		b	.L86
 1011              	.LVL62:
 1012              	.L96:
 1013              	.LBE320:
 1014              	.LBE323:
 1015              	.LBB324:
 1016              	.LBB315:
 1017              		.loc 1 175 0
 1018 00f0 2B24     		movs	r4, #43
 1019              		.loc 1 168 0
 1020 00f2 4900     		lsls	r1, r1, #1
 1021              	.LVL63:
 1022 00f4 1A4A     		ldr	r2, .L100+28
 1023              		.loc 1 175 0
 1024 00f6 1C62     		str	r4, [r3, #32]
 1025              		.loc 1 168 0
 1026 00f8 B2FBF1F2 		udiv	r2, r2, r1
ARM GAS  /tmp/cco80xgS.s 			page 19


 1027 00fc C2F30B02 		ubfx	r2, r2, #0, #12
 1028 0100 B7E7     		b	.L83
 1029              	.LVL64:
 1030              	.L88:
 1031              	.LBE315:
 1032              	.LBE324:
 1033              	.LBB325:
 1034              	.LBB321:
 1035              		.loc 1 232 0
 1036 0102 42F00A02 		orr	r2, r2, #10
 1037              	.LVL65:
 1038 0106 BEE7     		b	.L86
 1039              	.L87:
 1040              	.LVL66:
 1041 0108 22F00802 		bic	r2, r2, #8
 1042              	.LVL67:
 1043 010c 92B2     		uxth	r2, r2
 1044              		.loc 1 229 0
 1045 010e 42F00202 		orr	r2, r2, #2
 1046              	.LVL68:
 1047 0112 B8E7     		b	.L86
 1048              	.LVL69:
 1049              	.L97:
 1050              	.LBE321:
 1051              	.LBE325:
 1052              	.LBB326:
 1053              	.LBB316:
 1054              		.loc 1 187 0
 1055 0114 01EB4101 		add	r1, r1, r1, lsl #1
 1056              	.LVL70:
 1057 0118 114A     		ldr	r2, .L100+28
 1058 011a B2FBF1F2 		udiv	r2, r2, r1
 1059 011e 6FEA4242 		mvn	r2, r2, lsl #17
 1060 0122 6FEA5242 		mvn	r2, r2, lsr #17
 1061 0126 92B2     		uxth	r2, r2
 1062 0128 A1E7     		b	.L85
 1063              	.LVL71:
 1064              	.L98:
 1065              		.loc 1 193 0
 1066 012a 01EB8102 		add	r2, r1, r1, lsl #2
 1067 012e 02EB8201 		add	r1, r2, r2, lsl #2
 1068              	.LVL72:
 1069 0132 0B4A     		ldr	r2, .L100+28
 1070 0134 B2FBF1F2 		udiv	r2, r2, r1
 1071 0138 6FEA8242 		mvn	r2, r2, lsl #18
 1072 013c 6FEA9242 		mvn	r2, r2, lsr #18
 1073 0140 92B2     		uxth	r2, r2
 1074 0142 94E7     		b	.L85
 1075              	.L101:
 1076              		.align	2
 1077              	.L100:
 1078 0144 A0860100 		.word	100000
 1079 0148 801A0600 		.word	400000
 1080 014c 00000000 		.word	.LANCHOR0
 1081 0150 00380240 		.word	1073887232
 1082 0154 00000000 		.word	i2c_lld_serve_rx_end_irq
 1083 0158 00000000 		.word	i2c_lld_serve_tx_end_irq
ARM GAS  /tmp/cco80xgS.s 			page 20


 1084 015c 0000030E 		.word	235077632
 1085 0160 80DE8002 		.word	42000000
 1086              	.LBE316:
 1087              	.LBE326:
 1088              		.cfi_endproc
 1089              	.LFE266:
 1090              		.size	i2c_lld_start, .-i2c_lld_start
 1091              		.section	.text.i2c_lld_stop,"ax",%progbits
 1092              		.align	1
 1093              		.p2align 4,,15
 1094              		.global	i2c_lld_stop
 1095              		.syntax unified
 1096              		.thumb
 1097              		.thumb_func
 1098              		.fpu fpv4-sp-d16
 1099              		.type	i2c_lld_stop, %function
 1100              	i2c_lld_stop:
 1101              	.LFB267:
 1102              		.loc 1 655 0
 1103              		.cfi_startproc
 1104              		@ args = 0, pretend = 0, frame = 0
 1105              		@ frame_needed = 0, uses_anonymous_args = 0
 1106              	.LVL73:
 1107 0000 38B5     		push	{r3, r4, r5, lr}
 1108              		.cfi_def_cfa_offset 16
 1109              		.cfi_offset 3, -16
 1110              		.cfi_offset 4, -12
 1111              		.cfi_offset 5, -8
 1112              		.cfi_offset 14, -4
 1113              		.loc 1 658 0
 1114 0002 0378     		ldrb	r3, [r0]	@ zero_extendqisi2
 1115 0004 012B     		cmp	r3, #1
 1116 0006 2DD0     		beq	.L102
 1117              	.LVL74:
 1118              	.LBB329:
 1119              	.LBB330:
 1120              		.loc 1 123 0
 1121 0008 D0E90C13 		ldrd	r1, r3, [r0, #48]
 1122              	.LVL75:
 1123              		.loc 1 127 0
 1124 000c 0024     		movs	r4, #0
 1125              		.loc 1 132 0
 1126 000e 0A68     		ldr	r2, [r1]
 1127              		.loc 1 126 0
 1128 0010 4FF40045 		mov	r5, #32768
 1129 0014 1D60     		str	r5, [r3]
 1130              		.loc 1 127 0
 1131 0016 1C60     		str	r4, [r3]
 1132              		.loc 1 128 0
 1133 0018 5C60     		str	r4, [r3, #4]
 1134              		.loc 1 129 0
 1135 001a 5C61     		str	r4, [r3, #20]
 1136              		.loc 1 132 0
 1137 001c 1368     		ldr	r3, [r2]
 1138              	.LVL76:
 1139 001e 23F01F03 		bic	r3, r3, #31
 1140 0022 1360     		str	r3, [r2]
ARM GAS  /tmp/cco80xgS.s 			page 21


 1141              	.L105:
 1142 0024 1368     		ldr	r3, [r2]
 1143 0026 DC07     		lsls	r4, r3, #31
 1144 0028 FCD4     		bmi	.L105
 1145 002a 0A7A     		ldrb	r2, [r1, #8]	@ zero_extendqisi2
 1146              		.loc 1 133 0
 1147 002c C56A     		ldr	r5, [r0, #44]
 1148              		.loc 1 132 0
 1149 002e 4C68     		ldr	r4, [r1, #4]
 1150 0030 3D23     		movs	r3, #61
 1151 0032 9340     		lsls	r3, r3, r2
 1152              		.loc 1 133 0
 1153 0034 2A68     		ldr	r2, [r5]
 1154              		.loc 1 132 0
 1155 0036 2360     		str	r3, [r4]
 1156              		.loc 1 133 0
 1157 0038 1368     		ldr	r3, [r2]
 1158 003a 23F01F03 		bic	r3, r3, #31
 1159 003e 1360     		str	r3, [r2]
 1160              	.L106:
 1161 0040 1368     		ldr	r3, [r2]
 1162 0042 DB07     		lsls	r3, r3, #31
 1163 0044 FCD4     		bmi	.L106
 1164 0046 0446     		mov	r4, r0
 1165 0048 287A     		ldrb	r0, [r5, #8]	@ zero_extendqisi2
 1166              	.LVL77:
 1167 004a 6A68     		ldr	r2, [r5, #4]
 1168 004c 3D23     		movs	r3, #61
 1169 004e 8340     		lsls	r3, r3, r0
 1170 0050 1360     		str	r3, [r2]
 1171              	.LVL78:
 1172              	.LBE330:
 1173              	.LBE329:
 1174              		.loc 1 662 0
 1175 0052 0846     		mov	r0, r1
 1176 0054 FFF7FEFF 		bl	dmaStreamRelease
 1177              	.LVL79:
 1178              		.loc 1 663 0
 1179 0058 E06A     		ldr	r0, [r4, #44]
 1180 005a FFF7FEFF 		bl	dmaStreamRelease
 1181              	.LVL80:
 1182              		.loc 1 674 0
 1183 005e 084B     		ldr	r3, .L112
 1184 0060 9C42     		cmp	r4, r3
 1185 0062 00D0     		beq	.L111
 1186              	.LVL81:
 1187              	.L102:
 1188              		.loc 1 689 0
 1189 0064 38BD     		pop	{r3, r4, r5, pc}
 1190              	.LVL82:
 1191              	.L111:
 1192              		.loc 1 675 0
 1193 0066 2120     		movs	r0, #33
 1194 0068 FFF7FEFF 		bl	nvicDisableVector
 1195              	.LVL83:
 1196              		.loc 1 676 0
 1197 006c 2220     		movs	r0, #34
ARM GAS  /tmp/cco80xgS.s 			page 22


 1198 006e FFF7FEFF 		bl	nvicDisableVector
 1199              	.LVL84:
 1200              		.loc 1 677 0
 1201 0072 044A     		ldr	r2, .L112+4
 1202 0074 136C     		ldr	r3, [r2, #64]
 1203 0076 23F48003 		bic	r3, r3, #4194304
 1204 007a 1364     		str	r3, [r2, #64]
 1205              		.loc 1 689 0
 1206 007c 38BD     		pop	{r3, r4, r5, pc}
 1207              	.LVL85:
 1208              	.L113:
 1209 007e 00BF     		.align	2
 1210              	.L112:
 1211 0080 00000000 		.word	.LANCHOR0
 1212 0084 00380240 		.word	1073887232
 1213              		.cfi_endproc
 1214              	.LFE267:
 1215              		.size	i2c_lld_stop, .-i2c_lld_stop
 1216              		.section	.text.i2c_lld_master_receive_timeout,"ax",%progbits
 1217              		.align	1
 1218              		.p2align 4,,15
 1219              		.global	i2c_lld_master_receive_timeout
 1220              		.syntax unified
 1221              		.thumb
 1222              		.thumb_func
 1223              		.fpu fpv4-sp-d16
 1224              		.type	i2c_lld_master_receive_timeout, %function
 1225              	i2c_lld_master_receive_timeout:
 1226              	.LFB268:
 1227              		.loc 1 716 0
 1228              		.cfi_startproc
 1229              		@ args = 4, pretend = 0, frame = 0
 1230              		@ frame_needed = 0, uses_anonymous_args = 0
 1231              		@ link register save eliminated.
 1232              	.LVL86:
 1233              		.loc 1 728 0
 1234 0000 4900     		lsls	r1, r1, #1
 1235              	.LVL87:
 1236              		.loc 1 716 0
 1237 0002 F0B4     		push	{r4, r5, r6, r7}
 1238              		.cfi_def_cfa_offset 16
 1239              		.cfi_offset 4, -16
 1240              		.cfi_offset 5, -12
 1241              		.cfi_offset 6, -8
 1242              		.cfi_offset 7, -4
 1243              		.loc 1 728 0
 1244 0004 41F00101 		orr	r1, r1, #1
 1245              		.loc 1 725 0
 1246 0008 0025     		movs	r5, #0
 1247              		.loc 1 728 0
 1248 000a 0184     		strh	r1, [r0, #32]	@ movhi
 1249              		.loc 1 717 0
 1250 000c 446B     		ldr	r4, [r0, #52]
 1251              	.LVL88:
 1252              		.loc 1 725 0
 1253 000e 8560     		str	r5, [r0, #8]
 1254              		.loc 1 716 0
ARM GAS  /tmp/cco80xgS.s 			page 23


 1255 0010 DDF810C0 		ldr	ip, [sp, #16]
 1256              	.LBB331:
 1257              	.LBB332:
 1258              	.LBB333:
 1259              	.LBB334:
 1260              	.LBB335:
 1261              	.LBB336:
 1262              		.loc 3 546 0
 1263              		.syntax unified
 1264              	@ 546 "ChibiOS_3.0.2/os/ext/CMSIS/include/core_cmFunc.h" 1
 1265 0014 85F31188 		MSR basepri, r5
 1266              	@ 0 "" 2
 1267              	.LVL89:
 1268              		.thumb
 1269              		.syntax unified
 1270              	.LBE336:
 1271              	.LBE335:
 1272              	.LBE334:
 1273              	.LBE333:
 1274              	.LBE332:
 1275              	.LBE331:
 1276              		.loc 1 734 0
 1277 0018 C66A     		ldr	r6, [r0, #44]
 1278 001a 416A     		ldr	r1, [r0, #36]
 1279 001c 3768     		ldr	r7, [r6]
 1280              	.LBB337:
 1281              	.LBB338:
 1282              	.LBB339:
 1283              		.file 4 "ChibiOS_3.0.2/os/rt/include/chvt.h"
 1284              		.loc 4 231 0
 1285 001e 144E     		ldr	r6, .L121
 1286              	.LBE339:
 1287              	.LBE338:
 1288              	.LBE337:
 1289              		.loc 1 734 0
 1290 0020 3960     		str	r1, [r7]
 1291              		.loc 1 735 0
 1292 0022 FA60     		str	r2, [r7, #12]
 1293              		.loc 1 736 0
 1294 0024 7B60     		str	r3, [r7, #4]
 1295              	.LBB342:
 1296              	.LBB343:
 1297              	.LBB344:
 1298              	.LBB345:
 1299              	.LBB346:
 1300              	.LBB347:
 1301              		.loc 3 546 0
 1302 0026 2A46     		mov	r2, r5
 1303              	.LVL90:
 1304              	.LBE347:
 1305              	.LBE346:
 1306              	.LBE345:
 1307              	.LBE344:
 1308              	.LBE343:
 1309              	.LBE342:
 1310              	.LBB353:
 1311              	.LBB341:
ARM GAS  /tmp/cco80xgS.s 			page 24


 1312              	.LBB340:
 1313              		.loc 4 231 0
 1314 0028 B76A     		ldr	r7, [r6, #40]
 1315              	.LVL91:
 1316              	.LBE340:
 1317              	.LBE341:
 1318              	.LBE353:
 1319              	.LBB354:
 1320              	.LBB355:
 1321              	.LBB356:
 1322              	.LBB357:
 1323              	.LBB358:
 1324              		.loc 3 546 0
 1325 002a 2025     		movs	r5, #32
 1326 002c 01E0     		b	.L118
 1327              	.LVL92:
 1328              	.L120:
 1329              	.LBE358:
 1330              	.LBE357:
 1331              	.LBE356:
 1332              	.LBE355:
 1333              	.LBE354:
 1334              	.LBB363:
 1335              	.LBB352:
 1336              	.LBB351:
 1337              	.LBB350:
 1338              	.LBB349:
 1339              	.LBB348:
 1340              		.syntax unified
 1341              	@ 546 "ChibiOS_3.0.2/os/ext/CMSIS/include/core_cmFunc.h" 1
 1342 002e 82F31188 		MSR basepri, r2
 1343              	@ 0 "" 2
 1344              	.LVL93:
 1345              		.thumb
 1346              		.syntax unified
 1347              	.L118:
 1348              	.LBE348:
 1349              	.LBE349:
 1350              	.LBE350:
 1351              	.LBE351:
 1352              	.LBE352:
 1353              	.LBE363:
 1354              	.LBB364:
 1355              	.LBB362:
 1356              	.LBB361:
 1357              	.LBB360:
 1358              	.LBB359:
 1359              		.syntax unified
 1360              	@ 546 "ChibiOS_3.0.2/os/ext/CMSIS/include/core_cmFunc.h" 1
 1361 0032 85F31188 		MSR basepri, r5
 1362              	@ 0 "" 2
 1363              	.LVL94:
 1364              		.thumb
 1365              		.syntax unified
 1366              	.LBE359:
 1367              	.LBE360:
 1368              	.LBE361:
ARM GAS  /tmp/cco80xgS.s 			page 25


 1369              	.LBE362:
 1370              	.LBE364:
 1371              		.loc 1 749 0
 1372 0036 A369     		ldr	r3, [r4, #24]
 1373 0038 9907     		lsls	r1, r3, #30
 1374 003a 02D4     		bmi	.L115
 1375              		.loc 1 749 0 is_stmt 0 discriminator 1
 1376 003c 2368     		ldr	r3, [r4]
 1377 003e 9B05     		lsls	r3, r3, #22
 1378 0040 08D5     		bpl	.L116
 1379              	.L115:
 1380              	.LBB365:
 1381              	.LBB366:
 1382              	.LBB367:
 1383              		.loc 4 231 0 is_stmt 1
 1384 0042 B36A     		ldr	r3, [r6, #40]
 1385              	.LBE367:
 1386              	.LBE366:
 1387              	.LBE365:
 1388              	.LBB368:
 1389              	.LBB369:
 1390              	.LBB370:
 1391              		.loc 4 288 0
 1392 0044 DB1B     		subs	r3, r3, r7
 1393              	.LBE370:
 1394              	.LBE369:
 1395              	.LBE368:
 1396              		.loc 1 754 0
 1397 0046 B3F5FA7F 		cmp	r3, #500
 1398 004a F0D3     		bcc	.L120
 1399              		.loc 1 766 0
 1400 004c 4FF0FF30 		mov	r0, #-1
 1401              	.LVL95:
 1402 0050 F0BC     		pop	{r4, r5, r6, r7}
 1403              		.cfi_remember_state
 1404              		.cfi_restore 7
 1405              		.cfi_restore 6
 1406              		.cfi_restore 5
 1407              		.cfi_restore 4
 1408              		.cfi_def_cfa_offset 0
 1409              	.LVL96:
 1410 0052 7047     		bx	lr
 1411              	.LVL97:
 1412              	.L116:
 1413              		.cfi_restore_state
 1414              		.loc 1 761 0
 1415 0054 6368     		ldr	r3, [r4, #4]
 1416 0056 43F40073 		orr	r3, r3, #512
 1417 005a 6360     		str	r3, [r4, #4]
 1418              	.LVL98:
 1419              		.loc 1 762 0
 1420 005c 2368     		ldr	r3, [r4]
 1421 005e 43F4A063 		orr	r3, r3, #1280
 1422 0062 2360     		str	r3, [r4]
 1423              	.LBB371:
 1424              	.LBB372:
 1425              		.loc 2 713 0
ARM GAS  /tmp/cco80xgS.s 			page 26


 1426 0064 6146     		mov	r1, ip
 1427              	.LVL99:
 1428 0066 1C30     		adds	r0, r0, #28
 1429              	.LVL100:
 1430              	.LBE372:
 1431              	.LBE371:
 1432              		.loc 1 766 0
 1433 0068 F0BC     		pop	{r4, r5, r6, r7}
 1434              		.cfi_restore 7
 1435              		.cfi_restore 6
 1436              		.cfi_restore 5
 1437              		.cfi_restore 4
 1438              		.cfi_def_cfa_offset 0
 1439              	.LVL101:
 1440              	.LBB374:
 1441              	.LBB373:
 1442              		.loc 2 713 0
 1443 006a FFF7FEBF 		b	chThdSuspendTimeoutS
 1444              	.LVL102:
 1445              	.L122:
 1446 006e 00BF     		.align	2
 1447              	.L121:
 1448 0070 00000000 		.word	ch
 1449              	.LBE373:
 1450              	.LBE374:
 1451              		.cfi_endproc
 1452              	.LFE268:
 1453              		.size	i2c_lld_master_receive_timeout, .-i2c_lld_master_receive_timeout
 1454              		.section	.text.i2c_lld_master_transmit_timeout,"ax",%progbits
 1455              		.align	1
 1456              		.p2align 4,,15
 1457              		.global	i2c_lld_master_transmit_timeout
 1458              		.syntax unified
 1459              		.thumb
 1460              		.thumb_func
 1461              		.fpu fpv4-sp-d16
 1462              		.type	i2c_lld_master_transmit_timeout, %function
 1463              	i2c_lld_master_transmit_timeout:
 1464              	.LFB269:
 1465              		.loc 1 796 0
 1466              		.cfi_startproc
 1467              		@ args = 12, pretend = 0, frame = 0
 1468              		@ frame_needed = 0, uses_anonymous_args = 0
 1469              	.LVL103:
 1470 0000 2DE9F043 		push	{r4, r5, r6, r7, r8, r9, lr}
 1471              		.cfi_def_cfa_offset 28
 1472              		.cfi_offset 4, -28
 1473              		.cfi_offset 5, -24
 1474              		.cfi_offset 6, -20
 1475              		.cfi_offset 7, -16
 1476              		.cfi_offset 8, -12
 1477              		.cfi_offset 9, -8
 1478              		.cfi_offset 14, -4
 1479              		.loc 1 808 0
 1480 0004 4900     		lsls	r1, r1, #1
 1481              	.LVL104:
 1482              		.loc 1 805 0
ARM GAS  /tmp/cco80xgS.s 			page 27


 1483 0006 0025     		movs	r5, #0
 1484              		.loc 1 796 0
 1485 0008 1646     		mov	r6, r2
 1486              		.loc 1 808 0
 1487 000a 0184     		strh	r1, [r0, #32]	@ movhi
 1488              		.loc 1 796 0
 1489 000c 9E46     		mov	lr, r3
 1490              		.loc 1 797 0
 1491 000e 446B     		ldr	r4, [r0, #52]
 1492              	.LVL105:
 1493              		.loc 1 805 0
 1494 0010 8560     		str	r5, [r0, #8]
 1495              		.loc 1 796 0
 1496 0012 DDE90728 		ldrd	r2, r8, [sp, #28]
 1497              	.LVL106:
 1498 0016 DDF824C0 		ldr	ip, [sp, #36]
 1499              	.LBB375:
 1500              	.LBB376:
 1501              	.LBB377:
 1502              	.LBB378:
 1503              	.LBB379:
 1504              	.LBB380:
 1505              		.loc 3 546 0
 1506              		.syntax unified
 1507              	@ 546 "ChibiOS_3.0.2/os/ext/CMSIS/include/core_cmFunc.h" 1
 1508 001a 85F31188 		MSR basepri, r5
 1509              	@ 0 "" 2
 1510              	.LVL107:
 1511              		.thumb
 1512              		.syntax unified
 1513              	.LBE380:
 1514              	.LBE379:
 1515              	.LBE378:
 1516              	.LBE377:
 1517              	.LBE376:
 1518              	.LBE375:
 1519              		.loc 1 819 0
 1520 001e D0E90B71 		ldrd	r7, r1, [r0, #44]
 1521              		.loc 1 814 0
 1522 0022 0968     		ldr	r1, [r1]
 1523              		.loc 1 819 0
 1524 0024 3F68     		ldr	r7, [r7]
 1525              		.loc 1 814 0
 1526 0026 836A     		ldr	r3, [r0, #40]
 1527              	.LVL108:
 1528 0028 0B60     		str	r3, [r1]
 1529              		.loc 1 819 0
 1530 002a D0F82490 		ldr	r9, [r0, #36]
 1531              		.loc 1 815 0
 1532 002e CE60     		str	r6, [r1, #12]
 1533              	.LBB381:
 1534              	.LBB382:
 1535              	.LBB383:
 1536              		.loc 4 231 0
 1537 0030 164E     		ldr	r6, .L130
 1538              	.LVL109:
 1539              	.LBE383:
ARM GAS  /tmp/cco80xgS.s 			page 28


 1540              	.LBE382:
 1541              	.LBE381:
 1542              		.loc 1 816 0
 1543 0032 C1F804E0 		str	lr, [r1, #4]
 1544              	.LVL110:
 1545              		.loc 1 819 0
 1546 0036 C7F80090 		str	r9, [r7]
 1547              		.loc 1 820 0
 1548 003a FA60     		str	r2, [r7, #12]
 1549              		.loc 1 821 0
 1550 003c C7F80480 		str	r8, [r7, #4]
 1551              	.LBB386:
 1552              	.LBB387:
 1553              	.LBB388:
 1554              	.LBB389:
 1555              	.LBB390:
 1556              	.LBB391:
 1557              		.loc 3 546 0
 1558 0040 2A46     		mov	r2, r5
 1559              	.LBE391:
 1560              	.LBE390:
 1561              	.LBE389:
 1562              	.LBE388:
 1563              	.LBE387:
 1564              	.LBE386:
 1565              	.LBB397:
 1566              	.LBB385:
 1567              	.LBB384:
 1568              		.loc 4 231 0
 1569 0042 B76A     		ldr	r7, [r6, #40]
 1570              	.LVL111:
 1571              	.LBE384:
 1572              	.LBE385:
 1573              	.LBE397:
 1574              	.LBB398:
 1575              	.LBB399:
 1576              	.LBB400:
 1577              	.LBB401:
 1578              	.LBB402:
 1579              		.loc 3 546 0
 1580 0044 2025     		movs	r5, #32
 1581 0046 01E0     		b	.L127
 1582              	.LVL112:
 1583              	.L129:
 1584              	.LBE402:
 1585              	.LBE401:
 1586              	.LBE400:
 1587              	.LBE399:
 1588              	.LBE398:
 1589              	.LBB407:
 1590              	.LBB396:
 1591              	.LBB395:
 1592              	.LBB394:
 1593              	.LBB393:
 1594              	.LBB392:
 1595              		.syntax unified
 1596              	@ 546 "ChibiOS_3.0.2/os/ext/CMSIS/include/core_cmFunc.h" 1
ARM GAS  /tmp/cco80xgS.s 			page 29


 1597 0048 82F31188 		MSR basepri, r2
 1598              	@ 0 "" 2
 1599              	.LVL113:
 1600              		.thumb
 1601              		.syntax unified
 1602              	.L127:
 1603              	.LBE392:
 1604              	.LBE393:
 1605              	.LBE394:
 1606              	.LBE395:
 1607              	.LBE396:
 1608              	.LBE407:
 1609              	.LBB408:
 1610              	.LBB406:
 1611              	.LBB405:
 1612              	.LBB404:
 1613              	.LBB403:
 1614              		.syntax unified
 1615              	@ 546 "ChibiOS_3.0.2/os/ext/CMSIS/include/core_cmFunc.h" 1
 1616 004c 85F31188 		MSR basepri, r5
 1617              	@ 0 "" 2
 1618              	.LVL114:
 1619              		.thumb
 1620              		.syntax unified
 1621              	.LBE403:
 1622              	.LBE404:
 1623              	.LBE405:
 1624              	.LBE406:
 1625              	.LBE408:
 1626              		.loc 1 834 0
 1627 0050 A369     		ldr	r3, [r4, #24]
 1628 0052 9907     		lsls	r1, r3, #30
 1629 0054 02D4     		bmi	.L124
 1630              		.loc 1 834 0 is_stmt 0 discriminator 1
 1631 0056 2368     		ldr	r3, [r4]
 1632 0058 9B05     		lsls	r3, r3, #22
 1633 005a 08D5     		bpl	.L125
 1634              	.L124:
 1635              	.LBB409:
 1636              	.LBB410:
 1637              	.LBB411:
 1638              		.loc 4 231 0 is_stmt 1
 1639 005c B36A     		ldr	r3, [r6, #40]
 1640              	.LBE411:
 1641              	.LBE410:
 1642              	.LBE409:
 1643              	.LBB412:
 1644              	.LBB413:
 1645              	.LBB414:
 1646              		.loc 4 288 0
 1647 005e DB1B     		subs	r3, r3, r7
 1648              	.LBE414:
 1649              	.LBE413:
 1650              	.LBE412:
 1651              		.loc 1 839 0
 1652 0060 B3F5FA7F 		cmp	r3, #500
 1653 0064 F0D3     		bcc	.L129
ARM GAS  /tmp/cco80xgS.s 			page 30


 1654              		.loc 1 851 0
 1655 0066 4FF0FF30 		mov	r0, #-1
 1656              	.LVL115:
 1657 006a BDE8F083 		pop	{r4, r5, r6, r7, r8, r9, pc}
 1658              	.LVL116:
 1659              	.L125:
 1660              		.loc 1 846 0
 1661 006e 6368     		ldr	r3, [r4, #4]
 1662 0070 43F40073 		orr	r3, r3, #512
 1663 0074 6360     		str	r3, [r4, #4]
 1664              		.loc 1 847 0
 1665 0076 2368     		ldr	r3, [r4]
 1666 0078 43F48073 		orr	r3, r3, #256
 1667 007c 2360     		str	r3, [r4]
 1668              	.LBB415:
 1669              	.LBB416:
 1670              		.loc 2 713 0
 1671 007e 6146     		mov	r1, ip
 1672              	.LVL117:
 1673 0080 1C30     		adds	r0, r0, #28
 1674              	.LVL118:
 1675              	.LBE416:
 1676              	.LBE415:
 1677              		.loc 1 851 0
 1678 0082 BDE8F043 		pop	{r4, r5, r6, r7, r8, r9, lr}
 1679              		.cfi_restore 14
 1680              		.cfi_restore 9
 1681              		.cfi_restore 8
 1682              		.cfi_restore 7
 1683              		.cfi_restore 6
 1684              		.cfi_restore 5
 1685              		.cfi_restore 4
 1686              		.cfi_def_cfa_offset 0
 1687              	.LVL119:
 1688              	.LBB418:
 1689              	.LBB417:
 1690              		.loc 2 713 0
 1691 0086 FFF7FEBF 		b	chThdSuspendTimeoutS
 1692              	.LVL120:
 1693              	.L131:
 1694 008a 00BF     		.align	2
 1695              	.L130:
 1696 008c 00000000 		.word	ch
 1697              	.LBE417:
 1698              	.LBE418:
 1699              		.cfi_endproc
 1700              	.LFE269:
 1701              		.size	i2c_lld_master_transmit_timeout, .-i2c_lld_master_transmit_timeout
 1702              		.global	I2CD2
 1703              		.section	.bss.I2CD2,"aw",%nobits
 1704              		.align	2
 1705              		.set	.LANCHOR0,. + 0
 1706              		.type	I2CD2, %object
 1707              		.size	I2CD2, 56
 1708              	I2CD2:
 1709 0000 00000000 		.space	56
 1709      00000000 
ARM GAS  /tmp/cco80xgS.s 			page 31


 1709      00000000 
 1709      00000000 
 1709      00000000 
 1710              		.section	.rodata.i2c_lld_serve_tx_end_irq.str1.4,"aMS",%progbits,1
 1711              		.align	2
 1712              	.LC0:
 1713 0000 444D4120 		.ascii	"DMA failure\000"
 1713      6661696C 
 1713      75726500 
 1714              		.text
 1715              	.Letext0:
 1716              		.file 5 "/usr/lib/gcc/arm-none-eabi/7.3.1/include/stddef.h"
 1717              		.file 6 "/usr/arm-none-eabi/include/machine/_default_types.h"
 1718              		.file 7 "/usr/arm-none-eabi/include/sys/_stdint.h"
 1719              		.file 8 "ChibiOS_3.0.2/os/rt/ports/ARMCMx/compilers/GCC/chtypes.h"
 1720              		.file 9 "ChibiOS_3.0.2/os/rt/include/chsystypes.h"
 1721              		.file 10 "ChibiOS_3.0.2/os/rt/include/chschd.h"
 1722              		.file 11 "ChibiOS_3.0.2/os/ext/CMSIS/include/core_cm4.h"
 1723              		.file 12 "ChibiOS_3.0.2/os/ext/CMSIS/ST/system_stm32f4xx.h"
 1724              		.file 13 "ChibiOS_3.0.2/os/ext/CMSIS/ST/stm32f407xx.h"
 1725              		.file 14 "ChibiOS_3.0.2/os/rt/ports/ARMCMx/chcore.h"
 1726              		.file 15 "ChibiOS_3.0.2/os/rt/ports/ARMCMx/chcore_v7m.h"
 1727              		.file 16 "ChibiOS_3.0.2/os/rt/include/chtm.h"
 1728              		.file 17 "ChibiOS_3.0.2/os/rt/include/chsem.h"
 1729              		.file 18 "ChibiOS_3.0.2/os/rt/include/chmtx.h"
 1730              		.file 19 "ChibiOS_3.0.2/os/rt/include/chregistry.h"
 1731              		.file 20 "ChibiOS_3.0.2/os/rt/include/chevents.h"
 1732              		.file 21 "ChibiOS_3.0.2/os/rt/include/chqueues.h"
 1733              		.file 22 "./conf_general.h"
 1734              		.file 23 "ChibiOS_3.0.2/os/hal/ports/STM32/STM32F4xx/stm32_dma.h"
 1735              		.file 24 "ChibiOS_3.0.2/os/hal/ports/STM32/LLD/GPIOv2/pal_lld.h"
 1736              		.file 25 "ChibiOS_3.0.2/os/hal/include/can.h"
 1737              		.file 26 "ChibiOS_3.0.2/os/hal/ports/STM32/LLD/can_lld.h"
 1738              		.file 27 "ChibiOS_3.0.2/os/hal/include/i2c.h"
 1739              		.file 28 "ChibiOS_3.0.2/os/hal/ports/STM32/LLD/I2Cv1/i2c_lld.h"
 1740              		.file 29 "ChibiOS_3.0.2/os/hal/include/icu.h"
 1741              		.file 30 "ChibiOS_3.0.2/os/hal/ports/STM32/LLD/TIMv1/icu_lld.h"
 1742              		.file 31 "ChibiOS_3.0.2/os/hal/ports/STM32/LLD/TIMv1/stm32_tim.h"
 1743              		.file 32 "ChibiOS_3.0.2/os/hal/include/serial.h"
 1744              		.file 33 "ChibiOS_3.0.2/os/hal/ports/STM32/LLD/USARTv1/serial_lld.h"
 1745              		.file 34 "ChibiOS_3.0.2/os/hal/include/spi.h"
 1746              		.file 35 "ChibiOS_3.0.2/os/hal/ports/STM32/LLD/SPIv1/spi_lld.h"
 1747              		.file 36 "ChibiOS_3.0.2/os/hal/include/usb.h"
 1748              		.file 37 "ChibiOS_3.0.2/os/hal/ports/STM32/LLD/OTGv1/usb_lld.h"
 1749              		.file 38 "ChibiOS_3.0.2/os/hal/ports/STM32/LLD/OTGv1/stm32_otg.h"
 1750              		.file 39 "ChibiOS_3.0.2/os/rt/include/chsys.h"
 1751              		.file 40 "ChibiOS_3.0.2/os/rt/include/chthreads.h"
 1752              		.file 41 "ChibiOS_3.0.2/os/hal/ports/common/ARMCMx/nvic.h"