ARM GAS  /tmp/ccaUzOEH.s 			page 1


   1              		.cpu cortex-m4
   2              		.eabi_attribute 27, 1
   3              		.eabi_attribute 28, 1
   4              		.eabi_attribute 20, 1
   5              		.eabi_attribute 21, 1
   6              		.eabi_attribute 23, 3
   7              		.eabi_attribute 24, 1
   8              		.eabi_attribute 25, 1
   9              		.eabi_attribute 26, 1
  10              		.eabi_attribute 30, 2
  11              		.eabi_attribute 34, 1
  12              		.eabi_attribute 18, 4
  13              		.file	"imu.c"
  14              		.text
  15              	.Ltext0:
  16              		.cfi_sections	.debug_frame
  17              		.section	.text.mpu_read_callback,"ax",%progbits
  18              		.align	1
  19              		.p2align 4,,15
  20              		.syntax unified
  21              		.thumb
  22              		.thumb_func
  23              		.fpu fpv4-sp-d16
  24              		.type	mpu_read_callback, %function
  25              	mpu_read_callback:
  26              	.LFB267:
  27              		.file 1 "imu/imu.c"
  28              		.loc 1 122 0
  29              		.cfi_startproc
  30              		@ args = 0, pretend = 0, frame = 48
  31              		@ frame_needed = 0, uses_anonymous_args = 0
  32 0000 70B5     		push	{r4, r5, r6, lr}
  33              		.cfi_def_cfa_offset 16
  34              		.cfi_offset 4, -16
  35              		.cfi_offset 5, -12
  36              		.cfi_offset 6, -8
  37              		.cfi_offset 14, -4
  38 0002 2DED028B 		vpush.64	{d8}
  39              		.cfi_def_cfa_offset 24
  40              		.cfi_offset 80, -24
  41              		.cfi_offset 81, -20
  42              		.loc 1 124 0
  43 0006 354C     		ldr	r4, .L7
  44              		.loc 1 161 0
  45 0008 354D     		ldr	r5, .L7+4
  46              		.loc 1 124 0
  47 000a 2068     		ldr	r0, [r4]
  48              		.loc 1 122 0
  49 000c 8CB0     		sub	sp, sp, #48
  50              		.cfi_def_cfa_offset 72
  51              		.loc 1 124 0
  52 000e FFF7FEFF 		bl	timer_seconds_elapsed_since
  53              	.LVL0:
  54 0012 B0EE408A 		vmov.f32	s16, s0
  55              	.LVL1:
  56              		.loc 1 125 0
  57 0016 FFF7FEFF 		bl	timer_time_now
ARM GAS  /tmp/ccaUzOEH.s 			page 2


  58              	.LVL2:
  59              		.loc 1 128 0
  60 001a 06AA     		add	r2, sp, #24
  61              		.loc 1 125 0
  62 001c 2060     		str	r0, [r4]
  63              		.loc 1 128 0
  64 001e 03A9     		add	r1, sp, #12
  65 0020 6846     		mov	r0, sp
  66 0022 FFF7FEFF 		bl	mpu9150_get_accel_gyro_mag
  67              	.LVL3:
  68              		.loc 1 135 0
  69 0026 9DED037A 		vldr.32	s14, [sp, #12]
  70              		.loc 1 157 0
  71 002a DFED2E3A 		vldr.32	s7, .L7+8
  72              		.loc 1 137 0
  73 002e DDED057A 		vldr.32	s15, [sp, #20]
  74              		.loc 1 157 0
  75 0032 9FED2D4A 		vldr.32	s8, .L7+12
  76              		.loc 1 135 0
  77 0036 2D4B     		ldr	r3, .L7+16
  78              		.loc 1 136 0
  79 0038 DDED046A 		vldr.32	s13, [sp, #16]
  80              		.loc 1 131 0
  81 003c DDED004A 		vldr.32	s9, [sp]
  82              		.loc 1 136 0
  83 0040 C3ED016A 		vstr.32	s13, [r3, #4]
  84              		.loc 1 135 0
  85 0044 B1EE477A 		vneg.f32	s14, s14
  86              		.loc 1 157 0
  87 0048 27EE233A 		vmul.f32	s6, s14, s7
  88              		.loc 1 137 0
  89 004c F1EE677A 		vneg.f32	s15, s15
  90              		.loc 1 158 0
  91 0050 66EEA36A 		vmul.f32	s13, s13, s7
  92              		.loc 1 159 0
  93 0054 67EEA32A 		vmul.f32	s5, s15, s7
  94              		.loc 1 157 0
  95 0058 C3EE043A 		vdiv.f32	s7, s6, s8
  96              		.loc 1 131 0
  97 005c 2448     		ldr	r0, .L7+20
  98              		.loc 1 139 0
  99 005e 2549     		ldr	r1, .L7+24
 100              		.loc 1 161 0
 101 0060 2A78     		ldrb	r2, [r5]	@ zero_extendqisi2
 102              		.loc 1 132 0
 103 0062 019E     		ldr	r6, [sp, #4]	@ float
 104              		.loc 1 140 0
 105 0064 079C     		ldr	r4, [sp, #28]	@ float
 106              		.loc 1 132 0
 107 0066 4660     		str	r6, [r0, #4]	@ float
 108              		.loc 1 140 0
 109 0068 4C60     		str	r4, [r1, #4]	@ float
 110              		.loc 1 159 0
 111 006a 82EE843A 		vdiv.f32	s6, s5, s8
 112              		.loc 1 157 0
 113 006e CDED093A 		vstr.32	s7, [sp, #36]
 114              		.loc 1 158 0
ARM GAS  /tmp/ccaUzOEH.s 			page 3


 115 0072 C6EE843A 		vdiv.f32	s7, s13, s8
 116              		.loc 1 133 0
 117 0076 9DED025A 		vldr.32	s10, [sp, #8]
 118              		.loc 1 139 0
 119 007a DDED065A 		vldr.32	s11, [sp, #24]
 120              		.loc 1 141 0
 121 007e 9DED086A 		vldr.32	s12, [sp, #32]
 122              		.loc 1 159 0
 123 0082 8DED0B3A 		vstr.32	s6, [sp, #44]
 124              		.loc 1 131 0
 125 0086 F1EE644A 		vneg.f32	s9, s9
 126              		.loc 1 133 0
 127 008a B1EE455A 		vneg.f32	s10, s10
 128              		.loc 1 139 0
 129 008e F1EE655A 		vneg.f32	s11, s11
 130              		.loc 1 141 0
 131 0092 F1EE466A 		vneg.f32	s13, s12
 132              		.loc 1 135 0
 133 0096 83ED007A 		vstr.32	s14, [r3]
 134              		.loc 1 137 0
 135 009a C3ED027A 		vstr.32	s15, [r3, #8]
 136              		.loc 1 158 0
 137 009e CDED0A3A 		vstr.32	s7, [sp, #40]
 138              		.loc 1 131 0
 139 00a2 C0ED004A 		vstr.32	s9, [r0]
 140              		.loc 1 133 0
 141 00a6 80ED025A 		vstr.32	s10, [r0, #8]
 142              		.loc 1 139 0
 143 00aa C1ED005A 		vstr.32	s11, [r1]
 144              		.loc 1 141 0
 145 00ae C1ED026A 		vstr.32	s13, [r1, #8]
 146              		.loc 1 161 0
 147 00b2 52B1     		cbz	r2, .L6
 148              		.loc 1 165 0
 149 00b4 0146     		mov	r1, r0
 150 00b6 B0EE480A 		vmov.f32	s0, s16
 151 00ba 0F4A     		ldr	r2, .L7+28
 152 00bc 09A8     		add	r0, sp, #36
 153 00be FFF7FEFF 		bl	ahrs_update_madgwick_imu
 154              	.LVL4:
 155              		.loc 1 167 0
 156 00c2 0CB0     		add	sp, sp, #48
 157              		.cfi_remember_state
 158              		.cfi_def_cfa_offset 24
 159              		@ sp needed
 160 00c4 BDEC028B 		vldm	sp!, {d8}
 161              		.cfi_restore 80
 162              		.cfi_restore 81
 163              		.cfi_def_cfa_offset 16
 164              	.LVL5:
 165 00c8 70BD     		pop	{r4, r5, r6, pc}
 166              	.LVL6:
 167              	.L6:
 168              		.cfi_restore_state
 169              		.loc 1 162 0
 170 00ca 0B4A     		ldr	r2, .L7+28
 171 00cc FFF7FEFF 		bl	ahrs_update_initial_orientation
ARM GAS  /tmp/ccaUzOEH.s 			page 4


 172              	.LVL7:
 173              		.loc 1 163 0
 174 00d0 0123     		movs	r3, #1
 175 00d2 2B70     		strb	r3, [r5]
 176              		.loc 1 167 0
 177 00d4 0CB0     		add	sp, sp, #48
 178              		.cfi_def_cfa_offset 24
 179              		@ sp needed
 180 00d6 BDEC028B 		vldm	sp!, {d8}
 181              		.cfi_restore 80
 182              		.cfi_restore 81
 183              		.cfi_def_cfa_offset 16
 184              	.LVL8:
 185 00da 70BD     		pop	{r4, r5, r6, pc}
 186              	.L8:
 187              		.align	2
 188              	.L7:
 189 00dc 00000000 		.word	.LANCHOR0
 190 00e0 00000000 		.word	.LANCHOR4
 191 00e4 DB0F4940 		.word	1078530011
 192 00e8 00003443 		.word	1127481344
 193 00ec 00000000 		.word	.LANCHOR2
 194 00f0 00000000 		.word	.LANCHOR1
 195 00f4 00000000 		.word	.LANCHOR3
 196 00f8 00000000 		.word	.LANCHOR5
 197              		.cfi_endproc
 198              	.LFE267:
 199              		.size	mpu_read_callback, .-mpu_read_callback
 200              		.global	__aeabi_f2d
 201              		.section	.text.terminal_rpy,"ax",%progbits
 202              		.align	1
 203              		.p2align 4,,15
 204              		.syntax unified
 205              		.thumb
 206              		.thumb_func
 207              		.fpu fpv4-sp-d16
 208              		.type	terminal_rpy, %function
 209              	terminal_rpy:
 210              	.LFB268:
 211              		.loc 1 169 0
 212              		.cfi_startproc
 213              		@ args = 0, pretend = 0, frame = 0
 214              		@ frame_needed = 0, uses_anonymous_args = 0
 215              	.LVL9:
 216 0000 F0B5     		push	{r4, r5, r6, r7, lr}
 217              		.cfi_def_cfa_offset 20
 218              		.cfi_offset 4, -20
 219              		.cfi_offset 5, -16
 220              		.cfi_offset 6, -12
 221              		.cfi_offset 7, -8
 222              		.cfi_offset 14, -4
 223 0002 2DED068B 		vpush.64	{d8, d9, d10}
 224              		.cfi_def_cfa_offset 44
 225              		.cfi_offset 80, -44
 226              		.cfi_offset 81, -40
 227              		.cfi_offset 82, -36
 228              		.cfi_offset 83, -32
ARM GAS  /tmp/ccaUzOEH.s 			page 5


 229              		.cfi_offset 84, -28
 230              		.cfi_offset 85, -24
 231              	.LBB13:
 232              	.LBB14:
 233              	.LBB15:
 234              		.loc 1 62 0
 235 0006 234D     		ldr	r5, .L13
 236              	.LBE15:
 237              	.LBE14:
 238              		.loc 1 175 0
 239 0008 9FED23AA 		vldr.32	s20, .L13+4
 240 000c DFED239A 		vldr.32	s19, .L13+8
 241              	.LBE13:
 242              		.loc 1 169 0
 243 0010 85B0     		sub	sp, sp, #20
 244              		.cfi_def_cfa_offset 64
 245              		.loc 1 169 0
 246 0012 6424     		movs	r4, #100
 247              	.LVL10:
 248              	.L10:
 249              	.LBB32:
 250              	.LBB18:
 251              	.LBB16:
 252              		.loc 1 62 0
 253 0014 2846     		mov	r0, r5
 254 0016 FFF7FEFF 		bl	ahrs_get_roll
 255              	.LVL11:
 256              	.LBE16:
 257              	.LBE18:
 258              	.LBB19:
 259              	.LBB20:
 260              		.loc 1 66 0
 261 001a 2846     		mov	r0, r5
 262              	.LBE20:
 263              	.LBE19:
 264              	.LBB23:
 265              	.LBB17:
 266              		.loc 1 62 0
 267 001c B0EE409A 		vmov.f32	s18, s0
 268              	.LBE17:
 269              	.LBE23:
 270              	.LBB24:
 271              	.LBB21:
 272              		.loc 1 66 0
 273 0020 FFF7FEFF 		bl	ahrs_get_pitch
 274              	.LVL12:
 275              	.LBE21:
 276              	.LBE24:
 277              	.LBB25:
 278              	.LBB26:
 279              		.loc 1 70 0
 280 0024 2846     		mov	r0, r5
 281              	.LBE26:
 282              	.LBE25:
 283              	.LBB29:
 284              	.LBB22:
 285              		.loc 1 66 0
ARM GAS  /tmp/ccaUzOEH.s 			page 6


 286 0026 B0EE408A 		vmov.f32	s16, s0
 287              	.LBE22:
 288              	.LBE29:
 289              	.LBB30:
 290              	.LBB27:
 291              		.loc 1 70 0
 292 002a FFF7FEFF 		bl	ahrs_get_yaw
 293              	.LVL13:
 294              	.LBE27:
 295              	.LBE30:
 296              		.loc 1 175 0
 297 002e 29EE0A9A 		vmul.f32	s18, s18, s20
 298              	.LBB31:
 299              	.LBB28:
 300              		.loc 1 70 0
 301 0032 F0EE408A 		vmov.f32	s17, s0
 302              	.LBE28:
 303              	.LBE31:
 304              		.loc 1 174 0
 305 0036 C9EE297A 		vdiv.f32	s15, s18, s19
 306              		.loc 1 176 0
 307 003a 28EE0A8A 		vmul.f32	s16, s16, s20
 308              		.loc 1 174 0
 309 003e 17EE900A 		vmov	r0, s15
 310 0042 FFF7FEFF 		bl	__aeabi_f2d
 311              	.LVL14:
 312              		.loc 1 177 0
 313 0046 28EE8A0A 		vmul.f32	s0, s17, s20
 314              		.loc 1 174 0
 315 004a 0646     		mov	r6, r0
 316 004c C0EE297A 		vdiv.f32	s15, s0, s19
 317 0050 0F46     		mov	r7, r1
 318 0052 17EE900A 		vmov	r0, s15
 319 0056 FFF7FEFF 		bl	__aeabi_f2d
 320              	.LVL15:
 321 005a C8EE297A 		vdiv.f32	s15, s16, s19
 322 005e CDE90201 		strd	r0, [sp, #8]
 323 0062 17EE900A 		vmov	r0, s15
 324 0066 FFF7FEFF 		bl	__aeabi_f2d
 325              	.LVL16:
 326 006a 3246     		mov	r2, r6
 327 006c CDE90001 		strd	r0, [sp]
 328 0070 3B46     		mov	r3, r7
 329 0072 0B48     		ldr	r0, .L13+12
 330 0074 FFF7FEFF 		bl	commands_printf
 331              	.LVL17:
 332              		.loc 1 179 0
 333 0078 4FF47A70 		mov	r0, #1000
 334 007c FFF7FEFF 		bl	chThdSleep
 335              	.LVL18:
 336              		.loc 1 173 0
 337 0080 013C     		subs	r4, r4, #1
 338              	.LVL19:
 339 0082 C7D1     		bne	.L10
 340              	.LBE32:
 341              		.loc 1 182 0
 342 0084 0748     		ldr	r0, .L13+16
ARM GAS  /tmp/ccaUzOEH.s 			page 7


 343              		.loc 1 183 0
 344 0086 05B0     		add	sp, sp, #20
 345              		.cfi_def_cfa_offset 44
 346              		@ sp needed
 347 0088 BDEC068B 		vldm	sp!, {d8-d10}
 348              		.cfi_restore 84
 349              		.cfi_restore 85
 350              		.cfi_restore 82
 351              		.cfi_restore 83
 352              		.cfi_restore 80
 353              		.cfi_restore 81
 354              		.cfi_def_cfa_offset 20
 355 008c BDE8F040 		pop	{r4, r5, r6, r7, lr}
 356              		.cfi_restore 14
 357              		.cfi_restore 7
 358              		.cfi_restore 6
 359              		.cfi_restore 5
 360              		.cfi_restore 4
 361              		.cfi_def_cfa_offset 0
 362              	.LVL20:
 363              		.loc 1 182 0
 364 0090 FFF7FEBF 		b	commands_printf
 365              	.LVL21:
 366              	.L14:
 367              		.align	2
 368              	.L13:
 369 0094 00000000 		.word	.LANCHOR5
 370 0098 00003443 		.word	1127481344
 371 009c DB0F4940 		.word	1078530011
 372 00a0 00000000 		.word	.LC0
 373 00a4 18000000 		.word	.LC1
 374              		.cfi_endproc
 375              	.LFE268:
 376              		.size	terminal_rpy, .-terminal_rpy
 377              		.section	.text.imu_init,"ax",%progbits
 378              		.align	1
 379              		.p2align 4,,15
 380              		.global	imu_init
 381              		.syntax unified
 382              		.thumb
 383              		.thumb_func
 384              		.fpu fpv4-sp-d16
 385              		.type	imu_init, %function
 386              	imu_init:
 387              	.LFB256:
 388              		.loc 1 40 0
 389              		.cfi_startproc
 390              		@ args = 0, pretend = 0, frame = 0
 391              		@ frame_needed = 0, uses_anonymous_args = 0
 392 0000 10B5     		push	{r4, lr}
 393              		.cfi_def_cfa_offset 8
 394              		.cfi_offset 4, -8
 395              		.cfi_offset 14, -4
 396              		.loc 1 41 0
 397 0002 0A48     		ldr	r0, .L17
 398 0004 FFF7FEFF 		bl	ahrs_init_attitude_info
 399              	.LVL22:
ARM GAS  /tmp/ccaUzOEH.s 			page 8


 400              	.LBB33:
 401              	.LBB34:
 402              		.loc 1 56 0
 403 0008 0F23     		movs	r3, #15
 404 000a 094A     		ldr	r2, .L17+4
 405 000c 0948     		ldr	r0, .L17+8
 406 000e 0221     		movs	r1, #2
 407 0010 FFF7FEFF 		bl	mpu9150_init
 408              	.LVL23:
 409              		.loc 1 58 0
 410 0014 0848     		ldr	r0, .L17+12
 411 0016 FFF7FEFF 		bl	mpu9150_set_read_callback
 412              	.LVL24:
 413              	.LBE34:
 414              	.LBE33:
 415              		.loc 1 48 0
 416 001a 084B     		ldr	r3, .L17+16
 417 001c 0849     		ldr	r1, .L17+20
 418 001e 0948     		ldr	r0, .L17+24
 419 0020 0022     		movs	r2, #0
 420              		.loc 1 53 0
 421 0022 BDE81040 		pop	{r4, lr}
 422              		.cfi_restore 14
 423              		.cfi_restore 4
 424              		.cfi_def_cfa_offset 0
 425              		.loc 1 48 0
 426 0026 FFF7FEBF 		b	terminal_register_command_callback
 427              	.LVL25:
 428              	.L18:
 429 002a 00BF     		.align	2
 430              	.L17:
 431 002c 00000000 		.word	.LANCHOR5
 432 0030 00000240 		.word	1073872896
 433 0034 00040240 		.word	1073873920
 434 0038 00000000 		.word	mpu_read_callback
 435 003c 00000000 		.word	terminal_rpy
 436 0040 00000000 		.word	.LC2
 437 0044 2C000000 		.word	.LC3
 438              		.cfi_endproc
 439              	.LFE256:
 440              		.size	imu_init, .-imu_init
 441              		.section	.text.imu_init_mpu9x50,"ax",%progbits
 442              		.align	1
 443              		.p2align 4,,15
 444              		.global	imu_init_mpu9x50
 445              		.syntax unified
 446              		.thumb
 447              		.thumb_func
 448              		.fpu fpv4-sp-d16
 449              		.type	imu_init_mpu9x50, %function
 450              	imu_init_mpu9x50:
 451              	.LFB257:
 452              		.loc 1 55 0
 453              		.cfi_startproc
 454              		@ args = 0, pretend = 0, frame = 0
 455              		@ frame_needed = 0, uses_anonymous_args = 0
 456              	.LVL26:
ARM GAS  /tmp/ccaUzOEH.s 			page 9


 457 0000 08B5     		push	{r3, lr}
 458              		.cfi_def_cfa_offset 8
 459              		.cfi_offset 3, -8
 460              		.cfi_offset 14, -4
 461              		.loc 1 56 0
 462 0002 FFF7FEFF 		bl	mpu9150_init
 463              	.LVL27:
 464              		.loc 1 58 0
 465 0006 0248     		ldr	r0, .L21
 466              		.loc 1 59 0
 467 0008 BDE80840 		pop	{r3, lr}
 468              		.cfi_restore 14
 469              		.cfi_restore 3
 470              		.cfi_def_cfa_offset 0
 471              		.loc 1 58 0
 472 000c FFF7FEBF 		b	mpu9150_set_read_callback
 473              	.LVL28:
 474              	.L22:
 475              		.align	2
 476              	.L21:
 477 0010 00000000 		.word	mpu_read_callback
 478              		.cfi_endproc
 479              	.LFE257:
 480              		.size	imu_init_mpu9x50, .-imu_init_mpu9x50
 481              		.section	.text.imu_get_roll,"ax",%progbits
 482              		.align	1
 483              		.p2align 4,,15
 484              		.global	imu_get_roll
 485              		.syntax unified
 486              		.thumb
 487              		.thumb_func
 488              		.fpu fpv4-sp-d16
 489              		.type	imu_get_roll, %function
 490              	imu_get_roll:
 491              	.LFB258:
 492              		.loc 1 61 0
 493              		.cfi_startproc
 494              		@ args = 0, pretend = 0, frame = 0
 495              		@ frame_needed = 0, uses_anonymous_args = 0
 496              		@ link register save eliminated.
 497              		.loc 1 62 0
 498 0000 0148     		ldr	r0, .L24
 499 0002 FFF7FEBF 		b	ahrs_get_roll
 500              	.LVL29:
 501              	.L25:
 502 0006 00BF     		.align	2
 503              	.L24:
 504 0008 00000000 		.word	.LANCHOR5
 505              		.cfi_endproc
 506              	.LFE258:
 507              		.size	imu_get_roll, .-imu_get_roll
 508              		.section	.text.imu_get_pitch,"ax",%progbits
 509              		.align	1
 510              		.p2align 4,,15
 511              		.global	imu_get_pitch
 512              		.syntax unified
 513              		.thumb
ARM GAS  /tmp/ccaUzOEH.s 			page 10


 514              		.thumb_func
 515              		.fpu fpv4-sp-d16
 516              		.type	imu_get_pitch, %function
 517              	imu_get_pitch:
 518              	.LFB259:
 519              		.loc 1 65 0
 520              		.cfi_startproc
 521              		@ args = 0, pretend = 0, frame = 0
 522              		@ frame_needed = 0, uses_anonymous_args = 0
 523              		@ link register save eliminated.
 524              		.loc 1 66 0
 525 0000 0148     		ldr	r0, .L27
 526 0002 FFF7FEBF 		b	ahrs_get_pitch
 527              	.LVL30:
 528              	.L28:
 529 0006 00BF     		.align	2
 530              	.L27:
 531 0008 00000000 		.word	.LANCHOR5
 532              		.cfi_endproc
 533              	.LFE259:
 534              		.size	imu_get_pitch, .-imu_get_pitch
 535              		.section	.text.imu_get_yaw,"ax",%progbits
 536              		.align	1
 537              		.p2align 4,,15
 538              		.global	imu_get_yaw
 539              		.syntax unified
 540              		.thumb
 541              		.thumb_func
 542              		.fpu fpv4-sp-d16
 543              		.type	imu_get_yaw, %function
 544              	imu_get_yaw:
 545              	.LFB260:
 546              		.loc 1 69 0
 547              		.cfi_startproc
 548              		@ args = 0, pretend = 0, frame = 0
 549              		@ frame_needed = 0, uses_anonymous_args = 0
 550              		@ link register save eliminated.
 551              		.loc 1 70 0
 552 0000 0148     		ldr	r0, .L30
 553 0002 FFF7FEBF 		b	ahrs_get_yaw
 554              	.LVL31:
 555              	.L31:
 556 0006 00BF     		.align	2
 557              	.L30:
 558 0008 00000000 		.word	.LANCHOR5
 559              		.cfi_endproc
 560              	.LFE260:
 561              		.size	imu_get_yaw, .-imu_get_yaw
 562              		.section	.text.imu_get_rpy,"ax",%progbits
 563              		.align	1
 564              		.p2align 4,,15
 565              		.global	imu_get_rpy
 566              		.syntax unified
 567              		.thumb
 568              		.thumb_func
 569              		.fpu fpv4-sp-d16
 570              		.type	imu_get_rpy, %function
ARM GAS  /tmp/ccaUzOEH.s 			page 11


 571              	imu_get_rpy:
 572              	.LFB261:
 573              		.loc 1 73 0
 574              		.cfi_startproc
 575              		@ args = 0, pretend = 0, frame = 0
 576              		@ frame_needed = 0, uses_anonymous_args = 0
 577              		@ link register save eliminated.
 578              	.LVL32:
 579              		.loc 1 74 0
 580 0000 0149     		ldr	r1, .L33
 581 0002 FFF7FEBF 		b	ahrs_get_roll_pitch_yaw
 582              	.LVL33:
 583              	.L34:
 584 0006 00BF     		.align	2
 585              	.L33:
 586 0008 00000000 		.word	.LANCHOR5
 587              		.cfi_endproc
 588              	.LFE261:
 589              		.size	imu_get_rpy, .-imu_get_rpy
 590              		.section	.text.imu_get_accel,"ax",%progbits
 591              		.align	1
 592              		.p2align 4,,15
 593              		.global	imu_get_accel
 594              		.syntax unified
 595              		.thumb
 596              		.thumb_func
 597              		.fpu fpv4-sp-d16
 598              		.type	imu_get_accel, %function
 599              	imu_get_accel:
 600              	.LFB262:
 601              		.loc 1 77 0
 602              		.cfi_startproc
 603              		@ args = 0, pretend = 0, frame = 0
 604              		@ frame_needed = 0, uses_anonymous_args = 0
 605              		@ link register save eliminated.
 606              	.LVL34:
 607 0000 10B4     		push	{r4}
 608              		.cfi_def_cfa_offset 4
 609              		.cfi_offset 4, -4
 610              		.loc 1 78 0
 611 0002 044B     		ldr	r3, .L37
 612              		.loc 1 77 0
 613 0004 0446     		mov	r4, r0
 614              		.loc 1 78 0
 615 0006 07CB     		ldmia	r3!, {r0, r1, r2}
 616              	.LVL35:
 617 0008 2060     		str	r0, [r4]	@ unaligned
 618 000a 6160     		str	r1, [r4, #4]	@ unaligned
 619 000c A260     		str	r2, [r4, #8]	@ unaligned
 620              		.loc 1 79 0
 621 000e 5DF8044B 		ldr	r4, [sp], #4
 622              		.cfi_restore 4
 623              		.cfi_def_cfa_offset 0
 624              	.LVL36:
 625 0012 7047     		bx	lr
 626              	.L38:
 627              		.align	2
ARM GAS  /tmp/ccaUzOEH.s 			page 12


 628              	.L37:
 629 0014 00000000 		.word	.LANCHOR1
 630              		.cfi_endproc
 631              	.LFE262:
 632              		.size	imu_get_accel, .-imu_get_accel
 633              		.section	.text.imu_get_gyro,"ax",%progbits
 634              		.align	1
 635              		.p2align 4,,15
 636              		.global	imu_get_gyro
 637              		.syntax unified
 638              		.thumb
 639              		.thumb_func
 640              		.fpu fpv4-sp-d16
 641              		.type	imu_get_gyro, %function
 642              	imu_get_gyro:
 643              	.LFB263:
 644              		.loc 1 81 0
 645              		.cfi_startproc
 646              		@ args = 0, pretend = 0, frame = 0
 647              		@ frame_needed = 0, uses_anonymous_args = 0
 648              		@ link register save eliminated.
 649              	.LVL37:
 650 0000 10B4     		push	{r4}
 651              		.cfi_def_cfa_offset 4
 652              		.cfi_offset 4, -4
 653              		.loc 1 82 0
 654 0002 044B     		ldr	r3, .L41
 655              		.loc 1 81 0
 656 0004 0446     		mov	r4, r0
 657              		.loc 1 82 0
 658 0006 07CB     		ldmia	r3!, {r0, r1, r2}
 659              	.LVL38:
 660 0008 2060     		str	r0, [r4]	@ unaligned
 661 000a 6160     		str	r1, [r4, #4]	@ unaligned
 662 000c A260     		str	r2, [r4, #8]	@ unaligned
 663              		.loc 1 83 0
 664 000e 5DF8044B 		ldr	r4, [sp], #4
 665              		.cfi_restore 4
 666              		.cfi_def_cfa_offset 0
 667              	.LVL39:
 668 0012 7047     		bx	lr
 669              	.L42:
 670              		.align	2
 671              	.L41:
 672 0014 00000000 		.word	.LANCHOR2
 673              		.cfi_endproc
 674              	.LFE263:
 675              		.size	imu_get_gyro, .-imu_get_gyro
 676              		.section	.text.imu_get_mag,"ax",%progbits
 677              		.align	1
 678              		.p2align 4,,15
 679              		.global	imu_get_mag
 680              		.syntax unified
 681              		.thumb
 682              		.thumb_func
 683              		.fpu fpv4-sp-d16
 684              		.type	imu_get_mag, %function
ARM GAS  /tmp/ccaUzOEH.s 			page 13


 685              	imu_get_mag:
 686              	.LFB264:
 687              		.loc 1 85 0
 688              		.cfi_startproc
 689              		@ args = 0, pretend = 0, frame = 0
 690              		@ frame_needed = 0, uses_anonymous_args = 0
 691              		@ link register save eliminated.
 692              	.LVL40:
 693 0000 10B4     		push	{r4}
 694              		.cfi_def_cfa_offset 4
 695              		.cfi_offset 4, -4
 696              		.loc 1 86 0
 697 0002 044B     		ldr	r3, .L45
 698              		.loc 1 85 0
 699 0004 0446     		mov	r4, r0
 700              		.loc 1 86 0
 701 0006 07CB     		ldmia	r3!, {r0, r1, r2}
 702              	.LVL41:
 703 0008 2060     		str	r0, [r4]	@ unaligned
 704 000a 6160     		str	r1, [r4, #4]	@ unaligned
 705 000c A260     		str	r2, [r4, #8]	@ unaligned
 706              		.loc 1 87 0
 707 000e 5DF8044B 		ldr	r4, [sp], #4
 708              		.cfi_restore 4
 709              		.cfi_def_cfa_offset 0
 710              	.LVL42:
 711 0012 7047     		bx	lr
 712              	.L46:
 713              		.align	2
 714              	.L45:
 715 0014 00000000 		.word	.LANCHOR3
 716              		.cfi_endproc
 717              	.LFE264:
 718              		.size	imu_get_mag, .-imu_get_mag
 719              		.section	.text.imu_get_accel_derotated,"ax",%progbits
 720              		.align	1
 721              		.p2align 4,,15
 722              		.global	imu_get_accel_derotated
 723              		.syntax unified
 724              		.thumb
 725              		.thumb_func
 726              		.fpu fpv4-sp-d16
 727              		.type	imu_get_accel_derotated, %function
 728              	imu_get_accel_derotated:
 729              	.LFB265:
 730              		.loc 1 89 0
 731              		.cfi_startproc
 732              		@ args = 0, pretend = 0, frame = 16
 733              		@ frame_needed = 0, uses_anonymous_args = 0
 734              	.LVL43:
 735 0000 10B5     		push	{r4, lr}
 736              		.cfi_def_cfa_offset 8
 737              		.cfi_offset 4, -8
 738              		.cfi_offset 14, -4
 739 0002 2DED0A8B 		vpush.64	{d8, d9, d10, d11, d12}
 740              		.cfi_def_cfa_offset 48
 741              		.cfi_offset 80, -48
ARM GAS  /tmp/ccaUzOEH.s 			page 14


 742              		.cfi_offset 81, -44
 743              		.cfi_offset 82, -40
 744              		.cfi_offset 83, -36
 745              		.cfi_offset 84, -32
 746              		.cfi_offset 85, -28
 747              		.cfi_offset 86, -24
 748              		.cfi_offset 87, -20
 749              		.cfi_offset 88, -16
 750              		.cfi_offset 89, -12
 751 0006 84B0     		sub	sp, sp, #16
 752              		.cfi_def_cfa_offset 64
 753              	.LVL44:
 754              	.LBB35:
 755              	.LBB36:
 756              		.loc 1 74 0
 757 0008 2E49     		ldr	r1, .L49
 758              	.LBE36:
 759              	.LBE35:
 760              		.loc 1 89 0
 761 000a 0446     		mov	r4, r0
 762              	.LBB38:
 763              	.LBB37:
 764              		.loc 1 74 0
 765 000c 01A8     		add	r0, sp, #4
 766              	.LVL45:
 767 000e FFF7FEFF 		bl	ahrs_get_roll_pitch_yaw
 768              	.LVL46:
 769              	.LBE37:
 770              	.LBE38:
 771              		.loc 1 97 0
 772 0012 DDED018A 		vldr.32	s17, [sp, #4]
 773              		.loc 1 93 0
 774 0016 2C4B     		ldr	r3, .L49+4
 775              		.loc 1 97 0
 776 0018 B0EE680A 		vmov.f32	s0, s17
 777              		.loc 1 94 0
 778 001c D3ED01AA 		vldr.32	s21, [r3, #4]
 779              		.loc 1 95 0
 780 0020 93ED028A 		vldr.32	s16, [r3, #8]
 781              		.loc 1 93 0
 782 0024 D3ED00BA 		vldr.32	s23, [r3]
 783              	.LVL47:
 784              		.loc 1 97 0
 785 0028 FFF7FEFF 		bl	sinf
 786              	.LVL48:
 787 002c B0EE40AA 		vmov.f32	s20, s0
 788              	.LVL49:
 789              		.loc 1 98 0
 790 0030 B0EE680A 		vmov.f32	s0, s17
 791              	.LVL50:
 792 0034 FFF7FEFF 		bl	cosf
 793              	.LVL51:
 794              		.loc 1 99 0
 795 0038 9DED029A 		vldr.32	s18, [sp, #8]
 796              		.loc 1 98 0
 797 003c F1EE408A 		vneg.f32	s17, s0
 798              	.LVL52:
ARM GAS  /tmp/ccaUzOEH.s 			page 15


 799              		.loc 1 99 0
 800 0040 B0EE490A 		vmov.f32	s0, s18
 801 0044 FFF7FEFF 		bl	sinf
 802              	.LVL53:
 803 0048 F0EE409A 		vmov.f32	s19, s0
 804              	.LVL54:
 805              		.loc 1 100 0
 806 004c B0EE490A 		vmov.f32	s0, s18
 807              	.LVL55:
 808 0050 FFF7FEFF 		bl	cosf
 809              	.LVL56:
 810              		.loc 1 101 0
 811 0054 9DED03CA 		vldr.32	s24, [sp, #12]
 812              		.loc 1 100 0
 813 0058 B1EE409A 		vneg.f32	s18, s0
 814              	.LVL57:
 815              		.loc 1 101 0
 816 005c B0EE4C0A 		vmov.f32	s0, s24
 817 0060 FFF7FEFF 		bl	sinf
 818              	.LVL58:
 819 0064 B0EE40BA 		vmov.f32	s22, s0
 820              	.LVL59:
 821              		.loc 1 102 0
 822 0068 B0EE4C0A 		vmov.f32	s0, s24
 823              	.LVL60:
 824 006c FFF7FEFF 		bl	cosf
 825              	.LVL61:
 826              		.loc 1 104 0
 827 0070 2AEEA97A 		vmul.f32	s14, s21, s19
 828              		.loc 1 105 0
 829 0074 6AEE487A 		vnmul.f32	s15, s20, s16
 830              		.loc 1 104 0
 831 0078 27EE0A7A 		vmul.f32	s14, s14, s20
 832              		.loc 1 106 0
 833 007c 6AEE896A 		vmul.f32	s13, s21, s18
 834              		.loc 1 104 0
 835 0080 ABEE897A 		vfma.f32	s14, s23, s18
 836 0084 28EE296A 		vmul.f32	s12, s16, s19
 837              		.loc 1 105 0
 838 0088 EAEEA87A 		vfma.f32	s15, s21, s17
 839              		.loc 1 106 0
 840 008c 66EE8A6A 		vmul.f32	s13, s13, s20
 841              		.loc 1 104 0
 842 0090 A6EE287A 		vfma.f32	s14, s12, s17
 843              	.LVL62:
 844              		.loc 1 106 0
 845 0094 EBEEE96A 		vfms.f32	s13, s23, s19
 846              		.loc 1 107 0
 847 0098 2BEE276A 		vmul.f32	s12, s22, s15
 848              		.loc 1 106 0
 849 009c 28EE098A 		vmul.f32	s16, s16, s18
 850              	.LVL63:
 851              		.loc 1 108 0
 852 00a0 67EEC07A 		vnmul.f32	s15, s15, s0
 853              	.LVL64:
 854              		.loc 1 106 0
 855 00a4 E8EE286A 		vfma.f32	s13, s16, s17
ARM GAS  /tmp/ccaUzOEH.s 			page 16


 856              		.loc 1 107 0
 857 00a8 A0EE076A 		vfma.f32	s12, s0, s14
 858              	.LVL65:
 859              		.loc 1 108 0
 860 00ac EBEE077A 		vfma.f32	s15, s22, s14
 861              	.LVL66:
 862              		.loc 1 112 0
 863 00b0 C4ED026A 		vstr.32	s13, [r4, #8]
 864              		.loc 1 110 0
 865 00b4 84ED006A 		vstr.32	s12, [r4]
 866              		.loc 1 111 0
 867 00b8 C4ED017A 		vstr.32	s15, [r4, #4]
 868              		.loc 1 113 0
 869 00bc 04B0     		add	sp, sp, #16
 870              		.cfi_def_cfa_offset 48
 871              		@ sp needed
 872 00be BDEC0A8B 		vldm	sp!, {d8-d12}
 873              		.cfi_restore 88
 874              		.cfi_restore 89
 875              		.cfi_restore 86
 876              		.cfi_restore 87
 877              		.cfi_restore 84
 878              		.cfi_restore 85
 879              		.cfi_restore 82
 880              		.cfi_restore 83
 881              		.cfi_restore 80
 882              		.cfi_restore 81
 883              		.cfi_def_cfa_offset 8
 884              	.LVL67:
 885 00c2 10BD     		pop	{r4, pc}
 886              	.LVL68:
 887              	.L50:
 888              		.align	2
 889              	.L49:
 890 00c4 00000000 		.word	.LANCHOR5
 891 00c8 00000000 		.word	.LANCHOR1
 892              		.cfi_endproc
 893              	.LFE265:
 894              		.size	imu_get_accel_derotated, .-imu_get_accel_derotated
 895              		.section	.text.imu_get_quaternions,"ax",%progbits
 896              		.align	1
 897              		.p2align 4,,15
 898              		.global	imu_get_quaternions
 899              		.syntax unified
 900              		.thumb
 901              		.thumb_func
 902              		.fpu fpv4-sp-d16
 903              		.type	imu_get_quaternions, %function
 904              	imu_get_quaternions:
 905              	.LFB266:
 906              		.loc 1 115 0
 907              		.cfi_startproc
 908              		@ args = 0, pretend = 0, frame = 0
 909              		@ frame_needed = 0, uses_anonymous_args = 0
 910              		@ link register save eliminated.
 911              	.LVL69:
 912              		.loc 1 116 0
ARM GAS  /tmp/ccaUzOEH.s 			page 17


 913 0000 044B     		ldr	r3, .L52
 914 0002 1A68     		ldr	r2, [r3]	@ float
 915 0004 0260     		str	r2, [r0]	@ float
 916              		.loc 1 117 0
 917 0006 5A68     		ldr	r2, [r3, #4]	@ float
 918 0008 4260     		str	r2, [r0, #4]	@ float
 919              		.loc 1 118 0
 920 000a 9A68     		ldr	r2, [r3, #8]	@ float
 921 000c 8260     		str	r2, [r0, #8]	@ float
 922              		.loc 1 119 0
 923 000e DB68     		ldr	r3, [r3, #12]	@ float
 924 0010 C360     		str	r3, [r0, #12]	@ float
 925              		.loc 1 120 0
 926 0012 7047     		bx	lr
 927              	.L53:
 928              		.align	2
 929              	.L52:
 930 0014 00000000 		.word	.LANCHOR5
 931              		.cfi_endproc
 932              	.LFE266:
 933              		.size	imu_get_quaternions, .-imu_get_quaternions
 934              		.section	.bss.last_time.11783,"aw",%nobits
 935              		.align	2
 936              		.set	.LANCHOR0,. + 0
 937              		.type	last_time.11783, %object
 938              		.size	last_time.11783, 4
 939              	last_time.11783:
 940 0000 00000000 		.space	4
 941              		.section	.bss.m_accel,"aw",%nobits
 942              		.align	2
 943              		.set	.LANCHOR1,. + 0
 944              		.type	m_accel, %object
 945              		.size	m_accel, 12
 946              	m_accel:
 947 0000 00000000 		.space	12
 947      00000000 
 947      00000000 
 948              		.section	.bss.m_att,"aw",%nobits
 949              		.align	2
 950              		.set	.LANCHOR5,. + 0
 951              		.type	m_att, %object
 952              		.size	m_att, 36
 953              	m_att:
 954 0000 00000000 		.space	36
 954      00000000 
 954      00000000 
 954      00000000 
 954      00000000 
 955              		.section	.bss.m_attitude_init_done,"aw",%nobits
 956              		.set	.LANCHOR4,. + 0
 957              		.type	m_attitude_init_done, %object
 958              		.size	m_attitude_init_done, 1
 959              	m_attitude_init_done:
 960 0000 00       		.space	1
 961              		.section	.bss.m_gyro,"aw",%nobits
 962              		.align	2
 963              		.set	.LANCHOR2,. + 0
ARM GAS  /tmp/ccaUzOEH.s 			page 18


 964              		.type	m_gyro, %object
 965              		.size	m_gyro, 12
 966              	m_gyro:
 967 0000 00000000 		.space	12
 967      00000000 
 967      00000000 
 968              		.section	.bss.m_mag,"aw",%nobits
 969              		.align	2
 970              		.set	.LANCHOR3,. + 0
 971              		.type	m_mag, %object
 972              		.size	m_mag, 12
 973              	m_mag:
 974 0000 00000000 		.space	12
 974      00000000 
 974      00000000 
 975              		.section	.rodata.imu_init.str1.4,"aMS",%progbits,1
 976              		.align	2
 977              	.LC2:
 978 0000 5072696E 		.ascii	"Print 100 roll/pitch/yaw samples at 10 Hz\000"
 978      74203130 
 978      3020726F 
 978      6C6C2F70 
 978      69746368 
 979 002a 0000     		.space	2
 980              	.LC3:
 981 002c 696D755F 		.ascii	"imu_rpy\000"
 981      72707900 
 982              		.section	.rodata.terminal_rpy.str1.4,"aMS",%progbits,1
 983              		.align	2
 984              	.LC0:
 985 0000 523A2025 		.ascii	"R: %.2f P: %.2f Y: %.2f\000"
 985      2E326620 
 985      503A2025 
 985      2E326620 
 985      593A2025 
 986              	.LC1:
 987 0018 2000     		.ascii	" \000"
 988              		.text
 989              	.Letext0:
 990              		.file 2 "/usr/lib/gcc/arm-none-eabi/7.3.1/include/stddef.h"
 991              		.file 3 "/usr/arm-none-eabi/include/machine/_default_types.h"
 992              		.file 4 "/usr/arm-none-eabi/include/sys/_stdint.h"
 993              		.file 5 "ChibiOS_3.0.2/os/rt/ports/ARMCMx/compilers/GCC/chtypes.h"
 994              		.file 6 "ChibiOS_3.0.2/os/rt/include/chsystypes.h"
 995              		.file 7 "ChibiOS_3.0.2/os/rt/include/chschd.h"
 996              		.file 8 "ChibiOS_3.0.2/os/ext/CMSIS/include/core_cm4.h"
 997              		.file 9 "ChibiOS_3.0.2/os/ext/CMSIS/ST/system_stm32f4xx.h"
 998              		.file 10 "ChibiOS_3.0.2/os/ext/CMSIS/ST/stm32f407xx.h"
 999              		.file 11 "ChibiOS_3.0.2/os/rt/ports/ARMCMx/chcore.h"
 1000              		.file 12 "ChibiOS_3.0.2/os/rt/ports/ARMCMx/chcore_v7m.h"
 1001              		.file 13 "ChibiOS_3.0.2/os/rt/include/chtm.h"
 1002              		.file 14 "ChibiOS_3.0.2/os/rt/include/chsem.h"
 1003              		.file 15 "ChibiOS_3.0.2/os/rt/include/chmtx.h"
 1004              		.file 16 "ChibiOS_3.0.2/os/rt/include/chregistry.h"
 1005              		.file 17 "ChibiOS_3.0.2/os/rt/include/chevents.h"
 1006              		.file 18 "ChibiOS_3.0.2/os/rt/include/chqueues.h"
 1007              		.file 19 "./datatypes.h"
ARM GAS  /tmp/ccaUzOEH.s 			page 19


 1008              		.file 20 "./conf_general.h"
 1009              		.file 21 "ChibiOS_3.0.2/os/hal/ports/STM32/STM32F4xx/stm32_dma.h"
 1010              		.file 22 "ChibiOS_3.0.2/os/hal/ports/STM32/LLD/GPIOv2/pal_lld.h"
 1011              		.file 23 "ChibiOS_3.0.2/os/hal/include/can.h"
 1012              		.file 24 "ChibiOS_3.0.2/os/hal/ports/STM32/LLD/can_lld.h"
 1013              		.file 25 "ChibiOS_3.0.2/os/hal/include/i2c.h"
 1014              		.file 26 "ChibiOS_3.0.2/os/hal/ports/STM32/LLD/I2Cv1/i2c_lld.h"
 1015              		.file 27 "ChibiOS_3.0.2/os/hal/include/icu.h"
 1016              		.file 28 "ChibiOS_3.0.2/os/hal/ports/STM32/LLD/TIMv1/icu_lld.h"
 1017              		.file 29 "ChibiOS_3.0.2/os/hal/ports/STM32/LLD/TIMv1/stm32_tim.h"
 1018              		.file 30 "ChibiOS_3.0.2/os/hal/include/serial.h"
 1019              		.file 31 "ChibiOS_3.0.2/os/hal/ports/STM32/LLD/USARTv1/serial_lld.h"
 1020              		.file 32 "ChibiOS_3.0.2/os/hal/include/spi.h"
 1021              		.file 33 "ChibiOS_3.0.2/os/hal/ports/STM32/LLD/SPIv1/spi_lld.h"
 1022              		.file 34 "ChibiOS_3.0.2/os/hal/include/usb.h"
 1023              		.file 35 "ChibiOS_3.0.2/os/hal/ports/STM32/LLD/OTGv1/usb_lld.h"
 1024              		.file 36 "ChibiOS_3.0.2/os/hal/ports/STM32/LLD/OTGv1/stm32_otg.h"
 1025              		.file 37 "/usr/arm-none-eabi/include/sys/lock.h"
 1026              		.file 38 "/usr/arm-none-eabi/include/sys/_types.h"
 1027              		.file 39 "/usr/arm-none-eabi/include/sys/reent.h"
 1028              		.file 40 "/usr/arm-none-eabi/include/math.h"
 1029              		.file 41 "imu/ahrs.h"
 1030              		.file 42 "./commands.h"
 1031              		.file 43 "ChibiOS_3.0.2/os/rt/include/chthreads.h"
 1032              		.file 44 "./timer.h"
 1033              		.file 45 "imu/mpu9150.h"
 1034              		.file 46 "./terminal.h"