ARM GAS  /tmp/ccMk3Aw6.s 			page 1


   1              		.cpu cortex-m4
   2              		.eabi_attribute 27, 1
   3              		.eabi_attribute 28, 1
   4              		.eabi_attribute 20, 1
   5              		.eabi_attribute 21, 1
   6              		.eabi_attribute 23, 3
   7              		.eabi_attribute 24, 1
   8              		.eabi_attribute 25, 1
   9              		.eabi_attribute 26, 1
  10              		.eabi_attribute 30, 2
  11              		.eabi_attribute 34, 1
  12              		.eabi_attribute 18, 4
  13              		.file	"led_external.c"
  14              		.text
  15              	.Ltext0:
  16              		.cfi_sections	.debug_frame
  17              		.section	.text.wait_for_state_change,"ax",%progbits
  18              		.align	1
  19              		.p2align 4,,15
  20              		.syntax unified
  21              		.thumb
  22              		.thumb_func
  23              		.fpu fpv4-sp-d16
  24              		.type	wait_for_state_change, %function
  25              	wait_for_state_change:
  26              	.LFB261:
  27              		.file 1 "led_external.c"
  28              		.loc 1 201 0
  29              		.cfi_startproc
  30              		@ args = 0, pretend = 0, frame = 0
  31              		@ frame_needed = 0, uses_anonymous_args = 0
  32 0000 F8B5     		push	{r3, r4, r5, r6, r7, lr}
  33              		.cfi_def_cfa_offset 24
  34              		.cfi_offset 3, -24
  35              		.cfi_offset 4, -20
  36              		.cfi_offset 5, -16
  37              		.cfi_offset 6, -12
  38              		.cfi_offset 7, -8
  39              		.cfi_offset 14, -4
  40              		.loc 1 202 0
  41 0002 0D4E     		ldr	r6, .L9
  42              		.loc 1 203 0
  43 0004 0D4F     		ldr	r7, .L9+4
  44              		.loc 1 202 0
  45 0006 3478     		ldrb	r4, [r6]	@ zero_extendqisi2
  46              		.loc 1 203 0
  47 0008 3D78     		ldrb	r5, [r7]	@ zero_extendqisi2
  48              		.loc 1 204 0
  49 000a 3378     		ldrb	r3, [r6]	@ zero_extendqisi2
  50              		.loc 1 202 0
  51 000c E4B2     		uxtb	r4, r4
  52              	.LVL0:
  53              		.loc 1 204 0
  54 000e 9C42     		cmp	r4, r3
  55 0010 11D1     		bne	.L1
  56 0012 3B78     		ldrb	r3, [r7]	@ zero_extendqisi2
  57 0014 EDB2     		uxtb	r5, r5
ARM GAS  /tmp/ccMk3Aw6.s 			page 2


  58 0016 9D42     		cmp	r5, r3
  59 0018 09D0     		beq	.L3
  60 001a 0CE0     		b	.L1
  61              	.L5:
  62              		.loc 1 205 0
  63 001c 6420     		movs	r0, #100
  64 001e FFF7FEFF 		bl	chThdSleep
  65              	.LVL1:
  66              		.loc 1 204 0
  67 0022 3378     		ldrb	r3, [r6]	@ zero_extendqisi2
  68 0024 A342     		cmp	r3, r4
  69 0026 06D1     		bne	.L1
  70              		.loc 1 204 0 is_stmt 0 discriminator 1
  71 0028 3B78     		ldrb	r3, [r7]	@ zero_extendqisi2
  72 002a AB42     		cmp	r3, r5
  73 002c 03D1     		bne	.L1
  74              	.L3:
  75              		.loc 1 204 0 discriminator 2
  76 002e FFF7FEFF 		bl	mc_interface_get_fault
  77              	.LVL2:
  78 0032 0028     		cmp	r0, #0
  79 0034 F2D0     		beq	.L5
  80              	.LVL3:
  81              	.L1:
  82              		.loc 1 207 0 is_stmt 1
  83 0036 F8BD     		pop	{r3, r4, r5, r6, r7, pc}
  84              	.LVL4:
  85              	.L10:
  86              		.align	2
  87              	.L9:
  88 0038 00000000 		.word	.LANCHOR0
  89 003c 00000000 		.word	.LANCHOR1
  90              		.cfi_endproc
  91              	.LFE261:
  92              		.size	wait_for_state_change, .-wait_for_state_change
  93              		.section	.text.set_led_wrapper,"ax",%progbits
  94              		.align	1
  95              		.p2align 4,,15
  96              		.syntax unified
  97              		.thumb
  98              		.thumb_func
  99              		.fpu fpv4-sp-d16
 100              		.type	set_led_wrapper, %function
 101              	set_led_wrapper:
 102              	.LFB262:
 103              		.loc 1 209 0
 104              		.cfi_startproc
 105              		@ args = 0, pretend = 0, frame = 0
 106              		@ frame_needed = 0, uses_anonymous_args = 0
 107              		@ link register save eliminated.
 108              	.LVL5:
 109              		.loc 1 210 0
 110 0000 064B     		ldr	r3, .L14
 111 0002 1A78     		ldrb	r2, [r3]	@ zero_extendqisi2
 112 0004 3AB1     		cbz	r2, .L12
 113              	.LVL6:
 114              	.LBB72:
ARM GAS  /tmp/ccMk3Aw6.s 			page 3


 115              	.LBB73:
 116              		.loc 1 211 0
 117 0006 0D28     		cmp	r0, #13
 118 0008 02DC     		bgt	.L13
 119              		.loc 1 212 0
 120 000a 0E30     		adds	r0, r0, #14
 121              	.LVL7:
 122 000c FFF7FEBF 		b	ws2811_set_led_color
 123              	.LVL8:
 124              	.L13:
 125              		.loc 1 214 0
 126 0010 0E38     		subs	r0, r0, #14
 127              	.LVL9:
 128 0012 FFF7FEBF 		b	ws2811_set_led_color
 129              	.LVL10:
 130              	.L12:
 131              	.LBE73:
 132              	.LBE72:
 133              		.loc 1 217 0
 134 0016 FFF7FEBF 		b	ws2811_set_led_color
 135              	.LVL11:
 136              	.L15:
 137 001a 00BF     		.align	2
 138              	.L14:
 139 001c 00000000 		.word	.LANCHOR1
 140              		.cfi_endproc
 141              	.LFE262:
 142              		.size	set_led_wrapper, .-set_led_wrapper
 143              		.section	.text.led_thread,"ax",%progbits
 144              		.align	1
 145              		.p2align 4,,15
 146              		.syntax unified
 147              		.thumb
 148              		.thumb_func
 149              		.fpu fpv4-sp-d16
 150              		.type	led_thread, %function
 151              	led_thread:
 152              	.LFB259:
 153              		.loc 1 56 0
 154              		.cfi_startproc
 155              		@ args = 0, pretend = 0, frame = 0
 156              		@ frame_needed = 0, uses_anonymous_args = 0
 157              	.LVL12:
 158 0000 2DE9F84F 		push	{r3, r4, r5, r6, r7, r8, r9, r10, fp, lr}
 159              		.cfi_def_cfa_offset 40
 160              		.cfi_offset 3, -40
 161              		.cfi_offset 4, -36
 162              		.cfi_offset 5, -32
 163              		.cfi_offset 6, -28
 164              		.cfi_offset 7, -24
 165              		.cfi_offset 8, -20
 166              		.cfi_offset 9, -16
 167              		.cfi_offset 10, -12
 168              		.cfi_offset 11, -8
 169              		.cfi_offset 14, -4
 170              	.LBB74:
 171              	.LBB75:
ARM GAS  /tmp/ccMk3Aw6.s 			page 4


 172              		.file 2 "ChibiOS_3.0.2/os/rt/include/chregistry.h"
 173              		.loc 2 135 0
 174 0004 DFF88883 		ldr	r8, .L77+44
 175 0008 D64A     		ldr	r2, .L77
 176 000a D8F81830 		ldr	r3, [r8, #24]
 177 000e D64C     		ldr	r4, .L77+4
 178 0010 D64F     		ldr	r7, .L77+8
 179              	.LBE75:
 180              	.LBE74:
 181              		.loc 1 56 0
 182 0012 2DED068B 		vpush.64	{d8, d9, d10}
 183              		.cfi_def_cfa_offset 64
 184              		.cfi_offset 80, -64
 185              		.cfi_offset 81, -60
 186              		.cfi_offset 82, -56
 187              		.cfi_offset 83, -52
 188              		.cfi_offset 84, -48
 189              		.cfi_offset 85, -44
 190              	.LBB77:
 191              	.LBB76:
 192              		.loc 2 135 0
 193 0016 9A61     		str	r2, [r3, #24]
 194              	.LVL13:
 195              	.LBE76:
 196              	.LBE77:
 197              	.LBB78:
 198              		.loc 1 63 0
 199 0018 FFF7FEFF 		bl	mc_interface_get_fault
 200              	.LVL14:
 201              	.LBB79:
 202              		.loc 1 157 0
 203 001c DFEDD4AA 		vldr.32	s21, .L77+12
 204 0020 9FEDD4AA 		vldr.32	s20, .L77+16
 205 0024 DFEDD48A 		vldr.32	s17, .L77+20
 206              	.LBE79:
 207              		.loc 1 64 0
 208 0028 0646     		mov	r6, r0
 209 002a 0028     		cmp	r0, #0
 210 002c 40F0E480 		bne	.L71
 211              	.LVL15:
 212              	.L17:
 213              	.LBB125:
 214              		.loc 1 84 0
 215 0030 2578     		ldrb	r5, [r4]	@ zero_extendqisi2
 216              		.loc 1 85 0
 217 0032 3E78     		ldrb	r6, [r7]	@ zero_extendqisi2
 218              		.loc 1 87 0
 219 0034 2378     		ldrb	r3, [r4]	@ zero_extendqisi2
 220              		.loc 1 84 0
 221 0036 EDB2     		uxtb	r5, r5
 222              	.LVL16:
 223              		.loc 1 85 0
 224 0038 F6B2     		uxtb	r6, r6
 225              	.LVL17:
 226              		.loc 1 87 0
 227 003a 072B     		cmp	r3, #7
 228 003c 00F28D81 		bhi	.L22
ARM GAS  /tmp/ccMk3Aw6.s 			page 5


 229 0040 DFE813F0 		tbh	[pc, r3, lsl #1]
 230              	.L24:
 231 0044 CC00     		.2byte	(.L23-.L24)/2
 232 0046 BA00     		.2byte	(.L53-.L24)/2
 233 0048 A800     		.2byte	(.L54-.L24)/2
 234 004a 5A00     		.2byte	(.L55-.L24)/2
 235 004c 0800     		.2byte	(.L56-.L24)/2
 236 004e 5A00     		.2byte	(.L55-.L24)/2
 237 0050 0800     		.2byte	(.L56-.L24)/2
 238 0052 1901     		.2byte	(.L29-.L24)/2
 239              		.p2align 1
 240              	.L56:
 241              	.LBB80:
 242              		.loc 1 134 0
 243 0054 4FF0000A 		mov	r10, #0
 244              	.LVL18:
 245              	.L28:
 246              		.loc 1 135 0
 247 0058 2378     		ldrb	r3, [r4]	@ zero_extendqisi2
 248 005a 042B     		cmp	r3, #4
 249              		.loc 1 138 0
 250 005c 5046     		mov	r0, r10
 251 005e 4FF47F01 		mov	r1, #16711680
 252              		.loc 1 136 0
 253 0062 08BF     		it	eq
 254 0064 4FF4FE01 		moveq	r1, #8323072
 255              		.loc 1 138 0
 256 0068 FFF7FEFF 		bl	set_led_wrapper
 257              	.LVL19:
 258              		.loc 1 140 0
 259 006c 0AF10E00 		add	r0, r10, #14
 260 0070 6FF07F41 		mvn	r1, #-16777216
 261              		.loc 1 134 0
 262 0074 0AF1010A 		add	r10, r10, #1
 263              	.LVL20:
 264              		.loc 1 140 0
 265 0078 FFF7FEFF 		bl	set_led_wrapper
 266              	.LVL21:
 267              		.loc 1 134 0
 268 007c BAF10E0F 		cmp	r10, #14
 269 0080 EAD1     		bne	.L28
 270              	.LBE80:
 271              		.loc 1 143 0
 272 0082 2378     		ldrb	r3, [r4]	@ zero_extendqisi2
 273 0084 AB42     		cmp	r3, r5
 274 0086 40F0AE80 		bne	.L21
 275 008a 3B78     		ldrb	r3, [r7]	@ zero_extendqisi2
 276 008c B342     		cmp	r3, r6
 277 008e 40F0AA80 		bne	.L21
 278              	.LBB81:
 279              	.LBB82:
 280              	.LBB83:
 281              	.LBB84:
 282              	.LBB85:
 283              	.LBB86:
 284              		.file 3 "ChibiOS_3.0.2/os/ext/CMSIS/include/core_cmFunc.h"
 285              		.loc 3 546 0
ARM GAS  /tmp/ccMk3Aw6.s 			page 6


 286 0092 4FF0200B 		mov	fp, #32
 287              	.LBE86:
 288              	.LBE85:
 289              	.LBE84:
 290              	.LBE83:
 291              	.LBE82:
 292              	.LBE81:
 293              		.loc 1 145 0
 294 0096 DFF8FCA2 		ldr	r10, .L77+48
 295              	.LVL22:
 296 009a 10E0     		b	.L41
 297              	.L72:
 298 009c FFF7FEFF 		bl	set_led_wrapper
 299              	.LVL23:
 300              		.loc 1 146 0
 301 00a0 5146     		mov	r1, r10
 302 00a2 1B20     		movs	r0, #27
 303 00a4 FFF7FEFF 		bl	set_led_wrapper
 304              	.LVL24:
 305              	.L43:
 306              		.loc 1 151 0
 307 00a8 6420     		movs	r0, #100
 308 00aa FFF7FEFF 		bl	chThdSleep
 309              	.LVL25:
 310              		.loc 1 143 0
 311 00ae 2378     		ldrb	r3, [r4]	@ zero_extendqisi2
 312 00b0 AB42     		cmp	r3, r5
 313 00b2 40F09880 		bne	.L21
 314              		.loc 1 143 0 is_stmt 0 discriminator 1
 315 00b6 3B78     		ldrb	r3, [r7]	@ zero_extendqisi2
 316 00b8 B342     		cmp	r3, r6
 317 00ba 40F09480 		bne	.L21
 318              	.L41:
 319              		.loc 1 143 0 discriminator 2
 320 00be FFF7FEFF 		bl	mc_interface_get_fault
 321              	.LVL26:
 322 00c2 0246     		mov	r2, r0
 323 00c4 0028     		cmp	r0, #0
 324 00c6 40F08E80 		bne	.L21
 325              	.LBB99:
 326              	.LBB98:
 327              	.LBB90:
 328              	.LBB89:
 329              	.LBB88:
 330              	.LBB87:
 331              		.loc 3 546 0 is_stmt 1
 332              		.syntax unified
 333              	@ 546 "ChibiOS_3.0.2/os/ext/CMSIS/include/core_cmFunc.h" 1
 334 00ca 8BF31188 		MSR basepri, fp
 335              	@ 0 "" 2
 336              	.LVL27:
 337              		.thumb
 338              		.syntax unified
 339              	.LBE87:
 340              	.LBE88:
 341              	.LBE89:
 342              	.LBE90:
ARM GAS  /tmp/ccMk3Aw6.s 			page 7


 343              	.LBB91:
 344              	.LBB92:
 345              		.file 4 "ChibiOS_3.0.2/os/rt/include/chvt.h"
 346              		.loc 4 231 0
 347 00ce D8F82830 		ldr	r3, [r8, #40]
 348              	.LVL28:
 349              	.LBE92:
 350              	.LBE91:
 351              	.LBB93:
 352              	.LBB94:
 353              	.LBB95:
 354              	.LBB96:
 355              	.LBB97:
 356              		.loc 3 546 0
 357              		.syntax unified
 358              	@ 546 "ChibiOS_3.0.2/os/ext/CMSIS/include/core_cmFunc.h" 1
 359 00d2 82F31188 		MSR basepri, r2
 360              	@ 0 "" 2
 361              	.LVL29:
 362              		.thumb
 363              		.syntax unified
 364              	.LBE97:
 365              	.LBE96:
 366              	.LBE95:
 367              	.LBE94:
 368              	.LBE93:
 369              	.LBE98:
 370              	.LBE99:
 371              		.loc 1 144 0
 372 00d6 A94A     		ldr	r2, .L77+24
 373 00d8 A2FB0323 		umull	r2, r3, r2, r3
 374 00dc C3F30039 		ubfx	r9, r3, #12, #1
 375              		.loc 1 145 0
 376 00e0 5146     		mov	r1, r10
 377              		.loc 1 144 0
 378 00e2 B9F1000F 		cmp	r9, #0
 379 00e6 D9D1     		bne	.L72
 380              		.loc 1 148 0
 381 00e8 4946     		mov	r1, r9
 382 00ea FFF7FEFF 		bl	set_led_wrapper
 383              	.LVL30:
 384              		.loc 1 149 0
 385 00ee 4946     		mov	r1, r9
 386 00f0 1B20     		movs	r0, #27
 387 00f2 FFF7FEFF 		bl	set_led_wrapper
 388              	.LVL31:
 389 00f6 D7E7     		b	.L43
 390              	.LVL32:
 391              	.L55:
 392              	.LBB100:
 393              		.loc 1 111 0
 394 00f8 4FF0000A 		mov	r10, #0
 395              	.LVL33:
 396              	.L27:
 397              		.loc 1 112 0
 398 00fc 2378     		ldrb	r3, [r4]	@ zero_extendqisi2
 399 00fe 032B     		cmp	r3, #3
ARM GAS  /tmp/ccMk3Aw6.s 			page 8


 400              		.loc 1 115 0
 401 0100 5046     		mov	r0, r10
 402 0102 4FF47F01 		mov	r1, #16711680
 403              		.loc 1 113 0
 404 0106 08BF     		it	eq
 405 0108 4FF4FE01 		moveq	r1, #8323072
 406              		.loc 1 115 0
 407 010c FFF7FEFF 		bl	set_led_wrapper
 408              	.LVL34:
 409              		.loc 1 117 0
 410 0110 0AF10E00 		add	r0, r10, #14
 411 0114 6FF07F41 		mvn	r1, #-16777216
 412              		.loc 1 111 0
 413 0118 0AF1010A 		add	r10, r10, #1
 414              	.LVL35:
 415              		.loc 1 117 0
 416 011c FFF7FEFF 		bl	set_led_wrapper
 417              	.LVL36:
 418              		.loc 1 111 0
 419 0120 BAF10E0F 		cmp	r10, #14
 420 0124 EAD1     		bne	.L27
 421              	.LBE100:
 422              		.loc 1 120 0
 423 0126 2378     		ldrb	r3, [r4]	@ zero_extendqisi2
 424 0128 9D42     		cmp	r5, r3
 425 012a 5CD1     		bne	.L21
 426 012c 3B78     		ldrb	r3, [r7]	@ zero_extendqisi2
 427 012e B342     		cmp	r3, r6
 428 0130 59D1     		bne	.L21
 429              	.LBB101:
 430              	.LBB102:
 431              	.LBB103:
 432              	.LBB104:
 433              	.LBB105:
 434              	.LBB106:
 435              		.loc 3 546 0
 436 0132 4FF0200B 		mov	fp, #32
 437              	.LBE106:
 438              	.LBE105:
 439              	.LBE104:
 440              	.LBE103:
 441              	.LBE102:
 442              	.LBE101:
 443              		.loc 1 122 0
 444 0136 DFF85CA2 		ldr	r10, .L77+48
 445              	.LVL37:
 446 013a 0EE0     		b	.L35
 447              	.L73:
 448 013c FFF7FEFF 		bl	set_led_wrapper
 449              	.LVL38:
 450              		.loc 1 123 0
 451 0140 5146     		mov	r1, r10
 452 0142 0E20     		movs	r0, #14
 453 0144 FFF7FEFF 		bl	set_led_wrapper
 454              	.LVL39:
 455              	.L37:
 456              		.loc 1 128 0
ARM GAS  /tmp/ccMk3Aw6.s 			page 9


 457 0148 6420     		movs	r0, #100
 458 014a FFF7FEFF 		bl	chThdSleep
 459              	.LVL40:
 460              		.loc 1 120 0
 461 014e 2378     		ldrb	r3, [r4]	@ zero_extendqisi2
 462 0150 AB42     		cmp	r3, r5
 463 0152 48D1     		bne	.L21
 464              		.loc 1 120 0 is_stmt 0 discriminator 1
 465 0154 3B78     		ldrb	r3, [r7]	@ zero_extendqisi2
 466 0156 B342     		cmp	r3, r6
 467 0158 45D1     		bne	.L21
 468              	.L35:
 469              		.loc 1 120 0 discriminator 2
 470 015a FFF7FEFF 		bl	mc_interface_get_fault
 471              	.LVL41:
 472 015e 0028     		cmp	r0, #0
 473 0160 41D1     		bne	.L21
 474              	.LBB119:
 475              	.LBB118:
 476              	.LBB110:
 477              	.LBB109:
 478              	.LBB108:
 479              	.LBB107:
 480              		.loc 3 546 0 is_stmt 1
 481              		.syntax unified
 482              	@ 546 "ChibiOS_3.0.2/os/ext/CMSIS/include/core_cmFunc.h" 1
 483 0162 8BF31188 		MSR basepri, fp
 484              	@ 0 "" 2
 485              	.LVL42:
 486              		.thumb
 487              		.syntax unified
 488              	.LBE107:
 489              	.LBE108:
 490              	.LBE109:
 491              	.LBE110:
 492              	.LBB111:
 493              	.LBB112:
 494              		.loc 4 231 0
 495 0166 D8F82830 		ldr	r3, [r8, #40]
 496              	.LVL43:
 497              	.LBE112:
 498              	.LBE111:
 499              	.LBB113:
 500              	.LBB114:
 501              	.LBB115:
 502              	.LBB116:
 503              	.LBB117:
 504              		.loc 3 546 0
 505              		.syntax unified
 506              	@ 546 "ChibiOS_3.0.2/os/ext/CMSIS/include/core_cmFunc.h" 1
 507 016a 80F31188 		MSR basepri, r0
 508              	@ 0 "" 2
 509              	.LVL44:
 510              		.thumb
 511              		.syntax unified
 512              	.LBE117:
 513              	.LBE116:
ARM GAS  /tmp/ccMk3Aw6.s 			page 10


 514              	.LBE115:
 515              	.LBE114:
 516              	.LBE113:
 517              	.LBE118:
 518              	.LBE119:
 519              		.loc 1 121 0
 520 016e 834A     		ldr	r2, .L77+24
 521 0170 A2FB0323 		umull	r2, r3, r2, r3
 522 0174 C3F30039 		ubfx	r9, r3, #12, #1
 523              		.loc 1 122 0
 524 0178 5146     		mov	r1, r10
 525 017a 0D20     		movs	r0, #13
 526              		.loc 1 121 0
 527 017c B9F1000F 		cmp	r9, #0
 528 0180 DCD1     		bne	.L73
 529              		.loc 1 125 0
 530 0182 4946     		mov	r1, r9
 531 0184 0D20     		movs	r0, #13
 532 0186 FFF7FEFF 		bl	set_led_wrapper
 533              	.LVL45:
 534              		.loc 1 126 0
 535 018a 4946     		mov	r1, r9
 536 018c 0E20     		movs	r0, #14
 537 018e FFF7FEFF 		bl	set_led_wrapper
 538              	.LVL46:
 539 0192 D9E7     		b	.L37
 540              	.LVL47:
 541              	.L54:
 542              	.LBB120:
 543              		.loc 1 102 0
 544 0194 0025     		movs	r5, #0
 545              	.LVL48:
 546              	.L26:
 547              		.loc 1 103 0 discriminator 3
 548 0196 2846     		mov	r0, r5
 549 0198 4FF47F01 		mov	r1, #16711680
 550 019c FFF7FEFF 		bl	set_led_wrapper
 551              	.LVL49:
 552              		.loc 1 104 0 discriminator 3
 553 01a0 05F10E00 		add	r0, r5, #14
 554 01a4 6FF07F41 		mvn	r1, #-16777216
 555              		.loc 1 102 0 discriminator 3
 556 01a8 0135     		adds	r5, r5, #1
 557              	.LVL50:
 558              		.loc 1 104 0 discriminator 3
 559 01aa FFF7FEFF 		bl	set_led_wrapper
 560              	.LVL51:
 561              		.loc 1 102 0 discriminator 3
 562 01ae 0E2D     		cmp	r5, #14
 563 01b0 F1D1     		bne	.L26
 564              	.LBE120:
 565              		.loc 1 98 0
 566 01b2 FFF7FEFF 		bl	wait_for_state_change
 567              	.LVL52:
 568              		.loc 1 99 0
 569 01b6 16E0     		b	.L21
 570              	.LVL53:
ARM GAS  /tmp/ccMk3Aw6.s 			page 11


 571              	.L53:
 572              	.LBB121:
 573              		.loc 1 94 0
 574 01b8 0025     		movs	r5, #0
 575              	.LVL54:
 576              	.L25:
 577              		.loc 1 95 0 discriminator 3
 578 01ba 2846     		mov	r0, r5
 579 01bc 4FF4FE01 		mov	r1, #8323072
 580 01c0 FFF7FEFF 		bl	set_led_wrapper
 581              	.LVL55:
 582              		.loc 1 96 0 discriminator 3
 583 01c4 05F10E00 		add	r0, r5, #14
 584 01c8 6FF07F41 		mvn	r1, #-16777216
 585              		.loc 1 94 0 discriminator 3
 586 01cc 0135     		adds	r5, r5, #1
 587              	.LVL56:
 588              		.loc 1 96 0 discriminator 3
 589 01ce FFF7FEFF 		bl	set_led_wrapper
 590              	.LVL57:
 591              		.loc 1 94 0 discriminator 3
 592 01d2 0E2D     		cmp	r5, #14
 593 01d4 F1D1     		bne	.L25
 594              	.LBE121:
 595              		.loc 1 98 0
 596 01d6 FFF7FEFF 		bl	wait_for_state_change
 597              	.LVL58:
 598 01da 04E0     		b	.L21
 599              	.LVL59:
 600              	.L23:
 601              		.loc 1 89 0
 602 01dc 0020     		movs	r0, #0
 603              	.LVL60:
 604 01de FFF7FEFF 		bl	ws2811_set_all
 605              	.LVL61:
 606              		.loc 1 90 0
 607 01e2 FFF7FEFF 		bl	wait_for_state_change
 608              	.LVL62:
 609              	.L21:
 610              	.LBE125:
 611              		.loc 1 185 0
 612 01e6 0A20     		movs	r0, #10
 613 01e8 FFF7FEFF 		bl	chThdSleep
 614              	.LVL63:
 615              		.loc 1 63 0
 616 01ec FFF7FEFF 		bl	mc_interface_get_fault
 617              	.LVL64:
 618              		.loc 1 64 0
 619 01f0 0646     		mov	r6, r0
 620 01f2 0028     		cmp	r0, #0
 621 01f4 3FF41CAF 		beq	.L17
 622              	.L71:
 623              	.LBB126:
 624              		.loc 1 65 0
 625 01f8 0020     		movs	r0, #0
 626              	.LVL65:
 627 01fa FFF7FEFF 		bl	ws2811_set_all
ARM GAS  /tmp/ccMk3Aw6.s 			page 12


 628              	.LVL66:
 629              	.LBB127:
 630              		.loc 1 66 0
 631 01fe 0025     		movs	r5, #0
 632              	.LVL67:
 633              	.L18:
 634              		.loc 1 67 0 discriminator 3
 635 0200 2846     		mov	r0, r5
 636 0202 4FF47F01 		mov	r1, #16711680
 637 0206 FFF7FEFF 		bl	set_led_wrapper
 638              	.LVL68:
 639              		.loc 1 66 0 discriminator 3
 640 020a 0135     		adds	r5, r5, #1
 641              	.LVL69:
 642              		.loc 1 68 0 discriminator 3
 643 020c 4FF4FA60 		mov	r0, #2000
 644 0210 FFF7FEFF 		bl	chThdSleep
 645              	.LVL70:
 646              		.loc 1 66 0 discriminator 3
 647 0214 B542     		cmp	r5, r6
 648 0216 F3D1     		bne	.L18
 649              	.LBE127:
 650              		.loc 1 71 0
 651 0218 42F21070 		movw	r0, #10000
 652 021c FFF7FEFF 		bl	chThdSleep
 653              	.LVL71:
 654              	.LBB128:
 655              	.LBB129:
 656              		.loc 1 75 0
 657 0220 DFED579A 		vldr.32	s19, .L77+28
 658              	.LBB130:
 659              	.LBB131:
 660              		.loc 1 194 0
 661 0224 9FED579A 		vldr.32	s18, .L77+32
 662              	.LBE131:
 663              	.LBE130:
 664              	.LBE129:
 665              	.LBE128:
 666              		.loc 1 71 0
 667 0228 4FF0320A 		mov	r10, #50
 668              		.loc 1 73 0
 669 022c B7EE008A 		vmov.f32	s16, #1.0e+0
 670              	.LVL72:
 671              	.L20:
 672              	.LBB137:
 673              	.LBB136:
 674              		.loc 1 75 0
 675 0230 38EE698A 		vsub.f32	s16, s16, s19
 676              	.LVL73:
 677              	.LBB133:
 678              		.loc 1 77 0
 679 0234 4FF0000B 		mov	fp, #0
 680              	.LBE133:
 681              	.LBB134:
 682              	.LBB132:
 683              		.loc 1 195 0
 684 0238 68EE287A 		vmul.f32	s15, s16, s17
ARM GAS  /tmp/ccMk3Aw6.s 			page 13


 685              		.loc 1 194 0
 686 023c 28EE097A 		vmul.f32	s14, s16, s18
 687              		.loc 1 195 0
 688 0240 FCEEE77A 		vcvt.u32.f32	s15, s15
 689 0244 17EE905A 		vmov	r5, s15	@ int
 690              	.LVL74:
 691              		.loc 1 194 0
 692 0248 FCEEC77A 		vcvt.u32.f32	s15, s14
 693              		.loc 1 198 0
 694 024c 2A02     		lsls	r2, r5, #8
 695              		.loc 1 194 0
 696 024e 17EE903A 		vmov	r3, s15	@ int
 697              		.loc 1 198 0
 698 0252 42EA0343 		orr	r3, r2, r3, lsl #16
 699 0256 1D43     		orrs	r5, r5, r3
 700              	.LVL75:
 701              	.L19:
 702              	.LBE132:
 703              	.LBE134:
 704              	.LBB135:
 705              		.loc 1 78 0 discriminator 3
 706 0258 5846     		mov	r0, fp
 707 025a 2946     		mov	r1, r5
 708              		.loc 1 77 0 discriminator 3
 709 025c 0BF1010B 		add	fp, fp, #1
 710              	.LVL76:
 711              		.loc 1 78 0 discriminator 3
 712 0260 FFF7FEFF 		bl	set_led_wrapper
 713              	.LVL77:
 714              		.loc 1 77 0 discriminator 3
 715 0264 B345     		cmp	fp, r6
 716 0266 F7D1     		bne	.L19
 717              	.LBE135:
 718              		.loc 1 80 0 discriminator 2
 719 0268 6420     		movs	r0, #100
 720 026a FFF7FEFF 		bl	chThdSleep
 721              	.LVL78:
 722              	.LBE136:
 723              		.loc 1 74 0 discriminator 2
 724 026e BAF1010A 		subs	r10, r10, #1
 725              	.LVL79:
 726 0272 DDD1     		bne	.L20
 727 0274 B7E7     		b	.L21
 728              	.LVL80:
 729              	.L29:
 730              	.LBE137:
 731              	.LBE126:
 732              	.LBB138:
 733              		.loc 1 156 0
 734 0276 2378     		ldrb	r3, [r4]	@ zero_extendqisi2
 735 0278 AB42     		cmp	r3, r5
 736 027a B4D1     		bne	.L21
 737 027c 3B78     		ldrb	r3, [r7]	@ zero_extendqisi2
 738 027e B342     		cmp	r3, r6
 739 0280 B1D1     		bne	.L21
 740              		.loc 1 157 0
 741 0282 9FED419A 		vldr.32	s18, .L77+36
ARM GAS  /tmp/ccMk3Aw6.s 			page 14


 742              	.LBB122:
 743              		.loc 1 164 0
 744 0286 DFF810A1 		ldr	r10, .L77+52
 745              	.LVL81:
 746              	.L31:
 747              	.LBE122:
 748              		.loc 1 156 0 discriminator 2
 749 028a FFF7FEFF 		bl	mc_interface_get_fault
 750              	.LVL82:
 751 028e 8346     		mov	fp, r0
 752 0290 0028     		cmp	r0, #0
 753 0292 A8D1     		bne	.L21
 754              		.loc 1 157 0
 755 0294 3D4B     		ldr	r3, .L77+40
 756 0296 DB8A     		ldrh	r3, [r3, #22]
 757 0298 00EE103A 		vmov	s0, r3	@ int
 758 029c B8EE400A 		vcvt.f32.u32	s0, s0
 759 02a0 B7EE002A 		vmov.f32	s4, #1.0e+0
 760 02a4 20EE2A0A 		vmul.f32	s0, s0, s21
 761 02a8 F0EE681A 		vmov.f32	s3, s17
 762 02ac 20EE0A0A 		vmul.f32	s0, s0, s20
 763 02b0 B0EE491A 		vmov.f32	s2, s18
 764 02b4 F3EE0C0A 		vmov.f32	s1, #2.8e+1
 765 02b8 FFF7FEFF 		bl	utils_map
 766              	.LVL83:
 767              	.LBB123:
 768              		.loc 1 159 0
 769 02bc B2EE0C8A 		vmov.f32	s16, #1.4e+1
 770 02c0 20EE088A 		vmul.f32	s16, s0, s16
 771 02c4 12E0     		b	.L50
 772              	.LVL84:
 773              	.L76:
 774              		.loc 1 160 0
 775 02c6 BBF1030F 		cmp	fp, #3
 776              		.loc 1 164 0
 777 02ca 5146     		mov	r1, r10
 778 02cc 5846     		mov	r0, fp
 779              		.loc 1 160 0
 780 02ce 30DD     		ble	.L74
 781              	.LVL85:
 782              		.loc 1 163 0
 783 02d0 BBF1080F 		cmp	fp, #8
 784 02d4 37DC     		bgt	.L49
 785              		.loc 1 164 0
 786 02d6 FFF7FEFF 		bl	set_led_wrapper
 787              	.LVL86:
 788              		.loc 1 165 0
 789 02da 5146     		mov	r1, r10
 790 02dc 4846     		mov	r0, r9
 791 02de FFF7FEFF 		bl	set_led_wrapper
 792              	.LVL87:
 793              	.L48:
 794              		.loc 1 158 0 discriminator 2
 795 02e2 0BF1010B 		add	fp, fp, #1
 796              	.LVL88:
 797 02e6 BBF10E0F 		cmp	fp, #14
 798 02ea 17D0     		beq	.L75
ARM GAS  /tmp/ccMk3Aw6.s 			page 15


 799              	.LVL89:
 800              	.L50:
 801              		.loc 1 159 0
 802 02ec 07EE90BA 		vmov	s15, fp	@ int
 803 02f0 F8EEE77A 		vcvt.f32.s32	s15, s15
 804 02f4 CBF11B09 		rsb	r9, fp, #27
 805 02f8 F4EEC87A 		vcmpe.f32	s15, s16
 806 02fc F1EE10FA 		vmrs	APSR_nzcv, FPSCR
 807 0300 E1D4     		bmi	.L76
 808              		.loc 1 171 0
 809 0302 5846     		mov	r0, fp
 810 0304 0021     		movs	r1, #0
 811 0306 FFF7FEFF 		bl	set_led_wrapper
 812              	.LVL90:
 813              		.loc 1 158 0
 814 030a 0BF1010B 		add	fp, fp, #1
 815              	.LVL91:
 816              		.loc 1 172 0
 817 030e 4846     		mov	r0, r9
 818 0310 0021     		movs	r1, #0
 819 0312 FFF7FEFF 		bl	set_led_wrapper
 820              	.LVL92:
 821              		.loc 1 158 0
 822 0316 BBF10E0F 		cmp	fp, #14
 823 031a E7D1     		bne	.L50
 824              	.L75:
 825              	.LBE123:
 826              		.loc 1 175 0
 827 031c 6420     		movs	r0, #100
 828 031e FFF7FEFF 		bl	chThdSleep
 829              	.LVL93:
 830              		.loc 1 156 0
 831 0322 2378     		ldrb	r3, [r4]	@ zero_extendqisi2
 832 0324 AB42     		cmp	r3, r5
 833 0326 7FF45EAF 		bne	.L21
 834              		.loc 1 156 0 is_stmt 0 discriminator 1
 835 032a 3B78     		ldrb	r3, [r7]	@ zero_extendqisi2
 836 032c B342     		cmp	r3, r6
 837 032e ACD0     		beq	.L31
 838 0330 59E7     		b	.L21
 839              	.LVL94:
 840              	.L74:
 841              	.LBB124:
 842              		.loc 1 161 0 is_stmt 1
 843 0332 4FF47F01 		mov	r1, #16711680
 844 0336 FFF7FEFF 		bl	set_led_wrapper
 845              	.LVL95:
 846              		.loc 1 162 0
 847 033a 4846     		mov	r0, r9
 848 033c 4FF47F01 		mov	r1, #16711680
 849 0340 FFF7FEFF 		bl	set_led_wrapper
 850              	.LVL96:
 851 0344 CDE7     		b	.L48
 852              	.LVL97:
 853              	.L49:
 854              		.loc 1 167 0
 855 0346 4FF47F41 		mov	r1, #65280
ARM GAS  /tmp/ccMk3Aw6.s 			page 16


 856 034a FFF7FEFF 		bl	set_led_wrapper
 857              	.LVL98:
 858              		.loc 1 168 0
 859 034e 4846     		mov	r0, r9
 860 0350 4FF47F41 		mov	r1, #65280
 861 0354 FFF7FEFF 		bl	set_led_wrapper
 862              	.LVL99:
 863 0358 C3E7     		b	.L48
 864              	.LVL100:
 865              	.L22:
 866              	.LBE124:
 867              		.loc 1 180 0
 868 035a 6420     		movs	r0, #100
 869              	.LVL101:
 870 035c FFF7FEFF 		bl	chThdSleep
 871              	.LVL102:
 872              		.loc 1 181 0
 873 0360 41E7     		b	.L21
 874              	.L78:
 875 0362 00BF     		.align	2
 876              	.L77:
 877 0364 00000000 		.word	.LC0
 878 0368 00000000 		.word	.LANCHOR0
 879 036c 00000000 		.word	.LANCHOR1
 880 0370 6740533A 		.word	978534503
 881 0374 74D19541 		.word	1100337524
 882 0378 00000000 		.word	0
 883 037c 5917B7D1 		.word	-776530087
 884 0380 0AD7A33C 		.word	1017370378
 885 0384 00007F43 		.word	1132396544
 886 0388 00000442 		.word	1107558400
 887 038c 00000000 		.word	ADC_Value
 888 0390 00000000 		.word	ch
 889 0394 00A5FF00 		.word	16753920
 890 0398 00FFFF00 		.word	16776960
 891              	.LBE138:
 892              	.LBE78:
 893              		.cfi_endproc
 894              	.LFE259:
 895              		.size	led_thread, .-led_thread
 896              		.section	.text.led_external_init,"ax",%progbits
 897              		.align	1
 898              		.p2align 4,,15
 899              		.global	led_external_init
 900              		.syntax unified
 901              		.thumb
 902              		.thumb_func
 903              		.fpu fpv4-sp-d16
 904              		.type	led_external_init, %function
 905              	led_external_init:
 906              	.LFB256:
 907              		.loc 1 42 0
 908              		.cfi_startproc
 909              		@ args = 0, pretend = 0, frame = 0
 910              		@ frame_needed = 0, uses_anonymous_args = 0
 911 0000 30B5     		push	{r4, r5, lr}
 912              		.cfi_def_cfa_offset 12
ARM GAS  /tmp/ccMk3Aw6.s 			page 17


 913              		.cfi_offset 4, -12
 914              		.cfi_offset 5, -8
 915              		.cfi_offset 14, -4
 916              		.loc 1 43 0
 917 0002 0849     		ldr	r1, .L81
 918              		.loc 1 44 0
 919 0004 084D     		ldr	r5, .L81+4
 920              		.loc 1 45 0
 921 0006 094B     		ldr	r3, .L81+8
 922 0008 0948     		ldr	r0, .L81+12
 923              		.loc 1 42 0
 924 000a 83B0     		sub	sp, sp, #12
 925              		.cfi_def_cfa_offset 24
 926              		.loc 1 43 0
 927 000c 0024     		movs	r4, #0
 928              		.loc 1 45 0
 929 000e 0094     		str	r4, [sp]
 930 0010 0222     		movs	r2, #2
 931              		.loc 1 43 0
 932 0012 0C70     		strb	r4, [r1]
 933              		.loc 1 45 0
 934 0014 4FF4B361 		mov	r1, #1432
 935              		.loc 1 44 0
 936 0018 2C70     		strb	r4, [r5]
 937              		.loc 1 45 0
 938 001a FFF7FEFF 		bl	chThdCreateStatic
 939              	.LVL103:
 940              		.loc 1 46 0
 941 001e 03B0     		add	sp, sp, #12
 942              		.cfi_def_cfa_offset 12
 943              		@ sp needed
 944 0020 30BD     		pop	{r4, r5, pc}
 945              	.L82:
 946 0022 00BF     		.align	2
 947              	.L81:
 948 0024 00000000 		.word	.LANCHOR1
 949 0028 00000000 		.word	.LANCHOR0
 950 002c 00000000 		.word	led_thread
 951 0030 00000000 		.word	.LANCHOR2
 952              		.cfi_endproc
 953              	.LFE256:
 954              		.size	led_external_init, .-led_external_init
 955              		.section	.text.led_external_set_state,"ax",%progbits
 956              		.align	1
 957              		.p2align 4,,15
 958              		.global	led_external_set_state
 959              		.syntax unified
 960              		.thumb
 961              		.thumb_func
 962              		.fpu fpv4-sp-d16
 963              		.type	led_external_set_state, %function
 964              	led_external_set_state:
 965              	.LFB257:
 966              		.loc 1 48 0
 967              		.cfi_startproc
 968              		@ args = 0, pretend = 0, frame = 0
 969              		@ frame_needed = 0, uses_anonymous_args = 0
ARM GAS  /tmp/ccMk3Aw6.s 			page 18


 970              		@ link register save eliminated.
 971              	.LVL104:
 972              		.loc 1 49 0
 973 0000 014B     		ldr	r3, .L84
 974 0002 1870     		strb	r0, [r3]
 975              		.loc 1 50 0
 976 0004 7047     		bx	lr
 977              	.L85:
 978 0006 00BF     		.align	2
 979              	.L84:
 980 0008 00000000 		.word	.LANCHOR0
 981              		.cfi_endproc
 982              	.LFE257:
 983              		.size	led_external_set_state, .-led_external_set_state
 984              		.section	.text.led_external_set_reversed,"ax",%progbits
 985              		.align	1
 986              		.p2align 4,,15
 987              		.global	led_external_set_reversed
 988              		.syntax unified
 989              		.thumb
 990              		.thumb_func
 991              		.fpu fpv4-sp-d16
 992              		.type	led_external_set_reversed, %function
 993              	led_external_set_reversed:
 994              	.LFB258:
 995              		.loc 1 52 0
 996              		.cfi_startproc
 997              		@ args = 0, pretend = 0, frame = 0
 998              		@ frame_needed = 0, uses_anonymous_args = 0
 999              		@ link register save eliminated.
 1000              	.LVL105:
 1001              		.loc 1 53 0
 1002 0000 014B     		ldr	r3, .L87
 1003 0002 1870     		strb	r0, [r3]
 1004              		.loc 1 54 0
 1005 0004 7047     		bx	lr
 1006              	.L88:
 1007 0006 00BF     		.align	2
 1008              	.L87:
 1009 0008 00000000 		.word	.LANCHOR1
 1010              		.cfi_endproc
 1011              	.LFE258:
 1012              		.size	led_external_set_reversed, .-led_external_set_reversed
 1013              		.section	.bss.led_thread_wa,"aw",%nobits
 1014              		.align	3
 1015              		.set	.LANCHOR2,. + 0
 1016              		.type	led_thread_wa, %object
 1017              		.size	led_thread_wa, 1432
 1018              	led_thread_wa:
 1019 0000 00000000 		.space	1432
 1019      00000000 
 1019      00000000 
 1019      00000000 
 1019      00000000 
 1020              		.section	.bss.reverse_leds,"aw",%nobits
 1021              		.set	.LANCHOR1,. + 0
 1022              		.type	reverse_leds, %object
ARM GAS  /tmp/ccMk3Aw6.s 			page 19


 1023              		.size	reverse_leds, 1
 1024              	reverse_leds:
 1025 0000 00       		.space	1
 1026              		.section	.bss.state,"aw",%nobits
 1027              		.set	.LANCHOR0,. + 0
 1028              		.type	state, %object
 1029              		.size	state, 1
 1030              	state:
 1031 0000 00       		.space	1
 1032              		.section	.rodata.led_thread.str1.4,"aMS",%progbits,1
 1033              		.align	2
 1034              	.LC0:
 1035 0000 4C454473 		.ascii	"LEDs External\000"
 1035      20457874 
 1035      65726E61 
 1035      6C00
 1036              		.text
 1037              	.Letext0:
 1038              		.file 5 "/usr/arm-none-eabi/include/machine/_default_types.h"
 1039              		.file 6 "/usr/arm-none-eabi/include/sys/_stdint.h"
 1040              		.file 7 "/usr/lib/gcc/arm-none-eabi/7.3.1/include/stddef.h"
 1041              		.file 8 "ChibiOS_3.0.2/os/rt/ports/ARMCMx/compilers/GCC/chtypes.h"
 1042              		.file 9 "ChibiOS_3.0.2/os/rt/include/chsystypes.h"
 1043              		.file 10 "ChibiOS_3.0.2/os/rt/include/chschd.h"
 1044              		.file 11 "ChibiOS_3.0.2/os/ext/CMSIS/include/core_cm4.h"
 1045              		.file 12 "ChibiOS_3.0.2/os/ext/CMSIS/ST/system_stm32f4xx.h"
 1046              		.file 13 "ChibiOS_3.0.2/os/ext/CMSIS/ST/stm32f407xx.h"
 1047              		.file 14 "ChibiOS_3.0.2/os/rt/ports/ARMCMx/chcore.h"
 1048              		.file 15 "ChibiOS_3.0.2/os/rt/ports/ARMCMx/chcore_v7m.h"
 1049              		.file 16 "ChibiOS_3.0.2/os/rt/include/chtm.h"
 1050              		.file 17 "ChibiOS_3.0.2/os/rt/include/chsem.h"
 1051              		.file 18 "ChibiOS_3.0.2/os/rt/include/chmtx.h"
 1052              		.file 19 "ChibiOS_3.0.2/os/rt/include/chevents.h"
 1053              		.file 20 "ChibiOS_3.0.2/os/rt/include/chqueues.h"
 1054              		.file 21 "datatypes.h"
 1055              		.file 22 "./conf_general.h"
 1056              		.file 23 "ChibiOS_3.0.2/os/hal/ports/STM32/STM32F4xx/stm32_dma.h"
 1057              		.file 24 "ChibiOS_3.0.2/os/hal/ports/STM32/LLD/GPIOv2/pal_lld.h"
 1058              		.file 25 "ChibiOS_3.0.2/os/hal/include/can.h"
 1059              		.file 26 "ChibiOS_3.0.2/os/hal/ports/STM32/LLD/can_lld.h"
 1060              		.file 27 "ChibiOS_3.0.2/os/hal/include/i2c.h"
 1061              		.file 28 "ChibiOS_3.0.2/os/hal/ports/STM32/LLD/I2Cv1/i2c_lld.h"
 1062              		.file 29 "ChibiOS_3.0.2/os/hal/include/icu.h"
 1063              		.file 30 "ChibiOS_3.0.2/os/hal/ports/STM32/LLD/TIMv1/icu_lld.h"
 1064              		.file 31 "ChibiOS_3.0.2/os/hal/ports/STM32/LLD/TIMv1/stm32_tim.h"
 1065              		.file 32 "ChibiOS_3.0.2/os/hal/include/serial.h"
 1066              		.file 33 "ChibiOS_3.0.2/os/hal/ports/STM32/LLD/USARTv1/serial_lld.h"
 1067              		.file 34 "ChibiOS_3.0.2/os/hal/include/spi.h"
 1068              		.file 35 "ChibiOS_3.0.2/os/hal/ports/STM32/LLD/SPIv1/spi_lld.h"
 1069              		.file 36 "ChibiOS_3.0.2/os/hal/include/usb.h"
 1070              		.file 37 "ChibiOS_3.0.2/os/hal/ports/STM32/LLD/OTGv1/usb_lld.h"
 1071              		.file 38 "ChibiOS_3.0.2/os/hal/ports/STM32/LLD/OTGv1/stm32_otg.h"
 1072              		.file 39 "mc_interface.h"
 1073              		.file 40 "ChibiOS_3.0.2/os/rt/include/chsys.h"
 1074              		.file 41 "ChibiOS_3.0.2/os/rt/include/chthreads.h"
 1075              		.file 42 "ws2811.h"
 1076              		.file 43 "utils.h"
ARM GAS  /tmp/ccMk3Aw6.s 			page 20

