ARM GAS  /tmp/ccSws2SG.s 			page 1


   1              		.cpu cortex-m4
   2              		.eabi_attribute 27, 1
   3              		.eabi_attribute 28, 1
   4              		.eabi_attribute 20, 1
   5              		.eabi_attribute 21, 1
   6              		.eabi_attribute 23, 3
   7              		.eabi_attribute 24, 1
   8              		.eabi_attribute 25, 1
   9              		.eabi_attribute 26, 1
  10              		.eabi_attribute 30, 2
  11              		.eabi_attribute 34, 1
  12              		.eabi_attribute 18, 4
  13              		.file	"mc_interface.c"
  14              		.text
  15              	.Ltext0:
  16              		.cfi_sections	.debug_frame
  17              		.section	.text.sample_send_thread,"ax",%progbits
  18              		.align	1
  19              		.p2align 4,,15
  20              		.syntax unified
  21              		.thumb
  22              		.thumb_func
  23              		.fpu fpv4-sp-d16
  24              		.type	sample_send_thread, %function
  25              	sample_send_thread:
  26              	.LFB316:
  27              		.file 1 "mc_interface.c"
  28              		.loc 1 1772 0
  29              		.cfi_startproc
  30              		@ args = 0, pretend = 0, frame = 48
  31              		@ frame_needed = 0, uses_anonymous_args = 0
  32              	.LVL0:
  33 0000 2DE9F04F 		push	{r4, r5, r6, r7, r8, r9, r10, fp, lr}
  34              		.cfi_def_cfa_offset 36
  35              		.cfi_offset 4, -36
  36              		.cfi_offset 5, -32
  37              		.cfi_offset 6, -28
  38              		.cfi_offset 7, -24
  39              		.cfi_offset 8, -20
  40              		.cfi_offset 9, -16
  41              		.cfi_offset 10, -12
  42              		.cfi_offset 11, -8
  43              		.cfi_offset 14, -4
  44              	.LBB129:
  45              	.LBB130:
  46              		.file 2 "ChibiOS_3.0.2/os/rt/include/chregistry.h"
  47              		.loc 2 135 0
  48 0004 7B4B     		ldr	r3, .L21
  49              	.LBE130:
  50              	.LBE129:
  51              		.loc 1 1777 0
  52 0006 7C4A     		ldr	r2, .L21+4
  53              	.LBB133:
  54              	.LBB131:
  55              		.loc 2 135 0
  56 0008 9B69     		ldr	r3, [r3, #24]
  57 000a 7C49     		ldr	r1, .L21+8
ARM GAS  /tmp/ccSws2SG.s 			page 2


  58 000c 7C4E     		ldr	r6, .L21+12
  59 000e DFF828B2 		ldr	fp, .L21+68
  60 0012 DFF828A2 		ldr	r10, .L21+72
  61              	.LBE131:
  62              	.LBE133:
  63              		.loc 1 1772 0
  64 0016 2DED068B 		vpush.64	{d8, d9, d10}
  65              		.cfi_def_cfa_offset 60
  66              		.cfi_offset 80, -60
  67              		.cfi_offset 81, -56
  68              		.cfi_offset 82, -52
  69              		.cfi_offset 83, -48
  70              		.cfi_offset 84, -44
  71              		.cfi_offset 85, -40
  72              	.LBB134:
  73              	.LBB135:
  74              	.LBB136:
  75              		.loc 1 1817 0
  76 001a DFED7A9A 		vldr.32	s19, .L21+16
  77              		.loc 1 1819 0
  78 001e 9FED7A9A 		vldr.32	s18, .L21+20
  79 0022 DFED7A8A 		vldr.32	s17, .L21+24
  80 0026 9FED7A8A 		vldr.32	s16, .L21+28
  81              		.loc 1 1823 0
  82 002a 9FED7AAA 		vldr.32	s20, .L21+32
  83              	.LBE136:
  84              	.LBE135:
  85              	.LBE134:
  86              	.LBB144:
  87              	.LBB132:
  88              		.loc 2 135 0
  89 002e 9961     		str	r1, [r3, #24]
  90              	.LVL1:
  91              	.LBE132:
  92              	.LBE144:
  93              		.loc 1 1772 0
  94 0030 8DB0     		sub	sp, sp, #52
  95              		.cfi_def_cfa_offset 112
  96              		.loc 1 1777 0
  97 0032 1360     		str	r3, [r2]
  98              	.LVL2:
  99              	.L13:
 100              	.LBB145:
 101              		.loc 1 1780 0
 102 0034 0120     		movs	r0, #1
 103 0036 FFF7FEFF 		bl	chEvtWaitAny
 104              	.LVL3:
 105              		.loc 1 1785 0
 106 003a 774B     		ldr	r3, .L21+36
 107 003c 1B78     		ldrb	r3, [r3]	@ zero_extendqisi2
 108 003e 013B     		subs	r3, r3, #1
 109 0040 052B     		cmp	r3, #5
 110 0042 F7D8     		bhi	.L13
 111 0044 DFE803F0 		tbb	[pc, r3]
 112              	.L4:
 113 0048 03       		.byte	(.L3-.L4)/2
 114 0049 03       		.byte	(.L3-.L4)/2
ARM GAS  /tmp/ccSws2SG.s 			page 3


 115 004a CC       		.byte	(.L5-.L4)/2
 116 004b CC       		.byte	(.L5-.L4)/2
 117 004c CC       		.byte	(.L5-.L4)/2
 118 004d CC       		.byte	(.L5-.L4)/2
 119              		.p2align 1
 120              	.L3:
 121              		.loc 1 1788 0
 122 004e 734B     		ldr	r3, .L21+40
 123 0050 D3F80080 		ldr	r8, [r3]
 124              	.LVL4:
 125              	.LBB141:
 126              		.loc 1 1803 0
 127 0054 B8F1000F 		cmp	r8, #0
 128              	.LBE141:
 129              		.loc 1 1783 0
 130 0058 C8BF     		it	gt
 131 005a 4FF00009 		movgt	r9, #0
 132              	.LBB142:
 133              		.loc 1 1803 0
 134 005e E9DD     		ble	.L13
 135              	.LVL5:
 136              	.L6:
 137              	.LBB137:
 138              		.loc 1 1808 0
 139 0060 B9F5FA6F 		cmp	r9, #2000
 140              	.LBE137:
 141              	.LBE142:
 142              		.loc 1 1795 0
 143 0064 4FF00007 		mov	r7, #0
 144              	.LVL6:
 145              	.LBB143:
 146              	.LBB138:
 147              		.loc 1 1806 0
 148 0068 4C46     		mov	r4, r9
 149              	.LVL7:
 150              		.loc 1 1808 0
 151 006a C0F2B180 		blt	.L7
 152              	.L8:
 153              		.loc 1 1809 0
 154 006e A4F5FA64 		sub	r4, r4, #2000
 155              	.LVL8:
 156              		.loc 1 1808 0
 157 0072 B4F5FA6F 		cmp	r4, #2000
 158 0076 FADA     		bge	.L8
 159              	.L9:
 160              		.loc 1 1817 0 discriminator 2
 161 0078 36F81430 		ldrh	r3, [r6, r4, lsl #1]
 162 007c 1BB2     		sxth	r3, r3
 163 007e 07EE903A 		vmov	s15, r3	@ int
 164 0082 B8EEE70A 		vcvt.f32.s32	s0, s15
 165              		.loc 1 1816 0 discriminator 2
 166 0086 0122     		movs	r2, #1
 167              		.loc 1 1818 0 discriminator 2
 168 0088 04FA02F5 		lsl	r5, r4, r2
 169              		.loc 1 1816 0 discriminator 2
 170 008c 1323     		movs	r3, #19
 171              		.loc 1 1817 0 discriminator 2
ARM GAS  /tmp/ccSws2SG.s 			page 4


 172 008e 20EE290A 		vmul.f32	s0, s0, s19
 173 0092 01A9     		add	r1, sp, #4
 174 0094 02A8     		add	r0, sp, #8
 175              		.loc 1 1816 0 discriminator 2
 176 0096 0192     		str	r2, [sp, #4]
 177 0098 8DF80830 		strb	r3, [sp, #8]
 178              		.loc 1 1817 0 discriminator 2
 179 009c FFF7FEFF 		bl	buffer_append_float32_auto
 180              	.LVL9:
 181              		.loc 1 1818 0 discriminator 2
 182 00a0 7319     		adds	r3, r6, r5
 183 00a2 01A9     		add	r1, sp, #4
 184 00a4 B3F8A03F 		ldrh	r3, [r3, #4000]
 185 00a8 1BB2     		sxth	r3, r3
 186 00aa 07EE903A 		vmov	s15, r3	@ int
 187 00ae B8EEE70A 		vcvt.f32.s32	s0, s15
 188 00b2 02A8     		add	r0, sp, #8
 189 00b4 20EE290A 		vmul.f32	s0, s0, s19
 190 00b8 FFF7FEFF 		bl	buffer_append_float32_auto
 191              	.LVL10:
 192              		.loc 1 1819 0 discriminator 2
 193 00bc 0BEB0503 		add	r3, fp, r5
 194 00c0 01A9     		add	r1, sp, #4
 195 00c2 B3F8483E 		ldrh	r3, [r3, #3656]
 196 00c6 1BB2     		sxth	r3, r3
 197 00c8 00EE103A 		vmov	s0, r3	@ int
 198 00cc B8EEC00A 		vcvt.f32.s32	s0, s0
 199 00d0 02A8     		add	r0, sp, #8
 200 00d2 20EE090A 		vmul.f32	s0, s0, s18
 201              	.LBE138:
 202              		.loc 1 1803 0 discriminator 2
 203 00d6 0137     		adds	r7, r7, #1
 204              	.LVL11:
 205              	.LBB139:
 206              		.loc 1 1819 0 discriminator 2
 207 00d8 20EE280A 		vmul.f32	s0, s0, s17
 208 00dc 09F10109 		add	r9, r9, #1
 209 00e0 20EE080A 		vmul.f32	s0, s0, s16
 210 00e4 FFF7FEFF 		bl	buffer_append_float32_auto
 211              	.LVL12:
 212              		.loc 1 1820 0 discriminator 2
 213 00e8 0AEB0503 		add	r3, r10, r5
 214 00ec 01A9     		add	r1, sp, #4
 215 00ee B3F8F03C 		ldrh	r3, [r3, #3312]
 216 00f2 1BB2     		sxth	r3, r3
 217 00f4 00EE103A 		vmov	s0, r3	@ int
 218 00f8 B8EEC00A 		vcvt.f32.s32	s0, s0
 219 00fc 02A8     		add	r0, sp, #8
 220 00fe 20EE090A 		vmul.f32	s0, s0, s18
 221 0102 20EE280A 		vmul.f32	s0, s0, s17
 222 0106 20EE080A 		vmul.f32	s0, s0, s16
 223 010a FFF7FEFF 		bl	buffer_append_float32_auto
 224              	.LVL13:
 225              		.loc 1 1821 0 discriminator 2
 226 010e 444B     		ldr	r3, .L21+44
 227 0110 2B44     		add	r3, r3, r5
 228 0112 01A9     		add	r1, sp, #4
ARM GAS  /tmp/ccSws2SG.s 			page 5


 229 0114 B3F8983B 		ldrh	r3, [r3, #2968]
 230 0118 1BB2     		sxth	r3, r3
 231 011a 00EE103A 		vmov	s0, r3	@ int
 232 011e B8EEC00A 		vcvt.f32.s32	s0, s0
 233 0122 02A8     		add	r0, sp, #8
 234 0124 20EE090A 		vmul.f32	s0, s0, s18
 235 0128 20EE280A 		vmul.f32	s0, s0, s17
 236 012c 20EE080A 		vmul.f32	s0, s0, s16
 237 0130 FFF7FEFF 		bl	buffer_append_float32_auto
 238              	.LVL14:
 239              		.loc 1 1822 0 discriminator 2
 240 0134 3B4B     		ldr	r3, .L21+48
 241 0136 2B44     		add	r3, r3, r5
 242 0138 01A9     		add	r1, sp, #4
 243 013a B3F8403A 		ldrh	r3, [r3, #2624]
 244 013e 1BB2     		sxth	r3, r3
 245 0140 00EE103A 		vmov	s0, r3	@ int
 246 0144 B8EEC00A 		vcvt.f32.s32	s0, s0
 247 0148 02A8     		add	r0, sp, #8
 248 014a 20EE090A 		vmul.f32	s0, s0, s18
 249 014e 20EE280A 		vmul.f32	s0, s0, s17
 250 0152 20EE080A 		vmul.f32	s0, s0, s16
 251 0156 FFF7FEFF 		bl	buffer_append_float32_auto
 252              	.LVL15:
 253              		.loc 1 1823 0 discriminator 2
 254 015a 334B     		ldr	r3, .L21+52
 255 015c 2B44     		add	r3, r3, r5
 256 015e 01A9     		add	r1, sp, #4
 257 0160 B3F8E838 		ldrh	r3, [r3, #2280]
 258 0164 1BB2     		sxth	r3, r3
 259 0166 07EE903A 		vmov	s15, r3	@ int
 260 016a B8EEE70A 		vcvt.f32.s32	s0, s15
 261 016e 02A8     		add	r0, sp, #8
 262 0170 80EE0A0A 		vdiv.f32	s0, s0, s20
 263 0174 FFF7FEFF 		bl	buffer_append_float32_auto
 264              	.LVL16:
 265              		.loc 1 1824 0 discriminator 2
 266 0178 2C4B     		ldr	r3, .L21+56
 267 017a 1D44     		add	r5, r5, r3
 268 017c 01A9     		add	r1, sp, #4
 269 017e B5F89037 		ldrh	r3, [r5, #1936]
 270 0182 1BB2     		sxth	r3, r3
 271 0184 02A8     		add	r0, sp, #8
 272 0186 07EE903A 		vmov	s15, r3	@ int
 273 018a F8EEE77A 		vcvt.f32.s32	s15, s15
 274 018e B2EE040A 		vmov.f32	s0, #1.0e+1
 275 0192 27EE800A 		vmul.f32	s0, s15, s0
 276 0196 FFF7FEFF 		bl	buffer_append_float32_auto
 277              	.LVL17:
 278              		.loc 1 1825 0 discriminator 2
 279 019a 254A     		ldr	r2, .L21+60
 280 019c 019B     		ldr	r3, [sp, #4]
 281 019e 1444     		add	r4, r4, r2
 282              	.LVL18:
 283 01a0 0CAA     		add	r2, sp, #48
 284 01a2 1A44     		add	r2, r2, r3
 285 01a4 94F83816 		ldrb	r1, [r4, #1592]	@ zero_extendqisi2
ARM GAS  /tmp/ccSws2SG.s 			page 6


 286 01a8 02F8281C 		strb	r1, [r2, #-40]
 287              		.loc 1 1826 0 discriminator 2
 288 01ac 0233     		adds	r3, r3, #2
 289 01ae 94F8084E 		ldrb	r4, [r4, #3592]	@ zero_extendqisi2
 290              	.LVL19:
 291 01b2 02F8274C 		strb	r4, [r2, #-39]
 292              		.loc 1 1828 0 discriminator 2
 293 01b6 1946     		mov	r1, r3
 294 01b8 02A8     		add	r0, sp, #8
 295              		.loc 1 1826 0 discriminator 2
 296 01ba 0193     		str	r3, [sp, #4]
 297              		.loc 1 1828 0 discriminator 2
 298 01bc FFF7FEFF 		bl	commands_send_packet
 299              	.LVL20:
 300              	.LBE139:
 301              		.loc 1 1803 0 discriminator 2
 302 01c0 4745     		cmp	r7, r8
 303 01c2 BFF637AF 		bge	.L13
 304              	.LBB140:
 305              		.loc 1 1808 0
 306 01c6 B9F5FA6F 		cmp	r9, #2000
 307              		.loc 1 1806 0
 308 01ca 4C46     		mov	r4, r9
 309              	.LVL21:
 310              		.loc 1 1808 0
 311 01cc BFF64FAF 		bge	.L8
 312              	.L7:
 313              		.loc 1 1812 0
 314 01d0 B9F1000F 		cmp	r9, #0
 315 01d4 BFF650AF 		bge	.L9
 316              	.L10:
 317              	.LVL22:
 318 01d8 14F5FA64 		adds	r4, r4, #2000
 319              	.LVL23:
 320 01dc FCD4     		bmi	.L10
 321 01de 4BE7     		b	.L9
 322              	.LVL24:
 323              	.L5:
 324              	.LBE140:
 325              	.LBE143:
 326              		.loc 1 1796 0
 327 01e0 144B     		ldr	r3, .L21+64
 328 01e2 0E4A     		ldr	r2, .L21+40
 329 01e4 1B68     		ldr	r3, [r3]
 330 01e6 1268     		ldr	r2, [r2]
 331              		.loc 1 1795 0
 332 01e8 4FF4FA68 		mov	r8, #2000
 333              		.loc 1 1796 0
 334 01ec A3EB0209 		sub	r9, r3, r2
 335              	.LVL25:
 336 01f0 36E7     		b	.L6
 337              	.L22:
 338 01f2 00BF     		.align	2
 339              	.L21:
 340 01f4 00000000 		.word	ch
 341 01f8 00000000 		.word	.LANCHOR0
 342 01fc 00000000 		.word	.LC0
ARM GAS  /tmp/ccSws2SG.s 			page 7


 343 0200 00000000 		.word	.LANCHOR4
 344 0204 500AA53D 		.word	1034226256
 345 0208 00008039 		.word	964689920
 346 020c 33335340 		.word	1079194419
 347 0210 74D19541 		.word	1100337524
 348 0214 A48BC642 		.word	1120308132
 349 0218 00000000 		.word	.LANCHOR1
 350 021c 00000000 		.word	.LANCHOR2
 351 0220 E8320000 		.word	.LANCHOR7
 352 0224 E0430000 		.word	.LANCHOR8
 353 0228 D8540000 		.word	.LANCHOR9
 354 022c D0650000 		.word	.LANCHOR10
 355 0230 C8760000 		.word	.LANCHOR11
 356 0234 00000000 		.word	.LANCHOR3
 357 0238 F8100000 		.word	.LANCHOR5
 358 023c F0210000 		.word	.LANCHOR6
 359              	.LBE145:
 360              		.cfi_endproc
 361              	.LFE316:
 362              		.size	sample_send_thread, .-sample_send_thread
 363              		.section	.text.mc_interface_set_handbrake.part.3,"ax",%progbits
 364              		.align	1
 365              		.p2align 4,,15
 366              		.syntax unified
 367              		.thumb
 368              		.thumb_func
 369              		.fpu fpv4-sp-d16
 370              		.type	mc_interface_set_handbrake.part.3, %function
 371              	mc_interface_set_handbrake.part.3:
 372              	.LFB320:
 373              		.loc 1 549 0
 374              		.cfi_startproc
 375              		@ args = 0, pretend = 0, frame = 0
 376              		@ frame_needed = 0, uses_anonymous_args = 0
 377              		@ link register save eliminated.
 378              	.LVL26:
 379              		.loc 1 554 0
 380 0000 054B     		ldr	r3, .L29
 381 0002 9B78     		ldrb	r3, [r3, #2]	@ zero_extendqisi2
 382 0004 DBB2     		uxtb	r3, r3
 383 0006 012B     		cmp	r3, #1
 384 0008 04D9     		bls	.L25
 385 000a 022B     		cmp	r3, #2
 386 000c 01D1     		bne	.L28
 387              		.loc 1 562 0
 388 000e FFF7FEBF 		b	mcpwm_foc_set_handbrake
 389              	.LVL27:
 390              	.L28:
 391 0012 7047     		bx	lr
 392              	.L25:
 393              		.loc 1 558 0
 394 0014 FFF7FEBF 		b	mcpwm_set_brake_current
 395              	.LVL28:
 396              	.L30:
 397              		.align	2
 398              	.L29:
 399 0018 00000000 		.word	.LANCHOR12
ARM GAS  /tmp/ccSws2SG.s 			page 8


 400              		.cfi_endproc
 401              	.LFE320:
 402              		.size	mc_interface_set_handbrake.part.3, .-mc_interface_set_handbrake.part.3
 403              		.section	.text.mc_interface_init,"ax",%progbits
 404              		.align	1
 405              		.p2align 4,,15
 406              		.global	mc_interface_init
 407              		.syntax unified
 408              		.thumb
 409              		.thumb_func
 410              		.fpu fpv4-sp-d16
 411              		.type	mc_interface_init, %function
 412              	mc_interface_init:
 413              	.LFB256:
 414              		.loc 1 104 0
 415              		.cfi_startproc
 416              		@ args = 0, pretend = 0, frame = 0
 417              		@ frame_needed = 0, uses_anonymous_args = 0
 418              	.LVL29:
 419 0000 F0B5     		push	{r4, r5, r6, r7, lr}
 420              		.cfi_def_cfa_offset 20
 421              		.cfi_offset 4, -20
 422              		.cfi_offset 5, -16
 423              		.cfi_offset 6, -12
 424              		.cfi_offset 7, -8
 425              		.cfi_offset 14, -4
 426              		.loc 1 105 0
 427 0002 4E4D     		ldr	r5, .L44
 428              		.loc 1 108 0
 429 0004 4E4F     		ldr	r7, .L44+4
 430              		.loc 1 104 0
 431 0006 83B0     		sub	sp, sp, #12
 432              		.cfi_def_cfa_offset 32
 433              		.loc 1 104 0
 434 0008 0646     		mov	r6, r0
 435              		.loc 1 105 0
 436 000a 0146     		mov	r1, r0
 437 000c 4FF4E472 		mov	r2, #456
 438 0010 2846     		mov	r0, r5
 439              	.LVL30:
 440 0012 FFF7FEFF 		bl	memcpy
 441              	.LVL31:
 442              		.loc 1 109 0
 443 0016 4B48     		ldr	r0, .L44+8
 444              		.loc 1 110 0
 445 0018 4B49     		ldr	r1, .L44+12
 446              		.loc 1 111 0
 447 001a 4C4A     		ldr	r2, .L44+16
 448              		.loc 1 129 0
 449 001c DFF89CC1 		ldr	ip, .L44+128
 450              		.loc 1 106 0
 451 0020 0024     		movs	r4, #0
 452              		.loc 1 137 0
 453 0022 0094     		str	r4, [sp]
 454              		.loc 1 111 0
 455 0024 0023     		movs	r3, #0
 456              		.loc 1 108 0
ARM GAS  /tmp/ccSws2SG.s 			page 9


 457 0026 3C60     		str	r4, [r7]
 458              		.loc 1 109 0
 459 0028 0470     		strb	r4, [r0]
 460              		.loc 1 112 0
 461 002a 494F     		ldr	r7, .L44+20
 462              		.loc 1 113 0
 463 002c 4948     		ldr	r0, .L44+24
 464              		.loc 1 110 0
 465 002e 0C70     		strb	r4, [r1]
 466              		.loc 1 111 0
 467 0030 1360     		str	r3, [r2]	@ float
 468              		.loc 1 114 0
 469 0032 4949     		ldr	r1, .L44+28
 470              		.loc 1 115 0
 471 0034 494A     		ldr	r2, .L44+32
 472              		.loc 1 112 0
 473 0036 3B60     		str	r3, [r7]	@ float
 474              		.loc 1 113 0
 475 0038 0360     		str	r3, [r0]	@ float
 476              		.loc 1 116 0
 477 003a 494F     		ldr	r7, .L44+36
 478              		.loc 1 117 0
 479 003c 4948     		ldr	r0, .L44+40
 480              		.loc 1 114 0
 481 003e 0B60     		str	r3, [r1]	@ float
 482              		.loc 1 115 0
 483 0040 1360     		str	r3, [r2]	@ float
 484              		.loc 1 118 0
 485 0042 4949     		ldr	r1, .L44+44
 486              		.loc 1 119 0
 487 0044 494A     		ldr	r2, .L44+48
 488              		.loc 1 116 0
 489 0046 3B60     		str	r3, [r7]	@ float
 490              		.loc 1 117 0
 491 0048 0360     		str	r3, [r0]	@ float
 492              		.loc 1 120 0
 493 004a 494F     		ldr	r7, .L44+52
 494              		.loc 1 121 0
 495 004c 4948     		ldr	r0, .L44+56
 496              		.loc 1 118 0
 497 004e 0B60     		str	r3, [r1]	@ float
 498              		.loc 1 119 0
 499 0050 1360     		str	r3, [r2]	@ float
 500              		.loc 1 122 0
 501 0052 4949     		ldr	r1, .L44+60
 502              		.loc 1 123 0
 503 0054 494A     		ldr	r2, .L44+64
 504              		.loc 1 120 0
 505 0056 3B60     		str	r3, [r7]	@ float
 506              		.loc 1 121 0
 507 0058 0360     		str	r3, [r0]	@ float
 508              		.loc 1 124 0
 509 005a 494F     		ldr	r7, .L44+68
 510              		.loc 1 125 0
 511 005c 4948     		ldr	r0, .L44+72
 512              		.loc 1 122 0
 513 005e 0B60     		str	r3, [r1]	@ float
ARM GAS  /tmp/ccSws2SG.s 			page 10


 514              		.loc 1 123 0
 515 0060 1360     		str	r3, [r2]	@ float
 516              		.loc 1 126 0
 517 0062 4949     		ldr	r1, .L44+76
 518              		.loc 1 127 0
 519 0064 494A     		ldr	r2, .L44+80
 520              		.loc 1 124 0
 521 0066 3B60     		str	r3, [r7]	@ float
 522              		.loc 1 129 0
 523 0068 4FF47A7E 		mov	lr, #1000
 524              		.loc 1 125 0
 525 006c 0360     		str	r3, [r0]	@ float
 526              		.loc 1 131 0
 527 006e 484F     		ldr	r7, .L44+84
 528              		.loc 1 130 0
 529 0070 4848     		ldr	r0, .L44+88
 530              		.loc 1 126 0
 531 0072 0B60     		str	r3, [r1]	@ float
 532              		.loc 1 127 0
 533 0074 1360     		str	r3, [r2]	@ float
 534              		.loc 1 129 0
 535 0076 CCF800E0 		str	lr, [ip]
 536              		.loc 1 130 0
 537 007a 4FF0010C 		mov	ip, #1
 538 007e C0F800C0 		str	ip, [r0]
 539              		.loc 1 132 0
 540 0082 454B     		ldr	r3, .L44+92
 541              		.loc 1 131 0
 542 0084 3C60     		str	r4, [r7]
 543              		.loc 1 133 0
 544 0086 454A     		ldr	r2, .L44+96
 545              		.loc 1 106 0
 546 0088 4549     		ldr	r1, .L44+100
 547              		.loc 1 107 0
 548 008a 4648     		ldr	r0, .L44+104
 549              		.loc 1 134 0
 550 008c 464F     		ldr	r7, .L44+108
 551              		.loc 1 132 0
 552 008e 1C60     		str	r4, [r3]
 553              		.loc 1 106 0
 554 0090 0C70     		strb	r4, [r1]
 555              		.loc 1 133 0
 556 0092 1470     		strb	r4, [r2]
 557              		.loc 1 137 0
 558 0094 454B     		ldr	r3, .L44+112
 559              		.loc 1 107 0
 560 0096 0460     		str	r4, [r0]
 561              		.loc 1 137 0
 562 0098 4022     		movs	r2, #64
 563 009a 4FF4B361 		mov	r1, #1432
 564 009e 4448     		ldr	r0, .L44+116
 565              		.loc 1 134 0
 566 00a0 3C70     		strb	r4, [r7]
 567              		.loc 1 137 0
 568 00a2 FFF7FEFF 		bl	chThdCreateStatic
 569              	.LVL32:
 570              		.loc 1 138 0
ARM GAS  /tmp/ccSws2SG.s 			page 11


 571 00a6 434B     		ldr	r3, .L44+120
 572 00a8 0094     		str	r4, [sp]
 573 00aa 3F22     		movs	r2, #63
 574 00ac 4FF4B361 		mov	r1, #1432
 575 00b0 4148     		ldr	r0, .L44+124
 576 00b2 FFF7FEFF 		bl	chThdCreateStatic
 577              	.LVL33:
 578              		.loc 1 141 0
 579 00b6 96F89A01 		ldrb	r0, [r6, #410]	@ zero_extendqisi2
 580 00ba FFF7FEFF 		bl	drv8301_set_oc_mode
 581              	.LVL34:
 582              		.loc 1 142 0
 583 00be D6F89C01 		ldr	r0, [r6, #412]
 584 00c2 FFF7FEFF 		bl	drv8301_set_oc_adj
 585              	.LVL35:
 586              		.loc 1 153 0
 587 00c6 95F89831 		ldrb	r3, [r5, #408]	@ zero_extendqisi2
 588 00ca 013B     		subs	r3, r3, #1
 589 00cc 032B     		cmp	r3, #3
 590 00ce 07D8     		bhi	.L32
 591 00d0 DFE803F0 		tbb	[pc, r3]
 592              	.L34:
 593 00d4 02       		.byte	(.L33-.L34)/2
 594 00d5 2F       		.byte	(.L35-.L34)/2
 595 00d6 2C       		.byte	(.L36-.L34)/2
 596 00d7 1F       		.byte	(.L37-.L34)/2
 597              		.p2align 1
 598              	.L33:
 599              		.loc 1 155 0
 600 00d8 D5F89401 		ldr	r0, [r5, #404]
 601 00dc FFF7FEFF 		bl	encoder_init_abi
 602              	.LVL36:
 603              	.L32:
 604              		.loc 1 178 0
 605 00e0 AB78     		ldrb	r3, [r5, #2]	@ zero_extendqisi2
 606 00e2 032B     		cmp	r3, #3
 607 00e4 28D8     		bhi	.L31
 608 00e6 DFE803F0 		tbb	[pc, r3]
 609              	.L40:
 610 00ea 0E       		.byte	(.L39-.L40)/2
 611 00eb 0E       		.byte	(.L39-.L40)/2
 612 00ec 08       		.byte	(.L41-.L40)/2
 613 00ed 02       		.byte	(.L42-.L40)/2
 614              		.p2align 1
 615              	.L42:
 616              		.loc 1 189 0
 617 00ee 1348     		ldr	r0, .L44
 618              		.loc 1 195 0
 619 00f0 03B0     		add	sp, sp, #12
 620              		.cfi_remember_state
 621              		.cfi_def_cfa_offset 20
 622              		@ sp needed
 623 00f2 BDE8F040 		pop	{r4, r5, r6, r7, lr}
 624              		.cfi_restore 14
 625              		.cfi_restore 7
 626              		.cfi_restore 6
 627              		.cfi_restore 5
ARM GAS  /tmp/ccSws2SG.s 			page 12


 628              		.cfi_restore 4
 629              		.cfi_def_cfa_offset 0
 630              	.LVL37:
 631              		.loc 1 189 0
 632 00f6 FFF7FEBF 		b	gpdrive_init
 633              	.LVL38:
 634              	.L41:
 635              		.cfi_restore_state
 636              		.loc 1 185 0
 637 00fa 1048     		ldr	r0, .L44
 638              		.loc 1 195 0
 639 00fc 03B0     		add	sp, sp, #12
 640              		.cfi_remember_state
 641              		.cfi_def_cfa_offset 20
 642              		@ sp needed
 643 00fe BDE8F040 		pop	{r4, r5, r6, r7, lr}
 644              		.cfi_restore 14
 645              		.cfi_restore 7
 646              		.cfi_restore 6
 647              		.cfi_restore 5
 648              		.cfi_restore 4
 649              		.cfi_def_cfa_offset 0
 650              	.LVL39:
 651              		.loc 1 185 0
 652 0102 FFF7FEBF 		b	mcpwm_foc_init
 653              	.LVL40:
 654              	.L39:
 655              		.cfi_restore_state
 656              		.loc 1 181 0
 657 0106 0D48     		ldr	r0, .L44
 658              		.loc 1 195 0
 659 0108 03B0     		add	sp, sp, #12
 660              		.cfi_remember_state
 661              		.cfi_def_cfa_offset 20
 662              		@ sp needed
 663 010a BDE8F040 		pop	{r4, r5, r6, r7, lr}
 664              		.cfi_restore 14
 665              		.cfi_restore 7
 666              		.cfi_restore 6
 667              		.cfi_restore 5
 668              		.cfi_restore 4
 669              		.cfi_def_cfa_offset 0
 670              	.LVL41:
 671              		.loc 1 181 0
 672 010e FFF7FEBF 		b	mcpwm_init
 673              	.LVL42:
 674              	.L37:
 675              		.cfi_restore_state
 676              		.loc 1 167 0
 677 0112 95ED330A 		vldr.32	s0, [r5, #204]
 678 0116 D5ED320A 		vldr.32	s1, [r5, #200]
 679 011a 95ED351A 		vldr.32	s2, [r5, #212]
 680 011e D5ED341A 		vldr.32	s3, [r5, #208]
 681 0122 95ED362A 		vldr.32	s4, [r5, #216]
 682 0126 FFF7FEFF 		bl	encoder_init_sincos
 683              	.LVL43:
 684              		.loc 1 170 0
ARM GAS  /tmp/ccSws2SG.s 			page 13


 685 012a D9E7     		b	.L32
 686              	.L36:
 687              		.loc 1 163 0
 688 012c FFF7FEFF 		bl	encoder_init_ad2s1205_spi
 689              	.LVL44:
 690              		.loc 1 164 0
 691 0130 D6E7     		b	.L32
 692              	.L35:
 693              		.loc 1 159 0
 694 0132 FFF7FEFF 		bl	encoder_init_as5047p_spi
 695              	.LVL45:
 696              		.loc 1 160 0
 697 0136 D3E7     		b	.L32
 698              	.L31:
 699              		.loc 1 195 0
 700 0138 03B0     		add	sp, sp, #12
 701              		@ sp needed
 702 013a F0BD     		pop	{r4, r5, r6, r7, pc}
 703              	.LVL46:
 704              	.L45:
 705              		.align	2
 706              	.L44:
 707 013c 00000000 		.word	.LANCHOR12
 708 0140 00000000 		.word	.LANCHOR15
 709 0144 00000000 		.word	.LANCHOR16
 710 0148 00000000 		.word	.LANCHOR17
 711 014c 00000000 		.word	.LANCHOR18
 712 0150 00000000 		.word	.LANCHOR19
 713 0154 00000000 		.word	.LANCHOR20
 714 0158 00000000 		.word	.LANCHOR21
 715 015c 00000000 		.word	.LANCHOR22
 716 0160 00000000 		.word	.LANCHOR23
 717 0164 00000000 		.word	.LANCHOR24
 718 0168 00000000 		.word	.LANCHOR25
 719 016c 00000000 		.word	.LANCHOR26
 720 0170 00000000 		.word	.LANCHOR27
 721 0174 00000000 		.word	.LANCHOR28
 722 0178 00000000 		.word	.LANCHOR29
 723 017c 00000000 		.word	.LANCHOR30
 724 0180 00000000 		.word	.LANCHOR31
 725 0184 00000000 		.word	.LANCHOR32
 726 0188 00000000 		.word	.LANCHOR33
 727 018c 00000000 		.word	.LANCHOR34
 728 0190 00000000 		.word	.LANCHOR36
 729 0194 00000000 		.word	.LANCHOR35
 730 0198 00000000 		.word	.LANCHOR3
 731 019c 00000000 		.word	.LANCHOR37
 732 01a0 00000000 		.word	.LANCHOR13
 733 01a4 00000000 		.word	.LANCHOR14
 734 01a8 00000000 		.word	.LANCHOR1
 735 01ac 00000000 		.word	timer_thread
 736 01b0 00000000 		.word	.LANCHOR38
 737 01b4 00000000 		.word	sample_send_thread
 738 01b8 00000000 		.word	.LANCHOR39
 739 01bc 00000000 		.word	.LANCHOR2
 740              		.cfi_endproc
 741              	.LFE256:
ARM GAS  /tmp/ccSws2SG.s 			page 14


 742              		.size	mc_interface_init, .-mc_interface_init
 743              		.section	.text.mc_interface_get_configuration,"ax",%progbits
 744              		.align	1
 745              		.p2align 4,,15
 746              		.global	mc_interface_get_configuration
 747              		.syntax unified
 748              		.thumb
 749              		.thumb_func
 750              		.fpu fpv4-sp-d16
 751              		.type	mc_interface_get_configuration, %function
 752              	mc_interface_get_configuration:
 753              	.LFB257:
 754              		.loc 1 197 0
 755              		.cfi_startproc
 756              		@ args = 0, pretend = 0, frame = 0
 757              		@ frame_needed = 0, uses_anonymous_args = 0
 758              		@ link register save eliminated.
 759              		.loc 1 199 0
 760 0000 0048     		ldr	r0, .L47
 761 0002 7047     		bx	lr
 762              	.L48:
 763              		.align	2
 764              	.L47:
 765 0004 00000000 		.word	.LANCHOR12
 766              		.cfi_endproc
 767              	.LFE257:
 768              		.size	mc_interface_get_configuration, .-mc_interface_get_configuration
 769              		.section	.text.mc_interface_dccal_done,"ax",%progbits
 770              		.align	1
 771              		.p2align 4,,15
 772              		.global	mc_interface_dccal_done
 773              		.syntax unified
 774              		.thumb
 775              		.thumb_func
 776              		.fpu fpv4-sp-d16
 777              		.type	mc_interface_dccal_done, %function
 778              	mc_interface_dccal_done:
 779              	.LFB259:
 780              		.loc 1 294 0
 781              		.cfi_startproc
 782              		@ args = 0, pretend = 0, frame = 0
 783              		@ frame_needed = 0, uses_anonymous_args = 0
 784              		@ link register save eliminated.
 785              	.LVL47:
 786              		.loc 1 296 0
 787 0000 074B     		ldr	r3, .L55
 788 0002 9B78     		ldrb	r3, [r3, #2]	@ zero_extendqisi2
 789 0004 032B     		cmp	r3, #3
 790 0006 09D8     		bhi	.L50
 791 0008 DFE803F0 		tbb	[pc, r3]
 792              	.L52:
 793 000c 06       		.byte	(.L51-.L52)/2
 794 000d 06       		.byte	(.L51-.L52)/2
 795 000e 04       		.byte	(.L53-.L52)/2
 796 000f 02       		.byte	(.L54-.L52)/2
 797              		.p2align 1
 798              	.L54:
ARM GAS  /tmp/ccSws2SG.s 			page 15


 799              		.loc 1 307 0
 800 0010 FFF7FEBF 		b	gpdrive_is_dccal_done
 801              	.LVL48:
 802              	.L53:
 803              		.loc 1 303 0
 804 0014 FFF7FEBF 		b	mcpwm_foc_is_dccal_done
 805              	.LVL49:
 806              	.L51:
 807              		.loc 1 299 0
 808 0018 FFF7FEBF 		b	mcpwm_is_dccal_done
 809              	.LVL50:
 810              	.L50:
 811              		.loc 1 315 0
 812 001c 0020     		movs	r0, #0
 813 001e 7047     		bx	lr
 814              	.L56:
 815              		.align	2
 816              	.L55:
 817 0020 00000000 		.word	.LANCHOR12
 818              		.cfi_endproc
 819              	.LFE259:
 820              		.size	mc_interface_dccal_done, .-mc_interface_dccal_done
 821              		.section	.text.mc_interface_set_pwm_callback,"ax",%progbits
 822              		.align	1
 823              		.p2align 4,,15
 824              		.global	mc_interface_set_pwm_callback
 825              		.syntax unified
 826              		.thumb
 827              		.thumb_func
 828              		.fpu fpv4-sp-d16
 829              		.type	mc_interface_set_pwm_callback, %function
 830              	mc_interface_set_pwm_callback:
 831              	.LFB260:
 832              		.loc 1 325 0
 833              		.cfi_startproc
 834              		@ args = 0, pretend = 0, frame = 0
 835              		@ frame_needed = 0, uses_anonymous_args = 0
 836              		@ link register save eliminated.
 837              	.LVL51:
 838              		.loc 1 326 0
 839 0000 014B     		ldr	r3, .L58
 840 0002 1860     		str	r0, [r3]
 841              		.loc 1 327 0
 842 0004 7047     		bx	lr
 843              	.L59:
 844 0006 00BF     		.align	2
 845              	.L58:
 846 0008 00000000 		.word	.LANCHOR40
 847              		.cfi_endproc
 848              	.LFE260:
 849              		.size	mc_interface_set_pwm_callback, .-mc_interface_set_pwm_callback
 850              		.section	.text.mc_interface_lock,"ax",%progbits
 851              		.align	1
 852              		.p2align 4,,15
 853              		.global	mc_interface_lock
 854              		.syntax unified
 855              		.thumb
ARM GAS  /tmp/ccSws2SG.s 			page 16


 856              		.thumb_func
 857              		.fpu fpv4-sp-d16
 858              		.type	mc_interface_lock, %function
 859              	mc_interface_lock:
 860              	.LFB261:
 861              		.loc 1 332 0
 862              		.cfi_startproc
 863              		@ args = 0, pretend = 0, frame = 0
 864              		@ frame_needed = 0, uses_anonymous_args = 0
 865              		@ link register save eliminated.
 866              		.loc 1 333 0
 867 0000 014B     		ldr	r3, .L61
 868 0002 0122     		movs	r2, #1
 869 0004 1A70     		strb	r2, [r3]
 870              		.loc 1 334 0
 871 0006 7047     		bx	lr
 872              	.L62:
 873              		.align	2
 874              	.L61:
 875 0008 00000000 		.word	.LANCHOR16
 876              		.cfi_endproc
 877              	.LFE261:
 878              		.size	mc_interface_lock, .-mc_interface_lock
 879              		.section	.text.mc_interface_unlock,"ax",%progbits
 880              		.align	1
 881              		.p2align 4,,15
 882              		.global	mc_interface_unlock
 883              		.syntax unified
 884              		.thumb
 885              		.thumb_func
 886              		.fpu fpv4-sp-d16
 887              		.type	mc_interface_unlock, %function
 888              	mc_interface_unlock:
 889              	.LFB262:
 890              		.loc 1 339 0
 891              		.cfi_startproc
 892              		@ args = 0, pretend = 0, frame = 0
 893              		@ frame_needed = 0, uses_anonymous_args = 0
 894              		@ link register save eliminated.
 895              		.loc 1 340 0
 896 0000 014B     		ldr	r3, .L64
 897 0002 0022     		movs	r2, #0
 898 0004 1A70     		strb	r2, [r3]
 899              		.loc 1 341 0
 900 0006 7047     		bx	lr
 901              	.L65:
 902              		.align	2
 903              	.L64:
 904 0008 00000000 		.word	.LANCHOR16
 905              		.cfi_endproc
 906              	.LFE262:
 907              		.size	mc_interface_unlock, .-mc_interface_unlock
 908              		.section	.text.mc_interface_lock_override_once,"ax",%progbits
 909              		.align	1
 910              		.p2align 4,,15
 911              		.global	mc_interface_lock_override_once
 912              		.syntax unified
ARM GAS  /tmp/ccSws2SG.s 			page 17


 913              		.thumb
 914              		.thumb_func
 915              		.fpu fpv4-sp-d16
 916              		.type	mc_interface_lock_override_once, %function
 917              	mc_interface_lock_override_once:
 918              	.LFB263:
 919              		.loc 1 346 0
 920              		.cfi_startproc
 921              		@ args = 0, pretend = 0, frame = 0
 922              		@ frame_needed = 0, uses_anonymous_args = 0
 923              		@ link register save eliminated.
 924              		.loc 1 347 0
 925 0000 014B     		ldr	r3, .L67
 926 0002 0122     		movs	r2, #1
 927 0004 1A70     		strb	r2, [r3]
 928              		.loc 1 348 0
 929 0006 7047     		bx	lr
 930              	.L68:
 931              		.align	2
 932              	.L67:
 933 0008 00000000 		.word	.LANCHOR17
 934              		.cfi_endproc
 935              	.LFE263:
 936              		.size	mc_interface_lock_override_once, .-mc_interface_lock_override_once
 937              		.section	.text.mc_interface_get_fault,"ax",%progbits
 938              		.align	1
 939              		.p2align 4,,15
 940              		.global	mc_interface_get_fault
 941              		.syntax unified
 942              		.thumb
 943              		.thumb_func
 944              		.fpu fpv4-sp-d16
 945              		.type	mc_interface_get_fault, %function
 946              	mc_interface_get_fault:
 947              	.LFB264:
 948              		.loc 1 350 0
 949              		.cfi_startproc
 950              		@ args = 0, pretend = 0, frame = 0
 951              		@ frame_needed = 0, uses_anonymous_args = 0
 952              		@ link register save eliminated.
 953              		.loc 1 351 0
 954 0000 014B     		ldr	r3, .L70
 955              		.loc 1 352 0
 956 0002 1878     		ldrb	r0, [r3]	@ zero_extendqisi2
 957 0004 7047     		bx	lr
 958              	.L71:
 959 0006 00BF     		.align	2
 960              	.L70:
 961 0008 00000000 		.word	.LANCHOR13
 962              		.cfi_endproc
 963              	.LFE264:
 964              		.size	mc_interface_get_fault, .-mc_interface_get_fault
 965              		.section	.text.mc_interface_fault_to_string,"ax",%progbits
 966              		.align	1
 967              		.p2align 4,,15
 968              		.global	mc_interface_fault_to_string
 969              		.syntax unified
ARM GAS  /tmp/ccSws2SG.s 			page 18


 970              		.thumb
 971              		.thumb_func
 972              		.fpu fpv4-sp-d16
 973              		.type	mc_interface_fault_to_string, %function
 974              	mc_interface_fault_to_string:
 975              	.LFB265:
 976              		.loc 1 354 0
 977              		.cfi_startproc
 978              		@ args = 0, pretend = 0, frame = 0
 979              		@ frame_needed = 0, uses_anonymous_args = 0
 980              		@ link register save eliminated.
 981              	.LVL52:
 982 0000 0D28     		cmp	r0, #13
 983 0002 9ABF     		itte	ls
 984 0004 024B     		ldrls	r3, .L75
 985 0006 53F82000 		ldrls	r0, [r3, r0, lsl #2]
 986              	.LVL53:
 987              		.loc 1 354 0
 988 000a 0248     		ldrhi	r0, .L75+4
 989              		.loc 1 372 0
 990 000c 7047     		bx	lr
 991              	.L76:
 992 000e 00BF     		.align	2
 993              	.L75:
 994 0010 00000000 		.word	.LANCHOR41
 995 0014 00000000 		.word	.LC1
 996              		.cfi_endproc
 997              	.LFE265:
 998              		.size	mc_interface_fault_to_string, .-mc_interface_fault_to_string
 999              		.section	.text.mc_interface_get_state,"ax",%progbits
 1000              		.align	1
 1001              		.p2align 4,,15
 1002              		.global	mc_interface_get_state
 1003              		.syntax unified
 1004              		.thumb
 1005              		.thumb_func
 1006              		.fpu fpv4-sp-d16
 1007              		.type	mc_interface_get_state, %function
 1008              	mc_interface_get_state:
 1009              	.LFB266:
 1010              		.loc 1 374 0
 1011              		.cfi_startproc
 1012              		@ args = 0, pretend = 0, frame = 0
 1013              		@ frame_needed = 0, uses_anonymous_args = 0
 1014              		@ link register save eliminated.
 1015              	.LVL54:
 1016              		.loc 1 376 0
 1017 0000 064B     		ldr	r3, .L83
 1018 0002 9B78     		ldrb	r3, [r3, #2]	@ zero_extendqisi2
 1019 0004 DBB2     		uxtb	r3, r3
 1020 0006 012B     		cmp	r3, #1
 1021 0008 05D9     		bls	.L79
 1022 000a 022B     		cmp	r3, #2
 1023 000c 01D1     		bne	.L82
 1024              		.loc 1 383 0
 1025 000e FFF7FEBF 		b	mcpwm_foc_get_state
 1026              	.LVL55:
ARM GAS  /tmp/ccSws2SG.s 			page 19


 1027              	.L82:
 1028              		.loc 1 391 0
 1029 0012 0020     		movs	r0, #0
 1030 0014 7047     		bx	lr
 1031              	.L79:
 1032              		.loc 1 379 0
 1033 0016 FFF7FEBF 		b	mcpwm_get_state
 1034              	.LVL56:
 1035              	.L84:
 1036 001a 00BF     		.align	2
 1037              	.L83:
 1038 001c 00000000 		.word	.LANCHOR12
 1039              		.cfi_endproc
 1040              	.LFE266:
 1041              		.size	mc_interface_get_state, .-mc_interface_get_state
 1042              		.section	.text.mc_interface_get_duty_cycle_set,"ax",%progbits
 1043              		.align	1
 1044              		.p2align 4,,15
 1045              		.global	mc_interface_get_duty_cycle_set
 1046              		.syntax unified
 1047              		.thumb
 1048              		.thumb_func
 1049              		.fpu fpv4-sp-d16
 1050              		.type	mc_interface_get_duty_cycle_set, %function
 1051              	mc_interface_get_duty_cycle_set:
 1052              	.LFB279:
 1053              		.loc 1 594 0
 1054              		.cfi_startproc
 1055              		@ args = 0, pretend = 0, frame = 0
 1056              		@ frame_needed = 0, uses_anonymous_args = 0
 1057              	.LVL57:
 1058 0000 10B5     		push	{r4, lr}
 1059              		.cfi_def_cfa_offset 8
 1060              		.cfi_offset 4, -8
 1061              		.cfi_offset 14, -4
 1062              		.loc 1 597 0
 1063 0002 0B4C     		ldr	r4, .L97
 1064 0004 A378     		ldrb	r3, [r4, #2]	@ zero_extendqisi2
 1065 0006 DBB2     		uxtb	r3, r3
 1066 0008 012B     		cmp	r3, #1
 1067 000a 0DD9     		bls	.L87
 1068 000c 022B     		cmp	r3, #2
 1069 000e 08D0     		beq	.L88
 1070              		.loc 1 595 0
 1071 0010 9FED080A 		vldr.32	s0, .L97+4
 1072              	.LVL58:
 1073              	.L86:
 1074              		.loc 1 611 0
 1075 0014 94F89931 		ldrb	r3, [r4, #409]	@ zero_extendqisi2
 1076 0018 03B9     		cbnz	r3, .L96
 1077              		.loc 1 612 0
 1078 001a 10BD     		pop	{r4, pc}
 1079              	.L96:
 1080 001c B1EE400A 		vneg.f32	s0, s0
 1081              	.LVL59:
 1082 0020 10BD     		pop	{r4, pc}
 1083              	.LVL60:
ARM GAS  /tmp/ccSws2SG.s 			page 20


 1084              	.L88:
 1085              		.loc 1 604 0
 1086 0022 FFF7FEFF 		bl	mcpwm_foc_get_duty_cycle_set
 1087              	.LVL61:
 1088              		.loc 1 605 0
 1089 0026 F5E7     		b	.L86
 1090              	.LVL62:
 1091              	.L87:
 1092              		.loc 1 600 0
 1093 0028 FFF7FEFF 		bl	mcpwm_get_duty_cycle_set
 1094              	.LVL63:
 1095              		.loc 1 601 0
 1096 002c F2E7     		b	.L86
 1097              	.L98:
 1098 002e 00BF     		.align	2
 1099              	.L97:
 1100 0030 00000000 		.word	.LANCHOR12
 1101 0034 00000000 		.word	0
 1102              		.cfi_endproc
 1103              	.LFE279:
 1104              		.size	mc_interface_get_duty_cycle_set, .-mc_interface_get_duty_cycle_set
 1105              		.section	.text.mc_interface_get_duty_cycle_now,"ax",%progbits
 1106              		.align	1
 1107              		.p2align 4,,15
 1108              		.global	mc_interface_get_duty_cycle_now
 1109              		.syntax unified
 1110              		.thumb
 1111              		.thumb_func
 1112              		.fpu fpv4-sp-d16
 1113              		.type	mc_interface_get_duty_cycle_now, %function
 1114              	mc_interface_get_duty_cycle_now:
 1115              	.LFB280:
 1116              		.loc 1 614 0
 1117              		.cfi_startproc
 1118              		@ args = 0, pretend = 0, frame = 0
 1119              		@ frame_needed = 0, uses_anonymous_args = 0
 1120              	.LVL64:
 1121 0000 10B5     		push	{r4, lr}
 1122              		.cfi_def_cfa_offset 8
 1123              		.cfi_offset 4, -8
 1124              		.cfi_offset 14, -4
 1125              		.loc 1 617 0
 1126 0002 0B4C     		ldr	r4, .L111
 1127 0004 A378     		ldrb	r3, [r4, #2]	@ zero_extendqisi2
 1128 0006 DBB2     		uxtb	r3, r3
 1129 0008 012B     		cmp	r3, #1
 1130 000a 0DD9     		bls	.L101
 1131 000c 022B     		cmp	r3, #2
 1132 000e 08D0     		beq	.L102
 1133              		.loc 1 615 0
 1134 0010 9FED080A 		vldr.32	s0, .L111+4
 1135              	.LVL65:
 1136              	.L100:
 1137              		.loc 1 631 0
 1138 0014 94F89931 		ldrb	r3, [r4, #409]	@ zero_extendqisi2
 1139 0018 03B9     		cbnz	r3, .L110
 1140              		.loc 1 632 0
ARM GAS  /tmp/ccSws2SG.s 			page 21


 1141 001a 10BD     		pop	{r4, pc}
 1142              	.L110:
 1143 001c B1EE400A 		vneg.f32	s0, s0
 1144              	.LVL66:
 1145 0020 10BD     		pop	{r4, pc}
 1146              	.LVL67:
 1147              	.L102:
 1148              		.loc 1 624 0
 1149 0022 FFF7FEFF 		bl	mcpwm_foc_get_duty_cycle_now
 1150              	.LVL68:
 1151              		.loc 1 625 0
 1152 0026 F5E7     		b	.L100
 1153              	.LVL69:
 1154              	.L101:
 1155              		.loc 1 620 0
 1156 0028 FFF7FEFF 		bl	mcpwm_get_duty_cycle_now
 1157              	.LVL70:
 1158              		.loc 1 621 0
 1159 002c F2E7     		b	.L100
 1160              	.L112:
 1161 002e 00BF     		.align	2
 1162              	.L111:
 1163 0030 00000000 		.word	.LANCHOR12
 1164 0034 00000000 		.word	0
 1165              		.cfi_endproc
 1166              	.LFE280:
 1167              		.size	mc_interface_get_duty_cycle_now, .-mc_interface_get_duty_cycle_now
 1168              		.section	.text.mc_interface_get_sampling_frequency_now,"ax",%progbits
 1169              		.align	1
 1170              		.p2align 4,,15
 1171              		.global	mc_interface_get_sampling_frequency_now
 1172              		.syntax unified
 1173              		.thumb
 1174              		.thumb_func
 1175              		.fpu fpv4-sp-d16
 1176              		.type	mc_interface_get_sampling_frequency_now, %function
 1177              	mc_interface_get_sampling_frequency_now:
 1178              	.LFB281:
 1179              		.loc 1 634 0
 1180              		.cfi_startproc
 1181              		@ args = 0, pretend = 0, frame = 0
 1182              		@ frame_needed = 0, uses_anonymous_args = 0
 1183              		@ link register save eliminated.
 1184              	.LVL71:
 1185              		.loc 1 637 0
 1186 0000 084B     		ldr	r3, .L119
 1187 0002 9B78     		ldrb	r3, [r3, #2]	@ zero_extendqisi2
 1188 0004 032B     		cmp	r3, #3
 1189 0006 09D8     		bhi	.L114
 1190 0008 DFE803F0 		tbb	[pc, r3]
 1191              	.L116:
 1192 000c 06       		.byte	(.L115-.L116)/2
 1193 000d 06       		.byte	(.L115-.L116)/2
 1194 000e 04       		.byte	(.L117-.L116)/2
 1195 000f 02       		.byte	(.L118-.L116)/2
 1196              		.p2align 1
 1197              	.L118:
ARM GAS  /tmp/ccSws2SG.s 			page 22


 1198              		.loc 1 648 0
 1199 0010 FFF7FEBF 		b	gpdrive_get_switching_frequency_now
 1200              	.LVL72:
 1201              	.L117:
 1202              		.loc 1 644 0
 1203 0014 FFF7FEBF 		b	mcpwm_foc_get_sampling_frequency_now
 1204              	.LVL73:
 1205              	.L115:
 1206              		.loc 1 640 0
 1207 0018 FFF7FEBF 		b	mcpwm_get_switching_frequency_now
 1208              	.LVL74:
 1209              	.L114:
 1210              		.loc 1 656 0
 1211 001c 9FED020A 		vldr.32	s0, .L119+4
 1212 0020 7047     		bx	lr
 1213              	.L120:
 1214 0022 00BF     		.align	2
 1215              	.L119:
 1216 0024 00000000 		.word	.LANCHOR12
 1217 0028 00000000 		.word	0
 1218              		.cfi_endproc
 1219              	.LFE281:
 1220              		.size	mc_interface_get_sampling_frequency_now, .-mc_interface_get_sampling_frequency_now
 1221              		.section	.text.mc_interface_get_rpm,"ax",%progbits
 1222              		.align	1
 1223              		.p2align 4,,15
 1224              		.global	mc_interface_get_rpm
 1225              		.syntax unified
 1226              		.thumb
 1227              		.thumb_func
 1228              		.fpu fpv4-sp-d16
 1229              		.type	mc_interface_get_rpm, %function
 1230              	mc_interface_get_rpm:
 1231              	.LFB282:
 1232              		.loc 1 658 0
 1233              		.cfi_startproc
 1234              		@ args = 0, pretend = 0, frame = 0
 1235              		@ frame_needed = 0, uses_anonymous_args = 0
 1236              	.LVL75:
 1237 0000 10B5     		push	{r4, lr}
 1238              		.cfi_def_cfa_offset 8
 1239              		.cfi_offset 4, -8
 1240              		.cfi_offset 14, -4
 1241              		.loc 1 661 0
 1242 0002 0B4C     		ldr	r4, .L133
 1243 0004 A378     		ldrb	r3, [r4, #2]	@ zero_extendqisi2
 1244 0006 DBB2     		uxtb	r3, r3
 1245 0008 012B     		cmp	r3, #1
 1246 000a 0DD9     		bls	.L123
 1247 000c 022B     		cmp	r3, #2
 1248 000e 08D0     		beq	.L124
 1249              		.loc 1 659 0
 1250 0010 9FED080A 		vldr.32	s0, .L133+4
 1251              	.LVL76:
 1252              	.L122:
 1253              		.loc 1 675 0
 1254 0014 94F89931 		ldrb	r3, [r4, #409]	@ zero_extendqisi2
ARM GAS  /tmp/ccSws2SG.s 			page 23


 1255 0018 03B9     		cbnz	r3, .L132
 1256              		.loc 1 676 0
 1257 001a 10BD     		pop	{r4, pc}
 1258              	.L132:
 1259 001c B1EE400A 		vneg.f32	s0, s0
 1260              	.LVL77:
 1261 0020 10BD     		pop	{r4, pc}
 1262              	.LVL78:
 1263              	.L124:
 1264              		.loc 1 668 0
 1265 0022 FFF7FEFF 		bl	mcpwm_foc_get_rpm
 1266              	.LVL79:
 1267              		.loc 1 669 0
 1268 0026 F5E7     		b	.L122
 1269              	.LVL80:
 1270              	.L123:
 1271              		.loc 1 664 0
 1272 0028 FFF7FEFF 		bl	mcpwm_get_rpm
 1273              	.LVL81:
 1274              		.loc 1 665 0
 1275 002c F2E7     		b	.L122
 1276              	.L134:
 1277 002e 00BF     		.align	2
 1278              	.L133:
 1279 0030 00000000 		.word	.LANCHOR12
 1280 0034 00000000 		.word	0
 1281              		.cfi_endproc
 1282              	.LFE282:
 1283              		.size	mc_interface_get_rpm, .-mc_interface_get_rpm
 1284              		.section	.text.mc_interface_get_amp_hours,"ax",%progbits
 1285              		.align	1
 1286              		.p2align 4,,15
 1287              		.global	mc_interface_get_amp_hours
 1288              		.syntax unified
 1289              		.thumb
 1290              		.thumb_func
 1291              		.fpu fpv4-sp-d16
 1292              		.type	mc_interface_get_amp_hours, %function
 1293              	mc_interface_get_amp_hours:
 1294              	.LFB283:
 1295              		.loc 1 687 0
 1296              		.cfi_startproc
 1297              		@ args = 0, pretend = 0, frame = 0
 1298              		@ frame_needed = 0, uses_anonymous_args = 0
 1299              		@ link register save eliminated.
 1300              	.LVL82:
 1301              		.loc 1 688 0
 1302 0000 054B     		ldr	r3, .L140
 1303 0002 DFED067A 		vldr.32	s15, .L140+4
 1304 0006 93ED007A 		vldr.32	s14, [r3]
 1305 000a 87EE270A 		vdiv.f32	s0, s14, s15
 1306              	.LVL83:
 1307              		.loc 1 690 0
 1308 000e 08B1     		cbz	r0, .L135
 1309              		.loc 1 691 0
 1310 0010 0022     		movs	r2, #0
 1311 0012 1A60     		str	r2, [r3]	@ float
ARM GAS  /tmp/ccSws2SG.s 			page 24


 1312              	.L135:
 1313              		.loc 1 695 0
 1314 0014 7047     		bx	lr
 1315              	.L141:
 1316 0016 00BF     		.align	2
 1317              	.L140:
 1318 0018 00000000 		.word	.LANCHOR26
 1319 001c 00006145 		.word	1163984896
 1320              		.cfi_endproc
 1321              	.LFE283:
 1322              		.size	mc_interface_get_amp_hours, .-mc_interface_get_amp_hours
 1323              		.section	.text.mc_interface_get_amp_hours_charged,"ax",%progbits
 1324              		.align	1
 1325              		.p2align 4,,15
 1326              		.global	mc_interface_get_amp_hours_charged
 1327              		.syntax unified
 1328              		.thumb
 1329              		.thumb_func
 1330              		.fpu fpv4-sp-d16
 1331              		.type	mc_interface_get_amp_hours_charged, %function
 1332              	mc_interface_get_amp_hours_charged:
 1333              	.LFB284:
 1334              		.loc 1 706 0
 1335              		.cfi_startproc
 1336              		@ args = 0, pretend = 0, frame = 0
 1337              		@ frame_needed = 0, uses_anonymous_args = 0
 1338              		@ link register save eliminated.
 1339              	.LVL84:
 1340              		.loc 1 707 0
 1341 0000 054B     		ldr	r3, .L147
 1342 0002 DFED067A 		vldr.32	s15, .L147+4
 1343 0006 93ED007A 		vldr.32	s14, [r3]
 1344 000a 87EE270A 		vdiv.f32	s0, s14, s15
 1345              	.LVL85:
 1346              		.loc 1 709 0
 1347 000e 08B1     		cbz	r0, .L142
 1348              		.loc 1 710 0
 1349 0010 0022     		movs	r2, #0
 1350 0012 1A60     		str	r2, [r3]	@ float
 1351              	.L142:
 1352              		.loc 1 714 0
 1353 0014 7047     		bx	lr
 1354              	.L148:
 1355 0016 00BF     		.align	2
 1356              	.L147:
 1357 0018 00000000 		.word	.LANCHOR27
 1358 001c 00006145 		.word	1163984896
 1359              		.cfi_endproc
 1360              	.LFE284:
 1361              		.size	mc_interface_get_amp_hours_charged, .-mc_interface_get_amp_hours_charged
 1362              		.section	.text.mc_interface_get_watt_hours,"ax",%progbits
 1363              		.align	1
 1364              		.p2align 4,,15
 1365              		.global	mc_interface_get_watt_hours
 1366              		.syntax unified
 1367              		.thumb
 1368              		.thumb_func
ARM GAS  /tmp/ccSws2SG.s 			page 25


 1369              		.fpu fpv4-sp-d16
 1370              		.type	mc_interface_get_watt_hours, %function
 1371              	mc_interface_get_watt_hours:
 1372              	.LFB285:
 1373              		.loc 1 725 0
 1374              		.cfi_startproc
 1375              		@ args = 0, pretend = 0, frame = 0
 1376              		@ frame_needed = 0, uses_anonymous_args = 0
 1377              		@ link register save eliminated.
 1378              	.LVL86:
 1379              		.loc 1 726 0
 1380 0000 054B     		ldr	r3, .L154
 1381 0002 DFED067A 		vldr.32	s15, .L154+4
 1382 0006 93ED007A 		vldr.32	s14, [r3]
 1383 000a 87EE270A 		vdiv.f32	s0, s14, s15
 1384              	.LVL87:
 1385              		.loc 1 728 0
 1386 000e 08B1     		cbz	r0, .L149
 1387              		.loc 1 729 0
 1388 0010 0022     		movs	r2, #0
 1389 0012 1A60     		str	r2, [r3]	@ float
 1390              	.L149:
 1391              		.loc 1 733 0
 1392 0014 7047     		bx	lr
 1393              	.L155:
 1394 0016 00BF     		.align	2
 1395              	.L154:
 1396 0018 00000000 		.word	.LANCHOR28
 1397 001c 00006145 		.word	1163984896
 1398              		.cfi_endproc
 1399              	.LFE285:
 1400              		.size	mc_interface_get_watt_hours, .-mc_interface_get_watt_hours
 1401              		.section	.text.mc_interface_get_watt_hours_charged,"ax",%progbits
 1402              		.align	1
 1403              		.p2align 4,,15
 1404              		.global	mc_interface_get_watt_hours_charged
 1405              		.syntax unified
 1406              		.thumb
 1407              		.thumb_func
 1408              		.fpu fpv4-sp-d16
 1409              		.type	mc_interface_get_watt_hours_charged, %function
 1410              	mc_interface_get_watt_hours_charged:
 1411              	.LFB286:
 1412              		.loc 1 744 0
 1413              		.cfi_startproc
 1414              		@ args = 0, pretend = 0, frame = 0
 1415              		@ frame_needed = 0, uses_anonymous_args = 0
 1416              		@ link register save eliminated.
 1417              	.LVL88:
 1418              		.loc 1 745 0
 1419 0000 054B     		ldr	r3, .L161
 1420 0002 DFED067A 		vldr.32	s15, .L161+4
 1421 0006 93ED007A 		vldr.32	s14, [r3]
 1422 000a 87EE270A 		vdiv.f32	s0, s14, s15
 1423              	.LVL89:
 1424              		.loc 1 747 0
 1425 000e 08B1     		cbz	r0, .L156
ARM GAS  /tmp/ccSws2SG.s 			page 26


 1426              		.loc 1 748 0
 1427 0010 0022     		movs	r2, #0
 1428 0012 1A60     		str	r2, [r3]	@ float
 1429              	.L156:
 1430              		.loc 1 752 0
 1431 0014 7047     		bx	lr
 1432              	.L162:
 1433 0016 00BF     		.align	2
 1434              	.L161:
 1435 0018 00000000 		.word	.LANCHOR29
 1436 001c 00006145 		.word	1163984896
 1437              		.cfi_endproc
 1438              	.LFE286:
 1439              		.size	mc_interface_get_watt_hours_charged, .-mc_interface_get_watt_hours_charged
 1440              		.section	.text.mc_interface_get_tot_current,"ax",%progbits
 1441              		.align	1
 1442              		.p2align 4,,15
 1443              		.global	mc_interface_get_tot_current
 1444              		.syntax unified
 1445              		.thumb
 1446              		.thumb_func
 1447              		.fpu fpv4-sp-d16
 1448              		.type	mc_interface_get_tot_current, %function
 1449              	mc_interface_get_tot_current:
 1450              	.LFB287:
 1451              		.loc 1 754 0
 1452              		.cfi_startproc
 1453              		@ args = 0, pretend = 0, frame = 0
 1454              		@ frame_needed = 0, uses_anonymous_args = 0
 1455              		@ link register save eliminated.
 1456              	.LVL90:
 1457              		.loc 1 757 0
 1458 0000 064B     		ldr	r3, .L169
 1459 0002 9B78     		ldrb	r3, [r3, #2]	@ zero_extendqisi2
 1460 0004 DBB2     		uxtb	r3, r3
 1461 0006 012B     		cmp	r3, #1
 1462 0008 06D9     		bls	.L165
 1463 000a 022B     		cmp	r3, #2
 1464 000c 01D1     		bne	.L168
 1465              		.loc 1 764 0
 1466 000e FFF7FEBF 		b	mcpwm_foc_get_tot_current
 1467              	.LVL91:
 1468              	.L168:
 1469              		.loc 1 772 0
 1470 0012 9FED030A 		vldr.32	s0, .L169+4
 1471 0016 7047     		bx	lr
 1472              	.L165:
 1473              		.loc 1 760 0
 1474 0018 FFF7FEBF 		b	mcpwm_get_tot_current
 1475              	.LVL92:
 1476              	.L170:
 1477              		.align	2
 1478              	.L169:
 1479 001c 00000000 		.word	.LANCHOR12
 1480 0020 00000000 		.word	0
 1481              		.cfi_endproc
 1482              	.LFE287:
ARM GAS  /tmp/ccSws2SG.s 			page 27


 1483              		.size	mc_interface_get_tot_current, .-mc_interface_get_tot_current
 1484              		.section	.text.mc_interface_get_tot_current_filtered,"ax",%progbits
 1485              		.align	1
 1486              		.p2align 4,,15
 1487              		.global	mc_interface_get_tot_current_filtered
 1488              		.syntax unified
 1489              		.thumb
 1490              		.thumb_func
 1491              		.fpu fpv4-sp-d16
 1492              		.type	mc_interface_get_tot_current_filtered, %function
 1493              	mc_interface_get_tot_current_filtered:
 1494              	.LFB288:
 1495              		.loc 1 774 0
 1496              		.cfi_startproc
 1497              		@ args = 0, pretend = 0, frame = 0
 1498              		@ frame_needed = 0, uses_anonymous_args = 0
 1499              		@ link register save eliminated.
 1500              	.LVL93:
 1501              		.loc 1 777 0
 1502 0000 064B     		ldr	r3, .L177
 1503 0002 9B78     		ldrb	r3, [r3, #2]	@ zero_extendqisi2
 1504 0004 DBB2     		uxtb	r3, r3
 1505 0006 012B     		cmp	r3, #1
 1506 0008 06D9     		bls	.L173
 1507 000a 022B     		cmp	r3, #2
 1508 000c 01D1     		bne	.L176
 1509              		.loc 1 784 0
 1510 000e FFF7FEBF 		b	mcpwm_foc_get_tot_current_filtered
 1511              	.LVL94:
 1512              	.L176:
 1513              		.loc 1 792 0
 1514 0012 9FED030A 		vldr.32	s0, .L177+4
 1515 0016 7047     		bx	lr
 1516              	.L173:
 1517              		.loc 1 780 0
 1518 0018 FFF7FEBF 		b	mcpwm_get_tot_current_filtered
 1519              	.LVL95:
 1520              	.L178:
 1521              		.align	2
 1522              	.L177:
 1523 001c 00000000 		.word	.LANCHOR12
 1524 0020 00000000 		.word	0
 1525              		.cfi_endproc
 1526              	.LFE288:
 1527              		.size	mc_interface_get_tot_current_filtered, .-mc_interface_get_tot_current_filtered
 1528              		.section	.text.mc_interface_get_tot_current_directional,"ax",%progbits
 1529              		.align	1
 1530              		.p2align 4,,15
 1531              		.global	mc_interface_get_tot_current_directional
 1532              		.syntax unified
 1533              		.thumb
 1534              		.thumb_func
 1535              		.fpu fpv4-sp-d16
 1536              		.type	mc_interface_get_tot_current_directional, %function
 1537              	mc_interface_get_tot_current_directional:
 1538              	.LFB289:
 1539              		.loc 1 794 0
ARM GAS  /tmp/ccSws2SG.s 			page 28


 1540              		.cfi_startproc
 1541              		@ args = 0, pretend = 0, frame = 0
 1542              		@ frame_needed = 0, uses_anonymous_args = 0
 1543              	.LVL96:
 1544 0000 10B5     		push	{r4, lr}
 1545              		.cfi_def_cfa_offset 8
 1546              		.cfi_offset 4, -8
 1547              		.cfi_offset 14, -4
 1548              		.loc 1 797 0
 1549 0002 0B4C     		ldr	r4, .L191
 1550 0004 A378     		ldrb	r3, [r4, #2]	@ zero_extendqisi2
 1551 0006 DBB2     		uxtb	r3, r3
 1552 0008 012B     		cmp	r3, #1
 1553 000a 0DD9     		bls	.L181
 1554 000c 022B     		cmp	r3, #2
 1555 000e 08D0     		beq	.L182
 1556              		.loc 1 795 0
 1557 0010 9FED080A 		vldr.32	s0, .L191+4
 1558              	.LVL97:
 1559              	.L180:
 1560              		.loc 1 811 0
 1561 0014 94F89931 		ldrb	r3, [r4, #409]	@ zero_extendqisi2
 1562 0018 03B9     		cbnz	r3, .L190
 1563              		.loc 1 812 0
 1564 001a 10BD     		pop	{r4, pc}
 1565              	.L190:
 1566 001c B1EE400A 		vneg.f32	s0, s0
 1567              	.LVL98:
 1568 0020 10BD     		pop	{r4, pc}
 1569              	.LVL99:
 1570              	.L182:
 1571              		.loc 1 804 0
 1572 0022 FFF7FEFF 		bl	mcpwm_foc_get_tot_current_directional
 1573              	.LVL100:
 1574              		.loc 1 805 0
 1575 0026 F5E7     		b	.L180
 1576              	.LVL101:
 1577              	.L181:
 1578              		.loc 1 800 0
 1579 0028 FFF7FEFF 		bl	mcpwm_get_tot_current_directional
 1580              	.LVL102:
 1581              		.loc 1 801 0
 1582 002c F2E7     		b	.L180
 1583              	.L192:
 1584 002e 00BF     		.align	2
 1585              	.L191:
 1586 0030 00000000 		.word	.LANCHOR12
 1587 0034 00000000 		.word	0
 1588              		.cfi_endproc
 1589              	.LFE289:
 1590              		.size	mc_interface_get_tot_current_directional, .-mc_interface_get_tot_current_directional
 1591              		.section	.text.mc_interface_get_tot_current_directional_filtered,"ax",%progbits
 1592              		.align	1
 1593              		.p2align 4,,15
 1594              		.global	mc_interface_get_tot_current_directional_filtered
 1595              		.syntax unified
 1596              		.thumb
ARM GAS  /tmp/ccSws2SG.s 			page 29


 1597              		.thumb_func
 1598              		.fpu fpv4-sp-d16
 1599              		.type	mc_interface_get_tot_current_directional_filtered, %function
 1600              	mc_interface_get_tot_current_directional_filtered:
 1601              	.LFB290:
 1602              		.loc 1 814 0
 1603              		.cfi_startproc
 1604              		@ args = 0, pretend = 0, frame = 0
 1605              		@ frame_needed = 0, uses_anonymous_args = 0
 1606              	.LVL103:
 1607 0000 10B5     		push	{r4, lr}
 1608              		.cfi_def_cfa_offset 8
 1609              		.cfi_offset 4, -8
 1610              		.cfi_offset 14, -4
 1611              		.loc 1 817 0
 1612 0002 0B4C     		ldr	r4, .L205
 1613 0004 A378     		ldrb	r3, [r4, #2]	@ zero_extendqisi2
 1614 0006 DBB2     		uxtb	r3, r3
 1615 0008 012B     		cmp	r3, #1
 1616 000a 0DD9     		bls	.L195
 1617 000c 022B     		cmp	r3, #2
 1618 000e 08D0     		beq	.L196
 1619              		.loc 1 815 0
 1620 0010 9FED080A 		vldr.32	s0, .L205+4
 1621              	.LVL104:
 1622              	.L194:
 1623              		.loc 1 831 0
 1624 0014 94F89931 		ldrb	r3, [r4, #409]	@ zero_extendqisi2
 1625 0018 03B9     		cbnz	r3, .L204
 1626              		.loc 1 832 0
 1627 001a 10BD     		pop	{r4, pc}
 1628              	.L204:
 1629 001c B1EE400A 		vneg.f32	s0, s0
 1630              	.LVL105:
 1631 0020 10BD     		pop	{r4, pc}
 1632              	.LVL106:
 1633              	.L196:
 1634              		.loc 1 824 0
 1635 0022 FFF7FEFF 		bl	mcpwm_foc_get_tot_current_directional_filtered
 1636              	.LVL107:
 1637              		.loc 1 825 0
 1638 0026 F5E7     		b	.L194
 1639              	.LVL108:
 1640              	.L195:
 1641              		.loc 1 820 0
 1642 0028 FFF7FEFF 		bl	mcpwm_get_tot_current_directional_filtered
 1643              	.LVL109:
 1644              		.loc 1 821 0
 1645 002c F2E7     		b	.L194
 1646              	.L206:
 1647 002e 00BF     		.align	2
 1648              	.L205:
 1649 0030 00000000 		.word	.LANCHOR12
 1650 0034 00000000 		.word	0
 1651              		.cfi_endproc
 1652              	.LFE290:
 1653              		.size	mc_interface_get_tot_current_directional_filtered, .-mc_interface_get_tot_current_directiona
ARM GAS  /tmp/ccSws2SG.s 			page 30


 1654              		.section	.text.mc_interface_get_tot_current_in,"ax",%progbits
 1655              		.align	1
 1656              		.p2align 4,,15
 1657              		.global	mc_interface_get_tot_current_in
 1658              		.syntax unified
 1659              		.thumb
 1660              		.thumb_func
 1661              		.fpu fpv4-sp-d16
 1662              		.type	mc_interface_get_tot_current_in, %function
 1663              	mc_interface_get_tot_current_in:
 1664              	.LFB291:
 1665              		.loc 1 834 0
 1666              		.cfi_startproc
 1667              		@ args = 0, pretend = 0, frame = 0
 1668              		@ frame_needed = 0, uses_anonymous_args = 0
 1669              		@ link register save eliminated.
 1670              	.LVL110:
 1671              		.loc 1 837 0
 1672 0000 064B     		ldr	r3, .L213
 1673 0002 9B78     		ldrb	r3, [r3, #2]	@ zero_extendqisi2
 1674 0004 DBB2     		uxtb	r3, r3
 1675 0006 012B     		cmp	r3, #1
 1676 0008 06D9     		bls	.L209
 1677 000a 022B     		cmp	r3, #2
 1678 000c 01D1     		bne	.L212
 1679              		.loc 1 844 0
 1680 000e FFF7FEBF 		b	mcpwm_foc_get_tot_current_in
 1681              	.LVL111:
 1682              	.L212:
 1683              		.loc 1 852 0
 1684 0012 9FED030A 		vldr.32	s0, .L213+4
 1685 0016 7047     		bx	lr
 1686              	.L209:
 1687              		.loc 1 840 0
 1688 0018 FFF7FEBF 		b	mcpwm_get_tot_current_in
 1689              	.LVL112:
 1690              	.L214:
 1691              		.align	2
 1692              	.L213:
 1693 001c 00000000 		.word	.LANCHOR12
 1694 0020 00000000 		.word	0
 1695              		.cfi_endproc
 1696              	.LFE291:
 1697              		.size	mc_interface_get_tot_current_in, .-mc_interface_get_tot_current_in
 1698              		.section	.text.mc_interface_get_tot_current_in_filtered,"ax",%progbits
 1699              		.align	1
 1700              		.p2align 4,,15
 1701              		.global	mc_interface_get_tot_current_in_filtered
 1702              		.syntax unified
 1703              		.thumb
 1704              		.thumb_func
 1705              		.fpu fpv4-sp-d16
 1706              		.type	mc_interface_get_tot_current_in_filtered, %function
 1707              	mc_interface_get_tot_current_in_filtered:
 1708              	.LFB292:
 1709              		.loc 1 854 0
 1710              		.cfi_startproc
ARM GAS  /tmp/ccSws2SG.s 			page 31


 1711              		@ args = 0, pretend = 0, frame = 0
 1712              		@ frame_needed = 0, uses_anonymous_args = 0
 1713              		@ link register save eliminated.
 1714              	.LVL113:
 1715              		.loc 1 857 0
 1716 0000 064B     		ldr	r3, .L221
 1717 0002 9B78     		ldrb	r3, [r3, #2]	@ zero_extendqisi2
 1718 0004 DBB2     		uxtb	r3, r3
 1719 0006 012B     		cmp	r3, #1
 1720 0008 06D9     		bls	.L217
 1721 000a 022B     		cmp	r3, #2
 1722 000c 01D1     		bne	.L220
 1723              		.loc 1 864 0
 1724 000e FFF7FEBF 		b	mcpwm_foc_get_tot_current_in_filtered
 1725              	.LVL114:
 1726              	.L220:
 1727              		.loc 1 872 0
 1728 0012 9FED030A 		vldr.32	s0, .L221+4
 1729 0016 7047     		bx	lr
 1730              	.L217:
 1731              		.loc 1 860 0
 1732 0018 FFF7FEBF 		b	mcpwm_get_tot_current_in_filtered
 1733              	.LVL115:
 1734              	.L222:
 1735              		.align	2
 1736              	.L221:
 1737 001c 00000000 		.word	.LANCHOR12
 1738 0020 00000000 		.word	0
 1739              		.cfi_endproc
 1740              	.LFE292:
 1741              		.size	mc_interface_get_tot_current_in_filtered, .-mc_interface_get_tot_current_in_filtered
 1742              		.section	.text.mc_interface_get_tachometer_value,"ax",%progbits
 1743              		.align	1
 1744              		.p2align 4,,15
 1745              		.global	mc_interface_get_tachometer_value
 1746              		.syntax unified
 1747              		.thumb
 1748              		.thumb_func
 1749              		.fpu fpv4-sp-d16
 1750              		.type	mc_interface_get_tachometer_value, %function
 1751              	mc_interface_get_tachometer_value:
 1752              	.LFB293:
 1753              		.loc 1 874 0
 1754              		.cfi_startproc
 1755              		@ args = 0, pretend = 0, frame = 0
 1756              		@ frame_needed = 0, uses_anonymous_args = 0
 1757              	.LVL116:
 1758 0000 10B5     		push	{r4, lr}
 1759              		.cfi_def_cfa_offset 8
 1760              		.cfi_offset 4, -8
 1761              		.cfi_offset 14, -4
 1762              		.loc 1 877 0
 1763 0002 104C     		ldr	r4, .L234
 1764 0004 A378     		ldrb	r3, [r4, #2]	@ zero_extendqisi2
 1765 0006 DBB2     		uxtb	r3, r3
 1766 0008 012B     		cmp	r3, #1
 1767 000a 14D9     		bls	.L225
ARM GAS  /tmp/ccSws2SG.s 			page 32


 1768 000c 022B     		cmp	r3, #2
 1769 000e 0BD0     		beq	.L226
 1770 0010 DFED0D7A 		vldr.32	s15, .L234+4
 1771              	.LVL117:
 1772              	.L224:
 1773              		.loc 1 891 0
 1774 0014 94F89931 		ldrb	r3, [r4, #409]	@ zero_extendqisi2
 1775 0018 0BB1     		cbz	r3, .L227
 1776 001a F1EE677A 		vneg.f32	s15, s15
 1777              	.L227:
 1778              		.loc 1 892 0 discriminator 4
 1779 001e FDEEE77A 		vcvt.s32.f32	s15, s15
 1780 0022 17EE900A 		vmov	r0, s15	@ int
 1781 0026 10BD     		pop	{r4, pc}
 1782              	.LVL118:
 1783              	.L226:
 1784              		.loc 1 884 0
 1785 0028 FFF7FEFF 		bl	mcpwm_foc_get_tachometer_value
 1786              	.LVL119:
 1787 002c 07EE900A 		vmov	s15, r0	@ int
 1788 0030 F8EEE77A 		vcvt.f32.s32	s15, s15
 1789              		.loc 1 885 0
 1790 0034 EEE7     		b	.L224
 1791              	.LVL120:
 1792              	.L225:
 1793              		.loc 1 880 0
 1794 0036 FFF7FEFF 		bl	mcpwm_get_tachometer_value
 1795              	.LVL121:
 1796 003a 07EE900A 		vmov	s15, r0	@ int
 1797 003e F8EEE77A 		vcvt.f32.s32	s15, s15
 1798              		.loc 1 881 0
 1799 0042 E7E7     		b	.L224
 1800              	.L235:
 1801              		.align	2
 1802              	.L234:
 1803 0044 00000000 		.word	.LANCHOR12
 1804 0048 00000000 		.word	0
 1805              		.cfi_endproc
 1806              	.LFE293:
 1807              		.size	mc_interface_get_tachometer_value, .-mc_interface_get_tachometer_value
 1808              		.section	.text.mc_interface_fault_stop.part.4,"ax",%progbits
 1809              		.align	1
 1810              		.p2align 4,,15
 1811              		.syntax unified
 1812              		.thumb
 1813              		.thumb_func
 1814              		.fpu fpv4-sp-d16
 1815              		.type	mc_interface_fault_stop.part.4, %function
 1816              	mc_interface_fault_stop.part.4:
 1817              	.LFB321:
 1818              		.loc 1 1193 0
 1819              		.cfi_startproc
 1820              		@ args = 0, pretend = 0, frame = 72
 1821              		@ frame_needed = 0, uses_anonymous_args = 0
 1822              	.LVL122:
 1823 0000 F0B5     		push	{r4, r5, r6, r7, lr}
 1824              		.cfi_def_cfa_offset 20
ARM GAS  /tmp/ccSws2SG.s 			page 33


 1825              		.cfi_offset 4, -20
 1826              		.cfi_offset 5, -16
 1827              		.cfi_offset 6, -12
 1828              		.cfi_offset 7, -8
 1829              		.cfi_offset 14, -4
 1830 0002 93B0     		sub	sp, sp, #76
 1831              		.cfi_def_cfa_offset 96
 1832              		.loc 1 1193 0
 1833 0004 0546     		mov	r5, r0
 1834              		.loc 1 1199 0
 1835 0006 FFF7FEFF 		bl	mc_interface_dccal_done
 1836              	.LVL123:
 1837 000a 474C     		ldr	r4, .L250
 1838 000c 08B1     		cbz	r0, .L237
 1839 000e 2678     		ldrb	r6, [r4]	@ zero_extendqisi2
 1840 0010 DEB1     		cbz	r6, .L248
 1841              	.L237:
 1842              		.loc 1 1239 0
 1843 0012 464B     		ldr	r3, .L250+4
 1844 0014 464A     		ldr	r2, .L250+8
 1845 0016 D3F88811 		ldr	r1, [r3, #392]
 1846              		.loc 1 1241 0
 1847 001a 9B78     		ldrb	r3, [r3, #2]	@ zero_extendqisi2
 1848              		.loc 1 1239 0
 1849 001c 1160     		str	r1, [r2]
 1850              		.loc 1 1241 0
 1851 001e 032B     		cmp	r3, #3
 1852 0020 06D8     		bhi	.L239
 1853 0022 DFE803F0 		tbb	[pc, r3]
 1854              	.L241:
 1855 0026 0D       		.byte	(.L240-.L241)/2
 1856 0027 0D       		.byte	(.L240-.L241)/2
 1857 0028 08       		.byte	(.L242-.L241)/2
 1858 0029 02       		.byte	(.L243-.L241)/2
 1859              		.p2align 1
 1860              	.L243:
 1861              		.loc 1 1252 0
 1862 002a 0020     		movs	r0, #0
 1863 002c FFF7FEFF 		bl	gpdrive_set_mode
 1864              	.LVL124:
 1865              	.L239:
 1866              		.loc 1 1259 0
 1867 0030 2570     		strb	r5, [r4]
 1868              		.loc 1 1260 0
 1869 0032 13B0     		add	sp, sp, #76
 1870              		.cfi_remember_state
 1871              		.cfi_def_cfa_offset 20
 1872              		@ sp needed
 1873 0034 F0BD     		pop	{r4, r5, r6, r7, pc}
 1874              	.L242:
 1875              		.cfi_restore_state
 1876              		.loc 1 1248 0
 1877 0036 FFF7FEFF 		bl	mcpwm_foc_stop_pwm
 1878              	.LVL125:
 1879              		.loc 1 1259 0
 1880 003a 2570     		strb	r5, [r4]
 1881              		.loc 1 1260 0
ARM GAS  /tmp/ccSws2SG.s 			page 34


 1882 003c 13B0     		add	sp, sp, #76
 1883              		.cfi_remember_state
 1884              		.cfi_def_cfa_offset 20
 1885              		@ sp needed
 1886 003e F0BD     		pop	{r4, r5, r6, r7, pc}
 1887              	.L240:
 1888              		.cfi_restore_state
 1889              		.loc 1 1244 0
 1890 0040 FFF7FEFF 		bl	mcpwm_stop_pwm
 1891              	.LVL126:
 1892              		.loc 1 1259 0
 1893 0044 2570     		strb	r5, [r4]
 1894              		.loc 1 1260 0
 1895 0046 13B0     		add	sp, sp, #76
 1896              		.cfi_remember_state
 1897              		.cfi_def_cfa_offset 20
 1898              		@ sp needed
 1899 0048 F0BD     		pop	{r4, r5, r6, r7, pc}
 1900              	.L248:
 1901              		.cfi_restore_state
 1902              	.LBB146:
 1903              		.loc 1 1202 0
 1904 004a FFF7FEFF 		bl	utils_sys_lock_cnt
 1905              	.LVL127:
 1906              		.loc 1 1203 0
 1907 004e 394A     		ldr	r2, .L250+12
 1908              		.loc 1 1204 0
 1909 0050 394B     		ldr	r3, .L250+16
 1910              		.loc 1 1203 0
 1911 0052 526B     		ldr	r2, [r2, #52]
 1912 0054 0092     		str	r2, [sp]
 1913              		.loc 1 1204 0
 1914 0056 1A6C     		ldr	r2, [r3, #64]
 1915 0058 0192     		str	r2, [sp, #4]
 1916              		.loc 1 1205 0
 1917 005a DB6A     		ldr	r3, [r3, #44]
 1918 005c 0293     		str	r3, [sp, #8]
 1919              		.loc 1 1206 0
 1920 005e FFF7FEFF 		bl	utils_sys_unlock_cnt
 1921              	.LVL128:
 1922              		.loc 1 1209 0
 1923 0062 8DF80C50 		strb	r5, [sp, #12]
 1924              		.loc 1 1210 0
 1925 0066 FFF7FEFF 		bl	mc_interface_get_tot_current
 1926              	.LVL129:
 1927              		.loc 1 1212 0
 1928 006a 344F     		ldr	r7, .L250+20
 1929              		.loc 1 1210 0
 1930 006c 8DED040A 		vstr.32	s0, [sp, #16]
 1931              		.loc 1 1211 0
 1932 0070 FFF7FEFF 		bl	mc_interface_get_tot_current_filtered
 1933              	.LVL130:
 1934              		.loc 1 1212 0
 1935 0074 FB8A     		ldrh	r3, [r7, #22]
 1936 0076 DFED326A 		vldr.32	s13, .L250+24
 1937 007a 9FED327A 		vldr.32	s14, .L250+28
 1938              		.loc 1 1211 0
ARM GAS  /tmp/ccSws2SG.s 			page 35


 1939 007e 8DED050A 		vstr.32	s0, [sp, #20]
 1940              		.loc 1 1212 0
 1941 0082 07EE903A 		vmov	s15, r3	@ int
 1942 0086 F8EE677A 		vcvt.f32.u32	s15, s15
 1943              		.loc 1 1213 0
 1944 008a 2F4B     		ldr	r3, .L250+32
 1945              		.loc 1 1212 0
 1946 008c 67EEA67A 		vmul.f32	s15, s15, s13
 1947              		.loc 1 1213 0
 1948 0090 1B68     		ldr	r3, [r3]	@ float
 1949 0092 0793     		str	r3, [sp, #28]	@ float
 1950              		.loc 1 1212 0
 1951 0094 67EE877A 		vmul.f32	s15, s15, s14
 1952 0098 CDED067A 		vstr.32	s15, [sp, #24]
 1953              		.loc 1 1214 0
 1954 009c FFF7FEFF 		bl	mc_interface_get_duty_cycle_now
 1955              	.LVL131:
 1956 00a0 8DED080A 		vstr.32	s0, [sp, #32]
 1957              		.loc 1 1215 0
 1958 00a4 FFF7FEFF 		bl	mc_interface_get_rpm
 1959              	.LVL132:
 1960              		.loc 1 1216 0
 1961 00a8 3046     		mov	r0, r6
 1962              		.loc 1 1215 0
 1963 00aa 8DED090A 		vstr.32	s0, [sp, #36]
 1964              		.loc 1 1216 0
 1965 00ae FFF7FEFF 		bl	mc_interface_get_tachometer_value
 1966              	.LVL133:
 1967              		.loc 1 1217 0
 1968 00b2 264B     		ldr	r3, .L250+36
 1969              		.loc 1 1216 0
 1970 00b4 0A90     		str	r0, [sp, #40]
 1971              		.loc 1 1217 0
 1972 00b6 1B68     		ldr	r3, [r3]
 1973              		.loc 1 1218 0
 1974 00b8 0099     		ldr	r1, [sp]
 1975              		.loc 1 1219 0
 1976 00ba 019A     		ldr	r2, [sp, #4]
 1977              		.loc 1 1217 0
 1978 00bc 0B93     		str	r3, [sp, #44]
 1979              		.loc 1 1220 0
 1980 00be 029B     		ldr	r3, [sp, #8]
 1981 00c0 0E93     		str	r3, [sp, #56]
 1982              		.loc 1 1219 0
 1983 00c2 CDE90C12 		strd	r1, r2, [sp, #48]
 1984              		.loc 1 1221 0
 1985 00c6 FFF7FEFF 		bl	mcpwm_get_comm_step
 1986              	.LVL134:
 1987              		.loc 1 1222 0
 1988 00ca 3B8A     		ldrh	r3, [r7, #16]
 1989 00cc DFED206A 		vldr.32	s13, .L250+40
 1990 00d0 9FED200A 		vldr.32	s0, .L250+44
 1991              		.loc 1 1221 0
 1992 00d4 0F90     		str	r0, [sp, #60]
 1993              		.loc 1 1222 0
 1994 00d6 07EE103A 		vmov	s14, r3	@ int
 1995 00da B8EEC77A 		vcvt.f32.s32	s14, s14
ARM GAS  /tmp/ccSws2SG.s 			page 36


 1996 00de C6EE877A 		vdiv.f32	s15, s13, s14
 1997 00e2 77EEC07A 		vsub.f32	s15, s15, s0
 1998 00e6 87EE800A 		vdiv.f32	s0, s15, s0
 1999 00ea FFF7FEFF 		bl	logf
 2000              	.LVL135:
 2001              		.loc 1 1224 0
 2002 00ee 032D     		cmp	r5, #3
 2003              		.loc 1 1222 0
 2004 00f0 DFED196A 		vldr.32	s13, .L250+48
 2005 00f4 DFED197A 		vldr.32	s15, .L250+52
 2006 00f8 9FED197A 		vldr.32	s14, .L250+56
 2007 00fc 80EE260A 		vdiv.f32	s0, s0, s13
 2008 0100 F7EE006A 		vmov.f32	s13, #1.0e+0
 2009 0104 30EE270A 		vadd.f32	s0, s0, s15
 2010 0108 C6EE807A 		vdiv.f32	s15, s13, s0
 2011 010c 77EEC77A 		vsub.f32	s15, s15, s14
 2012 0110 CDED107A 		vstr.32	s15, [sp, #64]
 2013              		.loc 1 1224 0
 2014 0114 03D0     		beq	.L249
 2015              	.L238:
 2016              		.loc 1 1236 0
 2017 0116 03A8     		add	r0, sp, #12
 2018 0118 FFF7FEFF 		bl	terminal_add_fault_data
 2019              	.LVL136:
 2020 011c 79E7     		b	.L237
 2021              	.L249:
 2022              		.loc 1 1225 0
 2023 011e FFF7FEFF 		bl	drv8301_read_faults
 2024              	.LVL137:
 2025 0122 1190     		str	r0, [sp, #68]
 2026 0124 F7E7     		b	.L238
 2027              	.L251:
 2028 0126 00BF     		.align	2
 2029              	.L250:
 2030 0128 00000000 		.word	.LANCHOR13
 2031 012c 00000000 		.word	.LANCHOR12
 2032 0130 00000000 		.word	.LANCHOR14
 2033 0134 00040140 		.word	1073808384
 2034 0138 00000140 		.word	1073807360
 2035 013c 00000000 		.word	.LANCHOR42
 2036 0140 6740533A 		.word	978534503
 2037 0144 74D19541 		.word	1100337524
 2038 0148 00000000 		.word	.LANCHOR34
 2039 014c 00000000 		.word	.LANCHOR15
 2040 0150 3C361C4C 		.word	1276917308
 2041 0154 00401C46 		.word	1176256512
 2042 0158 00405345 		.word	1163083776
 2043 015c 0FCF5B3B 		.word	995872527
 2044 0160 33938843 		.word	1133024051
 2045              	.LBE146:
 2046              		.cfi_endproc
 2047              	.LFE321:
 2048              		.size	mc_interface_fault_stop.part.4, .-mc_interface_fault_stop.part.4
 2049              		.section	.text.update_override_limits.constprop.5,"ax",%progbits
 2050              		.align	1
 2051              		.p2align 4,,15
 2052              		.syntax unified
ARM GAS  /tmp/ccSws2SG.s 			page 37


 2053              		.thumb
 2054              		.thumb_func
 2055              		.fpu fpv4-sp-d16
 2056              		.type	update_override_limits.constprop.5, %function
 2057              	update_override_limits.constprop.5:
 2058              	.LFB322:
 2059              		.loc 1 1526 0
 2060              		.cfi_startproc
 2061              		@ args = 0, pretend = 0, frame = 0
 2062              		@ frame_needed = 0, uses_anonymous_args = 0
 2063              	.LVL138:
 2064 0000 F8B5     		push	{r3, r4, r5, r6, r7, lr}
 2065              		.cfi_def_cfa_offset 24
 2066              		.cfi_offset 3, -24
 2067              		.cfi_offset 4, -20
 2068              		.cfi_offset 5, -16
 2069              		.cfi_offset 6, -12
 2070              		.cfi_offset 7, -8
 2071              		.cfi_offset 14, -4
 2072              		.loc 1 1527 0
 2073 0002 B24F     		ldr	r7, .L337
 2074 0004 9FEDB27A 		vldr.32	s14, .L337+4
 2075 0008 FB8A     		ldrh	r3, [r7, #22]
 2076              		.loc 1 1530 0
 2077 000a B24E     		ldr	r6, .L337+8
 2078              		.loc 1 1527 0
 2079 000c DFEDB27A 		vldr.32	s15, .L337+12
 2080              		.loc 1 1531 0
 2081 0010 B24D     		ldr	r5, .L337+16
 2082 0012 B34C     		ldr	r4, .L337+20
 2083              		.loc 1 1526 0
 2084 0014 2DED0C8B 		vpush.64	{d8, d9, d10, d11, d12, d13}
 2085              		.cfi_def_cfa_offset 72
 2086              		.cfi_offset 80, -72
 2087              		.cfi_offset 81, -68
 2088              		.cfi_offset 82, -64
 2089              		.cfi_offset 83, -60
 2090              		.cfi_offset 84, -56
 2091              		.cfi_offset 85, -52
 2092              		.cfi_offset 86, -48
 2093              		.cfi_offset 87, -44
 2094              		.cfi_offset 88, -40
 2095              		.cfi_offset 89, -36
 2096              		.cfi_offset 90, -32
 2097              		.cfi_offset 91, -28
 2098              		.loc 1 1527 0
 2099 0018 08EE103A 		vmov	s16, r3	@ int
 2100 001c B8EE488A 		vcvt.f32.u32	s16, s16
 2101              		.loc 1 1530 0
 2102 0020 DFEDB08A 		vldr.32	s17, .L337+24
 2103 0024 DFEDB0BA 		vldr.32	s23, .L337+28
 2104 0028 9FEDB0BA 		vldr.32	s22, .L337+32
 2105 002c DFEDB0AA 		vldr.32	s21, .L337+36
 2106              		.loc 1 1527 0
 2107 0030 28EE078A 		vmul.f32	s16, s16, s14
 2108              		.loc 1 1530 0
 2109 0034 B7EE00AA 		vmov.f32	s20, #1.0e+0
ARM GAS  /tmp/ccSws2SG.s 			page 38


 2110              		.loc 1 1527 0
 2111 0038 28EE278A 		vmul.f32	s16, s16, s15
 2112              	.LVL139:
 2113              		.loc 1 1528 0
 2114 003c FFF7FEFF 		bl	mc_interface_get_rpm
 2115              	.LVL140:
 2116              		.loc 1 1530 0
 2117 0040 96ED009A 		vldr.32	s18, [r6]
 2118 0044 3B8A     		ldrh	r3, [r7, #16]
 2119 0046 9FEDAB7A 		vldr.32	s14, .L337+40
 2120 004a 07EE903A 		vmov	s15, r3	@ int
 2121 004e F8EEE77A 		vcvt.f32.s32	s15, s15
 2122              		.loc 1 1528 0
 2123 0052 F0EE409A 		vmov.f32	s19, s0
 2124              	.LVL141:
 2125              		.loc 1 1530 0
 2126 0056 87EE270A 		vdiv.f32	s0, s14, s15
 2127              	.LVL142:
 2128 005a 30EE680A 		vsub.f32	s0, s0, s17
 2129 005e 80EE280A 		vdiv.f32	s0, s0, s17
 2130 0062 FFF7FEFF 		bl	logf
 2131              	.LVL143:
 2132 0066 9FEDA47A 		vldr.32	s14, .L337+44
 2133 006a D6ED007A 		vldr.32	s15, [r6]
 2134              		.loc 1 1531 0
 2135 006e DFEDA36A 		vldr.32	s13, .L337+48
 2136              		.loc 1 1530 0
 2137 0072 80EE070A 		vdiv.f32	s0, s0, s14
 2138 0076 30EE2B0A 		vadd.f32	s0, s0, s23
 2139 007a 8AEE007A 		vdiv.f32	s14, s20, s0
 2140 007e 37EE4B7A 		vsub.f32	s14, s14, s22
 2141 0082 39EE479A 		vsub.f32	s18, s18, s14
 2142 0086 E9EE6A7A 		vfms.f32	s15, s18, s21
 2143 008a C6ED007A 		vstr.32	s15, [r6]
 2144              		.loc 1 1531 0
 2145 008e 95ED009A 		vldr.32	s18, [r5]
 2146 0092 7B8A     		ldrh	r3, [r7, #18]
 2147 0094 07EE103A 		vmov	s14, r3	@ int
 2148 0098 B8EE477A 		vcvt.f32.u32	s14, s14
 2149 009c C6EE877A 		vdiv.f32	s15, s13, s14
 2150 00a0 77EECA7A 		vsub.f32	s15, s15, s20
 2151 00a4 88EEA70A 		vdiv.f32	s0, s17, s15
 2152 00a8 80EE280A 		vdiv.f32	s0, s0, s17
 2153 00ac FFF7FEFF 		bl	logf
 2154              	.LVL144:
 2155 00b0 94ED6B7A 		vldr.32	s14, [r4, #428]
 2156 00b4 D5ED007A 		vldr.32	s15, [r5]
 2157 00b8 80EE070A 		vdiv.f32	s0, s0, s14
 2158 00bc 30EE2B0A 		vadd.f32	s0, s0, s23
 2159 00c0 8AEE007A 		vdiv.f32	s14, s20, s0
 2160 00c4 37EE4B7A 		vsub.f32	s14, s14, s22
 2161 00c8 39EE479A 		vsub.f32	s18, s18, s14
 2162 00cc E9EE6A7A 		vfms.f32	s15, s18, s21
 2163 00d0 C5ED007A 		vstr.32	s15, [r5]
 2164              		.loc 1 1536 0
 2165 00d4 94ED029A 		vldr.32	s18, [r4, #8]
 2166 00d8 94ED1A6A 		vldr.32	s12, [r4, #104]
ARM GAS  /tmp/ccSws2SG.s 			page 39


 2167              		.loc 1 1537 0
 2168 00dc D4ED018A 		vldr.32	s17, [r4, #4]
 2169 00e0 D4ED196A 		vldr.32	s13, [r4, #100]
 2170              		.loc 1 1542 0
 2171 00e4 94ED107A 		vldr.32	s14, [r4, #64]
 2172 00e8 D6ED007A 		vldr.32	s15, [r6]
 2173 00ec B4EEE77A 		vcmpe.f32	s14, s15
 2174 00f0 F1EE10FA 		vmrs	APSR_nzcv, FPSCR
 2175              		.loc 1 1536 0
 2176 00f4 29EE069A 		vmul.f32	s18, s18, s12
 2177              	.LVL145:
 2178              		.loc 1 1537 0
 2179 00f8 68EEA68A 		vmul.f32	s17, s17, s13
 2180              	.LVL146:
 2181              		.loc 1 1542 0
 2182 00fc 17DC     		bgt	.L288
 2183              		.loc 1 1544 0
 2184 00fe 94ED117A 		vldr.32	s14, [r4, #68]
 2185 0102 D6ED007A 		vldr.32	s15, [r6]
 2186 0106 B4EEE77A 		vcmpe.f32	s14, s15
 2187 010a F1EE10FA 		vmrs	APSR_nzcv, FPSCR
 2188 010e 40F18581 		bpl	.L318
 2189              	.LVL147:
 2190              	.LBB147:
 2191              	.LBB148:
 2192              		.loc 1 1194 0
 2193 0112 7B4B     		ldr	r3, .L337+52
 2194 0114 1B78     		ldrb	r3, [r3]	@ zero_extendqisi2
 2195 0116 052B     		cmp	r3, #5
 2196 0118 40F00E82 		bne	.L256
 2197              		.loc 1 1195 0
 2198 011c 794B     		ldr	r3, .L337+56
 2199              	.LBE148:
 2200              	.LBE147:
 2201              		.loc 1 1546 0
 2202 011e 9FED7AAA 		vldr.32	s20, .L337+60
 2203              	.LBB152:
 2204              	.LBB149:
 2205              		.loc 1 1195 0
 2206 0122 D4F88821 		ldr	r2, [r4, #392]
 2207 0126 1A60     		str	r2, [r3]
 2208              	.LBE149:
 2209              	.LBE152:
 2210              		.loc 1 1545 0
 2211 0128 B0EE4ACA 		vmov.f32	s24, s20
 2212 012c 03E0     		b	.L253
 2213              	.LVL148:
 2214              	.L288:
 2215              		.loc 1 1541 0
 2216 012e B0EE68AA 		vmov.f32	s20, s17
 2217              		.loc 1 1540 0
 2218 0132 B0EE49CA 		vmov.f32	s24, s18
 2219              	.LVL149:
 2220              	.L253:
 2221              		.loc 1 1568 0
 2222 0136 94ED127A 		vldr.32	s14, [r4, #72]
 2223 013a D5ED007A 		vldr.32	s15, [r5]
ARM GAS  /tmp/ccSws2SG.s 			page 40


 2224 013e B4EEE77A 		vcmpe.f32	s14, s15
 2225 0142 F1EE10FA 		vmrs	APSR_nzcv, FPSCR
 2226 0146 43DC     		bgt	.L324
 2227              		.loc 1 1570 0
 2228 0148 94ED137A 		vldr.32	s14, [r4, #76]
 2229 014c D5ED007A 		vldr.32	s15, [r5]
 2230 0150 B4EEE77A 		vcmpe.f32	s14, s15
 2231 0154 F1EE10FA 		vmrs	APSR_nzcv, FPSCR
 2232 0158 0DD5     		bpl	.L322
 2233              	.LVL150:
 2234              	.LBB153:
 2235              	.LBB154:
 2236              		.loc 1 1194 0
 2237 015a 694B     		ldr	r3, .L337+52
 2238 015c 1B78     		ldrb	r3, [r3]	@ zero_extendqisi2
 2239 015e 062B     		cmp	r3, #6
 2240 0160 40F0F281 		bne	.L268
 2241              		.loc 1 1195 0
 2242 0164 674B     		ldr	r3, .L337+56
 2243              	.LBE154:
 2244              	.LBE153:
 2245              		.loc 1 1572 0
 2246 0166 9FED689A 		vldr.32	s18, .L337+60
 2247              	.LVL151:
 2248              	.LBB158:
 2249              	.LBB155:
 2250              		.loc 1 1195 0
 2251 016a D4F88821 		ldr	r2, [r4, #392]
 2252 016e 1A60     		str	r2, [r3]
 2253              	.LBE155:
 2254              	.LBE158:
 2255              		.loc 1 1571 0
 2256 0170 F0EE49AA 		vmov.f32	s21, s18
 2257 0174 2EE0     		b	.L265
 2258              	.LVL152:
 2259              	.L322:
 2260              	.LBB159:
 2261              		.loc 1 1576 0
 2262 0176 F0EEC9BA 		vabs.f32	s23, s18
 2263              		.loc 1 1575 0
 2264 017a B0EEE8BA 		vabs.f32	s22, s17
 2265              	.LVL153:
 2266 017e B4EEEBBA 		vcmpe.f32	s22, s23
 2267 0182 F1EE10FA 		vmrs	APSR_nzcv, FPSCR
 2268              	.LVL154:
 2269              		.loc 1 1580 0
 2270 0186 95ED000A 		vldr.32	s0, [r5]
 2271 018a 9FED5F2A 		vldr.32	s4, .L337+60
 2272 018e D4ED120A 		vldr.32	s1, [r4, #72]
 2273 0192 94ED131A 		vldr.32	s2, [r4, #76]
 2274 0196 54BF     		ite	pl
 2275 0198 F0EE4B1A 		vmovpl.f32	s3, s22
 2276 019c F0EE6B1A 		vmovmi.f32	s3, s23
 2277              	.LVL155:
 2278 01a0 FFF7FEFF 		bl	utils_map
 2279              	.LVL156:
 2280              		.loc 1 1582 0
ARM GAS  /tmp/ccSws2SG.s 			page 41


 2281 01a4 F4EEC0BA 		vcmpe.f32	s23, s0
 2282 01a8 F1EE10FA 		vmrs	APSR_nzcv, FPSCR
 2283              		.loc 1 1580 0
 2284 01ac F0EE40AA 		vmov.f32	s21, s0
 2285              	.LVL157:
 2286              		.loc 1 1582 0
 2287 01b0 08DD     		ble	.L270
 2288              		.loc 1 1583 0
 2289 01b2 B5EEC09A 		vcmpe.f32	s18, #0
 2290 01b6 F1EE10FA 		vmrs	APSR_nzcv, FPSCR
 2291 01ba 4CBF     		ite	mi
 2292 01bc B1EE409A 		vnegmi.f32	s18, s0
 2293              	.LVL158:
 2294 01c0 B0EE409A 		vmovpl.f32	s18, s0
 2295              	.L270:
 2296              	.LVL159:
 2297              		.loc 1 1586 0
 2298 01c4 B4EEEABA 		vcmpe.f32	s22, s21
 2299 01c8 F1EE10FA 		vmrs	APSR_nzcv, FPSCR
 2300 01cc 00F3AB81 		bgt	.L327
 2301              	.LVL160:
 2302              	.L324:
 2303              	.LBE159:
 2304              		.loc 1 1567 0
 2305 01d0 F0EE68AA 		vmov.f32	s21, s17
 2306              	.LVL161:
 2307              	.L265:
 2308              		.loc 1 1593 0
 2309 01d4 94ED140A 		vldr.32	s0, [r4, #80]
 2310 01d8 DFED4B0A 		vldr.32	s1, .L337+60
 2311 01dc D4ED101A 		vldr.32	s3, [r4, #64]
 2312 01e0 B3EE092A 		vmov.f32	s4, #2.5e+1
 2313 01e4 B7EE001A 		vmov.f32	s2, #1.0e+0
 2314 01e8 FFF7FEFF 		bl	utils_map
 2315              	.LVL162:
 2316              		.loc 1 1594 0
 2317 01ec DFED460A 		vldr.32	s1, .L337+60
 2318              		.loc 1 1593 0
 2319 01f0 F0EE40BA 		vmov.f32	s23, s0
 2320              	.LVL163:
 2321              		.loc 1 1594 0
 2322 01f4 B3EE092A 		vmov.f32	s4, #2.5e+1
 2323 01f8 94ED140A 		vldr.32	s0, [r4, #80]
 2324              	.LVL164:
 2325 01fc D4ED111A 		vldr.32	s3, [r4, #68]
 2326 0200 B7EE001A 		vmov.f32	s2, #1.0e+0
 2327 0204 FFF7FEFF 		bl	utils_map
 2328              	.LVL165:
 2329              		.loc 1 1595 0
 2330 0208 DFED3F0A 		vldr.32	s1, .L337+60
 2331 020c B3EE092A 		vmov.f32	s4, #2.5e+1
 2332 0210 B7EE001A 		vmov.f32	s2, #1.0e+0
 2333              		.loc 1 1594 0
 2334 0214 B0EE40DA 		vmov.f32	s26, s0
 2335              	.LVL166:
 2336              		.loc 1 1595 0
 2337 0218 94ED140A 		vldr.32	s0, [r4, #80]
ARM GAS  /tmp/ccSws2SG.s 			page 42


 2338              	.LVL167:
 2339 021c D4ED121A 		vldr.32	s3, [r4, #72]
 2340 0220 FFF7FEFF 		bl	utils_map
 2341              	.LVL168:
 2342              		.loc 1 1596 0
 2343 0224 DFED380A 		vldr.32	s1, .L337+60
 2344              		.loc 1 1595 0
 2345 0228 B0EE40BA 		vmov.f32	s22, s0
 2346              	.LVL169:
 2347              		.loc 1 1596 0
 2348 022c B3EE092A 		vmov.f32	s4, #2.5e+1
 2349 0230 94ED140A 		vldr.32	s0, [r4, #80]
 2350              	.LVL170:
 2351 0234 D4ED131A 		vldr.32	s3, [r4, #76]
 2352 0238 B7EE001A 		vmov.f32	s2, #1.0e+0
 2353 023c FFF7FEFF 		bl	utils_map
 2354              	.LVL171:
 2355              		.loc 1 1599 0
 2356 0240 D6ED007A 		vldr.32	s15, [r6]
 2357 0244 F4EEE7BA 		vcmpe.f32	s23, s15
 2358 0248 F1EE10FA 		vmrs	APSR_nzcv, FPSCR
 2359              		.loc 1 1596 0
 2360 024c F0EE40CA 		vmov.f32	s25, s0
 2361              	.LVL172:
 2362              		.loc 1 1599 0
 2363 0250 28DC     		bgt	.L297
 2364              		.loc 1 1601 0
 2365 0252 D6ED007A 		vldr.32	s15, [r6]
 2366 0256 B4EEE7DA 		vcmpe.f32	s26, s15
 2367 025a F1EE10FA 		vmrs	APSR_nzcv, FPSCR
 2368 025e 40F14281 		bpl	.L328
 2369              		.loc 1 1609 0
 2370 0262 D5ED007A 		vldr.32	s15, [r5]
 2371              		.loc 1 1602 0
 2372 0266 DFED28BA 		vldr.32	s23, .L337+60
 2373              	.LVL173:
 2374              		.loc 1 1609 0
 2375 026a B4EEE7BA 		vcmpe.f32	s22, s15
 2376 026e F1EE10FA 		vmrs	APSR_nzcv, FPSCR
 2377 0272 20DD     		ble	.L329
 2378              	.LVL174:
 2379              	.L299:
 2380              		.loc 1 1610 0
 2381 0274 B0EE68BA 		vmov.f32	s22, s17
 2382              	.LVL175:
 2383              	.L278:
 2384              		.loc 1 1620 0
 2385 0278 D4ED070A 		vldr.32	s1, [r4, #28]
 2386 027c D4ED087A 		vldr.32	s15, [r4, #32]
 2387              		.loc 1 1621 0
 2388 0280 94ED071A 		vldr.32	s2, [r4, #28]
 2389              		.loc 1 1620 0
 2390 0284 60EEA70A 		vmul.f32	s1, s1, s15
 2391              	.LVL176:
 2392              		.loc 1 1622 0
 2393 0288 F4EEE09A 		vcmpe.f32	s19, s1
 2394 028c F1EE10FA 		vmrs	APSR_nzcv, FPSCR
ARM GAS  /tmp/ccSws2SG.s 			page 43


 2395 0290 3CD4     		bmi	.L301
 2396              		.loc 1 1624 0
 2397 0292 F4EEC19A 		vcmpe.f32	s19, s2
 2398 0296 F1EE10FA 		vmrs	APSR_nzcv, FPSCR
 2399 029a 40F31981 		ble	.L330
 2400              		.loc 1 1625 0
 2401 029e DFED1ACA 		vldr.32	s25, .L337+60
 2402              	.LVL177:
 2403 02a2 35E0     		b	.L279
 2404              	.LVL178:
 2405              	.L297:
 2406              		.loc 1 1600 0
 2407 02a4 F0EE68BA 		vmov.f32	s23, s17
 2408              	.LVL179:
 2409              	.L277:
 2410              		.loc 1 1609 0
 2411 02a8 D5ED007A 		vldr.32	s15, [r5]
 2412 02ac B4EEE7BA 		vcmpe.f32	s22, s15
 2413 02b0 F1EE10FA 		vmrs	APSR_nzcv, FPSCR
 2414 02b4 DEDC     		bgt	.L299
 2415              	.L329:
 2416              		.loc 1 1611 0
 2417 02b6 D5ED007A 		vldr.32	s15, [r5]
 2418 02ba F4EEE7CA 		vcmpe.f32	s25, s15
 2419 02be F1EE10FA 		vmrs	APSR_nzcv, FPSCR
 2420 02c2 40F1F680 		bpl	.L331
 2421              		.loc 1 1612 0
 2422 02c6 9FED10BA 		vldr.32	s22, .L337+60
 2423              	.LVL180:
 2424 02ca D5E7     		b	.L278
 2425              	.L338:
 2426              		.align	2
 2427              	.L337:
 2428 02cc 00000000 		.word	.LANCHOR42
 2429 02d0 6740533A 		.word	978534503
 2430 02d4 00000000 		.word	.LANCHOR32
 2431 02d8 74D19541 		.word	1100337524
 2432 02dc 00000000 		.word	.LANCHOR33
 2433 02e0 00000000 		.word	.LANCHOR12
 2434 02e4 00401C46 		.word	1176256512
 2435 02e8 0FCF5B3B 		.word	995872527
 2436 02ec 33938843 		.word	1133024051
 2437 02f0 CDCCCC3D 		.word	1036831949
 2438 02f4 3C361C4C 		.word	1276917308
 2439 02f8 00405345 		.word	1163083776
 2440 02fc 00F07F45 		.word	1166012416
 2441 0300 00000000 		.word	.LANCHOR13
 2442 0304 00000000 		.word	.LANCHOR14
 2443 0308 00000000 		.word	0
 2444              	.LVL181:
 2445              	.L301:
 2446              		.loc 1 1623 0
 2447 030c F0EE68CA 		vmov.f32	s25, s17
 2448              	.LVL182:
 2449              	.L279:
 2450              		.loc 1 1632 0
 2451 0310 D4ED060A 		vldr.32	s1, [r4, #24]
ARM GAS  /tmp/ccSws2SG.s 			page 44


 2452 0314 D4ED087A 		vldr.32	s15, [r4, #32]
 2453              		.loc 1 1633 0
 2454 0318 94ED061A 		vldr.32	s2, [r4, #24]
 2455              		.loc 1 1632 0
 2456 031c 60EEA70A 		vmul.f32	s1, s1, s15
 2457              	.LVL183:
 2458              		.loc 1 1634 0
 2459 0320 F4EEE09A 		vcmpe.f32	s19, s1
 2460 0324 F1EE10FA 		vmrs	APSR_nzcv, FPSCR
 2461 0328 07DC     		bgt	.L280
 2462              		.loc 1 1636 0
 2463 032a F4EEC19A 		vcmpe.f32	s19, s2
 2464 032e F1EE10FA 		vmrs	APSR_nzcv, FPSCR
 2465 0332 40F1B380 		bpl	.L332
 2466              		.loc 1 1637 0
 2467 0336 5FED0C8A 		vldr.32	s17, .L337+60
 2468              	.LVL184:
 2469              	.L280:
 2470              		.loc 1 1642 0
 2471 033a F0EE6A0A 		vmov.f32	s1, s21
 2472 033e B0EE4A0A 		vmov.f32	s0, s20
 2473 0342 FFF7FEFF 		bl	utils_min_abs
 2474              	.LVL185:
 2475              		.loc 1 1643 0
 2476 0346 F0EE490A 		vmov.f32	s1, s18
 2477              		.loc 1 1642 0
 2478 034a F0EE409A 		vmov.f32	s19, s0
 2479              	.LVL186:
 2480              		.loc 1 1643 0
 2481 034e B0EE4C0A 		vmov.f32	s0, s24
 2482              	.LVL187:
 2483 0352 FFF7FEFF 		bl	utils_min_abs
 2484              	.LVL188:
 2485              		.loc 1 1645 0
 2486 0356 F0EE6C0A 		vmov.f32	s1, s25
 2487              		.loc 1 1643 0
 2488 035a B0EE409A 		vmov.f32	s18, s0
 2489              	.LVL189:
 2490              		.loc 1 1645 0
 2491 035e B0EE690A 		vmov.f32	s0, s19
 2492              	.LVL190:
 2493 0362 FFF7FEFF 		bl	utils_min_abs
 2494              	.LVL191:
 2495              		.loc 1 1646 0
 2496 0366 F0EE680A 		vmov.f32	s1, s17
 2497 036a FFF7FEFF 		bl	utils_min_abs
 2498              	.LVL192:
 2499              		.loc 1 1647 0
 2500 036e F0EE6B0A 		vmov.f32	s1, s23
 2501 0372 FFF7FEFF 		bl	utils_min_abs
 2502              	.LVL193:
 2503              		.loc 1 1648 0
 2504 0376 F0EE4B0A 		vmov.f32	s1, s22
 2505 037a FFF7FEFF 		bl	utils_min_abs
 2506              	.LVL194:
 2507              		.loc 1 1650 0
 2508 037e D4ED5F7A 		vldr.32	s15, [r4, #380]
ARM GAS  /tmp/ccSws2SG.s 			page 45


 2509 0382 B4EEE70A 		vcmpe.f32	s0, s15
 2510 0386 F1EE10FA 		vmrs	APSR_nzcv, FPSCR
 2511              		.loc 1 1651 0
 2512 038a 48BF     		it	mi
 2513 038c 94ED5F0A 		vldrmi.32	s0, [r4, #380]
 2514              	.LVL195:
 2515              		.loc 1 1654 0
 2516 0390 D4ED5F7A 		vldr.32	s15, [r4, #380]
 2517 0394 F1EE677A 		vneg.f32	s15, s15
 2518 0398 B4EEE79A 		vcmpe.f32	s18, s15
 2519 039c F1EE10FA 		vmrs	APSR_nzcv, FPSCR
 2520              		.loc 1 1655 0
 2521 03a0 C8BF     		it	gt
 2522 03a2 94ED5F9A 		vldrgt.32	s18, [r4, #380]
 2523              	.LVL196:
 2524              		.loc 1 1658 0
 2525 03a6 84ED1B0A 		vstr.32	s0, [r4, #108]
 2526              		.loc 1 1655 0
 2527 03aa C8BF     		it	gt
 2528 03ac B1EE499A 		vneggt.f32	s18, s18
 2529              	.LVL197:
 2530              		.loc 1 1659 0
 2531 03b0 84ED1C9A 		vstr.32	s18, [r4, #112]
 2532              	.LVL198:
 2533              		.loc 1 1663 0
 2534 03b4 D4ED0D7A 		vldr.32	s15, [r4, #52]
 2535 03b8 B4EEE78A 		vcmpe.f32	s16, s15
 2536 03bc F1EE10FA 		vmrs	APSR_nzcv, FPSCR
 2537 03c0 5ADC     		bgt	.L333
 2538              		.loc 1 1665 0
 2539 03c2 D4ED0E7A 		vldr.32	s15, [r4, #56]
 2540 03c6 B4EEE78A 		vcmpe.f32	s16, s15
 2541 03ca F1EE10FA 		vmrs	APSR_nzcv, FPSCR
 2542 03ce 56D5     		bpl	.L334
 2543              		.loc 1 1666 0
 2544 03d0 5FED330A 		vldr.32	s1, .L337+60
 2545              	.LVL199:
 2546              	.L287:
 2547              		.loc 1 1673 0
 2548 03d4 94ED170A 		vldr.32	s0, [r4, #92]
 2549              	.LVL200:
 2550              		.loc 1 1674 0
 2551 03d8 94ED187A 		vldr.32	s14, [r4, #96]
 2552 03dc C7EE088A 		vdiv.f32	s17, s14, s16
 2553              	.LVL201:
 2554              		.loc 1 1676 0
 2555 03e0 80EE080A 		vdiv.f32	s0, s0, s16
 2556              	.LVL202:
 2557 03e4 FFF7FEFF 		bl	utils_min_abs
 2558              	.LVL203:
 2559              		.loc 1 1679 0
 2560 03e8 D4ED037A 		vldr.32	s15, [r4, #12]
 2561 03ec F0EE400A 		vmov.f32	s1, s0
 2562 03f0 B0EE670A 		vmov.f32	s0, s15
 2563              	.LVL204:
 2564 03f4 FFF7FEFF 		bl	utils_min_abs
 2565              	.LVL205:
ARM GAS  /tmp/ccSws2SG.s 			page 46


 2566 03f8 84ED1D0A 		vstr.32	s0, [r4, #116]
 2567              		.loc 1 1680 0
 2568 03fc F0EE680A 		vmov.f32	s1, s17
 2569 0400 94ED040A 		vldr.32	s0, [r4, #16]
 2570 0404 FFF7FEFF 		bl	utils_min_abs
 2571              	.LVL206:
 2572              		.loc 1 1702 0
 2573 0408 BDEC0C8B 		vldm	sp!, {d8-d13}
 2574              		.cfi_remember_state
 2575              		.cfi_restore 90
 2576              		.cfi_restore 91
 2577              		.cfi_restore 88
 2578              		.cfi_restore 89
 2579              		.cfi_restore 86
 2580              		.cfi_restore 87
 2581              		.cfi_restore 84
 2582              		.cfi_restore 85
 2583              		.cfi_restore 82
 2584              		.cfi_restore 83
 2585              		.cfi_restore 80
 2586              		.cfi_restore 81
 2587              		.cfi_def_cfa_offset 24
 2588              	.LVL207:
 2589              		.loc 1 1680 0
 2590 040c 84ED1E0A 		vstr.32	s0, [r4, #120]
 2591              		.loc 1 1700 0
 2592 0410 E36E     		ldr	r3, [r4, #108]	@ float
 2593 0412 E367     		str	r3, [r4, #124]	@ float
 2594              		.loc 1 1701 0
 2595 0414 236F     		ldr	r3, [r4, #112]	@ float
 2596 0416 C4F88030 		str	r3, [r4, #128]	@ float
 2597              		.loc 1 1702 0
 2598 041a F8BD     		pop	{r3, r4, r5, r6, r7, pc}
 2599              	.LVL208:
 2600              	.L318:
 2601              		.cfi_restore_state
 2602              	.LBB160:
 2603              		.loc 1 1550 0
 2604 041c B0EEC9BA 		vabs.f32	s22, s18
 2605              		.loc 1 1549 0
 2606 0420 F0EEE8AA 		vabs.f32	s21, s17
 2607              	.LVL209:
 2608 0424 F4EECBAA 		vcmpe.f32	s21, s22
 2609 0428 F1EE10FA 		vmrs	APSR_nzcv, FPSCR
 2610              	.LVL210:
 2611              		.loc 1 1554 0
 2612 042c 96ED000A 		vldr.32	s0, [r6]
 2613 0430 1FED4B2A 		vldr.32	s4, .L337+60
 2614 0434 D4ED100A 		vldr.32	s1, [r4, #64]
 2615 0438 94ED111A 		vldr.32	s2, [r4, #68]
 2616 043c 54BF     		ite	pl
 2617 043e F0EE6A1A 		vmovpl.f32	s3, s21
 2618 0442 F0EE4B1A 		vmovmi.f32	s3, s22
 2619              	.LVL211:
 2620 0446 FFF7FEFF 		bl	utils_map
 2621              	.LVL212:
 2622              		.loc 1 1556 0
ARM GAS  /tmp/ccSws2SG.s 			page 47


 2623 044a B4EEC0BA 		vcmpe.f32	s22, s0
 2624 044e F1EE10FA 		vmrs	APSR_nzcv, FPSCR
 2625              		.loc 1 1554 0
 2626 0452 B0EE40AA 		vmov.f32	s20, s0
 2627              	.LVL213:
 2628              		.loc 1 1556 0
 2629 0456 55DC     		bgt	.L335
 2630              		.loc 1 1560 0
 2631 0458 F4EECAAA 		vcmpe.f32	s21, s20
 2632 045c F1EE10FA 		vmrs	APSR_nzcv, FPSCR
 2633              	.LBE160:
 2634              		.loc 1 1540 0
 2635 0460 B0EE49CA 		vmov.f32	s24, s18
 2636              	.LVL214:
 2637              	.LBB161:
 2638              		.loc 1 1560 0
 2639 0464 5CDD     		ble	.L321
 2640              	.L336:
 2641              		.loc 1 1561 0
 2642 0466 F5EEC08A 		vcmpe.f32	s17, #0
 2643 046a F1EE10FA 		vmrs	APSR_nzcv, FPSCR
 2644 046e 7FF562AE 		bpl	.L253
 2645 0472 B1EE4AAA 		vneg.f32	s20, s20
 2646              	.LVL215:
 2647 0476 5EE6     		b	.L253
 2648              	.LVL216:
 2649              	.L333:
 2650              	.LBE161:
 2651              		.loc 1 1664 0
 2652 0478 D4ED030A 		vldr.32	s1, [r4, #12]
 2653              	.LVL217:
 2654 047c AAE7     		b	.L287
 2655              	.LVL218:
 2656              	.L334:
 2657              		.loc 1 1668 0
 2658 047e D4ED0D0A 		vldr.32	s1, [r4, #52]
 2659 0482 1FED5F2A 		vldr.32	s4, .L337+60
 2660 0486 94ED0E1A 		vldr.32	s2, [r4, #56]
 2661 048a D4ED031A 		vldr.32	s3, [r4, #12]
 2662 048e B0EE480A 		vmov.f32	s0, s16
 2663              	.LVL219:
 2664 0492 FFF7FEFF 		bl	utils_map
 2665              	.LVL220:
 2666 0496 F0EE400A 		vmov.f32	s1, s0
 2667              	.LVL221:
 2668 049a 9BE7     		b	.L287
 2669              	.LVL222:
 2670              	.L332:
 2671              		.loc 1 1639 0
 2672 049c F0EE681A 		vmov.f32	s3, s17
 2673 04a0 B0EE690A 		vmov.f32	s0, s19
 2674 04a4 1FED682A 		vldr.32	s4, .L337+60
 2675 04a8 FFF7FEFF 		bl	utils_map
 2676              	.LVL223:
 2677 04ac F0EE408A 		vmov.f32	s17, s0
 2678              	.LVL224:
 2679 04b0 43E7     		b	.L280
ARM GAS  /tmp/ccSws2SG.s 			page 48


 2680              	.LVL225:
 2681              	.L331:
 2682              		.loc 1 1614 0
 2683 04b2 F0EE4B0A 		vmov.f32	s1, s22
 2684 04b6 95ED000A 		vldr.32	s0, [r5]
 2685 04ba 1FED6D2A 		vldr.32	s4, .L337+60
 2686 04be B0EE6C1A 		vmov.f32	s2, s25
 2687 04c2 F0EE681A 		vmov.f32	s3, s17
 2688 04c6 FFF7FEFF 		bl	utils_map
 2689              	.LVL226:
 2690 04ca B0EE40BA 		vmov.f32	s22, s0
 2691              	.LVL227:
 2692 04ce D3E6     		b	.L278
 2693              	.LVL228:
 2694              	.L330:
 2695              		.loc 1 1627 0
 2696 04d0 1FED732A 		vldr.32	s4, .L337+60
 2697 04d4 F0EE681A 		vmov.f32	s3, s17
 2698 04d8 B0EE690A 		vmov.f32	s0, s19
 2699 04dc FFF7FEFF 		bl	utils_map
 2700              	.LVL229:
 2701 04e0 F0EE40CA 		vmov.f32	s25, s0
 2702              	.LVL230:
 2703 04e4 14E7     		b	.L279
 2704              	.LVL231:
 2705              	.L328:
 2706              		.loc 1 1604 0
 2707 04e6 F0EE6B0A 		vmov.f32	s1, s23
 2708 04ea 96ED000A 		vldr.32	s0, [r6]
 2709              	.LVL232:
 2710 04ee 1FED7A2A 		vldr.32	s4, .L337+60
 2711 04f2 B0EE4D1A 		vmov.f32	s2, s26
 2712 04f6 F0EE681A 		vmov.f32	s3, s17
 2713 04fa FFF7FEFF 		bl	utils_map
 2714              	.LVL233:
 2715 04fe F0EE40BA 		vmov.f32	s23, s0
 2716              	.LVL234:
 2717 0502 D1E6     		b	.L277
 2718              	.LVL235:
 2719              	.L335:
 2720              	.LBB162:
 2721              		.loc 1 1557 0
 2722 0504 B5EEC09A 		vcmpe.f32	s18, #0
 2723 0508 F1EE10FA 		vmrs	APSR_nzcv, FPSCR
 2724              		.loc 1 1560 0
 2725 050c F4EECAAA 		vcmpe.f32	s21, s20
 2726 0510 4CBF     		ite	mi
 2727 0512 B1EE40CA 		vnegmi.f32	s24, s0
 2728              		.loc 1 1557 0
 2729 0516 B0EE40CA 		vmovpl.f32	s24, s0
 2730              	.LVL236:
 2731              		.loc 1 1560 0
 2732 051a F1EE10FA 		vmrs	APSR_nzcv, FPSCR
 2733 051e A2DC     		bgt	.L336
 2734              	.L321:
 2735              	.LBE162:
 2736              		.loc 1 1541 0
ARM GAS  /tmp/ccSws2SG.s 			page 49


 2737 0520 B0EE68AA 		vmov.f32	s20, s17
 2738 0524 07E6     		b	.L253
 2739              	.LVL237:
 2740              	.L327:
 2741              	.LBB163:
 2742              		.loc 1 1587 0
 2743 0526 F5EEC08A 		vcmpe.f32	s17, #0
 2744 052a F1EE10FA 		vmrs	APSR_nzcv, FPSCR
 2745 052e 7FF551AE 		bpl	.L265
 2746 0532 F1EE6AAA 		vneg.f32	s21, s21
 2747              	.LVL238:
 2748 0536 4DE6     		b	.L265
 2749              	.LVL239:
 2750              	.L256:
 2751              	.LBE163:
 2752              		.loc 1 1546 0
 2753 0538 1FED8DAA 		vldr.32	s20, .L337+60
 2754              	.LBB164:
 2755              	.LBB150:
 2756 053c 0520     		movs	r0, #5
 2757              	.LBE150:
 2758              	.LBE164:
 2759              		.loc 1 1545 0
 2760 053e B0EE4ACA 		vmov.f32	s24, s20
 2761              	.LBB165:
 2762              	.LBB151:
 2763 0542 FFF7FEFF 		bl	mc_interface_fault_stop.part.4
 2764              	.LVL240:
 2765 0546 F6E5     		b	.L253
 2766              	.LVL241:
 2767              	.L268:
 2768              	.LBE151:
 2769              	.LBE165:
 2770              		.loc 1 1572 0
 2771 0548 1FED919A 		vldr.32	s18, .L337+60
 2772              	.LVL242:
 2773              	.LBB166:
 2774              	.LBB156:
 2775 054c 0620     		movs	r0, #6
 2776              	.LBE156:
 2777              	.LBE166:
 2778              		.loc 1 1571 0
 2779 054e F0EE49AA 		vmov.f32	s21, s18
 2780              	.LBB167:
 2781              	.LBB157:
 2782 0552 FFF7FEFF 		bl	mc_interface_fault_stop.part.4
 2783              	.LVL243:
 2784 0556 3DE6     		b	.L265
 2785              	.LBE157:
 2786              	.LBE167:
 2787              		.cfi_endproc
 2788              	.LFE322:
 2789              		.size	update_override_limits.constprop.5, .-update_override_limits.constprop.5
 2790              		.section	.text.timer_thread,"ax",%progbits
 2791              		.align	1
 2792              		.p2align 4,,15
 2793              		.syntax unified
ARM GAS  /tmp/ccSws2SG.s 			page 50


 2794              		.thumb
 2795              		.thumb_func
 2796              		.fpu fpv4-sp-d16
 2797              		.type	timer_thread, %function
 2798              	timer_thread:
 2799              	.LFB315:
 2800              		.loc 1 1704 0
 2801              		.cfi_startproc
 2802              		@ Volatile: function does not return.
 2803              		@ args = 0, pretend = 0, frame = 0
 2804              		@ frame_needed = 0, uses_anonymous_args = 0
 2805              	.LVL244:
 2806              	.LBB168:
 2807              	.LBB169:
 2808              		.loc 2 135 0
 2809 0000 3E4E     		ldr	r6, .L371
 2810 0002 3F4A     		ldr	r2, .L371+4
 2811 0004 B369     		ldr	r3, [r6, #24]
 2812 0006 3F4D     		ldr	r5, .L371+8
 2813 0008 DFF80881 		ldr	r8, .L371+24
 2814 000c 3E4C     		ldr	r4, .L371+12
 2815              	.LBE169:
 2816              	.LBE168:
 2817              		.loc 1 1753 0
 2818 000e 9FED3F8A 		vldr.32	s16, .L371+16
 2819              		.loc 1 1704 0
 2820 0012 80B5     		push	{r7, lr}
 2821              		.cfi_def_cfa_offset 8
 2822              		.cfi_offset 7, -8
 2823              		.cfi_offset 14, -4
 2824              		.loc 1 1715 0
 2825 0014 4FF00009 		mov	r9, #0
 2826              		.loc 1 1714 0
 2827 0018 3D4F     		ldr	r7, .L371+20
 2828              	.LBB171:
 2829              	.LBB170:
 2830              		.loc 2 135 0
 2831 001a 9A61     		str	r2, [r3, #24]
 2832 001c 15E0     		b	.L359
 2833              	.LVL245:
 2834              	.L369:
 2835              	.LBE170:
 2836              	.LBE171:
 2837              		.loc 1 1712 0
 2838 001e 013B     		subs	r3, r3, #1
 2839 0020 2B60     		str	r3, [r5]
 2840              		.loc 1 1719 0
 2841 0022 FFF7FEFF 		bl	update_override_limits.constprop.5
 2842              	.LVL246:
 2843              		.loc 1 1722 0
 2844 0026 94F8B031 		ldrb	r3, [r4, #432]	@ zero_extendqisi2
 2845 002a DBB2     		uxtb	r3, r3
 2846 002c 022B     		cmp	r3, #2
 2847 002e 1BD0     		beq	.L344
 2848              	.L370:
 2849 0030 032B     		cmp	r3, #3
 2850 0032 19D0     		beq	.L344
ARM GAS  /tmp/ccSws2SG.s 			page 51


 2851 0034 012B     		cmp	r3, #1
 2852 0036 17D0     		beq	.L344
 2853              		.loc 1 1752 0
 2854 0038 A378     		ldrb	r3, [r4, #2]	@ zero_extendqisi2
 2855 003a 022B     		cmp	r3, #2
 2856 003c 18D0     		beq	.L367
 2857              	.L347:
 2858              		.loc 1 1758 0
 2859 003e A378     		ldrb	r3, [r4, #2]	@ zero_extendqisi2
 2860 0040 022B     		cmp	r3, #2
 2861 0042 2AD0     		beq	.L368
 2862              	.L352:
 2863              		.loc 1 1768 0
 2864 0044 0A20     		movs	r0, #10
 2865 0046 FFF7FEFF 		bl	chThdSleep
 2866              	.LVL247:
 2867              	.L359:
 2868              		.loc 1 1711 0
 2869 004a 2B68     		ldr	r3, [r5]
 2870 004c 002B     		cmp	r3, #0
 2871 004e E6DC     		bgt	.L369
 2872              		.loc 1 1714 0
 2873 0050 3B69     		ldr	r3, [r7, #16]
 2874 0052 1B06     		lsls	r3, r3, #24
 2875              		.loc 1 1715 0
 2876 0054 48BF     		it	mi
 2877 0056 88F80090 		strbmi	r9, [r8]
 2878              		.loc 1 1719 0
 2879 005a FFF7FEFF 		bl	update_override_limits.constprop.5
 2880              	.LVL248:
 2881              		.loc 1 1722 0
 2882 005e 94F8B031 		ldrb	r3, [r4, #432]	@ zero_extendqisi2
 2883 0062 DBB2     		uxtb	r3, r3
 2884 0064 022B     		cmp	r3, #2
 2885 0066 E3D1     		bne	.L370
 2886              	.L344:
 2887              	.LBB172:
 2888              	.LBB173:
 2889              		.file 3 "ChibiOS_3.0.2/os/rt/include/chvt.h"
 2890              		.loc 3 231 0
 2891 0068 B36A     		ldr	r3, [r6, #40]
 2892              	.LBE173:
 2893              	.LBE172:
 2894              		.loc 1 1752 0
 2895 006a A378     		ldrb	r3, [r4, #2]	@ zero_extendqisi2
 2896 006c 022B     		cmp	r3, #2
 2897 006e E6D1     		bne	.L347
 2898              	.L367:
 2899              		.loc 1 1753 0 discriminator 1
 2900 0070 94F81431 		ldrb	r3, [r4, #276]	@ zero_extendqisi2
 2901              		.loc 1 1752 0 discriminator 1
 2902 0074 012B     		cmp	r3, #1
 2903 0076 E2D1     		bne	.L347
 2904              		.loc 1 1754 0
 2905 0078 FFF7FEFF 		bl	encoder_spi_get_error_rate
 2906              	.LVL249:
 2907              		.loc 1 1753 0
ARM GAS  /tmp/ccSws2SG.s 			page 52


 2908 007c B4EEC80A 		vcmpe.f32	s0, s16
 2909 0080 F1EE10FA 		vmrs	APSR_nzcv, FPSCR
 2910 0084 DBDD     		ble	.L347
 2911              	.LVL250:
 2912              	.LBB174:
 2913              	.LBB175:
 2914              		.loc 1 1194 0
 2915 0086 98F80030 		ldrb	r3, [r8]	@ zero_extendqisi2
 2916 008a 0B2B     		cmp	r3, #11
 2917 008c 2AD1     		bne	.L350
 2918              		.loc 1 1195 0
 2919 008e D4F88831 		ldr	r3, [r4, #392]
 2920 0092 2B60     		str	r3, [r5]
 2921              	.LBE175:
 2922              	.LBE174:
 2923              		.loc 1 1758 0
 2924 0094 A378     		ldrb	r3, [r4, #2]	@ zero_extendqisi2
 2925 0096 022B     		cmp	r3, #2
 2926 0098 D4D1     		bne	.L352
 2927              	.LVL251:
 2928              	.L368:
 2929              		.loc 1 1759 0 discriminator 1
 2930 009a 94F81431 		ldrb	r3, [r4, #276]	@ zero_extendqisi2
 2931              		.loc 1 1758 0 discriminator 1
 2932 009e 012B     		cmp	r3, #1
 2933 00a0 D0D1     		bne	.L352
 2934              		.loc 1 1760 0
 2935 00a2 94F89831 		ldrb	r3, [r4, #408]	@ zero_extendqisi2
 2936              		.loc 1 1759 0
 2937 00a6 042B     		cmp	r3, #4
 2938 00a8 CCD1     		bne	.L352
 2939              		.loc 1 1762 0
 2940 00aa FFF7FEFF 		bl	encoder_sincos_get_signal_below_min_error_rate
 2941              	.LVL252:
 2942 00ae B4EEC80A 		vcmpe.f32	s0, s16
 2943 00b2 F1EE10FA 		vmrs	APSR_nzcv, FPSCR
 2944 00b6 06DD     		ble	.L354
 2945              	.LVL253:
 2946              	.LBB177:
 2947              	.LBB178:
 2948              		.loc 1 1194 0
 2949 00b8 98F80030 		ldrb	r3, [r8]	@ zero_extendqisi2
 2950 00bc 0C2B     		cmp	r3, #12
 2951 00be 15D1     		bne	.L356
 2952              		.loc 1 1195 0
 2953 00c0 D4F88831 		ldr	r3, [r4, #392]
 2954 00c4 2B60     		str	r3, [r5]
 2955              	.LVL254:
 2956              	.L354:
 2957              	.LBE178:
 2958              	.LBE177:
 2959              		.loc 1 1764 0
 2960 00c6 FFF7FEFF 		bl	encoder_sincos_get_signal_above_max_error_rate
 2961              	.LVL255:
 2962 00ca B4EEC80A 		vcmpe.f32	s0, s16
 2963 00ce F1EE10FA 		vmrs	APSR_nzcv, FPSCR
 2964 00d2 B7DD     		ble	.L352
ARM GAS  /tmp/ccSws2SG.s 			page 53


 2965              	.LVL256:
 2966              	.LBB180:
 2967              	.LBB181:
 2968              		.loc 1 1194 0
 2969 00d4 98F80030 		ldrb	r3, [r8]	@ zero_extendqisi2
 2970 00d8 0D2B     		cmp	r3, #13
 2971 00da 0BD1     		bne	.L358
 2972              		.loc 1 1195 0
 2973 00dc D4F88831 		ldr	r3, [r4, #392]
 2974 00e0 2B60     		str	r3, [r5]
 2975 00e2 AFE7     		b	.L352
 2976              	.LVL257:
 2977              	.L350:
 2978              	.LBE181:
 2979              	.LBE180:
 2980              	.LBB183:
 2981              	.LBB176:
 2982 00e4 0B20     		movs	r0, #11
 2983 00e6 FFF7FEFF 		bl	mc_interface_fault_stop.part.4
 2984              	.LVL258:
 2985 00ea A8E7     		b	.L347
 2986              	.LVL259:
 2987              	.L356:
 2988              	.LBE176:
 2989              	.LBE183:
 2990              	.LBB184:
 2991              	.LBB179:
 2992 00ec 0C20     		movs	r0, #12
 2993 00ee FFF7FEFF 		bl	mc_interface_fault_stop.part.4
 2994              	.LVL260:
 2995 00f2 E8E7     		b	.L354
 2996              	.LVL261:
 2997              	.L358:
 2998              	.LBE179:
 2999              	.LBE184:
 3000              	.LBB185:
 3001              	.LBB182:
 3002 00f4 0D20     		movs	r0, #13
 3003 00f6 FFF7FEFF 		bl	mc_interface_fault_stop.part.4
 3004              	.LVL262:
 3005 00fa A3E7     		b	.L352
 3006              	.L372:
 3007              		.align	2
 3008              	.L371:
 3009 00fc 00000000 		.word	ch
 3010 0100 00000000 		.word	.LC2
 3011 0104 00000000 		.word	.LANCHOR14
 3012 0108 00000000 		.word	.LANCHOR12
 3013 010c CDCC4C3D 		.word	1028443341
 3014 0110 00040240 		.word	1073873920
 3015 0114 00000000 		.word	.LANCHOR13
 3016              	.LBE182:
 3017              	.LBE185:
 3018              		.cfi_endproc
 3019              	.LFE315:
 3020              		.size	timer_thread, .-timer_thread
 3021              		.section	.text.mc_interface_set_configuration,"ax",%progbits
ARM GAS  /tmp/ccSws2SG.s 			page 54


 3022              		.align	1
 3023              		.p2align 4,,15
 3024              		.global	mc_interface_set_configuration
 3025              		.syntax unified
 3026              		.thumb
 3027              		.thumb_func
 3028              		.fpu fpv4-sp-d16
 3029              		.type	mc_interface_set_configuration, %function
 3030              	mc_interface_set_configuration:
 3031              	.LFB258:
 3032              		.loc 1 201 0
 3033              		.cfi_startproc
 3034              		@ args = 0, pretend = 0, frame = 0
 3035              		@ frame_needed = 0, uses_anonymous_args = 0
 3036              	.LVL263:
 3037 0000 38B5     		push	{r3, r4, r5, lr}
 3038              		.cfi_def_cfa_offset 16
 3039              		.cfi_offset 3, -16
 3040              		.cfi_offset 4, -12
 3041              		.cfi_offset 5, -8
 3042              		.cfi_offset 14, -4
 3043              		.loc 1 203 0
 3044 0002 424D     		ldr	r5, .L396
 3045 0004 90F89831 		ldrb	r3, [r0, #408]	@ zero_extendqisi2
 3046 0008 95F89821 		ldrb	r2, [r5, #408]	@ zero_extendqisi2
 3047 000c 9A42     		cmp	r2, r3
 3048              		.loc 1 201 0
 3049 000e 0446     		mov	r4, r0
 3050              		.loc 1 203 0
 3051 0010 3ED1     		bne	.L393
 3052              	.LVL264:
 3053              	.L374:
 3054              		.loc 1 229 0
 3055 0012 012B     		cmp	r3, #1
 3056 0014 48D0     		beq	.L394
 3057              	.L375:
 3058              		.loc 1 235 0
 3059 0016 94F89A01 		ldrb	r0, [r4, #410]	@ zero_extendqisi2
 3060 001a FFF7FEFF 		bl	drv8301_set_oc_mode
 3061              	.LVL265:
 3062              		.loc 1 236 0
 3063 001e D4F89C01 		ldr	r0, [r4, #412]
 3064 0022 FFF7FEFF 		bl	drv8301_set_oc_adj
 3065              	.LVL266:
 3066              		.loc 1 245 0
 3067 0026 AB78     		ldrb	r3, [r5, #2]	@ zero_extendqisi2
 3068 0028 A278     		ldrb	r2, [r4, #2]	@ zero_extendqisi2
 3069 002a 9A42     		cmp	r2, r3
 3070 002c 1DD1     		bne	.L395
 3071              		.loc 1 270 0
 3072 002e 2146     		mov	r1, r4
 3073 0030 4FF4E472 		mov	r2, #456
 3074 0034 3548     		ldr	r0, .L396
 3075 0036 FFF7FEFF 		bl	memcpy
 3076              	.LVL267:
 3077              	.L382:
 3078              		.loc 1 273 0
ARM GAS  /tmp/ccSws2SG.s 			page 55


 3079 003a FFF7FEFF 		bl	update_override_limits.constprop.5
 3080              	.LVL268:
 3081              		.loc 1 275 0
 3082 003e AB78     		ldrb	r3, [r5, #2]	@ zero_extendqisi2
 3083 0040 032B     		cmp	r3, #3
 3084 0042 30D8     		bhi	.L373
 3085 0044 DFE803F0 		tbb	[pc, r3]
 3086              	.L389:
 3087 0048 0C       		.byte	(.L388-.L389)/2
 3088 0049 0C       		.byte	(.L388-.L389)/2
 3089 004a 07       		.byte	(.L390-.L389)/2
 3090 004b 02       		.byte	(.L391-.L389)/2
 3091              		.p2align 1
 3092              	.L391:
 3093              		.loc 1 286 0
 3094 004c 2F48     		ldr	r0, .L396
 3095              		.loc 1 292 0
 3096 004e BDE83840 		pop	{r3, r4, r5, lr}
 3097              		.cfi_remember_state
 3098              		.cfi_restore 14
 3099              		.cfi_restore 5
 3100              		.cfi_restore 4
 3101              		.cfi_restore 3
 3102              		.cfi_def_cfa_offset 0
 3103              	.LVL269:
 3104              		.loc 1 286 0
 3105 0052 FFF7FEBF 		b	gpdrive_set_configuration
 3106              	.LVL270:
 3107              	.L390:
 3108              		.cfi_restore_state
 3109              		.loc 1 282 0
 3110 0056 2D48     		ldr	r0, .L396
 3111              		.loc 1 292 0
 3112 0058 BDE83840 		pop	{r3, r4, r5, lr}
 3113              		.cfi_remember_state
 3114              		.cfi_restore 14
 3115              		.cfi_restore 5
 3116              		.cfi_restore 4
 3117              		.cfi_restore 3
 3118              		.cfi_def_cfa_offset 0
 3119              	.LVL271:
 3120              		.loc 1 282 0
 3121 005c FFF7FEBF 		b	mcpwm_foc_set_configuration
 3122              	.LVL272:
 3123              	.L388:
 3124              		.cfi_restore_state
 3125              		.loc 1 278 0
 3126 0060 2A48     		ldr	r0, .L396
 3127              		.loc 1 292 0
 3128 0062 BDE83840 		pop	{r3, r4, r5, lr}
 3129              		.cfi_remember_state
 3130              		.cfi_restore 14
 3131              		.cfi_restore 5
 3132              		.cfi_restore 4
 3133              		.cfi_restore 3
 3134              		.cfi_def_cfa_offset 0
 3135              	.LVL273:
ARM GAS  /tmp/ccSws2SG.s 			page 56


 3136              		.loc 1 278 0
 3137 0066 FFF7FEBF 		b	mcpwm_set_configuration
 3138              	.LVL274:
 3139              	.L395:
 3140              		.cfi_restore_state
 3141              		.loc 1 246 0
 3142 006a FFF7FEFF 		bl	mcpwm_deinit
 3143              	.LVL275:
 3144              		.loc 1 247 0
 3145 006e FFF7FEFF 		bl	mcpwm_foc_deinit
 3146              	.LVL276:
 3147              		.loc 1 248 0
 3148 0072 FFF7FEFF 		bl	gpdrive_deinit
 3149              	.LVL277:
 3150              		.loc 1 250 0
 3151 0076 2146     		mov	r1, r4
 3152 0078 4FF4E472 		mov	r2, #456
 3153 007c 2348     		ldr	r0, .L396
 3154 007e FFF7FEFF 		bl	memcpy
 3155              	.LVL278:
 3156              		.loc 1 252 0
 3157 0082 AB78     		ldrb	r3, [r5, #2]	@ zero_extendqisi2
 3158 0084 032B     		cmp	r3, #3
 3159 0086 D8D8     		bhi	.L382
 3160 0088 DFE803F0 		tbb	[pc, r3]
 3161              	.L384:
 3162 008c 1B       		.byte	(.L383-.L384)/2
 3163 008d 1B       		.byte	(.L383-.L384)/2
 3164 008e 17       		.byte	(.L385-.L384)/2
 3165 008f 13       		.byte	(.L386-.L384)/2
 3166              	.LVL279:
 3167              		.p2align 1
 3168              	.L393:
 3169              		.loc 1 204 0
 3170 0090 FFF7FEFF 		bl	encoder_deinit
 3171              	.LVL280:
 3172              		.loc 1 205 0
 3173 0094 94F89831 		ldrb	r3, [r4, #408]	@ zero_extendqisi2
 3174 0098 013B     		subs	r3, r3, #1
 3175 009a 032B     		cmp	r3, #3
 3176 009c BBD8     		bhi	.L375
 3177 009e DFE803F0 		tbb	[pc, r3]
 3178              	.L377:
 3179 00a2 2D       		.byte	(.L376-.L377)/2
 3180 00a3 28       		.byte	(.L378-.L377)/2
 3181 00a4 23       		.byte	(.L379-.L377)/2
 3182 00a5 14       		.byte	(.L380-.L377)/2
 3183              		.p2align 1
 3184              	.L373:
 3185              		.loc 1 292 0
 3186 00a6 38BD     		pop	{r3, r4, r5, pc}
 3187              	.LVL281:
 3188              	.L394:
 3189              		.loc 1 230 0
 3190 00a8 D4F89401 		ldr	r0, [r4, #404]
 3191 00ac FFF7FEFF 		bl	encoder_set_counts
 3192              	.LVL282:
ARM GAS  /tmp/ccSws2SG.s 			page 57


 3193 00b0 B1E7     		b	.L375
 3194              	.L386:
 3195              		.loc 1 263 0
 3196 00b2 1648     		ldr	r0, .L396
 3197 00b4 FFF7FEFF 		bl	gpdrive_init
 3198              	.LVL283:
 3199              		.loc 1 264 0
 3200 00b8 BFE7     		b	.L382
 3201              	.L385:
 3202              		.loc 1 259 0
 3203 00ba 1448     		ldr	r0, .L396
 3204 00bc FFF7FEFF 		bl	mcpwm_foc_init
 3205              	.LVL284:
 3206              		.loc 1 260 0
 3207 00c0 BBE7     		b	.L382
 3208              	.L383:
 3209              		.loc 1 255 0
 3210 00c2 1248     		ldr	r0, .L396
 3211 00c4 FFF7FEFF 		bl	mcpwm_init
 3212              	.LVL285:
 3213              		.loc 1 256 0
 3214 00c8 B7E7     		b	.L382
 3215              	.L380:
 3216              		.loc 1 219 0
 3217 00ca 95ED330A 		vldr.32	s0, [r5, #204]
 3218 00ce D5ED320A 		vldr.32	s1, [r5, #200]
 3219 00d2 95ED351A 		vldr.32	s2, [r5, #212]
 3220 00d6 D5ED341A 		vldr.32	s3, [r5, #208]
 3221 00da 95ED362A 		vldr.32	s4, [r5, #216]
 3222 00de FFF7FEFF 		bl	encoder_init_sincos
 3223              	.LVL286:
 3224 00e2 94F89831 		ldrb	r3, [r4, #408]	@ zero_extendqisi2
 3225              		.loc 1 222 0
 3226 00e6 94E7     		b	.L374
 3227              	.L379:
 3228              		.loc 1 215 0
 3229 00e8 FFF7FEFF 		bl	encoder_init_ad2s1205_spi
 3230              	.LVL287:
 3231 00ec 94F89831 		ldrb	r3, [r4, #408]	@ zero_extendqisi2
 3232              		.loc 1 216 0
 3233 00f0 8FE7     		b	.L374
 3234              	.L378:
 3235              		.loc 1 211 0
 3236 00f2 FFF7FEFF 		bl	encoder_init_as5047p_spi
 3237              	.LVL288:
 3238 00f6 94F89831 		ldrb	r3, [r4, #408]	@ zero_extendqisi2
 3239              		.loc 1 212 0
 3240 00fa 8AE7     		b	.L374
 3241              	.L376:
 3242              		.loc 1 207 0
 3243 00fc D4F89401 		ldr	r0, [r4, #404]
 3244 0100 FFF7FEFF 		bl	encoder_init_abi
 3245              	.LVL289:
 3246 0104 94F89831 		ldrb	r3, [r4, #408]	@ zero_extendqisi2
 3247              		.loc 1 208 0
 3248 0108 83E7     		b	.L374
 3249              	.L397:
ARM GAS  /tmp/ccSws2SG.s 			page 58


 3250 010a 00BF     		.align	2
 3251              	.L396:
 3252 010c 00000000 		.word	.LANCHOR12
 3253              		.cfi_endproc
 3254              	.LFE258:
 3255              		.size	mc_interface_set_configuration, .-mc_interface_set_configuration
 3256              		.section	.text.mc_interface_get_tachometer_abs_value,"ax",%progbits
 3257              		.align	1
 3258              		.p2align 4,,15
 3259              		.global	mc_interface_get_tachometer_abs_value
 3260              		.syntax unified
 3261              		.thumb
 3262              		.thumb_func
 3263              		.fpu fpv4-sp-d16
 3264              		.type	mc_interface_get_tachometer_abs_value, %function
 3265              	mc_interface_get_tachometer_abs_value:
 3266              	.LFB294:
 3267              		.loc 1 894 0
 3268              		.cfi_startproc
 3269              		@ args = 0, pretend = 0, frame = 0
 3270              		@ frame_needed = 0, uses_anonymous_args = 0
 3271              		@ link register save eliminated.
 3272              	.LVL290:
 3273              		.loc 1 897 0
 3274 0000 064B     		ldr	r3, .L404
 3275 0002 9B78     		ldrb	r3, [r3, #2]	@ zero_extendqisi2
 3276 0004 DBB2     		uxtb	r3, r3
 3277 0006 012B     		cmp	r3, #1
 3278 0008 05D9     		bls	.L400
 3279 000a 022B     		cmp	r3, #2
 3280 000c 01D1     		bne	.L403
 3281              		.loc 1 904 0
 3282 000e FFF7FEBF 		b	mcpwm_foc_get_tachometer_abs_value
 3283              	.LVL291:
 3284              	.L403:
 3285              		.loc 1 912 0
 3286 0012 0020     		movs	r0, #0
 3287              	.LVL292:
 3288 0014 7047     		bx	lr
 3289              	.LVL293:
 3290              	.L400:
 3291              		.loc 1 900 0
 3292 0016 FFF7FEBF 		b	mcpwm_get_tachometer_abs_value
 3293              	.LVL294:
 3294              	.L405:
 3295 001a 00BF     		.align	2
 3296              	.L404:
 3297 001c 00000000 		.word	.LANCHOR12
 3298              		.cfi_endproc
 3299              	.LFE294:
 3300              		.size	mc_interface_get_tachometer_abs_value, .-mc_interface_get_tachometer_abs_value
 3301              		.section	.text.mc_interface_get_last_inj_adc_isr_duration,"ax",%progbits
 3302              		.align	1
 3303              		.p2align 4,,15
 3304              		.global	mc_interface_get_last_inj_adc_isr_duration
 3305              		.syntax unified
 3306              		.thumb
ARM GAS  /tmp/ccSws2SG.s 			page 59


 3307              		.thumb_func
 3308              		.fpu fpv4-sp-d16
 3309              		.type	mc_interface_get_last_inj_adc_isr_duration, %function
 3310              	mc_interface_get_last_inj_adc_isr_duration:
 3311              	.LFB295:
 3312              		.loc 1 914 0
 3313              		.cfi_startproc
 3314              		@ args = 0, pretend = 0, frame = 0
 3315              		@ frame_needed = 0, uses_anonymous_args = 0
 3316              		@ link register save eliminated.
 3317              	.LVL295:
 3318              		.loc 1 917 0
 3319 0000 084B     		ldr	r3, .L412
 3320 0002 9B78     		ldrb	r3, [r3, #2]	@ zero_extendqisi2
 3321 0004 032B     		cmp	r3, #3
 3322 0006 09D8     		bhi	.L407
 3323 0008 DFE803F0 		tbb	[pc, r3]
 3324              	.L409:
 3325 000c 06       		.byte	(.L408-.L409)/2
 3326 000d 06       		.byte	(.L408-.L409)/2
 3327 000e 04       		.byte	(.L410-.L409)/2
 3328 000f 02       		.byte	(.L411-.L409)/2
 3329              		.p2align 1
 3330              	.L411:
 3331              		.loc 1 928 0
 3332 0010 FFF7FEBF 		b	gpdrive_get_last_adc_isr_duration
 3333              	.LVL296:
 3334              	.L410:
 3335              		.loc 1 924 0
 3336 0014 FFF7FEBF 		b	mcpwm_foc_get_last_adc_isr_duration
 3337              	.LVL297:
 3338              	.L408:
 3339              		.loc 1 920 0
 3340 0018 FFF7FEBF 		b	mcpwm_get_last_inj_adc_isr_duration
 3341              	.LVL298:
 3342              	.L407:
 3343              		.loc 1 936 0
 3344 001c 9FED020A 		vldr.32	s0, .L412+4
 3345 0020 7047     		bx	lr
 3346              	.L413:
 3347 0022 00BF     		.align	2
 3348              	.L412:
 3349 0024 00000000 		.word	.LANCHOR12
 3350 0028 00000000 		.word	0
 3351              		.cfi_endproc
 3352              	.LFE295:
 3353              		.size	mc_interface_get_last_inj_adc_isr_duration, .-mc_interface_get_last_inj_adc_isr_duration
 3354              		.section	.text.mc_interface_read_reset_avg_motor_current,"ax",%progbits
 3355              		.align	1
 3356              		.p2align 4,,15
 3357              		.global	mc_interface_read_reset_avg_motor_current
 3358              		.syntax unified
 3359              		.thumb
 3360              		.thumb_func
 3361              		.fpu fpv4-sp-d16
 3362              		.type	mc_interface_read_reset_avg_motor_current, %function
 3363              	mc_interface_read_reset_avg_motor_current:
ARM GAS  /tmp/ccSws2SG.s 			page 60


 3364              	.LFB296:
 3365              		.loc 1 938 0
 3366              		.cfi_startproc
 3367              		@ args = 0, pretend = 0, frame = 0
 3368              		@ frame_needed = 0, uses_anonymous_args = 0
 3369              		@ link register save eliminated.
 3370              		.loc 1 939 0
 3371 0000 084B     		ldr	r3, .L417
 3372 0002 9B78     		ldrb	r3, [r3, #2]	@ zero_extendqisi2
 3373 0004 032B     		cmp	r3, #3
 3374 0006 0BD0     		beq	.L416
 3375              		.loc 1 943 0
 3376 0008 0749     		ldr	r1, .L417+4
 3377 000a 084B     		ldr	r3, .L417+8
 3378 000c 91ED000A 		vldr.32	s0, [r1]
 3379 0010 D3ED007A 		vldr.32	s15, [r3]
 3380              	.LVL299:
 3381              		.loc 1 944 0
 3382 0014 0022     		movs	r2, #0
 3383 0016 0A60     		str	r2, [r1]	@ float
 3384              		.loc 1 947 0
 3385 0018 80EE270A 		vdiv.f32	s0, s0, s15
 3386              	.LVL300:
 3387              		.loc 1 945 0
 3388 001c 1A60     		str	r2, [r3]	@ float
 3389              		.loc 1 947 0
 3390 001e 7047     		bx	lr
 3391              	.LVL301:
 3392              	.L416:
 3393              		.loc 1 940 0
 3394 0020 FFF7FEBF 		b	gpdrive_get_current_filtered
 3395              	.LVL302:
 3396              	.L418:
 3397              		.align	2
 3398              	.L417:
 3399 0024 00000000 		.word	.LANCHOR12
 3400 0028 00000000 		.word	.LANCHOR18
 3401 002c 00000000 		.word	.LANCHOR20
 3402              		.cfi_endproc
 3403              	.LFE296:
 3404              		.size	mc_interface_read_reset_avg_motor_current, .-mc_interface_read_reset_avg_motor_current
 3405              		.section	.text.mc_interface_read_reset_avg_input_current,"ax",%progbits
 3406              		.align	1
 3407              		.p2align 4,,15
 3408              		.global	mc_interface_read_reset_avg_input_current
 3409              		.syntax unified
 3410              		.thumb
 3411              		.thumb_func
 3412              		.fpu fpv4-sp-d16
 3413              		.type	mc_interface_read_reset_avg_input_current, %function
 3414              	mc_interface_read_reset_avg_input_current:
 3415              	.LFB297:
 3416              		.loc 1 949 0
 3417              		.cfi_startproc
 3418              		@ args = 0, pretend = 0, frame = 0
 3419              		@ frame_needed = 0, uses_anonymous_args = 0
 3420 0000 08B5     		push	{r3, lr}
ARM GAS  /tmp/ccSws2SG.s 			page 61


 3421              		.cfi_def_cfa_offset 8
 3422              		.cfi_offset 3, -8
 3423              		.cfi_offset 14, -4
 3424              		.loc 1 950 0
 3425 0002 0F4B     		ldr	r3, .L424
 3426 0004 9B78     		ldrb	r3, [r3, #2]	@ zero_extendqisi2
 3427 0006 032B     		cmp	r3, #3
 3428              		.loc 1 949 0
 3429 0008 2DED028B 		vpush.64	{d8}
 3430              		.cfi_def_cfa_offset 16
 3431              		.cfi_offset 80, -16
 3432              		.cfi_offset 81, -12
 3433              		.loc 1 950 0
 3434 000c 0DD0     		beq	.L423
 3435              		.loc 1 958 0
 3436 000e BDEC028B 		vldm	sp!, {d8}
 3437              		.cfi_remember_state
 3438              		.cfi_restore 80
 3439              		.cfi_restore 81
 3440              		.cfi_def_cfa_offset 8
 3441              		.loc 1 954 0
 3442 0012 0C49     		ldr	r1, .L424+4
 3443 0014 0C4B     		ldr	r3, .L424+8
 3444 0016 91ED007A 		vldr.32	s14, [r1]
 3445 001a D3ED007A 		vldr.32	s15, [r3]
 3446              		.loc 1 955 0
 3447 001e 0022     		movs	r2, #0
 3448              		.loc 1 954 0
 3449 0020 87EE270A 		vdiv.f32	s0, s14, s15
 3450              	.LVL303:
 3451              		.loc 1 955 0
 3452 0024 0A60     		str	r2, [r1]	@ float
 3453              		.loc 1 956 0
 3454 0026 1A60     		str	r2, [r3]	@ float
 3455              		.loc 1 958 0
 3456 0028 08BD     		pop	{r3, pc}
 3457              	.LVL304:
 3458              	.L423:
 3459              		.cfi_restore_state
 3460              		.loc 1 951 0
 3461 002a FFF7FEFF 		bl	gpdrive_get_current_filtered
 3462              	.LVL305:
 3463 002e B0EE408A 		vmov.f32	s16, s0
 3464 0032 FFF7FEFF 		bl	gpdrive_get_modulation
 3465              	.LVL306:
 3466 0036 28EE000A 		vmul.f32	s0, s16, s0
 3467              		.loc 1 958 0
 3468 003a BDEC028B 		vldm	sp!, {d8}
 3469              		.cfi_restore 80
 3470              		.cfi_restore 81
 3471              		.cfi_def_cfa_offset 8
 3472 003e 08BD     		pop	{r3, pc}
 3473              	.L425:
 3474              		.align	2
 3475              	.L424:
 3476 0040 00000000 		.word	.LANCHOR12
 3477 0044 00000000 		.word	.LANCHOR19
ARM GAS  /tmp/ccSws2SG.s 			page 62


 3478 0048 00000000 		.word	.LANCHOR21
 3479              		.cfi_endproc
 3480              	.LFE297:
 3481              		.size	mc_interface_read_reset_avg_input_current, .-mc_interface_read_reset_avg_input_current
 3482              		.section	.text.mc_interface_read_reset_avg_id,"ax",%progbits
 3483              		.align	1
 3484              		.p2align 4,,15
 3485              		.global	mc_interface_read_reset_avg_id
 3486              		.syntax unified
 3487              		.thumb
 3488              		.thumb_func
 3489              		.fpu fpv4-sp-d16
 3490              		.type	mc_interface_read_reset_avg_id, %function
 3491              	mc_interface_read_reset_avg_id:
 3492              	.LFB298:
 3493              		.loc 1 966 0
 3494              		.cfi_startproc
 3495              		@ args = 0, pretend = 0, frame = 0
 3496              		@ frame_needed = 0, uses_anonymous_args = 0
 3497              		@ link register save eliminated.
 3498              		.loc 1 967 0
 3499 0000 084B     		ldr	r3, .L431
 3500 0002 0949     		ldr	r1, .L431+4
 3501              		.loc 1 970 0
 3502 0004 0948     		ldr	r0, .L431+8
 3503              		.loc 1 967 0
 3504 0006 91ED007A 		vldr.32	s14, [r1]
 3505 000a D3ED007A 		vldr.32	s15, [r3]
 3506              		.loc 1 968 0
 3507 000e 0022     		movs	r2, #0
 3508 0010 0A60     		str	r2, [r1]	@ float
 3509              		.loc 1 969 0
 3510 0012 1A60     		str	r2, [r3]	@ float
 3511              		.loc 1 970 0
 3512 0014 90F89931 		ldrb	r3, [r0, #409]	@ zero_extendqisi2
 3513              		.loc 1 967 0
 3514 0018 87EE270A 		vdiv.f32	s0, s14, s15
 3515              	.LVL307:
 3516              		.loc 1 970 0
 3517 001c 0BB1     		cbz	r3, .L426
 3518 001e B1EE400A 		vneg.f32	s0, s0
 3519              	.LVL308:
 3520              	.L426:
 3521              		.loc 1 971 0
 3522 0022 7047     		bx	lr
 3523              	.L432:
 3524              		.align	2
 3525              	.L431:
 3526 0024 00000000 		.word	.LANCHOR24
 3527 0028 00000000 		.word	.LANCHOR22
 3528 002c 00000000 		.word	.LANCHOR12
 3529              		.cfi_endproc
 3530              	.LFE298:
 3531              		.size	mc_interface_read_reset_avg_id, .-mc_interface_read_reset_avg_id
 3532              		.section	.text.mc_interface_read_reset_avg_iq,"ax",%progbits
 3533              		.align	1
 3534              		.p2align 4,,15
ARM GAS  /tmp/ccSws2SG.s 			page 63


 3535              		.global	mc_interface_read_reset_avg_iq
 3536              		.syntax unified
 3537              		.thumb
 3538              		.thumb_func
 3539              		.fpu fpv4-sp-d16
 3540              		.type	mc_interface_read_reset_avg_iq, %function
 3541              	mc_interface_read_reset_avg_iq:
 3542              	.LFB299:
 3543              		.loc 1 979 0
 3544              		.cfi_startproc
 3545              		@ args = 0, pretend = 0, frame = 0
 3546              		@ frame_needed = 0, uses_anonymous_args = 0
 3547              		@ link register save eliminated.
 3548              		.loc 1 980 0
 3549 0000 084B     		ldr	r3, .L438
 3550 0002 0949     		ldr	r1, .L438+4
 3551              		.loc 1 983 0
 3552 0004 0948     		ldr	r0, .L438+8
 3553              		.loc 1 980 0
 3554 0006 91ED007A 		vldr.32	s14, [r1]
 3555 000a D3ED007A 		vldr.32	s15, [r3]
 3556              		.loc 1 981 0
 3557 000e 0022     		movs	r2, #0
 3558 0010 0A60     		str	r2, [r1]	@ float
 3559              		.loc 1 982 0
 3560 0012 1A60     		str	r2, [r3]	@ float
 3561              		.loc 1 983 0
 3562 0014 90F89931 		ldrb	r3, [r0, #409]	@ zero_extendqisi2
 3563              		.loc 1 980 0
 3564 0018 87EE270A 		vdiv.f32	s0, s14, s15
 3565              	.LVL309:
 3566              		.loc 1 983 0
 3567 001c 0BB1     		cbz	r3, .L433
 3568 001e B1EE400A 		vneg.f32	s0, s0
 3569              	.LVL310:
 3570              	.L433:
 3571              		.loc 1 984 0
 3572 0022 7047     		bx	lr
 3573              	.L439:
 3574              		.align	2
 3575              	.L438:
 3576 0024 00000000 		.word	.LANCHOR25
 3577 0028 00000000 		.word	.LANCHOR23
 3578 002c 00000000 		.word	.LANCHOR12
 3579              		.cfi_endproc
 3580              	.LFE299:
 3581              		.size	mc_interface_read_reset_avg_iq, .-mc_interface_read_reset_avg_iq
 3582              		.section	.text.mc_interface_get_pid_pos_set,"ax",%progbits
 3583              		.align	1
 3584              		.p2align 4,,15
 3585              		.global	mc_interface_get_pid_pos_set
 3586              		.syntax unified
 3587              		.thumb
 3588              		.thumb_func
 3589              		.fpu fpv4-sp-d16
 3590              		.type	mc_interface_get_pid_pos_set, %function
 3591              	mc_interface_get_pid_pos_set:
ARM GAS  /tmp/ccSws2SG.s 			page 64


 3592              	.LFB300:
 3593              		.loc 1 986 0
 3594              		.cfi_startproc
 3595              		@ args = 0, pretend = 0, frame = 0
 3596              		@ frame_needed = 0, uses_anonymous_args = 0
 3597              		@ link register save eliminated.
 3598              		.loc 1 987 0
 3599 0000 014B     		ldr	r3, .L441
 3600 0002 93ED000A 		vldr.32	s0, [r3]
 3601              		.loc 1 988 0
 3602 0006 7047     		bx	lr
 3603              	.L442:
 3604              		.align	2
 3605              	.L441:
 3606 0008 00000000 		.word	.LANCHOR30
 3607              		.cfi_endproc
 3608              	.LFE300:
 3609              		.size	mc_interface_get_pid_pos_set, .-mc_interface_get_pid_pos_set
 3610              		.section	.text.mc_interface_get_pid_pos_now,"ax",%progbits
 3611              		.align	1
 3612              		.p2align 4,,15
 3613              		.global	mc_interface_get_pid_pos_now
 3614              		.syntax unified
 3615              		.thumb
 3616              		.thumb_func
 3617              		.fpu fpv4-sp-d16
 3618              		.type	mc_interface_get_pid_pos_now, %function
 3619              	mc_interface_get_pid_pos_now:
 3620              	.LFB301:
 3621              		.loc 1 990 0
 3622              		.cfi_startproc
 3623              		@ args = 0, pretend = 0, frame = 8
 3624              		@ frame_needed = 0, uses_anonymous_args = 0
 3625 0000 10B5     		push	{r4, lr}
 3626              		.cfi_def_cfa_offset 8
 3627              		.cfi_offset 4, -8
 3628              		.cfi_offset 14, -4
 3629              		.loc 1 993 0
 3630 0002 104C     		ldr	r4, .L454
 3631              		.loc 1 991 0
 3632 0004 9FED100A 		vldr.32	s0, .L454+4
 3633              		.loc 1 993 0
 3634 0008 A378     		ldrb	r3, [r4, #2]	@ zero_extendqisi2
 3635 000a DBB2     		uxtb	r3, r3
 3636              		.loc 1 990 0
 3637 000c 82B0     		sub	sp, sp, #8
 3638              		.cfi_def_cfa_offset 16
 3639              		.loc 1 993 0
 3640 000e 012B     		cmp	r3, #1
 3641              		.loc 1 991 0
 3642 0010 8DED010A 		vstr.32	s0, [sp, #4]
 3643              		.loc 1 993 0
 3644 0014 12D9     		bls	.L445
 3645 0016 022B     		cmp	r3, #2
 3646 0018 0DD0     		beq	.L446
 3647              	.L444:
 3648              		.loc 1 1007 0
ARM GAS  /tmp/ccSws2SG.s 			page 65


 3649 001a 94F89931 		ldrb	r3, [r4, #409]	@ zero_extendqisi2
 3650 001e 0BB1     		cbz	r3, .L447
 3651 0020 B1EE400A 		vneg.f32	s0, s0
 3652              	.L447:
 3653              		.loc 1 1007 0 is_stmt 0 discriminator 4
 3654 0024 02A8     		add	r0, sp, #8
 3655 0026 20ED010A 		vstmdb.32	r0!, {s0}
 3656              		.loc 1 1008 0 is_stmt 1 discriminator 4
 3657 002a FFF7FEFF 		bl	utils_norm_angle
 3658              	.LVL311:
 3659              		.loc 1 1011 0 discriminator 4
 3660 002e 9DED010A 		vldr.32	s0, [sp, #4]
 3661 0032 02B0     		add	sp, sp, #8
 3662              		.cfi_remember_state
 3663              		.cfi_def_cfa_offset 8
 3664              		@ sp needed
 3665 0034 10BD     		pop	{r4, pc}
 3666              	.L446:
 3667              		.cfi_restore_state
 3668              		.loc 1 1000 0
 3669 0036 FFF7FEFF 		bl	mcpwm_foc_get_pid_pos_now
 3670              	.LVL312:
 3671              		.loc 1 1001 0
 3672 003a EEE7     		b	.L444
 3673              	.L445:
 3674              		.loc 1 996 0
 3675 003c FFF7FEFF 		bl	encoder_read_deg
 3676              	.LVL313:
 3677              		.loc 1 997 0
 3678 0040 EBE7     		b	.L444
 3679              	.L455:
 3680 0042 00BF     		.align	2
 3681              	.L454:
 3682 0044 00000000 		.word	.LANCHOR12
 3683 0048 00000000 		.word	0
 3684              		.cfi_endproc
 3685              	.LFE301:
 3686              		.size	mc_interface_get_pid_pos_now, .-mc_interface_get_pid_pos_now
 3687              		.section	.text.mc_interface_get_last_sample_adc_isr_duration,"ax",%progbits
 3688              		.align	1
 3689              		.p2align 4,,15
 3690              		.global	mc_interface_get_last_sample_adc_isr_duration
 3691              		.syntax unified
 3692              		.thumb
 3693              		.thumb_func
 3694              		.fpu fpv4-sp-d16
 3695              		.type	mc_interface_get_last_sample_adc_isr_duration, %function
 3696              	mc_interface_get_last_sample_adc_isr_duration:
 3697              	.LFB302:
 3698              		.loc 1 1013 0
 3699              		.cfi_startproc
 3700              		@ args = 0, pretend = 0, frame = 0
 3701              		@ frame_needed = 0, uses_anonymous_args = 0
 3702              		@ link register save eliminated.
 3703              		.loc 1 1014 0
 3704 0000 014B     		ldr	r3, .L457
 3705 0002 93ED000A 		vldr.32	s0, [r3]
ARM GAS  /tmp/ccSws2SG.s 			page 66


 3706              		.loc 1 1015 0
 3707 0006 7047     		bx	lr
 3708              	.L458:
 3709              		.align	2
 3710              	.L457:
 3711 0008 00000000 		.word	.LANCHOR31
 3712              		.cfi_endproc
 3713              	.LFE302:
 3714              		.size	mc_interface_get_last_sample_adc_isr_duration, .-mc_interface_get_last_sample_adc_isr_durati
 3715              		.section	.text.mc_interface_sample_print_data,"ax",%progbits
 3716              		.align	1
 3717              		.p2align 4,,15
 3718              		.global	mc_interface_sample_print_data
 3719              		.syntax unified
 3720              		.thumb
 3721              		.thumb_func
 3722              		.fpu fpv4-sp-d16
 3723              		.type	mc_interface_sample_print_data, %function
 3724              	mc_interface_sample_print_data:
 3725              	.LFB303:
 3726              		.loc 1 1017 0
 3727              		.cfi_startproc
 3728              		@ args = 0, pretend = 0, frame = 0
 3729              		@ frame_needed = 0, uses_anonymous_args = 0
 3730              		@ link register save eliminated.
 3731              	.LVL314:
 3732 0000 B1F5FA6F 		cmp	r1, #2000
 3733 0004 28BF     		it	cs
 3734 0006 4FF4FA61 		movcs	r1, #2000
 3735              	.LVL315:
 3736              		.loc 1 1022 0
 3737 000a 0728     		cmp	r0, #7
 3738 000c 0FD0     		beq	.L463
 3739              		.loc 1 1017 0
 3740 000e F0B4     		push	{r4, r5, r6, r7}
 3741              		.cfi_def_cfa_offset 16
 3742              		.cfi_offset 4, -16
 3743              		.cfi_offset 5, -12
 3744              		.cfi_offset 6, -8
 3745              		.cfi_offset 7, -4
 3746              		.loc 1 1025 0
 3747 0010 094E     		ldr	r6, .L464
 3748              		.loc 1 1026 0
 3749 0012 0A4B     		ldr	r3, .L464+4
 3750              		.loc 1 1027 0
 3751 0014 0A4D     		ldr	r5, .L464+8
 3752              		.loc 1 1028 0
 3753 0016 0B4C     		ldr	r4, .L464+12
 3754              		.loc 1 1025 0
 3755 0018 4FF0FF37 		mov	r7, #-1
 3756 001c 3760     		str	r7, [r6]
 3757              		.loc 1 1026 0
 3758 001e 0026     		movs	r6, #0
 3759 0020 1E60     		str	r6, [r3]
 3760              		.loc 1 1029 0
 3761 0022 094B     		ldr	r3, .L464+16
 3762              		.loc 1 1027 0
ARM GAS  /tmp/ccSws2SG.s 			page 67


 3763 0024 2960     		str	r1, [r5]
 3764              		.loc 1 1028 0
 3765 0026 2260     		str	r2, [r4]
 3766              		.loc 1 1029 0
 3767 0028 1870     		strb	r0, [r3]
 3768              		.loc 1 1031 0
 3769 002a F0BC     		pop	{r4, r5, r6, r7}
 3770              		.cfi_restore 7
 3771              		.cfi_restore 6
 3772              		.cfi_restore 5
 3773              		.cfi_restore 4
 3774              		.cfi_def_cfa_offset 0
 3775 002c 7047     		bx	lr
 3776              	.L463:
 3777              		.loc 1 1023 0
 3778 002e 074B     		ldr	r3, .L464+20
 3779 0030 0121     		movs	r1, #1
 3780              	.LVL316:
 3781 0032 1868     		ldr	r0, [r3]
 3782              	.LVL317:
 3783 0034 FFF7FEBF 		b	chEvtSignal
 3784              	.LVL318:
 3785              	.L465:
 3786              		.align	2
 3787              	.L464:
 3788 0038 00000000 		.word	.LANCHOR3
 3789 003c 00000000 		.word	.LANCHOR36
 3790 0040 00000000 		.word	.LANCHOR2
 3791 0044 00000000 		.word	.LANCHOR35
 3792 0048 00000000 		.word	.LANCHOR37
 3793 004c 00000000 		.word	.LANCHOR0
 3794              		.cfi_endproc
 3795              	.LFE303:
 3796              		.size	mc_interface_sample_print_data, .-mc_interface_sample_print_data
 3797              		.section	.text.mc_interface_temp_fet_filtered,"ax",%progbits
 3798              		.align	1
 3799              		.p2align 4,,15
 3800              		.global	mc_interface_temp_fet_filtered
 3801              		.syntax unified
 3802              		.thumb
 3803              		.thumb_func
 3804              		.fpu fpv4-sp-d16
 3805              		.type	mc_interface_temp_fet_filtered, %function
 3806              	mc_interface_temp_fet_filtered:
 3807              	.LFB304:
 3808              		.loc 1 1040 0
 3809              		.cfi_startproc
 3810              		@ args = 0, pretend = 0, frame = 0
 3811              		@ frame_needed = 0, uses_anonymous_args = 0
 3812              		@ link register save eliminated.
 3813              		.loc 1 1041 0
 3814 0000 014B     		ldr	r3, .L467
 3815 0002 93ED000A 		vldr.32	s0, [r3]
 3816              		.loc 1 1042 0
 3817 0006 7047     		bx	lr
 3818              	.L468:
 3819              		.align	2
ARM GAS  /tmp/ccSws2SG.s 			page 68


 3820              	.L467:
 3821 0008 00000000 		.word	.LANCHOR32
 3822              		.cfi_endproc
 3823              	.LFE304:
 3824              		.size	mc_interface_temp_fet_filtered, .-mc_interface_temp_fet_filtered
 3825              		.section	.text.mc_interface_temp_motor_filtered,"ax",%progbits
 3826              		.align	1
 3827              		.p2align 4,,15
 3828              		.global	mc_interface_temp_motor_filtered
 3829              		.syntax unified
 3830              		.thumb
 3831              		.thumb_func
 3832              		.fpu fpv4-sp-d16
 3833              		.type	mc_interface_temp_motor_filtered, %function
 3834              	mc_interface_temp_motor_filtered:
 3835              	.LFB305:
 3836              		.loc 1 1051 0
 3837              		.cfi_startproc
 3838              		@ args = 0, pretend = 0, frame = 0
 3839              		@ frame_needed = 0, uses_anonymous_args = 0
 3840              		@ link register save eliminated.
 3841              		.loc 1 1052 0
 3842 0000 014B     		ldr	r3, .L470
 3843 0002 93ED000A 		vldr.32	s0, [r3]
 3844              		.loc 1 1053 0
 3845 0006 7047     		bx	lr
 3846              	.L471:
 3847              		.align	2
 3848              	.L470:
 3849 0008 00000000 		.word	.LANCHOR33
 3850              		.cfi_endproc
 3851              	.LFE305:
 3852              		.size	mc_interface_temp_motor_filtered, .-mc_interface_temp_motor_filtered
 3853              		.section	.text.mc_interface_get_battery_level,"ax",%progbits
 3854              		.align	1
 3855              		.p2align 4,,15
 3856              		.global	mc_interface_get_battery_level
 3857              		.syntax unified
 3858              		.thumb
 3859              		.thumb_func
 3860              		.fpu fpv4-sp-d16
 3861              		.type	mc_interface_get_battery_level, %function
 3862              	mc_interface_get_battery_level:
 3863              	.LFB306:
 3864              		.loc 1 1065 0
 3865              		.cfi_startproc
 3866              		@ args = 0, pretend = 0, frame = 0
 3867              		@ frame_needed = 0, uses_anonymous_args = 0
 3868              	.LVL319:
 3869 0000 70B5     		push	{r4, r5, r6, lr}
 3870              		.cfi_def_cfa_offset 16
 3871              		.cfi_offset 4, -16
 3872              		.cfi_offset 5, -12
 3873              		.cfi_offset 6, -8
 3874              		.cfi_offset 14, -4
 3875              		.loc 1 1067 0
 3876 0002 464B     		ldr	r3, .L485
ARM GAS  /tmp/ccSws2SG.s 			page 69


 3877              		.loc 1 1072 0
 3878 0004 464C     		ldr	r4, .L485+4
 3879              		.loc 1 1067 0
 3880 0006 DB8A     		ldrh	r3, [r3, #22]
 3881 0008 DFED467A 		vldr.32	s15, .L485+8
 3882 000c 9FED460A 		vldr.32	s0, .L485+12
 3883              		.loc 1 1065 0
 3884 0010 2DED048B 		vpush.64	{d8, d9}
 3885              		.cfi_def_cfa_offset 32
 3886              		.cfi_offset 80, -32
 3887              		.cfi_offset 81, -28
 3888              		.cfi_offset 82, -24
 3889              		.cfi_offset 83, -20
 3890              		.loc 1 1067 0
 3891 0014 08EE103A 		vmov	s16, r3	@ int
 3892              		.loc 1 1072 0
 3893 0018 94F8BC31 		ldrb	r3, [r4, #444]	@ zero_extendqisi2
 3894              		.loc 1 1067 0
 3895 001c B8EE488A 		vcvt.f32.u32	s16, s16
 3896              		.loc 1 1072 0
 3897 0020 DBB2     		uxtb	r3, r3
 3898              		.loc 1 1067 0
 3899 0022 28EE278A 		vmul.f32	s16, s16, s15
 3900              		.loc 1 1072 0
 3901 0026 012B     		cmp	r3, #1
 3902              		.loc 1 1065 0
 3903 0028 0546     		mov	r5, r0
 3904              		.loc 1 1067 0
 3905 002a 28EE008A 		vmul.f32	s16, s16, s0
 3906              	.LVL320:
 3907              		.loc 1 1072 0
 3908 002e 4CD0     		beq	.L474
 3909 0030 3AD3     		bcc	.L475
 3910 0032 022B     		cmp	r3, #2
 3911 0034 0FD0     		beq	.L476
 3912 0036 9FED3D0A 		vldr.32	s0, .L485+16
 3913              		.loc 1 1068 0
 3914 003a F0EE408A 		vmov.f32	s17, s0
 3915              	.LVL321:
 3916              	.L473:
 3917              		.loc 1 1099 0
 3918 003e D4ED717A 		vldr.32	s15, [r4, #452]
 3919 0042 67EEA88A 		vmul.f32	s17, s15, s17
 3920              	.LVL322:
 3921              		.loc 1 1102 0
 3922 0046 0DB1     		cbz	r5, .L477
 3923              		.loc 1 1103 0
 3924 0048 85ED000A 		vstr.32	s0, [r5]
 3925              	.L477:
 3926              		.loc 1 1107 0
 3927 004c 80EE280A 		vdiv.f32	s0, s0, s17
 3928 0050 BDEC048B 		vldm	sp!, {d8-d9}
 3929              		.cfi_remember_state
 3930              		.cfi_restore 82
 3931              		.cfi_restore 83
 3932              		.cfi_restore 80
 3933              		.cfi_restore 81
ARM GAS  /tmp/ccSws2SG.s 			page 70


 3934              		.cfi_def_cfa_offset 16
 3935 0054 70BD     		pop	{r4, r5, r6, pc}
 3936              	.LVL323:
 3937              	.L476:
 3938              		.cfi_restore_state
 3939              		.loc 1 1089 0
 3940 0056 D4ED708A 		vldr.32	s17, [r4, #448]	@ int
 3941              		.loc 1 1091 0
 3942 005a 9FED359A 		vldr.32	s18, .L485+20
 3943              		.loc 1 1090 0
 3944 005e D4F8C061 		ldr	r6, [r4, #448]
 3945              		.loc 1 1089 0
 3946 0062 DFED347A 		vldr.32	s15, .L485+24
 3947              		.loc 1 1091 0
 3948 0066 94ED700A 		vldr.32	s0, [r4, #448]	@ int
 3949 006a DFED301A 		vldr.32	s3, .L485+16
 3950 006e 94ED712A 		vldr.32	s4, [r4, #452]
 3951 0072 9FED311A 		vldr.32	s2, .L485+28
 3952              	.L484:
 3953 0076 B8EEC00A 		vcvt.f32.s32	s0, s0
 3954              		.loc 1 1089 0
 3955 007a F8EEE88A 		vcvt.f32.s32	s17, s17
 3956              		.loc 1 1091 0
 3957 007e 88EE000A 		vdiv.f32	s0, s16, s0
 3958 0082 F0EE490A 		vmov.f32	s1, s18
 3959              		.loc 1 1089 0
 3960 0086 68EEA78A 		vmul.f32	s17, s17, s15
 3961              	.LVL324:
 3962              		.loc 1 1091 0
 3963 008a FFF7FEFF 		bl	utils_map
 3964              	.LVL325:
 3965              		.loc 1 1090 0
 3966 008e 07EE906A 		vmov	s15, r6	@ int
 3967 0092 F8EEE77A 		vcvt.f32.s32	s15, s15
 3968 0096 B6EE007A 		vmov.f32	s14, #5.0e-1
 3969 009a A7EE898A 		vfma.f32	s16, s15, s18
 3970              	.LVL326:
 3971 009e 28EE078A 		vmul.f32	s16, s16, s14
 3972 00a2 28EE000A 		vmul.f32	s0, s16, s0
 3973              	.LVL327:
 3974              		.loc 1 1093 0
 3975 00a6 CAE7     		b	.L473
 3976              	.LVL328:
 3977              	.L475:
 3978              		.loc 1 1074 0
 3979 00a8 D4ED708A 		vldr.32	s17, [r4, #448]	@ int
 3980              		.loc 1 1076 0
 3981 00ac 9FED239A 		vldr.32	s18, .L485+32
 3982              		.loc 1 1075 0
 3983 00b0 D4F8C061 		ldr	r6, [r4, #448]
 3984              		.loc 1 1074 0
 3985 00b4 DFED227A 		vldr.32	s15, .L485+36
 3986              		.loc 1 1076 0
 3987 00b8 94ED700A 		vldr.32	s0, [r4, #448]	@ int
 3988 00bc DFED1B1A 		vldr.32	s3, .L485+16
 3989 00c0 94ED712A 		vldr.32	s4, [r4, #452]
 3990 00c4 9FED1F1A 		vldr.32	s2, .L485+40
ARM GAS  /tmp/ccSws2SG.s 			page 71


 3991 00c8 D5E7     		b	.L484
 3992              	.L474:
 3993              		.loc 1 1081 0
 3994 00ca D4ED708A 		vldr.32	s17, [r4, #448]	@ int
 3995              		.loc 1 1082 0
 3996 00ce D4F8C061 		ldr	r6, [r4, #448]
 3997              		.loc 1 1083 0
 3998 00d2 94ED700A 		vldr.32	s0, [r4, #448]	@ int
 3999              		.loc 1 1081 0
 4000 00d6 DFED1C7A 		vldr.32	s15, .L485+44
 4001              		.loc 1 1083 0
 4002 00da 94ED712A 		vldr.32	s4, [r4, #452]
 4003 00de DFED131A 		vldr.32	s3, .L485+16
 4004 00e2 9FED1A1A 		vldr.32	s2, .L485+48
 4005 00e6 DFED1A0A 		vldr.32	s1, .L485+52
 4006 00ea B8EEC00A 		vcvt.f32.s32	s0, s0
 4007              		.loc 1 1081 0
 4008 00ee F8EEE88A 		vcvt.f32.s32	s17, s17
 4009              		.loc 1 1083 0
 4010 00f2 88EE000A 		vdiv.f32	s0, s16, s0
 4011              		.loc 1 1081 0
 4012 00f6 68EEA78A 		vmul.f32	s17, s17, s15
 4013              	.LVL329:
 4014              		.loc 1 1083 0
 4015 00fa FFF7FEFF 		bl	utils_map
 4016              	.LVL330:
 4017              		.loc 1 1082 0
 4018 00fe 07EE906A 		vmov	s15, r6	@ int
 4019 0102 9FED147A 		vldr.32	s14, .L485+56
 4020 0106 F8EEE77A 		vcvt.f32.s32	s15, s15
 4021 010a A7EE878A 		vfma.f32	s16, s15, s14
 4022              	.LVL331:
 4023 010e F6EE007A 		vmov.f32	s15, #5.0e-1
 4024 0112 28EE278A 		vmul.f32	s16, s16, s15
 4025              	.LVL332:
 4026 0116 28EE000A 		vmul.f32	s0, s16, s0
 4027              	.LVL333:
 4028              		.loc 1 1085 0
 4029 011a 90E7     		b	.L473
 4030              	.L486:
 4031              		.align	2
 4032              	.L485:
 4033 011c 00000000 		.word	.LANCHOR42
 4034 0120 00000000 		.word	.LANCHOR12
 4035 0124 6740533A 		.word	978534503
 4036 0128 74D19541 		.word	1100337524
 4037 012c 00000000 		.word	0
 4038 0130 66660640 		.word	1074161254
 4039 0134 52B80E40 		.word	1074706514
 4040 0138 3D0A1740 		.word	1075251773
 4041 013c CDCC4C40 		.word	1078774989
 4042 0140 CCCC6C40 		.word	1080872140
 4043 0144 66668640 		.word	1082549862
 4044 0148 CCCC4C40 		.word	1078774988
 4045 014c 66666640 		.word	1080452710
 4046 0150 66662640 		.word	1076258406
 4047 0154 33333340 		.word	1077097267
ARM GAS  /tmp/ccSws2SG.s 			page 72


 4048              		.cfi_endproc
 4049              	.LFE306:
 4050              		.size	mc_interface_get_battery_level, .-mc_interface_get_battery_level
 4051              		.section	.text.mc_interface_get_speed,"ax",%progbits
 4052              		.align	1
 4053              		.p2align 4,,15
 4054              		.global	mc_interface_get_speed
 4055              		.syntax unified
 4056              		.thumb
 4057              		.thumb_func
 4058              		.fpu fpv4-sp-d16
 4059              		.type	mc_interface_get_speed, %function
 4060              	mc_interface_get_speed:
 4061              	.LFB307:
 4062              		.loc 1 1115 0
 4063              		.cfi_startproc
 4064              		@ args = 0, pretend = 0, frame = 0
 4065              		@ frame_needed = 0, uses_anonymous_args = 0
 4066 0000 08B5     		push	{r3, lr}
 4067              		.cfi_def_cfa_offset 8
 4068              		.cfi_offset 3, -8
 4069              		.cfi_offset 14, -4
 4070              		.loc 1 1117 0
 4071 0002 FFF7FEFF 		bl	mc_interface_get_rpm
 4072              	.LVL334:
 4073 0006 0D4B     		ldr	r3, .L489
 4074              		.loc 1 1118 0
 4075 0008 DFED0D5A 		vldr.32	s11, .L489+4
 4076              		.loc 1 1117 0
 4077 000c 93F8B121 		ldrb	r2, [r3, #433]	@ zero_extendqisi2
 4078              		.loc 1 1118 0
 4079 0010 93ED6E6A 		vldr.32	s12, [r3, #440]
 4080 0014 DFED0B6A 		vldr.32	s13, .L489+8
 4081 0018 93ED6D7A 		vldr.32	s14, [r3, #436]
 4082              		.loc 1 1117 0
 4083 001c 07EE902A 		vmov	s15, r2	@ int
 4084              	.LVL335:
 4085 0020 FAEEEF7A 		vcvt.f32.s32	s15, s15, #1
 4086 0024 80EE275A 		vdiv.f32	s10, s0, s15
 4087              		.loc 1 1118 0
 4088 0028 85EE250A 		vdiv.f32	s0, s10, s11
 4089              	.LVL336:
 4090 002c 20EE060A 		vmul.f32	s0, s0, s12
 4091 0030 20EE260A 		vmul.f32	s0, s0, s13
 4092              		.loc 1 1119 0
 4093 0034 80EE070A 		vdiv.f32	s0, s0, s14
 4094 0038 08BD     		pop	{r3, pc}
 4095              	.L490:
 4096 003a 00BF     		.align	2
 4097              	.L489:
 4098 003c 00000000 		.word	.LANCHOR12
 4099 0040 00007042 		.word	1114636288
 4100 0044 DB0F4940 		.word	1078530011
 4101              		.cfi_endproc
 4102              	.LFE307:
 4103              		.size	mc_interface_get_speed, .-mc_interface_get_speed
 4104              		.section	.text.mc_interface_get_distance,"ax",%progbits
ARM GAS  /tmp/ccSws2SG.s 			page 73


 4105              		.align	1
 4106              		.p2align 4,,15
 4107              		.global	mc_interface_get_distance
 4108              		.syntax unified
 4109              		.thumb
 4110              		.thumb_func
 4111              		.fpu fpv4-sp-d16
 4112              		.type	mc_interface_get_distance, %function
 4113              	mc_interface_get_distance:
 4114              	.LFB308:
 4115              		.loc 1 1127 0
 4116              		.cfi_startproc
 4117              		@ args = 0, pretend = 0, frame = 0
 4118              		@ frame_needed = 0, uses_anonymous_args = 0
 4119 0000 08B5     		push	{r3, lr}
 4120              		.cfi_def_cfa_offset 8
 4121              		.cfi_offset 3, -8
 4122              		.cfi_offset 14, -4
 4123 0002 2DED028B 		vpush.64	{d8}
 4124              		.cfi_def_cfa_offset 16
 4125              		.cfi_offset 80, -16
 4126              		.cfi_offset 81, -12
 4127              		.loc 1 1129 0
 4128 0006 114B     		ldr	r3, .L493
 4129 0008 9FED116A 		vldr.32	s12, .L493+4
 4130 000c 93ED6E7A 		vldr.32	s14, [r3, #440]
 4131 0010 93F8B121 		ldrb	r2, [r3, #433]	@ zero_extendqisi2
 4132 0014 D3ED6D6A 		vldr.32	s13, [r3, #436]
 4133 0018 07EE902A 		vmov	s15, r2	@ int
 4134 001c F8EEE77A 		vcvt.f32.s32	s15, s15
 4135 0020 F0EE085A 		vmov.f32	s11, #3.0e+0
 4136 0024 67EEA57A 		vmul.f32	s15, s15, s11
 4137 0028 27EE067A 		vmul.f32	s14, s14, s12
 4138 002c 67EEA67A 		vmul.f32	s15, s15, s13
 4139              		.loc 1 1130 0
 4140 0030 0020     		movs	r0, #0
 4141              		.loc 1 1129 0
 4142 0032 87EE278A 		vdiv.f32	s16, s14, s15
 4143              	.LVL337:
 4144              		.loc 1 1130 0
 4145 0036 FFF7FEFF 		bl	mc_interface_get_tachometer_value
 4146              	.LVL338:
 4147 003a 07EE900A 		vmov	s15, r0	@ int
 4148 003e B8EEE70A 		vcvt.f32.s32	s0, s15
 4149              		.loc 1 1131 0
 4150 0042 20EE080A 		vmul.f32	s0, s0, s16
 4151 0046 BDEC028B 		vldm	sp!, {d8}
 4152              		.cfi_restore 80
 4153              		.cfi_restore 81
 4154              		.cfi_def_cfa_offset 8
 4155              	.LVL339:
 4156 004a 08BD     		pop	{r3, pc}
 4157              	.L494:
 4158              		.align	2
 4159              	.L493:
 4160 004c 00000000 		.word	.LANCHOR12
 4161 0050 DB0F4940 		.word	1078530011
ARM GAS  /tmp/ccSws2SG.s 			page 74


 4162              		.cfi_endproc
 4163              	.LFE308:
 4164              		.size	mc_interface_get_distance, .-mc_interface_get_distance
 4165              		.section	.text.mc_interface_get_distance_abs,"ax",%progbits
 4166              		.align	1
 4167              		.p2align 4,,15
 4168              		.global	mc_interface_get_distance_abs
 4169              		.syntax unified
 4170              		.thumb
 4171              		.thumb_func
 4172              		.fpu fpv4-sp-d16
 4173              		.type	mc_interface_get_distance_abs, %function
 4174              	mc_interface_get_distance_abs:
 4175              	.LFB309:
 4176              		.loc 1 1139 0
 4177              		.cfi_startproc
 4178              		@ args = 0, pretend = 0, frame = 0
 4179              		@ frame_needed = 0, uses_anonymous_args = 0
 4180 0000 08B5     		push	{r3, lr}
 4181              		.cfi_def_cfa_offset 8
 4182              		.cfi_offset 3, -8
 4183              		.cfi_offset 14, -4
 4184 0002 2DED028B 		vpush.64	{d8}
 4185              		.cfi_def_cfa_offset 16
 4186              		.cfi_offset 80, -16
 4187              		.cfi_offset 81, -12
 4188              		.loc 1 1141 0
 4189 0006 114B     		ldr	r3, .L497
 4190 0008 9FED116A 		vldr.32	s12, .L497+4
 4191 000c 93ED6E7A 		vldr.32	s14, [r3, #440]
 4192 0010 93F8B121 		ldrb	r2, [r3, #433]	@ zero_extendqisi2
 4193 0014 D3ED6D6A 		vldr.32	s13, [r3, #436]
 4194 0018 07EE902A 		vmov	s15, r2	@ int
 4195 001c F8EEE77A 		vcvt.f32.s32	s15, s15
 4196 0020 F0EE085A 		vmov.f32	s11, #3.0e+0
 4197 0024 67EEA57A 		vmul.f32	s15, s15, s11
 4198 0028 27EE067A 		vmul.f32	s14, s14, s12
 4199 002c 67EEA67A 		vmul.f32	s15, s15, s13
 4200              		.loc 1 1142 0
 4201 0030 0020     		movs	r0, #0
 4202              		.loc 1 1141 0
 4203 0032 87EE278A 		vdiv.f32	s16, s14, s15
 4204              	.LVL340:
 4205              		.loc 1 1142 0
 4206 0036 FFF7FEFF 		bl	mc_interface_get_tachometer_abs_value
 4207              	.LVL341:
 4208 003a 07EE900A 		vmov	s15, r0	@ int
 4209 003e B8EEE70A 		vcvt.f32.s32	s0, s15
 4210              		.loc 1 1143 0
 4211 0042 20EE080A 		vmul.f32	s0, s0, s16
 4212 0046 BDEC028B 		vldm	sp!, {d8}
 4213              		.cfi_restore 80
 4214              		.cfi_restore 81
 4215              		.cfi_def_cfa_offset 8
 4216              	.LVL342:
 4217 004a 08BD     		pop	{r3, pc}
 4218              	.L498:
ARM GAS  /tmp/ccSws2SG.s 			page 75


 4219              		.align	2
 4220              	.L497:
 4221 004c 00000000 		.word	.LANCHOR12
 4222 0050 DB0F4940 		.word	1078530011
 4223              		.cfi_endproc
 4224              	.LFE309:
 4225              		.size	mc_interface_get_distance_abs, .-mc_interface_get_distance_abs
 4226              		.section	.text.mc_interface_try_input,"ax",%progbits
 4227              		.align	1
 4228              		.p2align 4,,15
 4229              		.global	mc_interface_try_input
 4230              		.syntax unified
 4231              		.thumb
 4232              		.thumb_func
 4233              		.fpu fpv4-sp-d16
 4234              		.type	mc_interface_try_input, %function
 4235              	mc_interface_try_input:
 4236              	.LFB310:
 4237              		.loc 1 1155 0
 4238              		.cfi_startproc
 4239              		@ args = 0, pretend = 0, frame = 0
 4240              		@ frame_needed = 0, uses_anonymous_args = 0
 4241 0000 10B5     		push	{r4, lr}
 4242              		.cfi_def_cfa_offset 8
 4243              		.cfi_offset 4, -8
 4244              		.cfi_offset 14, -4
 4245              		.loc 1 1157 0
 4246 0002 FFF7FEFF 		bl	mc_interface_get_state
 4247              	.LVL343:
 4248 0006 0128     		cmp	r0, #1
 4249 0008 22D0     		beq	.L514
 4250              		.loc 1 1162 0
 4251 000a 164B     		ldr	r3, .L518
 4252 000c 1C68     		ldr	r4, [r3]
 4253              	.LVL344:
 4254              		.loc 1 1164 0
 4255 000e 14B9     		cbnz	r4, .L501
 4256              		.loc 1 1164 0 is_stmt 0 discriminator 1
 4257 0010 154B     		ldr	r3, .L518+4
 4258 0012 1B78     		ldrb	r3, [r3]	@ zero_extendqisi2
 4259 0014 63B9     		cbnz	r3, .L515
 4260              	.LVL345:
 4261              	.L501:
 4262              		.loc 1 1172 0 is_stmt 1
 4263 0016 154B     		ldr	r3, .L518+8
 4264 0018 9B78     		ldrb	r3, [r3, #2]	@ zero_extendqisi2
 4265 001a DBB2     		uxtb	r3, r3
 4266 001c 012B     		cmp	r3, #1
 4267 001e 11D9     		bls	.L503
 4268              	.L517:
 4269 0020 022B     		cmp	r3, #2
 4270 0022 03D1     		bne	.L499
 4271              		.loc 1 1181 0
 4272 0024 FFF7FEFF 		bl	mcpwm_foc_init_done
 4273              	.LVL346:
 4274 0028 00B9     		cbnz	r0, .L499
 4275              	.LVL347:
ARM GAS  /tmp/ccSws2SG.s 			page 76


 4276              		.loc 1 1176 0
 4277 002a 0124     		movs	r4, #1
 4278              	.LVL348:
 4279              	.L499:
 4280              		.loc 1 1191 0
 4281 002c 2046     		mov	r0, r4
 4282 002e 10BD     		pop	{r4, pc}
 4283              	.LVL349:
 4284              	.L515:
 4285              		.loc 1 1165 0
 4286 0030 0F4B     		ldr	r3, .L518+12
 4287 0032 1A78     		ldrb	r2, [r3]	@ zero_extendqisi2
 4288 0034 9AB9     		cbnz	r2, .L516
 4289              		.loc 1 1172 0
 4290 0036 0D4B     		ldr	r3, .L518+8
 4291 0038 9B78     		ldrb	r3, [r3, #2]	@ zero_extendqisi2
 4292 003a DBB2     		uxtb	r3, r3
 4293 003c 012B     		cmp	r3, #1
 4294              		.loc 1 1166 0
 4295 003e 4FF00104 		mov	r4, #1
 4296              	.LVL350:
 4297              		.loc 1 1172 0
 4298 0042 EDD8     		bhi	.L517
 4299              	.L503:
 4300              		.loc 1 1175 0
 4301 0044 FFF7FEFF 		bl	mcpwm_init_done
 4302              	.LVL351:
 4303 0048 0028     		cmp	r0, #0
 4304 004a EFD1     		bne	.L499
 4305              	.LVL352:
 4306              		.loc 1 1176 0
 4307 004c 0124     		movs	r4, #1
 4308 004e EDE7     		b	.L499
 4309              	.LVL353:
 4310              	.L514:
 4311              		.loc 1 1158 0
 4312 0050 FFF7FEFF 		bl	mcpwm_stop_pwm
 4313              	.LVL354:
 4314              		.loc 1 1159 0
 4315 0054 034B     		ldr	r3, .L518
 4316 0056 4FF4FA74 		mov	r4, #500
 4317 005a 1C60     		str	r4, [r3]
 4318              	.LVL355:
 4319 005c DBE7     		b	.L501
 4320              	.LVL356:
 4321              	.L516:
 4322              		.loc 1 1168 0
 4323 005e 1C70     		strb	r4, [r3]
 4324 0060 D9E7     		b	.L501
 4325              	.L519:
 4326 0062 00BF     		.align	2
 4327              	.L518:
 4328 0064 00000000 		.word	.LANCHOR14
 4329 0068 00000000 		.word	.LANCHOR16
 4330 006c 00000000 		.word	.LANCHOR12
 4331 0070 00000000 		.word	.LANCHOR17
 4332              		.cfi_endproc
ARM GAS  /tmp/ccSws2SG.s 			page 77


 4333              	.LFE310:
 4334              		.size	mc_interface_try_input, .-mc_interface_try_input
 4335              		.section	.text.mc_interface_set_duty,"ax",%progbits
 4336              		.align	1
 4337              		.p2align 4,,15
 4338              		.global	mc_interface_set_duty
 4339              		.syntax unified
 4340              		.thumb
 4341              		.thumb_func
 4342              		.fpu fpv4-sp-d16
 4343              		.type	mc_interface_set_duty, %function
 4344              	mc_interface_set_duty:
 4345              	.LFB267:
 4346              		.loc 1 393 0
 4347              		.cfi_startproc
 4348              		@ args = 0, pretend = 0, frame = 0
 4349              		@ frame_needed = 0, uses_anonymous_args = 0
 4350              	.LVL357:
 4351 0000 08B5     		push	{r3, lr}
 4352              		.cfi_def_cfa_offset 8
 4353              		.cfi_offset 3, -8
 4354              		.cfi_offset 14, -4
 4355 0002 2DED028B 		vpush.64	{d8}
 4356              		.cfi_def_cfa_offset 16
 4357              		.cfi_offset 80, -16
 4358              		.cfi_offset 81, -12
 4359              		.loc 1 393 0
 4360 0006 B0EE408A 		vmov.f32	s16, s0
 4361              		.loc 1 394 0
 4362 000a FFF7FEFF 		bl	mc_interface_try_input
 4363              	.LVL358:
 4364 000e 98B9     		cbnz	r0, .L520
 4365              		.loc 1 398 0
 4366 0010 114A     		ldr	r2, .L533
 4367 0012 9378     		ldrb	r3, [r2, #2]	@ zero_extendqisi2
 4368 0014 DBB2     		uxtb	r3, r3
 4369 0016 012B     		cmp	r3, #1
 4370 0018 11D9     		bls	.L522
 4371 001a 022B     		cmp	r3, #2
 4372 001c 0CD1     		bne	.L520
 4373              		.loc 1 405 0
 4374 001e 92F89931 		ldrb	r3, [r2, #409]	@ zero_extendqisi2
 4375 0022 0BB1     		cbz	r3, .L525
 4376 0024 B1EE488A 		vneg.f32	s16, s16
 4377              	.LVL359:
 4378              	.L525:
 4379              		.loc 1 405 0 is_stmt 0 discriminator 4
 4380 0028 B0EE480A 		vmov.f32	s0, s16
 4381              		.loc 1 411 0 is_stmt 1 discriminator 4
 4382 002c BDEC028B 		vldm	sp!, {d8}
 4383              		.cfi_remember_state
 4384              		.cfi_restore 80
 4385              		.cfi_restore 81
 4386              		.cfi_def_cfa_offset 8
 4387 0030 BDE80840 		pop	{r3, lr}
 4388              		.cfi_restore 14
 4389              		.cfi_restore 3
ARM GAS  /tmp/ccSws2SG.s 			page 78


 4390              		.cfi_def_cfa_offset 0
 4391              		.loc 1 405 0 discriminator 4
 4392 0034 FFF7FEBF 		b	mcpwm_foc_set_duty
 4393              	.LVL360:
 4394              	.L520:
 4395              		.cfi_restore_state
 4396              		.loc 1 411 0
 4397 0038 BDEC028B 		vldm	sp!, {d8}
 4398              		.cfi_remember_state
 4399              		.cfi_restore 80
 4400              		.cfi_restore 81
 4401              		.cfi_def_cfa_offset 8
 4402              	.LVL361:
 4403 003c 08BD     		pop	{r3, pc}
 4404              	.LVL362:
 4405              	.L522:
 4406              		.cfi_restore_state
 4407              	.LBB188:
 4408              	.LBB189:
 4409              		.loc 1 401 0
 4410 003e 92F89931 		ldrb	r3, [r2, #409]	@ zero_extendqisi2
 4411 0042 0BB1     		cbz	r3, .L524
 4412 0044 B1EE488A 		vneg.f32	s16, s16
 4413              	.LVL363:
 4414              	.L524:
 4415 0048 B0EE480A 		vmov.f32	s0, s16
 4416              	.LBE189:
 4417              	.LBE188:
 4418              		.loc 1 411 0
 4419 004c BDEC028B 		vldm	sp!, {d8}
 4420              		.cfi_restore 80
 4421              		.cfi_restore 81
 4422              		.cfi_def_cfa_offset 8
 4423 0050 BDE80840 		pop	{r3, lr}
 4424              		.cfi_restore 14
 4425              		.cfi_restore 3
 4426              		.cfi_def_cfa_offset 0
 4427              	.LBB191:
 4428              	.LBB190:
 4429              		.loc 1 401 0
 4430 0054 FFF7FEBF 		b	mcpwm_set_duty
 4431              	.LVL364:
 4432              	.L534:
 4433              		.align	2
 4434              	.L533:
 4435 0058 00000000 		.word	.LANCHOR12
 4436              	.LBE190:
 4437              	.LBE191:
 4438              		.cfi_endproc
 4439              	.LFE267:
 4440              		.size	mc_interface_set_duty, .-mc_interface_set_duty
 4441              		.section	.text.mc_interface_brake_now,"ax",%progbits
 4442              		.align	1
 4443              		.p2align 4,,15
 4444              		.global	mc_interface_brake_now
 4445              		.syntax unified
 4446              		.thumb
ARM GAS  /tmp/ccSws2SG.s 			page 79


 4447              		.thumb_func
 4448              		.fpu fpv4-sp-d16
 4449              		.type	mc_interface_brake_now, %function
 4450              	mc_interface_brake_now:
 4451              	.LFB277:
 4452              		.loc 1 580 0
 4453              		.cfi_startproc
 4454              		@ args = 0, pretend = 0, frame = 0
 4455              		@ frame_needed = 0, uses_anonymous_args = 0
 4456              		@ link register save eliminated.
 4457              		.loc 1 581 0
 4458 0000 9FED010A 		vldr.32	s0, .L536
 4459 0004 FFF7FEBF 		b	mc_interface_set_duty
 4460              	.LVL365:
 4461              	.L537:
 4462              		.align	2
 4463              	.L536:
 4464 0008 00000000 		.word	0
 4465              		.cfi_endproc
 4466              	.LFE277:
 4467              		.size	mc_interface_brake_now, .-mc_interface_brake_now
 4468              		.section	.text.mc_interface_set_duty_noramp,"ax",%progbits
 4469              		.align	1
 4470              		.p2align 4,,15
 4471              		.global	mc_interface_set_duty_noramp
 4472              		.syntax unified
 4473              		.thumb
 4474              		.thumb_func
 4475              		.fpu fpv4-sp-d16
 4476              		.type	mc_interface_set_duty_noramp, %function
 4477              	mc_interface_set_duty_noramp:
 4478              	.LFB268:
 4479              		.loc 1 413 0
 4480              		.cfi_startproc
 4481              		@ args = 0, pretend = 0, frame = 0
 4482              		@ frame_needed = 0, uses_anonymous_args = 0
 4483              	.LVL366:
 4484 0000 08B5     		push	{r3, lr}
 4485              		.cfi_def_cfa_offset 8
 4486              		.cfi_offset 3, -8
 4487              		.cfi_offset 14, -4
 4488 0002 2DED028B 		vpush.64	{d8}
 4489              		.cfi_def_cfa_offset 16
 4490              		.cfi_offset 80, -16
 4491              		.cfi_offset 81, -12
 4492              		.loc 1 413 0
 4493 0006 B0EE408A 		vmov.f32	s16, s0
 4494              		.loc 1 414 0
 4495 000a FFF7FEFF 		bl	mc_interface_try_input
 4496              	.LVL367:
 4497 000e 98B9     		cbnz	r0, .L538
 4498              		.loc 1 418 0
 4499 0010 114A     		ldr	r2, .L551
 4500 0012 9378     		ldrb	r3, [r2, #2]	@ zero_extendqisi2
 4501 0014 DBB2     		uxtb	r3, r3
 4502 0016 012B     		cmp	r3, #1
 4503 0018 11D9     		bls	.L540
ARM GAS  /tmp/ccSws2SG.s 			page 80


 4504 001a 022B     		cmp	r3, #2
 4505 001c 0CD1     		bne	.L538
 4506              		.loc 1 425 0
 4507 001e 92F89931 		ldrb	r3, [r2, #409]	@ zero_extendqisi2
 4508 0022 0BB1     		cbz	r3, .L543
 4509 0024 B1EE488A 		vneg.f32	s16, s16
 4510              	.LVL368:
 4511              	.L543:
 4512              		.loc 1 425 0 is_stmt 0 discriminator 4
 4513 0028 B0EE480A 		vmov.f32	s0, s16
 4514              		.loc 1 431 0 is_stmt 1 discriminator 4
 4515 002c BDEC028B 		vldm	sp!, {d8}
 4516              		.cfi_remember_state
 4517              		.cfi_restore 80
 4518              		.cfi_restore 81
 4519              		.cfi_def_cfa_offset 8
 4520 0030 BDE80840 		pop	{r3, lr}
 4521              		.cfi_restore 14
 4522              		.cfi_restore 3
 4523              		.cfi_def_cfa_offset 0
 4524              		.loc 1 425 0 discriminator 4
 4525 0034 FFF7FEBF 		b	mcpwm_foc_set_duty_noramp
 4526              	.LVL369:
 4527              	.L538:
 4528              		.cfi_restore_state
 4529              		.loc 1 431 0
 4530 0038 BDEC028B 		vldm	sp!, {d8}
 4531              		.cfi_remember_state
 4532              		.cfi_restore 80
 4533              		.cfi_restore 81
 4534              		.cfi_def_cfa_offset 8
 4535              	.LVL370:
 4536 003c 08BD     		pop	{r3, pc}
 4537              	.LVL371:
 4538              	.L540:
 4539              		.cfi_restore_state
 4540              		.loc 1 421 0
 4541 003e 92F89931 		ldrb	r3, [r2, #409]	@ zero_extendqisi2
 4542 0042 0BB1     		cbz	r3, .L542
 4543 0044 B1EE488A 		vneg.f32	s16, s16
 4544              	.LVL372:
 4545              	.L542:
 4546              		.loc 1 421 0 is_stmt 0 discriminator 4
 4547 0048 B0EE480A 		vmov.f32	s0, s16
 4548              		.loc 1 431 0 is_stmt 1 discriminator 4
 4549 004c BDEC028B 		vldm	sp!, {d8}
 4550              		.cfi_restore 80
 4551              		.cfi_restore 81
 4552              		.cfi_def_cfa_offset 8
 4553 0050 BDE80840 		pop	{r3, lr}
 4554              		.cfi_restore 14
 4555              		.cfi_restore 3
 4556              		.cfi_def_cfa_offset 0
 4557              		.loc 1 421 0 discriminator 4
 4558 0054 FFF7FEBF 		b	mcpwm_set_duty_noramp
 4559              	.LVL373:
 4560              	.L552:
ARM GAS  /tmp/ccSws2SG.s 			page 81


 4561              		.align	2
 4562              	.L551:
 4563 0058 00000000 		.word	.LANCHOR12
 4564              		.cfi_endproc
 4565              	.LFE268:
 4566              		.size	mc_interface_set_duty_noramp, .-mc_interface_set_duty_noramp
 4567              		.section	.text.mc_interface_set_pid_speed,"ax",%progbits
 4568              		.align	1
 4569              		.p2align 4,,15
 4570              		.global	mc_interface_set_pid_speed
 4571              		.syntax unified
 4572              		.thumb
 4573              		.thumb_func
 4574              		.fpu fpv4-sp-d16
 4575              		.type	mc_interface_set_pid_speed, %function
 4576              	mc_interface_set_pid_speed:
 4577              	.LFB269:
 4578              		.loc 1 433 0
 4579              		.cfi_startproc
 4580              		@ args = 0, pretend = 0, frame = 0
 4581              		@ frame_needed = 0, uses_anonymous_args = 0
 4582              	.LVL374:
 4583 0000 08B5     		push	{r3, lr}
 4584              		.cfi_def_cfa_offset 8
 4585              		.cfi_offset 3, -8
 4586              		.cfi_offset 14, -4
 4587 0002 2DED028B 		vpush.64	{d8}
 4588              		.cfi_def_cfa_offset 16
 4589              		.cfi_offset 80, -16
 4590              		.cfi_offset 81, -12
 4591              		.loc 1 433 0
 4592 0006 B0EE408A 		vmov.f32	s16, s0
 4593              		.loc 1 434 0
 4594 000a FFF7FEFF 		bl	mc_interface_try_input
 4595              	.LVL375:
 4596 000e 98B9     		cbnz	r0, .L553
 4597              		.loc 1 438 0
 4598 0010 114A     		ldr	r2, .L566
 4599 0012 9378     		ldrb	r3, [r2, #2]	@ zero_extendqisi2
 4600 0014 DBB2     		uxtb	r3, r3
 4601 0016 012B     		cmp	r3, #1
 4602 0018 11D9     		bls	.L555
 4603 001a 022B     		cmp	r3, #2
 4604 001c 0CD1     		bne	.L553
 4605              		.loc 1 445 0
 4606 001e 92F89931 		ldrb	r3, [r2, #409]	@ zero_extendqisi2
 4607 0022 0BB1     		cbz	r3, .L558
 4608 0024 B1EE488A 		vneg.f32	s16, s16
 4609              	.LVL376:
 4610              	.L558:
 4611              		.loc 1 445 0 is_stmt 0 discriminator 4
 4612 0028 B0EE480A 		vmov.f32	s0, s16
 4613              		.loc 1 451 0 is_stmt 1 discriminator 4
 4614 002c BDEC028B 		vldm	sp!, {d8}
 4615              		.cfi_remember_state
 4616              		.cfi_restore 80
 4617              		.cfi_restore 81
ARM GAS  /tmp/ccSws2SG.s 			page 82


 4618              		.cfi_def_cfa_offset 8
 4619 0030 BDE80840 		pop	{r3, lr}
 4620              		.cfi_restore 14
 4621              		.cfi_restore 3
 4622              		.cfi_def_cfa_offset 0
 4623              		.loc 1 445 0 discriminator 4
 4624 0034 FFF7FEBF 		b	mcpwm_foc_set_pid_speed
 4625              	.LVL377:
 4626              	.L553:
 4627              		.cfi_restore_state
 4628              		.loc 1 451 0
 4629 0038 BDEC028B 		vldm	sp!, {d8}
 4630              		.cfi_remember_state
 4631              		.cfi_restore 80
 4632              		.cfi_restore 81
 4633              		.cfi_def_cfa_offset 8
 4634              	.LVL378:
 4635 003c 08BD     		pop	{r3, pc}
 4636              	.LVL379:
 4637              	.L555:
 4638              		.cfi_restore_state
 4639              		.loc 1 441 0
 4640 003e 92F89931 		ldrb	r3, [r2, #409]	@ zero_extendqisi2
 4641 0042 0BB1     		cbz	r3, .L557
 4642 0044 B1EE488A 		vneg.f32	s16, s16
 4643              	.LVL380:
 4644              	.L557:
 4645              		.loc 1 441 0 is_stmt 0 discriminator 4
 4646 0048 B0EE480A 		vmov.f32	s0, s16
 4647              		.loc 1 451 0 is_stmt 1 discriminator 4
 4648 004c BDEC028B 		vldm	sp!, {d8}
 4649              		.cfi_restore 80
 4650              		.cfi_restore 81
 4651              		.cfi_def_cfa_offset 8
 4652 0050 BDE80840 		pop	{r3, lr}
 4653              		.cfi_restore 14
 4654              		.cfi_restore 3
 4655              		.cfi_def_cfa_offset 0
 4656              		.loc 1 441 0 discriminator 4
 4657 0054 FFF7FEBF 		b	mcpwm_set_pid_speed
 4658              	.LVL381:
 4659              	.L567:
 4660              		.align	2
 4661              	.L566:
 4662 0058 00000000 		.word	.LANCHOR12
 4663              		.cfi_endproc
 4664              	.LFE269:
 4665              		.size	mc_interface_set_pid_speed, .-mc_interface_set_pid_speed
 4666              		.section	.text.mc_interface_set_pid_pos,"ax",%progbits
 4667              		.align	1
 4668              		.p2align 4,,15
 4669              		.global	mc_interface_set_pid_pos
 4670              		.syntax unified
 4671              		.thumb
 4672              		.thumb_func
 4673              		.fpu fpv4-sp-d16
 4674              		.type	mc_interface_set_pid_pos, %function
ARM GAS  /tmp/ccSws2SG.s 			page 83


 4675              	mc_interface_set_pid_pos:
 4676              	.LFB270:
 4677              		.loc 1 453 0
 4678              		.cfi_startproc
 4679              		@ args = 0, pretend = 0, frame = 8
 4680              		@ frame_needed = 0, uses_anonymous_args = 0
 4681              	.LVL382:
 4682 0000 10B5     		push	{r4, lr}
 4683              		.cfi_def_cfa_offset 8
 4684              		.cfi_offset 4, -8
 4685              		.cfi_offset 14, -4
 4686 0002 82B0     		sub	sp, sp, #8
 4687              		.cfi_def_cfa_offset 16
 4688              		.loc 1 453 0
 4689 0004 8DED010A 		vstr.32	s0, [sp, #4]
 4690              		.loc 1 454 0
 4691 0008 FFF7FEFF 		bl	mc_interface_try_input
 4692              	.LVL383:
 4693 000c C8B9     		cbnz	r0, .L568
 4694              		.loc 1 458 0
 4695 000e 114B     		ldr	r3, .L577
 4696 0010 DDED017A 		vldr.32	s15, [sp, #4]
 4697              		.loc 1 460 0
 4698 0014 104C     		ldr	r4, .L577+4
 4699              		.loc 1 458 0
 4700 0016 C3ED007A 		vstr.32	s15, [r3]
 4701              		.loc 1 460 0
 4702 001a 94F89931 		ldrb	r3, [r4, #409]	@ zero_extendqisi2
 4703 001e 0BB1     		cbz	r3, .L570
 4704 0020 F1EE677A 		vneg.f32	s15, s15
 4705              	.L570:
 4706              		.loc 1 460 0 is_stmt 0 discriminator 4
 4707 0024 02A8     		add	r0, sp, #8
 4708 0026 60ED017A 		vstmdb.32	r0!, {s15}
 4709              		.loc 1 461 0 is_stmt 1 discriminator 4
 4710 002a FFF7FEFF 		bl	utils_norm_angle
 4711              	.LVL384:
 4712              		.loc 1 463 0 discriminator 4
 4713 002e A378     		ldrb	r3, [r4, #2]	@ zero_extendqisi2
 4714 0030 DBB2     		uxtb	r3, r3
 4715 0032 012B     		cmp	r3, #1
 4716 0034 07D9     		bls	.L571
 4717 0036 022B     		cmp	r3, #2
 4718 0038 03D1     		bne	.L568
 4719              		.loc 1 470 0
 4720 003a 9DED010A 		vldr.32	s0, [sp, #4]
 4721 003e FFF7FEFF 		bl	mcpwm_foc_set_pid_pos
 4722              	.LVL385:
 4723              	.L568:
 4724              		.loc 1 476 0
 4725 0042 02B0     		add	sp, sp, #8
 4726              		.cfi_remember_state
 4727              		.cfi_def_cfa_offset 8
 4728              		@ sp needed
 4729 0044 10BD     		pop	{r4, pc}
 4730              	.L571:
 4731              		.cfi_restore_state
ARM GAS  /tmp/ccSws2SG.s 			page 84


 4732              		.loc 1 466 0
 4733 0046 9DED010A 		vldr.32	s0, [sp, #4]
 4734 004a FFF7FEFF 		bl	mcpwm_set_pid_pos
 4735              	.LVL386:
 4736              		.loc 1 476 0
 4737 004e 02B0     		add	sp, sp, #8
 4738              		.cfi_def_cfa_offset 8
 4739              		@ sp needed
 4740 0050 10BD     		pop	{r4, pc}
 4741              	.L578:
 4742 0052 00BF     		.align	2
 4743              	.L577:
 4744 0054 00000000 		.word	.LANCHOR30
 4745 0058 00000000 		.word	.LANCHOR12
 4746              		.cfi_endproc
 4747              	.LFE270:
 4748              		.size	mc_interface_set_pid_pos, .-mc_interface_set_pid_pos
 4749              		.section	.text.mc_interface_set_current,"ax",%progbits
 4750              		.align	1
 4751              		.p2align 4,,15
 4752              		.global	mc_interface_set_current
 4753              		.syntax unified
 4754              		.thumb
 4755              		.thumb_func
 4756              		.fpu fpv4-sp-d16
 4757              		.type	mc_interface_set_current, %function
 4758              	mc_interface_set_current:
 4759              	.LFB271:
 4760              		.loc 1 478 0
 4761              		.cfi_startproc
 4762              		@ args = 0, pretend = 0, frame = 0
 4763              		@ frame_needed = 0, uses_anonymous_args = 0
 4764              	.LVL387:
 4765 0000 08B5     		push	{r3, lr}
 4766              		.cfi_def_cfa_offset 8
 4767              		.cfi_offset 3, -8
 4768              		.cfi_offset 14, -4
 4769 0002 2DED028B 		vpush.64	{d8}
 4770              		.cfi_def_cfa_offset 16
 4771              		.cfi_offset 80, -16
 4772              		.cfi_offset 81, -12
 4773              		.loc 1 478 0
 4774 0006 B0EE408A 		vmov.f32	s16, s0
 4775              		.loc 1 479 0
 4776 000a FFF7FEFF 		bl	mc_interface_try_input
 4777              	.LVL388:
 4778 000e 98B9     		cbnz	r0, .L579
 4779              		.loc 1 483 0
 4780 0010 114A     		ldr	r2, .L592
 4781 0012 9378     		ldrb	r3, [r2, #2]	@ zero_extendqisi2
 4782 0014 DBB2     		uxtb	r3, r3
 4783 0016 012B     		cmp	r3, #1
 4784 0018 11D9     		bls	.L581
 4785 001a 022B     		cmp	r3, #2
 4786 001c 0CD1     		bne	.L579
 4787              		.loc 1 490 0
 4788 001e 92F89931 		ldrb	r3, [r2, #409]	@ zero_extendqisi2
ARM GAS  /tmp/ccSws2SG.s 			page 85


 4789 0022 0BB1     		cbz	r3, .L584
 4790 0024 B1EE488A 		vneg.f32	s16, s16
 4791              	.LVL389:
 4792              	.L584:
 4793              		.loc 1 490 0 is_stmt 0 discriminator 4
 4794 0028 B0EE480A 		vmov.f32	s0, s16
 4795              		.loc 1 496 0 is_stmt 1 discriminator 4
 4796 002c BDEC028B 		vldm	sp!, {d8}
 4797              		.cfi_remember_state
 4798              		.cfi_restore 80
 4799              		.cfi_restore 81
 4800              		.cfi_def_cfa_offset 8
 4801 0030 BDE80840 		pop	{r3, lr}
 4802              		.cfi_restore 14
 4803              		.cfi_restore 3
 4804              		.cfi_def_cfa_offset 0
 4805              		.loc 1 490 0 discriminator 4
 4806 0034 FFF7FEBF 		b	mcpwm_foc_set_current
 4807              	.LVL390:
 4808              	.L579:
 4809              		.cfi_restore_state
 4810              		.loc 1 496 0
 4811 0038 BDEC028B 		vldm	sp!, {d8}
 4812              		.cfi_remember_state
 4813              		.cfi_restore 80
 4814              		.cfi_restore 81
 4815              		.cfi_def_cfa_offset 8
 4816              	.LVL391:
 4817 003c 08BD     		pop	{r3, pc}
 4818              	.LVL392:
 4819              	.L581:
 4820              		.cfi_restore_state
 4821              	.LBB194:
 4822              	.LBB195:
 4823              		.loc 1 486 0
 4824 003e 92F89931 		ldrb	r3, [r2, #409]	@ zero_extendqisi2
 4825 0042 0BB1     		cbz	r3, .L583
 4826 0044 B1EE488A 		vneg.f32	s16, s16
 4827              	.LVL393:
 4828              	.L583:
 4829 0048 B0EE480A 		vmov.f32	s0, s16
 4830              	.LBE195:
 4831              	.LBE194:
 4832              		.loc 1 496 0
 4833 004c BDEC028B 		vldm	sp!, {d8}
 4834              		.cfi_restore 80
 4835              		.cfi_restore 81
 4836              		.cfi_def_cfa_offset 8
 4837 0050 BDE80840 		pop	{r3, lr}
 4838              		.cfi_restore 14
 4839              		.cfi_restore 3
 4840              		.cfi_def_cfa_offset 0
 4841              	.LBB197:
 4842              	.LBB196:
 4843              		.loc 1 486 0
 4844 0054 FFF7FEBF 		b	mcpwm_set_current
 4845              	.LVL394:
ARM GAS  /tmp/ccSws2SG.s 			page 86


 4846              	.L593:
 4847              		.align	2
 4848              	.L592:
 4849 0058 00000000 		.word	.LANCHOR12
 4850              	.LBE196:
 4851              	.LBE197:
 4852              		.cfi_endproc
 4853              	.LFE271:
 4854              		.size	mc_interface_set_current, .-mc_interface_set_current
 4855              		.section	.text.mc_interface_set_current_rel,"ax",%progbits
 4856              		.align	1
 4857              		.p2align 4,,15
 4858              		.global	mc_interface_set_current_rel
 4859              		.syntax unified
 4860              		.thumb
 4861              		.thumb_func
 4862              		.fpu fpv4-sp-d16
 4863              		.type	mc_interface_set_current_rel, %function
 4864              	mc_interface_set_current_rel:
 4865              	.LFB273:
 4866              		.loc 1 529 0
 4867              		.cfi_startproc
 4868              		@ args = 0, pretend = 0, frame = 0
 4869              		@ frame_needed = 0, uses_anonymous_args = 0
 4870              		@ link register save eliminated.
 4871              	.LVL395:
 4872              		.loc 1 530 0
 4873 0000 034B     		ldr	r3, .L595
 4874 0002 D3ED1F7A 		vldr.32	s15, [r3, #124]
 4875 0006 27EE800A 		vmul.f32	s0, s15, s0
 4876              	.LVL396:
 4877 000a FFF7FEBF 		b	mc_interface_set_current
 4878              	.LVL397:
 4879              	.L596:
 4880 000e 00BF     		.align	2
 4881              	.L595:
 4882 0010 00000000 		.word	.LANCHOR12
 4883              		.cfi_endproc
 4884              	.LFE273:
 4885              		.size	mc_interface_set_current_rel, .-mc_interface_set_current_rel
 4886              		.section	.text.mc_interface_release_motor,"ax",%progbits
 4887              		.align	1
 4888              		.p2align 4,,15
 4889              		.global	mc_interface_release_motor
 4890              		.syntax unified
 4891              		.thumb
 4892              		.thumb_func
 4893              		.fpu fpv4-sp-d16
 4894              		.type	mc_interface_release_motor, %function
 4895              	mc_interface_release_motor:
 4896              	.LFB278:
 4897              		.loc 1 587 0
 4898              		.cfi_startproc
 4899              		@ args = 0, pretend = 0, frame = 0
 4900              		@ frame_needed = 0, uses_anonymous_args = 0
 4901              		@ link register save eliminated.
 4902              		.loc 1 588 0
ARM GAS  /tmp/ccSws2SG.s 			page 87


 4903 0000 9FED010A 		vldr.32	s0, .L598
 4904 0004 FFF7FEBF 		b	mc_interface_set_current
 4905              	.LVL398:
 4906              	.L599:
 4907              		.align	2
 4908              	.L598:
 4909 0008 00000000 		.word	0
 4910              		.cfi_endproc
 4911              	.LFE278:
 4912              		.size	mc_interface_release_motor, .-mc_interface_release_motor
 4913              		.section	.text.mc_interface_set_brake_current,"ax",%progbits
 4914              		.align	1
 4915              		.p2align 4,,15
 4916              		.global	mc_interface_set_brake_current
 4917              		.syntax unified
 4918              		.thumb
 4919              		.thumb_func
 4920              		.fpu fpv4-sp-d16
 4921              		.type	mc_interface_set_brake_current, %function
 4922              	mc_interface_set_brake_current:
 4923              	.LFB272:
 4924              		.loc 1 498 0
 4925              		.cfi_startproc
 4926              		@ args = 0, pretend = 0, frame = 0
 4927              		@ frame_needed = 0, uses_anonymous_args = 0
 4928              	.LVL399:
 4929 0000 08B5     		push	{r3, lr}
 4930              		.cfi_def_cfa_offset 8
 4931              		.cfi_offset 3, -8
 4932              		.cfi_offset 14, -4
 4933 0002 2DED028B 		vpush.64	{d8}
 4934              		.cfi_def_cfa_offset 16
 4935              		.cfi_offset 80, -16
 4936              		.cfi_offset 81, -12
 4937              		.loc 1 498 0
 4938 0006 B0EE408A 		vmov.f32	s16, s0
 4939              		.loc 1 499 0
 4940 000a FFF7FEFF 		bl	mc_interface_try_input
 4941              	.LVL400:
 4942 000e 38B9     		cbnz	r0, .L600
 4943              		.loc 1 503 0
 4944 0010 154A     		ldr	r2, .L615
 4945 0012 9378     		ldrb	r3, [r2, #2]	@ zero_extendqisi2
 4946 0014 032B     		cmp	r3, #3
 4947 0016 03D8     		bhi	.L600
 4948 0018 DFE803F0 		tbb	[pc, r3]
 4949              	.L603:
 4950 001c 0C       		.byte	(.L602-.L603)/2
 4951 001d 0C       		.byte	(.L602-.L603)/2
 4952 001e 19       		.byte	(.L604-.L603)/2
 4953 001f 05       		.byte	(.L605-.L603)/2
 4954              		.p2align 1
 4955              	.L600:
 4956              		.loc 1 521 0
 4957 0020 BDEC028B 		vldm	sp!, {d8}
 4958              		.cfi_remember_state
 4959              		.cfi_restore 80
ARM GAS  /tmp/ccSws2SG.s 			page 88


 4960              		.cfi_restore 81
 4961              		.cfi_def_cfa_offset 8
 4962              	.LVL401:
 4963 0024 08BD     		pop	{r3, pc}
 4964              	.LVL402:
 4965              	.L605:
 4966              		.cfi_restore_state
 4967 0026 BDEC028B 		vldm	sp!, {d8}
 4968              		.cfi_remember_state
 4969              		.cfi_restore 80
 4970              		.cfi_restore 81
 4971              		.cfi_def_cfa_offset 8
 4972              	.LVL403:
 4973              		.loc 1 515 0
 4974 002a 0020     		movs	r0, #0
 4975              		.loc 1 521 0
 4976 002c BDE80840 		pop	{r3, lr}
 4977              		.cfi_restore 14
 4978              		.cfi_restore 3
 4979              		.cfi_def_cfa_offset 0
 4980              		.loc 1 515 0
 4981 0030 FFF7FEBF 		b	gpdrive_set_mode
 4982              	.LVL404:
 4983              	.L602:
 4984              		.cfi_restore_state
 4985              	.LBB200:
 4986              	.LBB201:
 4987              		.loc 1 506 0
 4988 0034 92F89931 		ldrb	r3, [r2, #409]	@ zero_extendqisi2
 4989 0038 0BB1     		cbz	r3, .L606
 4990 003a B1EE488A 		vneg.f32	s16, s16
 4991              	.LVL405:
 4992              	.L606:
 4993 003e B0EE480A 		vmov.f32	s0, s16
 4994              	.LBE201:
 4995              	.LBE200:
 4996              		.loc 1 521 0
 4997 0042 BDEC028B 		vldm	sp!, {d8}
 4998              		.cfi_remember_state
 4999              		.cfi_restore 80
 5000              		.cfi_restore 81
 5001              		.cfi_def_cfa_offset 8
 5002 0046 BDE80840 		pop	{r3, lr}
 5003              		.cfi_restore 14
 5004              		.cfi_restore 3
 5005              		.cfi_def_cfa_offset 0
 5006              	.LBB203:
 5007              	.LBB202:
 5008              		.loc 1 506 0
 5009 004a FFF7FEBF 		b	mcpwm_set_brake_current
 5010              	.LVL406:
 5011              	.L604:
 5012              		.cfi_restore_state
 5013              	.LBE202:
 5014              	.LBE203:
 5015              		.loc 1 510 0
 5016 004e 92F89931 		ldrb	r3, [r2, #409]	@ zero_extendqisi2
ARM GAS  /tmp/ccSws2SG.s 			page 89


 5017 0052 0BB1     		cbz	r3, .L607
 5018 0054 B1EE488A 		vneg.f32	s16, s16
 5019              	.LVL407:
 5020              	.L607:
 5021              		.loc 1 510 0 is_stmt 0 discriminator 4
 5022 0058 B0EE480A 		vmov.f32	s0, s16
 5023              		.loc 1 521 0 is_stmt 1 discriminator 4
 5024 005c BDEC028B 		vldm	sp!, {d8}
 5025              		.cfi_restore 80
 5026              		.cfi_restore 81
 5027              		.cfi_def_cfa_offset 8
 5028 0060 BDE80840 		pop	{r3, lr}
 5029              		.cfi_restore 14
 5030              		.cfi_restore 3
 5031              		.cfi_def_cfa_offset 0
 5032              		.loc 1 510 0 discriminator 4
 5033 0064 FFF7FEBF 		b	mcpwm_foc_set_brake_current
 5034              	.LVL408:
 5035              	.L616:
 5036              		.align	2
 5037              	.L615:
 5038 0068 00000000 		.word	.LANCHOR12
 5039              		.cfi_endproc
 5040              	.LFE272:
 5041              		.size	mc_interface_set_brake_current, .-mc_interface_set_brake_current
 5042              		.section	.text.mc_interface_set_brake_current_rel,"ax",%progbits
 5043              		.align	1
 5044              		.p2align 4,,15
 5045              		.global	mc_interface_set_brake_current_rel
 5046              		.syntax unified
 5047              		.thumb
 5048              		.thumb_func
 5049              		.fpu fpv4-sp-d16
 5050              		.type	mc_interface_set_brake_current_rel, %function
 5051              	mc_interface_set_brake_current_rel:
 5052              	.LFB274:
 5053              		.loc 1 539 0
 5054              		.cfi_startproc
 5055              		@ args = 0, pretend = 0, frame = 0
 5056              		@ frame_needed = 0, uses_anonymous_args = 0
 5057              		@ link register save eliminated.
 5058              	.LVL409:
 5059              		.loc 1 540 0
 5060 0000 044B     		ldr	r3, .L618
 5061 0002 D3ED207A 		vldr.32	s15, [r3, #128]
 5062 0006 F0EEE77A 		vabs.f32	s15, s15
 5063 000a 27EE800A 		vmul.f32	s0, s15, s0
 5064              	.LVL410:
 5065 000e FFF7FEBF 		b	mc_interface_set_brake_current
 5066              	.LVL411:
 5067              	.L619:
 5068 0012 00BF     		.align	2
 5069              	.L618:
 5070 0014 00000000 		.word	.LANCHOR12
 5071              		.cfi_endproc
 5072              	.LFE274:
 5073              		.size	mc_interface_set_brake_current_rel, .-mc_interface_set_brake_current_rel
ARM GAS  /tmp/ccSws2SG.s 			page 90


 5074              		.section	.text.mc_interface_set_handbrake,"ax",%progbits
 5075              		.align	1
 5076              		.p2align 4,,15
 5077              		.global	mc_interface_set_handbrake
 5078              		.syntax unified
 5079              		.thumb
 5080              		.thumb_func
 5081              		.fpu fpv4-sp-d16
 5082              		.type	mc_interface_set_handbrake, %function
 5083              	mc_interface_set_handbrake:
 5084              	.LFB275:
 5085              		.loc 1 549 0
 5086              		.cfi_startproc
 5087              		@ args = 0, pretend = 0, frame = 0
 5088              		@ frame_needed = 0, uses_anonymous_args = 0
 5089              	.LVL412:
 5090 0000 08B5     		push	{r3, lr}
 5091              		.cfi_def_cfa_offset 8
 5092              		.cfi_offset 3, -8
 5093              		.cfi_offset 14, -4
 5094 0002 2DED028B 		vpush.64	{d8}
 5095              		.cfi_def_cfa_offset 16
 5096              		.cfi_offset 80, -16
 5097              		.cfi_offset 81, -12
 5098              		.loc 1 549 0
 5099 0006 B0EE408A 		vmov.f32	s16, s0
 5100              		.loc 1 550 0
 5101 000a FFF7FEFF 		bl	mc_interface_try_input
 5102              	.LVL413:
 5103 000e 38B9     		cbnz	r0, .L620
 5104 0010 B0EE480A 		vmov.f32	s0, s16
 5105              		.loc 1 568 0
 5106 0014 BDEC028B 		vldm	sp!, {d8}
 5107              		.cfi_remember_state
 5108              		.cfi_restore 80
 5109              		.cfi_restore 81
 5110              		.cfi_def_cfa_offset 8
 5111              	.LVL414:
 5112 0018 BDE80840 		pop	{r3, lr}
 5113              		.cfi_restore 14
 5114              		.cfi_restore 3
 5115              		.cfi_def_cfa_offset 0
 5116 001c FFF7FEBF 		b	mc_interface_set_handbrake.part.3
 5117              	.LVL415:
 5118              	.L620:
 5119              		.cfi_restore_state
 5120 0020 BDEC028B 		vldm	sp!, {d8}
 5121              		.cfi_restore 80
 5122              		.cfi_restore 81
 5123              		.cfi_def_cfa_offset 8
 5124              	.LVL416:
 5125 0024 08BD     		pop	{r3, pc}
 5126              		.cfi_endproc
 5127              	.LFE275:
 5128              		.size	mc_interface_set_handbrake, .-mc_interface_set_handbrake
 5129 0026 00BF     		.section	.text.mc_interface_set_handbrake_rel,"ax",%progbits
 5130              		.align	1
ARM GAS  /tmp/ccSws2SG.s 			page 91


 5131              		.p2align 4,,15
 5132              		.global	mc_interface_set_handbrake_rel
 5133              		.syntax unified
 5134              		.thumb
 5135              		.thumb_func
 5136              		.fpu fpv4-sp-d16
 5137              		.type	mc_interface_set_handbrake_rel, %function
 5138              	mc_interface_set_handbrake_rel:
 5139              	.LFB276:
 5140              		.loc 1 576 0
 5141              		.cfi_startproc
 5142              		@ args = 0, pretend = 0, frame = 0
 5143              		@ frame_needed = 0, uses_anonymous_args = 0
 5144              	.LVL417:
 5145 0000 08B5     		push	{r3, lr}
 5146              		.cfi_def_cfa_offset 8
 5147              		.cfi_offset 3, -8
 5148              		.cfi_offset 14, -4
 5149              		.loc 1 577 0
 5150 0002 0B4B     		ldr	r3, .L627
 5151              		.loc 1 576 0
 5152 0004 2DED028B 		vpush.64	{d8}
 5153              		.cfi_def_cfa_offset 16
 5154              		.cfi_offset 80, -16
 5155              		.cfi_offset 81, -12
 5156              		.loc 1 576 0
 5157 0008 F0EE408A 		vmov.f32	s17, s0
 5158              		.loc 1 577 0
 5159 000c 93ED208A 		vldr.32	s16, [r3, #128]
 5160              	.LVL418:
 5161              	.LBB204:
 5162              	.LBB205:
 5163              		.loc 1 550 0
 5164 0010 FFF7FEFF 		bl	mc_interface_try_input
 5165              	.LVL419:
 5166 0014 10B1     		cbz	r0, .L626
 5167              	.LBE205:
 5168              	.LBE204:
 5169              		.loc 1 578 0
 5170 0016 BDEC028B 		vldm	sp!, {d8}
 5171              		.cfi_remember_state
 5172              		.cfi_restore 80
 5173              		.cfi_restore 81
 5174              		.cfi_def_cfa_offset 8
 5175              	.LVL420:
 5176 001a 08BD     		pop	{r3, pc}
 5177              	.LVL421:
 5178              	.L626:
 5179              		.cfi_restore_state
 5180              		.loc 1 577 0
 5181 001c B0EEC80A 		vabs.f32	s0, s16
 5182              	.LBB208:
 5183              	.LBB206:
 5184 0020 20EE280A 		vmul.f32	s0, s0, s17
 5185              	.LBE206:
 5186              	.LBE208:
 5187              		.loc 1 578 0
ARM GAS  /tmp/ccSws2SG.s 			page 92


 5188 0024 BDEC028B 		vldm	sp!, {d8}
 5189              		.cfi_restore 80
 5190              		.cfi_restore 81
 5191              		.cfi_def_cfa_offset 8
 5192              	.LVL422:
 5193 0028 BDE80840 		pop	{r3, lr}
 5194              		.cfi_restore 14
 5195              		.cfi_restore 3
 5196              		.cfi_def_cfa_offset 0
 5197              	.LBB209:
 5198              	.LBB207:
 5199 002c FFF7FEBF 		b	mc_interface_set_handbrake.part.3
 5200              	.LVL423:
 5201              	.L628:
 5202              		.align	2
 5203              	.L627:
 5204 0030 00000000 		.word	.LANCHOR12
 5205              	.LBE207:
 5206              	.LBE209:
 5207              		.cfi_endproc
 5208              	.LFE276:
 5209              		.size	mc_interface_set_handbrake_rel, .-mc_interface_set_handbrake_rel
 5210              		.section	.text.mc_interface_fault_stop,"ax",%progbits
 5211              		.align	1
 5212              		.p2align 4,,15
 5213              		.global	mc_interface_fault_stop
 5214              		.syntax unified
 5215              		.thumb
 5216              		.thumb_func
 5217              		.fpu fpv4-sp-d16
 5218              		.type	mc_interface_fault_stop, %function
 5219              	mc_interface_fault_stop:
 5220              	.LFB311:
 5221              		.loc 1 1193 0
 5222              		.cfi_startproc
 5223              		@ args = 0, pretend = 0, frame = 0
 5224              		@ frame_needed = 0, uses_anonymous_args = 0
 5225              		@ link register save eliminated.
 5226              	.LVL424:
 5227              		.loc 1 1194 0
 5228 0000 054B     		ldr	r3, .L634
 5229 0002 1B78     		ldrb	r3, [r3]	@ zero_extendqisi2
 5230 0004 8342     		cmp	r3, r0
 5231 0006 01D0     		beq	.L633
 5232 0008 FFF7FEBF 		b	mc_interface_fault_stop.part.4
 5233              	.LVL425:
 5234              	.L633:
 5235              		.loc 1 1195 0
 5236 000c 034A     		ldr	r2, .L634+4
 5237 000e 044B     		ldr	r3, .L634+8
 5238 0010 D2F88821 		ldr	r2, [r2, #392]
 5239 0014 1A60     		str	r2, [r3]
 5240              		.loc 1 1260 0
 5241 0016 7047     		bx	lr
 5242              	.L635:
 5243              		.align	2
 5244              	.L634:
ARM GAS  /tmp/ccSws2SG.s 			page 93


 5245 0018 00000000 		.word	.LANCHOR13
 5246 001c 00000000 		.word	.LANCHOR12
 5247 0020 00000000 		.word	.LANCHOR14
 5248              		.cfi_endproc
 5249              	.LFE311:
 5250              		.size	mc_interface_fault_stop, .-mc_interface_fault_stop
 5251              		.section	.text.mc_interface_mc_timer_isr,"ax",%progbits
 5252              		.align	1
 5253              		.p2align 4,,15
 5254              		.global	mc_interface_mc_timer_isr
 5255              		.syntax unified
 5256              		.thumb
 5257              		.thumb_func
 5258              		.fpu fpv4-sp-d16
 5259              		.type	mc_interface_mc_timer_isr, %function
 5260              	mc_interface_mc_timer_isr:
 5261              	.LFB312:
 5262              		.loc 1 1262 0
 5263              		.cfi_startproc
 5264              		@ args = 0, pretend = 0, frame = 8
 5265              		@ frame_needed = 0, uses_anonymous_args = 0
 5266 0000 2DE9F043 		push	{r4, r5, r6, r7, r8, r9, lr}
 5267              		.cfi_def_cfa_offset 28
 5268              		.cfi_offset 4, -28
 5269              		.cfi_offset 5, -24
 5270              		.cfi_offset 6, -20
 5271              		.cfi_offset 7, -16
 5272              		.cfi_offset 8, -12
 5273              		.cfi_offset 9, -8
 5274              		.cfi_offset 14, -4
 5275 0004 2DED048B 		vpush.64	{d8, d9}
 5276              		.cfi_def_cfa_offset 44
 5277              		.cfi_offset 80, -44
 5278              		.cfi_offset 81, -40
 5279              		.cfi_offset 82, -36
 5280              		.cfi_offset 83, -32
 5281              		.loc 1 1265 0
 5282 0008 7E4E     		ldr	r6, .L734
 5283              		.loc 1 1269 0
 5284 000a 7F4C     		ldr	r4, .L734+4
 5285              		.loc 1 1262 0
 5286 000c 83B0     		sub	sp, sp, #12
 5287              		.cfi_def_cfa_offset 56
 5288              		.loc 1 1263 0
 5289 000e FFF7FEFF 		bl	ledpwm_update_pwm
 5290              	.LVL426:
 5291              		.loc 1 1265 0
 5292 0012 F38A     		ldrh	r3, [r6, #22]
 5293 0014 DFED7D6A 		vldr.32	s13, .L734+8
 5294 0018 9FED7D7A 		vldr.32	s14, .L734+12
 5295              		.loc 1 1269 0
 5296 001c D4ED0B7A 		vldr.32	s15, [r4, #44]
 5297              		.loc 1 1265 0
 5298 0020 08EE103A 		vmov	s16, r3	@ int
 5299 0024 B8EE488A 		vcvt.f32.u32	s16, s16
 5300 0028 28EE268A 		vmul.f32	s16, s16, s13
 5301 002c 28EE078A 		vmul.f32	s16, s16, s14
ARM GAS  /tmp/ccSws2SG.s 			page 94


 5302              	.LVL427:
 5303              		.loc 1 1269 0
 5304 0030 F4EEC87A 		vcmpe.f32	s15, s16
 5305 0034 F1EE10FA 		vmrs	APSR_nzcv, FPSCR
 5306 0038 07DC     		bgt	.L637
 5307              		.loc 1 1270 0 discriminator 1
 5308 003a D4ED0C7A 		vldr.32	s15, [r4, #48]
 5309              		.loc 1 1269 0 discriminator 1
 5310 003e F4EEC87A 		vcmpe.f32	s15, s16
 5311 0042 F1EE10FA 		vmrs	APSR_nzcv, FPSCR
 5312 0046 40F1DA81 		bpl	.L712
 5313              	.L637:
 5314              		.loc 1 1271 0
 5315 004a 724A     		ldr	r2, .L734+16
 5316 004c 1368     		ldr	r3, [r2]
 5317 004e 0133     		adds	r3, r3, #1
 5318              		.loc 1 1273 0
 5319 0050 072B     		cmp	r3, #7
 5320              		.loc 1 1271 0
 5321 0052 1360     		str	r3, [r2]
 5322              		.loc 1 1273 0
 5323 0054 00F3B881 		bgt	.L723
 5324              	.L640:
 5325              		.loc 1 1281 0
 5326 0058 FFF7FEFF 		bl	mc_interface_get_state
 5327              	.LVL428:
 5328 005c 0228     		cmp	r0, #2
 5329 005e 00F0C981 		beq	.L724
 5330              	.L644:
 5331              		.loc 1 1284 0
 5332 0062 6D4B     		ldr	r3, .L734+20
 5333 0064 0022     		movs	r2, #0
 5334 0066 1A60     		str	r2, [r3]
 5335              	.L645:
 5336              		.loc 1 1287 0
 5337 0068 6C4B     		ldr	r3, .L734+24
 5338 006a 1B68     		ldr	r3, [r3]
 5339 006c 03B1     		cbz	r3, .L646
 5340              		.loc 1 1288 0
 5341 006e 9847     		blx	r3
 5342              	.LVL429:
 5343              	.L646:
 5344              		.loc 1 1291 0
 5345 0070 FFF7FEFF 		bl	mc_interface_get_tot_current_filtered
 5346              	.LVL430:
 5347 0074 F0EE408A 		vmov.f32	s17, s0
 5348              	.LVL431:
 5349              		.loc 1 1292 0
 5350 0078 FFF7FEFF 		bl	mc_interface_get_tot_current_in_filtered
 5351              	.LVL432:
 5352              		.loc 1 1293 0
 5353 007c 6848     		ldr	r0, .L734+28
 5354              		.loc 1 1294 0
 5355 007e 6949     		ldr	r1, .L734+32
 5356              		.loc 1 1293 0
 5357 0080 D0ED007A 		vldr.32	s15, [r0]
 5358              		.loc 1 1295 0
ARM GAS  /tmp/ccSws2SG.s 			page 95


 5359 0084 684A     		ldr	r2, .L734+36
 5360              		.loc 1 1296 0
 5361 0086 694B     		ldr	r3, .L734+40
 5362              		.loc 1 1293 0
 5363 0088 77EEA87A 		vadd.f32	s15, s15, s17
 5364              		.loc 1 1295 0
 5365 008c B7EE009A 		vmov.f32	s18, #1.0e+0
 5366              		.loc 1 1293 0
 5367 0090 C0ED007A 		vstr.32	s15, [r0]
 5368              		.loc 1 1294 0
 5369 0094 D1ED007A 		vldr.32	s15, [r1]
 5370 0098 77EE807A 		vadd.f32	s15, s15, s0
 5371              		.loc 1 1292 0
 5372 009c F0EE409A 		vmov.f32	s19, s0
 5373              	.LVL433:
 5374              		.loc 1 1294 0
 5375 00a0 C1ED007A 		vstr.32	s15, [r1]
 5376              		.loc 1 1295 0
 5377 00a4 D2ED007A 		vldr.32	s15, [r2]
 5378 00a8 77EE897A 		vadd.f32	s15, s15, s18
 5379 00ac C2ED007A 		vstr.32	s15, [r2]
 5380              		.loc 1 1296 0
 5381 00b0 D3ED007A 		vldr.32	s15, [r3]
 5382 00b4 77EE897A 		vadd.f32	s15, s15, s18
 5383 00b8 C3ED007A 		vstr.32	s15, [r3]
 5384              		.loc 1 1298 0
 5385 00bc FFF7FEFF 		bl	mcpwm_foc_get_id
 5386              	.LVL434:
 5387 00c0 5B4B     		ldr	r3, .L734+44
 5388 00c2 D3ED007A 		vldr.32	s15, [r3]
 5389 00c6 37EE800A 		vadd.f32	s0, s15, s0
 5390 00ca 83ED000A 		vstr.32	s0, [r3]
 5391              		.loc 1 1299 0
 5392 00ce FFF7FEFF 		bl	mcpwm_foc_get_iq
 5393              	.LVL435:
 5394 00d2 5849     		ldr	r1, .L734+48
 5395              		.loc 1 1300 0
 5396 00d4 584A     		ldr	r2, .L734+52
 5397              		.loc 1 1299 0
 5398 00d6 D1ED007A 		vldr.32	s15, [r1]
 5399              		.loc 1 1301 0
 5400 00da 584B     		ldr	r3, .L734+56
 5401              		.loc 1 1299 0
 5402 00dc 37EE800A 		vadd.f32	s0, s15, s0
 5403 00e0 81ED000A 		vstr.32	s0, [r1]
 5404              		.loc 1 1300 0
 5405 00e4 D2ED007A 		vldr.32	s15, [r2]
 5406 00e8 77EE897A 		vadd.f32	s15, s15, s18
 5407 00ec C2ED007A 		vstr.32	s15, [r2]
 5408              		.loc 1 1301 0
 5409 00f0 D3ED007A 		vldr.32	s15, [r3]
 5410 00f4 37EE899A 		vadd.f32	s18, s15, s18
 5411 00f8 83ED009A 		vstr.32	s18, [r3]
 5412              		.loc 1 1303 0
 5413 00fc FFF7FEFF 		bl	mc_interface_get_tot_current
 5414              	.LVL436:
 5415              		.loc 1 1305 0
ARM GAS  /tmp/ccSws2SG.s 			page 96


 5416 0100 A378     		ldrb	r3, [r4, #2]	@ zero_extendqisi2
 5417 0102 022B     		cmp	r3, #2
 5418              		.loc 1 1303 0
 5419 0104 B0EE409A 		vmov.f32	s18, s0
 5420              	.LVL437:
 5421              		.loc 1 1305 0
 5422 0108 00F0CD81 		beq	.L725
 5423              		.loc 1 1304 0
 5424 010c B0EE680A 		vmov.f32	s0, s17
 5425              	.LVL438:
 5426              	.L647:
 5427              		.loc 1 1312 0
 5428 0110 94F83C30 		ldrb	r3, [r4, #60]	@ zero_extendqisi2
 5429              		.loc 1 1313 0
 5430 0114 D4ED057A 		vldr.32	s15, [r4, #20]
 5431              		.loc 1 1312 0
 5432 0118 002B     		cmp	r3, #0
 5433 011a 00F04781 		beq	.L648
 5434              		.loc 1 1313 0
 5435 011e B0EEC00A 		vabs.f32	s0, s0
 5436              	.LVL439:
 5437 0122 B4EEE70A 		vcmpe.f32	s0, s15
 5438 0126 F1EE10FA 		vmrs	APSR_nzcv, FPSCR
 5439 012a 5CDD     		ble	.L649
 5440              	.LVL440:
 5441              	.LBB210:
 5442              	.LBB211:
 5443              		.loc 1 1194 0
 5444 012c 444B     		ldr	r3, .L734+60
 5445 012e 1B78     		ldrb	r3, [r3]	@ zero_extendqisi2
 5446 0130 042B     		cmp	r3, #4
 5447 0132 55D1     		bne	.L651
 5448              	.LVL441:
 5449              	.L730:
 5450              		.loc 1 1195 0
 5451 0134 434B     		ldr	r3, .L734+64
 5452 0136 D4F88821 		ldr	r2, [r4, #392]
 5453 013a 1A60     		str	r2, [r3]
 5454              	.LBE211:
 5455              	.LBE210:
 5456              		.loc 1 1323 0
 5457 013c 424B     		ldr	r3, .L734+68
 5458 013e 1B69     		ldr	r3, [r3, #16]
 5459 0140 1B06     		lsls	r3, r3, #24
 5460 0142 40F1AC81 		bpl	.L656
 5461              	.LVL442:
 5462              	.L655:
 5463              		.loc 1 1338 0
 5464 0146 FFF7FEFF 		bl	mc_interface_get_sampling_frequency_now
 5465              	.LVL443:
 5466              		.loc 1 1339 0
 5467 014a F0EEE88A 		vabs.f32	s17, s17
 5468              	.LVL444:
 5469 014e F7EE006A 		vmov.f32	s13, #1.0e+0
 5470 0152 F4EEE68A 		vcmpe.f32	s17, s13
 5471 0156 F1EE10FA 		vmrs	APSR_nzcv, FPSCR
 5472              		.loc 1 1338 0
ARM GAS  /tmp/ccSws2SG.s 			page 97


 5473 015a B0EE409A 		vmov.f32	s18, s0
 5474              	.LVL445:
 5475              		.loc 1 1339 0
 5476 015e 31DD     		ble	.L658
 5477              	.LBB213:
 5478              		.loc 1 1345 0
 5479 0160 86EE807A 		vdiv.f32	s14, s13, s0
 5480 0164 394A     		ldr	r2, .L734+72
 5481              		.loc 1 1344 0
 5482 0166 3A4B     		ldr	r3, .L734+76
 5483 0168 C9EE807A 		vdiv.f32	s15, s19, s0
 5484              		.loc 1 1345 0
 5485 016c 92ED006A 		vldr.32	s12, [r2]
 5486              		.loc 1 1344 0
 5487 0170 D3ED005A 		vldr.32	s11, [r3]
 5488              		.loc 1 1347 0
 5489 0174 DFED376A 		vldr.32	s13, .L734+80
 5490              		.loc 1 1345 0
 5491 0178 37EE067A 		vadd.f32	s14, s14, s12
 5492              		.loc 1 1344 0
 5493 017c 77EEA57A 		vadd.f32	s15, s15, s11
 5494              		.loc 1 1347 0
 5495 0180 B4EEE67A 		vcmpe.f32	s14, s13
 5496 0184 F1EE10FA 		vmrs	APSR_nzcv, FPSCR
 5497              		.loc 1 1344 0
 5498 0188 C3ED007A 		vstr.32	s15, [r3]
 5499              		.loc 1 1345 0
 5500 018c 82ED007A 		vstr.32	s14, [r2]
 5501              		.loc 1 1347 0
 5502 0190 18DB     		blt	.L658
 5503              		.loc 1 1348 0
 5504 0192 F5EEC07A 		vcmpe.f32	s15, #0
 5505 0196 F1EE10FA 		vmrs	APSR_nzcv, FPSCR
 5506 019a 27EE888A 		vmul.f32	s16, s15, s16
 5507              	.LVL446:
 5508 019e 40F3A281 		ble	.L713
 5509              		.loc 1 1349 0
 5510 01a2 2D48     		ldr	r0, .L734+84
 5511              		.loc 1 1350 0
 5512 01a4 2D49     		ldr	r1, .L734+88
 5513              		.loc 1 1349 0
 5514 01a6 90ED007A 		vldr.32	s14, [r0]
 5515 01aa 77EE877A 		vadd.f32	s15, s15, s14
 5516 01ae C0ED007A 		vstr.32	s15, [r0]
 5517              		.loc 1 1350 0
 5518 01b2 D1ED007A 		vldr.32	s15, [r1]
 5519 01b6 37EE888A 		vadd.f32	s16, s15, s16
 5520 01ba 81ED008A 		vstr.32	s16, [r1]
 5521              	.L663:
 5522              		.loc 1 1356 0
 5523 01be 0021     		movs	r1, #0
 5524 01c0 1160     		str	r1, [r2]	@ float
 5525              		.loc 1 1357 0
 5526 01c2 1960     		str	r1, [r3]	@ float
 5527              	.L658:
 5528              	.LVL447:
 5529              	.LBE213:
ARM GAS  /tmp/ccSws2SG.s 			page 98


 5530              		.loc 1 1363 0
 5531 01c4 264F     		ldr	r7, .L734+92
 5532 01c6 3B78     		ldrb	r3, [r7]	@ zero_extendqisi2
 5533 01c8 013B     		subs	r3, r3, #1
 5534 01ca 052B     		cmp	r3, #5
 5535 01cc 00F2E980 		bhi	.L636
 5536 01d0 DFE813F0 		tbh	[pc, r3, lsl #1]
 5537              	.L666:
 5538 01d4 4F01     		.2byte	(.L665-.L666)/2
 5539 01d6 2801     		.2byte	(.L667-.L666)/2
 5540 01d8 1901     		.2byte	(.L668-.L666)/2
 5541 01da 4800     		.2byte	(.L669-.L666)/2
 5542 01dc 1901     		.2byte	(.L668-.L666)/2
 5543 01de 4800     		.2byte	(.L669-.L666)/2
 5544              	.LVL448:
 5545              		.p2align 1
 5546              	.L651:
 5547              	.LBB214:
 5548              	.LBB215:
 5549 01e0 0420     		movs	r0, #4
 5550 01e2 FFF7FEFF 		bl	mc_interface_fault_stop.part.4
 5551              	.LVL449:
 5552              	.L649:
 5553              	.LBE215:
 5554              	.LBE214:
 5555              		.loc 1 1323 0
 5556 01e6 184B     		ldr	r3, .L734+68
 5557 01e8 1B69     		ldr	r3, [r3, #16]
 5558 01ea 1A06     		lsls	r2, r3, #24
 5559 01ec ABD4     		bmi	.L655
 5560              	.LVL450:
 5561              	.LBB216:
 5562              	.LBB217:
 5563              		.loc 1 1194 0
 5564 01ee 144B     		ldr	r3, .L734+60
 5565 01f0 1B78     		ldrb	r3, [r3]	@ zero_extendqisi2
 5566 01f2 032B     		cmp	r3, #3
 5567 01f4 40F05381 		bne	.L656
 5568              		.loc 1 1195 0
 5569 01f8 124B     		ldr	r3, .L734+64
 5570 01fa D4F88821 		ldr	r2, [r4, #392]
 5571 01fe 1A60     		str	r2, [r3]
 5572 0200 A1E7     		b	.L655
 5573              	.L735:
 5574 0202 00BF     		.align	2
 5575              	.L734:
 5576 0204 00000000 		.word	.LANCHOR42
 5577 0208 00000000 		.word	.LANCHOR12
 5578 020c 6740533A 		.word	978534503
 5579 0210 74D19541 		.word	1100337524
 5580 0214 00000000 		.word	.LANCHOR43
 5581 0218 00000000 		.word	.LANCHOR15
 5582 021c 00000000 		.word	.LANCHOR40
 5583 0220 00000000 		.word	.LANCHOR18
 5584 0224 00000000 		.word	.LANCHOR19
 5585 0228 00000000 		.word	.LANCHOR20
 5586 022c 00000000 		.word	.LANCHOR21
ARM GAS  /tmp/ccSws2SG.s 			page 99


 5587 0230 00000000 		.word	.LANCHOR22
 5588 0234 00000000 		.word	.LANCHOR23
 5589 0238 00000000 		.word	.LANCHOR24
 5590 023c 00000000 		.word	.LANCHOR25
 5591 0240 00000000 		.word	.LANCHOR13
 5592 0244 00000000 		.word	.LANCHOR14
 5593 0248 00040240 		.word	1073873920
 5594 024c 00000000 		.word	.LANCHOR45
 5595 0250 00000000 		.word	.LANCHOR44
 5596 0254 0AD7233C 		.word	1008981770
 5597 0258 00000000 		.word	.LANCHOR26
 5598 025c 00000000 		.word	.LANCHOR28
 5599 0260 00000000 		.word	.LANCHOR37
 5600              	.LVL451:
 5601              	.L669:
 5602              	.LBE217:
 5603              	.LBE216:
 5604              	.LBB219:
 5605              		.loc 1 1425 0
 5606 0264 DFF85483 		ldr	r8, .L736+92
 5607 0268 D8F80030 		ldr	r3, [r8]
 5608 026c 002B     		cmp	r3, #0
 5609 026e 80F22481 		bge	.L726
 5610              		.loc 1 1424 0
 5611 0272 4FF0FF33 		mov	r3, #-1
 5612              	.LVL452:
 5613              	.L679:
 5614              		.loc 1 1432 0
 5615 0276 BA4D     		ldr	r5, .L736
 5616 0278 2A68     		ldr	r2, [r5]
 5617 027a 9A42     		cmp	r2, r3
 5618 027c 00F05A81 		beq	.L727
 5619              		.loc 1 1445 0
 5620 0280 B84B     		ldr	r3, .L736+4
 5621              	.LVL453:
 5622 0282 1B78     		ldrb	r3, [r3]	@ zero_extendqisi2
 5623 0284 33B1     		cbz	r3, .L671
 5624              	.LVL454:
 5625              	.L688:
 5626 0286 D8F80030 		ldr	r3, [r8]
 5627 028a 002B     		cmp	r3, #0
 5628              		.loc 1 1446 0
 5629 028c BCBF     		itt	lt
 5630 028e 2B68     		ldrlt	r3, [r5]
 5631 0290 C8F80030 		strlt	r3, [r8]
 5632              	.LVL455:
 5633              	.L671:
 5634              	.LBE219:
 5635              	.LBB230:
 5636              		.loc 1 1456 0
 5637 0294 B44A     		ldr	r2, .L736+8
 5638              		.loc 1 1458 0
 5639 0296 B549     		ldr	r1, .L736+12
 5640              		.loc 1 1456 0
 5641 0298 1368     		ldr	r3, [r2]
 5642              		.loc 1 1458 0
 5643 029a 0968     		ldr	r1, [r1]
ARM GAS  /tmp/ccSws2SG.s 			page 100


 5644              		.loc 1 1456 0
 5645 029c 0133     		adds	r3, r3, #1
 5646              		.loc 1 1458 0
 5647 029e 8B42     		cmp	r3, r1
 5648              		.loc 1 1456 0
 5649 02a0 1360     		str	r3, [r2]
 5650              		.loc 1 1458 0
 5651 02a2 7EDB     		blt	.L636
 5652              	.LBB231:
 5653              		.loc 1 1461 0
 5654 02a4 2968     		ldr	r1, [r5]
 5655              		.loc 1 1459 0
 5656 02a6 0023     		movs	r3, #0
 5657              		.loc 1 1461 0
 5658 02a8 B1F5FA6F 		cmp	r1, #2000
 5659              		.loc 1 1462 0
 5660 02ac A8BF     		it	ge
 5661 02ae 2B60     		strge	r3, [r5]
 5662              		.loc 1 1459 0
 5663 02b0 1360     		str	r3, [r2]
 5664              		.loc 1 1466 0
 5665 02b2 A378     		ldrb	r3, [r4, #2]	@ zero_extendqisi2
 5666 02b4 022B     		cmp	r3, #2
 5667 02b6 00F08581 		beq	.L728
 5668              		.loc 1 1473 0
 5669 02ba AD4B     		ldr	r3, .L736+16
 5670              		.loc 1 1474 0
 5671 02bc AD4F     		ldr	r7, .L736+20
 5672              		.loc 1 1473 0
 5673 02be 1C68     		ldr	r4, [r3]
 5674              		.loc 1 1474 0
 5675 02c0 2B68     		ldr	r3, [r5]
 5676 02c2 3B44     		add	r3, r3, r7
 5677 02c4 0022     		movs	r2, #0
 5678              		.loc 1 1473 0
 5679 02c6 24B2     		sxth	r4, r4
 5680              	.LVL456:
 5681              		.loc 1 1474 0
 5682 02c8 83F8082E 		strb	r2, [r3, #3592]
 5683              	.L684:
 5684              		.loc 1 1477 0
 5685 02cc FFF7FEFF 		bl	mc_interface_get_state
 5686              	.LVL457:
 5687 02d0 0128     		cmp	r0, #1
 5688 02d2 00F09781 		beq	.L729
 5689              		.loc 1 1485 0
 5690 02d6 A848     		ldr	r0, .L736+24
 5691 02d8 A84B     		ldr	r3, .L736+28
 5692 02da 0268     		ldr	r2, [r0]
 5693 02dc D5F800C0 		ldr	ip, [r5]
 5694              		.loc 1 1488 0
 5695 02e0 A749     		ldr	r1, .L736+32
 5696              		.loc 1 1485 0
 5697 02e2 12B2     		sxth	r2, r2
 5698 02e4 23F81C20 		strh	r2, [r3, ip, lsl #1]	@ movhi
 5699              		.loc 1 1486 0
 5700 02e8 4268     		ldr	r2, [r0, #4]
ARM GAS  /tmp/ccSws2SG.s 			page 101


 5701 02ea 2868     		ldr	r0, [r5]
 5702              		.loc 1 1489 0
 5703 02ec DFF8D0C2 		ldr	ip, .L736+96
 5704              		.loc 1 1486 0
 5705 02f0 03EB4003 		add	r3, r3, r0, lsl #1
 5706 02f4 12B2     		sxth	r2, r2
 5707 02f6 A3F8A02F 		strh	r2, [r3, #4000]	@ movhi
 5708              		.loc 1 1488 0
 5709 02fa 3288     		ldrh	r2, [r6]
 5710 02fc 2B68     		ldr	r3, [r5]
 5711 02fe A0B2     		uxth	r0, r4
 5712 0300 01EB4303 		add	r3, r1, r3, lsl #1
 5713 0304 121A     		subs	r2, r2, r0
 5714 0306 12B2     		sxth	r2, r2
 5715 0308 A3F8482E 		strh	r2, [r3, #3656]	@ movhi
 5716              		.loc 1 1489 0
 5717 030c 7288     		ldrh	r2, [r6, #2]
 5718 030e 2B68     		ldr	r3, [r5]
 5719              		.loc 1 1490 0
 5720 0310 9C49     		ldr	r1, .L736+36
 5721              		.loc 1 1489 0
 5722 0312 0CEB4303 		add	r3, ip, r3, lsl #1
 5723 0316 121A     		subs	r2, r2, r0
 5724 0318 12B2     		sxth	r2, r2
 5725 031a A3F8F02C 		strh	r2, [r3, #3312]	@ movhi
 5726              		.loc 1 1490 0
 5727 031e B388     		ldrh	r3, [r6, #4]
 5728 0320 2A68     		ldr	r2, [r5]
 5729 0322 1B1A     		subs	r3, r3, r0
 5730 0324 01EB4202 		add	r2, r1, r2, lsl #1
 5731 0328 1BB2     		sxth	r3, r3
 5732 032a A2F8983B 		strh	r3, [r2, #2968]	@ movhi
 5733              	.L686:
 5734              		.loc 1 1493 0
 5735 032e 2A68     		ldr	r2, [r5]
 5736 0330 954B     		ldr	r3, .L736+40
 5737 0332 03EB4203 		add	r3, r3, r2, lsl #1
 5738 0336 A3F8404A 		strh	r4, [r3, #2624]	@ movhi
 5739              		.loc 1 1494 0
 5740 033a FFF7FEFF 		bl	mc_interface_get_tot_current
 5741              	.LVL458:
 5742              		.loc 1 1495 0
 5743 033e F2EE047A 		vmov.f32	s15, #1.0e+1
 5744 0342 89EE277A 		vdiv.f32	s14, s18, s15
 5745              		.loc 1 1494 0
 5746 0346 2B68     		ldr	r3, [r5]
 5747 0348 9048     		ldr	r0, .L736+44
 5748              		.loc 1 1495 0
 5749 034a 9149     		ldr	r1, .L736+48
 5750              		.loc 1 1494 0
 5751 034c 00EB4300 		add	r0, r0, r3, lsl #1
 5752 0350 DFED907A 		vldr.32	s15, .L736+52
 5753              		.loc 1 1495 0
 5754 0354 BDEEC77A 		vcvt.s32.f32	s14, s14
 5755              		.loc 1 1494 0
 5756 0358 20EE270A 		vmul.f32	s0, s0, s15
 5757              		.loc 1 1495 0
ARM GAS  /tmp/ccSws2SG.s 			page 102


 5758 035c 17EE103A 		vmov	r3, s14	@ int
 5759              		.loc 1 1494 0
 5760 0360 BDEEC00A 		vcvt.s32.f32	s0, s0
 5761              		.loc 1 1495 0
 5762 0364 1AB2     		sxth	r2, r3
 5763              		.loc 1 1494 0
 5764 0366 10EE103A 		vmov	r3, s0	@ int
 5765 036a 1BB2     		sxth	r3, r3
 5766 036c A0F8E838 		strh	r3, [r0, #2280]	@ movhi
 5767              		.loc 1 1495 0
 5768 0370 2B68     		ldr	r3, [r5]
 5769 0372 01EB4303 		add	r3, r1, r3, lsl #1
 5770 0376 A3F89027 		strh	r2, [r3, #1936]	@ movhi
 5771              		.loc 1 1496 0
 5772 037a FFF7FEFF 		bl	mcpwm_get_comm_step
 5773              	.LVL459:
 5774 037e 0446     		mov	r4, r0
 5775              	.LVL460:
 5776 0380 FFF7FEFF 		bl	mcpwm_read_hall_phase
 5777              	.LVL461:
 5778 0384 2B68     		ldr	r3, [r5]
 5779 0386 44EAC000 		orr	r0, r4, r0, lsl #3
 5780 038a 1F44     		add	r7, r7, r3
 5781 038c C0B2     		uxtb	r0, r0
 5782 038e 87F83806 		strb	r0, [r7, #1592]
 5783              		.loc 1 1498 0
 5784 0392 2B68     		ldr	r3, [r5]
 5785 0394 0133     		adds	r3, r3, #1
 5786 0396 2B60     		str	r3, [r5]
 5787              		.loc 1 1500 0
 5788 0398 FFF7FEFF 		bl	mc_interface_get_last_inj_adc_isr_duration
 5789              	.LVL462:
 5790 039c 7E4B     		ldr	r3, .L736+56
 5791 039e 83ED000A 		vstr.32	s0, [r3]
 5792              	.L636:
 5793              	.LBE231:
 5794              	.LBE230:
 5795              		.loc 1 1503 0
 5796 03a2 03B0     		add	sp, sp, #12
 5797              		.cfi_remember_state
 5798              		.cfi_def_cfa_offset 44
 5799              		@ sp needed
 5800 03a4 BDEC048B 		vldm	sp!, {d8-d9}
 5801              		.cfi_restore 82
 5802              		.cfi_restore 83
 5803              		.cfi_restore 80
 5804              		.cfi_restore 81
 5805              		.cfi_def_cfa_offset 28
 5806              	.LVL463:
 5807 03a8 BDE8F083 		pop	{r4, r5, r6, r7, r8, r9, pc}
 5808              	.LVL464:
 5809              	.L648:
 5810              		.cfi_restore_state
 5811              		.loc 1 1317 0
 5812 03ac B0EEC99A 		vabs.f32	s18, s18
 5813              	.LVL465:
 5814 03b0 B4EEE79A 		vcmpe.f32	s18, s15
ARM GAS  /tmp/ccSws2SG.s 			page 103


 5815 03b4 F1EE10FA 		vmrs	APSR_nzcv, FPSCR
 5816 03b8 7FF715AF 		ble	.L649
 5817              	.LVL466:
 5818              	.LBB233:
 5819              	.LBB212:
 5820              		.loc 1 1194 0
 5821 03bc 694B     		ldr	r3, .L736+4
 5822 03be 1B78     		ldrb	r3, [r3]	@ zero_extendqisi2
 5823 03c0 042B     		cmp	r3, #4
 5824 03c2 3FF4B7AE 		beq	.L730
 5825 03c6 0BE7     		b	.L651
 5826              	.LVL467:
 5827              	.L723:
 5828              	.LBE212:
 5829              	.LBE233:
 5830              		.loc 1 1274 0
 5831 03c8 D4ED0B7A 		vldr.32	s15, [r4, #44]
 5832              	.LBB234:
 5833              	.LBB235:
 5834              		.loc 1 1194 0
 5835 03cc 654B     		ldr	r3, .L736+4
 5836              	.LBE235:
 5837              	.LBE234:
 5838              		.loc 1 1274 0
 5839 03ce F4EEC87A 		vcmpe.f32	s15, s16
 5840 03d2 F1EE10FA 		vmrs	APSR_nzcv, FPSCR
 5841              	.LBB239:
 5842              	.LBB236:
 5843              		.loc 1 1194 0
 5844 03d6 1B78     		ldrb	r3, [r3]	@ zero_extendqisi2
 5845              	.LBE236:
 5846              	.LBE239:
 5847              		.loc 1 1274 0
 5848 03d8 CCBF     		ite	gt
 5849 03da 0220     		movgt	r0, #2
 5850 03dc 0120     		movle	r0, #1
 5851              	.LVL468:
 5852              	.LBB240:
 5853              	.LBB237:
 5854              		.loc 1 1194 0
 5855 03de 8342     		cmp	r3, r0
 5856 03e0 68D1     		bne	.L643
 5857              		.loc 1 1195 0
 5858 03e2 6E4B     		ldr	r3, .L736+60
 5859 03e4 D4F88821 		ldr	r2, [r4, #392]
 5860 03e8 1A60     		str	r2, [r3]
 5861              	.LBE237:
 5862              	.LBE240:
 5863              		.loc 1 1281 0
 5864 03ea FFF7FEFF 		bl	mc_interface_get_state
 5865              	.LVL469:
 5866 03ee 0228     		cmp	r0, #2
 5867 03f0 7FF437AE 		bne	.L644
 5868              	.L724:
 5869              		.loc 1 1282 0
 5870 03f4 6A4A     		ldr	r2, .L736+64
 5871 03f6 1368     		ldr	r3, [r2]
ARM GAS  /tmp/ccSws2SG.s 			page 104


 5872 03f8 0133     		adds	r3, r3, #1
 5873 03fa 1360     		str	r3, [r2]
 5874 03fc 34E6     		b	.L645
 5875              	.L712:
 5876              		.loc 1 1278 0
 5877 03fe 694B     		ldr	r3, .L736+68
 5878 0400 0022     		movs	r2, #0
 5879 0402 1A60     		str	r2, [r3]
 5880 0404 28E6     		b	.L640
 5881              	.LVL470:
 5882              	.L668:
 5883              	.LBB241:
 5884              		.loc 1 1395 0
 5885 0406 DFF8B481 		ldr	r8, .L736+92
 5886 040a D8F80030 		ldr	r3, [r8]
 5887 040e 002B     		cmp	r3, #0
 5888 0410 5DDB     		blt	.L692
 5889              		.loc 1 1396 0
 5890 0412 654A     		ldr	r2, .L736+72
 5891 0414 D8F80030 		ldr	r3, [r8]
 5892 0418 1268     		ldr	r2, [r2]
 5893              	.LVL471:
 5894              		.loc 1 1397 0
 5895 041a 9B1A     		subs	r3, r3, r2
 5896              	.LVL472:
 5897 041c 59D5     		bpl	.L675
 5898              		.loc 1 1398 0
 5899 041e 03F5FA63 		add	r3, r3, #2000
 5900              	.LVL473:
 5901 0422 56E0     		b	.L675
 5902              	.LVL474:
 5903              	.L667:
 5904              	.LBE241:
 5905              		.loc 1 1377 0
 5906 0424 FFF7FEFF 		bl	mc_interface_get_state
 5907              	.LVL475:
 5908 0428 0228     		cmp	r0, #2
 5909 042a 4D4D     		ldr	r5, .L736
 5910 042c 03D0     		beq	.L672
 5911              		.loc 1 1377 0 is_stmt 0 discriminator 1
 5912 042e 2B68     		ldr	r3, [r5]
 5913 0430 002B     		cmp	r3, #0
 5914 0432 40F33381 		ble	.L731
 5915              	.L672:
 5916              	.LVL476:
 5917              		.loc 1 1381 0 is_stmt 1
 5918 0436 5C4B     		ldr	r3, .L736+72
 5919 0438 2A68     		ldr	r2, [r5]
 5920 043a 1B68     		ldr	r3, [r3]
 5921 043c 9A42     		cmp	r2, r3
 5922 043e 7FF429AF 		bne	.L671
 5923 0442 4FF00109 		mov	r9, #1
 5924              	.LVL477:
 5925              	.L687:
 5926              		.loc 1 1382 0
 5927 0446 3B78     		ldrb	r3, [r7]	@ zero_extendqisi2
 5928 0448 584A     		ldr	r2, .L736+76
ARM GAS  /tmp/ccSws2SG.s 			page 105


 5929 044a DBB2     		uxtb	r3, r3
 5930              		.loc 1 1383 0
 5931 044c 4FF00008 		mov	r8, #0
 5932              		.loc 1 1382 0
 5933 0450 1370     		strb	r3, [r2]
 5934              	.LBB252:
 5935              	.LBB253:
 5936              	.LBB254:
 5937              	.LBB255:
 5938              	.LBB256:
 5939              		.file 4 "ChibiOS_3.0.2/os/ext/CMSIS/include/core_cmFunc.h"
 5940              		.loc 4 546 0
 5941 0452 2023     		movs	r3, #32
 5942              	.LBE256:
 5943              	.LBE255:
 5944              	.LBE254:
 5945              	.LBE253:
 5946              	.LBE252:
 5947              		.loc 1 1383 0
 5948 0454 87F80080 		strb	r8, [r7]
 5949              	.LVL478:
 5950              	.LBB261:
 5951              	.LBB260:
 5952              	.LBB259:
 5953              	.LBB258:
 5954              	.LBB257:
 5955              		.loc 4 546 0
 5956              		.syntax unified
 5957              	@ 546 "ChibiOS_3.0.2/os/ext/CMSIS/include/core_cmFunc.h" 1
 5958 0458 83F31188 		MSR basepri, r3
 5959              	@ 0 "" 2
 5960              	.LVL479:
 5961              		.thumb
 5962              		.syntax unified
 5963              	.LBE257:
 5964              	.LBE258:
 5965              	.LBE259:
 5966              	.LBE260:
 5967              	.LBE261:
 5968              		.loc 1 1385 0
 5969 045c 544B     		ldr	r3, .L736+80
 5970 045e 0121     		movs	r1, #1
 5971 0460 1868     		ldr	r0, [r3]
 5972 0462 FFF7FEFF 		bl	chEvtSignalI
 5973              	.LVL480:
 5974              	.LBB262:
 5975              	.LBB263:
 5976              	.LBB264:
 5977              	.LBB265:
 5978              	.LBB266:
 5979              		.loc 4 546 0
 5980              		.syntax unified
 5981              	@ 546 "ChibiOS_3.0.2/os/ext/CMSIS/include/core_cmFunc.h" 1
 5982 0466 88F31188 		MSR basepri, r8
 5983              	@ 0 "" 2
 5984              	.LVL481:
 5985              		.thumb
ARM GAS  /tmp/ccSws2SG.s 			page 106


 5986              		.syntax unified
 5987              	.LBE266:
 5988              	.LBE265:
 5989              	.LBE264:
 5990              	.LBE263:
 5991              	.LBE262:
 5992              		.loc 1 1454 0
 5993 046a B9F1000F 		cmp	r9, #0
 5994 046e 98D0     		beq	.L636
 5995 0470 10E7     		b	.L671
 5996              	.LVL482:
 5997              	.L665:
 5998              		.loc 1 1365 0
 5999 0472 3B4D     		ldr	r5, .L736
 6000 0474 4C4B     		ldr	r3, .L736+72
 6001 0476 2A68     		ldr	r2, [r5]
 6002 0478 1B68     		ldr	r3, [r3]
 6003 047a 9A42     		cmp	r2, r3
 6004 047c 7FF40AAF 		bne	.L671
 6005              		.loc 1 1367 0
 6006 0480 4A4A     		ldr	r2, .L736+76
 6007              		.loc 1 1366 0
 6008 0482 0024     		movs	r4, #0
 6009              		.loc 1 1367 0
 6010 0484 0121     		movs	r1, #1
 6011              		.loc 1 1366 0
 6012 0486 3C70     		strb	r4, [r7]
 6013              	.LBB267:
 6014              	.LBB268:
 6015              	.LBB269:
 6016              	.LBB270:
 6017              	.LBB271:
 6018              		.loc 4 546 0
 6019 0488 2023     		movs	r3, #32
 6020              	.LBE271:
 6021              	.LBE270:
 6022              	.LBE269:
 6023              	.LBE268:
 6024              	.LBE267:
 6025              		.loc 1 1367 0
 6026 048a 1170     		strb	r1, [r2]
 6027              	.LVL483:
 6028              	.LBB276:
 6029              	.LBB275:
 6030              	.LBB274:
 6031              	.LBB273:
 6032              	.LBB272:
 6033              		.loc 4 546 0
 6034              		.syntax unified
 6035              	@ 546 "ChibiOS_3.0.2/os/ext/CMSIS/include/core_cmFunc.h" 1
 6036 048c 83F31188 		MSR basepri, r3
 6037              	@ 0 "" 2
 6038              	.LVL484:
 6039              		.thumb
 6040              		.syntax unified
 6041              	.LBE272:
 6042              	.LBE273:
ARM GAS  /tmp/ccSws2SG.s 			page 107


 6043              	.LBE274:
 6044              	.LBE275:
 6045              	.LBE276:
 6046              		.loc 1 1369 0
 6047 0490 474B     		ldr	r3, .L736+80
 6048 0492 1868     		ldr	r0, [r3]
 6049 0494 FFF7FEFF 		bl	chEvtSignalI
 6050              	.LVL485:
 6051              	.LBB277:
 6052              	.LBB278:
 6053              	.LBB279:
 6054              	.LBB280:
 6055              	.LBB281:
 6056              		.loc 4 546 0
 6057              		.syntax unified
 6058              	@ 546 "ChibiOS_3.0.2/os/ext/CMSIS/include/core_cmFunc.h" 1
 6059 0498 84F31188 		MSR basepri, r4
 6060              	@ 0 "" 2
 6061              	.LVL486:
 6062              		.thumb
 6063              		.syntax unified
 6064 049c 81E7     		b	.L636
 6065              	.LVL487:
 6066              	.L656:
 6067              	.LBE281:
 6068              	.LBE280:
 6069              	.LBE279:
 6070              	.LBE278:
 6071              	.LBE277:
 6072              	.LBB282:
 6073              	.LBB218:
 6074 049e 0320     		movs	r0, #3
 6075 04a0 FFF7FEFF 		bl	mc_interface_fault_stop.part.4
 6076              	.LVL488:
 6077 04a4 4FE6     		b	.L655
 6078              	.LVL489:
 6079              	.L725:
 6080              	.LBE218:
 6081              	.LBE282:
 6082              		.loc 1 1307 0
 6083 04a6 FFF7FEFF 		bl	mcpwm_foc_get_abs_motor_current
 6084              	.LVL490:
 6085 04aa B0EE409A 		vmov.f32	s18, s0
 6086              	.LVL491:
 6087              		.loc 1 1308 0
 6088 04ae FFF7FEFF 		bl	mcpwm_foc_get_abs_motor_current_filtered
 6089              	.LVL492:
 6090 04b2 2DE6     		b	.L647
 6091              	.LVL493:
 6092              	.L643:
 6093              	.LBB283:
 6094              	.LBB238:
 6095 04b4 FFF7FEFF 		bl	mc_interface_fault_stop.part.4
 6096              	.LVL494:
 6097 04b8 CEE5     		b	.L640
 6098              	.LVL495:
 6099              	.L726:
ARM GAS  /tmp/ccSws2SG.s 			page 108


 6100              	.LBE238:
 6101              	.LBE283:
 6102              	.LBB284:
 6103              		.loc 1 1426 0
 6104 04ba 3B4A     		ldr	r2, .L736+72
 6105 04bc D8F80030 		ldr	r3, [r8]
 6106 04c0 1268     		ldr	r2, [r2]
 6107              	.LVL496:
 6108              		.loc 1 1427 0
 6109 04c2 9B1A     		subs	r3, r3, r2
 6110              	.LVL497:
 6111 04c4 7FF5D7AE 		bpl	.L679
 6112              		.loc 1 1428 0
 6113 04c8 03F5FA63 		add	r3, r3, #2000
 6114              	.LVL498:
 6115 04cc D3E6     		b	.L679
 6116              	.LVL499:
 6117              	.L692:
 6118              	.LBE284:
 6119              	.LBB285:
 6120              		.loc 1 1394 0
 6121 04ce 4FF0FF33 		mov	r3, #-1
 6122              	.LVL500:
 6123              	.L675:
 6124              		.loc 1 1402 0
 6125 04d2 234D     		ldr	r5, .L736
 6126 04d4 2A68     		ldr	r2, [r5]
 6127 04d6 9A42     		cmp	r2, r3
 6128 04d8 14D0     		beq	.L676
 6129              		.loc 1 1415 0
 6130 04da FFF7FEFF 		bl	mc_interface_get_state
 6131              	.LVL501:
 6132 04de 0228     		cmp	r0, #2
 6133 04e0 7FF4D8AE 		bne	.L671
 6134 04e4 CFE6     		b	.L688
 6135              	.LVL502:
 6136              	.L713:
 6137              	.LBE285:
 6138              	.LBB286:
 6139              		.loc 1 1352 0
 6140 04e6 3348     		ldr	r0, .L736+84
 6141              		.loc 1 1353 0
 6142 04e8 3349     		ldr	r1, .L736+88
 6143              		.loc 1 1352 0
 6144 04ea 90ED007A 		vldr.32	s14, [r0]
 6145 04ee 77EE677A 		vsub.f32	s15, s14, s15
 6146 04f2 C0ED007A 		vstr.32	s15, [r0]
 6147              		.loc 1 1353 0
 6148 04f6 D1ED007A 		vldr.32	s15, [r1]
 6149 04fa 37EEC88A 		vsub.f32	s16, s15, s16
 6150 04fe 81ED008A 		vstr.32	s16, [r1]
 6151 0502 5CE6     		b	.L663
 6152              	.LVL503:
 6153              	.L676:
 6154              	.LBE286:
 6155              	.LBB287:
 6156              		.loc 1 1403 0
ARM GAS  /tmp/ccSws2SG.s 			page 109


 6157 0504 3B78     		ldrb	r3, [r7]	@ zero_extendqisi2
 6158              	.LVL504:
 6159 0506 294A     		ldr	r2, .L736+76
 6160 0508 DBB2     		uxtb	r3, r3
 6161 050a 1370     		strb	r3, [r2]
 6162              	.LVL505:
 6163              		.loc 1 1406 0
 6164 050c 3B78     		ldrb	r3, [r7]	@ zero_extendqisi2
 6165 050e 032B     		cmp	r3, #3
 6166 0510 00F0CD80 		beq	.L732
 6167              	.LVL506:
 6168              	.L677:
 6169              		.loc 1 1412 0
 6170 0514 0023     		movs	r3, #0
 6171 0516 3B70     		strb	r3, [r7]
 6172              		.loc 1 1415 0
 6173 0518 FFF7FEFF 		bl	mc_interface_get_state
 6174              	.LVL507:
 6175 051c 0228     		cmp	r0, #2
 6176 051e 7FF440AF 		bne	.L636
 6177 0522 D8F80030 		ldr	r3, [r8]
 6178 0526 002B     		cmp	r3, #0
 6179 0528 BFF63BAF 		bge	.L636
 6180              	.L719:
 6181              	.LBE287:
 6182              	.LBB288:
 6183              		.loc 1 1446 0
 6184 052c 2B68     		ldr	r3, [r5]
 6185 052e C8F80030 		str	r3, [r8]
 6186 0532 36E7     		b	.L636
 6187              	.LVL508:
 6188              	.L727:
 6189              		.loc 1 1433 0
 6190 0534 3B78     		ldrb	r3, [r7]	@ zero_extendqisi2
 6191              	.LVL509:
 6192 0536 1D4A     		ldr	r2, .L736+76
 6193 0538 DBB2     		uxtb	r3, r3
 6194 053a 1370     		strb	r3, [r2]
 6195              	.LVL510:
 6196              		.loc 1 1436 0
 6197 053c 3B78     		ldrb	r3, [r7]	@ zero_extendqisi2
 6198 053e 042B     		cmp	r3, #4
 6199 0540 00F0C180 		beq	.L733
 6200              	.LVL511:
 6201              	.L681:
 6202              		.loc 1 1445 0
 6203 0544 074B     		ldr	r3, .L736+4
 6204 0546 1B78     		ldrb	r3, [r3]	@ zero_extendqisi2
 6205              		.loc 1 1442 0
 6206 0548 0022     		movs	r2, #0
 6207 054a 3A70     		strb	r2, [r7]
 6208              		.loc 1 1445 0
 6209 054c 002B     		cmp	r3, #0
 6210 054e 3FF428AF 		beq	.L636
 6211 0552 D8F80030 		ldr	r3, [r8]
 6212 0556 9342     		cmp	r3, r2
 6213 0558 BFF623AF 		bge	.L636
ARM GAS  /tmp/ccSws2SG.s 			page 110


 6214 055c E6E7     		b	.L719
 6215              	.L737:
 6216 055e 00BF     		.align	2
 6217              	.L736:
 6218 0560 00000000 		.word	.LANCHOR36
 6219 0564 00000000 		.word	.LANCHOR13
 6220 0568 00000000 		.word	.LANCHOR46
 6221 056c 00000000 		.word	.LANCHOR35
 6222 0570 00000000 		.word	mcpwm_vzero
 6223 0574 C8760000 		.word	.LANCHOR11
 6224 0578 00000000 		.word	.LANCHOR47
 6225 057c 00000000 		.word	.LANCHOR4
 6226 0580 F8100000 		.word	.LANCHOR5
 6227 0584 E8320000 		.word	.LANCHOR7
 6228 0588 E0430000 		.word	.LANCHOR8
 6229 058c D8540000 		.word	.LANCHOR9
 6230 0590 D0650000 		.word	.LANCHOR10
 6231 0594 A48BC642 		.word	1120308132
 6232 0598 00000000 		.word	.LANCHOR31
 6233 059c 00000000 		.word	.LANCHOR14
 6234 05a0 00000000 		.word	.LANCHOR15
 6235 05a4 00000000 		.word	.LANCHOR43
 6236 05a8 00000000 		.word	.LANCHOR2
 6237 05ac 00000000 		.word	.LANCHOR1
 6238 05b0 00000000 		.word	.LANCHOR0
 6239 05b4 00000000 		.word	.LANCHOR27
 6240 05b8 00000000 		.word	.LANCHOR29
 6241 05bc 00000000 		.word	.LANCHOR3
 6242 05c0 F0210000 		.word	.LANCHOR6
 6243              	.LVL512:
 6244              	.L728:
 6245              	.LBE288:
 6246              	.LBB289:
 6247              	.LBB232:
 6248              		.loc 1 1467 0
 6249 05c4 3188     		ldrh	r1, [r6]
 6250 05c6 7488     		ldrh	r4, [r6, #2]
 6251 05c8 B288     		ldrh	r2, [r6, #4]
 6252 05ca 454B     		ldr	r3, .L738
 6253              		.loc 1 1468 0
 6254 05cc 454F     		ldr	r7, .L738+4
 6255              		.loc 1 1467 0
 6256 05ce 0C44     		add	r4, r4, r1
 6257 05d0 1444     		add	r4, r4, r2
 6258 05d2 A3FB0434 		umull	r3, r4, r3, r4
 6259              		.loc 1 1468 0
 6260 05d6 FFF7FEFF 		bl	mcpwm_foc_get_phase
 6261              	.LVL513:
 6262 05da 9FED437A 		vldr.32	s14, .L738+8
 6263 05de DFED437A 		vldr.32	s15, .L738+12
 6264 05e2 2B68     		ldr	r3, [r5]
 6265 05e4 80EE070A 		vdiv.f32	s0, s0, s14
 6266 05e8 3B44     		add	r3, r3, r7
 6267              		.loc 1 1467 0
 6268 05ea 44F34F04 		sbfx	r4, r4, #1, #16
 6269              	.LVL514:
 6270              		.loc 1 1468 0
ARM GAS  /tmp/ccSws2SG.s 			page 111


 6271 05ee 20EE270A 		vmul.f32	s0, s0, s15
 6272 05f2 FCEEC07A 		vcvt.u32.f32	s15, s0
 6273 05f6 CDED017A 		vstr.32	s15, [sp, #4]	@ int
 6274 05fa 9DF90420 		ldrsb	r2, [sp, #4]
 6275 05fe 83F8082E 		strb	r2, [r3, #3592]
 6276 0602 63E6     		b	.L684
 6277              	.L729:
 6278              		.loc 1 1478 0
 6279 0604 FFF7FEFF 		bl	mcpwm_get_comm_step
 6280              	.LVL515:
 6281 0608 394B     		ldr	r3, .L738+16
 6282 060a 3A4E     		ldr	r6, .L738+20
 6283 060c 0138     		subs	r0, r0, #1
 6284 060e 03EB8003 		add	r3, r3, r0, lsl #2
 6285 0612 D3ED007A 		vldr.32	s15, [r3]
 6286 0616 2A68     		ldr	r2, [r5]
 6287 0618 FDEEE77A 		vcvt.s32.f32	s15, s15
 6288 061c 17EE903A 		vmov	r3, s15	@ int
 6289 0620 1BB2     		sxth	r3, r3
 6290 0622 26F81230 		strh	r3, [r6, r2, lsl #1]	@ movhi
 6291              		.loc 1 1479 0
 6292 0626 FFF7FEFF 		bl	mcpwm_get_comm_step
 6293              	.LVL516:
 6294 062a 334B     		ldr	r3, .L738+24
 6295              		.loc 1 1481 0
 6296 062c 3349     		ldr	r1, .L738+28
 6297 062e 344A     		ldr	r2, .L738+32
 6298              		.loc 1 1479 0
 6299 0630 0138     		subs	r0, r0, #1
 6300 0632 03EB8003 		add	r3, r3, r0, lsl #2
 6301 0636 D3ED007A 		vldr.32	s15, [r3]
 6302 063a 2B68     		ldr	r3, [r5]
 6303              		.loc 1 1482 0
 6304 063c 3148     		ldr	r0, .L738+36
 6305              		.loc 1 1479 0
 6306 063e FDEEE77A 		vcvt.s32.f32	s15, s15
 6307 0642 06EB4306 		add	r6, r6, r3, lsl #1
 6308 0646 17EE903A 		vmov	r3, s15	@ int
 6309 064a 1BB2     		sxth	r3, r3
 6310 064c A6F8A03F 		strh	r3, [r6, #4000]	@ movhi
 6311              		.loc 1 1481 0
 6312 0650 D1ED007A 		vldr.32	s15, [r1]
 6313 0654 2B68     		ldr	r3, [r5]
 6314 0656 FDEEE77A 		vcvt.s32.f32	s15, s15
 6315 065a 02EB4302 		add	r2, r2, r3, lsl #1
 6316 065e 17EE903A 		vmov	r3, s15	@ int
 6317 0662 1BB2     		sxth	r3, r3
 6318 0664 A2F8483E 		strh	r3, [r2, #3656]	@ movhi
 6319              		.loc 1 1482 0
 6320 0668 D1ED017A 		vldr.32	s15, [r1, #4]
 6321 066c 2B68     		ldr	r3, [r5]
 6322              		.loc 1 1483 0
 6323 066e 264A     		ldr	r2, .L738+40
 6324              		.loc 1 1482 0
 6325 0670 FDEEE77A 		vcvt.s32.f32	s15, s15
 6326 0674 00EB4300 		add	r0, r0, r3, lsl #1
 6327 0678 17EE903A 		vmov	r3, s15	@ int
ARM GAS  /tmp/ccSws2SG.s 			page 112


 6328 067c 1BB2     		sxth	r3, r3
 6329 067e A0F8F03C 		strh	r3, [r0, #3312]	@ movhi
 6330              		.loc 1 1483 0
 6331 0682 D1ED027A 		vldr.32	s15, [r1, #8]
 6332 0686 2B68     		ldr	r3, [r5]
 6333 0688 FDEEE77A 		vcvt.s32.f32	s15, s15
 6334 068c 02EB4302 		add	r2, r2, r3, lsl #1
 6335 0690 17EE903A 		vmov	r3, s15	@ int
 6336 0694 1BB2     		sxth	r3, r3
 6337 0696 A2F8983B 		strh	r3, [r2, #2968]	@ movhi
 6338 069a 48E6     		b	.L686
 6339              	.LVL517:
 6340              	.L731:
 6341              	.LBE232:
 6342              	.LBE289:
 6343              		.loc 1 1381 0
 6344 069c 1B4B     		ldr	r3, .L738+44
 6345 069e 2A68     		ldr	r2, [r5]
 6346 06a0 1B68     		ldr	r3, [r3]
 6347 06a2 9A42     		cmp	r2, r3
 6348 06a4 7FF47DAE 		bne	.L636
 6349              		.loc 1 1361 0
 6350 06a8 4FF00009 		mov	r9, #0
 6351 06ac CBE6     		b	.L687
 6352              	.LVL518:
 6353              	.L732:
 6354              	.LBB290:
 6355              	.LBB242:
 6356              	.LBB243:
 6357              	.LBB244:
 6358              	.LBB245:
 6359              	.LBB246:
 6360              		.loc 4 546 0
 6361 06ae 2023     		movs	r3, #32
 6362              		.syntax unified
 6363              	@ 546 "ChibiOS_3.0.2/os/ext/CMSIS/include/core_cmFunc.h" 1
 6364 06b0 83F31188 		MSR basepri, r3
 6365              	@ 0 "" 2
 6366              	.LVL519:
 6367              		.thumb
 6368              		.syntax unified
 6369              	.LBE246:
 6370              	.LBE245:
 6371              	.LBE244:
 6372              	.LBE243:
 6373              	.LBE242:
 6374              		.loc 1 1408 0
 6375 06b4 164B     		ldr	r3, .L738+48
 6376 06b6 0121     		movs	r1, #1
 6377 06b8 1868     		ldr	r0, [r3]
 6378 06ba FFF7FEFF 		bl	chEvtSignalI
 6379              	.LVL520:
 6380              	.LBB247:
 6381              	.LBB248:
 6382              	.LBB249:
 6383              	.LBB250:
 6384              	.LBB251:
ARM GAS  /tmp/ccSws2SG.s 			page 113


 6385              		.loc 4 546 0
 6386 06be 0023     		movs	r3, #0
 6387              		.syntax unified
 6388              	@ 546 "ChibiOS_3.0.2/os/ext/CMSIS/include/core_cmFunc.h" 1
 6389 06c0 83F31188 		MSR basepri, r3
 6390              	@ 0 "" 2
 6391              	.LVL521:
 6392              		.thumb
 6393              		.syntax unified
 6394 06c4 26E7     		b	.L677
 6395              	.LVL522:
 6396              	.L733:
 6397              	.LBE251:
 6398              	.LBE250:
 6399              	.LBE249:
 6400              	.LBE248:
 6401              	.LBE247:
 6402              	.LBE290:
 6403              	.LBB291:
 6404              	.LBB220:
 6405              	.LBB221:
 6406              	.LBB222:
 6407              	.LBB223:
 6408              	.LBB224:
 6409 06c6 2023     		movs	r3, #32
 6410              		.syntax unified
 6411              	@ 546 "ChibiOS_3.0.2/os/ext/CMSIS/include/core_cmFunc.h" 1
 6412 06c8 83F31188 		MSR basepri, r3
 6413              	@ 0 "" 2
 6414              	.LVL523:
 6415              		.thumb
 6416              		.syntax unified
 6417              	.LBE224:
 6418              	.LBE223:
 6419              	.LBE222:
 6420              	.LBE221:
 6421              	.LBE220:
 6422              		.loc 1 1438 0
 6423 06cc 104B     		ldr	r3, .L738+48
 6424 06ce 0121     		movs	r1, #1
 6425 06d0 1868     		ldr	r0, [r3]
 6426 06d2 FFF7FEFF 		bl	chEvtSignalI
 6427              	.LVL524:
 6428              	.LBB225:
 6429              	.LBB226:
 6430              	.LBB227:
 6431              	.LBB228:
 6432              	.LBB229:
 6433              		.loc 4 546 0
 6434 06d6 0023     		movs	r3, #0
 6435              		.syntax unified
 6436              	@ 546 "ChibiOS_3.0.2/os/ext/CMSIS/include/core_cmFunc.h" 1
 6437 06d8 83F31188 		MSR basepri, r3
 6438              	@ 0 "" 2
 6439              	.LVL525:
 6440              		.thumb
 6441              		.syntax unified
ARM GAS  /tmp/ccSws2SG.s 			page 114


 6442 06dc 32E7     		b	.L681
 6443              	.L739:
 6444 06de 00BF     		.align	2
 6445              	.L738:
 6446 06e0 ABAAAAAA 		.word	-1431655765
 6447 06e4 C8760000 		.word	.LANCHOR11
 6448 06e8 0000B443 		.word	1135869952
 6449 06ec 00007A43 		.word	1132068864
 6450 06f0 00000000 		.word	mcpwm_detect_currents
 6451 06f4 00000000 		.word	.LANCHOR4
 6452 06f8 00000000 		.word	mcpwm_detect_currents_diff
 6453 06fc 00000000 		.word	mcpwm_detect_voltages
 6454 0700 F8100000 		.word	.LANCHOR5
 6455 0704 F0210000 		.word	.LANCHOR6
 6456 0708 E8320000 		.word	.LANCHOR7
 6457 070c 00000000 		.word	.LANCHOR2
 6458 0710 00000000 		.word	.LANCHOR0
 6459              	.LBE229:
 6460              	.LBE228:
 6461              	.LBE227:
 6462              	.LBE226:
 6463              	.LBE225:
 6464              	.LBE291:
 6465              		.cfi_endproc
 6466              	.LFE312:
 6467              		.size	mc_interface_mc_timer_isr, .-mc_interface_mc_timer_isr
