ARM GAS  /tmp/cchSvKkm.s 			page 1


   1              		.cpu cortex-m4
   2              		.eabi_attribute 27, 1
   3              		.eabi_attribute 28, 1
   4              		.eabi_attribute 20, 1
   5              		.eabi_attribute 21, 1
   6              		.eabi_attribute 23, 3
   7              		.eabi_attribute 24, 1
   8              		.eabi_attribute 25, 1
   9              		.eabi_attribute 26, 1
  10              		.eabi_attribute 30, 2
  11              		.eabi_attribute 34, 1
  12              		.eabi_attribute 18, 4
  13              		.file	"mcpwm.c"
  14              		.text
  15              	.Ltext0:
  16              		.cfi_sections	.debug_frame
  17              		.section	.text.update_adc_sample_pos,"ax",%progbits
  18              		.align	1
  19              		.p2align 4,,15
  20              		.syntax unified
  21              		.thumb
  22              		.thumb_func
  23              		.fpu fpv4-sp-d16
  24              		.type	update_adc_sample_pos, %function
  25              	update_adc_sample_pos:
  26              	.LFB316:
  27              		.file 1 "mcpwm.c"
  28              		.loc 1 2286 0
  29              		.cfi_startproc
  30              		@ args = 0, pretend = 0, frame = 24
  31              		@ frame_needed = 0, uses_anonymous_args = 0
  32              		@ link register save eliminated.
  33              	.LVL0:
  34 0000 F0B4     		push	{r4, r5, r6, r7}
  35              		.cfi_def_cfa_offset 16
  36              		.cfi_offset 4, -16
  37              		.cfi_offset 5, -12
  38              		.cfi_offset 6, -8
  39              		.cfi_offset 7, -4
  40 0002 86B0     		sub	sp, sp, #24
  41              		.cfi_def_cfa_offset 40
  42              		.loc 1 2287 0
  43 0004 8268     		ldr	r2, [r0, #8]
  44 0006 0092     		str	r2, [sp]
  45              		.loc 1 2288 0
  46 0008 4268     		ldr	r2, [r0, #4]
  47 000a 0192     		str	r2, [sp, #4]
  48              		.loc 1 2289 0
  49 000c C268     		ldr	r2, [r0, #12]
  50 000e 0292     		str	r2, [sp, #8]
  51              		.loc 1 2290 0
  52 0010 0269     		ldr	r2, [r0, #16]
  53 0012 0392     		str	r2, [sp, #12]
  54              		.loc 1 2291 0
  55 0014 4269     		ldr	r2, [r0, #20]
  56 0016 0492     		str	r2, [sp, #16]
  57              		.loc 1 2294 0
ARM GAS  /tmp/cchSvKkm.s 			page 2


  58 0018 8269     		ldr	r2, [r0, #24]
  59              		.loc 1 2297 0
  60 001a 6B4B     		ldr	r3, .L46
  61              		.loc 1 2294 0
  62 001c 0592     		str	r2, [sp, #20]
  63              		.loc 1 2297 0
  64 001e DDED017A 		vldr.32	s15, [sp, #4]	@ int
  65 0022 1B68     		ldr	r3, [r3]
  66 0024 F8EE677A 		vcvt.f32.u32	s15, s15
  67 0028 93ED167A 		vldr.32	s14, [r3, #88]
  68 002c 009A     		ldr	r2, [sp]
  69 002e 67EE877A 		vmul.f32	s15, s15, s14
  70 0032 FCEEE77A 		vcvt.u32.f32	s15, s15
  71 0036 17EE901A 		vmov	r1, s15	@ int
  72 003a 9142     		cmp	r1, r2
  73 003c 0BD2     		bcs	.L2
  74              		.loc 1 2298 0
  75 003e DDED017A 		vldr.32	s15, [sp, #4]	@ int
  76 0042 93ED167A 		vldr.32	s14, [r3, #88]
  77 0046 F8EE677A 		vcvt.f32.u32	s15, s15
  78 004a 67EE877A 		vmul.f32	s15, s15, s14
  79 004e FCEEE77A 		vcvt.u32.f32	s15, s15
  80 0052 CDED007A 		vstr.32	s15, [sp]	@ int
  81              	.L2:
  82              		.loc 1 2301 0
  83 0056 5D4A     		ldr	r2, .L46+4
  84 0058 0021     		movs	r1, #0
  85 005a 1160     		str	r1, [r2]
  86              		.loc 1 2303 0
  87 005c 9978     		ldrb	r1, [r3, #2]	@ zero_extendqisi2
  88 005e 0129     		cmp	r1, #1
  89 0060 50D0     		beq	.L43
  90              		.loc 1 2324 0
  91 0062 5B49     		ldr	r1, .L46+8
  92 0064 0978     		ldrb	r1, [r1]	@ zero_extendqisi2
  93 0066 0129     		cmp	r1, #1
  94 0068 29D0     		beq	.L44
  95              		.loc 1 2335 0
  96 006a 1B78     		ldrb	r3, [r3]	@ zero_extendqisi2
  97 006c 022B     		cmp	r3, #2
  98 006e 63D0     		beq	.L45
  99              		.loc 1 2420 0
 100 0070 009B     		ldr	r3, [sp]
 101 0072 5B08     		lsrs	r3, r3, #1
 102 0074 0293     		str	r3, [sp, #8]
 103              		.loc 1 2423 0
 104 0076 0199     		ldr	r1, [sp, #4]
 105 0078 009C     		ldr	r4, [sp]
 106 007a 009B     		ldr	r3, [sp]
 107 007c 091B     		subs	r1, r1, r4
 108 007e 03EB5103 		add	r3, r3, r1, lsr #1
 109 0082 0393     		str	r3, [sp, #12]
 110              		.loc 1 2424 0
 111 0084 019B     		ldr	r3, [sp, #4]
 112 0086 0399     		ldr	r1, [sp, #12]
 113 0088 463B     		subs	r3, r3, #70
 114 008a 8B42     		cmp	r3, r1
ARM GAS  /tmp/cchSvKkm.s 			page 3


 115 008c 02D2     		bcs	.L22
 116              		.loc 1 2425 0
 117 008e 019B     		ldr	r3, [sp, #4]
 118 0090 463B     		subs	r3, r3, #70
 119 0092 0393     		str	r3, [sp, #12]
 120              	.L22:
 121              		.loc 1 2428 0
 122 0094 039B     		ldr	r3, [sp, #12]
 123 0096 0493     		str	r3, [sp, #16]
 124              		.loc 1 2430 0
 125 0098 039B     		ldr	r3, [sp, #12]
 126 009a 0593     		str	r3, [sp, #20]
 127              		.loc 1 2435 0
 128 009c 0199     		ldr	r1, [sp, #4]
 129 009e 009B     		ldr	r3, [sp]
 130 00a0 B3EB510F 		cmp	r3, r1, lsr #1
 131 00a4 23D9     		bls	.L5
 132              		.loc 1 2458 0
 133 00a6 4B4B     		ldr	r3, .L46+12
 134 00a8 1B68     		ldr	r3, [r3]
 135              		.loc 1 2469 0
 136 00aa 4B4B     		ldr	r3, .L46+16
 137 00ac 1B68     		ldr	r3, [r3]
 138 00ae 013B     		subs	r3, r3, #1
 139 00b0 052B     		cmp	r3, #5
 140 00b2 1CD8     		bhi	.L5
 141 00b4 DFE803F0 		tbb	[pc, r3]
 142              	.L32:
 143 00b8 3D       		.byte	(.L37-.L32)/2
 144 00b9 3D       		.byte	(.L37-.L32)/2
 145 00ba 3D       		.byte	(.L37-.L32)/2
 146 00bb 3D       		.byte	(.L37-.L32)/2
 147 00bc 3D       		.byte	(.L37-.L32)/2
 148 00bd 3D       		.byte	(.L37-.L32)/2
 149              		.p2align 1
 150              	.L44:
 151              		.loc 1 2326 0
 152 00be 009B     		ldr	r3, [sp]
 153 00c0 5B08     		lsrs	r3, r3, #1
 154 00c2 0293     		str	r3, [sp, #8]
 155              		.loc 1 2329 0
 156 00c4 019A     		ldr	r2, [sp, #4]
 157 00c6 0099     		ldr	r1, [sp]
 158 00c8 009B     		ldr	r3, [sp]
 159 00ca 521A     		subs	r2, r2, r1
 160 00cc 03EB5203 		add	r3, r3, r2, lsr #1
 161 00d0 0393     		str	r3, [sp, #12]
 162              		.loc 1 2330 0
 163 00d2 019A     		ldr	r2, [sp, #4]
 164 00d4 0099     		ldr	r1, [sp]
 165 00d6 009B     		ldr	r3, [sp]
 166 00d8 521A     		subs	r2, r2, r1
 167 00da 03EB5203 		add	r3, r3, r2, lsr #1
 168 00de 0493     		str	r3, [sp, #16]
 169              		.loc 1 2332 0
 170 00e0 019A     		ldr	r2, [sp, #4]
 171 00e2 0099     		ldr	r1, [sp]
ARM GAS  /tmp/cchSvKkm.s 			page 4


 172 00e4 009B     		ldr	r3, [sp]
 173 00e6 521A     		subs	r2, r2, r1
 174 00e8 03EB5203 		add	r3, r3, r2, lsr #1
 175 00ec 0593     		str	r3, [sp, #20]
 176              	.L5:
 177              		.loc 1 2507 0
 178 00ee 029B     		ldr	r3, [sp, #8]
 179 00f0 C360     		str	r3, [r0, #12]
 180              		.loc 1 2508 0
 181 00f2 039B     		ldr	r3, [sp, #12]
 182 00f4 0361     		str	r3, [r0, #16]
 183              		.loc 1 2509 0
 184 00f6 049B     		ldr	r3, [sp, #16]
 185 00f8 4361     		str	r3, [r0, #20]
 186              		.loc 1 2511 0
 187 00fa 059B     		ldr	r3, [sp, #20]
 188 00fc 8361     		str	r3, [r0, #24]
 189              		.loc 1 2513 0
 190 00fe 06B0     		add	sp, sp, #24
 191              		.cfi_remember_state
 192              		.cfi_def_cfa_offset 16
 193              		@ sp needed
 194 0100 F0BC     		pop	{r4, r5, r6, r7}
 195              		.cfi_restore 7
 196              		.cfi_restore 6
 197              		.cfi_restore 5
 198              		.cfi_restore 4
 199              		.cfi_def_cfa_offset 0
 200 0102 7047     		bx	lr
 201              	.L43:
 202              		.cfi_restore_state
 203              		.loc 1 2304 0
 204 0104 019B     		ldr	r3, [sp, #4]
 205 0106 0A3B     		subs	r3, r3, #10
 206 0108 0393     		str	r3, [sp, #12]
 207              		.loc 1 2305 0
 208 010a 019B     		ldr	r3, [sp, #4]
 209 010c 0A3B     		subs	r3, r3, #10
 210 010e 0493     		str	r3, [sp, #16]
 211              		.loc 1 2307 0
 212 0110 019B     		ldr	r3, [sp, #4]
 213 0112 0A3B     		subs	r3, r3, #10
 214 0114 0593     		str	r3, [sp, #20]
 215              		.loc 1 2310 0
 216 0116 009B     		ldr	r3, [sp]
 217 0118 B3F57A7F 		cmp	r3, #1000
 218              		.loc 1 2311 0
 219 011c 009B     		ldr	r3, [sp]
 220              		.loc 1 2310 0
 221 011e 02D9     		bls	.L4
 222              		.loc 1 2311 0
 223 0120 5B08     		lsrs	r3, r3, #1
 224 0122 0293     		str	r3, [sp, #8]
 225 0124 E3E7     		b	.L5
 226              	.L4:
 227              		.loc 1 2314 0
 228 0126 0721     		movs	r1, #7
ARM GAS  /tmp/cchSvKkm.s 			page 5


 229              		.loc 1 2313 0
 230 0128 03F54873 		add	r3, r3, #800
 231 012c 0293     		str	r3, [sp, #8]
 232              		.loc 1 2314 0
 233 012e 1160     		str	r1, [r2]
 234 0130 DDE7     		b	.L5
 235              	.L37:
 236              		.loc 1 2475 0
 237 0132 0123     		movs	r3, #1
 238 0134 1360     		str	r3, [r2]
 239 0136 DAE7     		b	.L5
 240              	.L45:
 241              	.LBB74:
 242              		.loc 1 2336 0
 243 0138 019D     		ldr	r5, [sp, #4]
 244              		.loc 1 2337 0
 245 013a 0199     		ldr	r1, [sp, #4]
 246 013c 009F     		ldr	r7, [sp]
 247 013e 009E     		ldr	r6, [sp]
 248              		.loc 1 2338 0
 249 0140 019C     		ldr	r4, [sp, #4]
 250              		.loc 1 2341 0
 251 0142 019B     		ldr	r3, [sp, #4]
 252 0144 9B08     		lsrs	r3, r3, #2
 253 0146 0293     		str	r3, [sp, #8]
 254              		.loc 1 2338 0
 255 0148 023C     		subs	r4, r4, #2
 256              		.loc 1 2349 0
 257 014a 234B     		ldr	r3, .L46+16
 258              		.loc 1 2346 0
 259 014c 0594     		str	r4, [sp, #20]
 260              		.loc 1 2349 0
 261 014e 1B68     		ldr	r3, [r3]
 262              		.loc 1 2337 0
 263 0150 C91B     		subs	r1, r1, r7
 264              		.loc 1 2349 0
 265 0152 013B     		subs	r3, r3, #1
 266              		.loc 1 2336 0
 267 0154 023D     		subs	r5, r5, #2
 268              	.LVL1:
 269              		.loc 1 2337 0
 270 0156 06EB5101 		add	r1, r6, r1, lsr #1
 271              	.LVL2:
 272              		.loc 1 2349 0
 273 015a 052B     		cmp	r3, #5
 274 015c C7D8     		bhi	.L5
 275 015e DFE803F0 		tbb	[pc, r3]
 276              	.L10:
 277 0162 29       		.byte	(.L9-.L10)/2
 278 0163 20       		.byte	(.L11-.L10)/2
 279 0164 1A       		.byte	(.L12-.L10)/2
 280 0165 14       		.byte	(.L13-.L10)/2
 281 0166 0B       		.byte	(.L14-.L10)/2
 282 0167 03       		.byte	(.L15-.L10)/2
 283              		.p2align 1
 284              	.L15:
 285              		.loc 1 2407 0
ARM GAS  /tmp/cchSvKkm.s 			page 6


 286 0168 1A4B     		ldr	r3, .L46+12
 287 016a 1B68     		ldr	r3, [r3]
 288 016c 43B1     		cbz	r3, .L21
 289              	.L41:
 290              		.loc 1 2410 0
 291 016e 0123     		movs	r3, #1
 292              		.loc 1 2408 0
 293 0170 0395     		str	r5, [sp, #12]
 294              		.loc 1 2409 0
 295 0172 0494     		str	r4, [sp, #16]
 296              		.loc 1 2410 0
 297 0174 1360     		str	r3, [r2]
 298 0176 BAE7     		b	.L5
 299              	.L14:
 300              		.loc 1 2395 0
 301 0178 164B     		ldr	r3, .L46+12
 302 017a 1B68     		ldr	r3, [r3]
 303 017c 002B     		cmp	r3, #0
 304 017e F6D0     		beq	.L41
 305              	.L21:
 306              		.loc 1 2414 0
 307 0180 0123     		movs	r3, #1
 308              		.loc 1 2412 0
 309 0182 0395     		str	r5, [sp, #12]
 310              		.loc 1 2413 0
 311 0184 0491     		str	r1, [sp, #16]
 312              		.loc 1 2414 0
 313 0186 1360     		str	r3, [r2]
 314 0188 B1E7     		b	.L5
 315              	.L13:
 316              		.loc 1 2384 0
 317 018a 124B     		ldr	r3, .L46+12
 318 018c 1B68     		ldr	r3, [r3]
 319 018e ABB1     		cbz	r3, .L19
 320              	.L39:
 321              		.loc 1 2385 0
 322 0190 0394     		str	r4, [sp, #12]
 323              		.loc 1 2386 0
 324 0192 0491     		str	r1, [sp, #16]
 325 0194 ABE7     		b	.L5
 326              	.L12:
 327              		.loc 1 2373 0
 328 0196 0F4B     		ldr	r3, .L46+12
 329 0198 1B68     		ldr	r3, [r3]
 330 019a 33B1     		cbz	r3, .L18
 331              	.L40:
 332              		.loc 1 2374 0
 333 019c 0391     		str	r1, [sp, #12]
 334              		.loc 1 2375 0
 335 019e 0494     		str	r4, [sp, #16]
 336 01a0 A5E7     		b	.L5
 337              	.L11:
 338              		.loc 1 2362 0
 339 01a2 0C4B     		ldr	r3, .L46+12
 340 01a4 1B68     		ldr	r3, [r3]
 341 01a6 002B     		cmp	r3, #0
 342 01a8 F8D0     		beq	.L40
ARM GAS  /tmp/cchSvKkm.s 			page 7


 343              	.L18:
 344              		.loc 1 2379 0
 345 01aa 0223     		movs	r3, #2
 346              		.loc 1 2377 0
 347 01ac 0391     		str	r1, [sp, #12]
 348              		.loc 1 2378 0
 349 01ae 0495     		str	r5, [sp, #16]
 350              		.loc 1 2379 0
 351 01b0 1360     		str	r3, [r2]
 352 01b2 9CE7     		b	.L5
 353              	.L9:
 354              		.loc 1 2351 0
 355 01b4 074B     		ldr	r3, .L46+12
 356 01b6 1B68     		ldr	r3, [r3]
 357 01b8 002B     		cmp	r3, #0
 358 01ba E9D0     		beq	.L39
 359              	.L19:
 360              		.loc 1 2390 0
 361 01bc 0223     		movs	r3, #2
 362              		.loc 1 2388 0
 363 01be 0394     		str	r4, [sp, #12]
 364              		.loc 1 2389 0
 365 01c0 0495     		str	r5, [sp, #16]
 366              		.loc 1 2390 0
 367 01c2 1360     		str	r3, [r2]
 368 01c4 93E7     		b	.L5
 369              	.L47:
 370 01c6 00BF     		.align	2
 371              	.L46:
 372 01c8 00000000 		.word	.LANCHOR0
 373 01cc 00000000 		.word	.LANCHOR1
 374 01d0 00000000 		.word	.LANCHOR2
 375 01d4 00000000 		.word	.LANCHOR4
 376 01d8 00000000 		.word	.LANCHOR3
 377              	.LBE74:
 378              		.cfi_endproc
 379              	.LFE316:
 380              		.size	update_adc_sample_pos, .-update_adc_sample_pos
 381              		.section	.text.update_timer_attempt,"ax",%progbits
 382              		.align	1
 383              		.p2align 4,,15
 384              		.syntax unified
 385              		.thumb
 386              		.thumb_func
 387              		.fpu fpv4-sp-d16
 388              		.type	update_timer_attempt, %function
 389              	update_timer_attempt:
 390              	.LFB321:
 391              		.loc 1 2607 0
 392              		.cfi_startproc
 393              		@ args = 0, pretend = 0, frame = 0
 394              		@ frame_needed = 0, uses_anonymous_args = 0
 395 0000 08B5     		push	{r3, lr}
 396              		.cfi_def_cfa_offset 8
 397              		.cfi_offset 3, -8
 398              		.cfi_offset 14, -4
 399              		.loc 1 2608 0
ARM GAS  /tmp/cchSvKkm.s 			page 8


 400 0002 FFF7FEFF 		bl	utils_sys_lock_cnt
 401              	.LVL3:
 402              		.loc 1 2611 0
 403 0006 1A4B     		ldr	r3, .L51
 404 0008 1A78     		ldrb	r2, [r3]	@ zero_extendqisi2
 405 000a 002A     		cmp	r2, #0
 406 000c 2CD1     		bne	.L49
 407              		.loc 1 2611 0 is_stmt 0 discriminator 1
 408 000e 194A     		ldr	r2, .L51+4
 409 0010 516A     		ldr	r1, [r2, #36]
 410 0012 0A29     		cmp	r1, #10
 411 0014 28D9     		bls	.L49
 412              		.loc 1 2611 0 discriminator 2
 413 0016 506A     		ldr	r0, [r2, #36]
 414 0018 D16A     		ldr	r1, [r2, #44]
 415 001a A1F5FA71 		sub	r1, r1, #500
 416 001e 8842     		cmp	r0, r1
 417 0020 22D2     		bcs	.L49
 418              		.loc 1 2613 0 is_stmt 1
 419 0022 1068     		ldr	r0, [r2]
 420              		.loc 1 2614 0
 421 0024 1449     		ldr	r1, .L51+8
 422              		.loc 1 2613 0
 423 0026 40F00200 		orr	r0, r0, #2
 424 002a 1060     		str	r0, [r2]
 425              		.loc 1 2614 0
 426 002c 0868     		ldr	r0, [r1]
 427 002e 40F00200 		orr	r0, r0, #2
 428 0032 0860     		str	r0, [r1]
 429              		.loc 1 2617 0
 430 0034 5868     		ldr	r0, [r3, #4]
 431 0036 D062     		str	r0, [r2, #44]
 432              		.loc 1 2618 0
 433 0038 9868     		ldr	r0, [r3, #8]
 434 003a 5063     		str	r0, [r2, #52]
 435              		.loc 1 2619 0
 436 003c 9868     		ldr	r0, [r3, #8]
 437 003e 9063     		str	r0, [r2, #56]
 438              		.loc 1 2620 0
 439 0040 9868     		ldr	r0, [r3, #8]
 440 0042 D063     		str	r0, [r2, #60]
 441              		.loc 1 2621 0
 442 0044 D868     		ldr	r0, [r3, #12]
 443 0046 4863     		str	r0, [r1, #52]
 444              		.loc 1 2622 0
 445 0048 1869     		ldr	r0, [r3, #16]
 446 004a 1064     		str	r0, [r2, #64]
 447              		.loc 1 2623 0
 448 004c 5869     		ldr	r0, [r3, #20]
 449 004e 8863     		str	r0, [r1, #56]
 450              		.loc 1 2625 0
 451 0050 9869     		ldr	r0, [r3, #24]
 452 0052 C863     		str	r0, [r1, #60]
 453              		.loc 1 2629 0
 454 0054 1068     		ldr	r0, [r2]
 455 0056 20F00200 		bic	r0, r0, #2
 456 005a 1060     		str	r0, [r2]
ARM GAS  /tmp/cchSvKkm.s 			page 9


 457              		.loc 1 2630 0
 458 005c 0A68     		ldr	r2, [r1]
 459              		.loc 1 2631 0
 460 005e 0120     		movs	r0, #1
 461              		.loc 1 2630 0
 462 0060 22F00202 		bic	r2, r2, #2
 463 0064 0A60     		str	r2, [r1]
 464              		.loc 1 2631 0
 465 0066 1870     		strb	r0, [r3]
 466              	.L49:
 467              		.loc 1 2635 0
 468 0068 BDE80840 		pop	{r3, lr}
 469              		.cfi_restore 14
 470              		.cfi_restore 3
 471              		.cfi_def_cfa_offset 0
 472              		.loc 1 2634 0
 473 006c FFF7FEBF 		b	utils_sys_unlock_cnt
 474              	.LVL4:
 475              	.L52:
 476              		.align	2
 477              	.L51:
 478 0070 00000000 		.word	.LANCHOR5
 479 0074 00000140 		.word	1073807360
 480 0078 00040140 		.word	1073808384
 481              		.cfi_endproc
 482              	.LFE321:
 483              		.size	update_timer_attempt, .-update_timer_attempt
 484              		.section	.text.set_next_timer_settings,"ax",%progbits
 485              		.align	1
 486              		.p2align 4,,15
 487              		.syntax unified
 488              		.thumb
 489              		.thumb_func
 490              		.fpu fpv4-sp-d16
 491              		.type	set_next_timer_settings, %function
 492              	set_next_timer_settings:
 493              	.LFB320:
 494              		.loc 1 2594 0
 495              		.cfi_startproc
 496              		@ args = 0, pretend = 0, frame = 0
 497              		@ frame_needed = 0, uses_anonymous_args = 0
 498              	.LVL5:
 499 0000 70B5     		push	{r4, r5, r6, lr}
 500              		.cfi_def_cfa_offset 16
 501              		.cfi_offset 4, -16
 502              		.cfi_offset 5, -12
 503              		.cfi_offset 6, -8
 504              		.cfi_offset 14, -4
 505              		.loc 1 2594 0
 506 0002 0446     		mov	r4, r0
 507              		.loc 1 2595 0
 508 0004 FFF7FEFF 		bl	utils_sys_lock_cnt
 509              	.LVL6:
 510              		.loc 1 2596 0
 511 0008 0FCC     		ldmia	r4!, {r0, r1, r2, r3}
 512              	.LVL7:
 513 000a 074E     		ldr	r6, .L55
ARM GAS  /tmp/cchSvKkm.s 			page 10


 514 000c 3546     		mov	r5, r6
 515 000e 0FC5     		stmia	r5!, {r0, r1, r2, r3}
 516 0010 94E80700 		ldm	r4, {r0, r1, r2}
 517              		.loc 1 2597 0
 518 0014 0023     		movs	r3, #0
 519              		.loc 1 2596 0
 520 0016 85E80700 		stm	r5, {r0, r1, r2}
 521              		.loc 1 2597 0
 522 001a 3370     		strb	r3, [r6]
 523              		.loc 1 2598 0
 524 001c FFF7FEFF 		bl	utils_sys_unlock_cnt
 525              	.LVL8:
 526              		.loc 1 2601 0
 527 0020 BDE87040 		pop	{r4, r5, r6, lr}
 528              		.cfi_restore 14
 529              		.cfi_restore 6
 530              		.cfi_restore 5
 531              		.cfi_restore 4
 532              		.cfi_def_cfa_offset 0
 533              	.LVL9:
 534              		.loc 1 2600 0
 535 0024 FFF7FEBF 		b	update_timer_attempt
 536              	.LVL10:
 537              	.L56:
 538              		.align	2
 539              	.L55:
 540 0028 00000000 		.word	.LANCHOR5
 541              		.cfi_endproc
 542              	.LFE320:
 543              		.size	set_next_timer_settings, .-set_next_timer_settings
 544              		.section	.text.set_switching_frequency,"ax",%progbits
 545              		.align	1
 546              		.p2align 4,,15
 547              		.syntax unified
 548              		.thumb
 549              		.thumb_func
 550              		.fpu fpv4-sp-d16
 551              		.type	set_switching_frequency, %function
 552              	set_switching_frequency:
 553              	.LFB322:
 554              		.loc 1 2637 0
 555              		.cfi_startproc
 556              		@ args = 0, pretend = 0, frame = 32
 557              		@ frame_needed = 0, uses_anonymous_args = 0
 558              	.LVL11:
 559 0000 70B5     		push	{r4, r5, r6, lr}
 560              		.cfi_def_cfa_offset 16
 561              		.cfi_offset 4, -16
 562              		.cfi_offset 5, -12
 563              		.cfi_offset 6, -8
 564              		.cfi_offset 14, -4
 565              		.loc 1 2638 0
 566 0002 114E     		ldr	r6, .L59
 567              		.loc 1 2642 0
 568 0004 114D     		ldr	r5, .L59+4
 569              		.loc 1 2638 0
 570 0006 86ED000A 		vstr.32	s0, [r6]
ARM GAS  /tmp/cchSvKkm.s 			page 11


 571              		.loc 1 2637 0
 572 000a 88B0     		sub	sp, sp, #32
 573              		.cfi_def_cfa_offset 48
 574              		.loc 1 2641 0
 575 000c FFF7FEFF 		bl	utils_sys_lock_cnt
 576              	.LVL12:
 577              		.loc 1 2642 0
 578 0010 0FCD     		ldmia	r5!, {r0, r1, r2, r3}
 579 0012 01AC     		add	r4, sp, #4
 580 0014 0FC4     		stmia	r4!, {r0, r1, r2, r3}
 581 0016 95E80700 		ldm	r5, {r0, r1, r2}
 582 001a 84E80700 		stm	r4, {r0, r1, r2}
 583              		.loc 1 2643 0
 584 001e FFF7FEFF 		bl	utils_sys_unlock_cnt
 585              	.LVL13:
 586              		.loc 1 2645 0
 587 0022 D6ED007A 		vldr.32	s15, [r6]
 588 0026 0A4A     		ldr	r2, .L59+8
 589 0028 FDEEE77A 		vcvt.s32.f32	s15, s15
 590              		.loc 1 2646 0
 591 002c 01A8     		add	r0, sp, #4
 592              		.loc 1 2645 0
 593 002e 17EE903A 		vmov	r3, s15	@ int
 594 0032 92FBF3F3 		sdiv	r3, r2, r3
 595 0036 0293     		str	r3, [sp, #8]
 596              		.loc 1 2646 0
 597 0038 FFF7FEFF 		bl	update_adc_sample_pos
 598              	.LVL14:
 599              		.loc 1 2647 0
 600 003c 01A8     		add	r0, sp, #4
 601 003e FFF7FEFF 		bl	set_next_timer_settings
 602              	.LVL15:
 603              		.loc 1 2648 0
 604 0042 08B0     		add	sp, sp, #32
 605              		.cfi_def_cfa_offset 16
 606              		@ sp needed
 607 0044 70BD     		pop	{r4, r5, r6, pc}
 608              	.L60:
 609 0046 00BF     		.align	2
 610              	.L59:
 611 0048 00000000 		.word	.LANCHOR6
 612 004c 00000000 		.word	.LANCHOR5
 613 0050 007A030A 		.word	168000000
 614              		.cfi_endproc
 615              	.LFE322:
 616              		.size	set_switching_frequency, .-set_switching_frequency
 617              		.section	.text.set_duty_cycle_hw,"ax",%progbits
 618              		.align	1
 619              		.p2align 4,,15
 620              		.syntax unified
 621              		.thumb
 622              		.thumb_func
 623              		.fpu fpv4-sp-d16
 624              		.type	set_duty_cycle_hw, %function
 625              	set_duty_cycle_hw:
 626              	.LFB295:
 627              		.loc 1 1087 0
ARM GAS  /tmp/cchSvKkm.s 			page 12


 628              		.cfi_startproc
 629              		@ args = 0, pretend = 0, frame = 40
 630              		@ frame_needed = 0, uses_anonymous_args = 0
 631              	.LVL16:
 632 0000 70B5     		push	{r4, r5, r6, lr}
 633              		.cfi_def_cfa_offset 16
 634              		.cfi_offset 4, -16
 635              		.cfi_offset 5, -12
 636              		.cfi_offset 6, -8
 637              		.cfi_offset 14, -4
 638              		.loc 1 1091 0
 639 0002 404D     		ldr	r5, .L77
 640              		.loc 1 1094 0
 641 0004 404E     		ldr	r6, .L77+4
 642              		.loc 1 1087 0
 643 0006 8AB0     		sub	sp, sp, #40
 644              		.cfi_def_cfa_offset 56
 645              		.loc 1 1087 0
 646 0008 8DED010A 		vstr.32	s0, [sp, #4]
 647              		.loc 1 1090 0
 648 000c FFF7FEFF 		bl	utils_sys_lock_cnt
 649              	.LVL17:
 650              		.loc 1 1091 0
 651 0010 0FCD     		ldmia	r5!, {r0, r1, r2, r3}
 652 0012 03AC     		add	r4, sp, #12
 653 0014 0FC4     		stmia	r4!, {r0, r1, r2, r3}
 654 0016 95E80700 		ldm	r5, {r0, r1, r2}
 655 001a 84E80700 		stm	r4, {r0, r1, r2}
 656              		.loc 1 1092 0
 657 001e FFF7FEFF 		bl	utils_sys_unlock_cnt
 658              	.LVL18:
 659              		.loc 1 1094 0
 660 0022 3368     		ldr	r3, [r6]
 661 0024 01A8     		add	r0, sp, #4
 662 0026 93ED150A 		vldr.32	s0, [r3, #84]
 663 002a D3ED160A 		vldr.32	s1, [r3, #88]
 664 002e FFF7FEFF 		bl	utils_truncate_number
 665              	.LVL19:
 666              		.loc 1 1096 0
 667 0032 3368     		ldr	r3, [r6]
 668 0034 9A78     		ldrb	r2, [r3, #2]	@ zero_extendqisi2
 669 0036 012A     		cmp	r2, #1
 670 0038 41D0     		beq	.L75
 671              		.loc 1 1099 0
 672 003a 344A     		ldr	r2, .L77+8
 673 003c DDED016A 		vldr.32	s13, [sp, #4]
 674 0040 1278     		ldrb	r2, [r2]	@ zero_extendqisi2
 675 0042 012A     		cmp	r2, #1
 676 0044 36D0     		beq	.L64
 677              		.loc 1 1099 0 is_stmt 0 discriminator 1
 678 0046 1A78     		ldrb	r2, [r3]	@ zero_extendqisi2
 679 0048 022A     		cmp	r2, #2
 680 004a 33D0     		beq	.L64
 681              		.loc 1 1102 0 is_stmt 1
 682 004c D3ED685A 		vldr.32	s11, [r3, #416]
 683              		.loc 1 1103 0
 684 0050 D3ED697A 		vldr.32	s15, [r3, #420]
ARM GAS  /tmp/cchSvKkm.s 			page 13


 685              		.loc 1 1102 0
 686 0054 2E4A     		ldr	r2, .L77+12
 687 0056 B0EEE66A 		vabs.f32	s12, s13
 688 005a B7EE007A 		vmov.f32	s14, #1.0e+0
 689              		.loc 1 1103 0
 690 005e 66EE277A 		vmul.f32	s15, s12, s15
 691              		.loc 1 1102 0
 692 0062 37EE467A 		vsub.f32	s14, s14, s12
 693 0066 E5EE877A 		vfma.f32	s15, s11, s14
 694 006a C2ED007A 		vstr.32	s15, [r2]
 695              	.L63:
 696              		.loc 1 1107 0
 697 006e 92ED007A 		vldr.32	s14, [r2]
 698 0072 2849     		ldr	r1, .L77+16
 699 0074 FDEEC77A 		vcvt.s32.f32	s15, s14
 700 0078 17EE902A 		vmov	r2, s15	@ int
 701 007c 91FBF2F2 		sdiv	r2, r1, r2
 702 0080 0492     		str	r2, [sp, #16]
 703              		.loc 1 1109 0
 704 0082 9A78     		ldrb	r2, [r3, #2]	@ zero_extendqisi2
 705 0084 12B9     		cbnz	r2, .L66
 706              		.loc 1 1109 0 is_stmt 0 discriminator 1
 707 0086 1B78     		ldrb	r3, [r3]	@ zero_extendqisi2
 708 0088 022B     		cmp	r3, #2
 709 008a 1FD0     		beq	.L76
 710              	.L66:
 711              		.loc 1 1113 0 is_stmt 1
 712 008c DDED047A 		vldr.32	s15, [sp, #16]	@ int
 713 0090 F8EE677A 		vcvt.f32.u32	s15, s15
 714 0094 67EEA67A 		vmul.f32	s15, s15, s13
 715 0098 FCEEE77A 		vcvt.u32.f32	s15, s15
 716 009c 17EE903A 		vmov	r3, s15	@ int
 717 00a0 9BB2     		uxth	r3, r3
 718 00a2 0593     		str	r3, [sp, #20]
 719              	.L67:
 720              		.loc 1 1116 0
 721 00a4 03A8     		add	r0, sp, #12
 722 00a6 FFF7FEFF 		bl	update_adc_sample_pos
 723              	.LVL20:
 724              		.loc 1 1117 0
 725 00aa 03A8     		add	r0, sp, #12
 726 00ac FFF7FEFF 		bl	set_next_timer_settings
 727              	.LVL21:
 728              		.loc 1 1118 0
 729 00b0 0AB0     		add	sp, sp, #40
 730              		.cfi_remember_state
 731              		.cfi_def_cfa_offset 16
 732              		@ sp needed
 733 00b2 70BD     		pop	{r4, r5, r6, pc}
 734              	.L64:
 735              		.cfi_restore_state
 736              		.loc 1 1100 0
 737 00b4 164A     		ldr	r2, .L77+12
 738 00b6 D3F8A411 		ldr	r1, [r3, #420]	@ float
 739 00ba 1160     		str	r1, [r2]	@ float
 740 00bc D7E7     		b	.L63
 741              	.L75:
ARM GAS  /tmp/cchSvKkm.s 			page 14


 742              		.loc 1 1097 0
 743 00be 144A     		ldr	r2, .L77+12
 744 00c0 D3F8A811 		ldr	r1, [r3, #424]	@ float
 745 00c4 DDED016A 		vldr.32	s13, [sp, #4]
 746 00c8 1160     		str	r1, [r2]	@ float
 747 00ca D0E7     		b	.L63
 748              	.L76:
 749              		.loc 1 1109 0 discriminator 2
 750 00cc 0F4B     		ldr	r3, .L77+8
 751 00ce 1B78     		ldrb	r3, [r3]	@ zero_extendqisi2
 752 00d0 012B     		cmp	r3, #1
 753 00d2 DBD0     		beq	.L66
 754              		.loc 1 1110 0
 755 00d4 9DED047A 		vldr.32	s14, [sp, #16]	@ int
 756              		.loc 1 1111 0
 757 00d8 DDED047A 		vldr.32	s15, [sp, #16]	@ int
 758              		.loc 1 1110 0
 759 00dc B8EE477A 		vcvt.f32.u32	s14, s14
 760              		.loc 1 1111 0
 761 00e0 F8EE677A 		vcvt.f32.u32	s15, s15
 762              		.loc 1 1110 0
 763 00e4 B6EE006A 		vmov.f32	s12, #5.0e-1
 764 00e8 27EE067A 		vmul.f32	s14, s14, s12
 765              		.loc 1 1111 0
 766 00ec 67EE867A 		vmul.f32	s15, s15, s12
 767 00f0 E7EE267A 		vfma.f32	s15, s14, s13
 768              		.loc 1 1110 0
 769 00f4 FCEEE77A 		vcvt.u32.f32	s15, s15
 770 00f8 17EE903A 		vmov	r3, s15	@ int
 771 00fc 9BB2     		uxth	r3, r3
 772 00fe 0593     		str	r3, [sp, #20]
 773 0100 D0E7     		b	.L67
 774              	.L78:
 775 0102 00BF     		.align	2
 776              	.L77:
 777 0104 00000000 		.word	.LANCHOR5
 778 0108 00000000 		.word	.LANCHOR0
 779 010c 00000000 		.word	.LANCHOR2
 780 0110 00000000 		.word	.LANCHOR6
 781 0114 007A030A 		.word	168000000
 782              		.cfi_endproc
 783              	.LFE295:
 784              		.size	set_duty_cycle_hw, .-set_duty_cycle_hw
 785              		.section	.text.set_next_comm_step,"ax",%progbits
 786              		.align	1
 787              		.p2align 4,,15
 788              		.syntax unified
 789              		.thumb
 790              		.thumb_func
 791              		.fpu fpv4-sp-d16
 792              		.type	set_next_comm_step, %function
 793              	set_next_comm_step:
 794              	.LFB323:
 795              		.loc 1 2650 0
 796              		.cfi_startproc
 797              		@ args = 0, pretend = 0, frame = 0
 798              		@ frame_needed = 0, uses_anonymous_args = 0
ARM GAS  /tmp/cchSvKkm.s 			page 15


 799              	.LVL22:
 800 0000 F8B5     		push	{r3, r4, r5, r6, r7, lr}
 801              		.cfi_def_cfa_offset 24
 802              		.cfi_offset 3, -24
 803              		.cfi_offset 4, -20
 804              		.cfi_offset 5, -16
 805              		.cfi_offset 6, -12
 806              		.cfi_offset 7, -8
 807              		.cfi_offset 14, -4
 808              		.loc 1 2651 0
 809 0002 BD4B     		ldr	r3, .L116
 810 0004 1B68     		ldr	r3, [r3]
 811 0006 9C78     		ldrb	r4, [r3, #2]	@ zero_extendqisi2
 812 0008 E4B2     		uxtb	r4, r4
 813 000a 012C     		cmp	r4, #1
 814 000c 79D0     		beq	.L109
 815              	.LVL23:
 816              		.loc 1 2691 0
 817 000e BB4A     		ldr	r2, .L116+4
 818 0010 1278     		ldrb	r2, [r2]	@ zero_extendqisi2
 819 0012 012A     		cmp	r2, #1
 820 0014 0546     		mov	r5, r0
 821 0016 3CD0     		beq	.L97
 822              		.loc 1 2692 0
 823 0018 1B78     		ldrb	r3, [r3]	@ zero_extendqisi2
 824 001a 03F0FF04 		and	r4, r3, #255
 825 001e 002B     		cmp	r3, #0
 826 0020 38D0     		beq	.L100
 827              		.loc 1 2686 0
 828 0022 022C     		cmp	r4, #2
 829 0024 0CBF     		ite	eq
 830 0026 7026     		moveq	r6, #112
 831 0028 2026     		movne	r6, #32
 832              		.loc 1 2706 0
 833 002a 012D     		cmp	r5, #1
 834              		.loc 1 2686 0
 835 002c 4FF00404 		mov	r4, #4
 836              	.LVL24:
 837              		.loc 1 2706 0
 838 0030 34D0     		beq	.L110
 839              	.L85:
 840              		.loc 1 2748 0
 841 0032 022D     		cmp	r5, #2
 842 0034 00F0E180 		beq	.L111
 843              		.loc 1 2790 0
 844 0038 032D     		cmp	r5, #3
 845 003a 00F00781 		beq	.L112
 846              		.loc 1 2832 0
 847 003e 042D     		cmp	r5, #4
 848 0040 00F09280 		beq	.L113
 849              		.loc 1 2874 0
 850 0044 052D     		cmp	r5, #5
 851 0046 00F05F81 		beq	.L114
 852              		.loc 1 2916 0
 853 004a 062D     		cmp	r5, #6
 854 004c 40F0D581 		bne	.L95
 855              		.loc 1 2917 0
ARM GAS  /tmp/cchSvKkm.s 			page 16


 856 0050 AB4B     		ldr	r3, .L116+8
 857 0052 1D68     		ldr	r5, [r3]
 858              		.loc 1 2924 0
 859 0054 2022     		movs	r2, #32
 860              		.loc 1 2917 0
 861 0056 002D     		cmp	r5, #0
 862 0058 00F0B481 		beq	.L96
 863              		.loc 1 2924 0
 864 005c 0821     		movs	r1, #8
 865 005e A948     		ldr	r0, .L116+12
 866              	.LVL25:
 867 0060 FFF7FEFF 		bl	TIM_SelectOCxM
 868              	.LVL26:
 869              		.loc 1 2925 0
 870 0064 0122     		movs	r2, #1
 871 0066 0821     		movs	r1, #8
 872 0068 A648     		ldr	r0, .L116+12
 873 006a FFF7FEFF 		bl	TIM_CCxCmd
 874              	.LVL27:
 875              		.loc 1 2926 0
 876 006e 0022     		movs	r2, #0
 877 0070 0821     		movs	r1, #8
 878 0072 A448     		ldr	r0, .L116+12
 879 0074 FFF7FEFF 		bl	TIM_CCxNCmd
 880              	.LVL28:
 881              		.loc 1 2929 0
 882 0078 6022     		movs	r2, #96
 883 007a 0421     		movs	r1, #4
 884 007c A148     		ldr	r0, .L116+12
 885 007e FFF7FEFF 		bl	TIM_SelectOCxM
 886              	.LVL29:
 887              		.loc 1 2930 0
 888 0082 0122     		movs	r2, #1
 889 0084 0421     		movs	r1, #4
 890 0086 9F48     		ldr	r0, .L116+12
 891 0088 FFF7FEFF 		bl	TIM_CCxCmd
 892              	.LVL30:
 893              		.loc 1 2931 0
 894 008c 2246     		mov	r2, r4
 895 008e 0421     		movs	r1, #4
 896 0090 59E1     		b	.L105
 897              	.LVL31:
 898              	.L97:
 899              		.loc 1 2686 0
 900 0092 0424     		movs	r4, #4
 901              	.L100:
 902              		.loc 1 2706 0
 903 0094 012D     		cmp	r5, #1
 904              		.loc 1 2683 0
 905 0096 4FF02006 		mov	r6, #32
 906              	.LVL32:
 907              		.loc 1 2706 0
 908 009a CAD1     		bne	.L85
 909              	.L110:
 910              		.loc 1 2707 0
 911 009c 984B     		ldr	r3, .L116+8
 912 009e 1F68     		ldr	r7, [r3]
ARM GAS  /tmp/cchSvKkm.s 			page 17


 913              		.loc 1 2714 0
 914 00a0 2022     		movs	r2, #32
 915              		.loc 1 2707 0
 916 00a2 002F     		cmp	r7, #0
 917 00a4 66D0     		beq	.L108
 918              		.loc 1 2714 0
 919 00a6 0021     		movs	r1, #0
 920 00a8 9648     		ldr	r0, .L116+12
 921              	.LVL33:
 922 00aa FFF7FEFF 		bl	TIM_SelectOCxM
 923              	.LVL34:
 924              		.loc 1 2715 0
 925 00ae 2A46     		mov	r2, r5
 926 00b0 0021     		movs	r1, #0
 927 00b2 9448     		ldr	r0, .L116+12
 928 00b4 FFF7FEFF 		bl	TIM_CCxCmd
 929              	.LVL35:
 930              		.loc 1 2716 0
 931 00b8 0022     		movs	r2, #0
 932 00ba 1146     		mov	r1, r2
 933 00bc 9148     		ldr	r0, .L116+12
 934 00be FFF7FEFF 		bl	TIM_CCxNCmd
 935              	.LVL36:
 936              		.loc 1 2719 0
 937 00c2 6022     		movs	r2, #96
 938 00c4 0421     		movs	r1, #4
 939 00c6 8F48     		ldr	r0, .L116+12
 940 00c8 FFF7FEFF 		bl	TIM_SelectOCxM
 941              	.LVL37:
 942              		.loc 1 2720 0
 943 00cc 2A46     		mov	r2, r5
 944 00ce 0421     		movs	r1, #4
 945 00d0 8C48     		ldr	r0, .L116+12
 946 00d2 FFF7FEFF 		bl	TIM_CCxCmd
 947              	.LVL38:
 948              		.loc 1 2721 0
 949 00d6 2246     		mov	r2, r4
 950 00d8 0421     		movs	r1, #4
 951 00da 8A48     		ldr	r0, .L116+12
 952 00dc FFF7FEFF 		bl	TIM_CCxNCmd
 953              	.LVL39:
 954              		.loc 1 2724 0
 955 00e0 3246     		mov	r2, r6
 956 00e2 0821     		movs	r1, #8
 957 00e4 8748     		ldr	r0, .L116+12
 958 00e6 FFF7FEFF 		bl	TIM_SelectOCxM
 959              	.LVL40:
 960              		.loc 1 2725 0
 961 00ea 2A46     		mov	r2, r5
 962              	.LVL41:
 963              	.L101:
 964 00ec 0821     		movs	r1, #8
 965 00ee 8548     		ldr	r0, .L116+12
 966 00f0 FFF7FEFF 		bl	TIM_CCxCmd
 967              	.LVL42:
 968              		.loc 1 2726 0
 969 00f4 0422     		movs	r2, #4
ARM GAS  /tmp/cchSvKkm.s 			page 18


 970 00f6 0821     		movs	r1, #8
 971 00f8 8248     		ldr	r0, .L116+12
 972              		.loc 1 2977 0
 973 00fa BDE8F840 		pop	{r3, r4, r5, r6, r7, lr}
 974              		.cfi_remember_state
 975              		.cfi_restore 14
 976              		.cfi_restore 7
 977              		.cfi_restore 6
 978              		.cfi_restore 5
 979              		.cfi_restore 4
 980              		.cfi_restore 3
 981              		.cfi_def_cfa_offset 0
 982              		.loc 1 2726 0
 983 00fe FFF7FEBF 		b	TIM_CCxNCmd
 984              	.LVL43:
 985              	.L109:
 986              		.cfi_restore_state
 987              		.loc 1 2653 0
 988 0102 2022     		movs	r2, #32
 989 0104 0421     		movs	r1, #4
 990 0106 7F48     		ldr	r0, .L116+12
 991              	.LVL44:
 992 0108 FFF7FEFF 		bl	TIM_SelectOCxM
 993              	.LVL45:
 994              		.loc 1 2654 0
 995 010c 2246     		mov	r2, r4
 996 010e 0421     		movs	r1, #4
 997 0110 7C48     		ldr	r0, .L116+12
 998 0112 FFF7FEFF 		bl	TIM_CCxCmd
 999              	.LVL46:
 1000              		.loc 1 2655 0
 1001 0116 0022     		movs	r2, #0
 1002 0118 0421     		movs	r1, #4
 1003 011a 7A48     		ldr	r0, .L116+12
 1004 011c FFF7FEFF 		bl	TIM_CCxNCmd
 1005              	.LVL47:
 1006              		.loc 1 2657 0
 1007 0120 774B     		ldr	r3, .L116+8
 1008 0122 1D68     		ldr	r5, [r3]
 1009              		.loc 1 2659 0
 1010 0124 6022     		movs	r2, #96
 1011              		.loc 1 2657 0
 1012 0126 002D     		cmp	r5, #0
 1013 0128 52D1     		bne	.L115
 1014              		.loc 1 2669 0
 1015 012a 0821     		movs	r1, #8
 1016 012c 7548     		ldr	r0, .L116+12
 1017 012e FFF7FEFF 		bl	TIM_SelectOCxM
 1018              	.LVL48:
 1019              		.loc 1 2670 0
 1020 0132 2246     		mov	r2, r4
 1021 0134 0821     		movs	r1, #8
 1022 0136 7348     		ldr	r0, .L116+12
 1023 0138 FFF7FEFF 		bl	TIM_CCxCmd
 1024              	.LVL49:
 1025              		.loc 1 2671 0
 1026 013c 0422     		movs	r2, #4
ARM GAS  /tmp/cchSvKkm.s 			page 19


 1027 013e 0821     		movs	r1, #8
 1028 0140 7048     		ldr	r0, .L116+12
 1029 0142 FFF7FEFF 		bl	TIM_CCxNCmd
 1030              	.LVL50:
 1031              		.loc 1 2674 0
 1032 0146 2022     		movs	r2, #32
 1033              	.L102:
 1034              		.loc 1 2954 0
 1035 0148 2946     		mov	r1, r5
 1036 014a 6E48     		ldr	r0, .L116+12
 1037 014c FFF7FEFF 		bl	TIM_SelectOCxM
 1038              	.LVL51:
 1039              		.loc 1 2955 0
 1040 0150 2946     		mov	r1, r5
 1041 0152 0122     		movs	r2, #1
 1042 0154 6B48     		ldr	r0, .L116+12
 1043 0156 FFF7FEFF 		bl	TIM_CCxCmd
 1044              	.LVL52:
 1045              		.loc 1 2956 0
 1046 015a 2946     		mov	r1, r5
 1047 015c 0422     		movs	r2, #4
 1048 015e 6948     		ldr	r0, .L116+12
 1049              		.loc 1 2977 0
 1050 0160 BDE8F840 		pop	{r3, r4, r5, r6, r7, lr}
 1051              		.cfi_remember_state
 1052              		.cfi_restore 14
 1053              		.cfi_restore 7
 1054              		.cfi_restore 6
 1055              		.cfi_restore 5
 1056              		.cfi_restore 4
 1057              		.cfi_restore 3
 1058              		.cfi_def_cfa_offset 0
 1059              		.loc 1 2956 0
 1060 0164 FFF7FEBF 		b	TIM_CCxNCmd
 1061              	.LVL53:
 1062              	.L113:
 1063              		.cfi_restore_state
 1064              		.loc 1 2833 0
 1065 0168 654B     		ldr	r3, .L116+8
 1066 016a 1F68     		ldr	r7, [r3]
 1067              		.loc 1 2840 0
 1068 016c 2022     		movs	r2, #32
 1069              		.loc 1 2833 0
 1070 016e 002F     		cmp	r7, #0
 1071 0170 00F0FD80 		beq	.L92
 1072              	.L108:
 1073              		.loc 1 2840 0
 1074 0174 0021     		movs	r1, #0
 1075 0176 6348     		ldr	r0, .L116+12
 1076              	.LVL54:
 1077 0178 FFF7FEFF 		bl	TIM_SelectOCxM
 1078              	.LVL55:
 1079              		.loc 1 2841 0
 1080 017c 0122     		movs	r2, #1
 1081 017e 0021     		movs	r1, #0
 1082 0180 6048     		ldr	r0, .L116+12
 1083 0182 FFF7FEFF 		bl	TIM_CCxCmd
ARM GAS  /tmp/cchSvKkm.s 			page 20


 1084              	.LVL56:
 1085              		.loc 1 2842 0
 1086 0186 0022     		movs	r2, #0
 1087 0188 1146     		mov	r1, r2
 1088 018a 5E48     		ldr	r0, .L116+12
 1089 018c FFF7FEFF 		bl	TIM_CCxNCmd
 1090              	.LVL57:
 1091              		.loc 1 2845 0
 1092 0190 6022     		movs	r2, #96
 1093 0192 0821     		movs	r1, #8
 1094 0194 5B48     		ldr	r0, .L116+12
 1095 0196 FFF7FEFF 		bl	TIM_SelectOCxM
 1096              	.LVL58:
 1097              		.loc 1 2846 0
 1098 019a 0122     		movs	r2, #1
 1099 019c 0821     		movs	r1, #8
 1100 019e 5948     		ldr	r0, .L116+12
 1101 01a0 FFF7FEFF 		bl	TIM_CCxCmd
 1102              	.LVL59:
 1103              		.loc 1 2847 0
 1104 01a4 2246     		mov	r2, r4
 1105 01a6 0821     		movs	r1, #8
 1106              	.LVL60:
 1107              	.L103:
 1108              		.loc 1 2783 0
 1109 01a8 5648     		ldr	r0, .L116+12
 1110 01aa FFF7FEFF 		bl	TIM_CCxNCmd
 1111              	.LVL61:
 1112              		.loc 1 2786 0
 1113 01ae 3246     		mov	r2, r6
 1114 01b0 0421     		movs	r1, #4
 1115 01b2 5448     		ldr	r0, .L116+12
 1116 01b4 FFF7FEFF 		bl	TIM_SelectOCxM
 1117              	.LVL62:
 1118              		.loc 1 2787 0
 1119 01b8 0122     		movs	r2, #1
 1120 01ba 0421     		movs	r1, #4
 1121 01bc 5148     		ldr	r0, .L116+12
 1122 01be FFF7FEFF 		bl	TIM_CCxCmd
 1123              	.LVL63:
 1124              		.loc 1 2788 0
 1125 01c2 0422     		movs	r2, #4
 1126 01c4 1146     		mov	r1, r2
 1127 01c6 4F48     		ldr	r0, .L116+12
 1128              		.loc 1 2977 0
 1129 01c8 BDE8F840 		pop	{r3, r4, r5, r6, r7, lr}
 1130              		.cfi_remember_state
 1131              		.cfi_restore 14
 1132              		.cfi_restore 7
 1133              		.cfi_restore 6
 1134              		.cfi_restore 5
 1135              		.cfi_restore 4
 1136              		.cfi_restore 3
 1137              		.cfi_def_cfa_offset 0
 1138              	.LVL64:
 1139              		.loc 1 2788 0
 1140 01cc FFF7FEBF 		b	TIM_CCxNCmd
ARM GAS  /tmp/cchSvKkm.s 			page 21


 1141              	.LVL65:
 1142              	.L115:
 1143              		.cfi_restore_state
 1144              		.loc 1 2659 0
 1145 01d0 0021     		movs	r1, #0
 1146 01d2 4C48     		ldr	r0, .L116+12
 1147 01d4 FFF7FEFF 		bl	TIM_SelectOCxM
 1148              	.LVL66:
 1149              		.loc 1 2660 0
 1150 01d8 2246     		mov	r2, r4
 1151 01da 0021     		movs	r1, #0
 1152 01dc 4948     		ldr	r0, .L116+12
 1153 01de FFF7FEFF 		bl	TIM_CCxCmd
 1154              	.LVL67:
 1155              		.loc 1 2661 0
 1156 01e2 0422     		movs	r2, #4
 1157 01e4 0021     		movs	r1, #0
 1158 01e6 4748     		ldr	r0, .L116+12
 1159 01e8 FFF7FEFF 		bl	TIM_CCxNCmd
 1160              	.LVL68:
 1161              		.loc 1 2664 0
 1162 01ec 2022     		movs	r2, #32
 1163 01ee 0821     		movs	r1, #8
 1164 01f0 4448     		ldr	r0, .L116+12
 1165 01f2 FFF7FEFF 		bl	TIM_SelectOCxM
 1166              	.LVL69:
 1167              		.loc 1 2665 0
 1168 01f6 2246     		mov	r2, r4
 1169 01f8 78E7     		b	.L101
 1170              	.LVL70:
 1171              	.L111:
 1172              		.loc 1 2749 0
 1173 01fa 414B     		ldr	r3, .L116+8
 1174 01fc 1D68     		ldr	r5, [r3]
 1175              		.loc 1 2756 0
 1176 01fe 2022     		movs	r2, #32
 1177              		.loc 1 2749 0
 1178 0200 002D     		cmp	r5, #0
 1179 0202 42D0     		beq	.L88
 1180              		.loc 1 2756 0
 1181 0204 0421     		movs	r1, #4
 1182 0206 3F48     		ldr	r0, .L116+12
 1183              	.LVL71:
 1184 0208 FFF7FEFF 		bl	TIM_SelectOCxM
 1185              	.LVL72:
 1186              		.loc 1 2757 0
 1187 020c 0122     		movs	r2, #1
 1188 020e 0421     		movs	r1, #4
 1189 0210 3C48     		ldr	r0, .L116+12
 1190 0212 FFF7FEFF 		bl	TIM_CCxCmd
 1191              	.LVL73:
 1192              		.loc 1 2758 0
 1193 0216 0022     		movs	r2, #0
 1194 0218 0421     		movs	r1, #4
 1195 021a 3A48     		ldr	r0, .L116+12
 1196 021c FFF7FEFF 		bl	TIM_CCxNCmd
 1197              	.LVL74:
ARM GAS  /tmp/cchSvKkm.s 			page 22


 1198              		.loc 1 2761 0
 1199 0220 6022     		movs	r2, #96
 1200 0222 0021     		movs	r1, #0
 1201 0224 3748     		ldr	r0, .L116+12
 1202 0226 FFF7FEFF 		bl	TIM_SelectOCxM
 1203              	.LVL75:
 1204              		.loc 1 2762 0
 1205 022a 0122     		movs	r2, #1
 1206 022c 0021     		movs	r1, #0
 1207 022e 3548     		ldr	r0, .L116+12
 1208 0230 FFF7FEFF 		bl	TIM_CCxCmd
 1209              	.LVL76:
 1210              		.loc 1 2763 0
 1211 0234 2246     		mov	r2, r4
 1212 0236 0021     		movs	r1, #0
 1213              	.L107:
 1214              		.loc 1 2867 0
 1215 0238 3248     		ldr	r0, .L116+12
 1216 023a FFF7FEFF 		bl	TIM_CCxNCmd
 1217              	.LVL77:
 1218              		.loc 1 2870 0
 1219 023e 3246     		mov	r2, r6
 1220 0240 0821     		movs	r1, #8
 1221 0242 3048     		ldr	r0, .L116+12
 1222 0244 FFF7FEFF 		bl	TIM_SelectOCxM
 1223              	.LVL78:
 1224              		.loc 1 2871 0
 1225 0248 0122     		movs	r2, #1
 1226 024a 4FE7     		b	.L101
 1227              	.LVL79:
 1228              	.L112:
 1229              		.loc 1 2791 0
 1230 024c 2C4B     		ldr	r3, .L116+8
 1231 024e 1D68     		ldr	r5, [r3]
 1232              		.loc 1 2798 0
 1233 0250 2022     		movs	r2, #32
 1234              		.loc 1 2791 0
 1235 0252 ADB3     		cbz	r5, .L90
 1236              		.loc 1 2798 0
 1237 0254 0821     		movs	r1, #8
 1238 0256 2B48     		ldr	r0, .L116+12
 1239              	.LVL80:
 1240 0258 FFF7FEFF 		bl	TIM_SelectOCxM
 1241              	.LVL81:
 1242              		.loc 1 2799 0
 1243 025c 0122     		movs	r2, #1
 1244 025e 0821     		movs	r1, #8
 1245 0260 2848     		ldr	r0, .L116+12
 1246 0262 FFF7FEFF 		bl	TIM_CCxCmd
 1247              	.LVL82:
 1248              		.loc 1 2800 0
 1249 0266 0022     		movs	r2, #0
 1250 0268 0821     		movs	r1, #8
 1251 026a 2648     		ldr	r0, .L116+12
 1252 026c FFF7FEFF 		bl	TIM_CCxNCmd
 1253              	.LVL83:
 1254              		.loc 1 2803 0
ARM GAS  /tmp/cchSvKkm.s 			page 23


 1255 0270 6022     		movs	r2, #96
 1256 0272 0021     		movs	r1, #0
 1257 0274 2348     		ldr	r0, .L116+12
 1258 0276 FFF7FEFF 		bl	TIM_SelectOCxM
 1259              	.LVL84:
 1260              		.loc 1 2804 0
 1261 027a 0122     		movs	r2, #1
 1262 027c 0021     		movs	r1, #0
 1263 027e 2148     		ldr	r0, .L116+12
 1264 0280 FFF7FEFF 		bl	TIM_CCxCmd
 1265              	.LVL85:
 1266              		.loc 1 2805 0
 1267 0284 2246     		mov	r2, r4
 1268 0286 0021     		movs	r1, #0
 1269 0288 8EE7     		b	.L103
 1270              	.LVL86:
 1271              	.L88:
 1272              		.loc 1 2776 0
 1273 028a 0821     		movs	r1, #8
 1274 028c 1D48     		ldr	r0, .L116+12
 1275              	.LVL87:
 1276 028e FFF7FEFF 		bl	TIM_SelectOCxM
 1277              	.LVL88:
 1278              		.loc 1 2777 0
 1279 0292 0122     		movs	r2, #1
 1280 0294 0821     		movs	r1, #8
 1281 0296 1B48     		ldr	r0, .L116+12
 1282 0298 FFF7FEFF 		bl	TIM_CCxCmd
 1283              	.LVL89:
 1284              		.loc 1 2778 0
 1285 029c 2A46     		mov	r2, r5
 1286 029e 0821     		movs	r1, #8
 1287 02a0 1848     		ldr	r0, .L116+12
 1288 02a2 FFF7FEFF 		bl	TIM_CCxNCmd
 1289              	.LVL90:
 1290              		.loc 1 2781 0
 1291 02a6 6022     		movs	r2, #96
 1292 02a8 2946     		mov	r1, r5
 1293 02aa 1648     		ldr	r0, .L116+12
 1294 02ac FFF7FEFF 		bl	TIM_SelectOCxM
 1295              	.LVL91:
 1296              		.loc 1 2782 0
 1297 02b0 0122     		movs	r2, #1
 1298 02b2 2946     		mov	r1, r5
 1299 02b4 1348     		ldr	r0, .L116+12
 1300 02b6 FFF7FEFF 		bl	TIM_CCxCmd
 1301              	.LVL92:
 1302              		.loc 1 2783 0
 1303 02ba 2246     		mov	r2, r4
 1304 02bc 2946     		mov	r1, r5
 1305 02be 73E7     		b	.L103
 1306              	.LVL93:
 1307              	.L90:
 1308              		.loc 1 2818 0
 1309 02c0 0421     		movs	r1, #4
 1310 02c2 1048     		ldr	r0, .L116+12
 1311              	.LVL94:
ARM GAS  /tmp/cchSvKkm.s 			page 24


 1312 02c4 FFF7FEFF 		bl	TIM_SelectOCxM
 1313              	.LVL95:
 1314              		.loc 1 2819 0
 1315 02c8 0122     		movs	r2, #1
 1316 02ca 0421     		movs	r1, #4
 1317 02cc 0D48     		ldr	r0, .L116+12
 1318 02ce FFF7FEFF 		bl	TIM_CCxCmd
 1319              	.LVL96:
 1320              		.loc 1 2820 0
 1321 02d2 2A46     		mov	r2, r5
 1322 02d4 0421     		movs	r1, #4
 1323              	.L106:
 1324              		.loc 1 2862 0
 1325 02d6 0B48     		ldr	r0, .L116+12
 1326 02d8 FFF7FEFF 		bl	TIM_CCxNCmd
 1327              	.LVL97:
 1328              		.loc 1 2865 0
 1329 02dc 6022     		movs	r2, #96
 1330 02de 2946     		mov	r1, r5
 1331 02e0 0848     		ldr	r0, .L116+12
 1332 02e2 FFF7FEFF 		bl	TIM_SelectOCxM
 1333              	.LVL98:
 1334              		.loc 1 2866 0
 1335 02e6 0122     		movs	r2, #1
 1336 02e8 2946     		mov	r1, r5
 1337 02ea 0648     		ldr	r0, .L116+12
 1338 02ec FFF7FEFF 		bl	TIM_CCxCmd
 1339              	.LVL99:
 1340              		.loc 1 2867 0
 1341 02f0 2246     		mov	r2, r4
 1342 02f2 2946     		mov	r1, r5
 1343 02f4 A0E7     		b	.L107
 1344              	.L117:
 1345 02f6 00BF     		.align	2
 1346              	.L116:
 1347 02f8 00000000 		.word	.LANCHOR0
 1348 02fc 00000000 		.word	.LANCHOR2
 1349 0300 00000000 		.word	.LANCHOR4
 1350 0304 00000140 		.word	1073807360
 1351              	.LVL100:
 1352              	.L114:
 1353              		.loc 1 2875 0
 1354 0308 534B     		ldr	r3, .L118
 1355 030a 1D68     		ldr	r5, [r3]
 1356              		.loc 1 2882 0
 1357 030c 2022     		movs	r2, #32
 1358              		.loc 1 2875 0
 1359 030e 002D     		cmp	r5, #0
 1360 0310 39D0     		beq	.L94
 1361              		.loc 1 2882 0
 1362 0312 0421     		movs	r1, #4
 1363 0314 5148     		ldr	r0, .L118+4
 1364              	.LVL101:
 1365 0316 FFF7FEFF 		bl	TIM_SelectOCxM
 1366              	.LVL102:
 1367              		.loc 1 2883 0
 1368 031a 0122     		movs	r2, #1
ARM GAS  /tmp/cchSvKkm.s 			page 25


 1369 031c 0421     		movs	r1, #4
 1370 031e 4F48     		ldr	r0, .L118+4
 1371 0320 FFF7FEFF 		bl	TIM_CCxCmd
 1372              	.LVL103:
 1373              		.loc 1 2884 0
 1374 0324 0022     		movs	r2, #0
 1375 0326 0421     		movs	r1, #4
 1376 0328 4C48     		ldr	r0, .L118+4
 1377 032a FFF7FEFF 		bl	TIM_CCxNCmd
 1378              	.LVL104:
 1379              		.loc 1 2887 0
 1380 032e 6022     		movs	r2, #96
 1381 0330 0821     		movs	r1, #8
 1382 0332 4A48     		ldr	r0, .L118+4
 1383 0334 FFF7FEFF 		bl	TIM_SelectOCxM
 1384              	.LVL105:
 1385              		.loc 1 2888 0
 1386 0338 0122     		movs	r2, #1
 1387 033a 0821     		movs	r1, #8
 1388 033c 4748     		ldr	r0, .L118+4
 1389 033e FFF7FEFF 		bl	TIM_CCxCmd
 1390              	.LVL106:
 1391              		.loc 1 2889 0
 1392 0342 2246     		mov	r2, r4
 1393 0344 0821     		movs	r1, #8
 1394              	.L105:
 1395              		.loc 1 2931 0
 1396 0346 4548     		ldr	r0, .L118+4
 1397 0348 FFF7FEFF 		bl	TIM_CCxNCmd
 1398              	.LVL107:
 1399              		.loc 1 2934 0
 1400 034c 3246     		mov	r2, r6
 1401 034e 0021     		movs	r1, #0
 1402 0350 4248     		ldr	r0, .L118+4
 1403 0352 FFF7FEFF 		bl	TIM_SelectOCxM
 1404              	.LVL108:
 1405              		.loc 1 2935 0
 1406 0356 0122     		movs	r2, #1
 1407 0358 0021     		movs	r1, #0
 1408 035a 4048     		ldr	r0, .L118+4
 1409 035c FFF7FEFF 		bl	TIM_CCxCmd
 1410              	.LVL109:
 1411              		.loc 1 2936 0
 1412 0360 0422     		movs	r2, #4
 1413 0362 0021     		movs	r1, #0
 1414 0364 3D48     		ldr	r0, .L118+4
 1415              		.loc 1 2977 0
 1416 0366 BDE8F840 		pop	{r3, r4, r5, r6, r7, lr}
 1417              		.cfi_remember_state
 1418              		.cfi_restore 14
 1419              		.cfi_restore 7
 1420              		.cfi_restore 6
 1421              		.cfi_restore 5
 1422              		.cfi_restore 4
 1423              		.cfi_restore 3
 1424              		.cfi_def_cfa_offset 0
 1425              	.LVL110:
ARM GAS  /tmp/cchSvKkm.s 			page 26


 1426              		.loc 1 2936 0
 1427 036a FFF7FEBF 		b	TIM_CCxNCmd
 1428              	.LVL111:
 1429              	.L92:
 1430              		.cfi_restore_state
 1431              		.loc 1 2860 0
 1432 036e 3946     		mov	r1, r7
 1433 0370 3A48     		ldr	r0, .L118+4
 1434              	.LVL112:
 1435 0372 FFF7FEFF 		bl	TIM_SelectOCxM
 1436              	.LVL113:
 1437              		.loc 1 2861 0
 1438 0376 0122     		movs	r2, #1
 1439 0378 3946     		mov	r1, r7
 1440 037a 3848     		ldr	r0, .L118+4
 1441 037c FFF7FEFF 		bl	TIM_CCxCmd
 1442              	.LVL114:
 1443              		.loc 1 2862 0
 1444 0380 3A46     		mov	r2, r7
 1445 0382 3946     		mov	r1, r7
 1446 0384 A7E7     		b	.L106
 1447              	.LVL115:
 1448              	.L94:
 1449              		.loc 1 2902 0
 1450 0386 0821     		movs	r1, #8
 1451 0388 3448     		ldr	r0, .L118+4
 1452              	.LVL116:
 1453 038a FFF7FEFF 		bl	TIM_SelectOCxM
 1454              	.LVL117:
 1455              		.loc 1 2903 0
 1456 038e 0122     		movs	r2, #1
 1457 0390 0821     		movs	r1, #8
 1458 0392 3248     		ldr	r0, .L118+4
 1459 0394 FFF7FEFF 		bl	TIM_CCxCmd
 1460              	.LVL118:
 1461              		.loc 1 2904 0
 1462 0398 2A46     		mov	r2, r5
 1463 039a 0821     		movs	r1, #8
 1464 039c 2F48     		ldr	r0, .L118+4
 1465 039e FFF7FEFF 		bl	TIM_CCxNCmd
 1466              	.LVL119:
 1467              		.loc 1 2907 0
 1468 03a2 6022     		movs	r2, #96
 1469 03a4 0421     		movs	r1, #4
 1470 03a6 2D48     		ldr	r0, .L118+4
 1471 03a8 FFF7FEFF 		bl	TIM_SelectOCxM
 1472              	.LVL120:
 1473              		.loc 1 2908 0
 1474 03ac 0122     		movs	r2, #1
 1475 03ae 0421     		movs	r1, #4
 1476 03b0 2A48     		ldr	r0, .L118+4
 1477 03b2 FFF7FEFF 		bl	TIM_CCxCmd
 1478              	.LVL121:
 1479              		.loc 1 2909 0
 1480 03b6 2246     		mov	r2, r4
 1481 03b8 0421     		movs	r1, #4
 1482              	.L104:
ARM GAS  /tmp/cchSvKkm.s 			page 27


 1483              		.loc 1 2951 0
 1484 03ba 2848     		ldr	r0, .L118+4
 1485 03bc FFF7FEFF 		bl	TIM_CCxNCmd
 1486              	.LVL122:
 1487              		.loc 1 2954 0
 1488 03c0 3246     		mov	r2, r6
 1489 03c2 C1E6     		b	.L102
 1490              	.LVL123:
 1491              	.L96:
 1492              		.loc 1 2944 0
 1493 03c4 0421     		movs	r1, #4
 1494 03c6 2548     		ldr	r0, .L118+4
 1495              	.LVL124:
 1496 03c8 FFF7FEFF 		bl	TIM_SelectOCxM
 1497              	.LVL125:
 1498              		.loc 1 2945 0
 1499 03cc 0122     		movs	r2, #1
 1500 03ce 0421     		movs	r1, #4
 1501 03d0 2248     		ldr	r0, .L118+4
 1502 03d2 FFF7FEFF 		bl	TIM_CCxCmd
 1503              	.LVL126:
 1504              		.loc 1 2946 0
 1505 03d6 2A46     		mov	r2, r5
 1506 03d8 0421     		movs	r1, #4
 1507 03da 2048     		ldr	r0, .L118+4
 1508 03dc FFF7FEFF 		bl	TIM_CCxNCmd
 1509              	.LVL127:
 1510              		.loc 1 2949 0
 1511 03e0 6022     		movs	r2, #96
 1512 03e2 0821     		movs	r1, #8
 1513 03e4 1D48     		ldr	r0, .L118+4
 1514 03e6 FFF7FEFF 		bl	TIM_SelectOCxM
 1515              	.LVL128:
 1516              		.loc 1 2950 0
 1517 03ea 0122     		movs	r2, #1
 1518 03ec 0821     		movs	r1, #8
 1519 03ee 1B48     		ldr	r0, .L118+4
 1520 03f0 FFF7FEFF 		bl	TIM_CCxCmd
 1521              	.LVL129:
 1522              		.loc 1 2951 0
 1523 03f4 2246     		mov	r2, r4
 1524 03f6 0821     		movs	r1, #8
 1525 03f8 DFE7     		b	.L104
 1526              	.LVL130:
 1527              	.L95:
 1528              		.loc 1 2965 0
 1529 03fa 4022     		movs	r2, #64
 1530 03fc 0021     		movs	r1, #0
 1531 03fe 1748     		ldr	r0, .L118+4
 1532              	.LVL131:
 1533 0400 FFF7FEFF 		bl	TIM_SelectOCxM
 1534              	.LVL132:
 1535              		.loc 1 2966 0
 1536 0404 0122     		movs	r2, #1
 1537 0406 0021     		movs	r1, #0
 1538 0408 1448     		ldr	r0, .L118+4
 1539 040a FFF7FEFF 		bl	TIM_CCxCmd
ARM GAS  /tmp/cchSvKkm.s 			page 28


 1540              	.LVL133:
 1541              		.loc 1 2967 0
 1542 040e 0022     		movs	r2, #0
 1543 0410 1146     		mov	r1, r2
 1544 0412 1248     		ldr	r0, .L118+4
 1545 0414 FFF7FEFF 		bl	TIM_CCxNCmd
 1546              	.LVL134:
 1547              		.loc 1 2969 0
 1548 0418 4022     		movs	r2, #64
 1549 041a 0421     		movs	r1, #4
 1550 041c 0F48     		ldr	r0, .L118+4
 1551 041e FFF7FEFF 		bl	TIM_SelectOCxM
 1552              	.LVL135:
 1553              		.loc 1 2970 0
 1554 0422 0122     		movs	r2, #1
 1555 0424 0421     		movs	r1, #4
 1556 0426 0D48     		ldr	r0, .L118+4
 1557 0428 FFF7FEFF 		bl	TIM_CCxCmd
 1558              	.LVL136:
 1559              		.loc 1 2971 0
 1560 042c 0022     		movs	r2, #0
 1561 042e 0421     		movs	r1, #4
 1562 0430 0A48     		ldr	r0, .L118+4
 1563 0432 FFF7FEFF 		bl	TIM_CCxNCmd
 1564              	.LVL137:
 1565              		.loc 1 2973 0
 1566 0436 4022     		movs	r2, #64
 1567 0438 0821     		movs	r1, #8
 1568 043a 0848     		ldr	r0, .L118+4
 1569 043c FFF7FEFF 		bl	TIM_SelectOCxM
 1570              	.LVL138:
 1571              		.loc 1 2974 0
 1572 0440 0122     		movs	r2, #1
 1573 0442 0821     		movs	r1, #8
 1574 0444 0548     		ldr	r0, .L118+4
 1575 0446 FFF7FEFF 		bl	TIM_CCxCmd
 1576              	.LVL139:
 1577              		.loc 1 2975 0
 1578 044a 0022     		movs	r2, #0
 1579 044c 0821     		movs	r1, #8
 1580 044e 0348     		ldr	r0, .L118+4
 1581              		.loc 1 2977 0
 1582 0450 BDE8F840 		pop	{r3, r4, r5, r6, r7, lr}
 1583              		.cfi_restore 14
 1584              		.cfi_restore 7
 1585              		.cfi_restore 6
 1586              		.cfi_restore 5
 1587              		.cfi_restore 4
 1588              		.cfi_restore 3
 1589              		.cfi_def_cfa_offset 0
 1590              	.LVL140:
 1591              		.loc 1 2975 0
 1592 0454 FFF7FEBF 		b	TIM_CCxNCmd
 1593              	.LVL141:
 1594              	.L119:
 1595              		.align	2
 1596              	.L118:
ARM GAS  /tmp/cchSvKkm.s 			page 29


 1597 0458 00000000 		.word	.LANCHOR4
 1598 045c 00000140 		.word	1073807360
 1599              		.cfi_endproc
 1600              	.LFE323:
 1601              		.size	set_next_comm_step, .-set_next_comm_step
 1602              		.section	.text.full_brake_hw,"ax",%progbits
 1603              		.align	1
 1604              		.p2align 4,,15
 1605              		.syntax unified
 1606              		.thumb
 1607              		.thumb_func
 1608              		.fpu fpv4-sp-d16
 1609              		.type	full_brake_hw, %function
 1610              	full_brake_hw:
 1611              	.LFB292:
 1612              		.loc 1 918 0
 1613              		.cfi_startproc
 1614              		@ args = 0, pretend = 0, frame = 0
 1615              		@ frame_needed = 0, uses_anonymous_args = 0
 1616 0000 10B5     		push	{r4, lr}
 1617              		.cfi_def_cfa_offset 8
 1618              		.cfi_offset 4, -8
 1619              		.cfi_offset 14, -4
 1620              		.loc 1 923 0
 1621 0002 1D4C     		ldr	r4, .L122
 1622 0004 4022     		movs	r2, #64
 1623 0006 2046     		mov	r0, r4
 1624 0008 0021     		movs	r1, #0
 1625 000a FFF7FEFF 		bl	TIM_SelectOCxM
 1626              	.LVL142:
 1627              		.loc 1 924 0
 1628 000e 2046     		mov	r0, r4
 1629 0010 0122     		movs	r2, #1
 1630 0012 0021     		movs	r1, #0
 1631 0014 FFF7FEFF 		bl	TIM_CCxCmd
 1632              	.LVL143:
 1633              		.loc 1 925 0
 1634 0018 2046     		mov	r0, r4
 1635 001a 0422     		movs	r2, #4
 1636 001c 0021     		movs	r1, #0
 1637 001e FFF7FEFF 		bl	TIM_CCxNCmd
 1638              	.LVL144:
 1639              		.loc 1 927 0
 1640 0022 2046     		mov	r0, r4
 1641 0024 4022     		movs	r2, #64
 1642 0026 0421     		movs	r1, #4
 1643 0028 FFF7FEFF 		bl	TIM_SelectOCxM
 1644              	.LVL145:
 1645              		.loc 1 928 0
 1646 002c 2046     		mov	r0, r4
 1647 002e 0122     		movs	r2, #1
 1648 0030 0421     		movs	r1, #4
 1649 0032 FFF7FEFF 		bl	TIM_CCxCmd
 1650              	.LVL146:
 1651              		.loc 1 929 0
 1652 0036 0422     		movs	r2, #4
 1653 0038 2046     		mov	r0, r4
ARM GAS  /tmp/cchSvKkm.s 			page 30


 1654 003a 1146     		mov	r1, r2
 1655 003c FFF7FEFF 		bl	TIM_CCxNCmd
 1656              	.LVL147:
 1657              		.loc 1 931 0
 1658 0040 2046     		mov	r0, r4
 1659 0042 4022     		movs	r2, #64
 1660 0044 0821     		movs	r1, #8
 1661 0046 FFF7FEFF 		bl	TIM_SelectOCxM
 1662              	.LVL148:
 1663              		.loc 1 932 0
 1664 004a 2046     		mov	r0, r4
 1665 004c 0122     		movs	r2, #1
 1666 004e 0821     		movs	r1, #8
 1667 0050 FFF7FEFF 		bl	TIM_CCxCmd
 1668              	.LVL149:
 1669              		.loc 1 933 0
 1670 0054 2046     		mov	r0, r4
 1671 0056 0422     		movs	r2, #4
 1672 0058 0821     		movs	r1, #8
 1673 005a FFF7FEFF 		bl	TIM_CCxNCmd
 1674              	.LVL150:
 1675              		.loc 1 935 0
 1676 005e 2046     		mov	r0, r4
 1677 0060 2021     		movs	r1, #32
 1678 0062 FFF7FEFF 		bl	TIM_GenerateEvent
 1679              	.LVL151:
 1680              		.loc 1 937 0
 1681 0066 054B     		ldr	r3, .L122+4
 1682 0068 1B68     		ldr	r3, [r3]
 1683              		.loc 1 938 0
 1684 006a BDE81040 		pop	{r4, lr}
 1685              		.cfi_restore 14
 1686              		.cfi_restore 4
 1687              		.cfi_def_cfa_offset 0
 1688              		.loc 1 937 0
 1689 006e 93ED690A 		vldr.32	s0, [r3, #420]
 1690 0072 FFF7FEBF 		b	set_switching_frequency
 1691              	.LVL152:
 1692              	.L123:
 1693 0076 00BF     		.align	2
 1694              	.L122:
 1695 0078 00000140 		.word	1073807360
 1696 007c 00000000 		.word	.LANCHOR0
 1697              		.cfi_endproc
 1698              	.LFE292:
 1699              		.size	full_brake_hw, .-full_brake_hw
 1700              		.section	.text.stop_pwm_hw,"ax",%progbits
 1701              		.align	1
 1702              		.p2align 4,,15
 1703              		.syntax unified
 1704              		.thumb
 1705              		.thumb_func
 1706              		.fpu fpv4-sp-d16
 1707              		.type	stop_pwm_hw, %function
 1708              	stop_pwm_hw:
 1709              	.LFB290:
 1710              		.loc 1 890 0
ARM GAS  /tmp/cchSvKkm.s 			page 31


 1711              		.cfi_startproc
 1712              		@ args = 0, pretend = 0, frame = 0
 1713              		@ frame_needed = 0, uses_anonymous_args = 0
 1714 0000 10B5     		push	{r4, lr}
 1715              		.cfi_def_cfa_offset 8
 1716              		.cfi_offset 4, -8
 1717              		.cfi_offset 14, -4
 1718              		.loc 1 895 0
 1719 0002 1D4C     		ldr	r4, .L126
 1720 0004 4022     		movs	r2, #64
 1721 0006 2046     		mov	r0, r4
 1722 0008 0021     		movs	r1, #0
 1723 000a FFF7FEFF 		bl	TIM_SelectOCxM
 1724              	.LVL153:
 1725              		.loc 1 896 0
 1726 000e 2046     		mov	r0, r4
 1727 0010 0122     		movs	r2, #1
 1728 0012 0021     		movs	r1, #0
 1729 0014 FFF7FEFF 		bl	TIM_CCxCmd
 1730              	.LVL154:
 1731              		.loc 1 897 0
 1732 0018 0022     		movs	r2, #0
 1733 001a 2046     		mov	r0, r4
 1734 001c 1146     		mov	r1, r2
 1735 001e FFF7FEFF 		bl	TIM_CCxNCmd
 1736              	.LVL155:
 1737              		.loc 1 899 0
 1738 0022 2046     		mov	r0, r4
 1739 0024 4022     		movs	r2, #64
 1740 0026 0421     		movs	r1, #4
 1741 0028 FFF7FEFF 		bl	TIM_SelectOCxM
 1742              	.LVL156:
 1743              		.loc 1 900 0
 1744 002c 2046     		mov	r0, r4
 1745 002e 0122     		movs	r2, #1
 1746 0030 0421     		movs	r1, #4
 1747 0032 FFF7FEFF 		bl	TIM_CCxCmd
 1748              	.LVL157:
 1749              		.loc 1 901 0
 1750 0036 2046     		mov	r0, r4
 1751 0038 0022     		movs	r2, #0
 1752 003a 0421     		movs	r1, #4
 1753 003c FFF7FEFF 		bl	TIM_CCxNCmd
 1754              	.LVL158:
 1755              		.loc 1 903 0
 1756 0040 2046     		mov	r0, r4
 1757 0042 4022     		movs	r2, #64
 1758 0044 0821     		movs	r1, #8
 1759 0046 FFF7FEFF 		bl	TIM_SelectOCxM
 1760              	.LVL159:
 1761              		.loc 1 904 0
 1762 004a 2046     		mov	r0, r4
 1763 004c 0122     		movs	r2, #1
 1764 004e 0821     		movs	r1, #8
 1765 0050 FFF7FEFF 		bl	TIM_CCxCmd
 1766              	.LVL160:
 1767              		.loc 1 905 0
ARM GAS  /tmp/cchSvKkm.s 			page 32


 1768 0054 2046     		mov	r0, r4
 1769 0056 0022     		movs	r2, #0
 1770 0058 0821     		movs	r1, #8
 1771 005a FFF7FEFF 		bl	TIM_CCxNCmd
 1772              	.LVL161:
 1773              		.loc 1 907 0
 1774 005e 2046     		mov	r0, r4
 1775 0060 2021     		movs	r1, #32
 1776 0062 FFF7FEFF 		bl	TIM_GenerateEvent
 1777              	.LVL162:
 1778              		.loc 1 909 0
 1779 0066 054B     		ldr	r3, .L126+4
 1780 0068 1B68     		ldr	r3, [r3]
 1781              		.loc 1 910 0
 1782 006a BDE81040 		pop	{r4, lr}
 1783              		.cfi_restore 14
 1784              		.cfi_restore 4
 1785              		.cfi_def_cfa_offset 0
 1786              		.loc 1 909 0
 1787 006e 93ED690A 		vldr.32	s0, [r3, #420]
 1788 0072 FFF7FEBF 		b	set_switching_frequency
 1789              	.LVL163:
 1790              	.L127:
 1791 0076 00BF     		.align	2
 1792              	.L126:
 1793 0078 00000140 		.word	1073807360
 1794 007c 00000000 		.word	.LANCHOR0
 1795              		.cfi_endproc
 1796              	.LFE290:
 1797              		.size	stop_pwm_hw, .-stop_pwm_hw
 1798              		.section	.text.update_rpm_tacho,"ax",%progbits
 1799              		.align	1
 1800              		.p2align 4,,15
 1801              		.syntax unified
 1802              		.thumb
 1803              		.thumb_func
 1804              		.fpu fpv4-sp-d16
 1805              		.type	update_rpm_tacho, %function
 1806              	update_rpm_tacho:
 1807              	.LFB317:
 1808              		.loc 1 2515 0
 1809              		.cfi_startproc
 1810              		@ args = 0, pretend = 0, frame = 0
 1811              		@ frame_needed = 0, uses_anonymous_args = 0
 1812              		.loc 1 2516 0
 1813 0000 1F4B     		ldr	r3, .L140
 1814              		.loc 1 2518 0
 1815 0002 2049     		ldr	r1, .L140+4
 1816              		.loc 1 2516 0
 1817 0004 1A68     		ldr	r2, [r3]
 1818              		.loc 1 2518 0
 1819 0006 0B68     		ldr	r3, [r1]
 1820              		.loc 1 2515 0
 1821 0008 70B5     		push	{r4, r5, r6, lr}
 1822              		.cfi_def_cfa_offset 16
 1823              		.cfi_offset 4, -16
 1824              		.cfi_offset 5, -12
ARM GAS  /tmp/cchSvKkm.s 			page 33


 1825              		.cfi_offset 6, -8
 1826              		.cfi_offset 14, -4
 1827              		.loc 1 2516 0
 1828 000a 013A     		subs	r2, r2, #1
 1829              	.LVL164:
 1830              		.loc 1 2518 0
 1831 000c 1E4C     		ldr	r4, .L140+8
 1832              		.loc 1 2519 0
 1833 000e 0A60     		str	r2, [r1]
 1834              		.loc 1 2518 0
 1835 0010 D31A     		subs	r3, r2, r3
 1836 0012 84FB0304 		smull	r0, r4, r4, r3
 1837 0016 A4EBE374 		sub	r4, r4, r3, asr #31
 1838 001a 04EB4404 		add	r4, r4, r4, lsl #1
 1839 001e A3EB4404 		sub	r4, r3, r4, lsl #1
 1840              	.LVL165:
 1841              		.loc 1 2521 0
 1842 0022 032C     		cmp	r4, #3
 1843 0024 21DD     		ble	.L129
 1844              		.loc 1 2522 0
 1845 0026 063C     		subs	r4, r4, #6
 1846              	.LVL166:
 1847              	.L130:
 1848              		.loc 1 2528 0
 1849 0028 184D     		ldr	r5, .L140+12
 1850              		.loc 1 2529 0
 1851 002a 194E     		ldr	r6, .L140+16
 1852              		.loc 1 2528 0
 1853 002c 6B69     		ldr	r3, [r5, #20]
 1854 002e 2344     		add	r3, r3, r4
 1855 0030 6B61     		str	r3, [r5, #20]
 1856              		.loc 1 2529 0
 1857 0032 3068     		ldr	r0, [r6]
 1858 0034 FFF7FEFF 		bl	timer_seconds_elapsed_since
 1859              	.LVL167:
 1860 0038 D5ED067A 		vldr.32	s15, [r5, #24]
 1861 003c 37EE800A 		vadd.f32	s0, s15, s0
 1862 0040 85ED060A 		vstr.32	s0, [r5, #24]
 1863              		.loc 1 2530 0
 1864 0044 FFF7FEFF 		bl	timer_time_now
 1865              	.LVL168:
 1866 0048 3060     		str	r0, [r6]
 1867              	.L132:
 1868              		.loc 1 2534 0
 1869 004a 1249     		ldr	r1, .L140+20
 1870              		.loc 1 2535 0
 1871 004c 124A     		ldr	r2, .L140+24
 1872              		.loc 1 2534 0
 1873 004e 0B68     		ldr	r3, [r1]
 1874              		.loc 1 2537 0
 1875 0050 1248     		ldr	r0, .L140+28
 1876              		.loc 1 2534 0
 1877 0052 2344     		add	r3, r3, r4
 1878 0054 0B60     		str	r3, [r1]
 1879              		.loc 1 2535 0
 1880 0056 1368     		ldr	r3, [r2]
 1881 0058 2344     		add	r3, r3, r4
ARM GAS  /tmp/cchSvKkm.s 			page 34


 1882 005a 1360     		str	r3, [r2]
 1883              		.loc 1 2537 0
 1884 005c 0368     		ldr	r3, [r0]
 1885              		.loc 1 2538 0
 1886 005e 104A     		ldr	r2, .L140+32
 1887              		.loc 1 2537 0
 1888 0060 53B9     		cbnz	r3, .L139
 1889              		.loc 1 2540 0
 1890 0062 1368     		ldr	r3, [r2]
 1891 0064 1C1B     		subs	r4, r3, r4
 1892              	.LVL169:
 1893 0066 1460     		str	r4, [r2]
 1894              		.loc 1 2542 0
 1895 0068 70BD     		pop	{r4, r5, r6, pc}
 1896              	.LVL170:
 1897              	.L129:
 1898              		.loc 1 2523 0
 1899 006a A31C     		adds	r3, r4, #2
 1900 006c 01DA     		bge	.L131
 1901              		.loc 1 2524 0
 1902 006e 0634     		adds	r4, r4, #6
 1903              	.LVL171:
 1904 0070 DAE7     		b	.L130
 1905              	.L131:
 1906              		.loc 1 2527 0
 1907 0072 002C     		cmp	r4, #0
 1908 0074 E9D0     		beq	.L132
 1909 0076 D7E7     		b	.L130
 1910              	.LVL172:
 1911              	.L139:
 1912              		.loc 1 2538 0
 1913 0078 1368     		ldr	r3, [r2]
 1914 007a 1C44     		add	r4, r4, r3
 1915              	.LVL173:
 1916 007c 1460     		str	r4, [r2]
 1917              		.loc 1 2542 0
 1918 007e 70BD     		pop	{r4, r5, r6, pc}
 1919              	.L141:
 1920              		.align	2
 1921              	.L140:
 1922 0080 00000000 		.word	.LANCHOR3
 1923 0084 00000000 		.word	.LANCHOR7
 1924 0088 ABAAAA2A 		.word	715827883
 1925 008c 00000000 		.word	.LANCHOR8
 1926 0090 00000000 		.word	.LANCHOR9
 1927 0094 00000000 		.word	.LANCHOR10
 1928 0098 00000000 		.word	.LANCHOR11
 1929 009c 00000000 		.word	.LANCHOR4
 1930 00a0 00000000 		.word	.LANCHOR12
 1931              		.cfi_endproc
 1932              	.LFE317:
 1933              		.size	update_rpm_tacho, .-update_rpm_tacho
 1934              		.section	.text.timer_thread,"ax",%progbits
 1935              		.align	1
 1936              		.p2align 4,,15
 1937              		.syntax unified
 1938              		.thumb
ARM GAS  /tmp/cchSvKkm.s 			page 35


 1939              		.thumb_func
 1940              		.fpu fpv4-sp-d16
 1941              		.type	timer_thread, %function
 1942              	timer_thread:
 1943              	.LFB299:
 1944              		.loc 1 1327 0
 1945              		.cfi_startproc
 1946              		@ args = 0, pretend = 0, frame = 0
 1947              		@ frame_needed = 0, uses_anonymous_args = 0
 1948              	.LVL174:
 1949 0000 2DE9F041 		push	{r4, r5, r6, r7, r8, lr}
 1950              		.cfi_def_cfa_offset 24
 1951              		.cfi_offset 4, -24
 1952              		.cfi_offset 5, -20
 1953              		.cfi_offset 6, -16
 1954              		.cfi_offset 7, -12
 1955              		.cfi_offset 8, -8
 1956              		.cfi_offset 14, -4
 1957              	.LBB75:
 1958              	.LBB76:
 1959              		.file 2 "ChibiOS_3.0.2/os/rt/include/chregistry.h"
 1960              		.loc 2 135 0
 1961 0004 7A4B     		ldr	r3, .L194
 1962              	.LBE76:
 1963              	.LBE75:
 1964              	.LBB80:
 1965              		.loc 1 1337 0
 1966 0006 7B4E     		ldr	r6, .L194+4
 1967              	.LBE80:
 1968              	.LBB94:
 1969              	.LBB77:
 1970              		.loc 2 135 0
 1971 0008 9A69     		ldr	r2, [r3, #24]
 1972              	.LBE77:
 1973              	.LBE94:
 1974              	.LBB95:
 1975              		.loc 1 1337 0
 1976 000a 3378     		ldrb	r3, [r6]	@ zero_extendqisi2
 1977              	.LBE95:
 1978              	.LBB96:
 1979              	.LBB78:
 1980              		.loc 2 135 0
 1981 000c 7A49     		ldr	r1, .L194+8
 1982              	.LBE78:
 1983              	.LBE96:
 1984              		.loc 1 1327 0
 1985 000e 2DED068B 		vpush.64	{d8, d9, d10}
 1986              		.cfi_def_cfa_offset 48
 1987              		.cfi_offset 80, -48
 1988              		.cfi_offset 81, -44
 1989              		.cfi_offset 82, -40
 1990              		.cfi_offset 83, -36
 1991              		.cfi_offset 84, -32
 1992              		.cfi_offset 85, -28
 1993              	.LBB97:
 1994              	.LBB79:
 1995              		.loc 2 135 0
ARM GAS  /tmp/cchSvKkm.s 			page 36


 1996 0012 9161     		str	r1, [r2, #24]
 1997              	.LBE79:
 1998              	.LBE97:
 1999              	.LBB98:
 2000              		.loc 1 1337 0
 2001 0014 002B     		cmp	r3, #0
 2002 0016 5DD1     		bne	.L170
 2003 0018 784D     		ldr	r5, .L194+12
 2004 001a 794C     		ldr	r4, .L194+16
 2005              		.loc 1 1414 0
 2006 001c 794F     		ldr	r7, .L194+20
 2007              		.loc 1 1359 0
 2008 001e 9FED7AAA 		vldr.32	s20, .L194+24
 2009              		.loc 1 1358 0
 2010 0022 DFED7A9A 		vldr.32	s19, .L194+28
 2011              		.loc 1 1379 0
 2012 0026 9FED7A9A 		vldr.32	s18, .L194+32
 2013              	.LBB81:
 2014              	.LBB82:
 2015              		.loc 1 749 0
 2016 002a DFED7A8A 		vldr.32	s17, .L194+36
 2017 002e 9FED7A8A 		vldr.32	s16, .L194+40
 2018 0032 06E0     		b	.L143
 2019              	.LVL175:
 2020              	.L189:
 2021              	.LBE82:
 2022              	.LBE81:
 2023              		.loc 1 1419 0
 2024 0034 2360     		str	r3, [r4]
 2025              	.L166:
 2026              		.loc 1 1433 0
 2027 0036 0A20     		movs	r0, #10
 2028 0038 FFF7FEFF 		bl	chThdSleep
 2029              	.LVL176:
 2030              		.loc 1 1337 0
 2031 003c 3378     		ldrb	r3, [r6]	@ zero_extendqisi2
 2032 003e 002B     		cmp	r3, #0
 2033 0040 48D1     		bne	.L170
 2034              	.L143:
 2035              		.loc 1 1342 0
 2036 0042 2B78     		ldrb	r3, [r5]	@ zero_extendqisi2
 2037 0044 03F0FF08 		and	r8, r3, #255
 2038 0048 23B3     		cbz	r3, .L188
 2039              		.loc 1 1414 0
 2040 004a 0023     		movs	r3, #0
 2041 004c 3B60     		str	r3, [r7]
 2042              	.L164:
 2043              		.loc 1 1419 0
 2044 004e 2368     		ldr	r3, [r4]
 2045 0050 0133     		adds	r3, r3, #1
 2046              		.loc 1 1420 0
 2047 0052 092B     		cmp	r3, #9
 2048 0054 EEDD     		ble	.L189
 2049              		.loc 1 1422 0
 2050 0056 2B78     		ldrb	r3, [r5]	@ zero_extendqisi2
 2051              		.loc 1 1421 0
 2052 0058 0022     		movs	r2, #0
ARM GAS  /tmp/cchSvKkm.s 			page 37


 2053              		.loc 1 1422 0
 2054 005a 022B     		cmp	r3, #2
 2055              		.loc 1 1421 0
 2056 005c 2260     		str	r2, [r4]
 2057              		.loc 1 1422 0
 2058 005e 64D0     		beq	.L190
 2059              		.loc 1 1425 0
 2060 0060 2B78     		ldrb	r3, [r5]	@ zero_extendqisi2
 2061 0062 002B     		cmp	r3, #0
 2062 0064 E7D1     		bne	.L166
 2063              		.loc 1 1426 0
 2064 0066 6D4A     		ldr	r2, .L194+44
 2065 0068 6D4B     		ldr	r3, .L194+48
 2066 006a 1268     		ldr	r2, [r2]
 2067 006c 92ED157A 		vldr.32	s14, [r2, #84]
 2068 0070 D3ED007A 		vldr.32	s15, [r3]
 2069 0074 B4EEE77A 		vcmpe.f32	s14, s15
 2070 0078 F1EE10FA 		vmrs	APSR_nzcv, FPSCR
 2071 007c DBD8     		bhi	.L166
 2072              	.LBB86:
 2073              	.LBB83:
 2074              		.loc 1 749 0
 2075 007e 6949     		ldr	r1, .L194+52
 2076 0080 694A     		ldr	r2, .L194+56
 2077 0082 91ED000A 		vldr.32	s0, [r1]
 2078 0086 D28A     		ldrh	r2, [r2, #22]
 2079 0088 93ED007A 		vldr.32	s14, [r3]
 2080 008c 07EE902A 		vmov	s15, r2	@ int
 2081              	.LBE83:
 2082              	.LBE86:
 2083              		.loc 1 1427 0
 2084 0090 664A     		ldr	r2, .L194+60
 2085 0092 55E0     		b	.L187
 2086              	.L188:
 2087              		.loc 1 1345 0
 2088 0094 664B     		ldr	r3, .L194+64
 2089 0096 6749     		ldr	r1, .L194+68
 2090 0098 1B68     		ldr	r3, [r3]
 2091 009a 6748     		ldr	r0, .L194+72
 2092 009c 0722     		movs	r2, #7
 2093 009e FFF7FEFF 		bl	filter_run_fir_iteration
 2094              	.LVL177:
 2095              		.loc 1 1349 0
 2096 00a2 5E4B     		ldr	r3, .L194+44
 2097 00a4 1968     		ldr	r1, [r3]
 2098 00a6 8B78     		ldrb	r3, [r1, #2]	@ zero_extendqisi2
 2099 00a8 DBB2     		uxtb	r3, r3
 2100 00aa 012B     		cmp	r3, #1
 2101 00ac 18D0     		beq	.L191
 2102              		.loc 1 1357 0
 2103 00ae 634B     		ldr	r3, .L194+76
 2104 00b0 1B78     		ldrb	r3, [r3]	@ zero_extendqisi2
 2105 00b2 03F0FF00 		and	r0, r3, #255
 2106 00b6 002B     		cmp	r3, #0
 2107 00b8 59D1     		bne	.L192
 2108              		.loc 1 1394 0
 2109 00ba 3B68     		ldr	r3, [r7]
ARM GAS  /tmp/cchSvKkm.s 			page 38


 2110 00bc 0333     		adds	r3, r3, #3
 2111 00be 50DA     		bge	.L159
 2112              		.loc 1 1395 0
 2113 00c0 5F4A     		ldr	r2, .L194+80
 2114 00c2 1368     		ldr	r3, [r2]
 2115 00c4 012B     		cmp	r3, #1
 2116 00c6 00F09080 		beq	.L193
 2117              	.L160:
 2118              		.loc 1 1398 0
 2119 00ca 0123     		movs	r3, #1
 2120 00cc 1360     		str	r3, [r2]
 2121              	.L161:
 2122              		.loc 1 1400 0
 2123 00ce 0023     		movs	r3, #0
 2124 00d0 3B60     		str	r3, [r7]
 2125 00d2 10E0     		b	.L148
 2126              	.LVL178:
 2127              	.L170:
 2128              	.LBE98:
 2129              		.loc 1 1435 0
 2130 00d4 BDEC068B 		vldm	sp!, {d8-d10}
 2131              		.cfi_remember_state
 2132              		.cfi_restore 84
 2133              		.cfi_restore 85
 2134              		.cfi_restore 82
 2135              		.cfi_restore 83
 2136              		.cfi_restore 80
 2137              		.cfi_restore 81
 2138              		.cfi_def_cfa_offset 24
 2139              	.LBB99:
 2140              		.loc 1 1338 0
 2141 00d8 0023     		movs	r3, #0
 2142 00da 3370     		strb	r3, [r6]
 2143              	.LBE99:
 2144              		.loc 1 1435 0
 2145 00dc BDE8F081 		pop	{r4, r5, r6, r7, r8, pc}
 2146              	.LVL179:
 2147              	.L191:
 2148              		.cfi_restore_state
 2149              	.LBB100:
 2150              		.loc 1 1350 0
 2151 00e0 B5EEC00A 		vcmpe.f32	s0, #0
 2152              		.loc 1 1351 0
 2153 00e4 564A     		ldr	r2, .L194+80
 2154              		.loc 1 1350 0
 2155 00e6 F1EE10FA 		vmrs	APSR_nzcv, FPSCR
 2156              		.loc 1 1351 0
 2157 00ea CEBF     		itee	gt
 2158 00ec C2F80080 		strgt	r8, [r2]
 2159              		.loc 1 1354 0
 2160 00f0 B1EE400A 		vnegle.f32	s0, s0
 2161              	.LVL180:
 2162              		.loc 1 1353 0
 2163 00f4 1360     		strle	r3, [r2]
 2164              	.L148:
 2165              		.loc 1 1407 0
 2166 00f6 1368     		ldr	r3, [r2]
ARM GAS  /tmp/cchSvKkm.s 			page 39


 2167              		.loc 1 1408 0
 2168 00f8 4B4A     		ldr	r2, .L194+56
 2169              		.loc 1 1412 0
 2170 00fa 4948     		ldr	r0, .L194+48
 2171              		.loc 1 1408 0
 2172 00fc D28A     		ldrh	r2, [r2, #22]
 2173 00fe 07EE902A 		vmov	s15, r2	@ int
 2174              		.loc 1 1407 0
 2175 0102 012B     		cmp	r3, #1
 2176              		.loc 1 1408 0
 2177 0104 F8EE677A 		vcvt.f32.u32	s15, s15
 2178              		.loc 1 1410 0
 2179 0108 18BF     		it	ne
 2180 010a B1EE400A 		vnegne.f32	s0, s0
 2181              	.LVL181:
 2182 010e 80EE277A 		vdiv.f32	s14, s0, s15
 2183              		.loc 1 1408 0
 2184 0112 434B     		ldr	r3, .L194+48
 2185              		.loc 1 1410 0
 2186 0114 83ED007A 		vstr.32	s14, [r3]
 2187              		.loc 1 1412 0
 2188 0118 91ED160A 		vldr.32	s0, [r1, #88]
 2189 011c D1ED160A 		vldr.32	s1, [r1, #88]
 2190 0120 B1EE400A 		vneg.f32	s0, s0
 2191 0124 FFF7FEFF 		bl	utils_truncate_number
 2192              	.LVL182:
 2193 0128 91E7     		b	.L164
 2194              	.L190:
 2195              	.LBB87:
 2196              	.LBB88:
 2197              		.loc 1 749 0
 2198 012a 3E4A     		ldr	r2, .L194+52
 2199 012c 3E4B     		ldr	r3, .L194+56
 2200 012e 92ED000A 		vldr.32	s0, [r2]
 2201 0132 DB8A     		ldrh	r3, [r3, #22]
 2202              	.LBE88:
 2203              	.LBE87:
 2204              		.loc 1 1423 0
 2205 0134 3D4A     		ldr	r2, .L194+60
 2206              	.LBB90:
 2207              	.LBB89:
 2208              		.loc 1 749 0
 2209 0136 07EE903A 		vmov	s15, r3	@ int
 2210 013a 394B     		ldr	r3, .L194+48
 2211 013c 93ED007A 		vldr.32	s14, [r3]
 2212              	.L187:
 2213              	.LBE89:
 2214              	.LBE90:
 2215              		.loc 1 1427 0
 2216 0140 4048     		ldr	r0, .L194+84
 2217              	.LBB91:
 2218              	.LBB84:
 2219              		.loc 1 749 0
 2220 0142 F8EE677A 		vcvt.f32.u32	s15, s15
 2221 0146 B0EEC77A 		vabs.f32	s14, s14
 2222 014a 67EEA87A 		vmul.f32	s15, s15, s17
 2223              	.LBE84:
ARM GAS  /tmp/cchSvKkm.s 			page 40


 2224              	.LBE91:
 2225              		.loc 1 1427 0
 2226 014e 0721     		movs	r1, #7
 2227              	.LBB92:
 2228              	.LBB85:
 2229              		.loc 1 749 0
 2230 0150 67EE887A 		vmul.f32	s15, s15, s16
 2231 0154 67EE877A 		vmul.f32	s15, s15, s14
 2232              	.LBE85:
 2233              	.LBE92:
 2234              		.loc 1 1427 0
 2235 0158 80EE270A 		vdiv.f32	s0, s0, s15
 2236 015c FFF7FEFF 		bl	filter_add_sample
 2237              	.LVL183:
 2238 0160 69E7     		b	.L166
 2239              	.LVL184:
 2240              	.L159:
 2241              		.loc 1 1401 0
 2242 0162 3B68     		ldr	r3, [r7]
 2243 0164 364A     		ldr	r2, .L194+80
 2244 0166 002B     		cmp	r3, #0
 2245              		.loc 1 1402 0
 2246 0168 C8BF     		it	gt
 2247 016a 3860     		strgt	r0, [r7]
 2248 016c C3E7     		b	.L148
 2249              	.L192:
 2250 016e DFF8D8C0 		ldr	ip, .L194+88
 2251              		.loc 1 1359 0
 2252 0172 F0EE4A7A 		vmov.f32	s15, s20
 2253              		.loc 1 1358 0
 2254 0176 F0EE696A 		vmov.f32	s13, s19
 2255              	.LBB93:
 2256              		.loc 1 1361 0
 2257 017a 4346     		mov	r3, r8
 2258              	.L154:
 2259              	.LVL185:
 2260              		.loc 1 1362 0
 2261 017c 9A00     		lsls	r2, r3, #2
 2262 017e 0CEB0200 		add	r0, ip, r2
 2263 0182 90ED007A 		vldr.32	s14, [r0]
 2264 0186 B4EEE67A 		vcmpe.f32	s14, s13
 2265 018a F1EE10FA 		vmrs	APSR_nzcv, FPSCR
 2266              		.loc 1 1363 0
 2267 018e 48BF     		it	mi
 2268 0190 D0ED006A 		vldrmi.32	s13, [r0]
 2269              	.LVL186:
 2270              		.loc 1 1366 0
 2271 0194 90ED007A 		vldr.32	s14, [r0]
 2272 0198 B4EEE77A 		vcmpe.f32	s14, s15
 2273 019c F1EE10FA 		vmrs	APSR_nzcv, FPSCR
 2274              		.loc 1 1361 0
 2275 01a0 03F10103 		add	r3, r3, #1
 2276              	.LVL187:
 2277              		.loc 1 1367 0
 2278 01a4 C8BF     		it	gt
 2279 01a6 D0ED007A 		vldrgt.32	s15, [r0]
 2280              	.LVL188:
ARM GAS  /tmp/cchSvKkm.s 			page 41


 2281              		.loc 1 1361 0
 2282 01aa 062B     		cmp	r3, #6
 2283 01ac E6D1     		bne	.L154
 2284              	.LBE93:
 2285              		.loc 1 1379 0
 2286 01ae 36EEA77A 		vadd.f32	s14, s13, s15
 2287 01b2 B6EE006A 		vmov.f32	s12, #5.0e-1
 2288 01b6 77EEE67A 		vsub.f32	s15, s15, s13
 2289              	.LVL189:
 2290 01ba 27EE067A 		vmul.f32	s14, s14, s12
 2291 01be C7EE876A 		vdiv.f32	s13, s15, s14
 2292              	.LVL190:
 2293 01c2 F4EEC96A 		vcmpe.f32	s13, s18
 2294 01c6 F1EE10FA 		vmrs	APSR_nzcv, FPSCR
 2295 01ca 0ADD     		ble	.L182
 2296              		.loc 1 1380 0
 2297 01cc 3B68     		ldr	r3, [r7]
 2298              	.LVL191:
 2299              		.loc 1 1381 0
 2300 01ce 1C4A     		ldr	r2, .L194+80
 2301              		.loc 1 1380 0
 2302 01d0 0C2B     		cmp	r3, #12
 2303 01d2 90DD     		ble	.L148
 2304              		.loc 1 1381 0
 2305 01d4 1368     		ldr	r3, [r2]
 2306 01d6 012B     		cmp	r3, #1
 2307 01d8 7FF477AF 		bne	.L160
 2308              		.loc 1 1382 0
 2309 01dc 0023     		movs	r3, #0
 2310 01de 1360     		str	r3, [r2]
 2311 01e0 75E7     		b	.L161
 2312              	.LVL192:
 2313              	.L182:
 2314              		.loc 1 1389 0
 2315 01e2 0023     		movs	r3, #0
 2316              	.LVL193:
 2317 01e4 3B60     		str	r3, [r7]
 2318 01e6 164A     		ldr	r2, .L194+80
 2319 01e8 85E7     		b	.L148
 2320              	.L193:
 2321              		.loc 1 1396 0
 2322 01ea 1060     		str	r0, [r2]
 2323 01ec 6FE7     		b	.L161
 2324              	.L195:
 2325 01ee 00BF     		.align	2
 2326              	.L194:
 2327 01f0 00000000 		.word	ch
 2328 01f4 00000000 		.word	.LANCHOR13
 2329 01f8 00000000 		.word	.LC1
 2330 01fc 00000000 		.word	.LANCHOR2
 2331 0200 00000000 		.word	.LANCHOR20
 2332 0204 00000000 		.word	.LANCHOR10
 2333 0208 00000000 		.word	0
 2334 020c E7841155 		.word	1427211495
 2335 0210 9A99993F 		.word	1067030938
 2336 0214 6740533A 		.word	978534503
 2337 0218 00004943 		.word	1128857600
ARM GAS  /tmp/cchSvKkm.s 			page 42


 2338 021c 00000000 		.word	.LANCHOR0
 2339 0220 00000000 		.word	.LANCHOR19
 2340 0224 00000000 		.word	.LANCHOR21
 2341 0228 00000000 		.word	ADC_Value
 2342 022c 00000000 		.word	.LANCHOR22
 2343 0230 00000000 		.word	.LANCHOR14
 2344 0234 00000000 		.word	.LANCHOR15
 2345 0238 00000000 		.word	.LANCHOR16
 2346 023c 00000000 		.word	.LANCHOR17
 2347 0240 00000000 		.word	.LANCHOR4
 2348 0244 00000000 		.word	.LANCHOR23
 2349 0248 00000000 		.word	.LANCHOR18
 2350              	.LBE100:
 2351              		.cfi_endproc
 2352              	.LFE299:
 2353              		.size	timer_thread, .-timer_thread
 2354              		.section	.text.mcpwm_get_rpm.part.0,"ax",%progbits
 2355              		.align	1
 2356              		.p2align 4,,15
 2357              		.syntax unified
 2358              		.thumb
 2359              		.thumb_func
 2360              		.fpu fpv4-sp-d16
 2361              		.type	mcpwm_get_rpm.part.0, %function
 2362              	mcpwm_get_rpm.part.0:
 2363              	.LFB324:
 2364              		.loc 1 728 0
 2365              		.cfi_startproc
 2366              		@ args = 0, pretend = 0, frame = 0
 2367              		@ frame_needed = 0, uses_anonymous_args = 0
 2368              		@ link register save eliminated.
 2369              		.loc 1 732 0
 2370 0000 064B     		ldr	r3, .L200
 2371 0002 1B68     		ldr	r3, [r3]
 2372 0004 1BB1     		cbz	r3, .L199
 2373 0006 064B     		ldr	r3, .L200+4
 2374 0008 93ED000A 		vldr.32	s0, [r3]
 2375              		.loc 1 734 0
 2376 000c 7047     		bx	lr
 2377              	.L199:
 2378              		.loc 1 732 0
 2379 000e 044B     		ldr	r3, .L200+4
 2380 0010 93ED000A 		vldr.32	s0, [r3]
 2381 0014 B1EE400A 		vneg.f32	s0, s0
 2382 0018 7047     		bx	lr
 2383              	.L201:
 2384 001a 00BF     		.align	2
 2385              	.L200:
 2386 001c 00000000 		.word	.LANCHOR4
 2387 0020 00000000 		.word	.LANCHOR21
 2388              		.cfi_endproc
 2389              	.LFE324:
 2390              		.size	mcpwm_get_rpm.part.0, .-mcpwm_get_rpm.part.0
 2391              		.section	.text.update_sensor_mode,"ax",%progbits
 2392              		.align	1
 2393              		.p2align 4,,15
 2394              		.syntax unified
ARM GAS  /tmp/cchSvKkm.s 			page 43


 2395              		.thumb
 2396              		.thumb_func
 2397              		.fpu fpv4-sp-d16
 2398              		.type	update_sensor_mode, %function
 2399              	update_sensor_mode:
 2400              	.LFB318:
 2401              		.loc 1 2544 0
 2402              		.cfi_startproc
 2403              		@ args = 0, pretend = 0, frame = 0
 2404              		@ frame_needed = 0, uses_anonymous_args = 0
 2405 0000 08B5     		push	{r3, lr}
 2406              		.cfi_def_cfa_offset 8
 2407              		.cfi_offset 3, -8
 2408              		.cfi_offset 14, -4
 2409              		.loc 1 2545 0
 2410 0002 124B     		ldr	r3, .L211
 2411 0004 1A68     		ldr	r2, [r3]
 2412 0006 D378     		ldrb	r3, [r2, #3]	@ zero_extendqisi2
 2413 0008 CBB1     		cbz	r3, .L208
 2414              		.loc 1 2546 0 discriminator 1
 2415 000a D378     		ldrb	r3, [r2, #3]	@ zero_extendqisi2
 2416              		.loc 1 2545 0 discriminator 1
 2417 000c 022B     		cmp	r3, #2
 2418 000e 03D0     		beq	.L210
 2419              	.L205:
 2420              		.loc 1 2550 0
 2421 0010 0F4B     		ldr	r3, .L211+4
 2422 0012 0022     		movs	r2, #0
 2423 0014 1A70     		strb	r2, [r3]
 2424              		.loc 1 2552 0
 2425 0016 08BD     		pop	{r3, pc}
 2426              	.L210:
 2427              	.LBB101:
 2428              	.LBB102:
 2429              		.loc 1 729 0
 2430 0018 9378     		ldrb	r3, [r2, #2]	@ zero_extendqisi2
 2431 001a 012B     		cmp	r3, #1
 2432 001c 13D1     		bne	.L206
 2433              		.loc 1 730 0
 2434 001e 0D4B     		ldr	r3, .L211+8
 2435 0020 DFED0D7A 		vldr.32	s15, .L211+12
 2436 0024 93ED007A 		vldr.32	s14, [r3]
 2437 0028 87EE270A 		vdiv.f32	s0, s14, s15
 2438              	.L207:
 2439              	.LBE102:
 2440              	.LBE101:
 2441              		.loc 1 2547 0
 2442 002c D2ED2A7A 		vldr.32	s15, [r2, #168]
 2443 0030 B0EEC00A 		vabs.f32	s0, s0
 2444              		.loc 1 2546 0
 2445 0034 B4EEE70A 		vcmpe.f32	s0, s15
 2446 0038 F1EE10FA 		vmrs	APSR_nzcv, FPSCR
 2447 003c E8DD     		ble	.L205
 2448              	.L208:
 2449              		.loc 1 2548 0
 2450 003e 044B     		ldr	r3, .L211+4
 2451 0040 0122     		movs	r2, #1
ARM GAS  /tmp/cchSvKkm.s 			page 44


 2452 0042 1A70     		strb	r2, [r3]
 2453              		.loc 1 2552 0
 2454 0044 08BD     		pop	{r3, pc}
 2455              	.L206:
 2456              	.LBB104:
 2457              	.LBB103:
 2458 0046 FFF7FEFF 		bl	mcpwm_get_rpm.part.0
 2459              	.LVL194:
 2460 004a EFE7     		b	.L207
 2461              	.L212:
 2462              		.align	2
 2463              	.L211:
 2464 004c 00000000 		.word	.LANCHOR0
 2465 0050 00000000 		.word	.LANCHOR17
 2466 0054 00000000 		.word	.LANCHOR24
 2467 0058 5077D63D 		.word	1037465424
 2468              	.LBE103:
 2469              	.LBE104:
 2470              		.cfi_endproc
 2471              	.LFE318:
 2472              		.size	update_sensor_mode, .-update_sensor_mode
 2473              		.section	.text.commutate,"ax",%progbits
 2474              		.align	1
 2475              		.p2align 4,,15
 2476              		.syntax unified
 2477              		.thumb
 2478              		.thumb_func
 2479              		.fpu fpv4-sp-d16
 2480              		.type	commutate, %function
 2481              	commutate:
 2482              	.LFB319:
 2483              		.loc 1 2554 0
 2484              		.cfi_startproc
 2485              		@ args = 0, pretend = 0, frame = 32
 2486              		@ frame_needed = 0, uses_anonymous_args = 0
 2487              	.LVL195:
 2488              		.loc 1 2555 0
 2489 0000 2E4B     		ldr	r3, .L229
 2490 0002 2F4A     		ldr	r2, .L229+4
 2491 0004 1968     		ldr	r1, [r3]	@ float
 2492              		.loc 1 2554 0
 2493 0006 F0B5     		push	{r4, r5, r6, r7, lr}
 2494              		.cfi_def_cfa_offset 20
 2495              		.cfi_offset 4, -20
 2496              		.cfi_offset 5, -16
 2497              		.cfi_offset 6, -12
 2498              		.cfi_offset 7, -8
 2499              		.cfi_offset 14, -4
 2500              		.loc 1 2556 0
 2501 0008 2E4C     		ldr	r4, .L229+8
 2502              		.loc 1 2555 0
 2503 000a 1160     		str	r1, [r2]	@ float
 2504              		.loc 1 2556 0
 2505 000c 2168     		ldr	r1, [r4]
 2506 000e 2E4A     		ldr	r2, .L229+12
 2507              		.loc 1 2560 0
 2508 0010 2E4E     		ldr	r6, .L229+16
ARM GAS  /tmp/cchSvKkm.s 			page 45


 2509              		.loc 1 2556 0
 2510 0012 1F68     		ldr	r7, [r3]	@ float
 2511 0014 0139     		subs	r1, r1, #1
 2512 0016 02EB8102 		add	r2, r2, r1, lsl #2
 2513              		.loc 1 2557 0
 2514 001a 0025     		movs	r5, #0
 2515              		.loc 1 2558 0
 2516 001c 2C49     		ldr	r1, .L229+20
 2517              		.loc 1 2556 0
 2518 001e 1760     		str	r7, [r2]	@ float
 2519              		.loc 1 2557 0
 2520 0020 1D60     		str	r5, [r3]	@ float
 2521              		.loc 1 2560 0
 2522 0022 3268     		ldr	r2, [r6]
 2523              		.loc 1 2558 0
 2524 0024 0023     		movs	r3, #0
 2525 0026 0B60     		str	r3, [r1]
 2526              		.loc 1 2560 0
 2527 0028 9378     		ldrb	r3, [r2, #2]	@ zero_extendqisi2
 2528              		.loc 1 2554 0
 2529 002a 89B0     		sub	sp, sp, #36
 2530              		.cfi_def_cfa_offset 56
 2531              		.loc 1 2560 0
 2532 002c 23BB     		cbnz	r3, .L214
 2533              		.loc 1 2560 0 is_stmt 0 discriminator 1
 2534 002e 294B     		ldr	r3, .L229+24
 2535 0030 1B78     		ldrb	r3, [r3]	@ zero_extendqisi2
 2536 0032 0BB3     		cbz	r3, .L214
 2537              		.loc 1 2561 0 is_stmt 1
 2538 0034 2368     		ldr	r3, [r4]
 2539 0036 1844     		add	r0, r0, r3
 2540              	.LVL196:
 2541 0038 2060     		str	r0, [r4]
 2542              		.loc 1 2562 0
 2543 003a 2368     		ldr	r3, [r4]
 2544 003c 062B     		cmp	r3, #6
 2545 003e 0BDD     		ble	.L227
 2546              	.L216:
 2547              		.loc 1 2563 0
 2548 0040 2368     		ldr	r3, [r4]
 2549 0042 063B     		subs	r3, r3, #6
 2550 0044 2360     		str	r3, [r4]
 2551              		.loc 1 2562 0
 2552 0046 2368     		ldr	r3, [r4]
 2553 0048 062B     		cmp	r3, #6
 2554 004a F9DC     		bgt	.L216
 2555              		.loc 1 2565 0
 2556 004c 2368     		ldr	r3, [r4]
 2557 004e 002B     		cmp	r3, #0
 2558 0050 05DC     		bgt	.L228
 2559              	.L218:
 2560              		.loc 1 2566 0
 2561 0052 2368     		ldr	r3, [r4]
 2562 0054 0633     		adds	r3, r3, #6
 2563 0056 2360     		str	r3, [r4]
 2564              	.L227:
 2565              		.loc 1 2565 0
ARM GAS  /tmp/cchSvKkm.s 			page 46


 2566 0058 2368     		ldr	r3, [r4]
 2567 005a 002B     		cmp	r3, #0
 2568 005c F9DD     		ble	.L218
 2569              	.L228:
 2570              		.loc 1 2569 0
 2571 005e FFF7FEFF 		bl	update_rpm_tacho
 2572              	.LVL197:
 2573              		.loc 1 2571 0
 2574 0062 1D4B     		ldr	r3, .L229+28
 2575 0064 1B78     		ldrb	r3, [r3]	@ zero_extendqisi2
 2576 0066 022B     		cmp	r3, #2
 2577 0068 03D0     		beq	.L219
 2578              		.loc 1 2572 0
 2579 006a FFF7FEFF 		bl	update_sensor_mode
 2580              	.LVL198:
 2581              		.loc 1 2592 0
 2582 006e 09B0     		add	sp, sp, #36
 2583              		.cfi_remember_state
 2584              		.cfi_def_cfa_offset 20
 2585              		@ sp needed
 2586 0070 F0BD     		pop	{r4, r5, r6, r7, pc}
 2587              	.L219:
 2588              		.cfi_restore_state
 2589              		.loc 1 2576 0
 2590 0072 2068     		ldr	r0, [r4]
 2591 0074 FFF7FEFF 		bl	set_next_comm_step
 2592              	.LVL199:
 2593              	.L214:
 2594              		.loc 1 2579 0
 2595 0078 2021     		movs	r1, #32
 2596 007a 1848     		ldr	r0, .L229+32
 2597              		.loc 1 2585 0
 2598 007c 184D     		ldr	r5, .L229+36
 2599              		.loc 1 2579 0
 2600 007e FFF7FEFF 		bl	TIM_GenerateEvent
 2601              	.LVL200:
 2602              		.loc 1 2580 0
 2603 0082 184B     		ldr	r3, .L229+40
 2604 0084 0122     		movs	r2, #1
 2605 0086 1A60     		str	r2, [r3]
 2606              		.loc 1 2584 0
 2607 0088 FFF7FEFF 		bl	utils_sys_lock_cnt
 2608              	.LVL201:
 2609              		.loc 1 2585 0
 2610 008c 0FCD     		ldmia	r5!, {r0, r1, r2, r3}
 2611 008e 01AC     		add	r4, sp, #4
 2612 0090 0FC4     		stmia	r4!, {r0, r1, r2, r3}
 2613 0092 95E80700 		ldm	r5, {r0, r1, r2}
 2614 0096 84E80700 		stm	r4, {r0, r1, r2}
 2615              		.loc 1 2586 0
 2616 009a FFF7FEFF 		bl	utils_sys_unlock_cnt
 2617              	.LVL202:
 2618              		.loc 1 2588 0
 2619 009e 01A8     		add	r0, sp, #4
 2620 00a0 FFF7FEFF 		bl	update_adc_sample_pos
 2621              	.LVL203:
 2622              		.loc 1 2589 0
ARM GAS  /tmp/cchSvKkm.s 			page 47


 2623 00a4 01A8     		add	r0, sp, #4
 2624 00a6 FFF7FEFF 		bl	set_next_timer_settings
 2625              	.LVL204:
 2626              		.loc 1 2590 0
 2627 00aa FFF7FEFF 		bl	update_sensor_mode
 2628              	.LVL205:
 2629              		.loc 1 2591 0
 2630 00ae 0E4B     		ldr	r3, .L229+44
 2631 00b0 3268     		ldr	r2, [r6]
 2632 00b2 1B78     		ldrb	r3, [r3]	@ zero_extendqisi2
 2633 00b4 DBB2     		uxtb	r3, r3
 2634 00b6 5370     		strb	r3, [r2, #1]
 2635              		.loc 1 2592 0
 2636 00b8 09B0     		add	sp, sp, #36
 2637              		.cfi_def_cfa_offset 20
 2638              		@ sp needed
 2639 00ba F0BD     		pop	{r4, r5, r6, r7, pc}
 2640              	.L230:
 2641              		.align	2
 2642              	.L229:
 2643 00bc 00000000 		.word	.LANCHOR25
 2644 00c0 00000000 		.word	.LANCHOR26
 2645 00c4 00000000 		.word	.LANCHOR3
 2646 00c8 00000000 		.word	.LANCHOR18
 2647 00cc 00000000 		.word	.LANCHOR0
 2648 00d0 00000000 		.word	.LANCHOR27
 2649 00d4 00000000 		.word	.LANCHOR17
 2650 00d8 00000000 		.word	.LANCHOR2
 2651 00dc 00000140 		.word	1073807360
 2652 00e0 00000000 		.word	.LANCHOR5
 2653 00e4 00000000 		.word	.LANCHOR28
 2654 00e8 00000000 		.word	.LANCHOR29
 2655              		.cfi_endproc
 2656              	.LFE319:
 2657              		.size	commutate, .-commutate
 2658              		.section	.text.mcpwm_deinit,"ax",%progbits
 2659              		.align	1
 2660              		.p2align 4,,15
 2661              		.global	mcpwm_deinit
 2662              		.syntax unified
 2663              		.thumb
 2664              		.thumb_func
 2665              		.fpu fpv4-sp-d16
 2666              		.type	mcpwm_deinit, %function
 2667              	mcpwm_deinit:
 2668              	.LFB260:
 2669              		.loc 1 460 0
 2670              		.cfi_startproc
 2671              		@ args = 0, pretend = 0, frame = 0
 2672              		@ frame_needed = 0, uses_anonymous_args = 0
 2673 0000 38B5     		push	{r3, r4, r5, lr}
 2674              		.cfi_def_cfa_offset 16
 2675              		.cfi_offset 3, -16
 2676              		.cfi_offset 4, -12
 2677              		.cfi_offset 5, -8
 2678              		.cfi_offset 14, -4
 2679              		.loc 1 461 0
ARM GAS  /tmp/cchSvKkm.s 			page 48


 2680 0002 144B     		ldr	r3, .L236
 2681 0004 1A78     		ldrb	r2, [r3]	@ zero_extendqisi2
 2682 0006 1AB3     		cbz	r2, .L231
 2683              		.loc 1 467 0
 2684 0008 134C     		ldr	r4, .L236+4
 2685              		.loc 1 468 0
 2686 000a 144D     		ldr	r5, .L236+8
 2687              		.loc 1 467 0
 2688 000c 0122     		movs	r2, #1
 2689              		.loc 1 465 0
 2690 000e 0021     		movs	r1, #0
 2691 0010 1970     		strb	r1, [r3]
 2692              		.loc 1 467 0
 2693 0012 2270     		strb	r2, [r4]
 2694              		.loc 1 468 0
 2695 0014 2A70     		strb	r2, [r5]
 2696              		.loc 1 470 0
 2697 0016 01E0     		b	.L233
 2698              	.L234:
 2699              		.loc 1 471 0
 2700 0018 FFF7FEFF 		bl	chThdSleep
 2701              	.LVL206:
 2702              	.L233:
 2703              		.loc 1 470 0
 2704 001c 2378     		ldrb	r3, [r4]	@ zero_extendqisi2
 2705              		.loc 1 471 0
 2706 001e 0A20     		movs	r0, #10
 2707              		.loc 1 470 0
 2708 0020 002B     		cmp	r3, #0
 2709 0022 F9D1     		bne	.L234
 2710              		.loc 1 470 0 is_stmt 0 discriminator 1
 2711 0024 2B78     		ldrb	r3, [r5]	@ zero_extendqisi2
 2712 0026 002B     		cmp	r3, #0
 2713 0028 F6D1     		bne	.L234
 2714              		.loc 1 474 0 is_stmt 1
 2715 002a 0D48     		ldr	r0, .L236+12
 2716 002c FFF7FEFF 		bl	TIM_DeInit
 2717              	.LVL207:
 2718              		.loc 1 475 0
 2719 0030 0C48     		ldr	r0, .L236+16
 2720 0032 FFF7FEFF 		bl	TIM_DeInit
 2721              	.LVL208:
 2722              		.loc 1 476 0
 2723 0036 FFF7FEFF 		bl	ADC_DeInit
 2724              	.LVL209:
 2725              		.loc 1 477 0
 2726 003a 0B48     		ldr	r0, .L236+20
 2727 003c FFF7FEFF 		bl	DMA_DeInit
 2728              	.LVL210:
 2729              		.loc 1 478 0
 2730 0040 1220     		movs	r0, #18
 2731 0042 FFF7FEFF 		bl	nvicDisableVector
 2732              	.LVL211:
 2733              		.loc 1 479 0
 2734 0046 0948     		ldr	r0, .L236+24
 2735              		.loc 1 480 0
 2736 0048 BDE83840 		pop	{r3, r4, r5, lr}
ARM GAS  /tmp/cchSvKkm.s 			page 49


 2737              		.cfi_remember_state
 2738              		.cfi_restore 14
 2739              		.cfi_restore 5
 2740              		.cfi_restore 4
 2741              		.cfi_restore 3
 2742              		.cfi_def_cfa_offset 0
 2743              		.loc 1 479 0
 2744 004c FFF7FEBF 		b	dmaStreamRelease
 2745              	.LVL212:
 2746              	.L231:
 2747              		.cfi_restore_state
 2748              		.loc 1 480 0
 2749 0050 38BD     		pop	{r3, r4, r5, pc}
 2750              	.L237:
 2751 0052 00BF     		.align	2
 2752              	.L236:
 2753 0054 00000000 		.word	.LANCHOR30
 2754 0058 00000000 		.word	.LANCHOR13
 2755 005c 00000000 		.word	.LANCHOR31
 2756 0060 00000140 		.word	1073807360
 2757 0064 00040140 		.word	1073808384
 2758 0068 70640240 		.word	1073898608
 2759 006c 90000000 		.word	_stm32_dma_streams+144
 2760              		.cfi_endproc
 2761              	.LFE260:
 2762              		.size	mcpwm_deinit, .-mcpwm_deinit
 2763              		.section	.text.mcpwm_init_done,"ax",%progbits
 2764              		.align	1
 2765              		.p2align 4,,15
 2766              		.global	mcpwm_init_done
 2767              		.syntax unified
 2768              		.thumb
 2769              		.thumb_func
 2770              		.fpu fpv4-sp-d16
 2771              		.type	mcpwm_init_done, %function
 2772              	mcpwm_init_done:
 2773              	.LFB261:
 2774              		.loc 1 482 0
 2775              		.cfi_startproc
 2776              		@ args = 0, pretend = 0, frame = 0
 2777              		@ frame_needed = 0, uses_anonymous_args = 0
 2778              		@ link register save eliminated.
 2779              		.loc 1 483 0
 2780 0000 014B     		ldr	r3, .L239
 2781 0002 1878     		ldrb	r0, [r3]	@ zero_extendqisi2
 2782              		.loc 1 484 0
 2783 0004 7047     		bx	lr
 2784              	.L240:
 2785 0006 00BF     		.align	2
 2786              	.L239:
 2787 0008 00000000 		.word	.LANCHOR30
 2788              		.cfi_endproc
 2789              	.LFE261:
 2790              		.size	mcpwm_init_done, .-mcpwm_init_done
 2791              		.section	.text.mcpwm_init_hall_table,"ax",%progbits
 2792              		.align	1
 2793              		.p2align 4,,15
ARM GAS  /tmp/cchSvKkm.s 			page 50


 2794              		.global	mcpwm_init_hall_table
 2795              		.syntax unified
 2796              		.thumb
 2797              		.thumb_func
 2798              		.fpu fpv4-sp-d16
 2799              		.type	mcpwm_init_hall_table, %function
 2800              	mcpwm_init_hall_table:
 2801              	.LFB263:
 2802              		.loc 1 505 0
 2803              		.cfi_startproc
 2804              		@ args = 0, pretend = 0, frame = 32
 2805              		@ frame_needed = 0, uses_anonymous_args = 0
 2806              		@ link register save eliminated.
 2807              	.LVL213:
 2808 0000 F0B4     		push	{r4, r5, r6, r7}
 2809              		.cfi_def_cfa_offset 16
 2810              		.cfi_offset 4, -16
 2811              		.cfi_offset 5, -12
 2812              		.cfi_offset 6, -8
 2813              		.cfi_offset 7, -4
 2814              		.loc 1 506 0
 2815 0002 0F4F     		ldr	r7, .L248
 2816 0004 0F4C     		ldr	r4, .L248+4
 2817              		.loc 1 505 0
 2818 0006 0546     		mov	r5, r0
 2819              		.loc 1 506 0
 2820 0008 0FCF     		ldmia	r7!, {r0, r1, r2, r3}
 2821              	.LVL214:
 2822              		.loc 1 505 0
 2823 000a 88B0     		sub	sp, sp, #32
 2824              		.cfi_def_cfa_offset 48
 2825              		.loc 1 506 0
 2826 000c 01AE     		add	r6, sp, #4
 2827 000e 0FC6     		stmia	r6!, {r0, r1, r2, r3}
 2828 0010 97E80700 		ldm	r7, {r0, r1, r2}
 2829 0014 86E80700 		stm	r6, {r0, r1, r2}
 2830              	.LVL215:
 2831 0018 6A1E     		subs	r2, r5, #1
 2832 001a E81D     		adds	r0, r5, #7
 2833              	.LVL216:
 2834              	.L244:
 2835              	.LBB105:
 2836              	.LBB106:
 2837              		.loc 1 509 0
 2838 001c 12F9013F 		ldrsb	r3, [r2, #1]!
 2839              	.LVL217:
 2840 0020 44F8043B 		str	r3, [r4], #4
 2841              	.LVL218:
 2842              		.loc 1 517 0
 2843 0024 08A9     		add	r1, sp, #32
 2844 0026 01EB8301 		add	r1, r1, r3, lsl #2
 2845              		.loc 1 512 0
 2846 002a 002B     		cmp	r3, #0
 2847              		.loc 1 517 0
 2848 002c C8BF     		it	gt
 2849 002e 51F81C3C 		ldrgt	r3, [r1, #-28]
 2850              	.LVL219:
ARM GAS  /tmp/cchSvKkm.s 			page 51


 2851 0032 44F8243C 		str	r3, [r4, #-36]
 2852              	.LVL220:
 2853              	.LBE106:
 2854              		.loc 1 508 0
 2855 0036 8242     		cmp	r2, r0
 2856 0038 F0D1     		bne	.L244
 2857              	.LBE105:
 2858              		.loc 1 519 0
 2859 003a 08B0     		add	sp, sp, #32
 2860              		.cfi_def_cfa_offset 16
 2861              		@ sp needed
 2862 003c F0BC     		pop	{r4, r5, r6, r7}
 2863              		.cfi_restore 7
 2864              		.cfi_restore 6
 2865              		.cfi_restore 5
 2866              		.cfi_restore 4
 2867              		.cfi_def_cfa_offset 0
 2868              	.LVL221:
 2869 003e 7047     		bx	lr
 2870              	.L249:
 2871              		.align	2
 2872              	.L248:
 2873 0040 00000000 		.word	.LANCHOR32
 2874 0044 20000000 		.word	.LANCHOR33+32
 2875              		.cfi_endproc
 2876              	.LFE263:
 2877              		.size	mcpwm_init_hall_table, .-mcpwm_init_hall_table
 2878              		.section	.text.mcpwm_init,"ax",%progbits
 2879              		.align	1
 2880              		.p2align 4,,15
 2881              		.global	mcpwm_init
 2882              		.syntax unified
 2883              		.thumb
 2884              		.thumb_func
 2885              		.fpu fpv4-sp-d16
 2886              		.type	mcpwm_init, %function
 2887              	mcpwm_init:
 2888              	.LFB259:
 2889              		.loc 1 170 0
 2890              		.cfi_startproc
 2891              		@ args = 0, pretend = 0, frame = 176
 2892              		@ frame_needed = 0, uses_anonymous_args = 0
 2893              	.LVL222:
 2894 0000 2DE9F04F 		push	{r4, r5, r6, r7, r8, r9, r10, fp, lr}
 2895              		.cfi_def_cfa_offset 36
 2896              		.cfi_offset 4, -36
 2897              		.cfi_offset 5, -32
 2898              		.cfi_offset 6, -28
 2899              		.cfi_offset 7, -24
 2900              		.cfi_offset 8, -20
 2901              		.cfi_offset 9, -16
 2902              		.cfi_offset 10, -12
 2903              		.cfi_offset 11, -8
 2904              		.cfi_offset 14, -4
 2905 0004 2DED028B 		vpush.64	{d8}
 2906              		.cfi_def_cfa_offset 44
 2907              		.cfi_offset 80, -44
ARM GAS  /tmp/cchSvKkm.s 			page 52


 2908              		.cfi_offset 81, -40
 2909              		.loc 1 179 0
 2910 0008 CE4C     		ldr	r4, .L262
 2911              		.loc 1 173 0
 2912 000a DFF8E4B3 		ldr	fp, .L262+172
 2913              		.loc 1 185 0
 2914 000e 9FEDCE8A 		vldr.32	s16, .L262+4
 2915              		.loc 1 183 0
 2916 0012 DFF8E0A3 		ldr	r10, .L262+176
 2917              		.loc 1 198 0
 2918 0016 DFF8E093 		ldr	r9, .L262+180
 2919              		.loc 1 229 0
 2920 001a CC4E     		ldr	r6, .L262+8
 2921              		.loc 1 230 0
 2922 001c CC4F     		ldr	r7, .L262+12
 2923              		.loc 1 170 0
 2924 001e AFB0     		sub	sp, sp, #188
 2925              		.cfi_def_cfa_offset 232
 2926              		.loc 1 170 0
 2927 0020 8046     		mov	r8, r0
 2928              		.loc 1 171 0
 2929 0022 FFF7FEFF 		bl	utils_sys_lock_cnt
 2930              	.LVL223:
 2931              		.loc 1 182 0
 2932 0026 CB4B     		ldr	r3, .L262+16
 2933              		.loc 1 179 0
 2934 0028 C4F80080 		str	r8, [r4]
 2935              		.loc 1 182 0
 2936 002c 0125     		movs	r5, #1
 2937              		.loc 1 173 0
 2938 002e 0024     		movs	r4, #0
 2939 0030 8BF80040 		strb	r4, [fp]
 2940              		.loc 1 184 0
 2941 0034 DFF8C4E3 		ldr	lr, .L262+184
 2942              		.loc 1 182 0
 2943 0038 1D60     		str	r5, [r3]
 2944              		.loc 1 185 0
 2945 003a DFF8C4C3 		ldr	ip, .L262+188
 2946              		.loc 1 186 0
 2947 003e C648     		ldr	r0, .L262+20
 2948              		.loc 1 187 0
 2949 0040 C649     		ldr	r1, .L262+24
 2950              		.loc 1 188 0
 2951 0042 C74A     		ldr	r2, .L262+28
 2952              		.loc 1 189 0
 2953 0044 C74B     		ldr	r3, .L262+32
 2954              		.loc 1 183 0
 2955 0046 CAF80040 		str	r4, [r10]
 2956              		.loc 1 184 0
 2957 004a CEF80050 		str	r5, [lr]
 2958              		.loc 1 185 0
 2959 004e 8CED008A 		vstr.32	s16, [ip]
 2960              		.loc 1 190 0
 2961 0052 DFF8B0E3 		ldr	lr, .L262+192
 2962              		.loc 1 186 0
 2963 0056 80ED008A 		vstr.32	s16, [r0]
 2964              		.loc 1 187 0
ARM GAS  /tmp/cchSvKkm.s 			page 53


 2965 005a 81ED008A 		vstr.32	s16, [r1]
 2966              		.loc 1 188 0
 2967 005e 82ED008A 		vstr.32	s16, [r2]
 2968              		.loc 1 189 0
 2969 0062 83ED008A 		vstr.32	s16, [r3]
 2970              		.loc 1 191 0
 2971 0066 C04B     		ldr	r3, .L262+36
 2972              		.loc 1 190 0
 2973 0068 8EED008A 		vstr.32	s16, [lr]
 2974              		.loc 1 193 0
 2975 006c DFF898C3 		ldr	ip, .L262+196
 2976              		.loc 1 191 0
 2977 0070 1C60     		str	r4, [r3]
 2978              		.loc 1 194 0
 2979 0072 BE48     		ldr	r0, .L262+40
 2980              		.loc 1 195 0
 2981 0074 BE49     		ldr	r1, .L262+44
 2982              		.loc 1 196 0
 2983 0076 BF4A     		ldr	r2, .L262+48
 2984              		.loc 1 197 0
 2985 0078 DFF890A3 		ldr	r10, .L262+200
 2986              		.loc 1 192 0
 2987 007c BE4B     		ldr	r3, .L262+52
 2988              		.loc 1 195 0
 2989 007e 4FF00A0E 		mov	lr, #10
 2990              		.loc 1 192 0
 2991 0082 1C60     		str	r4, [r3]
 2992              		.loc 1 193 0
 2993 0084 CCF80040 		str	r4, [ip]
 2994              		.loc 1 194 0
 2995 0088 0470     		strb	r4, [r0]
 2996              		.loc 1 202 0
 2997 008a DFF884C3 		ldr	ip, .L262+204
 2998              		.loc 1 195 0
 2999 008e 81F800E0 		strb	lr, [r1]
 3000              		.loc 1 200 0
 3001 0092 BA48     		ldr	r0, .L262+56
 3002              		.loc 1 196 0
 3003 0094 82ED008A 		vstr.32	s16, [r2]
 3004              		.loc 1 201 0
 3005 0098 DFF878E3 		ldr	lr, .L262+208
 3006              		.loc 1 197 0
 3007 009c 8AED008A 		vstr.32	s16, [r10]
 3008              		.loc 1 199 0
 3009 00a0 B74A     		ldr	r2, .L262+60
 3010              		.loc 1 198 0
 3011 00a2 D8F8A411 		ldr	r1, [r8, #420]	@ float
 3012              		.loc 1 203 0
 3013 00a6 B74B     		ldr	r3, .L262+64
 3014              		.loc 1 198 0
 3015 00a8 C9F80010 		str	r1, [r9]	@ float
 3016              		.loc 1 207 0
 3017 00ac DFF868A3 		ldr	r10, .L262+212
 3018              		.loc 1 199 0
 3019 00b0 1460     		str	r4, [r2]
 3020              		.loc 1 204 0
 3021 00b2 B549     		ldr	r1, .L262+68
ARM GAS  /tmp/cchSvKkm.s 			page 54


 3022              		.loc 1 200 0
 3023 00b4 0460     		str	r4, [r0]
 3024              		.loc 1 205 0
 3025 00b6 B54A     		ldr	r2, .L262+72
 3026              		.loc 1 201 0
 3027 00b8 CEF80040 		str	r4, [lr]
 3028              		.loc 1 206 0
 3029 00bc B448     		ldr	r0, .L262+76
 3030              		.loc 1 202 0
 3031 00be CCF80040 		str	r4, [ip]
 3032              		.loc 1 208 0
 3033 00c2 DFF858E3 		ldr	lr, .L262+216
 3034              		.loc 1 209 0
 3035 00c6 DFF858C3 		ldr	ip, .L262+220
 3036              		.loc 1 203 0
 3037 00ca 1C60     		str	r4, [r3]
 3038 00cc 5C60     		str	r4, [r3, #4]
 3039 00ce 9C60     		str	r4, [r3, #8]
 3040 00d0 DC60     		str	r4, [r3, #12]
 3041 00d2 1C61     		str	r4, [r3, #16]
 3042 00d4 5C61     		str	r4, [r3, #20]
 3043 00d6 9C61     		str	r4, [r3, #24]
 3044              		.loc 1 210 0
 3045 00d8 AE4B     		ldr	r3, .L262+80
 3046              		.loc 1 204 0
 3047 00da 81ED008A 		vstr.32	s16, [r1]
 3048              		.loc 1 205 0
 3049 00de 82ED008A 		vstr.32	s16, [r2]
 3050              		.loc 1 211 0
 3051 00e2 2146     		mov	r1, r4
 3052              		.loc 1 206 0
 3053 00e4 80ED008A 		vstr.32	s16, [r0]
 3054              		.loc 1 211 0
 3055 00e8 E022     		movs	r2, #224
 3056              		.loc 1 207 0
 3057 00ea CAF80040 		str	r4, [r10]
 3058              		.loc 1 211 0
 3059 00ee AA48     		ldr	r0, .L262+84
 3060              		.loc 1 208 0
 3061 00f0 8EED008A 		vstr.32	s16, [lr]
 3062              		.loc 1 209 0
 3063 00f4 CCF80040 		str	r4, [ip]
 3064 00f8 CCF80440 		str	r4, [ip, #4]
 3065 00fc CCF80840 		str	r4, [ip, #8]
 3066 0100 CCF80C40 		str	r4, [ip, #12]
 3067 0104 CCF81040 		str	r4, [ip, #16]
 3068 0108 CCF81440 		str	r4, [ip, #20]
 3069              		.loc 1 210 0
 3070 010c 1C70     		strb	r4, [r3]
 3071              		.loc 1 211 0
 3072 010e FFF7FEFF 		bl	memset
 3073              	.LVL224:
 3074              		.loc 1 212 0
 3075 0112 FFF7FEFF 		bl	update_sensor_mode
 3076              	.LVL225:
 3077              		.loc 1 213 0
 3078 0116 98F80130 		ldrb	r3, [r8, #1]	@ zero_extendqisi2
ARM GAS  /tmp/cchSvKkm.s 			page 55


 3079 011a DFF808E3 		ldr	lr, .L262+224
 3080              		.loc 1 214 0
 3081 011e DFF808C3 		ldr	ip, .L262+228
 3082              		.loc 1 215 0
 3083 0122 9E49     		ldr	r1, .L262+88
 3084              		.loc 1 216 0
 3085 0124 9E4A     		ldr	r2, .L262+92
 3086              		.loc 1 213 0
 3087 0126 DBB2     		uxtb	r3, r3
 3088              		.loc 1 218 0
 3089 0128 08F1A000 		add	r0, r8, #160
 3090              		.loc 1 213 0
 3091 012c 8EF80030 		strb	r3, [lr]
 3092              		.loc 1 214 0
 3093 0130 8CED008A 		vstr.32	s16, [ip]
 3094              		.loc 1 215 0
 3095 0134 81ED008A 		vstr.32	s16, [r1]
 3096              		.loc 1 216 0
 3097 0138 1460     		str	r4, [r2]
 3098              		.loc 1 218 0
 3099 013a FFF7FEFF 		bl	mcpwm_init_hall_table
 3100              	.LVL226:
 3101              		.loc 1 221 0
 3102 013e 2A46     		mov	r2, r5
 3103 0140 0721     		movs	r1, #7
 3104 0142 9FED980A 		vldr.32	s0, .L262+96
 3105 0146 9848     		ldr	r0, .L262+100
 3106 0148 FFF7FEFF 		bl	filter_create_fir_lowpass
 3107              	.LVL227:
 3108              		.loc 1 224 0
 3109 014c 2A46     		mov	r2, r5
 3110 014e 0721     		movs	r1, #7
 3111 0150 9FED940A 		vldr.32	s0, .L262+96
 3112 0154 9548     		ldr	r0, .L262+104
 3113 0156 FFF7FEFF 		bl	filter_create_fir_lowpass
 3114              	.LVL228:
 3115              		.loc 1 227 0
 3116 015a 9FED950A 		vldr.32	s0, .L262+108
 3117 015e 9548     		ldr	r0, .L262+112
 3118 0160 2A46     		mov	r2, r5
 3119 0162 0421     		movs	r1, #4
 3120 0164 FFF7FEFF 		bl	filter_create_fir_lowpass
 3121              	.LVL229:
 3122              		.loc 1 229 0
 3123 0168 3046     		mov	r0, r6
 3124 016a FFF7FEFF 		bl	TIM_DeInit
 3125              	.LVL230:
 3126              		.loc 1 230 0
 3127 016e 3846     		mov	r0, r7
 3128 0170 FFF7FEFF 		bl	TIM_DeInit
 3129              	.LVL231:
 3130              		.loc 1 231 0
 3131 0174 7462     		str	r4, [r6, #36]
 3132              		.loc 1 235 0
 3133 0176 2946     		mov	r1, r5
 3134 0178 2846     		mov	r0, r5
 3135              		.loc 1 232 0
ARM GAS  /tmp/cchSvKkm.s 			page 56


 3136 017a 7C62     		str	r4, [r7, #36]
 3137              		.loc 1 235 0
 3138 017c FFF7FEFF 		bl	RCC_APB2PeriphClockCmd
 3139              	.LVL232:
 3140              		.loc 1 240 0
 3141 0180 D9ED007A 		vldr.32	s15, [r9]
 3142 0184 8C4A     		ldr	r2, .L262+116
 3143              		.loc 1 238 0
 3144 0186 0294     		str	r4, [sp, #8]
 3145              		.loc 1 240 0
 3146 0188 FDEEE77A 		vcvt.s32.f32	s15, s15
 3147              		.loc 1 244 0
 3148 018c 3046     		mov	r0, r6
 3149              		.loc 1 240 0
 3150 018e 17EE903A 		vmov	r3, s15	@ int
 3151              		.loc 1 244 0
 3152 0192 02A9     		add	r1, sp, #8
 3153              		.loc 1 240 0
 3154 0194 92FBF3F3 		sdiv	r3, r2, r3
 3155              		.loc 1 241 0
 3156 0198 ADF81040 		strh	r4, [sp, #16]	@ movhi
 3157              		.loc 1 242 0
 3158 019c 8DF81240 		strb	r4, [sp, #18]
 3159              		.loc 1 240 0
 3160 01a0 0393     		str	r3, [sp, #12]
 3161              		.loc 1 244 0
 3162 01a2 FFF7FEFF 		bl	TIM_TimeBaseInit
 3163              	.LVL233:
 3164              		.loc 1 250 0
 3165 01a6 F36A     		ldr	r3, [r6, #44]
 3166              		.loc 1 247 0
 3167 01a8 844A     		ldr	r2, .L262+120
 3168 01aa 0D92     		str	r2, [sp, #52]
 3169              		.loc 1 250 0
 3170 01ac EB40     		lsrs	r3, r3, r5
 3171              		.loc 1 251 0
 3172 01ae CDE90F34 		strd	r3, r4, [sp, #60]
 3173              		.loc 1 256 0
 3174 01b2 3046     		mov	r0, r6
 3175              		.loc 1 252 0
 3176 01b4 824B     		ldr	r3, .L262+124
 3177 01b6 1193     		str	r3, [sp, #68]
 3178              		.loc 1 256 0
 3179 01b8 0DA9     		add	r1, sp, #52
 3180              		.loc 1 248 0
 3181 01ba 4FF00408 		mov	r8, #4
 3182              	.LVL234:
 3183 01be ADF83880 		strh	r8, [sp, #56]	@ movhi
 3184              		.loc 1 256 0
 3185 01c2 FFF7FEFF 		bl	TIM_OC1Init
 3186              	.LVL235:
 3187              		.loc 1 257 0
 3188 01c6 0DA9     		add	r1, sp, #52
 3189 01c8 3046     		mov	r0, r6
 3190 01ca FFF7FEFF 		bl	TIM_OC2Init
 3191              	.LVL236:
 3192              		.loc 1 258 0
ARM GAS  /tmp/cchSvKkm.s 			page 57


 3193 01ce 0DA9     		add	r1, sp, #52
 3194 01d0 3046     		mov	r0, r6
 3195 01d2 FFF7FEFF 		bl	TIM_OC3Init
 3196              	.LVL237:
 3197              		.loc 1 259 0
 3198 01d6 0DA9     		add	r1, sp, #52
 3199 01d8 3046     		mov	r0, r6
 3200 01da FFF7FEFF 		bl	TIM_OC4Init
 3201              	.LVL238:
 3202              		.loc 1 261 0
 3203 01de 3046     		mov	r0, r6
 3204 01e0 0821     		movs	r1, #8
 3205 01e2 FFF7FEFF 		bl	TIM_OC1PreloadConfig
 3206              	.LVL239:
 3207              		.loc 1 262 0
 3208 01e6 3046     		mov	r0, r6
 3209 01e8 0821     		movs	r1, #8
 3210 01ea FFF7FEFF 		bl	TIM_OC2PreloadConfig
 3211              	.LVL240:
 3212              		.loc 1 263 0
 3213 01ee 3046     		mov	r0, r6
 3214 01f0 0821     		movs	r1, #8
 3215 01f2 FFF7FEFF 		bl	TIM_OC3PreloadConfig
 3216              	.LVL241:
 3217              		.loc 1 264 0
 3218 01f6 0821     		movs	r1, #8
 3219 01f8 3046     		mov	r0, r6
 3220 01fa FFF7FEFF 		bl	TIM_OC4PreloadConfig
 3221              	.LVL242:
 3222              		.loc 1 270 0
 3223 01fe DFED710A 		vldr.32	s1, .L262+128
 3224 0202 9FED710A 		vldr.32	s0, .L262+132
 3225              		.loc 1 267 0
 3226 0206 714B     		ldr	r3, .L262+136
 3227 0208 0593     		str	r3, [sp, #20]
 3228              		.loc 1 268 0
 3229 020a ADF81840 		strh	r4, [sp, #24]	@ movhi
 3230              		.loc 1 270 0
 3231 020e FFF7FEFF 		bl	conf_general_calculate_deadtime
 3232              	.LVL243:
 3233              		.loc 1 271 0
 3234 0212 4FF00059 		mov	r9, #536870912
 3235              		.loc 1 270 0
 3236 0216 ADF81A00 		strh	r0, [sp, #26]	@ movhi
 3237              		.loc 1 275 0
 3238 021a 05A9     		add	r1, sp, #20
 3239 021c 3046     		mov	r0, r6
 3240              		.loc 1 272 0
 3241 021e ADF82040 		strh	r4, [sp, #32]	@ movhi
 3242              		.loc 1 271 0
 3243 0222 CDF81C90 		str	r9, [sp, #28]
 3244              		.loc 1 275 0
 3245 0226 FFF7FEFF 		bl	TIM_BDTRConfig
 3246              	.LVL244:
 3247              		.loc 1 276 0
 3248 022a 2946     		mov	r1, r5
 3249 022c 3046     		mov	r0, r6
ARM GAS  /tmp/cchSvKkm.s 			page 58


 3250 022e FFF7FEFF 		bl	TIM_CCPreloadControl
 3251              	.LVL245:
 3252              		.loc 1 277 0
 3253 0232 2946     		mov	r1, r5
 3254 0234 3046     		mov	r0, r6
 3255 0236 FFF7FEFF 		bl	TIM_ARRPreloadConfig
 3256              	.LVL246:
 3257              		.loc 1 287 0
 3258 023a 2946     		mov	r1, r5
 3259 023c 6448     		ldr	r0, .L262+140
 3260 023e FFF7FEFF 		bl	RCC_AHB1PeriphClockCmd
 3261              	.LVL247:
 3262              		.loc 1 288 0
 3263 0242 2946     		mov	r1, r5
 3264 0244 4FF4E060 		mov	r0, #1792
 3265 0248 FFF7FEFF 		bl	RCC_APB2PeriphClockCmd
 3266              	.LVL248:
 3267              		.loc 1 290 0
 3268 024c 2346     		mov	r3, r4
 3269 024e 614A     		ldr	r2, .L262+144
 3270 0250 6148     		ldr	r0, .L262+148
 3271 0252 0321     		movs	r1, #3
 3272 0254 FFF7FEFF 		bl	dmaStreamAllocate
 3273              	.LVL249:
 3274              		.loc 1 297 0
 3275 0258 6049     		ldr	r1, .L262+152
 3276              		.loc 1 298 0
 3277 025a DFF8D0C1 		ldr	ip, .L262+232
 3278              		.loc 1 297 0
 3279 025e 2191     		str	r1, [sp, #132]
 3280              		.loc 1 300 0
 3281 0260 0F22     		movs	r2, #15
 3282              		.loc 1 302 0
 3283 0262 4FF48063 		mov	r3, #1024
 3284              		.loc 1 303 0
 3285 0266 4FF40061 		mov	r1, #2048
 3286              		.loc 1 311 0
 3287 026a 5D48     		ldr	r0, .L262+156
 3288              		.loc 1 298 0
 3289 026c CDF880C0 		str	ip, [sp, #128]
 3290              		.loc 1 300 0
 3291 0270 2392     		str	r2, [sp, #140]
 3292              		.loc 1 304 0
 3293 0272 4FF4005C 		mov	ip, #8192
 3294              		.loc 1 305 0
 3295 0276 4FF48072 		mov	r2, #256
 3296              		.loc 1 302 0
 3297 027a 2593     		str	r3, [sp, #148]
 3298              		.loc 1 303 0
 3299 027c 2691     		str	r1, [sp, #152]
 3300              		.loc 1 306 0
 3301 027e 4FF40033 		mov	r3, #131072
 3302              		.loc 1 311 0
 3303 0282 1FA9     		add	r1, sp, #124
 3304              		.loc 1 305 0
 3305 0284 CDE927C2 		strd	ip, r2, [sp, #156]
 3306              		.loc 1 306 0
ARM GAS  /tmp/cchSvKkm.s 			page 59


 3307 0288 2993     		str	r3, [sp, #164]
 3308              		.loc 1 296 0
 3309 028a 1F94     		str	r4, [sp, #124]
 3310              		.loc 1 299 0
 3311 028c 2294     		str	r4, [sp, #136]
 3312              		.loc 1 301 0
 3313 028e 2494     		str	r4, [sp, #144]
 3314              		.loc 1 308 0
 3315 0290 CDE92A44 		strd	r4, r4, [sp, #168]
 3316              		.loc 1 310 0
 3317 0294 CDE92C44 		strd	r4, r4, [sp, #176]
 3318              		.loc 1 311 0
 3319 0298 FFF7FEFF 		bl	DMA_Init
 3320              	.LVL250:
 3321              		.loc 1 314 0
 3322 029c 2946     		mov	r1, r5
 3323 029e 5048     		ldr	r0, .L262+156
 3324 02a0 FFF7FEFF 		bl	DMA_Cmd
 3325              	.LVL251:
 3326              		.loc 1 317 0
 3327 02a4 2A46     		mov	r2, r5
 3328 02a6 1021     		movs	r1, #16
 3329 02a8 4D48     		ldr	r0, .L262+156
 3330 02aa FFF7FEFF 		bl	DMA_ITConfig
 3331              	.LVL252:
 3332              		.loc 1 322 0
 3333 02ae 1622     		movs	r2, #22
 3334              		.loc 1 324 0
 3335 02b0 4FF48043 		mov	r3, #16384
 3336              		.loc 1 326 0
 3337 02b4 09A8     		add	r0, sp, #36
 3338              		.loc 1 323 0
 3339 02b6 0A94     		str	r4, [sp, #40]
 3340              		.loc 1 325 0
 3341 02b8 0C94     		str	r4, [sp, #48]
 3342              		.loc 1 322 0
 3343 02ba 0992     		str	r2, [sp, #36]
 3344              		.loc 1 324 0
 3345 02bc 0B93     		str	r3, [sp, #44]
 3346              		.loc 1 326 0
 3347 02be FFF7FEFF 		bl	ADC_CommonInit
 3348              	.LVL253:
 3349              		.loc 1 335 0
 3350 02c2 0523     		movs	r3, #5
 3351              		.loc 1 333 0
 3352 02c4 4FF05062 		mov	r2, #218103808
 3353              		.loc 1 337 0
 3354 02c8 12A9     		add	r1, sp, #72
 3355 02ca 4648     		ldr	r0, .L262+160
 3356              		.loc 1 335 0
 3357 02cc 8DF85C30 		strb	r3, [sp, #92]
 3358              		.loc 1 333 0
 3359 02d0 CDE91524 		strd	r2, r4, [sp, #84]
 3360              		.loc 1 329 0
 3361 02d4 1294     		str	r4, [sp, #72]
 3362              		.loc 1 330 0
 3363 02d6 8DF84C50 		strb	r5, [sp, #76]
ARM GAS  /tmp/cchSvKkm.s 			page 60


 3364              		.loc 1 331 0
 3365 02da 8DF84D40 		strb	r4, [sp, #77]
 3366              		.loc 1 332 0
 3367 02de CDF85090 		str	r9, [sp, #80]
 3368              		.loc 1 337 0
 3369 02e2 FFF7FEFF 		bl	ADC_Init
 3370              	.LVL254:
 3371              		.loc 1 340 0
 3372 02e6 12A9     		add	r1, sp, #72
 3373 02e8 3F48     		ldr	r0, .L262+164
 3374              		.loc 1 339 0
 3375 02ea CDE91444 		strd	r4, r4, [sp, #80]
 3376              		.loc 1 340 0
 3377 02ee FFF7FEFF 		bl	ADC_Init
 3378              	.LVL255:
 3379              		.loc 1 341 0
 3380 02f2 12A9     		add	r1, sp, #72
 3381 02f4 3D48     		ldr	r0, .L262+168
 3382 02f6 FFF7FEFF 		bl	ADC_Init
 3383              	.LVL256:
 3384              		.loc 1 344 0
 3385 02fa 2846     		mov	r0, r5
 3386 02fc FFF7FEFF 		bl	ADC_TempSensorVrefintCmd
 3387              	.LVL257:
 3388              		.loc 1 347 0
 3389 0300 2846     		mov	r0, r5
 3390 0302 FFF7FEFF 		bl	ADC_MultiModeDMARequestAfterLastTransferCmd
 3391              	.LVL258:
 3392              		.loc 1 350 0
 3393 0306 2146     		mov	r1, r4
 3394 0308 3648     		ldr	r0, .L262+160
 3395 030a FFF7FEFF 		bl	ADC_ExternalTrigInjectedConvConfig
 3396              	.LVL259:
 3397              		.loc 1 351 0
 3398 030e 4FF44021 		mov	r1, #786432
 3399 0312 3548     		ldr	r0, .L262+164
 3400 0314 FFF7FEFF 		bl	ADC_ExternalTrigInjectedConvConfig
 3401              	.LVL260:
 3402              		.loc 1 353 0
 3403 0318 4FF45021 		mov	r1, #851968
 3404 031c 3348     		ldr	r0, .L262+168
 3405 031e FFF7FEFF 		bl	ADC_ExternalTrigInjectedConvConfig
 3406              	.LVL261:
 3407              		.loc 1 355 0
 3408 0322 4FF40011 		mov	r1, #2097152
 3409 0326 2F48     		ldr	r0, .L262+160
 3410 0328 FFF7FEFF 		bl	ADC_ExternalTrigInjectedConvEdgeConfig
 3411              	.LVL262:
 3412              		.loc 1 356 0
 3413 032c 4FF40011 		mov	r1, #2097152
 3414 0330 2D48     		ldr	r0, .L262+164
 3415 0332 FFF7FEFF 		bl	ADC_ExternalTrigInjectedConvEdgeConfig
 3416              	.LVL263:
 3417              		.loc 1 358 0
 3418 0336 4FF40011 		mov	r1, #2097152
 3419 033a 2C48     		ldr	r0, .L262+168
 3420 033c FFF7FEFF 		bl	ADC_ExternalTrigInjectedConvEdgeConfig
ARM GAS  /tmp/cchSvKkm.s 			page 61


 3421              	.LVL264:
 3422              		.loc 1 360 0
 3423 0340 0321     		movs	r1, #3
 3424 0342 75E0     		b	.L263
 3425              	.L264:
 3426              		.align	2
 3427              	.L262:
 3428 0344 00000000 		.word	.LANCHOR0
 3429 0348 00000000 		.word	0
 3430 034c 00000140 		.word	1073807360
 3431 0350 00040140 		.word	1073808384
 3432 0354 00000000 		.word	.LANCHOR3
 3433 0358 00000000 		.word	.LANCHOR35
 3434 035c 00000000 		.word	.LANCHOR19
 3435 0360 00000000 		.word	.LANCHOR36
 3436 0364 00000000 		.word	.LANCHOR37
 3437 0368 00000000 		.word	.LANCHOR12
 3438 036c 00000000 		.word	.LANCHOR2
 3439 0370 00000000 		.word	.LANCHOR39
 3440 0374 00000000 		.word	.LANCHOR40
 3441 0378 00000000 		.word	.LANCHOR11
 3442 037c 00000000 		.word	.LANCHOR1
 3443 0380 00000000 		.word	.LANCHOR42
 3444 0384 00000000 		.word	.LANCHOR8
 3445 0388 00000000 		.word	.LANCHOR44
 3446 038c 00000000 		.word	.LANCHOR45
 3447 0390 00000000 		.word	.LANCHOR25
 3448 0394 00000000 		.word	.LANCHOR46
 3449 0398 00000000 		.word	.LANCHOR47
 3450 039c 00000000 		.word	.LANCHOR24
 3451 03a0 00000000 		.word	.LANCHOR9
 3452 03a4 0AD7A33C 		.word	1017370378
 3453 03a8 00000000 		.word	.LANCHOR49
 3454 03ac 00000000 		.word	.LANCHOR15
 3455 03b0 9A99193E 		.word	1041865114
 3456 03b4 00000000 		.word	.LANCHOR50
 3457 03b8 007A030A 		.word	168000000
 3458 03bc 60000100 		.word	65632
 3459 03c0 00010002 		.word	33554688
 3460 03c4 A037204D 		.word	1293957024
 3461 03c8 0000B443 		.word	1135869952
 3462 03cc 00080004 		.word	67110912
 3463 03d0 05004000 		.word	4194309
 3464 03d4 00000000 		.word	mcpwm_adc_int_handler
 3465 03d8 90000000 		.word	_stm32_dma_streams+144
 3466 03dc 00000000 		.word	ADC_Value
 3467 03e0 70640240 		.word	1073898608
 3468 03e4 00200140 		.word	1073815552
 3469 03e8 00210140 		.word	1073815808
 3470 03ec 00220140 		.word	1073816064
 3471 03f0 00000000 		.word	.LANCHOR30
 3472 03f4 00000000 		.word	.LANCHOR34
 3473 03f8 00000000 		.word	.LANCHOR6
 3474 03fc 00000000 		.word	.LANCHOR4
 3475 0400 00000000 		.word	.LANCHOR21
 3476 0404 00000000 		.word	.LANCHOR38
 3477 0408 00000000 		.word	.LANCHOR10
ARM GAS  /tmp/cchSvKkm.s 			page 62


 3478 040c 00000000 		.word	.LANCHOR41
 3479 0410 00000000 		.word	.LANCHOR28
 3480 0414 00000000 		.word	.LANCHOR43
 3481 0418 00000000 		.word	.LANCHOR27
 3482 041c 00000000 		.word	.LANCHOR26
 3483 0420 00000000 		.word	.LANCHOR18
 3484 0424 00000000 		.word	.LANCHOR29
 3485 0428 00000000 		.word	.LANCHOR48
 3486 042c 08230140 		.word	1073816328
 3487              	.L263:
 3488 0430 7348     		ldr	r0, .L265
 3489 0432 FFF7FEFF 		bl	ADC_InjectedSequencerLengthConfig
 3490              	.LVL265:
 3491              		.loc 1 361 0
 3492 0436 0321     		movs	r1, #3
 3493 0438 7248     		ldr	r0, .L265+4
 3494 043a FFF7FEFF 		bl	ADC_InjectedSequencerLengthConfig
 3495              	.LVL266:
 3496              		.loc 1 363 0
 3497 043e 0321     		movs	r1, #3
 3498 0440 7148     		ldr	r0, .L265+8
 3499 0442 FFF7FEFF 		bl	ADC_InjectedSequencerLengthConfig
 3500              	.LVL267:
 3501              		.loc 1 366 0
 3502 0446 FFF7FEFF 		bl	hw_setup_adc_channels
 3503              	.LVL268:
 3504              		.loc 1 369 0
 3505 044a 2A46     		mov	r2, r5
 3506 044c 40F20741 		movw	r1, #1031
 3507 0450 6B48     		ldr	r0, .L265
 3508 0452 FFF7FEFF 		bl	ADC_ITConfig
 3509              	.LVL269:
 3510              		.loc 1 370 0
 3511 0456 0621     		movs	r1, #6
 3512 0458 1220     		movs	r0, #18
 3513 045a FFF7FEFF 		bl	nvicEnableVector
 3514              	.LVL270:
 3515              		.loc 1 373 0
 3516 045e 2946     		mov	r1, r5
 3517 0460 6748     		ldr	r0, .L265
 3518 0462 FFF7FEFF 		bl	ADC_Cmd
 3519              	.LVL271:
 3520              		.loc 1 376 0
 3521 0466 2946     		mov	r1, r5
 3522 0468 6648     		ldr	r0, .L265+4
 3523 046a FFF7FEFF 		bl	ADC_Cmd
 3524              	.LVL272:
 3525              		.loc 1 379 0
 3526 046e 2946     		mov	r1, r5
 3527 0470 6548     		ldr	r0, .L265+8
 3528 0472 FFF7FEFF 		bl	ADC_Cmd
 3529              	.LVL273:
 3530              		.loc 1 383 0
 3531 0476 2946     		mov	r1, r5
 3532 0478 0220     		movs	r0, #2
 3533 047a FFF7FEFF 		bl	RCC_APB2PeriphClockCmd
 3534              	.LVL274:
ARM GAS  /tmp/cchSvKkm.s 			page 63


 3535              		.loc 1 386 0
 3536 047e 4FF6FF73 		movw	r3, #65535
 3537              		.loc 1 390 0
 3538 0482 02A9     		add	r1, sp, #8
 3539 0484 3846     		mov	r0, r7
 3540              		.loc 1 385 0
 3541 0486 0294     		str	r4, [sp, #8]
 3542              		.loc 1 387 0
 3543 0488 ADF81040 		strh	r4, [sp, #16]	@ movhi
 3544              		.loc 1 388 0
 3545 048c 8DF81240 		strb	r4, [sp, #18]
 3546              		.loc 1 386 0
 3547 0490 0393     		str	r3, [sp, #12]
 3548              		.loc 1 390 0
 3549 0492 FFF7FEFF 		bl	TIM_TimeBaseInit
 3550              	.LVL275:
 3551              		.loc 1 392 0
 3552 0496 5D4A     		ldr	r2, .L265+12
 3553 0498 0D92     		str	r2, [sp, #52]
 3554              		.loc 1 394 0
 3555 049a 4FF4FA73 		mov	r3, #500
 3556              		.loc 1 396 0
 3557 049e 5C4A     		ldr	r2, .L265+16
 3558 04a0 1192     		str	r2, [sp, #68]
 3559              		.loc 1 399 0
 3560 04a2 0DA9     		add	r1, sp, #52
 3561 04a4 3846     		mov	r0, r7
 3562              		.loc 1 394 0
 3563 04a6 0F93     		str	r3, [sp, #60]
 3564 04a8 1094     		str	r4, [sp, #64]
 3565              		.loc 1 399 0
 3566 04aa FFF7FEFF 		bl	TIM_OC1Init
 3567              	.LVL276:
 3568              		.loc 1 400 0
 3569 04ae 3846     		mov	r0, r7
 3570 04b0 0821     		movs	r1, #8
 3571 04b2 FFF7FEFF 		bl	TIM_OC1PreloadConfig
 3572              	.LVL277:
 3573              		.loc 1 401 0
 3574 04b6 0DA9     		add	r1, sp, #52
 3575 04b8 3846     		mov	r0, r7
 3576 04ba FFF7FEFF 		bl	TIM_OC2Init
 3577              	.LVL278:
 3578              		.loc 1 402 0
 3579 04be 3846     		mov	r0, r7
 3580 04c0 0821     		movs	r1, #8
 3581 04c2 FFF7FEFF 		bl	TIM_OC2PreloadConfig
 3582              	.LVL279:
 3583              		.loc 1 403 0
 3584 04c6 0DA9     		add	r1, sp, #52
 3585 04c8 3846     		mov	r0, r7
 3586 04ca FFF7FEFF 		bl	TIM_OC3Init
 3587              	.LVL280:
 3588              		.loc 1 404 0
 3589 04ce 3846     		mov	r0, r7
 3590 04d0 0821     		movs	r1, #8
 3591 04d2 FFF7FEFF 		bl	TIM_OC3PreloadConfig
ARM GAS  /tmp/cchSvKkm.s 			page 64


 3592              	.LVL281:
 3593              		.loc 1 406 0
 3594 04d6 2946     		mov	r1, r5
 3595 04d8 3846     		mov	r0, r7
 3596 04da FFF7FEFF 		bl	TIM_ARRPreloadConfig
 3597              	.LVL282:
 3598              		.loc 1 407 0
 3599 04de 2946     		mov	r1, r5
 3600 04e0 3846     		mov	r0, r7
 3601 04e2 FFF7FEFF 		bl	TIM_CCPreloadControl
 3602              	.LVL283:
 3603              		.loc 1 410 0
 3604 04e6 2946     		mov	r1, r5
 3605 04e8 3846     		mov	r0, r7
 3606 04ea FFF7FEFF 		bl	TIM_CtrlPWMOutputs
 3607              	.LVL284:
 3608              		.loc 1 413 0
 3609 04ee 3046     		mov	r0, r6
 3610 04f0 2021     		movs	r1, #32
 3611 04f2 FFF7FEFF 		bl	TIM_SelectOutputTrigger
 3612              	.LVL285:
 3613              		.loc 1 414 0
 3614 04f6 3046     		mov	r0, r6
 3615 04f8 8021     		movs	r1, #128
 3616 04fa FFF7FEFF 		bl	TIM_SelectMasterSlaveMode
 3617              	.LVL286:
 3618              		.loc 1 415 0
 3619 04fe 2146     		mov	r1, r4
 3620 0500 3846     		mov	r0, r7
 3621 0502 FFF7FEFF 		bl	TIM_SelectInputTrigger
 3622              	.LVL287:
 3623              		.loc 1 416 0
 3624 0506 4146     		mov	r1, r8
 3625 0508 3846     		mov	r0, r7
 3626 050a FFF7FEFF 		bl	TIM_SelectSlaveMode
 3627              	.LVL288:
 3628              		.loc 1 419 0
 3629 050e 2946     		mov	r1, r5
 3630 0510 3046     		mov	r0, r6
 3631 0512 FFF7FEFF 		bl	TIM_Cmd
 3632              	.LVL289:
 3633              		.loc 1 420 0
 3634 0516 2946     		mov	r1, r5
 3635 0518 3846     		mov	r0, r7
 3636 051a FFF7FEFF 		bl	TIM_Cmd
 3637              	.LVL290:
 3638              		.loc 1 423 0
 3639 051e 2946     		mov	r1, r5
 3640 0520 3046     		mov	r0, r6
 3641 0522 FFF7FEFF 		bl	TIM_CtrlPWMOutputs
 3642              	.LVL291:
 3643              		.loc 1 426 0
 3644 0526 FFF7FEFF 		bl	stop_pwm_hw
 3645              	.LVL292:
 3646              		.loc 1 428 0
 3647 052a F36A     		ldr	r3, [r6, #44]
 3648 052c 1993     		str	r3, [sp, #100]
ARM GAS  /tmp/cchSvKkm.s 			page 65


 3649              		.loc 1 429 0
 3650 052e F36A     		ldr	r3, [r6, #44]
 3651              		.loc 1 430 0
 3652 0530 18A8     		add	r0, sp, #96
 3653              		.loc 1 429 0
 3654 0532 EB40     		lsrs	r3, r3, r5
 3655 0534 1A93     		str	r3, [sp, #104]
 3656              		.loc 1 438 0
 3657 0536 374D     		ldr	r5, .L265+20
 3658              		.loc 1 430 0
 3659 0538 FFF7FEFF 		bl	update_adc_sample_pos
 3660              	.LVL293:
 3661              		.loc 1 431 0
 3662 053c 18A8     		add	r0, sp, #96
 3663 053e FFF7FEFF 		bl	set_next_timer_settings
 3664              	.LVL294:
 3665              		.loc 1 433 0
 3666 0542 FFF7FEFF 		bl	utils_sys_unlock_cnt
 3667              	.LVL295:
 3668              		.loc 1 438 0
 3669 0546 2023     		movs	r3, #32
 3670 0548 2B83     		strh	r3, [r5, #24]	@ movhi
 3671              	.LVL296:
 3672 054a 41F28934 		movw	r4, #5001
 3673 054e 03E0     		b	.L251
 3674              	.LVL297:
 3675              	.L253:
 3676              	.LBB109:
 3677              	.LBB110:
 3678              		.loc 1 527 0
 3679 0550 FFF7FEFF 		bl	chThdSleep
 3680              	.LVL298:
 3681              		.loc 1 529 0
 3682 0554 013C     		subs	r4, r4, #1
 3683              	.LVL299:
 3684 0556 04D0     		beq	.L254
 3685              	.LVL300:
 3686              	.L251:
 3687              		.loc 1 526 0
 3688 0558 2B69     		ldr	r3, [r5, #16]
 3689 055a 1B06     		lsls	r3, r3, #24
 3690              		.loc 1 527 0
 3691 055c 4FF00A00 		mov	r0, #10
 3692              		.loc 1 526 0
 3693 0560 F6D5     		bpl	.L253
 3694              	.LVL301:
 3695              	.L254:
 3696              		.loc 1 534 0
 3697 0562 42F21070 		movw	r0, #10000
 3698 0566 FFF7FEFF 		bl	chThdSleep
 3699              	.LVL302:
 3700              		.loc 1 536 0
 3701 056a 2B4C     		ldr	r4, .L265+24
 3702              		.loc 1 535 0
 3703 056c 2B48     		ldr	r0, .L265+28
 3704              		.loc 1 539 0
 3705 056e 2C49     		ldr	r1, .L265+32
ARM GAS  /tmp/cchSvKkm.s 			page 66


 3706              		.loc 1 542 0
 3707 0570 2C4A     		ldr	r2, .L265+36
 3708              		.loc 1 535 0
 3709 0572 0023     		movs	r3, #0
 3710 0574 0360     		str	r3, [r0]
 3711              		.loc 1 536 0
 3712 0576 2360     		str	r3, [r4]
 3713              		.loc 1 539 0
 3714 0578 0B60     		str	r3, [r1]
 3715              		.loc 1 542 0
 3716 057a 1360     		str	r3, [r2]
 3717              	.L252:
 3718              		.loc 1 543 0
 3719 057c 1368     		ldr	r3, [r2]
 3720 057e B3F57A6F 		cmp	r3, #4000
 3721 0582 FBDB     		blt	.L252
 3722              		.loc 1 544 0
 3723 0584 284D     		ldr	r5, .L265+40
 3724 0586 0368     		ldr	r3, [r0]
 3725              		.loc 1 545 0
 3726 0588 284E     		ldr	r6, .L265+44
 3727              		.loc 1 544 0
 3728 058a 1068     		ldr	r0, [r2]
 3729 058c 93FBF0F3 		sdiv	r3, r3, r0
 3730 0590 2B60     		str	r3, [r5]
 3731              		.loc 1 545 0
 3732 0592 2368     		ldr	r3, [r4]
 3733 0594 1468     		ldr	r4, [r2]
 3734 0596 93FBF4F3 		sdiv	r3, r3, r4
 3735              	.LBE110:
 3736              	.LBE109:
 3737              		.loc 1 443 0
 3738 059a 0024     		movs	r4, #0
 3739              	.LBB114:
 3740              	.LBB111:
 3741              		.loc 1 545 0
 3742 059c 3360     		str	r3, [r6]
 3743              	.LBE111:
 3744              	.LBE114:
 3745              		.loc 1 445 0
 3746 059e 0094     		str	r4, [sp]
 3747              	.LBB115:
 3748              	.LBB112:
 3749              		.loc 1 548 0
 3750 05a0 0B68     		ldr	r3, [r1]
 3751 05a2 2348     		ldr	r0, .L265+48
 3752              		.loc 1 552 0
 3753 05a4 2349     		ldr	r1, .L265+52
 3754              	.LBE112:
 3755              	.LBE115:
 3756              		.loc 1 443 0
 3757 05a6 244D     		ldr	r5, .L265+56
 3758              		.loc 1 444 0
 3759 05a8 244E     		ldr	r6, .L265+60
 3760              	.LBB116:
 3761              	.LBB113:
 3762              		.loc 1 548 0
ARM GAS  /tmp/cchSvKkm.s 			page 67


 3763 05aa 1268     		ldr	r2, [r2]
 3764 05ac 93FBF2F3 		sdiv	r3, r3, r2
 3765              		.loc 1 552 0
 3766 05b0 0122     		movs	r2, #1
 3767              		.loc 1 548 0
 3768 05b2 0360     		str	r3, [r0]
 3769              		.loc 1 552 0
 3770 05b4 0A70     		strb	r2, [r1]
 3771              	.LBE113:
 3772              	.LBE116:
 3773              		.loc 1 445 0
 3774 05b6 224B     		ldr	r3, .L265+64
 3775              		.loc 1 443 0
 3776 05b8 2C70     		strb	r4, [r5]
 3777              		.loc 1 445 0
 3778 05ba 4022     		movs	r2, #64
 3779 05bc 40F69811 		movw	r1, #2456
 3780 05c0 2048     		ldr	r0, .L265+68
 3781              		.loc 1 444 0
 3782 05c2 3470     		strb	r4, [r6]
 3783              		.loc 1 445 0
 3784 05c4 FFF7FEFF 		bl	chThdCreateStatic
 3785              	.LVL303:
 3786              		.loc 1 446 0
 3787 05c8 1F4B     		ldr	r3, .L265+72
 3788 05ca 0094     		str	r4, [sp]
 3789 05cc 4022     		movs	r2, #64
 3790 05ce 4FF4B361 		mov	r1, #1432
 3791 05d2 1E48     		ldr	r0, .L265+76
 3792 05d4 FFF7FEFF 		bl	chThdCreateStatic
 3793              	.LVL304:
 3794              		.loc 1 449 0
 3795 05d8 FFF7FEFF 		bl	timeout_had_IWDG_reset
 3796              	.LVL305:
 3797 05dc 10B1     		cbz	r0, .L255
 3798              		.loc 1 450 0
 3799 05de 0A20     		movs	r0, #10
 3800 05e0 FFF7FEFF 		bl	mc_interface_fault_stop
 3801              	.LVL306:
 3802              	.L255:
 3803              		.loc 1 454 0
 3804 05e4 1A49     		ldr	r1, .L265+80
 3805 05e6 0023     		movs	r3, #0
 3806 05e8 0B60     		str	r3, [r1]
 3807              		.loc 1 455 0
 3808 05ea 1A49     		ldr	r1, .L265+84
 3809              		.loc 1 457 0
 3810 05ec 0122     		movs	r2, #1
 3811              		.loc 1 455 0
 3812 05ee 0B60     		str	r3, [r1]
 3813              		.loc 1 457 0
 3814 05f0 8BF80020 		strb	r2, [fp]
 3815              		.loc 1 458 0
 3816 05f4 2FB0     		add	sp, sp, #188
 3817              		.cfi_def_cfa_offset 44
 3818              		@ sp needed
 3819 05f6 BDEC028B 		vldm	sp!, {d8}
ARM GAS  /tmp/cchSvKkm.s 			page 68


 3820              		.cfi_restore 80
 3821              		.cfi_restore 81
 3822              		.cfi_def_cfa_offset 36
 3823 05fa BDE8F08F 		pop	{r4, r5, r6, r7, r8, r9, r10, fp, pc}
 3824              	.L266:
 3825 05fe 00BF     		.align	2
 3826              	.L265:
 3827 0600 00200140 		.word	1073815552
 3828 0604 00210140 		.word	1073815808
 3829 0608 00220140 		.word	1073816064
 3830 060c 60000100 		.word	65632
 3831 0610 00010002 		.word	33554688
 3832 0614 00040240 		.word	1073873920
 3833 0618 00000000 		.word	.LANCHOR52
 3834 061c 00000000 		.word	.LANCHOR51
 3835 0620 00000000 		.word	.LANCHOR53
 3836 0624 00000000 		.word	.LANCHOR54
 3837 0628 00000000 		.word	.LANCHOR55
 3838 062c 00000000 		.word	.LANCHOR56
 3839 0630 00000000 		.word	.LANCHOR57
 3840 0634 00000000 		.word	.LANCHOR46
 3841 0638 00000000 		.word	.LANCHOR13
 3842 063c 00000000 		.word	.LANCHOR31
 3843 0640 00000000 		.word	timer_thread
 3844 0644 00000000 		.word	.LANCHOR58
 3845 0648 00000000 		.word	rpm_thread
 3846 064c 00000000 		.word	.LANCHOR59
 3847 0650 00000000 		.word	.LANCHOR12
 3848 0654 00000000 		.word	.LANCHOR11
 3849              		.cfi_endproc
 3850              	.LFE259:
 3851              		.size	mcpwm_init, .-mcpwm_init
 3852              		.section	.text.mcpwm_set_configuration,"ax",%progbits
 3853              		.align	1
 3854              		.p2align 4,,15
 3855              		.global	mcpwm_set_configuration
 3856              		.syntax unified
 3857              		.thumb
 3858              		.thumb_func
 3859              		.fpu fpv4-sp-d16
 3860              		.type	mcpwm_set_configuration, %function
 3861              	mcpwm_set_configuration:
 3862              	.LFB262:
 3863              		.loc 1 486 0
 3864              		.cfi_startproc
 3865              		@ args = 0, pretend = 0, frame = 0
 3866              		@ frame_needed = 0, uses_anonymous_args = 0
 3867              	.LVL307:
 3868 0000 38B5     		push	{r3, r4, r5, lr}
 3869              		.cfi_def_cfa_offset 16
 3870              		.cfi_offset 3, -16
 3871              		.cfi_offset 4, -12
 3872              		.cfi_offset 5, -8
 3873              		.cfi_offset 14, -4
 3874              	.LBB117:
 3875              	.LBB118:
 3876              		.loc 1 885 0
ARM GAS  /tmp/cchSvKkm.s 			page 69


 3877 0002 0E49     		ldr	r1, .L269
 3878              		.loc 1 886 0
 3879 0004 0E4A     		ldr	r2, .L269+4
 3880              	.LBE118:
 3881              	.LBE117:
 3882              		.loc 1 486 0
 3883 0006 0446     		mov	r4, r0
 3884              		.loc 1 488 0
 3885 0008 0E48     		ldr	r0, .L269+8
 3886              	.LVL308:
 3887              	.LBB121:
 3888              	.LBB119:
 3889              		.loc 1 885 0
 3890 000a 0023     		movs	r3, #0
 3891              	.LBE119:
 3892              	.LBE121:
 3893              		.loc 1 488 0
 3894 000c 0A25     		movs	r5, #10
 3895 000e 0570     		strb	r5, [r0]
 3896              	.LBB122:
 3897              	.LBB120:
 3898              		.loc 1 885 0
 3899 0010 0B70     		strb	r3, [r1]
 3900              		.loc 1 886 0
 3901 0012 1360     		str	r3, [r2]
 3902              		.loc 1 887 0
 3903 0014 FFF7FEFF 		bl	stop_pwm_hw
 3904              	.LVL309:
 3905              	.LBE120:
 3906              	.LBE122:
 3907              		.loc 1 491 0
 3908 0018 FFF7FEFF 		bl	utils_sys_lock_cnt
 3909              	.LVL310:
 3910              		.loc 1 493 0
 3911 001c 6378     		ldrb	r3, [r4, #1]	@ zero_extendqisi2
 3912              		.loc 1 492 0
 3913 001e 0A49     		ldr	r1, .L269+12
 3914              		.loc 1 493 0
 3915 0020 0A4A     		ldr	r2, .L269+16
 3916              		.loc 1 492 0
 3917 0022 0C60     		str	r4, [r1]
 3918              		.loc 1 493 0
 3919 0024 DBB2     		uxtb	r3, r3
 3920              		.loc 1 494 0
 3921 0026 04F1A000 		add	r0, r4, #160
 3922              		.loc 1 493 0
 3923 002a 1370     		strb	r3, [r2]
 3924              		.loc 1 494 0
 3925 002c FFF7FEFF 		bl	mcpwm_init_hall_table
 3926              	.LVL311:
 3927              		.loc 1 495 0
 3928 0030 FFF7FEFF 		bl	update_sensor_mode
 3929              	.LVL312:
 3930              		.loc 1 497 0
 3931 0034 BDE83840 		pop	{r3, r4, r5, lr}
 3932              		.cfi_restore 14
 3933              		.cfi_restore 5
ARM GAS  /tmp/cchSvKkm.s 			page 70


 3934              		.cfi_restore 4
 3935              		.cfi_restore 3
 3936              		.cfi_def_cfa_offset 0
 3937              	.LVL313:
 3938              		.loc 1 496 0
 3939 0038 FFF7FEBF 		b	utils_sys_unlock_cnt
 3940              	.LVL314:
 3941              	.L270:
 3942              		.align	2
 3943              	.L269:
 3944 003c 00000000 		.word	.LANCHOR2
 3945 0040 00000000 		.word	.LANCHOR42
 3946 0044 00000000 		.word	.LANCHOR39
 3947 0048 00000000 		.word	.LANCHOR0
 3948 004c 00000000 		.word	.LANCHOR29
 3949              		.cfi_endproc
 3950              	.LFE262:
 3951              		.size	mcpwm_set_configuration, .-mcpwm_set_configuration
 3952              		.section	.text.mcpwm_set_pid_speed,"ax",%progbits
 3953              		.align	1
 3954              		.p2align 4,,15
 3955              		.global	mcpwm_set_pid_speed
 3956              		.syntax unified
 3957              		.thumb
 3958              		.thumb_func
 3959              		.fpu fpv4-sp-d16
 3960              		.type	mcpwm_set_pid_speed, %function
 3961              	mcpwm_set_pid_speed:
 3962              	.LFB268:
 3963              		.loc 1 607 0
 3964              		.cfi_startproc
 3965              		@ args = 0, pretend = 0, frame = 0
 3966              		@ frame_needed = 0, uses_anonymous_args = 0
 3967              		@ link register save eliminated.
 3968              	.LVL315:
 3969              		.loc 1 608 0
 3970 0000 034A     		ldr	r2, .L272
 3971              		.loc 1 609 0
 3972 0002 044B     		ldr	r3, .L272+4
 3973              		.loc 1 608 0
 3974 0004 0121     		movs	r1, #1
 3975 0006 1170     		strb	r1, [r2]
 3976              		.loc 1 609 0
 3977 0008 83ED000A 		vstr.32	s0, [r3]
 3978              		.loc 1 610 0
 3979 000c 7047     		bx	lr
 3980              	.L273:
 3981 000e 00BF     		.align	2
 3982              	.L272:
 3983 0010 00000000 		.word	.LANCHOR39
 3984 0014 00000000 		.word	.LANCHOR36
 3985              		.cfi_endproc
 3986              	.LFE268:
 3987              		.size	mcpwm_set_pid_speed, .-mcpwm_set_pid_speed
 3988              		.section	.text.mcpwm_set_brake_current,"ax",%progbits
 3989              		.align	1
 3990              		.p2align 4,,15
ARM GAS  /tmp/cchSvKkm.s 			page 71


 3991              		.global	mcpwm_set_brake_current
 3992              		.syntax unified
 3993              		.thumb
 3994              		.thumb_func
 3995              		.fpu fpv4-sp-d16
 3996              		.type	mcpwm_set_brake_current, %function
 3997              	mcpwm_set_brake_current:
 3998              	.LFB271:
 3999              		.loc 1 661 0
 4000              		.cfi_startproc
 4001              		@ args = 0, pretend = 0, frame = 8
 4002              		@ frame_needed = 0, uses_anonymous_args = 0
 4003              	.LVL316:
 4004 0000 30B5     		push	{r4, r5, lr}
 4005              		.cfi_def_cfa_offset 12
 4006              		.cfi_offset 4, -12
 4007              		.cfi_offset 5, -8
 4008              		.cfi_offset 14, -4
 4009              		.loc 1 662 0
 4010 0002 2D4C     		ldr	r4, .L299
 4011 0004 2368     		ldr	r3, [r4]
 4012 0006 D3ED5F7A 		vldr.32	s15, [r3, #380]
 4013 000a B0EEC07A 		vabs.f32	s14, s0
 4014 000e B4EEE77A 		vcmpe.f32	s14, s15
 4015              		.loc 1 661 0
 4016 0012 83B0     		sub	sp, sp, #12
 4017              		.cfi_def_cfa_offset 24
 4018              		.loc 1 662 0
 4019 0014 F1EE10FA 		vmrs	APSR_nzcv, FPSCR
 4020              		.loc 1 661 0
 4021 0018 8DED010A 		vstr.32	s0, [sp, #4]
 4022              		.loc 1 662 0
 4023 001c 2DD4     		bmi	.L297
 4024              		.loc 1 668 0
 4025 001e 93ED1C0A 		vldr.32	s0, [r3, #112]
 4026              	.LVL317:
 4027 0022 D3ED1C0A 		vldr.32	s1, [r3, #112]
 4028              		.loc 1 670 0
 4029 0026 254D     		ldr	r5, .L299+4
 4030              		.loc 1 668 0
 4031 0028 B0EEC00A 		vabs.f32	s0, s0
 4032 002c B1EE400A 		vneg.f32	s0, s0
 4033 0030 F0EEE00A 		vabs.f32	s1, s1
 4034 0034 01A8     		add	r0, sp, #4
 4035              	.LVL318:
 4036 0036 FFF7FEFF 		bl	utils_truncate_number
 4037              	.LVL319:
 4038              		.loc 1 671 0
 4039 003a 2149     		ldr	r1, .L299+8
 4040 003c 0198     		ldr	r0, [sp, #4]	@ float
 4041              		.loc 1 673 0
 4042 003e 214B     		ldr	r3, .L299+12
 4043              		.loc 1 670 0
 4044 0040 0322     		movs	r2, #3
 4045 0042 2A70     		strb	r2, [r5]
 4046              		.loc 1 671 0
 4047 0044 0860     		str	r0, [r1]	@ float
ARM GAS  /tmp/cchSvKkm.s 			page 72


 4048              		.loc 1 673 0
 4049 0046 1978     		ldrb	r1, [r3]	@ zero_extendqisi2
 4050 0048 0229     		cmp	r1, #2
 4051 004a 14D0     		beq	.L274
 4052              		.loc 1 673 0 is_stmt 0 discriminator 1
 4053 004c 1978     		ldrb	r1, [r3]	@ zero_extendqisi2
 4054 004e 9142     		cmp	r1, r2
 4055 0050 11D0     		beq	.L274
 4056              		.loc 1 676 0 is_stmt 1
 4057 0052 2168     		ldr	r1, [r4]
 4058 0054 8878     		ldrb	r0, [r1, #2]	@ zero_extendqisi2
 4059 0056 0128     		cmp	r0, #1
 4060 0058 1BD0     		beq	.L298
 4061              		.loc 1 683 0
 4062 005a 1B48     		ldr	r0, .L299+16
 4063 005c D0ED007A 		vldr.32	s15, [r0]
 4064 0060 91ED097A 		vldr.32	s14, [r1, #36]
 4065 0064 F0EEE77A 		vabs.f32	s15, s15
 4066 0068 F4EEC77A 		vcmpe.f32	s15, s14
 4067 006c F1EE10FA 		vmrs	APSR_nzcv, FPSCR
 4068 0070 1BDD     		ble	.L294
 4069              	.L296:
 4070              		.loc 1 684 0
 4071 0072 0222     		movs	r2, #2
 4072 0074 1A70     		strb	r2, [r3]
 4073              	.L274:
 4074              		.loc 1 690 0
 4075 0076 03B0     		add	sp, sp, #12
 4076              		.cfi_remember_state
 4077              		.cfi_def_cfa_offset 12
 4078              		@ sp needed
 4079 0078 30BD     		pop	{r4, r5, pc}
 4080              	.LVL320:
 4081              	.L297:
 4082              		.cfi_restore_state
 4083              		.loc 1 663 0
 4084 007a 1048     		ldr	r0, .L299+4
 4085              	.LBB123:
 4086              	.LBB124:
 4087              		.loc 1 885 0
 4088 007c 1149     		ldr	r1, .L299+12
 4089              		.loc 1 886 0
 4090 007e 134A     		ldr	r2, .L299+20
 4091              		.loc 1 885 0
 4092 0080 0023     		movs	r3, #0
 4093              	.LBE124:
 4094              	.LBE123:
 4095              		.loc 1 663 0
 4096 0082 0A24     		movs	r4, #10
 4097 0084 0470     		strb	r4, [r0]
 4098              	.LBB126:
 4099              	.LBB125:
 4100              		.loc 1 885 0
 4101 0086 0B70     		strb	r3, [r1]
 4102              		.loc 1 886 0
 4103 0088 1360     		str	r3, [r2]
 4104              		.loc 1 887 0
ARM GAS  /tmp/cchSvKkm.s 			page 73


 4105 008a FFF7FEFF 		bl	stop_pwm_hw
 4106              	.LVL321:
 4107              	.LBE125:
 4108              	.LBE126:
 4109              		.loc 1 690 0
 4110 008e 03B0     		add	sp, sp, #12
 4111              		.cfi_remember_state
 4112              		.cfi_def_cfa_offset 12
 4113              		@ sp needed
 4114 0090 30BD     		pop	{r4, r5, pc}
 4115              	.L298:
 4116              		.cfi_restore_state
 4117              		.loc 1 677 0
 4118 0092 0F49     		ldr	r1, .L299+24
 4119 0094 9FED0F7A 		vldr.32	s14, .L299+28
 4120 0098 D1ED007A 		vldr.32	s15, [r1]
 4121 009c F0EEE77A 		vabs.f32	s15, s15
 4122 00a0 F4EEC77A 		vcmpe.f32	s15, s14
 4123 00a4 F1EE10FA 		vmrs	APSR_nzcv, FPSCR
 4124 00a8 E3DC     		bgt	.L296
 4125              	.L294:
 4126              	.LBB127:
 4127              	.LBB128:
 4128              		.loc 1 914 0
 4129 00aa 0849     		ldr	r1, .L299+20
 4130              		.loc 1 913 0
 4131 00ac 1A70     		strb	r2, [r3]
 4132              		.loc 1 914 0
 4133 00ae 0023     		movs	r3, #0
 4134 00b0 0B60     		str	r3, [r1]
 4135              		.loc 1 915 0
 4136 00b2 FFF7FEFF 		bl	full_brake_hw
 4137              	.LVL322:
 4138 00b6 DEE7     		b	.L274
 4139              	.L300:
 4140              		.align	2
 4141              	.L299:
 4142 00b8 00000000 		.word	.LANCHOR0
 4143 00bc 00000000 		.word	.LANCHOR39
 4144 00c0 00000000 		.word	.LANCHOR38
 4145 00c4 00000000 		.word	.LANCHOR2
 4146 00c8 00000000 		.word	.LANCHOR21
 4147 00cc 00000000 		.word	.LANCHOR42
 4148 00d0 00000000 		.word	.LANCHOR19
 4149 00d4 CDCCCC3D 		.word	1036831949
 4150              	.LBE128:
 4151              	.LBE127:
 4152              		.cfi_endproc
 4153              	.LFE271:
 4154              		.size	mcpwm_set_brake_current, .-mcpwm_set_brake_current
 4155              		.section	.text.mcpwm_get_comm_step,"ax",%progbits
 4156              		.align	1
 4157              		.p2align 4,,15
 4158              		.global	mcpwm_get_comm_step
 4159              		.syntax unified
 4160              		.thumb
 4161              		.thumb_func
ARM GAS  /tmp/cchSvKkm.s 			page 74


 4162              		.fpu fpv4-sp-d16
 4163              		.type	mcpwm_get_comm_step, %function
 4164              	mcpwm_get_comm_step:
 4165              	.LFB272:
 4166              		.loc 1 698 0
 4167              		.cfi_startproc
 4168              		@ args = 0, pretend = 0, frame = 0
 4169              		@ frame_needed = 0, uses_anonymous_args = 0
 4170              		@ link register save eliminated.
 4171              		.loc 1 699 0
 4172 0000 014B     		ldr	r3, .L302
 4173 0002 1868     		ldr	r0, [r3]
 4174              		.loc 1 700 0
 4175 0004 7047     		bx	lr
 4176              	.L303:
 4177 0006 00BF     		.align	2
 4178              	.L302:
 4179 0008 00000000 		.word	.LANCHOR3
 4180              		.cfi_endproc
 4181              	.LFE272:
 4182              		.size	mcpwm_get_comm_step, .-mcpwm_get_comm_step
 4183              		.section	.text.mcpwm_get_duty_cycle_set,"ax",%progbits
 4184              		.align	1
 4185              		.p2align 4,,15
 4186              		.global	mcpwm_get_duty_cycle_set
 4187              		.syntax unified
 4188              		.thumb
 4189              		.thumb_func
 4190              		.fpu fpv4-sp-d16
 4191              		.type	mcpwm_get_duty_cycle_set, %function
 4192              	mcpwm_get_duty_cycle_set:
 4193              	.LFB273:
 4194              		.loc 1 702 0
 4195              		.cfi_startproc
 4196              		@ args = 0, pretend = 0, frame = 0
 4197              		@ frame_needed = 0, uses_anonymous_args = 0
 4198              		@ link register save eliminated.
 4199              		.loc 1 703 0
 4200 0000 014B     		ldr	r3, .L305
 4201 0002 93ED000A 		vldr.32	s0, [r3]
 4202              		.loc 1 704 0
 4203 0006 7047     		bx	lr
 4204              	.L306:
 4205              		.align	2
 4206              	.L305:
 4207 0008 00000000 		.word	.LANCHOR35
 4208              		.cfi_endproc
 4209              	.LFE273:
 4210              		.size	mcpwm_get_duty_cycle_set, .-mcpwm_get_duty_cycle_set
 4211              		.section	.text.mcpwm_get_duty_cycle_now,"ax",%progbits
 4212              		.align	1
 4213              		.p2align 4,,15
 4214              		.global	mcpwm_get_duty_cycle_now
 4215              		.syntax unified
 4216              		.thumb
 4217              		.thumb_func
 4218              		.fpu fpv4-sp-d16
ARM GAS  /tmp/cchSvKkm.s 			page 75


 4219              		.type	mcpwm_get_duty_cycle_now, %function
 4220              	mcpwm_get_duty_cycle_now:
 4221              	.LFB274:
 4222              		.loc 1 706 0
 4223              		.cfi_startproc
 4224              		@ args = 0, pretend = 0, frame = 0
 4225              		@ frame_needed = 0, uses_anonymous_args = 0
 4226              		@ link register save eliminated.
 4227              		.loc 1 707 0
 4228 0000 014B     		ldr	r3, .L308
 4229 0002 93ED000A 		vldr.32	s0, [r3]
 4230              		.loc 1 708 0
 4231 0006 7047     		bx	lr
 4232              	.L309:
 4233              		.align	2
 4234              	.L308:
 4235 0008 00000000 		.word	.LANCHOR19
 4236              		.cfi_endproc
 4237              	.LFE274:
 4238              		.size	mcpwm_get_duty_cycle_now, .-mcpwm_get_duty_cycle_now
 4239              		.section	.text.mcpwm_get_switching_frequency_now,"ax",%progbits
 4240              		.align	1
 4241              		.p2align 4,,15
 4242              		.global	mcpwm_get_switching_frequency_now
 4243              		.syntax unified
 4244              		.thumb
 4245              		.thumb_func
 4246              		.fpu fpv4-sp-d16
 4247              		.type	mcpwm_get_switching_frequency_now, %function
 4248              	mcpwm_get_switching_frequency_now:
 4249              	.LFB275:
 4250              		.loc 1 716 0
 4251              		.cfi_startproc
 4252              		@ args = 0, pretend = 0, frame = 0
 4253              		@ frame_needed = 0, uses_anonymous_args = 0
 4254              		@ link register save eliminated.
 4255              		.loc 1 717 0
 4256 0000 014B     		ldr	r3, .L311
 4257 0002 93ED000A 		vldr.32	s0, [r3]
 4258              		.loc 1 718 0
 4259 0006 7047     		bx	lr
 4260              	.L312:
 4261              		.align	2
 4262              	.L311:
 4263 0008 00000000 		.word	.LANCHOR6
 4264              		.cfi_endproc
 4265              	.LFE275:
 4266              		.size	mcpwm_get_switching_frequency_now, .-mcpwm_get_switching_frequency_now
 4267              		.section	.text.mcpwm_get_rpm,"ax",%progbits
 4268              		.align	1
 4269              		.p2align 4,,15
 4270              		.global	mcpwm_get_rpm
 4271              		.syntax unified
 4272              		.thumb
 4273              		.thumb_func
 4274              		.fpu fpv4-sp-d16
 4275              		.type	mcpwm_get_rpm, %function
ARM GAS  /tmp/cchSvKkm.s 			page 76


 4276              	mcpwm_get_rpm:
 4277              	.LFB276:
 4278              		.loc 1 728 0
 4279              		.cfi_startproc
 4280              		@ args = 0, pretend = 0, frame = 0
 4281              		@ frame_needed = 0, uses_anonymous_args = 0
 4282              		@ link register save eliminated.
 4283              		.loc 1 729 0
 4284 0000 074B     		ldr	r3, .L318
 4285 0002 1B68     		ldr	r3, [r3]
 4286 0004 9B78     		ldrb	r3, [r3, #2]	@ zero_extendqisi2
 4287 0006 012B     		cmp	r3, #1
 4288 0008 01D0     		beq	.L317
 4289 000a FFF7FEBF 		b	mcpwm_get_rpm.part.0
 4290              	.LVL323:
 4291              	.L317:
 4292              		.loc 1 730 0
 4293 000e 054B     		ldr	r3, .L318+4
 4294 0010 DFED057A 		vldr.32	s15, .L318+8
 4295 0014 93ED007A 		vldr.32	s14, [r3]
 4296 0018 87EE270A 		vdiv.f32	s0, s14, s15
 4297              		.loc 1 734 0
 4298 001c 7047     		bx	lr
 4299              	.L319:
 4300 001e 00BF     		.align	2
 4301              	.L318:
 4302 0020 00000000 		.word	.LANCHOR0
 4303 0024 00000000 		.word	.LANCHOR24
 4304 0028 5077D63D 		.word	1037465424
 4305              		.cfi_endproc
 4306              	.LFE276:
 4307              		.size	mcpwm_get_rpm, .-mcpwm_get_rpm
 4308              		.section	.text.mcpwm_get_state,"ax",%progbits
 4309              		.align	1
 4310              		.p2align 4,,15
 4311              		.global	mcpwm_get_state
 4312              		.syntax unified
 4313              		.thumb
 4314              		.thumb_func
 4315              		.fpu fpv4-sp-d16
 4316              		.type	mcpwm_get_state, %function
 4317              	mcpwm_get_state:
 4318              	.LFB277:
 4319              		.loc 1 736 0
 4320              		.cfi_startproc
 4321              		@ args = 0, pretend = 0, frame = 0
 4322              		@ frame_needed = 0, uses_anonymous_args = 0
 4323              		@ link register save eliminated.
 4324              		.loc 1 737 0
 4325 0000 014B     		ldr	r3, .L321
 4326 0002 1878     		ldrb	r0, [r3]	@ zero_extendqisi2
 4327              		.loc 1 738 0
 4328 0004 7047     		bx	lr
 4329              	.L322:
 4330 0006 00BF     		.align	2
 4331              	.L321:
 4332 0008 00000000 		.word	.LANCHOR2
ARM GAS  /tmp/cchSvKkm.s 			page 77


 4333              		.cfi_endproc
 4334              	.LFE277:
 4335              		.size	mcpwm_get_state, .-mcpwm_get_state
 4336              		.section	.text.mcpwm_get_kv,"ax",%progbits
 4337              		.align	1
 4338              		.p2align 4,,15
 4339              		.global	mcpwm_get_kv
 4340              		.syntax unified
 4341              		.thumb
 4342              		.thumb_func
 4343              		.fpu fpv4-sp-d16
 4344              		.type	mcpwm_get_kv, %function
 4345              	mcpwm_get_kv:
 4346              	.LFB278:
 4347              		.loc 1 748 0
 4348              		.cfi_startproc
 4349              		@ args = 0, pretend = 0, frame = 0
 4350              		@ frame_needed = 0, uses_anonymous_args = 0
 4351              		@ link register save eliminated.
 4352              		.loc 1 749 0
 4353 0000 0D4A     		ldr	r2, .L324
 4354 0002 0E4B     		ldr	r3, .L324+4
 4355 0004 92ED000A 		vldr.32	s0, [r2]
 4356 0008 DB8A     		ldrh	r3, [r3, #22]
 4357 000a 9FED0D6A 		vldr.32	s12, .L324+8
 4358 000e DFED0D6A 		vldr.32	s13, .L324+12
 4359 0012 07EE903A 		vmov	s15, r3	@ int
 4360 0016 F8EE677A 		vcvt.f32.u32	s15, s15
 4361 001a 0B4B     		ldr	r3, .L324+16
 4362 001c 67EE867A 		vmul.f32	s15, s15, s12
 4363 0020 93ED007A 		vldr.32	s14, [r3]
 4364 0024 67EEA67A 		vmul.f32	s15, s15, s13
 4365 0028 B0EEC77A 		vabs.f32	s14, s14
 4366 002c 67EE877A 		vmul.f32	s15, s15, s14
 4367              		.loc 1 750 0
 4368 0030 80EE270A 		vdiv.f32	s0, s0, s15
 4369 0034 7047     		bx	lr
 4370              	.L325:
 4371 0036 00BF     		.align	2
 4372              	.L324:
 4373 0038 00000000 		.word	.LANCHOR21
 4374 003c 00000000 		.word	ADC_Value
 4375 0040 6740533A 		.word	978534503
 4376 0044 00004943 		.word	1128857600
 4377 0048 00000000 		.word	.LANCHOR19
 4378              		.cfi_endproc
 4379              	.LFE278:
 4380              		.size	mcpwm_get_kv, .-mcpwm_get_kv
 4381              		.section	.text.mcpwm_get_kv_filtered,"ax",%progbits
 4382              		.align	1
 4383              		.p2align 4,,15
 4384              		.global	mcpwm_get_kv_filtered
 4385              		.syntax unified
 4386              		.thumb
 4387              		.thumb_func
 4388              		.fpu fpv4-sp-d16
 4389              		.type	mcpwm_get_kv_filtered, %function
ARM GAS  /tmp/cchSvKkm.s 			page 78


 4390              	mcpwm_get_kv_filtered:
 4391              	.LFB279:
 4392              		.loc 1 760 0
 4393              		.cfi_startproc
 4394              		@ args = 0, pretend = 0, frame = 0
 4395              		@ frame_needed = 0, uses_anonymous_args = 0
 4396              		@ link register save eliminated.
 4397              		.loc 1 761 0
 4398 0000 034B     		ldr	r3, .L327
 4399 0002 0449     		ldr	r1, .L327+4
 4400 0004 1B68     		ldr	r3, [r3]
 4401 0006 0448     		ldr	r0, .L327+8
 4402 0008 0722     		movs	r2, #7
 4403 000a FFF7FEBF 		b	filter_run_fir_iteration
 4404              	.LVL324:
 4405              	.L328:
 4406 000e 00BF     		.align	2
 4407              	.L327:
 4408 0010 00000000 		.word	.LANCHOR22
 4409 0014 00000000 		.word	.LANCHOR49
 4410 0018 00000000 		.word	.LANCHOR23
 4411              		.cfi_endproc
 4412              	.LFE279:
 4413              		.size	mcpwm_get_kv_filtered, .-mcpwm_get_kv_filtered
 4414              		.section	.text.mcpwm_get_tot_current,"ax",%progbits
 4415              		.align	1
 4416              		.p2align 4,,15
 4417              		.global	mcpwm_get_tot_current
 4418              		.syntax unified
 4419              		.thumb
 4420              		.thumb_func
 4421              		.fpu fpv4-sp-d16
 4422              		.type	mcpwm_get_tot_current, %function
 4423              	mcpwm_get_tot_current:
 4424              	.LFB280:
 4425              		.loc 1 775 0
 4426              		.cfi_startproc
 4427              		@ args = 0, pretend = 0, frame = 0
 4428              		@ frame_needed = 0, uses_anonymous_args = 0
 4429              		@ link register save eliminated.
 4430              		.loc 1 776 0
 4431 0000 014B     		ldr	r3, .L330
 4432 0002 93ED000A 		vldr.32	s0, [r3]
 4433              		.loc 1 777 0
 4434 0006 7047     		bx	lr
 4435              	.L331:
 4436              		.align	2
 4437              	.L330:
 4438 0008 00000000 		.word	.LANCHOR40
 4439              		.cfi_endproc
 4440              	.LFE280:
 4441              		.size	mcpwm_get_tot_current, .-mcpwm_get_tot_current
 4442              		.section	.text.mcpwm_get_tot_current_filtered,"ax",%progbits
 4443              		.align	1
 4444              		.p2align 4,,15
 4445              		.global	mcpwm_get_tot_current_filtered
 4446              		.syntax unified
ARM GAS  /tmp/cchSvKkm.s 			page 79


 4447              		.thumb
 4448              		.thumb_func
 4449              		.fpu fpv4-sp-d16
 4450              		.type	mcpwm_get_tot_current_filtered, %function
 4451              	mcpwm_get_tot_current_filtered:
 4452              	.LFB281:
 4453              		.loc 1 787 0
 4454              		.cfi_startproc
 4455              		@ args = 0, pretend = 0, frame = 0
 4456              		@ frame_needed = 0, uses_anonymous_args = 0
 4457              		@ link register save eliminated.
 4458              		.loc 1 788 0
 4459 0000 014B     		ldr	r3, .L333
 4460 0002 93ED000A 		vldr.32	s0, [r3]
 4461              		.loc 1 789 0
 4462 0006 7047     		bx	lr
 4463              	.L334:
 4464              		.align	2
 4465              	.L333:
 4466 0008 00000000 		.word	.LANCHOR41
 4467              		.cfi_endproc
 4468              	.LFE281:
 4469              		.size	mcpwm_get_tot_current_filtered, .-mcpwm_get_tot_current_filtered
 4470              		.section	.text.mcpwm_get_tot_current_directional,"ax",%progbits
 4471              		.align	1
 4472              		.p2align 4,,15
 4473              		.global	mcpwm_get_tot_current_directional
 4474              		.syntax unified
 4475              		.thumb
 4476              		.thumb_func
 4477              		.fpu fpv4-sp-d16
 4478              		.type	mcpwm_get_tot_current_directional, %function
 4479              	mcpwm_get_tot_current_directional:
 4480              	.LFB282:
 4481              		.loc 1 798 0
 4482              		.cfi_startproc
 4483              		@ args = 0, pretend = 0, frame = 0
 4484              		@ frame_needed = 0, uses_anonymous_args = 0
 4485              		@ link register save eliminated.
 4486              	.LBB129:
 4487              	.LBB130:
 4488              		.loc 1 776 0
 4489 0000 064A     		ldr	r2, .L337
 4490              	.LBE130:
 4491              	.LBE129:
 4492              		.loc 1 800 0
 4493 0002 074B     		ldr	r3, .L337+4
 4494              	.LBB132:
 4495              	.LBB131:
 4496              		.loc 1 776 0
 4497 0004 92ED000A 		vldr.32	s0, [r2]
 4498              	.LBE131:
 4499              	.LBE132:
 4500              		.loc 1 800 0
 4501 0008 D3ED007A 		vldr.32	s15, [r3]
 4502 000c F5EEC07A 		vcmpe.f32	s15, #0
 4503 0010 F1EE10FA 		vmrs	APSR_nzcv, FPSCR
ARM GAS  /tmp/cchSvKkm.s 			page 80


 4504 0014 D8BF     		it	le
 4505 0016 B1EE400A 		vnegle.f32	s0, s0
 4506              		.loc 1 801 0
 4507 001a 7047     		bx	lr
 4508              	.L338:
 4509              		.align	2
 4510              	.L337:
 4511 001c 00000000 		.word	.LANCHOR40
 4512 0020 00000000 		.word	.LANCHOR19
 4513              		.cfi_endproc
 4514              	.LFE282:
 4515              		.size	mcpwm_get_tot_current_directional, .-mcpwm_get_tot_current_directional
 4516              		.section	.text.mcpwm_get_tot_current_directional_filtered,"ax",%progbits
 4517              		.align	1
 4518              		.p2align 4,,15
 4519              		.global	mcpwm_get_tot_current_directional_filtered
 4520              		.syntax unified
 4521              		.thumb
 4522              		.thumb_func
 4523              		.fpu fpv4-sp-d16
 4524              		.type	mcpwm_get_tot_current_directional_filtered, %function
 4525              	mcpwm_get_tot_current_directional_filtered:
 4526              	.LFB283:
 4527              		.loc 1 810 0
 4528              		.cfi_startproc
 4529              		@ args = 0, pretend = 0, frame = 0
 4530              		@ frame_needed = 0, uses_anonymous_args = 0
 4531              		@ link register save eliminated.
 4532              	.LBB133:
 4533              	.LBB134:
 4534              		.loc 1 788 0
 4535 0000 064A     		ldr	r2, .L341
 4536              	.LBE134:
 4537              	.LBE133:
 4538              		.loc 1 812 0
 4539 0002 074B     		ldr	r3, .L341+4
 4540              	.LBB136:
 4541              	.LBB135:
 4542              		.loc 1 788 0
 4543 0004 92ED000A 		vldr.32	s0, [r2]
 4544              	.LBE135:
 4545              	.LBE136:
 4546              		.loc 1 812 0
 4547 0008 D3ED007A 		vldr.32	s15, [r3]
 4548 000c F5EEC07A 		vcmpe.f32	s15, #0
 4549 0010 F1EE10FA 		vmrs	APSR_nzcv, FPSCR
 4550 0014 D8BF     		it	le
 4551 0016 B1EE400A 		vnegle.f32	s0, s0
 4552              		.loc 1 813 0
 4553 001a 7047     		bx	lr
 4554              	.L342:
 4555              		.align	2
 4556              	.L341:
 4557 001c 00000000 		.word	.LANCHOR41
 4558 0020 00000000 		.word	.LANCHOR19
 4559              		.cfi_endproc
 4560              	.LFE283:
ARM GAS  /tmp/cchSvKkm.s 			page 81


 4561              		.size	mcpwm_get_tot_current_directional_filtered, .-mcpwm_get_tot_current_directional_filtered
 4562              		.section	.text.mcpwm_get_tot_current_in,"ax",%progbits
 4563              		.align	1
 4564              		.p2align 4,,15
 4565              		.global	mcpwm_get_tot_current_in
 4566              		.syntax unified
 4567              		.thumb
 4568              		.thumb_func
 4569              		.fpu fpv4-sp-d16
 4570              		.type	mcpwm_get_tot_current_in, %function
 4571              	mcpwm_get_tot_current_in:
 4572              	.LFB284:
 4573              		.loc 1 821 0
 4574              		.cfi_startproc
 4575              		@ args = 0, pretend = 0, frame = 0
 4576              		@ frame_needed = 0, uses_anonymous_args = 0
 4577              		@ link register save eliminated.
 4578              	.LBB137:
 4579              	.LBB138:
 4580              		.loc 1 776 0
 4581 0000 054A     		ldr	r2, .L344
 4582              	.LBE138:
 4583              	.LBE137:
 4584              		.loc 1 822 0
 4585 0002 064B     		ldr	r3, .L344+4
 4586              	.LBB140:
 4587              	.LBB139:
 4588              		.loc 1 776 0
 4589 0004 92ED000A 		vldr.32	s0, [r2]
 4590              	.LBE139:
 4591              	.LBE140:
 4592              		.loc 1 822 0
 4593 0008 D3ED007A 		vldr.32	s15, [r3]
 4594 000c F0EEE77A 		vabs.f32	s15, s15
 4595              		.loc 1 823 0
 4596 0010 27EE800A 		vmul.f32	s0, s15, s0
 4597 0014 7047     		bx	lr
 4598              	.L345:
 4599 0016 00BF     		.align	2
 4600              	.L344:
 4601 0018 00000000 		.word	.LANCHOR40
 4602 001c 00000000 		.word	.LANCHOR19
 4603              		.cfi_endproc
 4604              	.LFE284:
 4605              		.size	mcpwm_get_tot_current_in, .-mcpwm_get_tot_current_in
 4606              		.section	.text.mcpwm_get_tot_current_in_filtered,"ax",%progbits
 4607              		.align	1
 4608              		.p2align 4,,15
 4609              		.global	mcpwm_get_tot_current_in_filtered
 4610              		.syntax unified
 4611              		.thumb
 4612              		.thumb_func
 4613              		.fpu fpv4-sp-d16
 4614              		.type	mcpwm_get_tot_current_in_filtered, %function
 4615              	mcpwm_get_tot_current_in_filtered:
 4616              	.LFB285:
 4617              		.loc 1 831 0
ARM GAS  /tmp/cchSvKkm.s 			page 82


 4618              		.cfi_startproc
 4619              		@ args = 0, pretend = 0, frame = 0
 4620              		@ frame_needed = 0, uses_anonymous_args = 0
 4621              		@ link register save eliminated.
 4622              	.LBB141:
 4623              	.LBB142:
 4624              		.loc 1 788 0
 4625 0000 054A     		ldr	r2, .L347
 4626              	.LBE142:
 4627              	.LBE141:
 4628              		.loc 1 832 0
 4629 0002 064B     		ldr	r3, .L347+4
 4630              	.LBB144:
 4631              	.LBB143:
 4632              		.loc 1 788 0
 4633 0004 92ED000A 		vldr.32	s0, [r2]
 4634              	.LBE143:
 4635              	.LBE144:
 4636              		.loc 1 832 0
 4637 0008 D3ED007A 		vldr.32	s15, [r3]
 4638 000c F0EEE77A 		vabs.f32	s15, s15
 4639              		.loc 1 833 0
 4640 0010 27EE800A 		vmul.f32	s0, s15, s0
 4641 0014 7047     		bx	lr
 4642              	.L348:
 4643 0016 00BF     		.align	2
 4644              	.L347:
 4645 0018 00000000 		.word	.LANCHOR41
 4646 001c 00000000 		.word	.LANCHOR19
 4647              		.cfi_endproc
 4648              	.LFE285:
 4649              		.size	mcpwm_get_tot_current_in_filtered, .-mcpwm_get_tot_current_in_filtered
 4650              		.section	.text.mcpwm_get_tachometer_value,"ax",%progbits
 4651              		.align	1
 4652              		.p2align 4,,15
 4653              		.global	mcpwm_get_tachometer_value
 4654              		.syntax unified
 4655              		.thumb
 4656              		.thumb_func
 4657              		.fpu fpv4-sp-d16
 4658              		.type	mcpwm_get_tachometer_value, %function
 4659              	mcpwm_get_tachometer_value:
 4660              	.LFB286:
 4661              		.loc 1 846 0
 4662              		.cfi_startproc
 4663              		@ args = 0, pretend = 0, frame = 0
 4664              		@ frame_needed = 0, uses_anonymous_args = 0
 4665              		@ link register save eliminated.
 4666              	.LVL325:
 4667              		.loc 1 847 0
 4668 0000 034B     		ldr	r3, .L354
 4669 0002 1A68     		ldr	r2, [r3]
 4670              	.LVL326:
 4671              		.loc 1 849 0
 4672 0004 08B1     		cbz	r0, .L349
 4673              		.loc 1 850 0
 4674 0006 0021     		movs	r1, #0
ARM GAS  /tmp/cchSvKkm.s 			page 83


 4675 0008 1960     		str	r1, [r3]
 4676              	.L349:
 4677              		.loc 1 854 0
 4678 000a 1046     		mov	r0, r2
 4679              	.LVL327:
 4680 000c 7047     		bx	lr
 4681              	.L355:
 4682 000e 00BF     		.align	2
 4683              	.L354:
 4684 0010 00000000 		.word	.LANCHOR12
 4685              		.cfi_endproc
 4686              	.LFE286:
 4687              		.size	mcpwm_get_tachometer_value, .-mcpwm_get_tachometer_value
 4688              		.section	.text.mcpwm_get_tachometer_abs_value,"ax",%progbits
 4689              		.align	1
 4690              		.p2align 4,,15
 4691              		.global	mcpwm_get_tachometer_abs_value
 4692              		.syntax unified
 4693              		.thumb
 4694              		.thumb_func
 4695              		.fpu fpv4-sp-d16
 4696              		.type	mcpwm_get_tachometer_abs_value, %function
 4697              	mcpwm_get_tachometer_abs_value:
 4698              	.LFB287:
 4699              		.loc 1 866 0
 4700              		.cfi_startproc
 4701              		@ args = 0, pretend = 0, frame = 0
 4702              		@ frame_needed = 0, uses_anonymous_args = 0
 4703              		@ link register save eliminated.
 4704              	.LVL328:
 4705              		.loc 1 867 0
 4706 0000 034B     		ldr	r3, .L361
 4707 0002 1A68     		ldr	r2, [r3]
 4708              	.LVL329:
 4709              		.loc 1 869 0
 4710 0004 08B1     		cbz	r0, .L356
 4711              		.loc 1 870 0
 4712 0006 0021     		movs	r1, #0
 4713 0008 1960     		str	r1, [r3]
 4714              	.L356:
 4715              		.loc 1 874 0
 4716 000a 1046     		mov	r0, r2
 4717              	.LVL330:
 4718 000c 7047     		bx	lr
 4719              	.L362:
 4720 000e 00BF     		.align	2
 4721              	.L361:
 4722 0010 00000000 		.word	.LANCHOR11
 4723              		.cfi_endproc
 4724              	.LFE287:
 4725              		.size	mcpwm_get_tachometer_abs_value, .-mcpwm_get_tachometer_abs_value
 4726              		.section	.text.mcpwm_stop_pwm,"ax",%progbits
 4727              		.align	1
 4728              		.p2align 4,,15
 4729              		.global	mcpwm_stop_pwm
 4730              		.syntax unified
 4731              		.thumb
ARM GAS  /tmp/cchSvKkm.s 			page 84


 4732              		.thumb_func
 4733              		.fpu fpv4-sp-d16
 4734              		.type	mcpwm_stop_pwm, %function
 4735              	mcpwm_stop_pwm:
 4736              	.LFB288:
 4737              		.loc 1 879 0
 4738              		.cfi_startproc
 4739              		@ args = 0, pretend = 0, frame = 0
 4740              		@ frame_needed = 0, uses_anonymous_args = 0
 4741              		@ link register save eliminated.
 4742              		.loc 1 880 0
 4743 0000 0648     		ldr	r0, .L365
 4744              	.LBB145:
 4745              	.LBB146:
 4746              		.loc 1 885 0
 4747 0002 0749     		ldr	r1, .L365+4
 4748              		.loc 1 886 0
 4749 0004 074A     		ldr	r2, .L365+8
 4750              	.LBE146:
 4751              	.LBE145:
 4752              		.loc 1 879 0
 4753 0006 10B4     		push	{r4}
 4754              		.cfi_def_cfa_offset 4
 4755              		.cfi_offset 4, -4
 4756              		.loc 1 880 0
 4757 0008 0A24     		movs	r4, #10
 4758 000a 0470     		strb	r4, [r0]
 4759              	.LBB149:
 4760              	.LBB147:
 4761              		.loc 1 885 0
 4762 000c 0023     		movs	r3, #0
 4763              	.LBE147:
 4764              	.LBE149:
 4765              		.loc 1 882 0
 4766 000e 5DF8044B 		ldr	r4, [sp], #4
 4767              		.cfi_restore 4
 4768              		.cfi_def_cfa_offset 0
 4769              	.LBB150:
 4770              	.LBB148:
 4771              		.loc 1 885 0
 4772 0012 0B70     		strb	r3, [r1]
 4773              		.loc 1 886 0
 4774 0014 1360     		str	r3, [r2]
 4775              		.loc 1 887 0
 4776 0016 FFF7FEBF 		b	stop_pwm_hw
 4777              	.LVL331:
 4778              	.L366:
 4779 001a 00BF     		.align	2
 4780              	.L365:
 4781 001c 00000000 		.word	.LANCHOR39
 4782 0020 00000000 		.word	.LANCHOR2
 4783 0024 00000000 		.word	.LANCHOR42
 4784              	.LBE148:
 4785              	.LBE150:
 4786              		.cfi_endproc
 4787              	.LFE288:
 4788              		.size	mcpwm_stop_pwm, .-mcpwm_stop_pwm
ARM GAS  /tmp/cchSvKkm.s 			page 85


 4789              		.section	.text.mcpwm_adc_inj_int_handler,"ax",%progbits
 4790              		.align	1
 4791              		.p2align 4,,15
 4792              		.global	mcpwm_adc_inj_int_handler
 4793              		.syntax unified
 4794              		.thumb
 4795              		.thumb_func
 4796              		.fpu fpv4-sp-d16
 4797              		.type	mcpwm_adc_inj_int_handler, %function
 4798              	mcpwm_adc_inj_int_handler:
 4799              	.LFB300:
 4800              		.loc 1 1437 0
 4801              		.cfi_startproc
 4802              		@ args = 0, pretend = 0, frame = 0
 4803              		@ frame_needed = 0, uses_anonymous_args = 0
 4804 0000 2DE9F041 		push	{r4, r5, r6, r7, r8, lr}
 4805              		.cfi_def_cfa_offset 24
 4806              		.cfi_offset 4, -24
 4807              		.cfi_offset 5, -20
 4808              		.cfi_offset 6, -16
 4809              		.cfi_offset 7, -12
 4810              		.cfi_offset 8, -8
 4811              		.cfi_offset 14, -4
 4812 0004 2DED028B 		vpush.64	{d8}
 4813              		.cfi_def_cfa_offset 32
 4814              		.cfi_offset 80, -32
 4815              		.cfi_offset 81, -28
 4816              		.loc 1 1438 0
 4817 0008 FFF7FEFF 		bl	timer_time_now
 4818              	.LVL332:
 4819              		.loc 1 1440 0
 4820 000c 1421     		movs	r1, #20
 4821              		.loc 1 1438 0
 4822 000e 0546     		mov	r5, r0
 4823              	.LVL333:
 4824              		.loc 1 1440 0
 4825 0010 AB48     		ldr	r0, .L444
 4826              	.LVL334:
 4827 0012 FFF7FEFF 		bl	ADC_GetInjectedConversionValue
 4828              	.LVL335:
 4829              		.loc 1 1441 0
 4830 0016 1421     		movs	r1, #20
 4831              		.loc 1 1440 0
 4832 0018 0646     		mov	r6, r0
 4833              	.LVL336:
 4834              		.loc 1 1441 0
 4835 001a AA48     		ldr	r0, .L444+4
 4836              	.LVL337:
 4837 001c FFF7FEFF 		bl	ADC_GetInjectedConversionValue
 4838              	.LVL338:
 4839              		.loc 1 1443 0
 4840 0020 1821     		movs	r1, #24
 4841              		.loc 1 1441 0
 4842 0022 0446     		mov	r4, r0
 4843              	.LVL339:
 4844              		.loc 1 1443 0
 4845 0024 A748     		ldr	r0, .L444+4
ARM GAS  /tmp/cchSvKkm.s 			page 86


 4846              	.LVL340:
 4847 0026 FFF7FEFF 		bl	ADC_GetInjectedConversionValue
 4848              	.LVL341:
 4849              		.loc 1 1444 0
 4850 002a 1821     		movs	r1, #24
 4851 002c A448     		ldr	r0, .L444
 4852 002e FFF7FEFF 		bl	ADC_GetInjectedConversionValue
 4853              	.LVL342:
 4854              		.loc 1 1447 0
 4855 0032 1421     		movs	r1, #20
 4856 0034 A448     		ldr	r0, .L444+8
 4857 0036 FFF7FEFF 		bl	ADC_GetInjectedConversionValue
 4858              	.LVL343:
 4859              		.loc 1 1456 0
 4860 003a A44B     		ldr	r3, .L444+12
 4861 003c 1A68     		ldr	r2, [r3]
 4862 003e D107     		lsls	r1, r2, #31
 4863 0040 02D5     		bpl	.L368
 4864              		.loc 1 1457 0
 4865 0042 A34A     		ldr	r2, .L444+16
 4866 0044 D688     		ldrh	r6, [r2, #6]
 4867              	.LVL344:
 4868 0046 B6B2     		uxth	r6, r6
 4869              	.LVL345:
 4870              	.L368:
 4871              		.loc 1 1460 0
 4872 0048 1A68     		ldr	r2, [r3]
 4873 004a 9207     		lsls	r2, r2, #30
 4874 004c 02D5     		bpl	.L369
 4875              		.loc 1 1461 0
 4876 004e A04A     		ldr	r2, .L444+16
 4877 0050 1489     		ldrh	r4, [r2, #8]
 4878              	.LVL346:
 4879 0052 A4B2     		uxth	r4, r4
 4880              	.LVL347:
 4881              	.L369:
 4882              		.loc 1 1465 0
 4883 0054 1B68     		ldr	r3, [r3]
 4884 0056 5B07     		lsls	r3, r3, #29
 4885 0058 02D5     		bpl	.L370
 4886              		.loc 1 1466 0
 4887 005a 9D4B     		ldr	r3, .L444+16
 4888 005c 5889     		ldrh	r0, [r3, #10]
 4889              	.LVL348:
 4890 005e 80B2     		uxth	r0, r0
 4891              	.LVL349:
 4892              	.L370:
 4893              		.loc 1 1483 0
 4894 0060 9C4F     		ldr	r7, .L444+20
 4895              		.loc 1 1484 0
 4896 0062 9D49     		ldr	r1, .L444+24
 4897              		.loc 1 1483 0
 4898 0064 3B68     		ldr	r3, [r7]
 4899              		.loc 1 1486 0
 4900 0066 9D4A     		ldr	r2, .L444+28
 4901              		.loc 1 1499 0
 4902 0068 DFF8C8C2 		ldr	ip, .L444+116
ARM GAS  /tmp/cchSvKkm.s 			page 87


 4903              		.loc 1 1531 0
 4904 006c DFF8C882 		ldr	r8, .L444+120
 4905              		.loc 1 1483 0
 4906 0070 3344     		add	r3, r3, r6
 4907 0072 3B60     		str	r3, [r7]
 4908              		.loc 1 1484 0
 4909 0074 0B68     		ldr	r3, [r1]
 4910              		.loc 1 1489 0
 4911 0076 9A4F     		ldr	r7, .L444+32
 4912              		.loc 1 1484 0
 4913 0078 2344     		add	r3, r3, r4
 4914 007a 0B60     		str	r3, [r1]
 4915              		.loc 1 1486 0
 4916 007c 1368     		ldr	r3, [r2]
 4917              		.loc 1 1491 0
 4918 007e 9949     		ldr	r1, .L444+36
 4919              		.loc 1 1486 0
 4920 0080 0344     		add	r3, r3, r0
 4921 0082 1360     		str	r3, [r2]
 4922              		.loc 1 1489 0
 4923 0084 3A68     		ldr	r2, [r7]
 4924              		.loc 1 1492 0
 4925 0086 984B     		ldr	r3, .L444+40
 4926              		.loc 1 1489 0
 4927 0088 0132     		adds	r2, r2, #1
 4928 008a 3A60     		str	r2, [r7]
 4929              		.loc 1 1491 0
 4930 008c 0A68     		ldr	r2, [r1]
 4931              	.LVL350:
 4932              		.loc 1 1492 0
 4933 008e 1A68     		ldr	r2, [r3]
 4934              	.LVL351:
 4935              		.loc 1 1493 0
 4936 0090 0F68     		ldr	r7, [r1]
 4937              		.loc 1 1494 0
 4938 0092 1A68     		ldr	r2, [r3]
 4939              		.loc 1 1495 0
 4940 0094 D1F800E0 		ldr	lr, [r1]
 4941              		.loc 1 1496 0
 4942 0098 1B68     		ldr	r3, [r3]
 4943              		.loc 1 1499 0
 4944 009a DCF80030 		ldr	r3, [ip]
 4945              		.loc 1 1500 0
 4946 009e DCF80030 		ldr	r3, [ip]
 4947              		.loc 1 1493 0
 4948 00a2 F61B     		subs	r6, r6, r7
 4949              	.LVL352:
 4950              		.loc 1 1521 0
 4951 00a4 914F     		ldr	r7, .L444+44
 4952              		.loc 1 1494 0
 4953 00a6 A41A     		subs	r4, r4, r2
 4954              	.LVL353:
 4955              		.loc 1 1500 0
 4956 00a8 C01A     		subs	r0, r0, r3
 4957              	.LVL354:
 4958              		.loc 1 1531 0
 4959 00aa D8F80020 		ldr	r2, [r8]
ARM GAS  /tmp/cchSvKkm.s 			page 88


 4960              		.loc 1 1521 0
 4961 00ae 3E60     		str	r6, [r7]
 4962              		.loc 1 1522 0
 4963 00b0 7C60     		str	r4, [r7, #4]
 4964              		.loc 1 1525 0
 4965 00b2 B860     		str	r0, [r7, #8]
 4966              	.LVL355:
 4967              		.loc 1 1531 0
 4968 00b4 9378     		ldrb	r3, [r2, #2]	@ zero_extendqisi2
 4969 00b6 012B     		cmp	r3, #1
 4970 00b8 23D0     		beq	.L440
 4971              	.LBB151:
 4972              		.loc 1 1564 0
 4973 00ba 8D4C     		ldr	r4, .L444+48
 4974              	.LVL356:
 4975 00bc 2378     		ldrb	r3, [r4]	@ zero_extendqisi2
 4976 00be 032B     		cmp	r3, #3
 4977 00c0 00F08C81 		beq	.L441
 4978              	.LBB152:
 4979              		.loc 1 1571 0
 4980 00c4 8B4B     		ldr	r3, .L444+52
 4981 00c6 1B68     		ldr	r3, [r3]
 4982 00c8 6BB1     		cbz	r3, .L376
 4983              		.loc 1 1572 0
 4984 00ca 8B4B     		ldr	r3, .L444+56
 4985 00cc 1A68     		ldr	r2, [r3]
 4986 00ce 013A     		subs	r2, r2, #1
 4987 00d0 052A     		cmp	r2, #5
 4988 00d2 00F2B681 		bhi	.L411
 4989 00d6 DFE812F0 		tbh	[pc, r2, lsl #1]
 4990              	.L379:
 4991 00da 7400     		.2byte	(.L389-.L379)/2
 4992 00dc 7400     		.2byte	(.L389-.L379)/2
 4993 00de E500     		.2byte	(.L387-.L379)/2
 4994 00e0 E500     		.2byte	(.L387-.L379)/2
 4995 00e2 EC00     		.2byte	(.L391-.L379)/2
 4996 00e4 EC00     		.2byte	(.L391-.L379)/2
 4997              		.p2align 1
 4998              	.L376:
 4999              		.loc 1 1582 0
 5000 00e6 844B     		ldr	r3, .L444+56
 5001 00e8 1A68     		ldr	r2, [r3]
 5002 00ea 013A     		subs	r2, r2, #1
 5003 00ec 052A     		cmp	r2, #5
 5004 00ee 00F2A881 		bhi	.L411
 5005 00f2 DFE812F0 		tbh	[pc, r2, lsl #1]
 5006              	.L386:
 5007 00f6 D700     		.2byte	(.L387-.L386)/2
 5008 00f8 D700     		.2byte	(.L387-.L386)/2
 5009 00fa 6600     		.2byte	(.L389-.L386)/2
 5010 00fc 6600     		.2byte	(.L389-.L386)/2
 5011 00fe DE00     		.2byte	(.L391-.L386)/2
 5012 0100 DE00     		.2byte	(.L391-.L386)/2
 5013              	.LVL357:
 5014              		.p2align 1
 5015              	.L440:
 5016              	.LBE152:
ARM GAS  /tmp/cchSvKkm.s 			page 89


 5017              	.LBE151:
 5018              		.loc 1 1532 0
 5019 0102 7C4B     		ldr	r3, .L444+52
 5020 0104 1B68     		ldr	r3, [r3]
 5021 0106 002B     		cmp	r3, #0
 5022 0108 4FD1     		bne	.L442
 5023              		.loc 1 1539 0
 5024 010a 714B     		ldr	r3, .L444+16
 5025 010c DB88     		ldrh	r3, [r3, #6]
 5026 010e 0968     		ldr	r1, [r1]
 5027 0110 5B1A     		subs	r3, r3, r1
 5028 0112 07EE903A 		vmov	s15, r3	@ int
 5029 0116 F8EEE77A 		vcvt.f32.s32	s15, s15
 5030 011a B1EE678A 		vneg.f32	s16, s15
 5031              	.LVL358:
 5032              	.L373:
 5033              		.loc 1 1694 0
 5034 011e DFED777A 		vldr.32	s15, .L444+60
 5035 0122 774B     		ldr	r3, .L444+64
 5036              		.loc 1 1697 0
 5037 0124 DFED776A 		vldr.32	s13, .L444+68
 5038              		.loc 1 1694 0
 5039 0128 68EE277A 		vmul.f32	s15, s16, s15
 5040 012c C3ED007A 		vstr.32	s15, [r3]
 5041              		.loc 1 1697 0
 5042 0130 93ED007A 		vldr.32	s14, [r3]
 5043 0134 D2ED057A 		vldr.32	s15, [r2, #20]
 5044 0138 67EEA67A 		vmul.f32	s15, s15, s13
 5045 013c B0EEC77A 		vabs.f32	s14, s14
 5046 0140 B4EEE77A 		vcmpe.f32	s14, s15
 5047 0144 F1EE10FA 		vmrs	APSR_nzcv, FPSCR
 5048 0148 14DD     		ble	.L406
 5049              		.loc 1 1698 0
 5050 014a 93ED007A 		vldr.32	s14, [r3]
 5051 014e D2ED057A 		vldr.32	s15, [r2, #20]
 5052 0152 B5EEC07A 		vcmpe.f32	s14, #0
 5053 0156 F1EE10FA 		vmrs	APSR_nzcv, FPSCR
 5054 015a BFEE007A 		vmov.f32	s14, #-1.0e+0
 5055 015e B7EE006A 		vmov.f32	s12, #1.0e+0
 5056 0162 58BF     		it	pl
 5057 0164 B0EE467A 		vmovpl.f32	s14, s12
 5058 0168 67EE877A 		vmul.f32	s15, s15, s14
 5059 016c 67EEA67A 		vmul.f32	s15, s15, s13
 5060 0170 C3ED007A 		vstr.32	s15, [r3]
 5061              	.L406:
 5062              		.loc 1 1701 0
 5063 0174 644C     		ldr	r4, .L444+72
 5064 0176 93ED000A 		vldr.32	s0, [r3]
 5065 017a 6448     		ldr	r0, .L444+76
 5066 017c 2246     		mov	r2, r4
 5067 017e 0421     		movs	r1, #4
 5068 0180 FFF7FEFF 		bl	filter_add_sample
 5069              	.LVL359:
 5070              		.loc 1 1703 0
 5071 0184 2368     		ldr	r3, [r4]
 5072 0186 6249     		ldr	r1, .L444+80
 5073 0188 6048     		ldr	r0, .L444+76
ARM GAS  /tmp/cchSvKkm.s 			page 90


 5074 018a 0422     		movs	r2, #4
 5075 018c FFF7FEFF 		bl	filter_run_fir_iteration
 5076              	.LVL360:
 5077 0190 604B     		ldr	r3, .L444+84
 5078              		.loc 1 1707 0
 5079 0192 2846     		mov	r0, r5
 5080              		.loc 1 1703 0
 5081 0194 83ED000A 		vstr.32	s0, [r3]
 5082              		.loc 1 1707 0
 5083 0198 FFF7FEFF 		bl	timer_seconds_elapsed_since
 5084              	.LVL361:
 5085              		.loc 1 1708 0
 5086 019c BDEC028B 		vldm	sp!, {d8}
 5087              		.cfi_remember_state
 5088              		.cfi_restore 80
 5089              		.cfi_restore 81
 5090              		.cfi_def_cfa_offset 24
 5091              	.LVL362:
 5092              		.loc 1 1707 0
 5093 01a0 5D4B     		ldr	r3, .L444+88
 5094 01a2 83ED000A 		vstr.32	s0, [r3]
 5095              		.loc 1 1708 0
 5096 01a6 BDE8F081 		pop	{r4, r5, r6, r7, r8, pc}
 5097              	.LVL363:
 5098              	.L442:
 5099              		.cfi_restore_state
 5100              		.loc 1 1534 0
 5101 01aa 494B     		ldr	r3, .L444+16
 5102 01ac 5B89     		ldrh	r3, [r3, #10]
 5103 01ae DCF80010 		ldr	r1, [ip]
 5104 01b2 5B1A     		subs	r3, r3, r1
 5105 01b4 07EE903A 		vmov	s15, r3	@ int
 5106 01b8 F8EEE77A 		vcvt.f32.s32	s15, s15
 5107 01bc B1EE678A 		vneg.f32	s16, s15
 5108              	.LVL364:
 5109 01c0 ADE7     		b	.L373
 5110              	.LVL365:
 5111              	.L389:
 5112              	.LBB159:
 5113              	.LBB153:
 5114              		.loc 1 1586 0
 5115 01c2 D7ED027A 		vldr.32	s15, [r7, #8]	@ int
 5116 01c6 F8EEE77A 		vcvt.f32.s32	s15, s15
 5117 01ca F1EE677A 		vneg.f32	s15, s15
 5118              	.LVL366:
 5119              	.L377:
 5120              		.loc 1 1619 0
 5121 01ce 534A     		ldr	r2, .L444+92
 5122 01d0 1868     		ldr	r0, [r3]
 5123              	.LVL367:
 5124 01d2 1168     		ldr	r1, [r2]
 5125              		.loc 1 1622 0
 5126 01d4 1B68     		ldr	r3, [r3]
 5127 01d6 1360     		str	r3, [r2]
 5128              		.loc 1 1619 0
 5129 01d8 8842     		cmp	r0, r1
 5130              		.loc 1 1620 0
ARM GAS  /tmp/cchSvKkm.s 			page 91


 5131 01da 16BF     		itet	ne
 5132 01dc 5049     		ldrne	r1, .L444+96
 5133 01de 5049     		ldreq	r1, .L444+96
 5134 01e0 91ED008A 		vldrne.32	s16, [r1]
 5135              	.LVL368:
 5136              		.loc 1 1623 0
 5137 01e4 C1ED007A 		vstr.32	s15, [r1]
 5138 01e8 08BF     		it	eq
 5139 01ea B0EE678A 		vmoveq.f32	s16, s15
 5140              	.LVL369:
 5141              	.L375:
 5142              	.LBE153:
 5143              		.loc 1 1626 0
 5144 01ee 4D4E     		ldr	r6, .L444+100
 5145              	.LVL370:
 5146 01f0 3368     		ldr	r3, [r6]
 5147 01f2 042B     		cmp	r3, #4
 5148 01f4 0BD0     		beq	.L443
 5149              	.L393:
 5150              		.loc 1 1673 0
 5151 01f6 002B     		cmp	r3, #0
 5152 01f8 00F0A280 		beq	.L402
 5153              		.loc 1 1677 0
 5154 01fc 2278     		ldrb	r2, [r4]	@ zero_extendqisi2
 5155              		.loc 1 1674 0
 5156 01fe 013B     		subs	r3, r3, #1
 5157              		.loc 1 1677 0
 5158 0200 012A     		cmp	r2, #1
 5159              		.loc 1 1674 0
 5160 0202 3360     		str	r3, [r6]
 5161              		.loc 1 1677 0
 5162 0204 00F0E680 		beq	.L403
 5163              	.L439:
 5164 0208 D8F80020 		ldr	r2, [r8]
 5165 020c 87E7     		b	.L373
 5166              	.L443:
 5167              	.LBB154:
 5168              		.loc 1 1627 0
 5169 020e 97ED007A 		vldr.32	s14, [r7]	@ int
 5170              		.loc 1 1628 0
 5171 0212 D7ED017A 		vldr.32	s15, [r7, #4]	@ int
 5172              		.loc 1 1631 0
 5173 0216 444B     		ldr	r3, .L444+104
 5174 0218 444A     		ldr	r2, .L444+108
 5175 021a 1968     		ldr	r1, [r3]
 5176              		.loc 1 1627 0
 5177 021c B8EEC77A 		vcvt.f32.s32	s14, s14
 5178              		.loc 1 1628 0
 5179 0220 F8EEE77A 		vcvt.f32.s32	s15, s15
 5180              		.loc 1 1627 0
 5181 0224 B0EEC77A 		vabs.f32	s14, s14
 5182              	.LVL371:
 5183              		.loc 1 1628 0
 5184 0228 F0EEE77A 		vabs.f32	s15, s15
 5185              	.LVL372:
 5186              		.loc 1 1630 0
 5187 022c B4EEE77A 		vcmpe.f32	s14, s15
ARM GAS  /tmp/cchSvKkm.s 			page 92


 5188 0230 F1EE10FA 		vmrs	APSR_nzcv, FPSCR
 5189              		.loc 1 1631 0
 5190 0234 02EB8101 		add	r1, r2, r1, lsl #2
 5191 0238 CCBF     		ite	gt
 5192 023a 81ED007A 		vstrgt.32	s14, [r1]
 5193              		.loc 1 1633 0
 5194 023e C1ED007A 		vstrle.32	s15, [r1]
 5195              		.loc 1 1636 0
 5196 0242 1968     		ldr	r1, [r3]
 5197 0244 0029     		cmp	r1, #0
 5198 0246 40F3EA80 		ble	.L397
 5199              		.loc 1 1638 0
 5200 024a 1968     		ldr	r1, [r3]
 5201              		.loc 1 1637 0
 5202 024c 3848     		ldr	r0, .L444+112
 5203              		.loc 1 1638 0
 5204 024e 0139     		subs	r1, r1, #1
 5205 0250 02EB8101 		add	r1, r2, r1, lsl #2
 5206 0254 D1ED007A 		vldr.32	s15, [r1]
 5207              	.LVL373:
 5208 0258 1968     		ldr	r1, [r3]
 5209 025a 02EB8101 		add	r1, r2, r1, lsl #2
 5210 025e 91ED007A 		vldr.32	s14, [r1]
 5211              	.LVL374:
 5212              		.loc 1 1637 0
 5213 0262 1968     		ldr	r1, [r3]
 5214              		.loc 1 1638 0
 5215 0264 77EEC77A 		vsub.f32	s15, s15, s14
 5216              		.loc 1 1637 0
 5217 0268 00EB8101 		add	r1, r0, r1, lsl #2
 5218 026c C1ED007A 		vstr.32	s15, [r1]
 5219              	.L398:
 5220              		.loc 1 1644 0
 5221 0270 174F     		ldr	r7, .L444+16
 5222              		.loc 1 1647 0
 5223 0272 2148     		ldr	r0, .L444+56
 5224              		.loc 1 1644 0
 5225 0274 F98A     		ldrh	r1, [r7, #22]
 5226              		.loc 1 1647 0
 5227 0276 0068     		ldr	r0, [r0]
 5228 0278 0628     		cmp	r0, #6
 5229              		.loc 1 1644 0
 5230 027a 89B2     		uxth	r1, r1
 5231              	.LVL375:
 5232 027c 00F28B80 		bhi	.L399
 5233 0280 4FF0010C 		mov	ip, #1
 5234 0284 0CFA00F0 		lsl	r0, ip, r0
 5235 0288 10F0480F 		tst	r0, #72
 5236 028c 21FA0CF1 		lsr	r1, r1, ip
 5237              	.LVL376:
 5238 0290 75D1     		bne	.L400
 5239 0292 10F0240F 		tst	r0, #36
 5240 0296 40F0D280 		bne	.L401
 5241 029a 10F0120F 		tst	r0, #18
 5242 029e 7AD0     		beq	.L399
 5243              		.loc 1 1650 0
 5244 02a0 3888     		ldrh	r0, [r7]
ARM GAS  /tmp/cchSvKkm.s 			page 93


 5245 02a2 6DE0     		b	.L438
 5246              	.LVL377:
 5247              	.L387:
 5248              	.LBE154:
 5249              	.LBB155:
 5250              		.loc 1 1584 0
 5251 02a4 D7ED017A 		vldr.32	s15, [r7, #4]	@ int
 5252 02a8 F8EEE77A 		vcvt.f32.s32	s15, s15
 5253 02ac F1EE677A 		vneg.f32	s15, s15
 5254              	.LVL378:
 5255 02b0 8DE7     		b	.L377
 5256              	.LVL379:
 5257              	.L391:
 5258              		.loc 1 1588 0
 5259 02b2 D7ED007A 		vldr.32	s15, [r7]	@ int
 5260 02b6 F8EEE77A 		vcvt.f32.s32	s15, s15
 5261 02ba F1EE677A 		vneg.f32	s15, s15
 5262              	.LVL380:
 5263 02be 86E7     		b	.L377
 5264              	.L445:
 5265              		.align	2
 5266              	.L444:
 5267 02c0 00200140 		.word	1073815552
 5268 02c4 00210140 		.word	1073815808
 5269 02c8 00220140 		.word	1073816064
 5270 02cc 00000000 		.word	.LANCHOR1
 5271 02d0 00000000 		.word	ADC_Value
 5272 02d4 00000000 		.word	.LANCHOR51
 5273 02d8 00000000 		.word	.LANCHOR52
 5274 02dc 00000000 		.word	.LANCHOR53
 5275 02e0 00000000 		.word	.LANCHOR54
 5276 02e4 00000000 		.word	.LANCHOR55
 5277 02e8 00000000 		.word	.LANCHOR56
 5278 02ec 00000000 		.word	ADC_curr_norm_value
 5279 02f0 00000000 		.word	.LANCHOR2
 5280 02f4 00000000 		.word	.LANCHOR4
 5281 02f8 00000000 		.word	.LANCHOR3
 5282 02fc E64CCE3E 		.word	1053707494
 5283 0300 00000000 		.word	.LANCHOR40
 5284 0304 9A99993F 		.word	1067030938
 5285 0308 00000000 		.word	.LANCHOR68
 5286 030c 00000000 		.word	.LANCHOR69
 5287 0310 00000000 		.word	.LANCHOR50
 5288 0314 00000000 		.word	.LANCHOR41
 5289 0318 00000000 		.word	.LANCHOR70
 5290 031c 00000000 		.word	.LANCHOR60
 5291 0320 00000000 		.word	.LANCHOR61
 5292 0324 00000000 		.word	.LANCHOR62
 5293 0328 00000000 		.word	.LANCHOR34
 5294 032c 00000000 		.word	.LANCHOR63
 5295 0330 00000000 		.word	.LANCHOR64
 5296 0334 00000000 		.word	.LANCHOR57
 5297 0338 00000000 		.word	.LANCHOR0
 5298 033c CDCC4C3E 		.word	1045220557
 5299              	.LVL381:
 5300              	.L402:
 5301              	.LBE155:
ARM GAS  /tmp/cchSvKkm.s 			page 94


 5302              		.loc 1 1677 0
 5303 0340 2378     		ldrb	r3, [r4]	@ zero_extendqisi2
 5304 0342 012B     		cmp	r3, #1
 5305 0344 7FF460AF 		bne	.L439
 5306              	.L404:
 5307              		.loc 1 1678 0
 5308 0348 0523     		movs	r3, #5
 5309              		.loc 1 1680 0
 5310 034a 1FED040A 		vldr.32	s0, .L444+124
 5311              		.loc 1 1678 0
 5312 034e 3360     		str	r3, [r6]
 5313              		.loc 1 1680 0
 5314 0350 FFF7FEFF 		bl	set_duty_cycle_hw
 5315              	.LVL382:
 5316              		.loc 1 1682 0
 5317 0354 3C4B     		ldr	r3, .L446
 5318 0356 1A68     		ldr	r2, [r3]
 5319 0358 0132     		adds	r2, r2, #1
 5320 035a 1A60     		str	r2, [r3]
 5321              		.loc 1 1683 0
 5322 035c 1A68     		ldr	r2, [r3]
 5323 035e 052A     		cmp	r2, #5
 5324              		.loc 1 1684 0
 5325 0360 C4BF     		itt	gt
 5326 0362 0022     		movgt	r2, #0
 5327 0364 1A60     		strgt	r2, [r3]
 5328              		.loc 1 1687 0
 5329 0366 1B68     		ldr	r3, [r3]
 5330 0368 384A     		ldr	r2, .L446+4
 5331 036a 0133     		adds	r3, r3, #1
 5332 036c 1360     		str	r3, [r2]
 5333              		.loc 1 1689 0
 5334 036e 1068     		ldr	r0, [r2]
 5335 0370 FFF7FEFF 		bl	set_next_comm_step
 5336              	.LVL383:
 5337              		.loc 1 1690 0
 5338 0374 2021     		movs	r1, #32
 5339 0376 3648     		ldr	r0, .L446+8
 5340 0378 FFF7FEFF 		bl	TIM_GenerateEvent
 5341              	.LVL384:
 5342 037c 44E7     		b	.L439
 5343              	.L400:
 5344              	.LBB156:
 5345              		.loc 1 1660 0
 5346 037e B888     		ldrh	r0, [r7, #4]
 5347              	.L438:
 5348 0380 344F     		ldr	r7, .L446+12
 5349 0382 411A     		subs	r1, r0, r1
 5350 0384 07EE901A 		vmov	s15, r1	@ int
 5351 0388 1868     		ldr	r0, [r3]
 5352 038a F8EEE77A 		vcvt.f32.s32	s15, s15
 5353 038e 07EB8001 		add	r1, r7, r0, lsl #2
 5354 0392 C1ED007A 		vstr.32	s15, [r1]
 5355              	.L399:
 5356              		.loc 1 1667 0
 5357 0396 1868     		ldr	r0, [r3]
 5358 0398 2F49     		ldr	r1, .L446+16
ARM GAS  /tmp/cchSvKkm.s 			page 95


 5359 039a 02EB8002 		add	r2, r2, r0, lsl #2
 5360 039e D2ED007A 		vldr.32	s15, [r2]
 5361 03a2 1868     		ldr	r0, [r3]
 5362              		.loc 1 1668 0
 5363 03a4 2D4A     		ldr	r2, .L446+20
 5364              		.loc 1 1667 0
 5365 03a6 01EB8001 		add	r1, r1, r0, lsl #2
 5366 03aa 91ED007A 		vldr.32	s14, [r1]
 5367 03ae 37EE277A 		vadd.f32	s14, s14, s15
 5368              		.loc 1 1668 0
 5369 03b2 F7EE006A 		vmov.f32	s13, #1.0e+0
 5370              		.loc 1 1667 0
 5371 03b6 81ED007A 		vstr.32	s14, [r1]
 5372              		.loc 1 1668 0
 5373 03ba 1B68     		ldr	r3, [r3]
 5374 03bc 02EB8303 		add	r3, r2, r3, lsl #2
 5375 03c0 D3ED007A 		vldr.32	s15, [r3]
 5376 03c4 77EEA67A 		vadd.f32	s15, s15, s13
 5377 03c8 C3ED007A 		vstr.32	s15, [r3]
 5378              		.loc 1 1670 0
 5379 03cc FFF7FEFF 		bl	stop_pwm_hw
 5380              	.LVL385:
 5381 03d0 3368     		ldr	r3, [r6]
 5382 03d2 10E7     		b	.L393
 5383              	.L403:
 5384              	.LBE156:
 5385              		.loc 1 1677 0 discriminator 1
 5386 03d4 002B     		cmp	r3, #0
 5387 03d6 7FF417AF 		bne	.L439
 5388 03da B5E7     		b	.L404
 5389              	.LVL386:
 5390              	.L441:
 5391              	.LBB157:
 5392              		.loc 1 1565 0
 5393 03dc D7ED006A 		vldr.32	s13, [r7]	@ int
 5394              		.loc 1 1566 0
 5395 03e0 D7ED017A 		vldr.32	s15, [r7, #4]	@ int
 5396              		.loc 1 1567 0
 5397 03e4 97ED027A 		vldr.32	s14, [r7, #8]	@ int
 5398              		.loc 1 1566 0
 5399 03e8 F8EEE77A 		vcvt.f32.s32	s15, s15
 5400              		.loc 1 1565 0
 5401 03ec F8EEE66A 		vcvt.f32.s32	s13, s13
 5402              	.LVL387:
 5403              		.loc 1 1568 0
 5404 03f0 67EEA77A 		vmul.f32	s15, s15, s15
 5405              	.LVL388:
 5406              		.loc 1 1567 0
 5407 03f4 B8EEC77A 		vcvt.f32.s32	s14, s14
 5408              	.LVL389:
 5409              		.loc 1 1568 0
 5410 03f8 E6EEA67A 		vfma.f32	s15, s13, s13
 5411 03fc F7EE086A 		vmov.f32	s13, #1.5e+0
 5412              	.LVL390:
 5413 0400 E7EE077A 		vfma.f32	s15, s14, s14
 5414 0404 87EEA60A 		vdiv.f32	s0, s15, s13
 5415 0408 B5EE400A 		vcmp.f32	s0, #0
ARM GAS  /tmp/cchSvKkm.s 			page 96


 5416 040c F1EE10FA 		vmrs	APSR_nzcv, FPSCR
 5417 0410 B1EEC08A 		vsqrt.f32	s16, s0
 5418 0414 7FF5EBAE 		bpl	.L375
 5419 0418 FFF7FEFF 		bl	sqrtf
 5420              	.LVL391:
 5421 041c E7E6     		b	.L375
 5422              	.LVL392:
 5423              	.L397:
 5424              	.LBE157:
 5425              	.LBB158:
 5426              		.loc 1 1641 0
 5427 041e D2ED057A 		vldr.32	s15, [r2, #20]
 5428              	.LVL393:
 5429 0422 1868     		ldr	r0, [r3]
 5430              		.loc 1 1640 0
 5431 0424 0E49     		ldr	r1, .L446+24
 5432              		.loc 1 1641 0
 5433 0426 02EB8000 		add	r0, r2, r0, lsl #2
 5434 042a 90ED007A 		vldr.32	s14, [r0]
 5435              	.LVL394:
 5436              		.loc 1 1640 0
 5437 042e 1868     		ldr	r0, [r3]
 5438              		.loc 1 1641 0
 5439 0430 77EEC77A 		vsub.f32	s15, s15, s14
 5440              		.loc 1 1640 0
 5441 0434 01EB8001 		add	r1, r1, r0, lsl #2
 5442 0438 C1ED007A 		vstr.32	s15, [r1]
 5443 043c 18E7     		b	.L398
 5444              	.L401:
 5445              		.loc 1 1655 0
 5446 043e 7888     		ldrh	r0, [r7, #2]
 5447 0440 9EE7     		b	.L438
 5448              	.LVL395:
 5449              	.L411:
 5450              	.LBE158:
 5451              	.LBE159:
 5452              		.loc 1 1530 0
 5453 0442 DFED087A 		vldr.32	s15, .L446+28
 5454 0446 C2E6     		b	.L377
 5455              	.L447:
 5456              		.align	2
 5457              	.L446:
 5458 0448 00000000 		.word	.LANCHOR34
 5459 044c 00000000 		.word	.LANCHOR3
 5460 0450 00000140 		.word	1073807360
 5461 0454 00000000 		.word	.LANCHOR65
 5462 0458 00000000 		.word	.LANCHOR66
 5463 045c 00000000 		.word	.LANCHOR67
 5464 0460 00000000 		.word	.LANCHOR64
 5465 0464 00000000 		.word	0
 5466              		.cfi_endproc
 5467              	.LFE300:
 5468              		.size	mcpwm_adc_inj_int_handler, .-mcpwm_adc_inj_int_handler
 5469              		.section	.text.mcpwm_set_detect,"ax",%progbits
 5470              		.align	1
 5471              		.p2align 4,,15
 5472              		.global	mcpwm_set_detect
ARM GAS  /tmp/cchSvKkm.s 			page 97


 5473              		.syntax unified
 5474              		.thumb
 5475              		.thumb_func
 5476              		.fpu fpv4-sp-d16
 5477              		.type	mcpwm_set_detect, %function
 5478              	mcpwm_set_detect:
 5479              	.LFB302:
 5480              		.loc 1 2088 0
 5481              		.cfi_startproc
 5482              		@ args = 0, pretend = 0, frame = 0
 5483              		@ frame_needed = 0, uses_anonymous_args = 0
 5484 0000 F8B5     		push	{r3, r4, r5, r6, r7, lr}
 5485              		.cfi_def_cfa_offset 24
 5486              		.cfi_offset 3, -24
 5487              		.cfi_offset 4, -20
 5488              		.cfi_offset 5, -16
 5489              		.cfi_offset 6, -12
 5490              		.cfi_offset 7, -8
 5491              		.cfi_offset 14, -4
 5492              		.loc 1 2089 0
 5493 0002 FFF7FEFF 		bl	mc_interface_try_input
 5494              	.LVL396:
 5495 0006 00B1     		cbz	r0, .L453
 5496              		.loc 1 2105 0
 5497 0008 F8BD     		pop	{r3, r4, r5, r6, r7, pc}
 5498              	.L453:
 5499              		.loc 1 2093 0
 5500 000a 0F4B     		ldr	r3, .L454
 5501 000c 0F4F     		ldr	r7, .L454+4
 5502 000e 104E     		ldr	r6, .L454+8
 5503 0010 104D     		ldr	r5, .L454+12
 5504 0012 0A22     		movs	r2, #10
 5505 0014 1A70     		strb	r2, [r3]
 5506 0016 0446     		mov	r4, r0
 5507              		.loc 1 2094 0
 5508 0018 FFF7FEFF 		bl	stop_pwm_hw
 5509              	.LVL397:
 5510              		.loc 1 2096 0
 5511 001c 0E4B     		ldr	r3, .L454+16
 5512 001e 1B68     		ldr	r3, [r3]
 5513 0020 93ED690A 		vldr.32	s0, [r3, #420]
 5514 0024 FFF7FEFF 		bl	set_switching_frequency
 5515              	.LVL398:
 5516              	.LBB160:
 5517              		.loc 1 2099 0
 5518 0028 0022     		movs	r2, #0
 5519              	.LVL399:
 5520              	.L450:
 5521              		.loc 1 2099 0 is_stmt 0 discriminator 3
 5522 002a A300     		lsls	r3, r4, #2
 5523 002c F818     		adds	r0, r7, r3
 5524              		.loc 1 2100 0 is_stmt 1 discriminator 3
 5525 002e F118     		adds	r1, r6, r3
 5526              		.loc 1 2098 0 discriminator 3
 5527 0030 0134     		adds	r4, r4, #1
 5528              	.LVL400:
 5529              		.loc 1 2101 0 discriminator 3
ARM GAS  /tmp/cchSvKkm.s 			page 98


 5530 0032 2B44     		add	r3, r3, r5
 5531              		.loc 1 2098 0 discriminator 3
 5532 0034 062C     		cmp	r4, #6
 5533              		.loc 1 2099 0 discriminator 3
 5534 0036 0260     		str	r2, [r0]	@ float
 5535              		.loc 1 2100 0 discriminator 3
 5536 0038 0A60     		str	r2, [r1]	@ float
 5537              		.loc 1 2101 0 discriminator 3
 5538 003a 1A60     		str	r2, [r3]	@ float
 5539              		.loc 1 2098 0 discriminator 3
 5540 003c F5D1     		bne	.L450
 5541              	.LBE160:
 5542              		.loc 1 2104 0
 5543 003e 074B     		ldr	r3, .L454+20
 5544 0040 0122     		movs	r2, #1
 5545 0042 1A70     		strb	r2, [r3]
 5546              		.loc 1 2105 0
 5547 0044 F8BD     		pop	{r3, r4, r5, r6, r7, pc}
 5548              	.LVL401:
 5549              	.L455:
 5550 0046 00BF     		.align	2
 5551              	.L454:
 5552 0048 00000000 		.word	.LANCHOR39
 5553 004c 00000000 		.word	.LANCHOR63
 5554 0050 00000000 		.word	.LANCHOR66
 5555 0054 00000000 		.word	.LANCHOR67
 5556 0058 00000000 		.word	.LANCHOR0
 5557 005c 00000000 		.word	.LANCHOR2
 5558              		.cfi_endproc
 5559              	.LFE302:
 5560              		.size	mcpwm_set_detect, .-mcpwm_set_detect
 5561              		.section	.text.mcpwm_get_detect_pos,"ax",%progbits
 5562              		.align	1
 5563              		.p2align 4,,15
 5564              		.global	mcpwm_get_detect_pos
 5565              		.syntax unified
 5566              		.thumb
 5567              		.thumb_func
 5568              		.fpu fpv4-sp-d16
 5569              		.type	mcpwm_get_detect_pos, %function
 5570              	mcpwm_get_detect_pos:
 5571              	.LFB303:
 5572              		.loc 1 2107 0
 5573              		.cfi_startproc
 5574              		@ args = 0, pretend = 0, frame = 8
 5575              		@ frame_needed = 0, uses_anonymous_args = 0
 5576 0000 30B5     		push	{r4, r5, lr}
 5577              		.cfi_def_cfa_offset 12
 5578              		.cfi_offset 4, -12
 5579              		.cfi_offset 5, -8
 5580              		.cfi_offset 14, -4
 5581              		.loc 1 2109 0
 5582 0002 3F48     		ldr	r0, .L464
 5583 0004 3F4C     		ldr	r4, .L464+4
 5584 0006 94ED002A 		vldr.32	s4, [r4]
 5585 000a D0ED002A 		vldr.32	s5, [r0]
 5586              		.loc 1 2110 0
ARM GAS  /tmp/cchSvKkm.s 			page 99


 5587 000e 94ED013A 		vldr.32	s6, [r4, #4]
 5588 0012 D0ED013A 		vldr.32	s7, [r0, #4]
 5589              		.loc 1 2111 0
 5590 0016 94ED024A 		vldr.32	s8, [r4, #8]
 5591 001a D0ED026A 		vldr.32	s13, [r0, #8]
 5592              		.loc 1 2112 0
 5593 001e D4ED034A 		vldr.32	s9, [r4, #12]
 5594 0022 90ED037A 		vldr.32	s14, [r0, #12]
 5595              		.loc 1 2113 0
 5596 0026 94ED045A 		vldr.32	s10, [r4, #16]
 5597 002a D0ED047A 		vldr.32	s15, [r0, #16]
 5598              		.loc 1 2114 0
 5599 002e D4ED055A 		vldr.32	s11, [r4, #20]
 5600 0032 90ED056A 		vldr.32	s12, [r0, #20]
 5601              		.loc 1 2107 0
 5602 0036 2DED048B 		vpush.64	{d8, d9}
 5603              		.cfi_def_cfa_offset 28
 5604              		.cfi_offset 80, -28
 5605              		.cfi_offset 81, -24
 5606              		.cfi_offset 82, -20
 5607              		.cfi_offset 83, -16
 5608              		.loc 1 2111 0
 5609 003a 84EE268A 		vdiv.f32	s16, s8, s13
 5610              		.loc 1 2107 0
 5611 003e 83B0     		sub	sp, sp, #12
 5612              		.cfi_def_cfa_offset 40
 5613              	.LBB161:
 5614              		.loc 1 2117 0
 5615 0040 0021     		movs	r1, #0
 5616              		.loc 1 2116 0
 5617 0042 0022     		movs	r2, #0
 5618              	.LBE161:
 5619              		.loc 1 2112 0
 5620 0044 C4EE876A 		vdiv.f32	s13, s9, s14
 5621              		.loc 1 2109 0
 5622 0048 82EE229A 		vdiv.f32	s18, s4, s5
 5623              	.LVL402:
 5624              		.loc 1 2113 0
 5625 004c 85EE277A 		vdiv.f32	s14, s10, s15
 5626              		.loc 1 2110 0
 5627 0050 C3EE238A 		vdiv.f32	s17, s6, s7
 5628              	.LVL403:
 5629              		.loc 1 2114 0
 5630 0054 C5EE867A 		vdiv.f32	s15, s11, s12
 5631              	.LVL404:
 5632              	.L457:
 5633              	.LBB162:
 5634              		.loc 1 2117 0 discriminator 3
 5635 0058 9300     		lsls	r3, r2, #2
 5636 005a E518     		adds	r5, r4, r3
 5637              		.loc 1 2116 0 discriminator 3
 5638 005c 0132     		adds	r2, r2, #1
 5639              	.LVL405:
 5640              		.loc 1 2118 0 discriminator 3
 5641 005e 0344     		add	r3, r3, r0
 5642              		.loc 1 2116 0 discriminator 3
 5643 0060 062A     		cmp	r2, #6
ARM GAS  /tmp/cchSvKkm.s 			page 100


 5644              		.loc 1 2117 0 discriminator 3
 5645 0062 2960     		str	r1, [r5]	@ float
 5646              		.loc 1 2118 0 discriminator 3
 5647 0064 1960     		str	r1, [r3]	@ float
 5648              		.loc 1 2116 0 discriminator 3
 5649 0066 F7D1     		bne	.L457
 5650              	.LBE162:
 5651              		.loc 1 2121 0
 5652 0068 39EE269A 		vadd.f32	s18, s18, s13
 5653              	.LVL406:
 5654              		.loc 1 2122 0
 5655 006c 78EE878A 		vadd.f32	s17, s17, s14
 5656              	.LVL407:
 5657              		.loc 1 2123 0
 5658 0070 38EE278A 		vadd.f32	s16, s16, s15
 5659              	.LVL408:
 5660              		.loc 1 2125 0
 5661 0074 79EE287A 		vadd.f32	s15, s18, s17
 5662              	.LVL409:
 5663 0078 B0EE086A 		vmov.f32	s12, #3.0e+0
 5664              	.LVL410:
 5665 007c 77EE887A 		vadd.f32	s15, s15, s16
 5666              		.loc 1 2130 0
 5667 0080 F7EE086A 		vmov.f32	s13, #1.5e+0
 5668              	.LVL411:
 5669              		.loc 1 2125 0
 5670 0084 87EE867A 		vdiv.f32	s14, s15, s12
 5671              	.LVL412:
 5672              		.loc 1 2127 0
 5673 0088 78EEC78A 		vsub.f32	s17, s17, s14
 5674              	.LVL413:
 5675              		.loc 1 2126 0
 5676 008c 39EE479A 		vsub.f32	s18, s18, s14
 5677              	.LVL414:
 5678              		.loc 1 2130 0
 5679 0090 68EEA87A 		vmul.f32	s15, s17, s17
 5680              		.loc 1 2128 0
 5681 0094 38EE478A 		vsub.f32	s16, s16, s14
 5682              	.LVL415:
 5683              		.loc 1 2130 0
 5684 0098 E9EE097A 		vfma.f32	s15, s18, s18
 5685 009c E8EE087A 		vfma.f32	s15, s16, s16
 5686 00a0 87EEA60A 		vdiv.f32	s0, s15, s13
 5687 00a4 B5EE400A 		vcmp.f32	s0, #0
 5688 00a8 F1EE10FA 		vmrs	APSR_nzcv, FPSCR
 5689 00ac F1EEC09A 		vsqrt.f32	s19, s0
 5690 00b0 23D4     		bmi	.L463
 5691              	.LVL416:
 5692              	.L458:
 5693              		.loc 1 2136 0
 5694 00b2 89EE290A 		vdiv.f32	s0, s18, s19
 5695              	.LVL417:
 5696 00b6 FFF7FEFF 		bl	asinf
 5697              	.LVL418:
 5698              		.loc 1 2143 0
 5699 00ba 01A8     		add	r0, sp, #4
 5700              		.loc 1 2136 0
ARM GAS  /tmp/cchSvKkm.s 			page 101


 5701 00bc DFED127A 		vldr.32	s15, .L464+8
 5702 00c0 DFED125A 		vldr.32	s11, .L464+12
 5703 00c4 20EE270A 		vmul.f32	s0, s0, s15
 5704              		.loc 1 2132 0
 5705 00c8 88EEA96A 		vdiv.f32	s12, s17, s19
 5706              	.LVL419:
 5707              		.loc 1 2133 0
 5708 00cc C8EE296A 		vdiv.f32	s13, s16, s19
 5709              	.LVL420:
 5710              		.loc 1 2136 0
 5711 00d0 80EE257A 		vdiv.f32	s14, s0, s11
 5712              	.LVL421:
 5713              		.loc 1 2139 0
 5714 00d4 B4EEE66A 		vcmpe.f32	s12, s13
 5715 00d8 F1EE10FA 		vmrs	APSR_nzcv, FPSCR
 5716              		.loc 1 2140 0
 5717 00dc 4ABF     		itet	mi
 5718 00de 77EEC77A 		vsubmi.f32	s15, s15, s14
 5719              		.loc 1 2138 0
 5720 00e2 8DED017A 		vstrpl.32	s14, [sp, #4]
 5721              		.loc 1 2140 0
 5722 00e6 CDED017A 		vstrmi.32	s15, [sp, #4]
 5723              		.loc 1 2143 0
 5724 00ea FFF7FEFF 		bl	utils_norm_angle
 5725              	.LVL422:
 5726              		.loc 1 2146 0
 5727 00ee 9DED010A 		vldr.32	s0, [sp, #4]
 5728 00f2 03B0     		add	sp, sp, #12
 5729              		.cfi_remember_state
 5730              		.cfi_def_cfa_offset 28
 5731              		@ sp needed
 5732 00f4 BDEC048B 		vldm	sp!, {d8-d9}
 5733              		.cfi_restore 82
 5734              		.cfi_restore 83
 5735              		.cfi_restore 80
 5736              		.cfi_restore 81
 5737              		.cfi_def_cfa_offset 12
 5738              	.LVL423:
 5739 00f8 30BD     		pop	{r4, r5, pc}
 5740              	.LVL424:
 5741              	.L463:
 5742              		.cfi_restore_state
 5743              		.loc 1 2130 0
 5744 00fa FFF7FEFF 		bl	sqrtf
 5745              	.LVL425:
 5746 00fe D8E7     		b	.L458
 5747              	.L465:
 5748              		.align	2
 5749              	.L464:
 5750 0100 00000000 		.word	.LANCHOR67
 5751 0104 00000000 		.word	.LANCHOR66
 5752 0108 00003443 		.word	1127481344
 5753 010c DB0F4940 		.word	1078530011
 5754              		.cfi_endproc
 5755              	.LFE303:
 5756              		.size	mcpwm_get_detect_pos, .-mcpwm_get_detect_pos
 5757              		.section	.text.mcpwm_read_reset_avg_cycle_integrator,"ax",%progbits
ARM GAS  /tmp/cchSvKkm.s 			page 102


 5758              		.align	1
 5759              		.p2align 4,,15
 5760              		.global	mcpwm_read_reset_avg_cycle_integrator
 5761              		.syntax unified
 5762              		.thumb
 5763              		.thumb_func
 5764              		.fpu fpv4-sp-d16
 5765              		.type	mcpwm_read_reset_avg_cycle_integrator, %function
 5766              	mcpwm_read_reset_avg_cycle_integrator:
 5767              	.LFB304:
 5768              		.loc 1 2148 0
 5769              		.cfi_startproc
 5770              		@ args = 0, pretend = 0, frame = 0
 5771              		@ frame_needed = 0, uses_anonymous_args = 0
 5772              		@ link register save eliminated.
 5773              		.loc 1 2149 0
 5774 0000 0549     		ldr	r1, .L467
 5775 0002 064B     		ldr	r3, .L467+4
 5776 0004 91ED000A 		vldr.32	s0, [r1]
 5777 0008 D3ED007A 		vldr.32	s15, [r3]
 5778              	.LVL426:
 5779              		.loc 1 2150 0
 5780 000c 0022     		movs	r2, #0
 5781 000e 0A60     		str	r2, [r1]	@ float
 5782              		.loc 1 2153 0
 5783 0010 80EE270A 		vdiv.f32	s0, s0, s15
 5784              	.LVL427:
 5785              		.loc 1 2151 0
 5786 0014 1A60     		str	r2, [r3]	@ float
 5787              		.loc 1 2153 0
 5788 0016 7047     		bx	lr
 5789              	.L468:
 5790              		.align	2
 5791              	.L467:
 5792 0018 00000000 		.word	.LANCHOR44
 5793 001c 00000000 		.word	.LANCHOR45
 5794              		.cfi_endproc
 5795              	.LFE304:
 5796              		.size	mcpwm_read_reset_avg_cycle_integrator, .-mcpwm_read_reset_avg_cycle_integrator
 5797              		.section	.text.mcpwm_set_comm_mode,"ax",%progbits
 5798              		.align	1
 5799              		.p2align 4,,15
 5800              		.global	mcpwm_set_comm_mode
 5801              		.syntax unified
 5802              		.thumb
 5803              		.thumb_func
 5804              		.fpu fpv4-sp-d16
 5805              		.type	mcpwm_set_comm_mode, %function
 5806              	mcpwm_set_comm_mode:
 5807              	.LFB305:
 5808              		.loc 1 2164 0
 5809              		.cfi_startproc
 5810              		@ args = 0, pretend = 0, frame = 0
 5811              		@ frame_needed = 0, uses_anonymous_args = 0
 5812              		@ link register save eliminated.
 5813              	.LVL428:
 5814              		.loc 1 2165 0
ARM GAS  /tmp/cchSvKkm.s 			page 103


 5815 0000 014B     		ldr	r3, .L470
 5816 0002 1B68     		ldr	r3, [r3]
 5817 0004 5870     		strb	r0, [r3, #1]
 5818              		.loc 1 2166 0
 5819 0006 7047     		bx	lr
 5820              	.L471:
 5821              		.align	2
 5822              	.L470:
 5823 0008 00000000 		.word	.LANCHOR0
 5824              		.cfi_endproc
 5825              	.LFE305:
 5826              		.size	mcpwm_set_comm_mode, .-mcpwm_set_comm_mode
 5827              		.section	.text.mcpwm_get_comm_mode,"ax",%progbits
 5828              		.align	1
 5829              		.p2align 4,,15
 5830              		.global	mcpwm_get_comm_mode
 5831              		.syntax unified
 5832              		.thumb
 5833              		.thumb_func
 5834              		.fpu fpv4-sp-d16
 5835              		.type	mcpwm_get_comm_mode, %function
 5836              	mcpwm_get_comm_mode:
 5837              	.LFB306:
 5838              		.loc 1 2168 0
 5839              		.cfi_startproc
 5840              		@ args = 0, pretend = 0, frame = 0
 5841              		@ frame_needed = 0, uses_anonymous_args = 0
 5842              		@ link register save eliminated.
 5843              		.loc 1 2169 0
 5844 0000 014B     		ldr	r3, .L473
 5845 0002 1B68     		ldr	r3, [r3]
 5846 0004 5878     		ldrb	r0, [r3, #1]	@ zero_extendqisi2
 5847              		.loc 1 2170 0
 5848 0006 7047     		bx	lr
 5849              	.L474:
 5850              		.align	2
 5851              	.L473:
 5852 0008 00000000 		.word	.LANCHOR0
 5853              		.cfi_endproc
 5854              	.LFE306:
 5855              		.size	mcpwm_get_comm_mode, .-mcpwm_get_comm_mode
 5856              		.section	.text.mcpwm_get_last_adc_isr_duration,"ax",%progbits
 5857              		.align	1
 5858              		.p2align 4,,15
 5859              		.global	mcpwm_get_last_adc_isr_duration
 5860              		.syntax unified
 5861              		.thumb
 5862              		.thumb_func
 5863              		.fpu fpv4-sp-d16
 5864              		.type	mcpwm_get_last_adc_isr_duration, %function
 5865              	mcpwm_get_last_adc_isr_duration:
 5866              	.LFB307:
 5867              		.loc 1 2172 0
 5868              		.cfi_startproc
 5869              		@ args = 0, pretend = 0, frame = 0
 5870              		@ frame_needed = 0, uses_anonymous_args = 0
 5871              		@ link register save eliminated.
ARM GAS  /tmp/cchSvKkm.s 			page 104


 5872              		.loc 1 2173 0
 5873 0000 014B     		ldr	r3, .L476
 5874 0002 93ED000A 		vldr.32	s0, [r3]
 5875              		.loc 1 2174 0
 5876 0006 7047     		bx	lr
 5877              	.L477:
 5878              		.align	2
 5879              	.L476:
 5880 0008 00000000 		.word	.LANCHOR71
 5881              		.cfi_endproc
 5882              	.LFE307:
 5883              		.size	mcpwm_get_last_adc_isr_duration, .-mcpwm_get_last_adc_isr_duration
 5884              		.section	.text.mcpwm_get_last_inj_adc_isr_duration,"ax",%progbits
 5885              		.align	1
 5886              		.p2align 4,,15
 5887              		.global	mcpwm_get_last_inj_adc_isr_duration
 5888              		.syntax unified
 5889              		.thumb
 5890              		.thumb_func
 5891              		.fpu fpv4-sp-d16
 5892              		.type	mcpwm_get_last_inj_adc_isr_duration, %function
 5893              	mcpwm_get_last_inj_adc_isr_duration:
 5894              	.LFB308:
 5895              		.loc 1 2176 0
 5896              		.cfi_startproc
 5897              		@ args = 0, pretend = 0, frame = 0
 5898              		@ frame_needed = 0, uses_anonymous_args = 0
 5899              		@ link register save eliminated.
 5900              		.loc 1 2177 0
 5901 0000 014B     		ldr	r3, .L479
 5902 0002 93ED000A 		vldr.32	s0, [r3]
 5903              		.loc 1 2178 0
 5904 0006 7047     		bx	lr
 5905              	.L480:
 5906              		.align	2
 5907              	.L479:
 5908 0008 00000000 		.word	.LANCHOR70
 5909              		.cfi_endproc
 5910              	.LFE308:
 5911              		.size	mcpwm_get_last_inj_adc_isr_duration, .-mcpwm_get_last_inj_adc_isr_duration
 5912              		.section	.text.mcpwm_get_rpm_dep,"ax",%progbits
 5913              		.align	1
 5914              		.p2align 4,,15
 5915              		.global	mcpwm_get_rpm_dep
 5916              		.syntax unified
 5917              		.thumb
 5918              		.thumb_func
 5919              		.fpu fpv4-sp-d16
 5920              		.type	mcpwm_get_rpm_dep, %function
 5921              	mcpwm_get_rpm_dep:
 5922              	.LFB309:
 5923              		.loc 1 2180 0
 5924              		.cfi_startproc
 5925              		@ args = 0, pretend = 0, frame = 0
 5926              		@ frame_needed = 0, uses_anonymous_args = 0
 5927              		@ link register save eliminated.
 5928              	.LVL429:
ARM GAS  /tmp/cchSvKkm.s 			page 105


 5929 0000 70B4     		push	{r4, r5, r6}
 5930              		.cfi_def_cfa_offset 12
 5931              		.cfi_offset 4, -12
 5932              		.cfi_offset 5, -8
 5933              		.cfi_offset 6, -4
 5934              		.loc 1 2181 0
 5935 0002 064D     		ldr	r5, .L483
 5936              		.loc 1 2180 0
 5937 0004 0646     		mov	r6, r0
 5938              		.loc 1 2181 0
 5939 0006 0FCD     		ldmia	r5!, {r0, r1, r2, r3}
 5940              	.LVL430:
 5941 0008 3446     		mov	r4, r6
 5942 000a 0FC4     		stmia	r4!, {r0, r1, r2, r3}
 5943 000c 95E80700 		ldm	r5, {r0, r1, r2}
 5944 0010 84E80700 		stm	r4, {r0, r1, r2}
 5945              		.loc 1 2182 0
 5946 0014 3046     		mov	r0, r6
 5947 0016 70BC     		pop	{r4, r5, r6}
 5948              		.cfi_restore 6
 5949              		.cfi_restore 5
 5950              		.cfi_restore 4
 5951              		.cfi_def_cfa_offset 0
 5952              	.LVL431:
 5953 0018 7047     		bx	lr
 5954              	.L484:
 5955 001a 00BF     		.align	2
 5956              	.L483:
 5957 001c 00000000 		.word	.LANCHOR8
 5958              		.cfi_endproc
 5959              	.LFE309:
 5960              		.size	mcpwm_get_rpm_dep, .-mcpwm_get_rpm_dep
 5961              		.section	.text.mcpwm_is_dccal_done,"ax",%progbits
 5962              		.align	1
 5963              		.p2align 4,,15
 5964              		.global	mcpwm_is_dccal_done
 5965              		.syntax unified
 5966              		.thumb
 5967              		.thumb_func
 5968              		.fpu fpv4-sp-d16
 5969              		.type	mcpwm_is_dccal_done, %function
 5970              	mcpwm_is_dccal_done:
 5971              	.LFB310:
 5972              		.loc 1 2184 0
 5973              		.cfi_startproc
 5974              		@ args = 0, pretend = 0, frame = 0
 5975              		@ frame_needed = 0, uses_anonymous_args = 0
 5976              		@ link register save eliminated.
 5977              		.loc 1 2185 0
 5978 0000 014B     		ldr	r3, .L486
 5979 0002 1878     		ldrb	r0, [r3]	@ zero_extendqisi2
 5980              		.loc 1 2186 0
 5981 0004 7047     		bx	lr
 5982              	.L487:
 5983 0006 00BF     		.align	2
 5984              	.L486:
 5985 0008 00000000 		.word	.LANCHOR46
ARM GAS  /tmp/cchSvKkm.s 			page 106


 5986              		.cfi_endproc
 5987              	.LFE310:
 5988              		.size	mcpwm_is_dccal_done, .-mcpwm_is_dccal_done
 5989              		.section	.text.mcpwm_switch_comm_mode,"ax",%progbits
 5990              		.align	1
 5991              		.p2align 4,,15
 5992              		.global	mcpwm_switch_comm_mode
 5993              		.syntax unified
 5994              		.thumb
 5995              		.thumb_func
 5996              		.fpu fpv4-sp-d16
 5997              		.type	mcpwm_switch_comm_mode, %function
 5998              	mcpwm_switch_comm_mode:
 5999              	.LFB311:
 6000              		.loc 1 2188 0
 6001              		.cfi_startproc
 6002              		@ args = 0, pretend = 0, frame = 0
 6003              		@ frame_needed = 0, uses_anonymous_args = 0
 6004              		@ link register save eliminated.
 6005              	.LVL432:
 6006              		.loc 1 2189 0
 6007 0000 014B     		ldr	r3, .L489
 6008 0002 1870     		strb	r0, [r3]
 6009              		.loc 1 2190 0
 6010 0004 7047     		bx	lr
 6011              	.L490:
 6012 0006 00BF     		.align	2
 6013              	.L489:
 6014 0008 00000000 		.word	.LANCHOR29
 6015              		.cfi_endproc
 6016              	.LFE311:
 6017              		.size	mcpwm_switch_comm_mode, .-mcpwm_switch_comm_mode
 6018              		.section	.text.mcpwm_reset_hall_detect_table,"ax",%progbits
 6019              		.align	1
 6020              		.p2align 4,,15
 6021              		.global	mcpwm_reset_hall_detect_table
 6022              		.syntax unified
 6023              		.thumb
 6024              		.thumb_func
 6025              		.fpu fpv4-sp-d16
 6026              		.type	mcpwm_reset_hall_detect_table, %function
 6027              	mcpwm_reset_hall_detect_table:
 6028              	.LFB312:
 6029              		.loc 1 2195 0
 6030              		.cfi_startproc
 6031              		@ args = 0, pretend = 0, frame = 0
 6032              		@ frame_needed = 0, uses_anonymous_args = 0
 6033              		@ link register save eliminated.
 6034              		.loc 1 2196 0
 6035 0000 E022     		movs	r2, #224
 6036 0002 0021     		movs	r1, #0
 6037 0004 0148     		ldr	r0, .L492
 6038 0006 FFF7FEBF 		b	memset
 6039              	.LVL433:
 6040              	.L493:
 6041 000a 00BF     		.align	2
 6042              	.L492:
ARM GAS  /tmp/cchSvKkm.s 			page 107


 6043 000c 00000000 		.word	.LANCHOR47
 6044              		.cfi_endproc
 6045              	.LFE312:
 6046              		.size	mcpwm_reset_hall_detect_table, .-mcpwm_reset_hall_detect_table
 6047              		.section	.text.mcpwm_get_hall_detect_result,"ax",%progbits
 6048              		.align	1
 6049              		.p2align 4,,15
 6050              		.global	mcpwm_get_hall_detect_result
 6051              		.syntax unified
 6052              		.thumb
 6053              		.thumb_func
 6054              		.fpu fpv4-sp-d16
 6055              		.type	mcpwm_get_hall_detect_result, %function
 6056              	mcpwm_get_hall_detect_result:
 6057              	.LFB313:
 6058              		.loc 1 2211 0
 6059              		.cfi_startproc
 6060              		@ args = 0, pretend = 0, frame = 32
 6061              		@ frame_needed = 0, uses_anonymous_args = 0
 6062              	.LVL434:
 6063              		.loc 1 2214 0
 6064 0000 2B4B     		ldr	r3, .L513
 6065 0002 1B68     		ldr	r3, [r3]
 6066 0004 93F89831 		ldrb	r3, [r3, #408]	@ zero_extendqisi2
 6067 0008 002B     		cmp	r3, #0
 6068 000a 4DD1     		bne	.L503
 6069              		.loc 1 2211 0
 6070 000c F0B5     		push	{r4, r5, r6, r7, lr}
 6071              		.cfi_def_cfa_offset 20
 6072              		.cfi_offset 4, -20
 6073              		.cfi_offset 5, -16
 6074              		.cfi_offset 6, -12
 6075              		.cfi_offset 7, -8
 6076              		.cfi_offset 14, -4
 6077 000e 294E     		ldr	r6, .L513+4
 6078 0010 89B0     		sub	sp, sp, #36
 6079              		.cfi_def_cfa_offset 56
 6080 0012 03F0FF0E 		and	lr, r3, #255
 6081              		.loc 1 2214 0
 6082 0016 0746     		mov	r7, r0
 6083              	.L496:
 6084              	.LVL435:
 6085              	.LBB163:
 6086              	.LBB164:
 6087              	.LBB165:
 6088              		.loc 1 2221 0
 6089 0018 0123     		movs	r3, #1
 6090              	.LBE165:
 6091              		.loc 1 2220 0
 6092 001a 4FF0FF34 		mov	r4, #-1
 6093              		.loc 1 2219 0
 6094 001e 0021     		movs	r1, #0
 6095              	.LBB166:
 6096              		.loc 1 2222 0
 6097 0020 CEEBCE0C 		rsb	ip, lr, lr, lsl #3
 6098              	.LVL436:
 6099              	.L498:
ARM GAS  /tmp/cchSvKkm.s 			page 108


 6100 0024 0CEB0302 		add	r2, ip, r3
 6101 0028 56F82250 		ldr	r5, [r6, r2, lsl #2]
 6102 002c 8D42     		cmp	r5, r1
 6103 002e 04DD     		ble	.L497
 6104              		.loc 1 2223 0
 6105 0030 56F82210 		ldr	r1, [r6, r2, lsl #2]
 6106              	.LVL437:
 6107 0034 0F29     		cmp	r1, #15
 6108 0036 C8BF     		it	gt
 6109 0038 1C46     		movgt	r4, r3
 6110              	.LVL438:
 6111              	.L497:
 6112              		.loc 1 2221 0 discriminator 2
 6113 003a 0133     		adds	r3, r3, #1
 6114              	.LVL439:
 6115 003c 072B     		cmp	r3, #7
 6116              		.loc 1 2228 0 discriminator 2
 6117 003e 3C70     		strb	r4, [r7]
 6118              		.loc 1 2221 0 discriminator 2
 6119 0040 F0D1     		bne	.L498
 6120              	.LBE166:
 6121              	.LBE164:
 6122              		.loc 1 2218 0 discriminator 2
 6123 0042 0EF1010E 		add	lr, lr, #1
 6124              	.LVL440:
 6125 0046 BEF1080F 		cmp	lr, #8
 6126 004a 07F10107 		add	r7, r7, #1
 6127 004e E3D1     		bne	.L496
 6128              	.LVL441:
 6129              	.LBE163:
 6130              		.loc 1 2233 0
 6131 0050 0023     		movs	r3, #0
 6132              	.LVL442:
 6133              		.loc 1 2234 0
 6134 0052 1C46     		mov	r4, r3
 6135              	.LVL443:
 6136              		.loc 1 2233 0
 6137 0054 0193     		str	r3, [sp, #4]
 6138              		.loc 1 2232 0
 6139 0056 1D46     		mov	r5, r3
 6140              		.loc 1 2233 0
 6141 0058 CDE90233 		strd	r3, r3, [sp, #8]
 6142 005c CDE90433 		strd	r3, r3, [sp, #16]
 6143 0060 CDE90633 		strd	r3, r3, [sp, #24]
 6144              	.LVL444:
 6145              	.LBB167:
 6146              		.loc 1 2240 0
 6147 0064 0126     		movs	r6, #1
 6148 0066 431E     		subs	r3, r0, #1
 6149 0068 0730     		adds	r0, r0, #7
 6150              	.LVL445:
 6151 006a 07E0     		b	.L502
 6152              	.LVL446:
 6153              	.L500:
 6154              		.loc 1 2239 0
 6155 006c 51F81C2C 		ldr	r2, [r1, #-28]
 6156 0070 12B9     		cbnz	r2, .L501
ARM GAS  /tmp/cchSvKkm.s 			page 109


 6157              		.loc 1 2240 0
 6158 0072 41F81C6C 		str	r6, [r1, #-28]
 6159              		.loc 1 2241 0
 6160 0076 0134     		adds	r4, r4, #1
 6161              	.LVL447:
 6162              	.L501:
 6163              		.loc 1 2235 0 discriminator 2
 6164 0078 9842     		cmp	r0, r3
 6165 007a 0AD0     		beq	.L512
 6166              	.LVL448:
 6167              	.L502:
 6168              		.loc 1 2236 0
 6169 007c 13F9012F 		ldrsb	r2, [r3, #1]!
 6170              	.LVL449:
 6171              		.loc 1 2239 0
 6172 0080 08A9     		add	r1, sp, #32
 6173 0082 01EB8201 		add	r1, r1, r2, lsl #2
 6174              		.loc 1 2236 0
 6175 0086 0132     		adds	r2, r2, #1
 6176 0088 F0D1     		bne	.L500
 6177              		.loc 1 2235 0
 6178 008a 9842     		cmp	r0, r3
 6179              		.loc 1 2237 0
 6180 008c 05F10105 		add	r5, r5, #1
 6181              	.LVL450:
 6182              		.loc 1 2235 0
 6183 0090 F4D1     		bne	.L502
 6184              	.LVL451:
 6185              	.L512:
 6186              	.LBE167:
 6187              		.loc 1 2246 0
 6188 0092 022D     		cmp	r5, #2
 6189 0094 05D1     		bne	.L505
 6190              		.loc 1 2246 0 is_stmt 0 discriminator 1
 6191 0096 A01F     		subs	r0, r4, #6
 6192              	.LVL452:
 6193 0098 18BF     		it	ne
 6194 009a 4FF0FF30 		movne	r0, #-1
 6195              	.L494:
 6196              		.loc 1 2251 0 is_stmt 1
 6197 009e 09B0     		add	sp, sp, #36
 6198              		.cfi_remember_state
 6199              		.cfi_def_cfa_offset 20
 6200              		@ sp needed
 6201 00a0 F0BD     		pop	{r4, r5, r6, r7, pc}
 6202              	.LVL453:
 6203              	.L505:
 6204              		.cfi_restore_state
 6205              		.loc 1 2249 0
 6206 00a2 4FF0FF30 		mov	r0, #-1
 6207 00a6 FAE7     		b	.L494
 6208              	.LVL454:
 6209              	.L503:
 6210              		.cfi_def_cfa_offset 0
 6211              		.cfi_restore 4
 6212              		.cfi_restore 5
 6213              		.cfi_restore 6
ARM GAS  /tmp/cchSvKkm.s 			page 110


 6214              		.cfi_restore 7
 6215              		.cfi_restore 14
 6216              		.loc 1 2215 0
 6217 00a8 6FF00200 		mvn	r0, #2
 6218              	.LVL455:
 6219              		.loc 1 2251 0
 6220 00ac 7047     		bx	lr
 6221              	.L514:
 6222 00ae 00BF     		.align	2
 6223              	.L513:
 6224 00b0 00000000 		.word	.LANCHOR0
 6225 00b4 00000000 		.word	.LANCHOR47
 6226              		.cfi_endproc
 6227              	.LFE313:
 6228              		.size	mcpwm_get_hall_detect_result, .-mcpwm_get_hall_detect_result
 6229              		.section	.text.mcpwm_read_hall_phase,"ax",%progbits
 6230              		.align	1
 6231              		.p2align 4,,15
 6232              		.global	mcpwm_read_hall_phase
 6233              		.syntax unified
 6234              		.thumb
 6235              		.thumb_func
 6236              		.fpu fpv4-sp-d16
 6237              		.type	mcpwm_read_hall_phase, %function
 6238              	mcpwm_read_hall_phase:
 6239              	.LFB314:
 6240              		.loc 1 2258 0
 6241              		.cfi_startproc
 6242              		@ args = 0, pretend = 0, frame = 0
 6243              		@ frame_needed = 0, uses_anonymous_args = 0
 6244              		@ link register save eliminated.
 6245              	.LBB168:
 6246              	.LBB169:
 6247              		.loc 1 2263 0
 6248 0000 0A4A     		ldr	r2, .L520
 6249              	.LBE169:
 6250              	.LBE168:
 6251              		.loc 1 2259 0
 6252 0002 0B48     		ldr	r0, .L520+4
 6253              	.LBB172:
 6254              	.LBB170:
 6255              		.loc 1 2263 0
 6256 0004 1169     		ldr	r1, [r2, #16]
 6257 0006 1369     		ldr	r3, [r2, #16]
 6258 0008 1269     		ldr	r2, [r2, #16]
 6259              	.LBE170:
 6260              	.LBE172:
 6261              		.loc 1 2259 0
 6262 000a 0068     		ldr	r0, [r0]
 6263              	.LBB173:
 6264              	.LBB171:
 6265              		.loc 1 2263 0
 6266 000c DB09     		lsrs	r3, r3, #7
 6267 000e 1209     		lsrs	r2, r2, #4
 6268 0010 03F00203 		and	r3, r3, #2
 6269 0014 02F00402 		and	r2, r2, #4
 6270 0018 C1F3C011 		ubfx	r1, r1, #7, #1
ARM GAS  /tmp/cchSvKkm.s 			page 111


 6271 001c 1343     		orrs	r3, r3, r2
 6272 001e 0B43     		orrs	r3, r3, r1
 6273              	.LBE171:
 6274              	.LBE173:
 6275              		.loc 1 2259 0
 6276 0020 00B1     		cbz	r0, .L516
 6277 0022 0833     		adds	r3, r3, #8
 6278              	.L516:
 6279              		.loc 1 2259 0 is_stmt 0 discriminator 4
 6280 0024 034A     		ldr	r2, .L520+8
 6281              		.loc 1 2260 0 is_stmt 1 discriminator 4
 6282 0026 52F82300 		ldr	r0, [r2, r3, lsl #2]
 6283 002a 7047     		bx	lr
 6284              	.L521:
 6285              		.align	2
 6286              	.L520:
 6287 002c 00080240 		.word	1073874944
 6288 0030 00000000 		.word	.LANCHOR4
 6289 0034 00000000 		.word	.LANCHOR33
 6290              		.cfi_endproc
 6291              	.LFE314:
 6292              		.size	mcpwm_read_hall_phase, .-mcpwm_read_hall_phase
 6293              		.section	.text.set_duty_cycle_ll,"ax",%progbits
 6294              		.align	1
 6295              		.p2align 4,,15
 6296              		.syntax unified
 6297              		.thumb
 6298              		.thumb_func
 6299              		.fpu fpv4-sp-d16
 6300              		.type	set_duty_cycle_ll, %function
 6301              	set_duty_cycle_ll:
 6302              	.LFB294:
 6303              		.loc 1 1001 0
 6304              		.cfi_startproc
 6305              		@ args = 0, pretend = 0, frame = 0
 6306              		@ frame_needed = 0, uses_anonymous_args = 0
 6307              	.LVL456:
 6308 0000 38B5     		push	{r3, r4, r5, lr}
 6309              		.cfi_def_cfa_offset 16
 6310              		.cfi_offset 3, -16
 6311              		.cfi_offset 4, -12
 6312              		.cfi_offset 5, -8
 6313              		.cfi_offset 14, -4
 6314              		.loc 1 1002 0
 6315 0002 5F4D     		ldr	r5, .L574
 6316 0004 2B68     		ldr	r3, [r5]
 6317 0006 D3ED157A 		vldr.32	s15, [r3, #84]
 6318 000a F4EEC07A 		vcmpe.f32	s15, s0
 6319 000e F1EE10FA 		vmrs	APSR_nzcv, FPSCR
 6320 0012 22D8     		bhi	.L564
 6321              		.loc 1 1003 0
 6322 0014 5B4A     		ldr	r2, .L574+4
 6323 0016 0121     		movs	r1, #1
 6324 0018 1160     		str	r1, [r2]
 6325              	.L525:
 6326              		.loc 1 1009 0
 6327 001a D3ED157A 		vldr.32	s15, [r3, #84]
ARM GAS  /tmp/cchSvKkm.s 			page 112


 6328 001e F4EEC07A 		vcmpe.f32	s15, s0
 6329 0022 F1EE10FA 		vmrs	APSR_nzcv, FPSCR
 6330 0026 2DDD     		ble	.L565
 6331              	.L572:
 6332              	.LBB174:
 6333              		.loc 1 1012 0
 6334 0028 574A     		ldr	r2, .L574+8
 6335 002a 1178     		ldrb	r1, [r2]	@ zero_extendqisi2
 6336 002c 0229     		cmp	r1, #2
 6337 002e 63D0     		beq	.L529
 6338              		.loc 1 1013 0 discriminator 1
 6339 0030 1178     		ldrb	r1, [r2]	@ zero_extendqisi2
 6340              		.loc 1 1012 0 discriminator 1
 6341 0032 0329     		cmp	r1, #3
 6342 0034 60D0     		beq	.L529
 6343              		.loc 1 1014 0
 6344 0036 1278     		ldrb	r2, [r2]	@ zero_extendqisi2
 6345              		.loc 1 1013 0
 6346 0038 012A     		cmp	r2, #1
 6347 003a 5DD0     		beq	.L529
 6348              		.loc 1 1023 0
 6349 003c 534C     		ldr	r4, .L574+12
 6350              		.loc 1 1020 0
 6351 003e D3ED097A 		vldr.32	s15, [r3, #36]
 6352              	.LVL457:
 6353              		.loc 1 1023 0
 6354 0042 2278     		ldrb	r2, [r4]	@ zero_extendqisi2
 6355 0044 D2B2     		uxtb	r2, r2
 6356 0046 012A     		cmp	r2, #1
 6357 0048 5DD1     		bne	.L571
 6358              	.L533:
 6359              	.LBB175:
 6360              	.LBB176:
 6361              		.loc 1 886 0
 6362 004a 514A     		ldr	r2, .L574+16
 6363              		.loc 1 885 0
 6364 004c 0023     		movs	r3, #0
 6365 004e 2370     		strb	r3, [r4]
 6366              		.loc 1 886 0
 6367 0050 1360     		str	r3, [r2]
 6368              	.LBE176:
 6369              	.LBE175:
 6370              	.LBE174:
 6371              		.loc 1 1077 0
 6372 0052 BDE83840 		pop	{r3, r4, r5, lr}
 6373              		.cfi_remember_state
 6374              		.cfi_restore 14
 6375              		.cfi_restore 5
 6376              		.cfi_restore 4
 6377              		.cfi_restore 3
 6378              		.cfi_def_cfa_offset 0
 6379              	.LBB183:
 6380              	.LBB178:
 6381              	.LBB177:
 6382              		.loc 1 887 0
 6383 0056 FFF7FEBF 		b	stop_pwm_hw
 6384              	.LVL458:
ARM GAS  /tmp/cchSvKkm.s 			page 113


 6385              	.L564:
 6386              		.cfi_restore_state
 6387              	.LBE177:
 6388              	.LBE178:
 6389              	.LBE183:
 6390              		.loc 1 1004 0
 6391 005a D3ED157A 		vldr.32	s15, [r3, #84]
 6392 005e F1EE677A 		vneg.f32	s15, s15
 6393 0062 F4EEC07A 		vcmpe.f32	s15, s0
 6394 0066 F1EE10FA 		vmrs	APSR_nzcv, FPSCR
 6395 006a D6DB     		blt	.L525
 6396              		.loc 1 1006 0
 6397 006c 454A     		ldr	r2, .L574+4
 6398 006e 0021     		movs	r1, #0
 6399 0070 1160     		str	r1, [r2]
 6400              		.loc 1 1009 0
 6401 0072 D3ED157A 		vldr.32	s15, [r3, #84]
 6402              		.loc 1 1005 0
 6403 0076 B1EE400A 		vneg.f32	s0, s0
 6404              	.LVL459:
 6405              		.loc 1 1009 0
 6406 007a F4EEC07A 		vcmpe.f32	s15, s0
 6407 007e F1EE10FA 		vmrs	APSR_nzcv, FPSCR
 6408 0082 D1DC     		bgt	.L572
 6409              	.L565:
 6410              		.loc 1 1042 0
 6411 0084 D3ED167A 		vldr.32	s15, [r3, #88]
 6412 0088 404C     		ldr	r4, .L574+12
 6413 008a F4EEC07A 		vcmpe.f32	s15, s0
 6414 008e F1EE10FA 		vmrs	APSR_nzcv, FPSCR
 6415              		.loc 1 1043 0
 6416 0092 48BF     		it	mi
 6417 0094 93ED160A 		vldrmi.32	s0, [r3, #88]
 6418              	.LVL460:
 6419              	.L537:
 6420              		.loc 1 1046 0
 6421 0098 FFF7FEFF 		bl	set_duty_cycle_hw
 6422              	.LVL461:
 6423              		.loc 1 1048 0
 6424 009c 2B68     		ldr	r3, [r5]
 6425 009e 9D78     		ldrb	r5, [r3, #2]	@ zero_extendqisi2
 6426 00a0 EDB2     		uxtb	r5, r5
 6427 00a2 012D     		cmp	r5, #1
 6428 00a4 3ED0     		beq	.L573
 6429              		.loc 1 1053 0
 6430 00a6 3B4A     		ldr	r2, .L574+20
 6431 00a8 1278     		ldrb	r2, [r2]	@ zero_extendqisi2
 6432 00aa A2B1     		cbz	r2, .L540
 6433              		.loc 1 1054 0
 6434 00ac 2278     		ldrb	r2, [r4]	@ zero_extendqisi2
 6435 00ae 022A     		cmp	r2, #2
 6436 00b0 10D0     		beq	.L522
 6437              		.loc 1 1055 0
 6438 00b2 2278     		ldrb	r2, [r4]	@ zero_extendqisi2
 6439 00b4 002A     		cmp	r2, #0
 6440 00b6 39D1     		bne	.L542
 6441              		.loc 1 1056 0
ARM GAS  /tmp/cchSvKkm.s 			page 114


 6442 00b8 0221     		movs	r1, #2
 6443              		.loc 1 1058 0
 6444 00ba 374A     		ldr	r2, .L574+24
 6445              		.loc 1 1056 0
 6446 00bc 2170     		strb	r1, [r4]
 6447              		.loc 1 1058 0
 6448 00be D2ED007A 		vldr.32	s15, [r2]
 6449 00c2 93ED217A 		vldr.32	s14, [r3, #132]
 6450 00c6 F0EEE77A 		vabs.f32	s15, s15
 6451 00ca F4EEC77A 		vcmpe.f32	s15, s14
 6452 00ce F1EE10FA 		vmrs	APSR_nzcv, FPSCR
 6453 00d2 0CD4     		bmi	.L570
 6454              	.L522:
 6455              		.loc 1 1077 0
 6456 00d4 38BD     		pop	{r3, r4, r5, pc}
 6457              	.L540:
 6458              		.loc 1 1069 0
 6459 00d6 2378     		ldrb	r3, [r4]	@ zero_extendqisi2
 6460 00d8 022B     		cmp	r3, #2
 6461 00da FBD0     		beq	.L522
 6462              		.loc 1 1070 0
 6463 00dc 0223     		movs	r3, #2
 6464 00de 2370     		strb	r3, [r4]
 6465              		.loc 1 1071 0
 6466 00e0 FFF7FEFF 		bl	mcpwm_read_hall_phase
 6467              	.LVL462:
 6468 00e4 2D4B     		ldr	r3, .L574+28
 6469 00e6 1860     		str	r0, [r3]
 6470              	.L569:
 6471              		.loc 1 1072 0
 6472 00e8 1868     		ldr	r0, [r3]
 6473 00ea FFF7FEFF 		bl	set_next_comm_step
 6474              	.LVL463:
 6475              	.L570:
 6476              		.loc 1 1073 0
 6477 00ee 0120     		movs	r0, #1
 6478              		.loc 1 1077 0
 6479 00f0 BDE83840 		pop	{r3, r4, r5, lr}
 6480              		.cfi_remember_state
 6481              		.cfi_restore 14
 6482              		.cfi_restore 5
 6483              		.cfi_restore 4
 6484              		.cfi_restore 3
 6485              		.cfi_def_cfa_offset 0
 6486              		.loc 1 1073 0
 6487 00f4 FFF7FEBF 		b	commutate
 6488              	.LVL464:
 6489              	.L529:
 6490              		.cfi_restore_state
 6491              	.LBB184:
 6492              		.loc 1 1023 0
 6493 00f8 244C     		ldr	r4, .L574+12
 6494              		.loc 1 1018 0
 6495 00fa D3ED0A7A 		vldr.32	s15, [r3, #40]
 6496              	.LVL465:
 6497              		.loc 1 1023 0
 6498 00fe 2278     		ldrb	r2, [r4]	@ zero_extendqisi2
ARM GAS  /tmp/cchSvKkm.s 			page 115


 6499 0100 D2B2     		uxtb	r2, r2
 6500 0102 012A     		cmp	r2, #1
 6501 0104 A1D0     		beq	.L533
 6502              	.L571:
 6503 0106 022A     		cmp	r2, #2
 6504 0108 E4D1     		bne	.L522
 6505              		.loc 1 1026 0
 6506 010a 234A     		ldr	r2, .L574+24
 6507 010c 92ED007A 		vldr.32	s14, [r2]
 6508 0110 B0EEC77A 		vabs.f32	s14, s14
 6509 0114 B4EEE77A 		vcmpe.f32	s14, s15
 6510 0118 F1EE10FA 		vmrs	APSR_nzcv, FPSCR
 6511 011c 26DD     		ble	.L566
 6512              		.loc 1 1027 0
 6513 011e 93ED150A 		vldr.32	s0, [r3, #84]
 6514              	.LVL466:
 6515              		.loc 1 1032 0
 6516 0122 B9E7     		b	.L537
 6517              	.LVL467:
 6518              	.L573:
 6519              	.LBE184:
 6520              		.loc 1 1049 0
 6521 0124 0222     		movs	r2, #2
 6522              		.loc 1 1050 0
 6523 0126 1D4B     		ldr	r3, .L574+28
 6524              		.loc 1 1049 0
 6525 0128 2270     		strb	r2, [r4]
 6526 012a DDE7     		b	.L569
 6527              	.L542:
 6528              		.loc 1 1061 0
 6529 012c 2278     		ldrb	r2, [r4]	@ zero_extendqisi2
 6530 012e 032A     		cmp	r2, #3
 6531 0130 D0D1     		bne	.L522
 6532              		.loc 1 1062 0
 6533 0132 194A     		ldr	r2, .L574+24
 6534 0134 D2ED007A 		vldr.32	s15, [r2]
 6535 0138 93ED217A 		vldr.32	s14, [r3, #132]
 6536 013c F0EEE77A 		vabs.f32	s15, s15
 6537 0140 F4EEC77A 		vcmpe.f32	s15, s14
 6538 0144 F1EE10FA 		vmrs	APSR_nzcv, FPSCR
 6539 0148 C4D5     		bpl	.L522
 6540              	.LBB185:
 6541              	.LBB186:
 6542              		.loc 1 788 0
 6543 014a 154A     		ldr	r2, .L574+32
 6544 014c D2ED007A 		vldr.32	s15, [r2]
 6545              	.LBE186:
 6546              	.LBE185:
 6547              		.loc 1 1062 0
 6548 0150 93ED237A 		vldr.32	s14, [r3, #140]
 6549 0154 B4EEE77A 		vcmpe.f32	s14, s15
 6550 0158 F1EE10FA 		vmrs	APSR_nzcv, FPSCR
 6551 015c BADD     		ble	.L522
 6552              		.loc 1 1063 0
 6553 015e 0223     		movs	r3, #2
 6554 0160 2370     		strb	r3, [r4]
 6555              		.loc 1 1064 0
ARM GAS  /tmp/cchSvKkm.s 			page 116


 6556 0162 0120     		movs	r0, #1
 6557              		.loc 1 1077 0
 6558 0164 BDE83840 		pop	{r3, r4, r5, lr}
 6559              		.cfi_remember_state
 6560              		.cfi_restore 14
 6561              		.cfi_restore 5
 6562              		.cfi_restore 4
 6563              		.cfi_restore 3
 6564              		.cfi_def_cfa_offset 0
 6565              		.loc 1 1064 0
 6566 0168 FFF7FEBF 		b	commutate
 6567              	.LVL468:
 6568              	.L566:
 6569              		.cfi_restore_state
 6570              	.LBB187:
 6571              	.LBB179:
 6572              	.LBB180:
 6573              		.loc 1 914 0
 6574 016c 084B     		ldr	r3, .L574+16
 6575              		.loc 1 913 0
 6576 016e 0321     		movs	r1, #3
 6577              		.loc 1 914 0
 6578 0170 0022     		movs	r2, #0
 6579              		.loc 1 913 0
 6580 0172 2170     		strb	r1, [r4]
 6581              		.loc 1 914 0
 6582 0174 1A60     		str	r2, [r3]
 6583              	.LBE180:
 6584              	.LBE179:
 6585              	.LBE187:
 6586              		.loc 1 1077 0
 6587 0176 BDE83840 		pop	{r3, r4, r5, lr}
 6588              		.cfi_restore 14
 6589              		.cfi_restore 5
 6590              		.cfi_restore 4
 6591              		.cfi_restore 3
 6592              		.cfi_def_cfa_offset 0
 6593              	.LBB188:
 6594              	.LBB182:
 6595              	.LBB181:
 6596              		.loc 1 915 0
 6597 017a FFF7FEBF 		b	full_brake_hw
 6598              	.LVL469:
 6599              	.L575:
 6600 017e 00BF     		.align	2
 6601              	.L574:
 6602 0180 00000000 		.word	.LANCHOR0
 6603 0184 00000000 		.word	.LANCHOR4
 6604 0188 00000000 		.word	.LANCHOR39
 6605 018c 00000000 		.word	.LANCHOR2
 6606 0190 00000000 		.word	.LANCHOR42
 6607 0194 00000000 		.word	.LANCHOR17
 6608 0198 00000000 		.word	.LANCHOR21
 6609 019c 00000000 		.word	.LANCHOR3
 6610 01a0 00000000 		.word	.LANCHOR41
 6611              	.LBE181:
 6612              	.LBE182:
ARM GAS  /tmp/cchSvKkm.s 			page 117


 6613              	.LBE188:
 6614              		.cfi_endproc
 6615              	.LFE294:
 6616              		.size	set_duty_cycle_ll, .-set_duty_cycle_ll
 6617              		.section	.text.set_duty_cycle_hl,"ax",%progbits
 6618              		.align	1
 6619              		.p2align 4,,15
 6620              		.syntax unified
 6621              		.thumb
 6622              		.thumb_func
 6623              		.fpu fpv4-sp-d16
 6624              		.type	set_duty_cycle_hl, %function
 6625              	set_duty_cycle_hl:
 6626              	.LFB293:
 6627              		.loc 1 950 0
 6628              		.cfi_startproc
 6629              		@ args = 0, pretend = 0, frame = 8
 6630              		@ frame_needed = 0, uses_anonymous_args = 0
 6631              	.LVL470:
 6632 0000 10B5     		push	{r4, lr}
 6633              		.cfi_def_cfa_offset 8
 6634              		.cfi_offset 4, -8
 6635              		.cfi_offset 14, -4
 6636              		.loc 1 951 0
 6637 0002 3B4C     		ldr	r4, .L604
 6638 0004 2368     		ldr	r3, [r4]
 6639              		.loc 1 950 0
 6640 0006 82B0     		sub	sp, sp, #8
 6641              		.cfi_def_cfa_offset 16
 6642              		.loc 1 951 0
 6643 0008 D3ED167A 		vldr.32	s15, [r3, #88]
 6644 000c D3ED160A 		vldr.32	s1, [r3, #88]
 6645              		.loc 1 950 0
 6646 0010 02A8     		add	r0, sp, #8
 6647 0012 20ED010A 		vstmdb.32	r0!, {s0}
 6648              		.loc 1 951 0
 6649 0016 B1EE670A 		vneg.f32	s0, s15
 6650              	.LVL471:
 6651 001a FFF7FEFF 		bl	utils_truncate_number
 6652              	.LVL472:
 6653              		.loc 1 953 0
