ARM GAS  /tmp/cc50jUqN.s 			page 1


   1              		.cpu cortex-m4
   2              		.eabi_attribute 27, 1
   3              		.eabi_attribute 28, 1
   4              		.eabi_attribute 20, 1
   5              		.eabi_attribute 21, 1
   6              		.eabi_attribute 23, 3
   7              		.eabi_attribute 24, 1
   8              		.eabi_attribute 25, 1
   9              		.eabi_attribute 26, 1
  10              		.eabi_attribute 30, 2
  11              		.eabi_attribute 34, 1
  12              		.eabi_attribute 18, 4
  13              		.file	"mcpwm_foc.c"
  14              		.text
  15              	.Ltext0:
  16              		.cfi_sections	.debug_frame
  17              		.section	.text.correct_encoder,"ax",%progbits
  18              		.align	1
  19              		.p2align 4,,15
  20              		.syntax unified
  21              		.thumb
  22              		.thumb_func
  23              		.fpu fpv4-sp-d16
  24              		.type	correct_encoder, %function
  25              	correct_encoder:
  26              	.LFB323:
  27              		.file 1 "mcpwm_foc.c"
  28              		.loc 1 2812 0
  29              		.cfi_startproc
  30              		@ args = 0, pretend = 0, frame = 0
  31              		@ frame_needed = 0, uses_anonymous_args = 0
  32              		@ link register save eliminated.
  33              	.LVL0:
  34              		.loc 1 2813 0
  35 0000 DFED146A 		vldr.32	s13, .L12
  36              		.loc 1 2817 0
  37 0004 144B     		ldr	r3, .L12+4
  38              		.loc 1 2818 0
  39 0006 154A     		ldr	r2, .L12+8
  40              		.loc 1 2817 0
  41 0008 1B68     		ldr	r3, [r3]
  42 000a 9FED157A 		vldr.32	s14, .L12+12
  43 000e D3ED487A 		vldr.32	s15, [r3, #288]
  44              		.loc 1 2818 0
  45 0012 1178     		ldrb	r1, [r2]	@ zero_extendqisi2
  46              		.loc 1 2813 0
  47 0014 81EE261A 		vdiv.f32	s2, s2, s13
  48              	.LVL1:
  49              		.loc 1 2817 0
  50 0018 67EE877A 		vmul.f32	s15, s15, s14
  51              		.loc 1 2813 0
  52 001c B0EEC11A 		vabs.f32	s2, s2
  53              	.LVL2:
  54              		.loc 1 2819 0
  55 0020 93ED487A 		vldr.32	s14, [r3, #288]
  56              		.loc 1 2818 0
  57 0024 49B1     		cbz	r1, .L2
ARM GAS  /tmp/cc50jUqN.s 			page 2


  58              		.loc 1 2819 0
  59 0026 77EE277A 		vadd.f32	s15, s14, s15
  60              	.LVL3:
  61 002a F4EEC17A 		vcmpe.f32	s15, s2
  62 002e F1EE10FA 		vmrs	APSR_nzcv, FPSCR
  63 0032 0CD4     		bmi	.L11
  64              	.L3:
  65              		.loc 1 2828 0
  66 0034 B0EE600A 		vmov.f32	s0, s1
  67              	.LVL4:
  68              	.L1:
  69              		.loc 1 2829 0
  70 0038 7047     		bx	lr
  71              	.LVL5:
  72              	.L2:
  73              		.loc 1 2823 0
  74 003a 77EE677A 		vsub.f32	s15, s14, s15
  75              	.LVL6:
  76 003e F4EEC17A 		vcmpe.f32	s15, s2
  77 0042 F1EE10FA 		vmrs	APSR_nzcv, FPSCR
  78 0046 F7DD     		ble	.L1
  79              		.loc 1 2824 0
  80 0048 0123     		movs	r3, #1
  81 004a 1370     		strb	r3, [r2]
  82 004c F2E7     		b	.L3
  83              	.L11:
  84              		.loc 1 2820 0
  85 004e 0023     		movs	r3, #0
  86 0050 1370     		strb	r3, [r2]
  87 0052 7047     		bx	lr
  88              	.L13:
  89              		.align	2
  90              	.L12:
  91 0054 5077D63D 		.word	1037465424
  92 0058 00000000 		.word	.LANCHOR0
  93 005c 00000000 		.word	.LANCHOR1
  94 0060 CDCC4C3D 		.word	1028443341
  95              		.cfi_endproc
  96              	.LFE323:
  97              		.size	correct_encoder, .-correct_encoder
  98              		.section	.text.start_pwm_hw,"ax",%progbits
  99              		.align	1
 100              		.p2align 4,,15
 101              		.syntax unified
 102              		.thumb
 103              		.thumb_func
 104              		.fpu fpv4-sp-d16
 105              		.type	start_pwm_hw, %function
 106              	start_pwm_hw:
 107              	.LFB321:
 108              		.loc 1 2772 0
 109              		.cfi_startproc
 110              		@ args = 0, pretend = 0, frame = 0
 111              		@ frame_needed = 0, uses_anonymous_args = 0
 112 0000 10B5     		push	{r4, lr}
 113              		.cfi_def_cfa_offset 8
 114              		.cfi_offset 4, -8
ARM GAS  /tmp/cc50jUqN.s 			page 3


 115              		.cfi_offset 14, -4
 116              		.loc 1 2773 0
 117 0002 194C     		ldr	r4, .L16
 118 0004 6022     		movs	r2, #96
 119 0006 2046     		mov	r0, r4
 120 0008 0021     		movs	r1, #0
 121 000a FFF7FEFF 		bl	TIM_SelectOCxM
 122              	.LVL7:
 123              		.loc 1 2774 0
 124 000e 2046     		mov	r0, r4
 125 0010 0122     		movs	r2, #1
 126 0012 0021     		movs	r1, #0
 127 0014 FFF7FEFF 		bl	TIM_CCxCmd
 128              	.LVL8:
 129              		.loc 1 2775 0
 130 0018 2046     		mov	r0, r4
 131 001a 0422     		movs	r2, #4
 132 001c 0021     		movs	r1, #0
 133 001e FFF7FEFF 		bl	TIM_CCxNCmd
 134              	.LVL9:
 135              		.loc 1 2777 0
 136 0022 2046     		mov	r0, r4
 137 0024 6022     		movs	r2, #96
 138 0026 0421     		movs	r1, #4
 139 0028 FFF7FEFF 		bl	TIM_SelectOCxM
 140              	.LVL10:
 141              		.loc 1 2778 0
 142 002c 2046     		mov	r0, r4
 143 002e 0122     		movs	r2, #1
 144 0030 0421     		movs	r1, #4
 145 0032 FFF7FEFF 		bl	TIM_CCxCmd
 146              	.LVL11:
 147              		.loc 1 2779 0
 148 0036 0422     		movs	r2, #4
 149 0038 1146     		mov	r1, r2
 150 003a 2046     		mov	r0, r4
 151 003c FFF7FEFF 		bl	TIM_CCxNCmd
 152              	.LVL12:
 153              		.loc 1 2781 0
 154 0040 2046     		mov	r0, r4
 155 0042 6022     		movs	r2, #96
 156 0044 0821     		movs	r1, #8
 157 0046 FFF7FEFF 		bl	TIM_SelectOCxM
 158              	.LVL13:
 159              		.loc 1 2782 0
 160 004a 2046     		mov	r0, r4
 161 004c 0122     		movs	r2, #1
 162 004e 0821     		movs	r1, #8
 163 0050 FFF7FEFF 		bl	TIM_CCxCmd
 164              	.LVL14:
 165              		.loc 1 2783 0
 166 0054 0422     		movs	r2, #4
 167 0056 2046     		mov	r0, r4
 168 0058 0821     		movs	r1, #8
 169 005a FFF7FEFF 		bl	TIM_CCxNCmd
 170              	.LVL15:
 171              		.loc 1 2791 0
ARM GAS  /tmp/cc50jUqN.s 			page 4


 172 005e 034B     		ldr	r3, .L16+4
 173 0060 0122     		movs	r2, #1
 174 0062 1A70     		strb	r2, [r3]
 175              		.loc 1 2792 0
 176 0064 10BD     		pop	{r4, pc}
 177              	.L17:
 178 0066 00BF     		.align	2
 179              	.L16:
 180 0068 00000140 		.word	1073807360
 181 006c 00000000 		.word	.LANCHOR2
 182              		.cfi_endproc
 183              	.LFE321:
 184              		.size	start_pwm_hw, .-start_pwm_hw
 185              		.section	.text.stop_pwm_hw,"ax",%progbits
 186              		.align	1
 187              		.p2align 4,,15
 188              		.syntax unified
 189              		.thumb
 190              		.thumb_func
 191              		.fpu fpv4-sp-d16
 192              		.type	stop_pwm_hw, %function
 193              	stop_pwm_hw:
 194              	.LFB320:
 195              		.loc 1 2751 0
 196              		.cfi_startproc
 197              		@ args = 0, pretend = 0, frame = 0
 198              		@ frame_needed = 0, uses_anonymous_args = 0
 199 0000 10B5     		push	{r4, lr}
 200              		.cfi_def_cfa_offset 8
 201              		.cfi_offset 4, -8
 202              		.cfi_offset 14, -4
 203              		.loc 1 2752 0
 204 0002 1B4C     		ldr	r4, .L20
 205 0004 4022     		movs	r2, #64
 206 0006 2046     		mov	r0, r4
 207 0008 0021     		movs	r1, #0
 208 000a FFF7FEFF 		bl	TIM_SelectOCxM
 209              	.LVL16:
 210              		.loc 1 2753 0
 211 000e 2046     		mov	r0, r4
 212 0010 0122     		movs	r2, #1
 213 0012 0021     		movs	r1, #0
 214 0014 FFF7FEFF 		bl	TIM_CCxCmd
 215              	.LVL17:
 216              		.loc 1 2754 0
 217 0018 0022     		movs	r2, #0
 218 001a 1146     		mov	r1, r2
 219 001c 2046     		mov	r0, r4
 220 001e FFF7FEFF 		bl	TIM_CCxNCmd
 221              	.LVL18:
 222              		.loc 1 2756 0
 223 0022 2046     		mov	r0, r4
 224 0024 4022     		movs	r2, #64
 225 0026 0421     		movs	r1, #4
 226 0028 FFF7FEFF 		bl	TIM_SelectOCxM
 227              	.LVL19:
 228              		.loc 1 2757 0
ARM GAS  /tmp/cc50jUqN.s 			page 5


 229 002c 2046     		mov	r0, r4
 230 002e 0122     		movs	r2, #1
 231 0030 0421     		movs	r1, #4
 232 0032 FFF7FEFF 		bl	TIM_CCxCmd
 233              	.LVL20:
 234              		.loc 1 2758 0
 235 0036 2046     		mov	r0, r4
 236 0038 0022     		movs	r2, #0
 237 003a 0421     		movs	r1, #4
 238 003c FFF7FEFF 		bl	TIM_CCxNCmd
 239              	.LVL21:
 240              		.loc 1 2760 0
 241 0040 2046     		mov	r0, r4
 242 0042 4022     		movs	r2, #64
 243 0044 0821     		movs	r1, #8
 244 0046 FFF7FEFF 		bl	TIM_SelectOCxM
 245              	.LVL22:
 246              		.loc 1 2761 0
 247 004a 2046     		mov	r0, r4
 248 004c 0122     		movs	r2, #1
 249 004e 0821     		movs	r1, #8
 250 0050 FFF7FEFF 		bl	TIM_CCxCmd
 251              	.LVL23:
 252              		.loc 1 2762 0
 253 0054 0022     		movs	r2, #0
 254 0056 2046     		mov	r0, r4
 255 0058 0821     		movs	r1, #8
 256 005a FFF7FEFF 		bl	TIM_CCxNCmd
 257              	.LVL24:
 258              		.loc 1 2764 0
 259 005e 2046     		mov	r0, r4
 260 0060 2021     		movs	r1, #32
 261 0062 FFF7FEFF 		bl	TIM_GenerateEvent
 262              	.LVL25:
 263              		.loc 1 2769 0
 264 0066 034B     		ldr	r3, .L20+4
 265 0068 0022     		movs	r2, #0
 266 006a 1A70     		strb	r2, [r3]
 267              		.loc 1 2770 0
 268 006c 10BD     		pop	{r4, pc}
 269              	.L21:
 270 006e 00BF     		.align	2
 271              	.L20:
 272 0070 00000140 		.word	1073807360
 273 0074 00000000 		.word	.LANCHOR2
 274              		.cfi_endproc
 275              	.LFE320:
 276              		.size	stop_pwm_hw, .-stop_pwm_hw
 277              		.section	.text.read_hall,"ax",%progbits
 278              		.align	1
 279              		.p2align 4,,15
 280              		.syntax unified
 281              		.thumb
 282              		.thumb_func
 283              		.fpu fpv4-sp-d16
 284              		.type	read_hall, %function
 285              	read_hall:
ARM GAS  /tmp/cc50jUqN.s 			page 6


 286              	.LFB322:
 287              		.loc 1 2794 0
 288              		.cfi_startproc
 289              		@ args = 0, pretend = 0, frame = 0
 290              		@ frame_needed = 0, uses_anonymous_args = 0
 291              		.loc 1 2795 0
 292 0000 174B     		ldr	r3, .L24
 293              		.loc 1 2794 0
 294 0002 2DE9F047 		push	{r4, r5, r6, r7, r8, r9, r10, lr}
 295              		.cfi_def_cfa_offset 32
 296              		.cfi_offset 4, -32
 297              		.cfi_offset 5, -28
 298              		.cfi_offset 6, -24
 299              		.cfi_offset 7, -20
 300              		.cfi_offset 8, -16
 301              		.cfi_offset 9, -12
 302              		.cfi_offset 10, -8
 303              		.cfi_offset 14, -4
 304              		.loc 1 2795 0
 305 0006 1869     		ldr	r0, [r3, #16]
 306              	.LVL26:
 307              		.loc 1 2796 0
 308 0008 1D69     		ldr	r5, [r3, #16]
 309              	.LVL27:
 310              		.loc 1 2797 0
 311 000a 1E69     		ldr	r6, [r3, #16]
 312              	.LVL28:
 313              		.loc 1 2799 0
 314 000c 1969     		ldr	r1, [r3, #16]
 315              	.LVL29:
 316              		.loc 1 2800 0
 317 000e D3F81090 		ldr	r9, [r3, #16]
 318              	.LVL30:
 319              		.loc 1 2801 0
 320 0012 1F69     		ldr	r7, [r3, #16]
 321              	.LVL31:
 322              		.loc 1 2803 0
 323 0014 1A69     		ldr	r2, [r3, #16]
 324              	.LVL32:
 325              		.loc 1 2804 0
 326 0016 D3F810A0 		ldr	r10, [r3, #16]
 327              	.LVL33:
 328              		.loc 1 2805 0
 329 001a D3F81080 		ldr	r8, [r3, #16]
 330              	.LVL34:
 331              		.loc 1 2807 0
 332 001e C1F3C011 		ubfx	r1, r1, #7, #1
 333              	.LVL35:
 334 0022 C2F3C012 		ubfx	r2, r2, #7, #1
 335              	.LVL36:
 336 0026 C0F3C010 		ubfx	r0, r0, #7, #1
 337              	.LVL37:
 338 002a FFF7FEFF 		bl	utils_middle_of_3_int
 339              	.LVL38:
 340              		.loc 1 2808 0
 341 002e CAF30022 		ubfx	r2, r10, #8, #1
 342              		.loc 1 2807 0
ARM GAS  /tmp/cc50jUqN.s 			page 7


 343 0032 0446     		mov	r4, r0
 344              		.loc 1 2808 0
 345 0034 C9F30021 		ubfx	r1, r9, #8, #1
 346 0038 C5F30020 		ubfx	r0, r5, #8, #1
 347 003c FFF7FEFF 		bl	utils_middle_of_3_int
 348              	.LVL39:
 349              		.loc 1 2809 0
 350 0040 C8F38012 		ubfx	r2, r8, #6, #1
 351              		.loc 1 2808 0
 352 0044 0546     		mov	r5, r0
 353              	.LVL40:
 354              		.loc 1 2809 0
 355 0046 C7F38011 		ubfx	r1, r7, #6, #1
 356 004a C6F38010 		ubfx	r0, r6, #6, #1
 357 004e FFF7FEFF 		bl	utils_middle_of_3_int
 358              	.LVL41:
 359 0052 8000     		lsls	r0, r0, #2
 360              		.loc 1 2808 0
 361 0054 40EA4500 		orr	r0, r0, r5, lsl #1
 362              		.loc 1 2810 0
 363 0058 2043     		orrs	r0, r0, r4
 364 005a BDE8F087 		pop	{r4, r5, r6, r7, r8, r9, r10, pc}
 365              	.LVL42:
 366              	.L25:
 367 005e 00BF     		.align	2
 368              	.L24:
 369 0060 00080240 		.word	1073874944
 370              		.cfi_endproc
 371              	.LFE322:
 372              		.size	read_hall, .-read_hall
 373              		.section	.text.correct_hall,"ax",%progbits
 374              		.align	1
 375              		.p2align 4,,15
 376              		.syntax unified
 377              		.thumb
 378              		.thumb_func
 379              		.fpu fpv4-sp-d16
 380              		.type	correct_hall, %function
 381              	correct_hall:
 382              	.LFB324:
 383              		.loc 1 2831 0
 384              		.cfi_startproc
 385              		@ args = 0, pretend = 0, frame = 0
 386              		@ frame_needed = 0, uses_anonymous_args = 0
 387              	.LVL43:
 388 0000 F8B5     		push	{r3, r4, r5, r6, r7, lr}
 389              		.cfi_def_cfa_offset 24
 390              		.cfi_offset 3, -24
 391              		.cfi_offset 4, -20
 392              		.cfi_offset 5, -16
 393              		.cfi_offset 6, -12
 394              		.cfi_offset 7, -8
 395              		.cfi_offset 14, -4
 396              		.loc 1 2833 0
 397 0002 DFED6B6A 		vldr.32	s13, .L63
 398              		.loc 1 2837 0
 399 0006 6B4A     		ldr	r2, .L63+4
ARM GAS  /tmp/cc50jUqN.s 			page 8


 400              		.loc 1 2838 0
 401 0008 6B4B     		ldr	r3, .L63+8
 402              		.loc 1 2837 0
 403 000a 1568     		ldr	r5, [r2]
 404 000c 9FED6B7A 		vldr.32	s14, .L63+12
 405 0010 D5ED487A 		vldr.32	s15, [r5, #288]
 406              		.loc 1 2838 0
 407 0014 1A78     		ldrb	r2, [r3]	@ zero_extendqisi2
 408              		.loc 1 2831 0
 409 0016 2DED028B 		vpush.64	{d8}
 410              		.cfi_def_cfa_offset 32
 411              		.cfi_offset 80, -32
 412              		.cfi_offset 81, -28
 413              		.loc 1 2833 0
 414 001a 80EEA68A 		vdiv.f32	s16, s1, s13
 415              		.loc 1 2837 0
 416 001e 67EE877A 		vmul.f32	s15, s15, s14
 417              		.loc 1 2833 0
 418 0022 B0EEC88A 		vabs.f32	s16, s16
 419              	.LVL44:
 420              		.loc 1 2839 0
 421 0026 95ED487A 		vldr.32	s14, [r5, #288]
 422              		.loc 1 2838 0
 423 002a 7AB1     		cbz	r2, .L27
 424              		.loc 1 2839 0
 425 002c 77EE277A 		vadd.f32	s15, s14, s15
 426              	.LVL45:
 427 0030 F4EEC87A 		vcmpe.f32	s15, s16
 428 0034 F1EE10FA 		vmrs	APSR_nzcv, FPSCR
 429 0038 11D5     		bpl	.L28
 430              		.loc 1 2840 0
 431 003a 0022     		movs	r2, #0
 432 003c 1A70     		strb	r2, [r3]
 433              	.L30:
 434              		.loc 1 2911 0
 435 003e 604B     		ldr	r3, .L63+16
 436 0040 6FF00102 		mvn	r2, #1
 437 0044 1A60     		str	r2, [r3]
 438              	.LVL46:
 439              	.L26:
 440              		.loc 1 2915 0
 441 0046 BDEC028B 		vldm	sp!, {d8}
 442              		.cfi_remember_state
 443              		.cfi_restore 80
 444              		.cfi_restore 81
 445              		.cfi_def_cfa_offset 24
 446              	.LVL47:
 447 004a F8BD     		pop	{r3, r4, r5, r6, r7, pc}
 448              	.LVL48:
 449              	.L27:
 450              		.cfi_restore_state
 451              		.loc 1 2843 0
 452 004c 77EE677A 		vsub.f32	s15, s14, s15
 453              	.LVL49:
 454 0050 F4EEC87A 		vcmpe.f32	s15, s16
 455 0054 F1EE10FA 		vmrs	APSR_nzcv, FPSCR
 456 0058 F1DD     		ble	.L30
ARM GAS  /tmp/cc50jUqN.s 			page 9


 457              		.loc 1 2844 0
 458 005a 0122     		movs	r2, #1
 459 005c 1A70     		strb	r2, [r3]
 460              	.L28:
 461 005e 11EE107A 		vmov	r7, s2
 462 0062 10EE104A 		vmov	r4, s0
 463 0066 10EE906A 		vmov	r6, s1
 464              	.LBB12:
 465              		.loc 1 2849 0
 466 006a FFF7FEFF 		bl	read_hall
 467              	.LVL50:
 468 006e 2844     		add	r0, r0, r5
 469 0070 90F81531 		ldrb	r3, [r0, #277]	@ zero_extendqisi2
 470 0074 DBB2     		uxtb	r3, r3
 471              	.LVL51:
 472              		.loc 1 2852 0
 473 0076 C82B     		cmp	r3, #200
 474 0078 3FDC     		bgt	.L58
 475              	.LBB13:
 476              		.loc 1 2854 0
 477 007a 07EE903A 		vmov	s15, r3	@ int
 478 007e DFED515A 		vldr.32	s11, .L63+20
 479 0082 9FED516A 		vldr.32	s12, .L63+24
 480              		.loc 1 2856 0
 481 0086 4E49     		ldr	r1, .L63+16
 482              		.loc 1 2854 0
 483 0088 9FED507A 		vldr.32	s14, .L63+28
 484              		.loc 1 2856 0
 485 008c 0A68     		ldr	r2, [r1]
 486              		.loc 1 2854 0
 487 008e DFED506A 		vldr.32	s13, .L63+32
 488 0092 B8EEE75A 		vcvt.f32.s32	s10, s15
 489              		.loc 1 2856 0
 490 0096 002A     		cmp	r2, #0
 491              		.loc 1 2854 0
 492 0098 C5EE257A 		vdiv.f32	s15, s10, s11
 493 009c 67EE867A 		vmul.f32	s15, s15, s12
 494 00a0 67EE877A 		vmul.f32	s15, s15, s14
 495 00a4 C7EEA60A 		vdiv.f32	s1, s15, s13
 496              	.LVL52:
 497              		.loc 1 2856 0
 498 00a8 37DB     		blt	.L59
 499              		.loc 1 2867 0
 500 00aa 9A42     		cmp	r2, r3
 501 00ac 79D0     		beq	.L60
 502              	.LBB14:
 503              		.loc 1 2869 0
 504 00ae 981A     		subs	r0, r3, r2
 505 00b0 0028     		cmp	r0, #0
 506 00b2 B8BF     		it	lt
 507 00b4 4042     		rsblt	r0, r0, #0
 508              	.LVL53:
 509              		.loc 1 2870 0
 510 00b6 6328     		cmp	r0, #99
 511 00b8 5CDD     		ble	.L61
 512              		.loc 1 2872 0
 513 00ba 6428     		cmp	r0, #100
ARM GAS  /tmp/cc50jUqN.s 			page 10


 514 00bc 19D0     		beq	.L35
 515              	.LVL54:
 516              		.loc 1 2873 0
 517 00be 1A44     		add	r2, r2, r3
 518              	.LVL55:
 519 00c0 02EBD272 		add	r2, r2, r2, lsr #31
 520 00c4 5210     		asrs	r2, r2, #1
 521 00c6 434C     		ldr	r4, .L63+36
 522              	.LVL56:
 523 00c8 6432     		adds	r2, r2, #100
 524 00ca 84FB0204 		smull	r0, r4, r4, r2
 525 00ce D017     		asrs	r0, r2, #31
 526 00d0 C0EBA410 		rsb	r0, r0, r4, asr #6
 527 00d4 C824     		movs	r4, #200
 528 00d6 04FB1022 		mls	r2, r4, r0, r2
 529              	.LVL57:
 530              	.L57:
 531 00da 07EE902A 		vmov	s15, r2	@ int
 532 00de F8EEE77A 		vcvt.f32.s32	s15, s15
 533 00e2 87EEA55A 		vdiv.f32	s10, s15, s11
 534 00e6 25EE066A 		vmul.f32	s12, s10, s12
 535 00ea 26EE076A 		vmul.f32	s12, s12, s14
 536 00ee 86EE267A 		vdiv.f32	s14, s12, s13
 537              	.L35:
 538              		.loc 1 2876 0
 539 00f2 394C     		ldr	r4, .L63+40
 540 00f4 84ED007A 		vstr.32	s14, [r4]
 541 00f8 12E0     		b	.L33
 542              	.LVL58:
 543              	.L58:
 544              	.LBE14:
 545              	.LBE13:
 546              		.loc 1 2905 0
 547 00fa 384B     		ldr	r3, .L63+44
 548              	.LVL59:
 549              		.loc 1 2900 0
 550 00fc 304A     		ldr	r2, .L63+16
 551              		.loc 1 2905 0
 552 00fe 1B78     		ldrb	r3, [r3]	@ zero_extendqisi2
 553              		.loc 1 2900 0
 554 0100 4FF0FF31 		mov	r1, #-1
 555 0104 1160     		str	r1, [r2]
 556              		.loc 1 2905 0
 557 0106 1BB1     		cbz	r3, .L46
 558              		.loc 1 2905 0 is_stmt 0 discriminator 1
 559 0108 354B     		ldr	r3, .L63+48
 560 010a 1B78     		ldrb	r3, [r3]	@ zero_extendqisi2
 561 010c 022B     		cmp	r3, #2
 562 010e 4AD0     		beq	.L62
 563              	.L46:
 564              	.LBE12:
 565              		.loc 1 2915 0 is_stmt 1
 566 0110 BDEC028B 		vldm	sp!, {d8}
 567              		.cfi_remember_state
 568              		.cfi_restore 80
 569              		.cfi_restore 81
 570              		.cfi_def_cfa_offset 24
ARM GAS  /tmp/cc50jUqN.s 			page 11


 571              	.LVL60:
 572              	.LBB21:
 573 0114 00EE104A 		vmov	s0, r4
 574              	.LBE21:
 575 0118 F8BD     		pop	{r3, r4, r5, r6, r7, pc}
 576              	.LVL61:
 577              	.L59:
 578              		.cfi_restore_state
 579              	.LBB22:
 580              	.LBB18:
 581              		.loc 1 2865 0
 582 011a 2F4C     		ldr	r4, .L63+40
 583              	.LVL62:
 584 011c C4ED000A 		vstr.32	s1, [r4]
 585              	.L33:
 586              		.loc 1 2881 0
 587 0120 DFED308A 		vldr.32	s17, .L63+52
 588              		.loc 1 2879 0
 589 0124 0B60     		str	r3, [r1]
 590              		.loc 1 2881 0
 591 0126 B4EEE88A 		vcmpe.f32	s16, s17
 592 012a F1EE10FA 		vmrs	APSR_nzcv, FPSCR
 593 012e 09D5     		bpl	.L53
 594              		.loc 1 2883 0
 595 0130 C4ED000A 		vstr.32	s1, [r4]
 596              	.LVL63:
 597              	.L38:
 598              		.loc 1 2896 0
 599 0134 2848     		ldr	r0, .L63+40
 600 0136 FFF7FEFF 		bl	utils_norm_angle_rad
 601              	.LVL64:
 602              	.LBE18:
 603              	.LBE22:
 604              		.loc 1 2915 0
 605 013a BDEC028B 		vldm	sp!, {d8}
 606              		.cfi_remember_state
 607              		.cfi_restore 80
 608              		.cfi_restore 81
 609              		.cfi_def_cfa_offset 24
 610              	.LVL65:
 611              	.LBB23:
 612              	.LBB19:
 613              		.loc 1 2897 0
 614 013e 94ED000A 		vldr.32	s0, [r4]
 615              	.LVL66:
 616              	.LBE19:
 617              	.LBE23:
 618              		.loc 1 2915 0
 619 0142 F8BD     		pop	{r3, r4, r5, r6, r7, pc}
 620              	.LVL67:
 621              	.L53:
 622              		.cfi_restore_state
 623              	.LBB24:
 624              	.LBB20:
 625              	.LBB15:
 626              		.loc 1 2886 0
 627 0144 94ED000A 		vldr.32	s0, [r4]
ARM GAS  /tmp/cc50jUqN.s 			page 12


 628 0148 FFF7FEFF 		bl	utils_angle_difference_rad
 629              	.LVL68:
 630              		.loc 1 2887 0
 631 014c DFED267A 		vldr.32	s15, .L63+56
 632 0150 B0EEC07A 		vabs.f32	s14, s0
 633 0154 B4EEE77A 		vcmpe.f32	s14, s15
 634 0158 F1EE10FA 		vmrs	APSR_nzcv, FPSCR
 635 015c 18D5     		bpl	.L54
 636              		.loc 1 2889 0
 637 015e D4ED007A 		vldr.32	s15, [r4]
 638 0162 07EE106A 		vmov	s14, r6
 639 0166 06EE907A 		vmov	s13, r7
 640 016a E7EE267A 		vfma.f32	s15, s14, s13
 641 016e C4ED007A 		vstr.32	s15, [r4]
 642 0172 DFE7     		b	.L38
 643              	.LVL69:
 644              	.L61:
 645              	.LBE15:
 646              	.LBB16:
 647              		.loc 1 2871 0
 648 0174 1A44     		add	r2, r2, r3
 649              	.LVL70:
 650 0176 02EBD272 		add	r2, r2, r2, lsr #31
 651 017a 1648     		ldr	r0, .L63+36
 652 017c 5410     		asrs	r4, r2, #1
 653              	.LVL71:
 654 017e 80FB0450 		smull	r5, r0, r0, r4
 655 0182 D217     		asrs	r2, r2, #31
 656 0184 C2EBA012 		rsb	r2, r2, r0, asr #6
 657 0188 C820     		movs	r0, #200
 658 018a 00FB1242 		mls	r2, r0, r2, r4
 659 018e A4E7     		b	.L57
 660              	.LVL72:
 661              	.L54:
 662              	.LBE16:
 663              	.LBB17:
 664              		.loc 1 2892 0
 665 0190 80EE287A 		vdiv.f32	s14, s0, s17
 666 0194 D4ED007A 		vldr.32	s15, [r4]
 667 0198 77EEC77A 		vsub.f32	s15, s15, s14
 668 019c C4ED007A 		vstr.32	s15, [r4]
 669 01a0 C8E7     		b	.L38
 670              	.LVL73:
 671              	.L60:
 672 01a2 0D4C     		ldr	r4, .L63+40
 673              	.LVL74:
 674 01a4 BCE7     		b	.L33
 675              	.LVL75:
 676              	.L62:
 677              	.LBE17:
 678              	.LBE20:
 679              		.loc 1 2906 0
 680 01a6 114B     		ldr	r3, .L63+60
 681 01a8 93ED000A 		vldr.32	s0, [r3]
 682              	.LVL76:
 683 01ac 4BE7     		b	.L26
 684              	.L64:
ARM GAS  /tmp/cc50jUqN.s 			page 13


 685 01ae 00BF     		.align	2
 686              	.L63:
 687 01b0 5077D63D 		.word	1037465424
 688 01b4 00000000 		.word	.LANCHOR0
 689 01b8 00000000 		.word	.LANCHOR3
 690 01bc CDCCCC3D 		.word	1036831949
 691 01c0 00000000 		.word	.LANCHOR4
 692 01c4 00004843 		.word	1128792064
 693 01c8 0000B443 		.word	1135869952
 694 01cc DB0F4940 		.word	1078530011
 695 01d0 00003443 		.word	1127481344
 696 01d4 1F85EB51 		.word	1374389535
 697 01d8 00000000 		.word	.LANCHOR5
 698 01dc 00000000 		.word	.LANCHOR6
 699 01e0 00000000 		.word	.LANCHOR7
 700 01e4 0000C842 		.word	1120403456
 701 01e8 920A063F 		.word	1057360530
 702 01ec 00000000 		.word	.LANCHOR8
 703              	.LBE24:
 704              		.cfi_endproc
 705              	.LFE324:
 706              		.size	correct_hall, .-correct_hall
 707              		.section	.text.timer_thread,"ax",%progbits
 708              		.align	1
 709              		.p2align 4,,15
 710              		.syntax unified
 711              		.thumb
 712              		.thumb_func
 713              		.fpu fpv4-sp-d16
 714              		.type	timer_thread, %function
 715              	timer_thread:
 716              	.LFB312:
 717              		.loc 1 2177 0
 718              		.cfi_startproc
 719              		@ args = 0, pretend = 0, frame = 32
 720              		@ frame_needed = 0, uses_anonymous_args = 0
 721              	.LVL77:
 722              	.LBB33:
 723              	.LBB34:
 724              		.file 2 "ChibiOS_3.0.2/os/rt/include/chregistry.h"
 725              		.loc 2 135 0
 726 0000 C34B     		ldr	r3, .L137
 727 0002 C449     		ldr	r1, .L137+4
 728 0004 9A69     		ldr	r2, [r3, #24]
 729              	.LBE34:
 730              	.LBE33:
 731              	.LBB36:
 732              		.loc 1 2183 0
 733 0006 C44B     		ldr	r3, .L137+8
 734              	.LBE36:
 735              	.LBB49:
 736              	.LBB35:
 737              		.loc 2 135 0
 738 0008 9161     		str	r1, [r2, #24]
 739              	.LBE35:
 740              	.LBE49:
 741              	.LBB50:
ARM GAS  /tmp/cc50jUqN.s 			page 14


 742              		.loc 1 2183 0
 743 000a 1B78     		ldrb	r3, [r3]	@ zero_extendqisi2
 744 000c 002B     		cmp	r3, #0
 745 000e 40F02682 		bne	.L124
 746              	.LBE50:
 747              		.loc 1 2177 0
 748 0012 2DE9F04F 		push	{r4, r5, r6, r7, r8, r9, r10, fp, lr}
 749              		.cfi_def_cfa_offset 36
 750              		.cfi_offset 4, -36
 751              		.cfi_offset 5, -32
 752              		.cfi_offset 6, -28
 753              		.cfi_offset 7, -24
 754              		.cfi_offset 8, -20
 755              		.cfi_offset 9, -16
 756              		.cfi_offset 10, -12
 757              		.cfi_offset 11, -8
 758              		.cfi_offset 14, -4
 759 0016 2DED0A8B 		vpush.64	{d8, d9, d10, d11, d12}
 760              		.cfi_def_cfa_offset 76
 761              		.cfi_offset 80, -76
 762              		.cfi_offset 81, -72
 763              		.cfi_offset 82, -68
 764              		.cfi_offset 83, -64
 765              		.cfi_offset 84, -60
 766              		.cfi_offset 85, -56
 767              		.cfi_offset 86, -52
 768              		.cfi_offset 87, -48
 769              		.cfi_offset 88, -44
 770              		.cfi_offset 89, -40
 771 001a C04C     		ldr	r4, .L137+12
 772 001c C04D     		ldr	r5, .L137+16
 773 001e DFF834A3 		ldr	r10, .L137+68
 774 0022 C04E     		ldr	r6, .L137+20
 775 0024 DFF84493 		ldr	r9, .L137+92
 776 0028 DFF844B3 		ldr	fp, .L137+96
 777 002c DFF84483 		ldr	r8, .L137+100
 778 0030 BD4F     		ldr	r7, .L137+24
 779              	.LBB51:
 780              		.loc 1 2188 0
 781 0032 DFEDBE8A 		vldr.32	s17, .L137+28
 782              		.loc 1 2195 0
 783 0036 9FEDBEAA 		vldr.32	s20, .L137+32
 784 003a DFEDBE9A 		vldr.32	s19, .L137+36
 785              		.loc 1 2203 0
 786 003e 9FEDBE9A 		vldr.32	s18, .L137+40
 787              		.loc 1 2224 0
 788 0042 DFEDBEAA 		vldr.32	s21, .L137+44
 789              	.LBE51:
 790              		.loc 1 2177 0
 791 0046 89B0     		sub	sp, sp, #36
 792              		.cfi_def_cfa_offset 112
 793 0048 81E0     		b	.L66
 794              	.LVL78:
 795              	.L132:
 796              	.LBB52:
 797              		.loc 1 2218 0
 798 004a 99F80030 		ldrb	r3, [r9]	@ zero_extendqisi2
ARM GAS  /tmp/cc50jUqN.s 			page 15


 799              		.loc 1 2212 0
 800 004e 77EE897A 		vadd.f32	s15, s15, s18
 801              		.loc 1 2218 0
 802 0052 032B     		cmp	r3, #3
 803              		.loc 1 2212 0
 804 0054 C6ED007A 		vstr.32	s15, [r6]
 805              		.loc 1 2218 0
 806 0058 00F0CA80 		beq	.L74
 807              	.L133:
 808              		.loc 1 2218 0 is_stmt 0 discriminator 1
 809 005c D4ED037A 		vldr.32	s15, [r4, #12]
 810 0060 F0EEE77A 		vabs.f32	s15, s15
 811 0064 F4EEC97A 		vcmpe.f32	s15, s18
 812 0068 F1EE10FA 		vmrs	APSR_nzcv, FPSCR
 813 006c 00F1C080 		bmi	.L74
 814 0070 D6ED006A 		vldr.32	s13, [r6]
 815              	.L75:
 816              	.LVL79:
 817              		.loc 1 2224 0 is_stmt 1
 818 0074 2B68     		ldr	r3, [r5]
 819 0076 D8ED007A 		vldr.32	s15, [r8]
 820 007a 93ED417A 		vldr.32	s14, [r3, #260]
 821 007e B4EEE67A 		vcmpe.f32	s14, s13
 822 0082 F1EE10FA 		vmrs	APSR_nzcv, FPSCR
 823 0086 40F1BB80 		bpl	.L120
 824              		.loc 1 2224 0 is_stmt 0 discriminator 1
 825 008a F4EEEA7A 		vcmpe.f32	s15, s21
 826 008e F1EE10FA 		vmrs	APSR_nzcv, FPSCR
 827 0092 00F2B580 		bhi	.L120
 828              		.loc 1 2225 0 is_stmt 1
 829 0096 D3ED427A 		vldr.32	s15, [r3, #264]
 830              		.loc 1 2229 0
 831 009a F5EEC07A 		vcmpe.f32	s15, #0
 832 009e F1EE10FA 		vmrs	APSR_nzcv, FPSCR
 833              		.loc 1 2225 0
 834 00a2 C8ED007A 		vstr.32	s15, [r8]
 835              	.LVL80:
 836              		.loc 1 2229 0
 837 00a6 40F3B780 		ble	.L77
 838              		.loc 1 2230 0
 839 00aa D7ED007A 		vldr.32	s15, [r7]
 840 00ae 38EE278A 		vadd.f32	s16, s16, s15
 841              	.LVL81:
 842 00b2 87ED008A 		vstr.32	s16, [r7]
 843              		.loc 1 2235 0
 844 00b6 D4ED037A 		vldr.32	s15, [r4, #12]
 845 00ba F5EEC07A 		vcmpe.f32	s15, #0
 846 00be F1EE10FA 		vmrs	APSR_nzcv, FPSCR
 847 00c2 40F31C81 		ble	.L129
 848              		.loc 1 2236 0
 849 00c6 97ED007A 		vldr.32	s14, [r7]
 850 00ca DFED9D7A 		vldr.32	s15, .L137+48
 851 00ce 77EE277A 		vadd.f32	s15, s14, s15
 852 00d2 C7ED007A 		vstr.32	s15, [r7]
 853              	.LVL82:
 854              	.L79:
 855              		.loc 1 2242 0
ARM GAS  /tmp/cc50jUqN.s 			page 16


 856 00d6 9448     		ldr	r0, .L137+24
 857 00d8 FFF7FEFF 		bl	utils_norm_angle_rad
 858              	.LVL83:
 859              		.loc 1 2243 0
 860 00dc 0123     		movs	r3, #1
 861              		.loc 1 2252 0
 862 00de 994A     		ldr	r2, .L137+52
 863              		.loc 1 2244 0
 864 00e0 D8ED007A 		vldr.32	s15, [r8]
 865              		.loc 1 2243 0
 866 00e4 8BF80030 		strb	r3, [fp]
 867              		.loc 1 2252 0
 868 00e8 1278     		ldrb	r2, [r2]	@ zero_extendqisi2
 869              		.loc 1 2245 0
 870 00ea C6ED008A 		vstr.32	s17, [r6]
 871              		.loc 1 2244 0
 872 00ee 77EEC97A 		vsub.f32	s15, s15, s18
 873              		.loc 1 2252 0
 874 00f2 022A     		cmp	r2, #2
 875              		.loc 1 2244 0
 876 00f4 C8ED007A 		vstr.32	s15, [r8]
 877 00f8 2B68     		ldr	r3, [r5]
 878              		.loc 1 2252 0
 879 00fa 00F09880 		beq	.L130
 880              	.L87:
 881              		.loc 1 2264 0
 882 00fe 94ED030A 		vldr.32	s0, [r4, #12]
 883              		.loc 1 2265 0
 884 0102 D3ED3A1A 		vldr.32	s3, [r3, #232]
 885 0106 D3ED3B7A 		vldr.32	s15, [r3, #236]
 886              		.loc 1 2264 0
 887 010a 93ED3A2A 		vldr.32	s4, [r3, #232]
 888 010e B0EEC00A 		vabs.f32	s0, s0
 889 0112 61EEA71A 		vmul.f32	s3, s3, s15
 890 0116 B7EE001A 		vmov.f32	s2, #1.0e+0
 891 011a F0EE680A 		vmov.f32	s1, s17
 892 011e FFF7FEFF 		bl	utils_map
 893              	.LVL84:
 894 0122 894B     		ldr	r3, .L137+56
 895 0124 83ED000A 		vstr.32	s0, [r3]
 896              	.LVL85:
 897              	.LBB37:
 898              	.LBB38:
 899              		.loc 1 2701 0
 900 0128 99F80030 		ldrb	r3, [r9]	@ zero_extendqisi2
 901 012c 012B     		cmp	r3, #1
 902 012e 00F0BF80 		beq	.L90
 903              		.loc 1 2702 0
 904 0132 864B     		ldr	r3, .L137+60
 905 0134 C3ED008A 		vstr.32	s17, [r3]
 906              		.loc 1 2703 0
 907 0138 854B     		ldr	r3, .L137+64
 908 013a C3ED008A 		vstr.32	s17, [r3]
 909              	.LVL86:
 910              	.L99:
 911              	.LBE38:
 912              	.LBE37:
ARM GAS  /tmp/cc50jUqN.s 			page 17


 913              		.loc 1 2268 0
 914 013e 0A20     		movs	r0, #10
 915 0140 FFF7FEFF 		bl	chThdSleep
 916              	.LVL87:
 917              		.loc 1 2183 0
 918 0144 744B     		ldr	r3, .L137+8
 919 0146 1B78     		ldrb	r3, [r3]	@ zero_extendqisi2
 920 0148 002B     		cmp	r3, #0
 921 014a 40F0D080 		bne	.L131
 922              	.LVL88:
 923              	.L66:
 924              		.loc 1 2189 0
 925 014e 2B68     		ldr	r3, [r5]
 926              		.loc 1 2188 0
 927 0150 94ED010A 		vldr.32	s0, [r4, #4]
 928 0154 DFED750A 		vldr.32	s1, .L137+28
 929 0158 93ED011A 		vldr.32	s2, [r3, #4]
 930 015c 93ED402A 		vldr.32	s4, [r3, #256]
 931 0160 F0EE681A 		vmov.f32	s3, s17
 932 0164 B0EEC00A 		vabs.f32	s0, s0
 933 0168 FFF7FEFF 		bl	utils_map
 934              	.LVL89:
 935              		.loc 1 2192 0
 936 016c 2B68     		ldr	r3, [r5]
 937              		.loc 1 2188 0
 938 016e 8DED020A 		vstr.32	s0, [sp, #8]
 939              		.loc 1 2192 0
 940 0172 D3ED407A 		vldr.32	s15, [r3, #256]
 941 0176 02A8     		add	r0, sp, #8
 942 0178 B0EE670A 		vmov.f32	s0, s15
 943 017c FFF7FEFF 		bl	utils_truncate_number_abs
 944              	.LVL90:
 945              		.loc 1 2195 0
 946 0180 DDED027A 		vldr.32	s15, [sp, #8]
 947              		.loc 1 2200 0
 948 0184 94ED037A 		vldr.32	s14, [r4, #12]
 949              		.loc 1 2208 0
 950 0188 7248     		ldr	r0, .L137+68
 951              		.loc 1 2195 0
 952 018a 77EEA77A 		vadd.f32	s15, s15, s15
 953              		.loc 1 2200 0
 954 018e B5EEC07A 		vcmpe.f32	s14, #0
 955              		.loc 1 2195 0
 956 0192 67EE8A7A 		vmul.f32	s15, s15, s20
 957              		.loc 1 2200 0
 958 0196 F1EE10FA 		vmrs	APSR_nzcv, FPSCR
 959              		.loc 1 2195 0
 960 019a 87EEA9BA 		vdiv.f32	s22, s15, s19
 961              	.LVL91:
 962              		.loc 1 2207 0
 963 019e DAED007A 		vldr.32	s15, [r10]
 964              		.loc 1 2201 0
 965 01a2 CCBF     		ite	gt
 966 01a4 2BEE098A 		vmulgt.f32	s16, s22, s18
 967              	.LVL92:
 968              		.loc 1 2203 0
 969 01a8 2BEE498A 		vnmulle.f32	s16, s22, s18
ARM GAS  /tmp/cc50jUqN.s 			page 18


 970              	.LVL93:
 971              		.loc 1 2207 0
 972 01ac 77EE887A 		vadd.f32	s15, s15, s16
 973 01b0 CAED007A 		vstr.32	s15, [r10]
 974              		.loc 1 2208 0
 975 01b4 FFF7FEFF 		bl	utils_norm_angle_rad
 976              	.LVL94:
 977              		.loc 1 2211 0
 978 01b8 674B     		ldr	r3, .L137+72
 979 01ba D3ED007A 		vldr.32	s15, [r3]
 980 01be F0EEE77A 		vabs.f32	s15, s15
 981 01c2 F4EECB7A 		vcmpe.f32	s15, s22
 982 01c6 F1EE10FA 		vmrs	APSR_nzcv, FPSCR
 983              		.loc 1 2212 0
 984 01ca D6ED007A 		vldr.32	s15, [r6]
 985              		.loc 1 2211 0
 986 01ce 3FF53CAF 		bmi	.L132
 987              		.loc 1 2213 0
 988 01d2 F5EEC07A 		vcmpe.f32	s15, #0
 989 01d6 F1EE10FA 		vmrs	APSR_nzcv, FPSCR
 990              		.loc 1 2214 0
 991 01da C8BF     		it	gt
 992 01dc 77EEC97A 		vsubgt.f32	s15, s15, s18
 993              		.loc 1 2218 0
 994 01e0 99F80030 		ldrb	r3, [r9]	@ zero_extendqisi2
 995              		.loc 1 2214 0
 996 01e4 C8BF     		it	gt
 997 01e6 C6ED007A 		vstrgt.32	s15, [r6]
 998              		.loc 1 2218 0
 999 01ea 032B     		cmp	r3, #3
 1000 01ec 7FF436AF 		bne	.L133
 1001              	.L74:
 1002              		.loc 1 2220 0
 1003 01f0 0023     		movs	r3, #0
 1004 01f2 F0EE686A 		vmov.f32	s13, s17
 1005              		.loc 1 2219 0
 1006 01f6 C6ED008A 		vstr.32	s17, [r6]
 1007              		.loc 1 2220 0
 1008 01fa 8BF80030 		strb	r3, [fp]
 1009 01fe 39E7     		b	.L75
 1010              	.LVL95:
 1011              	.L120:
 1012              		.loc 1 2229 0
 1013 0200 F5EEC07A 		vcmpe.f32	s15, #0
 1014 0204 F1EE10FA 		vmrs	APSR_nzcv, FPSCR
 1015 0208 06DD     		ble	.L77
 1016              		.loc 1 2230 0
 1017 020a D7ED007A 		vldr.32	s15, [r7]
 1018 020e 38EE278A 		vadd.f32	s16, s16, s15
 1019              	.LVL96:
 1020 0212 87ED008A 		vstr.32	s16, [r7]
 1021 0216 5EE7     		b	.L79
 1022              	.LVL97:
 1023              	.L77:
 1024              		.loc 1 2247 0
 1025 0218 504A     		ldr	r2, .L137+76
 1026 021a 1168     		ldr	r1, [r2]	@ float
ARM GAS  /tmp/cc50jUqN.s 			page 19


 1027 021c 3960     		str	r1, [r7]	@ float
 1028              		.loc 1 2248 0
 1029 021e 0022     		movs	r2, #0
 1030 0220 8BF80020 		strb	r2, [fp]
 1031              		.loc 1 2252 0
 1032 0224 474A     		ldr	r2, .L137+52
 1033 0226 1278     		ldrb	r2, [r2]	@ zero_extendqisi2
 1034 0228 022A     		cmp	r2, #2
 1035 022a 7FF468AF 		bne	.L87
 1036              	.LVL98:
 1037              	.L130:
 1038              	.LBB45:
 1039              		.loc 1 2253 0
 1040 022e E26C     		ldr	r2, [r4, #76]	@ float
 1041 0230 0392     		str	r2, [sp, #12]	@ float
 1042              		.loc 1 2254 0
 1043 0232 226D     		ldr	r2, [r4, #80]	@ float
 1044 0234 0492     		str	r2, [sp, #16]	@ float
 1045              		.loc 1 2255 0
 1046 0236 E26B     		ldr	r2, [r4, #60]	@ float
 1047 0238 0592     		str	r2, [sp, #20]	@ float
 1048              		.loc 1 2256 0
 1049 023a 226C     		ldr	r2, [r4, #64]	@ float
 1050 023c 0692     		str	r2, [sp, #24]	@ float
 1051              		.loc 1 2258 0
 1052 023e DDED056A 		vldr.32	s13, [sp, #20]
 1053 0242 9DED057A 		vldr.32	s14, [sp, #20]
 1054 0246 DDED067A 		vldr.32	s15, [sp, #24]
 1055 024a 9DED060A 		vldr.32	s0, [sp, #24]
 1056 024e 27EE800A 		vmul.f32	s0, s15, s0
 1057 0252 A6EE870A 		vfma.f32	s0, s13, s14
 1058 0256 B5EE400A 		vcmp.f32	s0, #0
 1059 025a F1EE10FA 		vmrs	APSR_nzcv, FPSCR
 1060 025e B1EEC08A 		vsqrt.f32	s16, s0
 1061 0262 00F10081 		bmi	.L134
 1062              	.L88:
 1063 0266 3E4A     		ldr	r2, .L137+80
 1064 0268 D2ED017A 		vldr.32	s15, [r2, #4]
 1065 026c 37EE888A 		vadd.f32	s16, s15, s16
 1066 0270 82ED018A 		vstr.32	s16, [r2, #4]
 1067              		.loc 1 2259 0
 1068 0274 DDED036A 		vldr.32	s13, [sp, #12]
 1069 0278 9DED037A 		vldr.32	s14, [sp, #12]
 1070 027c DDED047A 		vldr.32	s15, [sp, #16]
 1071 0280 9DED040A 		vldr.32	s0, [sp, #16]
 1072 0284 27EE800A 		vmul.f32	s0, s15, s0
 1073 0288 A6EE870A 		vfma.f32	s0, s13, s14
 1074 028c B5EE400A 		vcmp.f32	s0, #0
 1075 0290 F1EE10FA 		vmrs	APSR_nzcv, FPSCR
 1076 0294 B1EEC08A 		vsqrt.f32	s16, s0
 1077 0298 00F1EA80 		bmi	.L135
 1078              	.L89:
 1079 029c D2ED027A 		vldr.32	s15, [r2, #8]
 1080 02a0 37EE888A 		vadd.f32	s16, s15, s16
 1081 02a4 82ED028A 		vstr.32	s16, [r2, #8]
 1082              		.loc 1 2260 0
 1083 02a8 1168     		ldr	r1, [r2]
ARM GAS  /tmp/cc50jUqN.s 			page 20


 1084 02aa 0131     		adds	r1, r1, #1
 1085 02ac 1160     		str	r1, [r2]
 1086 02ae 26E7     		b	.L87
 1087              	.LVL99:
 1088              	.L90:
 1089              	.LBE45:
 1090              	.LBB46:
 1091              	.LBB43:
 1092              	.LBB39:
 1093              	.LBB40:
 1094              		.loc 1 819 0
 1095 02b0 294B     		ldr	r3, .L137+72
 1096 02b2 DFED2C6A 		vldr.32	s13, .L137+84
 1097 02b6 93ED006A 		vldr.32	s12, [r3]
 1098              	.LBE40:
 1099              	.LBE39:
 1100              		.loc 1 2708 0
 1101 02ba 2B4A     		ldr	r2, .L137+88
 1102              		.loc 1 2711 0
 1103 02bc 2B68     		ldr	r3, [r5]
 1104              		.loc 1 2708 0
 1105 02be 92ED008A 		vldr.32	s16, [r2]
 1106              		.loc 1 2711 0
 1107 02c2 D2ED007A 		vldr.32	s15, [r2]
 1108 02c6 93ED577A 		vldr.32	s14, [r3, #348]
 1109              	.LBB42:
 1110              	.LBB41:
 1111              		.loc 1 819 0
 1112 02ca C6EE26BA 		vdiv.f32	s23, s12, s13
 1113              	.LBE41:
 1114              	.LBE42:
 1115              		.loc 1 2711 0
 1116 02ce F0EEE77A 		vabs.f32	s15, s15
 1117 02d2 F4EEC77A 		vcmpe.f32	s15, s14
 1118 02d6 F1EE10FA 		vmrs	APSR_nzcv, FPSCR
 1119              		.loc 1 2708 0
 1120 02da 38EE6B8A 		vsub.f32	s16, s16, s23
 1121              	.LVL100:
 1122              		.loc 1 2711 0
 1123 02de 4BD5     		bpl	.L122
 1124              		.loc 1 2712 0
 1125 02e0 1A4B     		ldr	r3, .L137+60
 1126 02e2 C3ED008A 		vstr.32	s17, [r3]
 1127              		.loc 1 2713 0
 1128 02e6 1A4B     		ldr	r3, .L137+64
 1129 02e8 83ED008A 		vstr.32	s16, [r3]
 1130 02ec 27E7     		b	.L99
 1131              	.LVL101:
 1132              	.L131:
 1133              	.LBE43:
 1134              	.LBE46:
 1135              		.loc 1 2184 0
 1136 02ee 0A4A     		ldr	r2, .L137+8
 1137 02f0 0023     		movs	r3, #0
 1138 02f2 1370     		strb	r3, [r2]
 1139              	.LBE52:
 1140              		.loc 1 2270 0
ARM GAS  /tmp/cc50jUqN.s 			page 21


 1141 02f4 09B0     		add	sp, sp, #36
 1142              		.cfi_remember_state
 1143              		.cfi_def_cfa_offset 76
 1144              		@ sp needed
 1145 02f6 BDEC0A8B 		vldm	sp!, {d8-d12}
 1146              		.cfi_restore 88
 1147              		.cfi_restore 89
 1148              		.cfi_restore 86
 1149              		.cfi_restore 87
 1150              		.cfi_restore 84
 1151              		.cfi_restore 85
 1152              		.cfi_restore 82
 1153              		.cfi_restore 83
 1154              		.cfi_restore 80
 1155              		.cfi_restore 81
 1156              		.cfi_def_cfa_offset 36
 1157 02fa BDE8F08F 		pop	{r4, r5, r6, r7, r8, r9, r10, fp, pc}
 1158              	.LVL102:
 1159              	.L129:
 1160              		.cfi_restore_state
 1161              	.LBB53:
 1162              		.loc 1 2238 0
 1163 02fe 97ED007A 		vldr.32	s14, [r7]
 1164 0302 DFED0F7A 		vldr.32	s15, .L137+48
 1165 0306 77EE677A 		vsub.f32	s15, s14, s15
 1166 030a C7ED007A 		vstr.32	s15, [r7]
 1167 030e E2E6     		b	.L79
 1168              	.L138:
 1169              		.align	2
 1170              	.L137:
 1171 0310 00000000 		.word	ch
 1172 0314 00000000 		.word	.LC0
 1173 0318 00000000 		.word	.LANCHOR9
 1174 031c 00000000 		.word	.LANCHOR10
 1175 0320 00000000 		.word	.LANCHOR0
 1176 0324 00000000 		.word	.LANCHOR13
 1177 0328 00000000 		.word	.LANCHOR8
 1178 032c 00000000 		.word	0
 1179 0330 DB0F4940 		.word	1078530011
 1180 0334 00007042 		.word	1114636288
 1181 0338 6F12833A 		.word	981668463
 1182 033c 17B7D138 		.word	953267991
 1183 0340 DB0FC93F 		.word	1070141403
 1184 0344 00000000 		.word	.LANCHOR7
 1185 0348 00000000 		.word	.LANCHOR18
 1186 034c 00000000 		.word	.LANCHOR19
 1187 0350 00000000 		.word	.LANCHOR20
 1188 0354 00000000 		.word	.LANCHOR11
 1189 0358 00000000 		.word	.LANCHOR12
 1190 035c 00000000 		.word	.LANCHOR16
 1191 0360 00000000 		.word	.LANCHOR17
 1192 0364 5077D63D 		.word	1037465424
 1193 0368 00000000 		.word	.LANCHOR21
 1194 036c 00000000 		.word	.LANCHOR14
 1195 0370 00000000 		.word	.LANCHOR6
 1196 0374 00000000 		.word	.LANCHOR15
 1197              	.LVL103:
ARM GAS  /tmp/cc50jUqN.s 			page 22


 1198              	.L122:
 1199              	.LBB47:
 1200              	.LBB44:
 1201              		.loc 1 2718 0
 1202 0378 D3ED53CA 		vldr.32	s25, [r3, #332]
 1203              		.loc 1 2719 0
 1204 037c D3ED546A 		vldr.32	s13, [r3, #336]
 1205              		.loc 1 2720 0
 1206 0380 93ED555A 		vldr.32	s10, [r3, #340]
 1207 0384 3E4A     		ldr	r2, .L139
 1208              		.loc 1 2719 0
 1209 0386 9FED3FCA 		vldr.32	s24, .L139+4
 1210              		.loc 1 2720 0
 1211 038a D2ED007A 		vldr.32	s15, [r2]
 1212              		.loc 1 2724 0
 1213 038e 3E4A     		ldr	r2, .L139+8
 1214              		.loc 1 2719 0
 1215 0390 3E49     		ldr	r1, .L139+12
 1216              		.loc 1 2724 0
 1217 0392 92ED00BA 		vldr.32	s22, [r2]
 1218              	.LVL104:
 1219              		.loc 1 2719 0
 1220 0396 91ED006A 		vldr.32	s12, [r1]
 1221              		.loc 1 2724 0
 1222 039a D3ED565A 		vldr.32	s11, [r3, #344]
 1223              		.loc 1 2720 0
 1224 039e 85EE097A 		vdiv.f32	s14, s10, s18
 1225              		.loc 1 2728 0
 1226 03a2 0846     		mov	r0, r1
 1227              		.loc 1 2720 0
 1228 03a4 78EE677A 		vsub.f32	s15, s16, s15
 1229              		.loc 1 2719 0
 1230 03a8 66EE896A 		vmul.f32	s13, s13, s18
 1231              		.loc 1 2724 0
 1232 03ac 67EE677A 		vnmul.f32	s15, s14, s15
 1233              		.loc 1 2719 0
 1234 03b0 26EE887A 		vmul.f32	s14, s13, s16
 1235              		.loc 1 2724 0
 1236 03b4 F0EE4B6A 		vmov.f32	s13, s22
 1237 03b8 E7EE8C6A 		vfma.f32	s13, s15, s24
 1238              		.loc 1 2719 0
 1239 03bc F0EE467A 		vmov.f32	s15, s12
 1240 03c0 E7EE0C7A 		vfma.f32	s15, s14, s24
 1241              		.loc 1 2724 0
 1242 03c4 A5EEE6BA 		vfms.f32	s22, s11, s13
 1243              		.loc 1 2728 0
 1244 03c8 F7EE000A 		vmov.f32	s1, #1.0e+0
 1245 03cc BFEE000A 		vmov.f32	s0, #-1.0e+0
 1246              		.loc 1 2719 0
 1247 03d0 C1ED007A 		vstr.32	s15, [r1]
 1248              		.loc 1 2724 0
 1249 03d4 82ED00BA 		vstr.32	s22, [r2]
 1250              		.loc 1 2728 0
 1251 03d8 FFF7FEFF 		bl	utils_truncate_number
 1252              	.LVL105:
 1253              		.loc 1 2734 0
 1254 03dc 2B49     		ldr	r1, .L139+12
ARM GAS  /tmp/cc50jUqN.s 			page 23


 1255              		.loc 1 2731 0
 1256 03de 284A     		ldr	r2, .L139
 1257              		.loc 1 2734 0
 1258 03e0 D1ED007A 		vldr.32	s15, [r1]
 1259              		.loc 1 2731 0
 1260 03e4 82ED008A 		vstr.32	s16, [r2]
 1261              		.loc 1 2718 0
 1262 03e8 68EE2CCA 		vmul.f32	s25, s16, s25
 1263              	.LVL106:
 1264              		.loc 1 2734 0
 1265 03ec 08A8     		add	r0, sp, #32
 1266 03ee ECEE8C7A 		vfma.f32	s15, s25, s24
 1267              		.loc 1 2735 0
 1268 03f2 F7EE000A 		vmov.f32	s1, #1.0e+0
 1269              		.loc 1 2734 0
 1270 03f6 37EE8BBA 		vadd.f32	s22, s15, s22
 1271              	.LVL107:
 1272              		.loc 1 2735 0
 1273 03fa BFEE000A 		vmov.f32	s0, #-1.0e+0
 1274              		.loc 1 2734 0
 1275 03fe 20ED01BA 		vstmdb.32	r0!, {s22}
 1276              		.loc 1 2735 0
 1277 0402 FFF7FEFF 		bl	utils_truncate_number
 1278              	.LVL108:
 1279              		.loc 1 2738 0
 1280 0406 2B68     		ldr	r3, [r5]
 1281 0408 93F86021 		ldrb	r2, [r3, #352]	@ zero_extendqisi2
 1282 040c 82B9     		cbnz	r2, .L136
 1283              		.loc 1 2739 0
 1284 040e B3EE047A 		vmov.f32	s14, #2.0e+1
 1285 0412 F4EEC7BA 		vcmpe.f32	s23, s14
 1286 0416 F1EE10FA 		vmrs	APSR_nzcv, FPSCR
 1287 041a DDED077A 		vldr.32	s15, [sp, #28]
 1288 041e 11DD     		ble	.L96
 1289 0420 F5EEC07A 		vcmpe.f32	s15, #0
 1290 0424 F1EE10FA 		vmrs	APSR_nzcv, FPSCR
 1291 0428 0CD5     		bpl	.L96
 1292              	.L102:
 1293              		.loc 1 2743 0
 1294 042a F0EE687A 		vmov.f32	s15, s17
 1295 042e 01E0     		b	.L95
 1296              	.L136:
 1297 0430 DDED077A 		vldr.32	s15, [sp, #28]
 1298              	.L95:
 1299              		.loc 1 2748 0
 1300 0434 93ED1B7A 		vldr.32	s14, [r3, #108]
 1301 0438 154B     		ldr	r3, .L139+16
 1302 043a 67EE877A 		vmul.f32	s15, s15, s14
 1303 043e C3ED007A 		vstr.32	s15, [r3]
 1304 0442 7CE6     		b	.L99
 1305              	.L96:
 1306              		.loc 1 2743 0
 1307 0444 BBEE047A 		vmov.f32	s14, #-2.0e+1
 1308 0448 F4EEC7BA 		vcmpe.f32	s23, s14
 1309 044c F1EE10FA 		vmrs	APSR_nzcv, FPSCR
 1310 0450 F0D5     		bpl	.L95
 1311 0452 F5EEC07A 		vcmpe.f32	s15, #0
ARM GAS  /tmp/cc50jUqN.s 			page 24


 1312 0456 F1EE10FA 		vmrs	APSR_nzcv, FPSCR
 1313 045a E6DC     		bgt	.L102
 1314 045c EAE7     		b	.L95
 1315              	.LVL109:
 1316              	.L124:
 1317              		.cfi_def_cfa_offset 0
 1318              		.cfi_restore 4
 1319              		.cfi_restore 5
 1320              		.cfi_restore 6
 1321              		.cfi_restore 7
 1322              		.cfi_restore 8
 1323              		.cfi_restore 9
 1324              		.cfi_restore 10
 1325              		.cfi_restore 11
 1326              		.cfi_restore 14
 1327              		.cfi_restore 80
 1328              		.cfi_restore 81
 1329              		.cfi_restore 82
 1330              		.cfi_restore 83
 1331              		.cfi_restore 84
 1332              		.cfi_restore 85
 1333              		.cfi_restore 86
 1334              		.cfi_restore 87
 1335              		.cfi_restore 88
 1336              		.cfi_restore 89
 1337              	.LBE44:
 1338              	.LBE47:
 1339              		.loc 1 2184 0
 1340 045e 0D4A     		ldr	r2, .L139+20
 1341 0460 0023     		movs	r3, #0
 1342 0462 1370     		strb	r3, [r2]
 1343 0464 7047     		bx	lr
 1344              	.LVL110:
 1345              	.L134:
 1346              		.cfi_def_cfa_offset 112
 1347              		.cfi_offset 4, -36
 1348              		.cfi_offset 5, -32
 1349              		.cfi_offset 6, -28
 1350              		.cfi_offset 7, -24
 1351              		.cfi_offset 8, -20
 1352              		.cfi_offset 9, -16
 1353              		.cfi_offset 10, -12
 1354              		.cfi_offset 11, -8
 1355              		.cfi_offset 14, -4
 1356              		.cfi_offset 80, -76
 1357              		.cfi_offset 81, -72
 1358              		.cfi_offset 82, -68
 1359              		.cfi_offset 83, -64
 1360              		.cfi_offset 84, -60
 1361              		.cfi_offset 85, -56
 1362              		.cfi_offset 86, -52
 1363              		.cfi_offset 87, -48
 1364              		.cfi_offset 88, -44
 1365              		.cfi_offset 89, -40
 1366 0466 0093     		str	r3, [sp]
 1367              	.LBB48:
 1368              		.loc 1 2258 0
ARM GAS  /tmp/cc50jUqN.s 			page 25


 1369 0468 FFF7FEFF 		bl	sqrtf
 1370              	.LVL111:
 1371 046c 009B     		ldr	r3, [sp]
 1372 046e FAE6     		b	.L88
 1373              	.L135:
 1374 0470 CDE90032 		strd	r3, r2, [sp]
 1375              		.loc 1 2259 0
 1376 0474 FFF7FEFF 		bl	sqrtf
 1377              	.LVL112:
 1378 0478 DDE90032 		ldrd	r3, r2, [sp]
 1379 047c 0EE7     		b	.L89
 1380              	.L140:
 1381 047e 00BF     		.align	2
 1382              	.L139:
 1383 0480 00000000 		.word	.LANCHOR20
 1384 0484 CDCC4C3D 		.word	1028443341
 1385 0488 00000000 		.word	.LANCHOR22
 1386 048c 00000000 		.word	.LANCHOR19
 1387 0490 00000000 		.word	.LANCHOR23
 1388 0494 00000000 		.word	.LANCHOR9
 1389              	.LBE48:
 1390              	.LBE53:
 1391              		.cfi_endproc
 1392              	.LFE312:
 1393              		.size	timer_thread, .-timer_thread
 1394              		.section	.text.mcpwm_foc_init,"ax",%progbits
 1395              		.align	1
 1396              		.p2align 4,,15
 1397              		.global	mcpwm_foc_init
 1398              		.syntax unified
 1399              		.thumb
 1400              		.thumb_func
 1401              		.fpu fpv4-sp-d16
 1402              		.type	mcpwm_foc_init, %function
 1403              	mcpwm_foc_init:
 1404              	.LFB256:
 1405              		.loc 1 193 0
 1406              		.cfi_startproc
 1407              		@ args = 0, pretend = 0, frame = 160
 1408              		@ frame_needed = 0, uses_anonymous_args = 0
 1409              	.LVL113:
 1410 0000 2DE9F04F 		push	{r4, r5, r6, r7, r8, r9, r10, fp, lr}
 1411              		.cfi_def_cfa_offset 36
 1412              		.cfi_offset 4, -36
 1413              		.cfi_offset 5, -32
 1414              		.cfi_offset 6, -28
 1415              		.cfi_offset 7, -24
 1416              		.cfi_offset 8, -20
 1417              		.cfi_offset 9, -16
 1418              		.cfi_offset 10, -12
 1419              		.cfi_offset 11, -8
 1420              		.cfi_offset 14, -4
 1421 0004 ABB0     		sub	sp, sp, #172
 1422              		.cfi_def_cfa_offset 208
 1423              		.loc 1 196 0
 1424 0006 0024     		movs	r4, #0
 1425              		.loc 1 193 0
ARM GAS  /tmp/cc50jUqN.s 			page 26


 1426 0008 0390     		str	r0, [sp, #12]
 1427              		.loc 1 194 0
 1428 000a FFF7FEFF 		bl	utils_sys_lock_cnt
 1429              	.LVL114:
 1430              		.loc 1 196 0
 1431 000e CF4B     		ldr	r3, .L153
 1432              		.loc 1 205 0
 1433 0010 DFF8CC93 		ldr	r9, .L153+148
 1434              		.loc 1 196 0
 1435 0014 1C70     		strb	r4, [r3]
 1436              		.loc 1 206 0
 1437 0016 DFF8CCE3 		ldr	lr, .L153+152
 1438              		.loc 1 207 0
 1439 001a CD4B     		ldr	r3, .L153+4
 1440              		.loc 1 205 0
 1441 001c 89F80040 		strb	r4, [r9]
 1442              		.loc 1 206 0
 1443 0020 4FF00A09 		mov	r9, #10
 1444 0024 8EF80090 		strb	r9, [lr]
 1445              		.loc 1 207 0
 1446 0028 1C60     		str	r4, [r3]
 1447              		.loc 1 208 0
 1448 002a CA4B     		ldr	r3, .L153+8
 1449              		.loc 1 209 0
 1450 002c CA4F     		ldr	r7, .L153+12
 1451              		.loc 1 208 0
 1452 002e 1C60     		str	r4, [r3]
 1453              		.loc 1 210 0
 1454 0030 CA4B     		ldr	r3, .L153+16
 1455              		.loc 1 202 0
 1456 0032 DFF8B483 		ldr	r8, .L153+156
 1457              		.loc 1 209 0
 1458 0036 3C60     		str	r4, [r7]
 1459              		.loc 1 212 0
 1460 0038 DFEDC97A 		vldr.32	s15, .L153+20
 1461              		.loc 1 210 0
 1462 003c 1C70     		strb	r4, [r3]
 1463              		.loc 1 202 0
 1464 003e 0398     		ldr	r0, [sp, #12]
 1465              		.loc 1 211 0
 1466 0040 DFF8A8A3 		ldr	r10, .L153+160
 1467              		.loc 1 212 0
 1468 0044 DFF8A8C3 		ldr	ip, .L153+164
 1469              		.loc 1 213 0
 1470 0048 C64B     		ldr	r3, .L153+24
 1471              		.loc 1 202 0
 1472 004a C8F80000 		str	r0, [r8]
 1473              		.loc 1 214 0
 1474 004e C649     		ldr	r1, .L153+28
 1475              		.loc 1 215 0
 1476 0050 C64A     		ldr	r2, .L153+32
 1477              		.loc 1 216 0
 1478 0052 C748     		ldr	r0, .L153+36
 1479              		.loc 1 211 0
 1480 0054 8AF80040 		strb	r4, [r10]
 1481              		.loc 1 217 0
 1482 0058 DFF89893 		ldr	r9, .L153+168
ARM GAS  /tmp/cc50jUqN.s 			page 27


 1483              		.loc 1 212 0
 1484 005c CCED007A 		vstr.32	s15, [ip]
 1485              		.loc 1 218 0
 1486 0060 DFF894E3 		ldr	lr, .L153+172
 1487              		.loc 1 213 0
 1488 0064 C3ED007A 		vstr.32	s15, [r3]
 1489              		.loc 1 219 0
 1490 0068 DFF890C3 		ldr	ip, .L153+176
 1491              		.loc 1 220 0
 1492 006c C14B     		ldr	r3, .L153+40
 1493              		.loc 1 214 0
 1494 006e C1ED007A 		vstr.32	s15, [r1]
 1495              		.loc 1 215 0
 1496 0072 C2ED007A 		vstr.32	s15, [r2]
 1497              		.loc 1 221 0
 1498 0076 C049     		ldr	r1, .L153+44
 1499              		.loc 1 216 0
 1500 0078 C0ED007A 		vstr.32	s15, [r0]
 1501              		.loc 1 222 0
 1502 007c BF4A     		ldr	r2, .L153+48
 1503              		.loc 1 223 0
 1504 007e C048     		ldr	r0, .L153+52
 1505              		.loc 1 217 0
 1506 0080 C9ED007A 		vstr.32	s15, [r9]
 1507              		.loc 1 218 0
 1508 0084 8EF80040 		strb	r4, [lr]
 1509              		.loc 1 224 0
 1510 0088 DFF87493 		ldr	r9, .L153+180
 1511              		.loc 1 219 0
 1512 008c CCED007A 		vstr.32	s15, [ip]
 1513              		.loc 1 225 0
 1514 0090 DFF870E3 		ldr	lr, .L153+184
 1515              		.loc 1 220 0
 1516 0094 C3ED007A 		vstr.32	s15, [r3]
 1517              		.loc 1 226 0
 1518 0098 DFF86CC3 		ldr	ip, .L153+188
 1519              		.loc 1 227 0
 1520 009c B94B     		ldr	r3, .L153+56
 1521              		.loc 1 221 0
 1522 009e C1ED007A 		vstr.32	s15, [r1]
 1523              		.loc 1 222 0
 1524 00a2 C2ED007A 		vstr.32	s15, [r2]
 1525              		.loc 1 228 0
 1526 00a6 B849     		ldr	r1, .L153+60
 1527              		.loc 1 223 0
 1528 00a8 0470     		strb	r4, [r0]
 1529              		.loc 1 229 0
 1530 00aa B84A     		ldr	r2, .L153+64
 1531              		.loc 1 230 0
 1532 00ac B848     		ldr	r0, .L153+68
 1533              		.loc 1 224 0
 1534 00ae C9ED007A 		vstr.32	s15, [r9]
 1535              		.loc 1 225 0
 1536 00b2 CEED007A 		vstr.32	s15, [lr]
 1537              		.loc 1 231 0
 1538 00b6 DFF85493 		ldr	r9, .L153+192
 1539              		.loc 1 232 0
ARM GAS  /tmp/cc50jUqN.s 			page 28


 1540 00ba DFF854E3 		ldr	lr, .L153+196
 1541              		.loc 1 226 0
 1542 00be CCED007A 		vstr.32	s15, [ip]
 1543              		.loc 1 227 0
 1544 00c2 C3ED007A 		vstr.32	s15, [r3]
 1545              		.loc 1 233 0
 1546 00c6 DFF84CC3 		ldr	ip, .L153+200
 1547              		.loc 1 234 0
 1548 00ca B24B     		ldr	r3, .L153+72
 1549              		.loc 1 228 0
 1550 00cc C1ED007A 		vstr.32	s15, [r1]
 1551              		.loc 1 229 0
 1552 00d0 C2ED007A 		vstr.32	s15, [r2]
 1553              		.loc 1 235 0
 1554 00d4 2146     		mov	r1, r4
 1555 00d6 6022     		movs	r2, #96
 1556              		.loc 1 230 0
 1557 00d8 0460     		str	r4, [r0]
 1558              		.loc 1 235 0
 1559 00da AF48     		ldr	r0, .L153+76
 1560              		.loc 1 231 0
 1561 00dc C9F80040 		str	r4, [r9]
 1562              		.loc 1 232 0
 1563 00e0 CEED007A 		vstr.32	s15, [lr]
 1564              		.loc 1 233 0
 1565 00e4 CCED007A 		vstr.32	s15, [ip]
 1566              		.loc 1 234 0
 1567 00e8 C3ED007A 		vstr.32	s15, [r3]
 1568              		.loc 1 235 0
 1569 00ec FFF7FEFF 		bl	memset
 1570              	.LVL115:
 1571              		.loc 1 236 0
 1572 00f0 AA4B     		ldr	r3, .L153+80
 1573              		.loc 1 244 0
 1574 00f2 AB4D     		ldr	r5, .L153+84
 1575              		.loc 1 245 0
 1576 00f4 AB4E     		ldr	r6, .L153+88
 1577              		.loc 1 236 0
 1578 00f6 1C60     		str	r4, [r3]
 1579              		.loc 1 241 0
 1580 00f8 DFF81CB3 		ldr	fp, .L153+204
 1581              		.loc 1 236 0
 1582 00fc 5C60     		str	r4, [r3, #4]
 1583 00fe 9C60     		str	r4, [r3, #8]
 1584 0100 DC60     		str	r4, [r3, #12]
 1585 0102 1C61     		str	r4, [r3, #16]
 1586              		.loc 1 238 0
 1587 0104 FFF7FEFF 		bl	virtual_motor_init
 1588              	.LVL116:
 1589              		.loc 1 244 0
 1590 0108 2846     		mov	r0, r5
 1591              		.loc 1 241 0
 1592 010a CBF80040 		str	r4, [fp]
 1593              		.loc 1 244 0
 1594 010e FFF7FEFF 		bl	TIM_DeInit
 1595              	.LVL117:
 1596              		.loc 1 245 0
ARM GAS  /tmp/cc50jUqN.s 			page 29


 1597 0112 3046     		mov	r0, r6
 1598 0114 FFF7FEFF 		bl	TIM_DeInit
 1599              	.LVL118:
 1600              		.loc 1 250 0
 1601 0118 0121     		movs	r1, #1
 1602              		.loc 1 246 0
 1603 011a 6C62     		str	r4, [r5, #36]
 1604              		.loc 1 250 0
 1605 011c 0846     		mov	r0, r1
 1606              		.loc 1 247 0
 1607 011e 7462     		str	r4, [r6, #36]
 1608              		.loc 1 250 0
 1609 0120 FFF7FEFF 		bl	RCC_APB2PeriphClockCmd
 1610              	.LVL119:
 1611              		.loc 1 255 0
 1612 0124 D8F80030 		ldr	r3, [r8]
 1613 0128 9F4A     		ldr	r2, .L153+92
 1614 012a D3ED2D7A 		vldr.32	s15, [r3, #180]
 1615              		.loc 1 256 0
 1616 012e ADF81C40 		strh	r4, [sp, #28]	@ movhi
 1617              		.loc 1 255 0
 1618 0132 FDEEE77A 		vcvt.s32.f32	s15, s15
 1619              		.loc 1 253 0
 1620 0136 4FF4001C 		mov	ip, #2097152
 1621              		.loc 1 255 0
 1622 013a 17EE903A 		vmov	r3, s15	@ int
 1623              		.loc 1 259 0
 1624 013e 2846     		mov	r0, r5
 1625 0140 05A9     		add	r1, sp, #20
 1626              		.loc 1 253 0
 1627 0142 CDF814C0 		str	ip, [sp, #20]
 1628              		.loc 1 255 0
 1629 0146 92FBF3F3 		sdiv	r3, r2, r3
 1630              		.loc 1 257 0
 1631 014a 8DF81E40 		strb	r4, [sp, #30]
 1632              		.loc 1 255 0
 1633 014e 0693     		str	r3, [sp, #24]
 1634              		.loc 1 259 0
 1635 0150 FFF7FEFF 		bl	TIM_TimeBaseInit
 1636              	.LVL120:
 1637              		.loc 1 265 0
 1638 0154 EB6A     		ldr	r3, [r5, #44]
 1639              		.loc 1 262 0
 1640 0156 954A     		ldr	r2, .L153+96
 1641 0158 1092     		str	r2, [sp, #64]
 1642              		.loc 1 265 0
 1643 015a 5B08     		lsrs	r3, r3, #1
 1644              		.loc 1 271 0
 1645 015c 2846     		mov	r0, r5
 1646              		.loc 1 266 0
 1647 015e CDE91234 		strd	r3, r4, [sp, #72]
 1648              		.loc 1 271 0
 1649 0162 10A9     		add	r1, sp, #64
 1650              		.loc 1 267 0
 1651 0164 924B     		ldr	r3, .L153+100
 1652 0166 1493     		str	r3, [sp, #80]
 1653              		.loc 1 263 0
ARM GAS  /tmp/cc50jUqN.s 			page 30


 1654 0168 4FF00409 		mov	r9, #4
 1655 016c ADF84490 		strh	r9, [sp, #68]	@ movhi
 1656              		.loc 1 271 0
 1657 0170 FFF7FEFF 		bl	TIM_OC1Init
 1658              	.LVL121:
 1659              		.loc 1 272 0
 1660 0174 2846     		mov	r0, r5
 1661 0176 10A9     		add	r1, sp, #64
 1662 0178 FFF7FEFF 		bl	TIM_OC2Init
 1663              	.LVL122:
 1664              		.loc 1 273 0
 1665 017c 2846     		mov	r0, r5
 1666 017e 10A9     		add	r1, sp, #64
 1667 0180 FFF7FEFF 		bl	TIM_OC3Init
 1668              	.LVL123:
 1669              		.loc 1 274 0
 1670 0184 2846     		mov	r0, r5
 1671 0186 10A9     		add	r1, sp, #64
 1672 0188 FFF7FEFF 		bl	TIM_OC4Init
 1673              	.LVL124:
 1674              		.loc 1 276 0
 1675 018c 2846     		mov	r0, r5
 1676 018e 0821     		movs	r1, #8
 1677 0190 FFF7FEFF 		bl	TIM_OC1PreloadConfig
 1678              	.LVL125:
 1679              		.loc 1 277 0
 1680 0194 2846     		mov	r0, r5
 1681 0196 0821     		movs	r1, #8
 1682 0198 FFF7FEFF 		bl	TIM_OC2PreloadConfig
 1683              	.LVL126:
 1684              		.loc 1 278 0
 1685 019c 2846     		mov	r0, r5
 1686 019e 0821     		movs	r1, #8
 1687 01a0 FFF7FEFF 		bl	TIM_OC3PreloadConfig
 1688              	.LVL127:
 1689              		.loc 1 279 0
 1690 01a4 2846     		mov	r0, r5
 1691 01a6 0821     		movs	r1, #8
 1692 01a8 FFF7FEFF 		bl	TIM_OC4PreloadConfig
 1693              	.LVL128:
 1694              		.loc 1 285 0
 1695 01ac DFED810A 		vldr.32	s1, .L153+104
 1696 01b0 9FED810A 		vldr.32	s0, .L153+108
 1697              		.loc 1 282 0
 1698 01b4 814B     		ldr	r3, .L153+112
 1699 01b6 0893     		str	r3, [sp, #32]
 1700              		.loc 1 283 0
 1701 01b8 ADF82440 		strh	r4, [sp, #36]	@ movhi
 1702              		.loc 1 285 0
 1703 01bc FFF7FEFF 		bl	conf_general_calculate_deadtime
 1704              	.LVL129:
 1705              		.loc 1 286 0
 1706 01c0 4FF0005A 		mov	r10, #536870912
 1707              		.loc 1 285 0
 1708 01c4 ADF82600 		strh	r0, [sp, #38]	@ movhi
 1709              		.loc 1 290 0
 1710 01c8 08A9     		add	r1, sp, #32
ARM GAS  /tmp/cc50jUqN.s 			page 31


 1711 01ca 2846     		mov	r0, r5
 1712              		.loc 1 287 0
 1713 01cc ADF82C40 		strh	r4, [sp, #44]	@ movhi
 1714              		.loc 1 286 0
 1715 01d0 CDF828A0 		str	r10, [sp, #40]
 1716              		.loc 1 290 0
 1717 01d4 FFF7FEFF 		bl	TIM_BDTRConfig
 1718              	.LVL130:
 1719              		.loc 1 291 0
 1720 01d8 2846     		mov	r0, r5
 1721 01da 0121     		movs	r1, #1
 1722 01dc FFF7FEFF 		bl	TIM_CCPreloadControl
 1723              	.LVL131:
 1724              		.loc 1 292 0
 1725 01e0 2846     		mov	r0, r5
 1726 01e2 0121     		movs	r1, #1
 1727 01e4 FFF7FEFF 		bl	TIM_ARRPreloadConfig
 1728              	.LVL132:
 1729              		.loc 1 302 0
 1730 01e8 0121     		movs	r1, #1
 1731 01ea 7548     		ldr	r0, .L153+116
 1732 01ec FFF7FEFF 		bl	RCC_AHB1PeriphClockCmd
 1733              	.LVL133:
 1734              		.loc 1 303 0
 1735 01f0 0121     		movs	r1, #1
 1736 01f2 4FF4E060 		mov	r0, #1792
 1737 01f6 FFF7FEFF 		bl	RCC_APB2PeriphClockCmd
 1738              	.LVL134:
 1739              		.loc 1 305 0
 1740 01fa 2346     		mov	r3, r4
 1741 01fc 714A     		ldr	r2, .L153+120
 1742 01fe 7248     		ldr	r0, .L153+124
 1743 0200 0321     		movs	r1, #3
 1744 0202 FFF7FEFF 		bl	dmaStreamAllocate
 1745              	.LVL135:
 1746              		.loc 1 312 0
 1747 0206 7149     		ldr	r1, .L153+128
 1748              		.loc 1 313 0
 1749 0208 DFF810C2 		ldr	ip, .L153+208
 1750              		.loc 1 312 0
 1751 020c 1D91     		str	r1, [sp, #116]
 1752              		.loc 1 315 0
 1753 020e 0F22     		movs	r2, #15
 1754              		.loc 1 317 0
 1755 0210 4FF48063 		mov	r3, #1024
 1756              		.loc 1 318 0
 1757 0214 4FF40061 		mov	r1, #2048
 1758              		.loc 1 326 0
 1759 0218 6D48     		ldr	r0, .L153+132
 1760              		.loc 1 313 0
 1761 021a CDF870C0 		str	ip, [sp, #112]
 1762              		.loc 1 315 0
 1763 021e 1F92     		str	r2, [sp, #124]
 1764              		.loc 1 319 0
 1765 0220 4FF4005C 		mov	ip, #8192
 1766              		.loc 1 320 0
 1767 0224 4FF48072 		mov	r2, #256
ARM GAS  /tmp/cc50jUqN.s 			page 32


 1768              		.loc 1 317 0
 1769 0228 2193     		str	r3, [sp, #132]
 1770              		.loc 1 318 0
 1771 022a 2291     		str	r1, [sp, #136]
 1772              		.loc 1 321 0
 1773 022c 4FF40033 		mov	r3, #131072
 1774              		.loc 1 326 0
 1775 0230 1BA9     		add	r1, sp, #108
 1776              		.loc 1 320 0
 1777 0232 CDE923C2 		strd	ip, r2, [sp, #140]
 1778              		.loc 1 321 0
 1779 0236 2593     		str	r3, [sp, #148]
 1780              		.loc 1 311 0
 1781 0238 1B94     		str	r4, [sp, #108]
 1782              		.loc 1 314 0
 1783 023a 1E94     		str	r4, [sp, #120]
 1784              		.loc 1 316 0
 1785 023c 2094     		str	r4, [sp, #128]
 1786              		.loc 1 323 0
 1787 023e CDE92644 		strd	r4, r4, [sp, #152]
 1788              		.loc 1 325 0
 1789 0242 CDE92844 		strd	r4, r4, [sp, #160]
 1790              		.loc 1 326 0
 1791 0246 FFF7FEFF 		bl	DMA_Init
 1792              	.LVL136:
 1793              		.loc 1 329 0
 1794 024a 0121     		movs	r1, #1
 1795 024c 6048     		ldr	r0, .L153+132
 1796 024e FFF7FEFF 		bl	DMA_Cmd
 1797              	.LVL137:
 1798              		.loc 1 332 0
 1799 0252 1021     		movs	r1, #16
 1800 0254 0122     		movs	r2, #1
 1801 0256 5E48     		ldr	r0, .L153+132
 1802 0258 FFF7FEFF 		bl	DMA_ITConfig
 1803              	.LVL138:
 1804              		.loc 1 337 0
 1805 025c 1622     		movs	r2, #22
 1806              		.loc 1 339 0
 1807 025e 4FF48043 		mov	r3, #16384
 1808              		.loc 1 341 0
 1809 0262 0CA8     		add	r0, sp, #48
 1810              		.loc 1 345 0
 1811 0264 4FF00108 		mov	r8, #1
 1812              		.loc 1 338 0
 1813 0268 0D94     		str	r4, [sp, #52]
 1814              		.loc 1 340 0
 1815 026a 0F94     		str	r4, [sp, #60]
 1816              		.loc 1 337 0
 1817 026c 0C92     		str	r2, [sp, #48]
 1818              		.loc 1 339 0
 1819 026e 0E93     		str	r3, [sp, #56]
 1820              		.loc 1 341 0
 1821 0270 FFF7FEFF 		bl	ADC_CommonInit
 1822              	.LVL139:
 1823              		.loc 1 348 0
 1824 0274 4FF05062 		mov	r2, #218103808
ARM GAS  /tmp/cc50jUqN.s 			page 33


 1825              		.loc 1 350 0
 1826 0278 0523     		movs	r3, #5
 1827              		.loc 1 352 0
 1828 027a 15A9     		add	r1, sp, #84
 1829 027c 5548     		ldr	r0, .L153+136
 1830              		.loc 1 348 0
 1831 027e 1892     		str	r2, [sp, #96]
 1832              		.loc 1 350 0
 1833 0280 8DF86830 		strb	r3, [sp, #104]
 1834              		.loc 1 344 0
 1835 0284 1594     		str	r4, [sp, #84]
 1836              		.loc 1 346 0
 1837 0286 8DF85940 		strb	r4, [sp, #89]
 1838              		.loc 1 349 0
 1839 028a 1994     		str	r4, [sp, #100]
 1840              		.loc 1 347 0
 1841 028c CDF85CA0 		str	r10, [sp, #92]
 1842              		.loc 1 345 0
 1843 0290 8DF85880 		strb	r8, [sp, #88]
 1844              		.loc 1 352 0
 1845 0294 FFF7FEFF 		bl	ADC_Init
 1846              	.LVL140:
 1847              		.loc 1 355 0
 1848 0298 15A9     		add	r1, sp, #84
 1849 029a 4F48     		ldr	r0, .L153+140
 1850              		.loc 1 354 0
 1851 029c CDE91744 		strd	r4, r4, [sp, #92]
 1852              		.loc 1 355 0
 1853 02a0 FFF7FEFF 		bl	ADC_Init
 1854              	.LVL141:
 1855              		.loc 1 356 0
 1856 02a4 15A9     		add	r1, sp, #84
 1857 02a6 4D48     		ldr	r0, .L153+144
 1858 02a8 FFF7FEFF 		bl	ADC_Init
 1859              	.LVL142:
 1860              		.loc 1 359 0
 1861 02ac 4046     		mov	r0, r8
 1862 02ae FFF7FEFF 		bl	ADC_TempSensorVrefintCmd
 1863              	.LVL143:
 1864              		.loc 1 362 0
 1865 02b2 4046     		mov	r0, r8
 1866 02b4 FFF7FEFF 		bl	ADC_MultiModeDMARequestAfterLastTransferCmd
 1867              	.LVL144:
 1868              		.loc 1 364 0
 1869 02b8 FFF7FEFF 		bl	hw_setup_adc_channels
 1870              	.LVL145:
 1871              		.loc 1 367 0
 1872 02bc 4146     		mov	r1, r8
 1873 02be 4548     		ldr	r0, .L153+136
 1874 02c0 FFF7FEFF 		bl	ADC_Cmd
 1875              	.LVL146:
 1876              		.loc 1 370 0
 1877 02c4 4146     		mov	r1, r8
 1878 02c6 4448     		ldr	r0, .L153+140
 1879 02c8 FFF7FEFF 		bl	ADC_Cmd
 1880              	.LVL147:
 1881              		.loc 1 373 0
ARM GAS  /tmp/cc50jUqN.s 			page 34


 1882 02cc 4146     		mov	r1, r8
 1883 02ce 4348     		ldr	r0, .L153+144
 1884 02d0 FFF7FEFF 		bl	ADC_Cmd
 1885              	.LVL148:
 1886              		.loc 1 377 0
 1887 02d4 4146     		mov	r1, r8
 1888 02d6 0220     		movs	r0, #2
 1889 02d8 FFF7FEFF 		bl	RCC_APB2PeriphClockCmd
 1890              	.LVL149:
 1891              		.loc 1 380 0
 1892 02dc 4FF6FF73 		movw	r3, #65535
 1893              		.loc 1 384 0
 1894 02e0 05A9     		add	r1, sp, #20
 1895 02e2 3046     		mov	r0, r6
 1896              		.loc 1 379 0
 1897 02e4 0594     		str	r4, [sp, #20]
 1898              		.loc 1 381 0
 1899 02e6 ADF81C40 		strh	r4, [sp, #28]	@ movhi
 1900              		.loc 1 382 0
 1901 02ea 8DF81E40 		strb	r4, [sp, #30]
 1902              		.loc 1 380 0
 1903 02ee 0693     		str	r3, [sp, #24]
 1904              		.loc 1 384 0
 1905 02f0 FFF7FEFF 		bl	TIM_TimeBaseInit
 1906              	.LVL150:
 1907              		.loc 1 386 0
 1908 02f4 2D4A     		ldr	r2, .L153+96
 1909 02f6 1092     		str	r2, [sp, #64]
 1910              		.loc 1 388 0
 1911 02f8 4FF4FA73 		mov	r3, #500
 1912              		.loc 1 390 0
 1913 02fc 2C4A     		ldr	r2, .L153+100
 1914              		.loc 1 388 0
 1915 02fe 1293     		str	r3, [sp, #72]
 1916              		.loc 1 393 0
 1917 0300 10A9     		add	r1, sp, #64
 1918 0302 3046     		mov	r0, r6
 1919              		.loc 1 390 0
 1920 0304 1492     		str	r2, [sp, #80]
 1921              		.loc 1 388 0
 1922 0306 1394     		str	r4, [sp, #76]
 1923              		.loc 1 393 0
 1924 0308 FFF7FEFF 		bl	TIM_OC1Init
 1925              	.LVL151:
 1926              		.loc 1 394 0
 1927 030c 3046     		mov	r0, r6
 1928 030e 0821     		movs	r1, #8
 1929 0310 FFF7FEFF 		bl	TIM_OC1PreloadConfig
 1930              	.LVL152:
 1931              		.loc 1 395 0
 1932 0314 10A9     		add	r1, sp, #64
 1933 0316 3046     		mov	r0, r6
 1934 0318 FFF7FEFF 		bl	TIM_OC2Init
 1935              	.LVL153:
 1936              		.loc 1 396 0
 1937 031c 3046     		mov	r0, r6
 1938 031e 0821     		movs	r1, #8
ARM GAS  /tmp/cc50jUqN.s 			page 35


 1939 0320 FFF7FEFF 		bl	TIM_OC2PreloadConfig
 1940              	.LVL154:
 1941              		.loc 1 397 0
 1942 0324 10A9     		add	r1, sp, #64
 1943 0326 3046     		mov	r0, r6
 1944 0328 FFF7FEFF 		bl	TIM_OC3Init
 1945              	.LVL155:
 1946              		.loc 1 398 0
 1947 032c 3046     		mov	r0, r6
 1948 032e 0821     		movs	r1, #8
 1949 0330 FFF7FEFF 		bl	TIM_OC3PreloadConfig
 1950              	.LVL156:
 1951              		.loc 1 400 0
 1952 0334 4146     		mov	r1, r8
 1953 0336 3046     		mov	r0, r6
 1954 0338 FFF7FEFF 		bl	TIM_ARRPreloadConfig
 1955              	.LVL157:
 1956              		.loc 1 401 0
 1957 033c 4146     		mov	r1, r8
 1958 033e 3046     		mov	r0, r6
 1959 0340 FFF7FEFF 		bl	TIM_CCPreloadControl
 1960              	.LVL158:
 1961              		.loc 1 404 0
 1962 0344 4146     		mov	r1, r8
 1963 0346 3046     		mov	r0, r6
 1964 0348 6AE0     		b	.L154
 1965              	.L155:
 1966 034a 00BF     		.align	2
 1967              	.L153:
 1968 034c 00000000 		.word	.LANCHOR24
 1969 0350 00000000 		.word	.LANCHOR25
 1970 0354 00000000 		.word	.LANCHOR26
 1971 0358 00000000 		.word	.LANCHOR27
 1972 035c 00000000 		.word	.LANCHOR28
 1973 0360 00000000 		.word	0
 1974 0364 00000000 		.word	.LANCHOR31
 1975 0368 00000000 		.word	.LANCHOR32
 1976 036c 00000000 		.word	.LANCHOR23
 1977 0370 00000000 		.word	.LANCHOR33
 1978 0374 00000000 		.word	.LANCHOR21
 1979 0378 00000000 		.word	.LANCHOR16
 1980 037c 00000000 		.word	.LANCHOR8
 1981 0380 00000000 		.word	.LANCHOR6
 1982 0384 00000000 		.word	.LANCHOR38
 1983 0388 00000000 		.word	.LANCHOR39
 1984 038c 00000000 		.word	.LANCHOR12
 1985 0390 00000000 		.word	.LANCHOR40
 1986 0394 00000000 		.word	.LANCHOR18
 1987 0398 00000000 		.word	.LANCHOR10
 1988 039c 00000000 		.word	.LANCHOR17
 1989 03a0 00000140 		.word	1073807360
 1990 03a4 00040140 		.word	1073808384
 1991 03a8 007A030A 		.word	168000000
 1992 03ac 60000100 		.word	65632
 1993 03b0 00010002 		.word	33554688
 1994 03b4 A037204D 		.word	1293957024
 1995 03b8 0000B443 		.word	1135869952
ARM GAS  /tmp/cc50jUqN.s 			page 36


 1996 03bc 00080004 		.word	67110912
 1997 03c0 05004000 		.word	4194309
 1998 03c4 00000000 		.word	mcpwm_foc_adc_int_handler
 1999 03c8 90000000 		.word	_stm32_dma_streams+144
 2000 03cc 00000000 		.word	ADC_Value
 2001 03d0 70640240 		.word	1073898608
 2002 03d4 00200140 		.word	1073815552
 2003 03d8 00210140 		.word	1073815808
 2004 03dc 00220140 		.word	1073816064
 2005 03e0 00000000 		.word	.LANCHOR7
 2006 03e4 00000000 		.word	.LANCHOR14
 2007 03e8 00000000 		.word	.LANCHOR0
 2008 03ec 00000000 		.word	.LANCHOR29
 2009 03f0 00000000 		.word	.LANCHOR30
 2010 03f4 00000000 		.word	.LANCHOR34
 2011 03f8 00000000 		.word	.LANCHOR2
 2012 03fc 00000000 		.word	.LANCHOR35
 2013 0400 00000000 		.word	.LANCHOR36
 2014 0404 00000000 		.word	.LANCHOR11
 2015 0408 00000000 		.word	.LANCHOR37
 2016 040c 00000000 		.word	.LANCHOR41
 2017 0410 00000000 		.word	.LANCHOR42
 2018 0414 00000000 		.word	.LANCHOR43
 2019 0418 00000000 		.word	.LANCHOR44
 2020 041c 08230140 		.word	1073816328
 2021              	.L154:
 2022 0420 FFF7FEFF 		bl	TIM_CtrlPWMOutputs
 2023              	.LVL159:
 2024              		.loc 1 407 0
 2025 0424 2846     		mov	r0, r5
 2026 0426 2021     		movs	r1, #32
 2027 0428 FFF7FEFF 		bl	TIM_SelectOutputTrigger
 2028              	.LVL160:
 2029              		.loc 1 408 0
 2030 042c 2846     		mov	r0, r5
 2031 042e 8021     		movs	r1, #128
 2032 0430 FFF7FEFF 		bl	TIM_SelectMasterSlaveMode
 2033              	.LVL161:
 2034              		.loc 1 409 0
 2035 0434 2146     		mov	r1, r4
 2036 0436 3046     		mov	r0, r6
 2037 0438 FFF7FEFF 		bl	TIM_SelectInputTrigger
 2038              	.LVL162:
 2039              		.loc 1 410 0
 2040 043c 4946     		mov	r1, r9
 2041 043e 3046     		mov	r0, r6
 2042 0440 FFF7FEFF 		bl	TIM_SelectSlaveMode
 2043              	.LVL163:
 2044              		.loc 1 413 0
 2045 0444 2846     		mov	r0, r5
 2046 0446 4146     		mov	r1, r8
 2047 0448 FFF7FEFF 		bl	TIM_Cmd
 2048              	.LVL164:
 2049              		.loc 1 414 0
 2050 044c 4146     		mov	r1, r8
 2051 044e 3046     		mov	r0, r6
 2052 0450 FFF7FEFF 		bl	TIM_Cmd
ARM GAS  /tmp/cc50jUqN.s 			page 37


 2053              	.LVL165:
 2054              		.loc 1 417 0
 2055 0454 2846     		mov	r0, r5
 2056 0456 4146     		mov	r1, r8
 2057 0458 FFF7FEFF 		bl	TIM_CtrlPWMOutputs
 2058              	.LVL166:
 2059              		.loc 1 420 0
 2060 045c FFF7FEFF 		bl	stop_pwm_hw
 2061              	.LVL167:
 2062              		.loc 1 424 0
 2063 0460 0221     		movs	r1, #2
 2064              		.loc 1 427 0
 2065 0462 4246     		mov	r2, r8
 2066              		.loc 1 424 0
 2067 0464 7163     		str	r1, [r6, #52]
 2068              		.loc 1 427 0
 2069 0466 3046     		mov	r0, r6
 2070 0468 FFF7FEFF 		bl	TIM_ITConfig
 2071              	.LVL168:
 2072              		.loc 1 435 0
 2073 046c 05F58235 		add	r5, r5, #66560
 2074              		.loc 1 428 0
 2075 0470 0621     		movs	r1, #6
 2076 0472 2E20     		movs	r0, #46
 2077 0474 FFF7FEFF 		bl	nvicEnableVector
 2078              	.LVL169:
 2079              		.loc 1 430 0
 2080 0478 FFF7FEFF 		bl	utils_sys_unlock_cnt
 2081              	.LVL170:
 2082              		.loc 1 435 0
 2083 047c 2023     		movs	r3, #32
 2084 047e 2B83     		strh	r3, [r5, #24]	@ movhi
 2085              	.LVL171:
 2086 0480 41F28934 		movw	r4, #5001
 2087 0484 03E0     		b	.L142
 2088              	.LVL172:
 2089              	.L144:
 2090              	.LBB56:
 2091              	.LBB57:
 2092              		.loc 1 2278 0
 2093 0486 FFF7FEFF 		bl	chThdSleep
 2094              	.LVL173:
 2095              		.loc 1 2280 0
 2096 048a 013C     		subs	r4, r4, #1
 2097              	.LVL174:
 2098 048c 04D0     		beq	.L145
 2099              	.LVL175:
 2100              	.L142:
 2101              		.loc 1 2277 0
 2102 048e 2B69     		ldr	r3, [r5, #16]
 2103 0490 1B06     		lsls	r3, r3, #24
 2104              		.loc 1 2278 0
 2105 0492 4FF00A00 		mov	r0, #10
 2106              		.loc 1 2277 0
 2107 0496 F6D5     		bpl	.L144
 2108              	.LVL176:
 2109              	.L145:
ARM GAS  /tmp/cc50jUqN.s 			page 38


 2110              		.loc 1 2285 0
 2111 0498 42F21070 		movw	r0, #10000
 2112 049c FFF7FEFF 		bl	chThdSleep
 2113              	.LVL177:
 2114              		.loc 1 2286 0
 2115 04a0 1D4A     		ldr	r2, .L156
 2116 04a2 0023     		movs	r3, #0
 2117 04a4 1360     		str	r3, [r2]
 2118              		.loc 1 2287 0
 2119 04a6 1D4A     		ldr	r2, .L156+4
 2120 04a8 1360     		str	r3, [r2]
 2121              		.loc 1 2289 0
 2122 04aa CBF80030 		str	r3, [fp]
 2123              		.loc 1 2291 0
 2124 04ae 3B60     		str	r3, [r7]
 2125              	.L143:
 2126              		.loc 1 2292 0
 2127 04b0 3B68     		ldr	r3, [r7]
 2128 04b2 B3F57A6F 		cmp	r3, #4000
 2129 04b6 FBDB     		blt	.L143
 2130              		.loc 1 2293 0
 2131 04b8 1949     		ldr	r1, .L156+8
 2132 04ba 174B     		ldr	r3, .L156
 2133              	.LBE57:
 2134              	.LBE56:
 2135              		.loc 1 440 0
 2136 04bc 194D     		ldr	r5, .L156+12
 2137              	.LBB62:
 2138              	.LBB58:
 2139              		.loc 1 2293 0
 2140 04be 1B68     		ldr	r3, [r3]
 2141 04c0 3A68     		ldr	r2, [r7]
 2142 04c2 93FBF2F3 		sdiv	r3, r3, r2
 2143              		.loc 1 2294 0
 2144 04c6 184A     		ldr	r2, .L156+16
 2145              		.loc 1 2293 0
 2146 04c8 0B60     		str	r3, [r1]
 2147              		.loc 1 2294 0
 2148 04ca 144B     		ldr	r3, .L156+4
 2149              		.loc 1 2296 0
 2150 04cc 1749     		ldr	r1, .L156+20
 2151              		.loc 1 2299 0
 2152 04ce 184E     		ldr	r6, .L156+24
 2153              		.loc 1 2294 0
 2154 04d0 1B68     		ldr	r3, [r3]
 2155 04d2 3868     		ldr	r0, [r7]
 2156 04d4 93FBF0F3 		sdiv	r3, r3, r0
 2157              	.LBE58:
 2158              	.LBE62:
 2159              		.loc 1 440 0
 2160 04d8 0024     		movs	r4, #0
 2161              	.LBB63:
 2162              	.LBB59:
 2163              		.loc 1 2294 0
 2164 04da 1360     		str	r3, [r2]
 2165              		.loc 1 2299 0
 2166 04dc 0120     		movs	r0, #1
ARM GAS  /tmp/cc50jUqN.s 			page 39


 2167              	.LBE59:
 2168              	.LBE63:
 2169              		.loc 1 441 0
 2170 04de 0094     		str	r4, [sp]
 2171              	.LBB64:
 2172              	.LBB60:
 2173              		.loc 1 2296 0
 2174 04e0 DBF80020 		ldr	r2, [fp]
 2175 04e4 3B68     		ldr	r3, [r7]
 2176 04e6 92FBF3F2 		sdiv	r2, r2, r3
 2177              	.LBE60:
 2178              	.LBE64:
 2179              		.loc 1 441 0
 2180 04ea 124B     		ldr	r3, .L156+28
 2181              	.LBB65:
 2182              	.LBB61:
 2183              		.loc 1 2296 0
 2184 04ec 0A60     		str	r2, [r1]
 2185              		.loc 1 2299 0
 2186 04ee 3070     		strb	r0, [r6]
 2187              	.LBE61:
 2188              	.LBE65:
 2189              		.loc 1 441 0
 2190 04f0 4022     		movs	r2, #64
 2191 04f2 40F69811 		movw	r1, #2456
 2192 04f6 1048     		ldr	r0, .L156+32
 2193              		.loc 1 440 0
 2194 04f8 2C70     		strb	r4, [r5]
 2195              		.loc 1 441 0
 2196 04fa FFF7FEFF 		bl	chThdCreateStatic
 2197              	.LVL178:
 2198              		.loc 1 444 0
 2199 04fe FFF7FEFF 		bl	timeout_had_IWDG_reset
 2200              	.LVL179:
 2201 0502 10B1     		cbz	r0, .L146
 2202              		.loc 1 445 0
 2203 0504 0A20     		movs	r0, #10
 2204 0506 FFF7FEFF 		bl	mc_interface_fault_stop
 2205              	.LVL180:
 2206              	.L146:
 2207              		.loc 1 448 0
 2208 050a 0C4A     		ldr	r2, .L156+36
 2209 050c 0123     		movs	r3, #1
 2210 050e 1370     		strb	r3, [r2]
 2211              		.loc 1 449 0
 2212 0510 2BB0     		add	sp, sp, #172
 2213              		.cfi_def_cfa_offset 36
 2214              		@ sp needed
 2215 0512 BDE8F08F 		pop	{r4, r5, r6, r7, r8, r9, r10, fp, pc}
 2216              	.LVL181:
 2217              	.L157:
 2218 0516 00BF     		.align	2
 2219              	.L156:
 2220 0518 00000000 		.word	.LANCHOR25
 2221 051c 00000000 		.word	.LANCHOR26
 2222 0520 00000000 		.word	.LANCHOR45
 2223 0524 00000000 		.word	.LANCHOR9
ARM GAS  /tmp/cc50jUqN.s 			page 40


 2224 0528 00000000 		.word	.LANCHOR46
 2225 052c 00000000 		.word	.LANCHOR47
 2226 0530 00000000 		.word	.LANCHOR28
 2227 0534 00000000 		.word	timer_thread
 2228 0538 00000000 		.word	.LANCHOR48
 2229 053c 00000000 		.word	.LANCHOR24
 2230              		.cfi_endproc
 2231              	.LFE256:
 2232              		.size	mcpwm_foc_init, .-mcpwm_foc_init
 2233              		.section	.text.mcpwm_foc_deinit,"ax",%progbits
 2234              		.align	1
 2235              		.p2align 4,,15
 2236              		.global	mcpwm_foc_deinit
 2237              		.syntax unified
 2238              		.thumb
 2239              		.thumb_func
 2240              		.fpu fpv4-sp-d16
 2241              		.type	mcpwm_foc_deinit, %function
 2242              	mcpwm_foc_deinit:
 2243              	.LFB257:
 2244              		.loc 1 451 0
 2245              		.cfi_startproc
 2246              		@ args = 0, pretend = 0, frame = 0
 2247              		@ frame_needed = 0, uses_anonymous_args = 0
 2248              		.loc 1 452 0
 2249 0000 124B     		ldr	r3, .L169
 2250 0002 1A78     		ldrb	r2, [r3]	@ zero_extendqisi2
 2251 0004 02B3     		cbz	r2, .L158
 2252              		.loc 1 451 0
 2253 0006 10B5     		push	{r4, lr}
 2254              		.cfi_def_cfa_offset 8
 2255              		.cfi_offset 4, -8
 2256              		.cfi_offset 14, -4
 2257              		.loc 1 458 0
 2258 0008 114C     		ldr	r4, .L169+4
 2259              		.loc 1 456 0
 2260 000a 0021     		movs	r1, #0
 2261              		.loc 1 458 0
 2262 000c 0122     		movs	r2, #1
 2263              		.loc 1 456 0
 2264 000e 1970     		strb	r1, [r3]
 2265              		.loc 1 458 0
 2266 0010 2270     		strb	r2, [r4]
 2267              		.loc 1 460 0
 2268 0012 2378     		ldrb	r3, [r4]	@ zero_extendqisi2
 2269 0014 2BB1     		cbz	r3, .L160
 2270              	.L161:
 2271              		.loc 1 461 0
 2272 0016 0A20     		movs	r0, #10
 2273 0018 FFF7FEFF 		bl	chThdSleep
 2274              	.LVL182:
 2275              		.loc 1 460 0
 2276 001c 2378     		ldrb	r3, [r4]	@ zero_extendqisi2
 2277 001e 002B     		cmp	r3, #0
 2278 0020 F9D1     		bne	.L161
 2279              	.L160:
 2280              		.loc 1 464 0
ARM GAS  /tmp/cc50jUqN.s 			page 41


 2281 0022 0C48     		ldr	r0, .L169+8
 2282 0024 FFF7FEFF 		bl	TIM_DeInit
 2283              	.LVL183:
 2284              		.loc 1 465 0
 2285 0028 0B48     		ldr	r0, .L169+12
 2286 002a FFF7FEFF 		bl	TIM_DeInit
 2287              	.LVL184:
 2288              		.loc 1 466 0
 2289 002e FFF7FEFF 		bl	ADC_DeInit
 2290              	.LVL185:
 2291              		.loc 1 467 0
 2292 0032 0A48     		ldr	r0, .L169+16
 2293 0034 FFF7FEFF 		bl	DMA_DeInit
 2294              	.LVL186:
 2295              		.loc 1 468 0
 2296 0038 1220     		movs	r0, #18
 2297 003a FFF7FEFF 		bl	nvicDisableVector
 2298              	.LVL187:
 2299              		.loc 1 469 0
 2300 003e 0848     		ldr	r0, .L169+20
 2301              		.loc 1 470 0
 2302 0040 BDE81040 		pop	{r4, lr}
 2303              		.cfi_restore 14
 2304              		.cfi_restore 4
 2305              		.cfi_def_cfa_offset 0
 2306              		.loc 1 469 0
 2307 0044 FFF7FEBF 		b	dmaStreamRelease
 2308              	.LVL188:
 2309              	.L158:
 2310 0048 7047     		bx	lr
 2311              	.L170:
 2312 004a 00BF     		.align	2
 2313              	.L169:
 2314 004c 00000000 		.word	.LANCHOR24
 2315 0050 00000000 		.word	.LANCHOR9
 2316 0054 00000140 		.word	1073807360
 2317 0058 00040140 		.word	1073808384
 2318 005c 70640240 		.word	1073898608
 2319 0060 90000000 		.word	_stm32_dma_streams+144
 2320              		.cfi_endproc
 2321              	.LFE257:
 2322              		.size	mcpwm_foc_deinit, .-mcpwm_foc_deinit
 2323              		.section	.text.mcpwm_foc_init_done,"ax",%progbits
 2324              		.align	1
 2325              		.p2align 4,,15
 2326              		.global	mcpwm_foc_init_done
 2327              		.syntax unified
 2328              		.thumb
 2329              		.thumb_func
 2330              		.fpu fpv4-sp-d16
 2331              		.type	mcpwm_foc_init_done, %function
 2332              	mcpwm_foc_init_done:
 2333              	.LFB258:
 2334              		.loc 1 472 0
 2335              		.cfi_startproc
 2336              		@ args = 0, pretend = 0, frame = 0
 2337              		@ frame_needed = 0, uses_anonymous_args = 0
ARM GAS  /tmp/cc50jUqN.s 			page 42


 2338              		@ link register save eliminated.
 2339              		.loc 1 473 0
 2340 0000 014B     		ldr	r3, .L172
 2341 0002 1878     		ldrb	r0, [r3]	@ zero_extendqisi2
 2342              		.loc 1 474 0
 2343 0004 7047     		bx	lr
 2344              	.L173:
 2345 0006 00BF     		.align	2
 2346              	.L172:
 2347 0008 00000000 		.word	.LANCHOR24
 2348              		.cfi_endproc
 2349              	.LFE258:
 2350              		.size	mcpwm_foc_init_done, .-mcpwm_foc_init_done
 2351              		.section	.text.mcpwm_foc_set_configuration,"ax",%progbits
 2352              		.align	1
 2353              		.p2align 4,,15
 2354              		.global	mcpwm_foc_set_configuration
 2355              		.syntax unified
 2356              		.thumb
 2357              		.thumb_func
 2358              		.fpu fpv4-sp-d16
 2359              		.type	mcpwm_foc_set_configuration, %function
 2360              	mcpwm_foc_set_configuration:
 2361              	.LFB259:
 2362              		.loc 1 476 0
 2363              		.cfi_startproc
 2364              		@ args = 0, pretend = 0, frame = 0
 2365              		@ frame_needed = 0, uses_anonymous_args = 0
 2366              	.LVL189:
 2367 0000 10B5     		push	{r4, lr}
 2368              		.cfi_def_cfa_offset 8
 2369              		.cfi_offset 4, -8
 2370              		.cfi_offset 14, -4
 2371              		.loc 1 477 0
 2372 0002 144C     		ldr	r4, .L176
 2373              		.loc 1 479 0
 2374 0004 1449     		ldr	r1, .L176+4
 2375              		.loc 1 480 0
 2376 0006 154B     		ldr	r3, .L176+8
 2377              		.loc 1 477 0
 2378 0008 2060     		str	r0, [r4]
 2379              		.loc 1 480 0
 2380 000a 0022     		movs	r2, #0
 2381              		.loc 1 479 0
 2382 000c 0A20     		movs	r0, #10
 2383              	.LVL190:
 2384 000e 0870     		strb	r0, [r1]
 2385              		.loc 1 480 0
 2386 0010 1A70     		strb	r2, [r3]
 2387              		.loc 1 481 0
 2388 0012 FFF7FEFF 		bl	stop_pwm_hw
 2389              	.LVL191:
 2390              		.loc 1 482 0
 2391 0016 2368     		ldr	r3, [r4]
 2392              		.loc 1 483 0
 2393 0018 114A     		ldr	r2, .L176+12
 2394              		.loc 1 482 0
ARM GAS  /tmp/cc50jUqN.s 			page 43


 2395 001a D3ED2D7A 		vldr.32	s15, [r3, #180]
 2396              		.loc 1 483 0
 2397 001e 1168     		ldr	r1, [r2]
 2398 0020 104B     		ldr	r3, .L176+16
 2399              		.loc 1 482 0
 2400 0022 1148     		ldr	r0, .L176+20
 2401              		.loc 1 483 0
 2402 0024 41F00201 		orr	r1, r1, #2
 2403 0028 1160     		str	r1, [r2]
 2404 002a 1968     		ldr	r1, [r3]
 2405 002c 0224     		movs	r4, #2
 2406              		.loc 1 482 0
 2407 002e FDEEE77A 		vcvt.s32.f32	s15, s15
 2408              		.loc 1 483 0
 2409 0032 2143     		orrs	r1, r1, r4
 2410 0034 1960     		str	r1, [r3]
 2411              		.loc 1 482 0
 2412 0036 17EE901A 		vmov	r1, s15	@ int
 2413 003a 90FBF1F1 		sdiv	r1, r0, r1
 2414              	.LVL192:
 2415              		.loc 1 483 0
 2416 003e D162     		str	r1, [r2, #44]
 2417 0040 5C63     		str	r4, [r3, #52]
 2418 0042 1168     		ldr	r1, [r2]
 2419              	.LVL193:
 2420 0044 21F00201 		bic	r1, r1, #2
 2421 0048 1160     		str	r1, [r2]
 2422 004a 1A68     		ldr	r2, [r3]
 2423 004c 22F00202 		bic	r2, r2, #2
 2424 0050 1A60     		str	r2, [r3]
 2425              		.loc 1 484 0
 2426 0052 10BD     		pop	{r4, pc}
 2427              	.L177:
 2428              		.align	2
 2429              	.L176:
 2430 0054 00000000 		.word	.LANCHOR0
 2431 0058 00000000 		.word	.LANCHOR14
 2432 005c 00000000 		.word	.LANCHOR7
 2433 0060 00000140 		.word	1073807360
 2434 0064 00040140 		.word	1073808384
 2435 0068 007A030A 		.word	168000000
 2436              		.cfi_endproc
 2437              	.LFE259:
 2438              		.size	mcpwm_foc_set_configuration, .-mcpwm_foc_set_configuration
 2439              		.section	.text.mcpwm_foc_get_state,"ax",%progbits
 2440              		.align	1
 2441              		.p2align 4,,15
 2442              		.global	mcpwm_foc_get_state
 2443              		.syntax unified
 2444              		.thumb
 2445              		.thumb_func
 2446              		.fpu fpv4-sp-d16
 2447              		.type	mcpwm_foc_get_state, %function
 2448              	mcpwm_foc_get_state:
 2449              	.LFB260:
 2450              		.loc 1 486 0
 2451              		.cfi_startproc
ARM GAS  /tmp/cc50jUqN.s 			page 44


 2452              		@ args = 0, pretend = 0, frame = 0
 2453              		@ frame_needed = 0, uses_anonymous_args = 0
 2454              		@ link register save eliminated.
 2455              		.loc 1 487 0
 2456 0000 014B     		ldr	r3, .L179
 2457 0002 1878     		ldrb	r0, [r3]	@ zero_extendqisi2
 2458              		.loc 1 488 0
 2459 0004 7047     		bx	lr
 2460              	.L180:
 2461 0006 00BF     		.align	2
 2462              	.L179:
 2463 0008 00000000 		.word	.LANCHOR7
 2464              		.cfi_endproc
 2465              	.LFE260:
 2466              		.size	mcpwm_foc_get_state, .-mcpwm_foc_get_state
 2467              		.section	.text.mcpwm_foc_is_dccal_done,"ax",%progbits
 2468              		.align	1
 2469              		.p2align 4,,15
 2470              		.global	mcpwm_foc_is_dccal_done
 2471              		.syntax unified
 2472              		.thumb
 2473              		.thumb_func
 2474              		.fpu fpv4-sp-d16
 2475              		.type	mcpwm_foc_is_dccal_done, %function
 2476              	mcpwm_foc_is_dccal_done:
 2477              	.LFB261:
 2478              		.loc 1 490 0
 2479              		.cfi_startproc
 2480              		@ args = 0, pretend = 0, frame = 0
 2481              		@ frame_needed = 0, uses_anonymous_args = 0
 2482              		@ link register save eliminated.
 2483              		.loc 1 491 0
 2484 0000 014B     		ldr	r3, .L182
 2485 0002 1878     		ldrb	r0, [r3]	@ zero_extendqisi2
 2486              		.loc 1 492 0
 2487 0004 7047     		bx	lr
 2488              	.L183:
 2489 0006 00BF     		.align	2
 2490              	.L182:
 2491 0008 00000000 		.word	.LANCHOR28
 2492              		.cfi_endproc
 2493              	.LFE261:
 2494              		.size	mcpwm_foc_is_dccal_done, .-mcpwm_foc_is_dccal_done
 2495              		.section	.text.mcpwm_foc_set_duty,"ax",%progbits
 2496              		.align	1
 2497              		.p2align 4,,15
 2498              		.global	mcpwm_foc_set_duty
 2499              		.syntax unified
 2500              		.thumb
 2501              		.thumb_func
 2502              		.fpu fpv4-sp-d16
 2503              		.type	mcpwm_foc_set_duty, %function
 2504              	mcpwm_foc_set_duty:
 2505              	.LFB263:
 2506              		.loc 1 508 0
 2507              		.cfi_startproc
 2508              		@ args = 0, pretend = 0, frame = 0
ARM GAS  /tmp/cc50jUqN.s 			page 45


 2509              		@ frame_needed = 0, uses_anonymous_args = 0
 2510              		@ link register save eliminated.
 2511              	.LVL194:
 2512              		.loc 1 510 0
 2513 0000 064A     		ldr	r2, .L189
 2514              		.loc 1 509 0
 2515 0002 0749     		ldr	r1, .L189+4
 2516              		.loc 1 512 0
 2517 0004 074B     		ldr	r3, .L189+8
 2518              		.loc 1 509 0
 2519 0006 0020     		movs	r0, #0
 2520 0008 0870     		strb	r0, [r1]
 2521              		.loc 1 510 0
 2522 000a 82ED000A 		vstr.32	s0, [r2]
 2523              		.loc 1 512 0
 2524 000e 1A78     		ldrb	r2, [r3]	@ zero_extendqisi2
 2525 0010 022A     		cmp	r2, #2
 2526              		.loc 1 513 0
 2527 0012 1CBF     		itt	ne
 2528 0014 0222     		movne	r2, #2
 2529 0016 1A70     		strbne	r2, [r3]
 2530              		.loc 1 515 0
 2531 0018 7047     		bx	lr
 2532              	.L190:
 2533 001a 00BF     		.align	2
 2534              	.L189:
 2535 001c 00000000 		.word	.LANCHOR31
 2536 0020 00000000 		.word	.LANCHOR14
 2537 0024 00000000 		.word	.LANCHOR7
 2538              		.cfi_endproc
 2539              	.LFE263:
 2540              		.size	mcpwm_foc_set_duty, .-mcpwm_foc_set_duty
 2541              		.section	.text.mcpwm_foc_set_duty_noramp,"ax",%progbits
 2542              		.align	1
 2543              		.p2align 4,,15
 2544              		.global	mcpwm_foc_set_duty_noramp
 2545              		.syntax unified
 2546              		.thumb
 2547              		.thumb_func
 2548              		.fpu fpv4-sp-d16
 2549              		.type	mcpwm_foc_set_duty_noramp, %function
 2550              	mcpwm_foc_set_duty_noramp:
 2551              	.LFB264:
 2552              		.loc 1 527 0
 2553              		.cfi_startproc
 2554              		@ args = 0, pretend = 0, frame = 0
 2555              		@ frame_needed = 0, uses_anonymous_args = 0
 2556              		@ link register save eliminated.
 2557              	.LVL195:
 2558              	.LBB66:
 2559              	.LBB67:
 2560              		.loc 1 510 0
 2561 0000 064A     		ldr	r2, .L196
 2562              		.loc 1 509 0
 2563 0002 0749     		ldr	r1, .L196+4
 2564              		.loc 1 512 0
 2565 0004 074B     		ldr	r3, .L196+8
ARM GAS  /tmp/cc50jUqN.s 			page 46


 2566              		.loc 1 509 0
 2567 0006 0020     		movs	r0, #0
 2568 0008 0870     		strb	r0, [r1]
 2569              		.loc 1 510 0
 2570 000a 82ED000A 		vstr.32	s0, [r2]
 2571              		.loc 1 512 0
 2572 000e 1A78     		ldrb	r2, [r3]	@ zero_extendqisi2
 2573 0010 022A     		cmp	r2, #2
 2574              		.loc 1 513 0
 2575 0012 1CBF     		itt	ne
 2576 0014 0222     		movne	r2, #2
 2577 0016 1A70     		strbne	r2, [r3]
 2578              	.LVL196:
 2579              	.LBE67:
 2580              	.LBE66:
 2581              		.loc 1 530 0
 2582 0018 7047     		bx	lr
 2583              	.L197:
 2584 001a 00BF     		.align	2
 2585              	.L196:
 2586 001c 00000000 		.word	.LANCHOR31
 2587 0020 00000000 		.word	.LANCHOR14
 2588 0024 00000000 		.word	.LANCHOR7
 2589              		.cfi_endproc
 2590              	.LFE264:
 2591              		.size	mcpwm_foc_set_duty_noramp, .-mcpwm_foc_set_duty_noramp
 2592              		.section	.text.mcpwm_foc_set_pid_speed,"ax",%progbits
 2593              		.align	1
 2594              		.p2align 4,,15
 2595              		.global	mcpwm_foc_set_pid_speed
 2596              		.syntax unified
 2597              		.thumb
 2598              		.thumb_func
 2599              		.fpu fpv4-sp-d16
 2600              		.type	mcpwm_foc_set_pid_speed, %function
 2601              	mcpwm_foc_set_pid_speed:
 2602              	.LFB265:
 2603              		.loc 1 539 0
 2604              		.cfi_startproc
 2605              		@ args = 0, pretend = 0, frame = 0
 2606              		@ frame_needed = 0, uses_anonymous_args = 0
 2607              		@ link register save eliminated.
 2608              	.LVL197:
 2609              		.loc 1 541 0
 2610 0000 064A     		ldr	r2, .L203
 2611              		.loc 1 540 0
 2612 0002 0749     		ldr	r1, .L203+4
 2613              		.loc 1 543 0
 2614 0004 074B     		ldr	r3, .L203+8
 2615              		.loc 1 540 0
 2616 0006 0120     		movs	r0, #1
 2617 0008 0870     		strb	r0, [r1]
 2618              		.loc 1 541 0
 2619 000a 82ED000A 		vstr.32	s0, [r2]
 2620              		.loc 1 543 0
 2621 000e 1A78     		ldrb	r2, [r3]	@ zero_extendqisi2
 2622 0010 022A     		cmp	r2, #2
ARM GAS  /tmp/cc50jUqN.s 			page 47


 2623              		.loc 1 544 0
 2624 0012 1CBF     		itt	ne
 2625 0014 0222     		movne	r2, #2
 2626 0016 1A70     		strbne	r2, [r3]
 2627              		.loc 1 546 0
 2628 0018 7047     		bx	lr
 2629              	.L204:
 2630 001a 00BF     		.align	2
 2631              	.L203:
 2632 001c 00000000 		.word	.LANCHOR21
 2633 0020 00000000 		.word	.LANCHOR14
 2634 0024 00000000 		.word	.LANCHOR7
 2635              		.cfi_endproc
 2636              	.LFE265:
 2637              		.size	mcpwm_foc_set_pid_speed, .-mcpwm_foc_set_pid_speed
 2638              		.section	.text.mcpwm_foc_set_pid_pos,"ax",%progbits
 2639              		.align	1
 2640              		.p2align 4,,15
 2641              		.global	mcpwm_foc_set_pid_pos
 2642              		.syntax unified
 2643              		.thumb
 2644              		.thumb_func
 2645              		.fpu fpv4-sp-d16
 2646              		.type	mcpwm_foc_set_pid_pos, %function
 2647              	mcpwm_foc_set_pid_pos:
 2648              	.LFB266:
 2649              		.loc 1 555 0
 2650              		.cfi_startproc
 2651              		@ args = 0, pretend = 0, frame = 0
 2652              		@ frame_needed = 0, uses_anonymous_args = 0
 2653              		@ link register save eliminated.
 2654              	.LVL198:
 2655              		.loc 1 557 0
 2656 0000 064A     		ldr	r2, .L210
 2657              		.loc 1 556 0
 2658 0002 0749     		ldr	r1, .L210+4
 2659              		.loc 1 559 0
 2660 0004 074B     		ldr	r3, .L210+8
 2661              		.loc 1 556 0
 2662 0006 0420     		movs	r0, #4
 2663 0008 0870     		strb	r0, [r1]
 2664              		.loc 1 557 0
 2665 000a 82ED000A 		vstr.32	s0, [r2]
 2666              		.loc 1 559 0
 2667 000e 1A78     		ldrb	r2, [r3]	@ zero_extendqisi2
 2668 0010 022A     		cmp	r2, #2
 2669              		.loc 1 560 0
 2670 0012 1CBF     		itt	ne
 2671 0014 0222     		movne	r2, #2
 2672 0016 1A70     		strbne	r2, [r3]
 2673              		.loc 1 562 0
 2674 0018 7047     		bx	lr
 2675              	.L211:
 2676 001a 00BF     		.align	2
 2677              	.L210:
 2678 001c 00000000 		.word	.LANCHOR35
 2679 0020 00000000 		.word	.LANCHOR14
ARM GAS  /tmp/cc50jUqN.s 			page 48


 2680 0024 00000000 		.word	.LANCHOR7
 2681              		.cfi_endproc
 2682              	.LFE266:
 2683              		.size	mcpwm_foc_set_pid_pos, .-mcpwm_foc_set_pid_pos
 2684              		.section	.text.mcpwm_foc_set_current,"ax",%progbits
 2685              		.align	1
 2686              		.p2align 4,,15
 2687              		.global	mcpwm_foc_set_current
 2688              		.syntax unified
 2689              		.thumb
 2690              		.thumb_func
 2691              		.fpu fpv4-sp-d16
 2692              		.type	mcpwm_foc_set_current, %function
 2693              	mcpwm_foc_set_current:
 2694              	.LFB267:
 2695              		.loc 1 572 0
 2696              		.cfi_startproc
 2697              		@ args = 0, pretend = 0, frame = 0
 2698              		@ frame_needed = 0, uses_anonymous_args = 0
 2699              		@ link register save eliminated.
 2700              	.LVL199:
 2701              		.loc 1 573 0
 2702 0000 0F4B     		ldr	r3, .L222
 2703 0002 1B68     		ldr	r3, [r3]
 2704 0004 D3ED5F7A 		vldr.32	s15, [r3, #380]
 2705 0008 B0EEC07A 		vabs.f32	s14, s0
 2706 000c B4EEE77A 		vcmpe.f32	s14, s15
 2707 0010 F1EE10FA 		vmrs	APSR_nzcv, FPSCR
 2708 0014 0BD4     		bmi	.L221
 2709              		.loc 1 581 0
 2710 0016 0B49     		ldr	r1, .L222+4
 2711              		.loc 1 580 0
 2712 0018 0B48     		ldr	r0, .L222+8
 2713              		.loc 1 583 0
 2714 001a 0C4B     		ldr	r3, .L222+12
 2715              		.loc 1 580 0
 2716 001c 0222     		movs	r2, #2
 2717 001e 0270     		strb	r2, [r0]
 2718              		.loc 1 581 0
 2719 0020 81ED000A 		vstr.32	s0, [r1]
 2720              		.loc 1 583 0
 2721 0024 1978     		ldrb	r1, [r3]	@ zero_extendqisi2
 2722 0026 9142     		cmp	r1, r2
 2723              		.loc 1 584 0
 2724 0028 18BF     		it	ne
 2725 002a 1A70     		strbne	r2, [r3]
 2726              		.loc 1 586 0
 2727 002c 7047     		bx	lr
 2728              	.L221:
 2729              	.LVL200:
 2730              	.LBB70:
 2731              	.LBB71:
 2732              		.loc 1 574 0
 2733 002e 0649     		ldr	r1, .L222+8
 2734              		.loc 1 575 0
 2735 0030 064B     		ldr	r3, .L222+12
 2736              		.loc 1 574 0
ARM GAS  /tmp/cc50jUqN.s 			page 49


 2737 0032 0A20     		movs	r0, #10
 2738              		.loc 1 575 0
 2739 0034 0022     		movs	r2, #0
 2740              		.loc 1 574 0
 2741 0036 0870     		strb	r0, [r1]
 2742              		.loc 1 575 0
 2743 0038 1A70     		strb	r2, [r3]
 2744              		.loc 1 576 0
 2745 003a FFF7FEBF 		b	stop_pwm_hw
 2746              	.LVL201:
 2747              	.L223:
 2748 003e 00BF     		.align	2
 2749              	.L222:
 2750 0040 00000000 		.word	.LANCHOR0
 2751 0044 00000000 		.word	.LANCHOR23
 2752 0048 00000000 		.word	.LANCHOR14
 2753 004c 00000000 		.word	.LANCHOR7
 2754              	.LBE71:
 2755              	.LBE70:
 2756              		.cfi_endproc
 2757              	.LFE267:
 2758              		.size	mcpwm_foc_set_current, .-mcpwm_foc_set_current
 2759              		.section	.text.mcpwm_foc_stop_pwm,"ax",%progbits
 2760              		.align	1
 2761              		.p2align 4,,15
 2762              		.global	mcpwm_foc_stop_pwm
 2763              		.syntax unified
 2764              		.thumb
 2765              		.thumb_func
 2766              		.fpu fpv4-sp-d16
 2767              		.type	mcpwm_foc_stop_pwm, %function
 2768              	mcpwm_foc_stop_pwm:
 2769              	.LFB262:
 2770              		.loc 1 497 0
 2771              		.cfi_startproc
 2772              		@ args = 0, pretend = 0, frame = 0
 2773              		@ frame_needed = 0, uses_anonymous_args = 0
 2774              		@ link register save eliminated.
 2775              		.loc 1 498 0
 2776 0000 9FED010A 		vldr.32	s0, .L225
 2777 0004 FFF7FEBF 		b	mcpwm_foc_set_current
 2778              	.LVL202:
 2779              	.L226:
 2780              		.align	2
 2781              	.L225:
 2782 0008 00000000 		.word	0
 2783              		.cfi_endproc
 2784              	.LFE262:
 2785              		.size	mcpwm_foc_stop_pwm, .-mcpwm_foc_stop_pwm
 2786              		.section	.text.mcpwm_foc_set_brake_current,"ax",%progbits
 2787              		.align	1
 2788              		.p2align 4,,15
 2789              		.global	mcpwm_foc_set_brake_current
 2790              		.syntax unified
 2791              		.thumb
 2792              		.thumb_func
 2793              		.fpu fpv4-sp-d16
ARM GAS  /tmp/cc50jUqN.s 			page 50


 2794              		.type	mcpwm_foc_set_brake_current, %function
 2795              	mcpwm_foc_set_brake_current:
 2796              	.LFB268:
 2797              		.loc 1 595 0
 2798              		.cfi_startproc
 2799              		@ args = 0, pretend = 0, frame = 0
 2800              		@ frame_needed = 0, uses_anonymous_args = 0
 2801              		@ link register save eliminated.
 2802              	.LVL203:
 2803              		.loc 1 596 0
 2804 0000 0F4B     		ldr	r3, .L237
 2805              		.loc 1 597 0
 2806 0002 1049     		ldr	r1, .L237+4
 2807              		.loc 1 596 0
 2808 0004 1B68     		ldr	r3, [r3]
 2809 0006 D3ED5F7A 		vldr.32	s15, [r3, #380]
 2810 000a B0EEC07A 		vabs.f32	s14, s0
 2811 000e B4EEE77A 		vcmpe.f32	s14, s15
 2812 0012 F1EE10FA 		vmrs	APSR_nzcv, FPSCR
 2813 0016 0BD4     		bmi	.L236
 2814              		.loc 1 604 0
 2815 0018 0B4A     		ldr	r2, .L237+8
 2816              		.loc 1 606 0
 2817 001a 0C4B     		ldr	r3, .L237+12
 2818              		.loc 1 603 0
 2819 001c 0320     		movs	r0, #3
 2820 001e 0870     		strb	r0, [r1]
 2821              		.loc 1 604 0
 2822 0020 82ED000A 		vstr.32	s0, [r2]
 2823              		.loc 1 606 0
 2824 0024 1A78     		ldrb	r2, [r3]	@ zero_extendqisi2
 2825 0026 022A     		cmp	r2, #2
 2826              		.loc 1 607 0
 2827 0028 1CBF     		itt	ne
 2828 002a 0222     		movne	r2, #2
 2829 002c 1A70     		strbne	r2, [r3]
 2830              		.loc 1 609 0
 2831 002e 7047     		bx	lr
 2832              	.L236:
 2833              		.loc 1 598 0
 2834 0030 064B     		ldr	r3, .L237+12
 2835              		.loc 1 597 0
 2836 0032 0A20     		movs	r0, #10
 2837              		.loc 1 598 0
 2838 0034 0022     		movs	r2, #0
 2839              		.loc 1 597 0
 2840 0036 0870     		strb	r0, [r1]
 2841              		.loc 1 598 0
 2842 0038 1A70     		strb	r2, [r3]
 2843              		.loc 1 599 0
 2844 003a FFF7FEBF 		b	stop_pwm_hw
 2845              	.LVL204:
 2846              	.L238:
 2847 003e 00BF     		.align	2
 2848              	.L237:
 2849 0040 00000000 		.word	.LANCHOR0
 2850 0044 00000000 		.word	.LANCHOR14
ARM GAS  /tmp/cc50jUqN.s 			page 51


 2851 0048 00000000 		.word	.LANCHOR23
 2852 004c 00000000 		.word	.LANCHOR7
 2853              		.cfi_endproc
 2854              	.LFE268:
 2855              		.size	mcpwm_foc_set_brake_current, .-mcpwm_foc_set_brake_current
 2856              		.section	.text.mcpwm_foc_set_handbrake,"ax",%progbits
 2857              		.align	1
 2858              		.p2align 4,,15
 2859              		.global	mcpwm_foc_set_handbrake
 2860              		.syntax unified
 2861              		.thumb
 2862              		.thumb_func
 2863              		.fpu fpv4-sp-d16
 2864              		.type	mcpwm_foc_set_handbrake, %function
 2865              	mcpwm_foc_set_handbrake:
 2866              	.LFB269:
 2867              		.loc 1 618 0
 2868              		.cfi_startproc
 2869              		@ args = 0, pretend = 0, frame = 0
 2870              		@ frame_needed = 0, uses_anonymous_args = 0
 2871              		@ link register save eliminated.
 2872              	.LVL205:
 2873              		.loc 1 619 0
 2874 0000 0F4B     		ldr	r3, .L249
 2875              		.loc 1 620 0
 2876 0002 1049     		ldr	r1, .L249+4
 2877              		.loc 1 619 0
 2878 0004 1B68     		ldr	r3, [r3]
 2879 0006 D3ED5F7A 		vldr.32	s15, [r3, #380]
 2880 000a B0EEC07A 		vabs.f32	s14, s0
 2881 000e B4EEE77A 		vcmpe.f32	s14, s15
 2882 0012 F1EE10FA 		vmrs	APSR_nzcv, FPSCR
 2883 0016 0BD4     		bmi	.L248
 2884              		.loc 1 627 0
 2885 0018 0B4A     		ldr	r2, .L249+8
 2886              		.loc 1 629 0
 2887 001a 0C4B     		ldr	r3, .L249+12
 2888              		.loc 1 626 0
 2889 001c 0520     		movs	r0, #5
 2890 001e 0870     		strb	r0, [r1]
 2891              		.loc 1 627 0
 2892 0020 82ED000A 		vstr.32	s0, [r2]
 2893              		.loc 1 629 0
 2894 0024 1A78     		ldrb	r2, [r3]	@ zero_extendqisi2
 2895 0026 022A     		cmp	r2, #2
 2896              		.loc 1 630 0
 2897 0028 1CBF     		itt	ne
 2898 002a 0222     		movne	r2, #2
 2899 002c 1A70     		strbne	r2, [r3]
 2900              		.loc 1 632 0
 2901 002e 7047     		bx	lr
 2902              	.L248:
 2903              		.loc 1 621 0
 2904 0030 064B     		ldr	r3, .L249+12
 2905              		.loc 1 620 0
 2906 0032 0A20     		movs	r0, #10
 2907              		.loc 1 621 0
ARM GAS  /tmp/cc50jUqN.s 			page 52


 2908 0034 0022     		movs	r2, #0
 2909              		.loc 1 620 0
 2910 0036 0870     		strb	r0, [r1]
 2911              		.loc 1 621 0
 2912 0038 1A70     		strb	r2, [r3]
 2913              		.loc 1 622 0
 2914 003a FFF7FEBF 		b	stop_pwm_hw
 2915              	.LVL206:
 2916              	.L250:
 2917 003e 00BF     		.align	2
 2918              	.L249:
 2919 0040 00000000 		.word	.LANCHOR0
 2920 0044 00000000 		.word	.LANCHOR14
 2921 0048 00000000 		.word	.LANCHOR23
 2922 004c 00000000 		.word	.LANCHOR7
 2923              		.cfi_endproc
 2924              	.LFE269:
 2925              		.size	mcpwm_foc_set_handbrake, .-mcpwm_foc_set_handbrake
 2926              		.section	.text.mcpwm_foc_set_openloop,"ax",%progbits
 2927              		.align	1
 2928              		.p2align 4,,15
 2929              		.global	mcpwm_foc_set_openloop
 2930              		.syntax unified
 2931              		.thumb
 2932              		.thumb_func
 2933              		.fpu fpv4-sp-d16
 2934              		.type	mcpwm_foc_set_openloop, %function
 2935              	mcpwm_foc_set_openloop:
 2936              	.LFB270:
 2937              		.loc 1 643 0
 2938              		.cfi_startproc
 2939              		@ args = 0, pretend = 0, frame = 8
 2940              		@ frame_needed = 0, uses_anonymous_args = 0
 2941              	.LVL207:
 2942 0000 30B5     		push	{r4, r5, lr}
 2943              		.cfi_def_cfa_offset 12
 2944              		.cfi_offset 4, -12
 2945              		.cfi_offset 5, -8
 2946              		.cfi_offset 14, -4
 2947              		.loc 1 644 0
 2948 0002 224B     		ldr	r3, .L262
 2949 0004 1B68     		ldr	r3, [r3]
 2950              		.loc 1 643 0
 2951 0006 2DED028B 		vpush.64	{d8}
 2952              		.cfi_def_cfa_offset 20
 2953              		.cfi_offset 80, -20
 2954              		.cfi_offset 81, -16
 2955              		.loc 1 644 0
 2956 000a D3ED5F7A 		vldr.32	s15, [r3, #380]
 2957 000e B0EEC07A 		vabs.f32	s14, s0
 2958 0012 B4EEE77A 		vcmpe.f32	s14, s15
 2959              		.loc 1 643 0
 2960 0016 83B0     		sub	sp, sp, #12
 2961              		.cfi_def_cfa_offset 32
 2962              		.loc 1 644 0
 2963 0018 F1EE10FA 		vmrs	APSR_nzcv, FPSCR
 2964              		.loc 1 643 0
ARM GAS  /tmp/cc50jUqN.s 			page 53


 2965 001c 8DED010A 		vstr.32	s0, [sp, #4]
 2966              		.loc 1 644 0
 2967 0020 27D4     		bmi	.L261
 2968              		.loc 1 651 0
 2969 0022 93ED010A 		vldr.32	s0, [r3, #4]
 2970              	.LVL208:
 2971 0026 93ED197A 		vldr.32	s14, [r3, #100]
 2972              		.loc 1 654 0
 2973 002a 194C     		ldr	r4, .L262+4
 2974 002c B0EE608A 		vmov.f32	s16, s1
 2975              		.loc 1 652 0
 2976 0030 D3ED010A 		vldr.32	s1, [r3, #4]
 2977              	.LVL209:
 2978 0034 D3ED197A 		vldr.32	s15, [r3, #100]
 2979              		.loc 1 651 0
 2980 0038 20EE470A 		vnmul.f32	s0, s0, s14
 2981 003c 60EEA70A 		vmul.f32	s1, s1, s15
 2982 0040 01A8     		add	r0, sp, #4
 2983              	.LVL210:
 2984 0042 FFF7FEFF 		bl	utils_truncate_number
 2985              	.LVL211:
 2986              		.loc 1 656 0
 2987 0046 DFED137A 		vldr.32	s15, .L262+8
 2988              		.loc 1 655 0
 2989 004a 1349     		ldr	r1, .L262+12
 2990              		.loc 1 656 0
 2991 004c 134A     		ldr	r2, .L262+16
 2992              		.loc 1 658 0
 2993 004e 144B     		ldr	r3, .L262+20
 2994              		.loc 1 655 0
 2995 0050 0198     		ldr	r0, [sp, #4]	@ float
 2996              		.loc 1 656 0
 2997 0052 28EE278A 		vmul.f32	s16, s16, s15
 2998              	.LVL212:
 2999              		.loc 1 654 0
 3000 0056 0625     		movs	r5, #6
 3001 0058 2570     		strb	r5, [r4]
 3002              		.loc 1 655 0
 3003 005a 0860     		str	r0, [r1]	@ float
 3004              		.loc 1 656 0
 3005 005c 82ED008A 		vstr.32	s16, [r2]
 3006              		.loc 1 658 0
 3007 0060 1A78     		ldrb	r2, [r3]	@ zero_extendqisi2
 3008 0062 022A     		cmp	r2, #2
 3009              		.loc 1 659 0
 3010 0064 1CBF     		itt	ne
 3011 0066 0222     		movne	r2, #2
 3012 0068 1A70     		strbne	r2, [r3]
 3013              		.loc 1 661 0
 3014 006a 03B0     		add	sp, sp, #12
 3015              		.cfi_remember_state
 3016              		.cfi_def_cfa_offset 20
 3017              		@ sp needed
 3018 006c BDEC028B 		vldm	sp!, {d8}
 3019              		.cfi_restore 80
 3020              		.cfi_restore 81
 3021              		.cfi_def_cfa_offset 12
ARM GAS  /tmp/cc50jUqN.s 			page 54


 3022 0070 30BD     		pop	{r4, r5, pc}
 3023              	.LVL213:
 3024              	.L261:
 3025              		.cfi_restore_state
 3026              		.loc 1 645 0
 3027 0072 0749     		ldr	r1, .L262+4
 3028              		.loc 1 646 0
 3029 0074 0A4B     		ldr	r3, .L262+20
 3030              		.loc 1 645 0
 3031 0076 0A20     		movs	r0, #10
 3032              		.loc 1 646 0
 3033 0078 0022     		movs	r2, #0
 3034              		.loc 1 645 0
 3035 007a 0870     		strb	r0, [r1]
 3036              		.loc 1 646 0
 3037 007c 1A70     		strb	r2, [r3]
 3038              		.loc 1 647 0
 3039 007e FFF7FEFF 		bl	stop_pwm_hw
 3040              	.LVL214:
 3041              		.loc 1 661 0
 3042 0082 03B0     		add	sp, sp, #12
 3043              		.cfi_def_cfa_offset 20
 3044              		@ sp needed
 3045 0084 BDEC028B 		vldm	sp!, {d8}
 3046              		.cfi_restore 80
 3047              		.cfi_restore 81
 3048              		.cfi_def_cfa_offset 12
 3049 0088 30BD     		pop	{r4, r5, pc}
 3050              	.L263:
 3051 008a 00BF     		.align	2
 3052              	.L262:
 3053 008c 00000000 		.word	.LANCHOR0
 3054 0090 00000000 		.word	.LANCHOR14
 3055 0094 5077D63D 		.word	1037465424
 3056 0098 00000000 		.word	.LANCHOR23
 3057 009c 00000000 		.word	.LANCHOR33
 3058 00a0 00000000 		.word	.LANCHOR7
 3059              		.cfi_endproc
 3060              	.LFE270:
 3061              		.size	mcpwm_foc_set_openloop, .-mcpwm_foc_set_openloop
 3062              		.section	.text.mcpwm_foc_set_openloop_phase,"ax",%progbits
 3063              		.align	1
 3064              		.p2align 4,,15
 3065              		.global	mcpwm_foc_set_openloop_phase
 3066              		.syntax unified
 3067              		.thumb
 3068              		.thumb_func
 3069              		.fpu fpv4-sp-d16
 3070              		.type	mcpwm_foc_set_openloop_phase, %function
 3071              	mcpwm_foc_set_openloop_phase:
 3072              	.LFB271:
 3073              		.loc 1 672 0
 3074              		.cfi_startproc
 3075              		@ args = 0, pretend = 0, frame = 8
 3076              		@ frame_needed = 0, uses_anonymous_args = 0
 3077              	.LVL215:
 3078 0000 30B5     		push	{r4, r5, lr}
ARM GAS  /tmp/cc50jUqN.s 			page 55


 3079              		.cfi_def_cfa_offset 12
 3080              		.cfi_offset 4, -12
 3081              		.cfi_offset 5, -8
 3082              		.cfi_offset 14, -4
 3083              		.loc 1 673 0
 3084 0002 254B     		ldr	r3, .L275
 3085 0004 1B68     		ldr	r3, [r3]
 3086              		.loc 1 672 0
 3087 0006 2DED028B 		vpush.64	{d8}
 3088              		.cfi_def_cfa_offset 20
 3089              		.cfi_offset 80, -20
 3090              		.cfi_offset 81, -16
 3091              		.loc 1 673 0
 3092 000a D3ED5F7A 		vldr.32	s15, [r3, #380]
 3093 000e B0EEC07A 		vabs.f32	s14, s0
 3094 0012 B4EEE77A 		vcmpe.f32	s14, s15
 3095              		.loc 1 672 0
 3096 0016 83B0     		sub	sp, sp, #12
 3097              		.cfi_def_cfa_offset 32
 3098              		.loc 1 673 0
 3099 0018 F1EE10FA 		vmrs	APSR_nzcv, FPSCR
 3100              		.loc 1 672 0
 3101 001c 8DED010A 		vstr.32	s0, [sp, #4]
 3102              		.loc 1 673 0
 3103 0020 2ED4     		bmi	.L274
 3104              		.loc 1 680 0
 3105 0022 93ED010A 		vldr.32	s0, [r3, #4]
 3106              	.LVL216:
 3107 0026 93ED197A 		vldr.32	s14, [r3, #100]
 3108              		.loc 1 683 0
 3109 002a 1C4C     		ldr	r4, .L275+4
 3110 002c B0EE608A 		vmov.f32	s16, s1
 3111              		.loc 1 681 0
 3112 0030 D3ED010A 		vldr.32	s1, [r3, #4]
 3113              	.LVL217:
 3114 0034 D3ED197A 		vldr.32	s15, [r3, #100]
 3115              		.loc 1 680 0
 3116 0038 20EE470A 		vnmul.f32	s0, s0, s14
 3117 003c 60EEA70A 		vmul.f32	s1, s1, s15
 3118 0040 01A8     		add	r0, sp, #4
 3119              	.LVL218:
 3120 0042 FFF7FEFF 		bl	utils_truncate_number
 3121              	.LVL219:
 3122              		.loc 1 686 0
 3123 0046 DFED167A 		vldr.32	s15, .L275+8
 3124 004a 9FED167A 		vldr.32	s14, .L275+12
 3125 004e 164B     		ldr	r3, .L275+16
 3126              		.loc 1 684 0
 3127 0050 164A     		ldr	r2, .L275+20
 3128 0052 0199     		ldr	r1, [sp, #4]	@ float
 3129              		.loc 1 686 0
 3130 0054 28EE278A 		vmul.f32	s16, s16, s15
 3131              	.LVL220:
 3132              		.loc 1 687 0
 3133 0058 1846     		mov	r0, r3
 3134              		.loc 1 686 0
 3135 005a C8EE077A 		vdiv.f32	s15, s16, s14
ARM GAS  /tmp/cc50jUqN.s 			page 56


 3136              		.loc 1 683 0
 3137 005e 0725     		movs	r5, #7
 3138 0060 2570     		strb	r5, [r4]
 3139              		.loc 1 684 0
 3140 0062 1160     		str	r1, [r2]	@ float
 3141              		.loc 1 686 0
 3142 0064 C3ED007A 		vstr.32	s15, [r3]
 3143              		.loc 1 687 0
 3144 0068 FFF7FEFF 		bl	utils_norm_angle_rad
 3145              	.LVL221:
 3146              		.loc 1 689 0
 3147 006c 104B     		ldr	r3, .L275+24
 3148 006e 1A78     		ldrb	r2, [r3]	@ zero_extendqisi2
 3149 0070 022A     		cmp	r2, #2
 3150              		.loc 1 690 0
 3151 0072 1CBF     		itt	ne
 3152 0074 0222     		movne	r2, #2
 3153 0076 1A70     		strbne	r2, [r3]
 3154              		.loc 1 692 0
 3155 0078 03B0     		add	sp, sp, #12
 3156              		.cfi_remember_state
 3157              		.cfi_def_cfa_offset 20
 3158              		@ sp needed
 3159 007a BDEC028B 		vldm	sp!, {d8}
 3160              		.cfi_restore 80
 3161              		.cfi_restore 81
 3162              		.cfi_def_cfa_offset 12
 3163 007e 30BD     		pop	{r4, r5, pc}
 3164              	.LVL222:
 3165              	.L274:
 3166              		.cfi_restore_state
 3167              		.loc 1 674 0
 3168 0080 0649     		ldr	r1, .L275+4
 3169              		.loc 1 675 0
 3170 0082 0B4B     		ldr	r3, .L275+24
 3171              		.loc 1 674 0
 3172 0084 0A20     		movs	r0, #10
 3173              		.loc 1 675 0
 3174 0086 0022     		movs	r2, #0
 3175              		.loc 1 674 0
 3176 0088 0870     		strb	r0, [r1]
 3177              		.loc 1 675 0
 3178 008a 1A70     		strb	r2, [r3]
 3179              		.loc 1 676 0
 3180 008c FFF7FEFF 		bl	stop_pwm_hw
 3181              	.LVL223:
 3182              		.loc 1 692 0
 3183 0090 03B0     		add	sp, sp, #12
 3184              		.cfi_def_cfa_offset 20
 3185              		@ sp needed
 3186 0092 BDEC028B 		vldm	sp!, {d8}
 3187              		.cfi_restore 80
 3188              		.cfi_restore 81
 3189              		.cfi_def_cfa_offset 12
 3190 0096 30BD     		pop	{r4, r5, pc}
 3191              	.L276:
 3192              		.align	2
ARM GAS  /tmp/cc50jUqN.s 			page 57


 3193              	.L275:
 3194 0098 00000000 		.word	.LANCHOR0
 3195 009c 00000000 		.word	.LANCHOR14
 3196 00a0 DB0F4940 		.word	1078530011
 3197 00a4 00003443 		.word	1127481344
 3198 00a8 00000000 		.word	.LANCHOR34
 3199 00ac 00000000 		.word	.LANCHOR23
 3200 00b0 00000000 		.word	.LANCHOR7
 3201              		.cfi_endproc
 3202              	.LFE271:
 3203              		.size	mcpwm_foc_set_openloop_phase, .-mcpwm_foc_set_openloop_phase
 3204              		.section	.text.mcpwm_foc_set_current_offsets,"ax",%progbits
 3205              		.align	1
 3206              		.p2align 4,,15
 3207              		.global	mcpwm_foc_set_current_offsets
 3208              		.syntax unified
 3209              		.thumb
 3210              		.thumb_func
 3211              		.fpu fpv4-sp-d16
 3212              		.type	mcpwm_foc_set_current_offsets, %function
 3213              	mcpwm_foc_set_current_offsets:
 3214              	.LFB272:
 3215              		.loc 1 701 0
 3216              		.cfi_startproc
 3217              		@ args = 0, pretend = 0, frame = 16
 3218              		@ frame_needed = 0, uses_anonymous_args = 0
 3219              		@ link register save eliminated.
 3220              	.LVL224:
 3221 0000 84B0     		sub	sp, sp, #16
 3222              		.cfi_def_cfa_offset 16
 3223              		.loc 1 702 0
 3224 0002 074B     		ldr	r3, .L279
 3225              		.loc 1 701 0
 3226 0004 0390     		str	r0, [sp, #12]
 3227 0006 0291     		str	r1, [sp, #8]
 3228 0008 0192     		str	r2, [sp, #4]
 3229              		.loc 1 702 0
 3230 000a 039A     		ldr	r2, [sp, #12]
 3231              	.LVL225:
 3232 000c 1A60     		str	r2, [r3]
 3233              	.LVL226:
 3234              		.loc 1 703 0
 3235 000e 054B     		ldr	r3, .L279+4
 3236 0010 029A     		ldr	r2, [sp, #8]
 3237 0012 1A60     		str	r2, [r3]
 3238              		.loc 1 705 0
 3239 0014 019A     		ldr	r2, [sp, #4]
 3240 0016 044B     		ldr	r3, .L279+8
 3241 0018 1A60     		str	r2, [r3]
 3242              		.loc 1 709 0
 3243 001a 04B0     		add	sp, sp, #16
 3244              		.cfi_def_cfa_offset 0
 3245              		@ sp needed
 3246 001c 7047     		bx	lr
 3247              	.L280:
 3248 001e 00BF     		.align	2
 3249              	.L279:
ARM GAS  /tmp/cc50jUqN.s 			page 58


 3250 0020 00000000 		.word	.LANCHOR45
 3251 0024 00000000 		.word	.LANCHOR46
 3252 0028 00000000 		.word	.LANCHOR47
 3253              		.cfi_endproc
 3254              	.LFE272:
 3255              		.size	mcpwm_foc_set_current_offsets, .-mcpwm_foc_set_current_offsets
 3256              		.section	.text.mcpwm_foc_set_openloop_duty,"ax",%progbits
 3257              		.align	1
 3258              		.p2align 4,,15
 3259              		.global	mcpwm_foc_set_openloop_duty
 3260              		.syntax unified
 3261              		.thumb
 3262              		.thumb_func
 3263              		.fpu fpv4-sp-d16
 3264              		.type	mcpwm_foc_set_openloop_duty, %function
 3265              	mcpwm_foc_set_openloop_duty:
 3266              	.LFB273:
 3267              		.loc 1 720 0
 3268              		.cfi_startproc
 3269              		@ args = 0, pretend = 0, frame = 0
 3270              		@ frame_needed = 0, uses_anonymous_args = 0
 3271              		@ link register save eliminated.
 3272              	.LVL227:
 3273              		.loc 1 723 0
 3274 0000 DFED0B7A 		vldr.32	s15, .L287
 3275 0004 0B4A     		ldr	r2, .L287+4
 3276              		.loc 1 721 0
 3277 0006 0C48     		ldr	r0, .L287+8
 3278              		.loc 1 722 0
 3279 0008 0C49     		ldr	r1, .L287+12
 3280              		.loc 1 725 0
 3281 000a 0D4B     		ldr	r3, .L287+16
 3282              		.loc 1 723 0
 3283 000c 60EEA70A 		vmul.f32	s1, s1, s15
 3284              	.LVL228:
 3285              		.loc 1 720 0
 3286 0010 10B4     		push	{r4}
 3287              		.cfi_def_cfa_offset 4
 3288              		.cfi_offset 4, -4
 3289              		.loc 1 721 0
 3290 0012 0824     		movs	r4, #8
 3291 0014 0470     		strb	r4, [r0]
 3292              		.loc 1 722 0
 3293 0016 81ED000A 		vstr.32	s0, [r1]
 3294              		.loc 1 723 0
 3295 001a C2ED000A 		vstr.32	s1, [r2]
 3296              		.loc 1 725 0
 3297 001e 1A78     		ldrb	r2, [r3]	@ zero_extendqisi2
 3298              		.loc 1 728 0
 3299 0020 5DF8044B 		ldr	r4, [sp], #4
 3300              		.cfi_restore 4
 3301              		.cfi_def_cfa_offset 0
 3302              		.loc 1 725 0
 3303 0024 022A     		cmp	r2, #2
 3304              		.loc 1 726 0
 3305 0026 1CBF     		itt	ne
 3306 0028 0222     		movne	r2, #2
ARM GAS  /tmp/cc50jUqN.s 			page 59


 3307 002a 1A70     		strbne	r2, [r3]
 3308              		.loc 1 728 0
 3309 002c 7047     		bx	lr
 3310              	.L288:
 3311 002e 00BF     		.align	2
 3312              	.L287:
 3313 0030 5077D63D 		.word	1037465424
 3314 0034 00000000 		.word	.LANCHOR33
 3315 0038 00000000 		.word	.LANCHOR14
 3316 003c 00000000 		.word	.LANCHOR31
 3317 0040 00000000 		.word	.LANCHOR7
 3318              		.cfi_endproc
 3319              	.LFE273:
 3320              		.size	mcpwm_foc_set_openloop_duty, .-mcpwm_foc_set_openloop_duty
 3321              		.section	.text.mcpwm_foc_set_openloop_duty_phase,"ax",%progbits
 3322              		.align	1
 3323              		.p2align 4,,15
 3324              		.global	mcpwm_foc_set_openloop_duty_phase
 3325              		.syntax unified
 3326              		.thumb
 3327              		.thumb_func
 3328              		.fpu fpv4-sp-d16
 3329              		.type	mcpwm_foc_set_openloop_duty_phase, %function
 3330              	mcpwm_foc_set_openloop_duty_phase:
 3331              	.LFB274:
 3332              		.loc 1 739 0
 3333              		.cfi_startproc
 3334              		@ args = 0, pretend = 0, frame = 0
 3335              		@ frame_needed = 0, uses_anonymous_args = 0
 3336              	.LVL229:
 3337              		.loc 1 742 0
 3338 0000 DFED0D7A 		vldr.32	s15, .L295
 3339 0004 9FED0D7A 		vldr.32	s14, .L295+4
 3340 0008 0D4B     		ldr	r3, .L295+8
 3341              		.loc 1 741 0
 3342 000a 0E4A     		ldr	r2, .L295+12
 3343              		.loc 1 740 0
 3344 000c 0E49     		ldr	r1, .L295+16
 3345              		.loc 1 742 0
 3346 000e 60EEA70A 		vmul.f32	s1, s1, s15
 3347              	.LVL230:
 3348              		.loc 1 739 0
 3349 0012 10B5     		push	{r4, lr}
 3350              		.cfi_def_cfa_offset 8
 3351              		.cfi_offset 4, -8
 3352              		.cfi_offset 14, -4
 3353              		.loc 1 742 0
 3354 0014 C0EE877A 		vdiv.f32	s15, s1, s14
 3355              		.loc 1 743 0
 3356 0018 1846     		mov	r0, r3
 3357              		.loc 1 740 0
 3358 001a 0924     		movs	r4, #9
 3359 001c 0C70     		strb	r4, [r1]
 3360              		.loc 1 741 0
 3361 001e 82ED000A 		vstr.32	s0, [r2]
 3362              		.loc 1 742 0
 3363 0022 C3ED007A 		vstr.32	s15, [r3]
ARM GAS  /tmp/cc50jUqN.s 			page 60


 3364              		.loc 1 743 0
 3365 0026 FFF7FEFF 		bl	utils_norm_angle_rad
 3366              	.LVL231:
 3367              		.loc 1 745 0
 3368 002a 084B     		ldr	r3, .L295+20
 3369 002c 1A78     		ldrb	r2, [r3]	@ zero_extendqisi2
 3370 002e 022A     		cmp	r2, #2
 3371              		.loc 1 746 0
 3372 0030 1CBF     		itt	ne
 3373 0032 0222     		movne	r2, #2
 3374 0034 1A70     		strbne	r2, [r3]
 3375              		.loc 1 748 0
 3376 0036 10BD     		pop	{r4, pc}
 3377              	.L296:
 3378              		.align	2
 3379              	.L295:
 3380 0038 DB0F4940 		.word	1078530011
 3381 003c 00003443 		.word	1127481344
 3382 0040 00000000 		.word	.LANCHOR34
 3383 0044 00000000 		.word	.LANCHOR31
 3384 0048 00000000 		.word	.LANCHOR14
 3385 004c 00000000 		.word	.LANCHOR7
 3386              		.cfi_endproc
 3387              	.LFE274:
 3388              		.size	mcpwm_foc_set_openloop_duty_phase, .-mcpwm_foc_set_openloop_duty_phase
 3389              		.section	.text.mcpwm_foc_get_duty_cycle_set,"ax",%progbits
 3390              		.align	1
 3391              		.p2align 4,,15
 3392              		.global	mcpwm_foc_get_duty_cycle_set
 3393              		.syntax unified
 3394              		.thumb
 3395              		.thumb_func
 3396              		.fpu fpv4-sp-d16
 3397              		.type	mcpwm_foc_get_duty_cycle_set, %function
 3398              	mcpwm_foc_get_duty_cycle_set:
 3399              	.LFB275:
 3400              		.loc 1 750 0
 3401              		.cfi_startproc
 3402              		@ args = 0, pretend = 0, frame = 0
 3403              		@ frame_needed = 0, uses_anonymous_args = 0
 3404              		@ link register save eliminated.
 3405              		.loc 1 751 0
 3406 0000 014B     		ldr	r3, .L298
 3407 0002 93ED000A 		vldr.32	s0, [r3]
 3408              		.loc 1 752 0
 3409 0006 7047     		bx	lr
 3410              	.L299:
 3411              		.align	2
 3412              	.L298:
 3413 0008 00000000 		.word	.LANCHOR31
 3414              		.cfi_endproc
 3415              	.LFE275:
 3416              		.size	mcpwm_foc_get_duty_cycle_set, .-mcpwm_foc_get_duty_cycle_set
 3417              		.section	.text.mcpwm_foc_get_duty_cycle_now,"ax",%progbits
 3418              		.align	1
 3419              		.p2align 4,,15
 3420              		.global	mcpwm_foc_get_duty_cycle_now
ARM GAS  /tmp/cc50jUqN.s 			page 61


 3421              		.syntax unified
 3422              		.thumb
 3423              		.thumb_func
 3424              		.fpu fpv4-sp-d16
 3425              		.type	mcpwm_foc_get_duty_cycle_now, %function
 3426              	mcpwm_foc_get_duty_cycle_now:
 3427              	.LFB276:
 3428              		.loc 1 754 0
 3429              		.cfi_startproc
 3430              		@ args = 0, pretend = 0, frame = 0
 3431              		@ frame_needed = 0, uses_anonymous_args = 0
 3432              		@ link register save eliminated.
 3433              		.loc 1 755 0
 3434 0000 014B     		ldr	r3, .L301
 3435 0002 93ED030A 		vldr.32	s0, [r3, #12]
 3436              		.loc 1 756 0
 3437 0006 7047     		bx	lr
 3438              	.L302:
 3439              		.align	2
 3440              	.L301:
 3441 0008 00000000 		.word	.LANCHOR10
 3442              		.cfi_endproc
 3443              	.LFE276:
 3444              		.size	mcpwm_foc_get_duty_cycle_now, .-mcpwm_foc_get_duty_cycle_now
 3445              		.section	.text.mcpwm_foc_get_pid_pos_set,"ax",%progbits
 3446              		.align	1
 3447              		.p2align 4,,15
 3448              		.global	mcpwm_foc_get_pid_pos_set
 3449              		.syntax unified
 3450              		.thumb
 3451              		.thumb_func
 3452              		.fpu fpv4-sp-d16
 3453              		.type	mcpwm_foc_get_pid_pos_set, %function
 3454              	mcpwm_foc_get_pid_pos_set:
 3455              	.LFB277:
 3456              		.loc 1 758 0
 3457              		.cfi_startproc
 3458              		@ args = 0, pretend = 0, frame = 0
 3459              		@ frame_needed = 0, uses_anonymous_args = 0
 3460              		@ link register save eliminated.
 3461              		.loc 1 759 0
 3462 0000 014B     		ldr	r3, .L304
 3463 0002 93ED000A 		vldr.32	s0, [r3]
 3464              		.loc 1 760 0
 3465 0006 7047     		bx	lr
 3466              	.L305:
 3467              		.align	2
 3468              	.L304:
 3469 0008 00000000 		.word	.LANCHOR35
 3470              		.cfi_endproc
 3471              	.LFE277:
 3472              		.size	mcpwm_foc_get_pid_pos_set, .-mcpwm_foc_get_pid_pos_set
 3473              		.section	.text.mcpwm_foc_get_pid_pos_now,"ax",%progbits
 3474              		.align	1
 3475              		.p2align 4,,15
 3476              		.global	mcpwm_foc_get_pid_pos_now
 3477              		.syntax unified
ARM GAS  /tmp/cc50jUqN.s 			page 62


 3478              		.thumb
 3479              		.thumb_func
 3480              		.fpu fpv4-sp-d16
 3481              		.type	mcpwm_foc_get_pid_pos_now, %function
 3482              	mcpwm_foc_get_pid_pos_now:
 3483              	.LFB278:
 3484              		.loc 1 762 0
 3485              		.cfi_startproc
 3486              		@ args = 0, pretend = 0, frame = 0
 3487              		@ frame_needed = 0, uses_anonymous_args = 0
 3488              		@ link register save eliminated.
 3489              		.loc 1 763 0
 3490 0000 014B     		ldr	r3, .L307
 3491 0002 93ED000A 		vldr.32	s0, [r3]
 3492              		.loc 1 764 0
 3493 0006 7047     		bx	lr
 3494              	.L308:
 3495              		.align	2
 3496              	.L307:
 3497 0008 00000000 		.word	.LANCHOR43
 3498              		.cfi_endproc
 3499              	.LFE278:
 3500              		.size	mcpwm_foc_get_pid_pos_now, .-mcpwm_foc_get_pid_pos_now
 3501              		.section	.text.mcpwm_foc_get_switching_frequency_now,"ax",%progbits
 3502              		.align	1
 3503              		.p2align 4,,15
 3504              		.global	mcpwm_foc_get_switching_frequency_now
 3505              		.syntax unified
 3506              		.thumb
 3507              		.thumb_func
 3508              		.fpu fpv4-sp-d16
 3509              		.type	mcpwm_foc_get_switching_frequency_now, %function
 3510              	mcpwm_foc_get_switching_frequency_now:
 3511              	.LFB279:
 3512              		.loc 1 772 0
 3513              		.cfi_startproc
 3514              		@ args = 0, pretend = 0, frame = 0
 3515              		@ frame_needed = 0, uses_anonymous_args = 0
 3516              		@ link register save eliminated.
 3517              		.loc 1 773 0
 3518 0000 024B     		ldr	r3, .L310
 3519 0002 1B68     		ldr	r3, [r3]
 3520 0004 93ED2D0A 		vldr.32	s0, [r3, #180]
 3521              		.loc 1 774 0
 3522 0008 7047     		bx	lr
 3523              	.L311:
 3524 000a 00BF     		.align	2
 3525              	.L310:
 3526 000c 00000000 		.word	.LANCHOR0
 3527              		.cfi_endproc
 3528              	.LFE279:
 3529              		.size	mcpwm_foc_get_switching_frequency_now, .-mcpwm_foc_get_switching_frequency_now
 3530              		.section	.text.mcpwm_foc_get_sampling_frequency_now,"ax",%progbits
 3531              		.align	1
 3532              		.p2align 4,,15
 3533              		.global	mcpwm_foc_get_sampling_frequency_now
 3534              		.syntax unified
ARM GAS  /tmp/cc50jUqN.s 			page 63


 3535              		.thumb
 3536              		.thumb_func
 3537              		.fpu fpv4-sp-d16
 3538              		.type	mcpwm_foc_get_sampling_frequency_now, %function
 3539              	mcpwm_foc_get_sampling_frequency_now:
 3540              	.LFB280:
 3541              		.loc 1 782 0
 3542              		.cfi_startproc
 3543              		@ args = 0, pretend = 0, frame = 0
 3544              		@ frame_needed = 0, uses_anonymous_args = 0
 3545              		@ link register save eliminated.
 3546              		.loc 1 784 0
 3547 0000 064B     		ldr	r3, .L316
 3548 0002 1B68     		ldr	r3, [r3]
 3549 0004 93F82421 		ldrb	r2, [r3, #292]	@ zero_extendqisi2
 3550              		.loc 1 785 0
 3551 0008 93ED2D0A 		vldr.32	s0, [r3, #180]
 3552              		.loc 1 784 0
 3553 000c 22B9     		cbnz	r2, .L315
 3554              		.loc 1 787 0
 3555 000e F6EE007A 		vmov.f32	s15, #5.0e-1
 3556 0012 20EE270A 		vmul.f32	s0, s0, s15
 3557              		.loc 1 792 0
 3558 0016 7047     		bx	lr
 3559              	.L315:
 3560              		.loc 1 785 0
 3561 0018 7047     		bx	lr
 3562              	.L317:
 3563 001a 00BF     		.align	2
 3564              	.L316:
 3565 001c 00000000 		.word	.LANCHOR0
 3566              		.cfi_endproc
 3567              	.LFE280:
 3568              		.size	mcpwm_foc_get_sampling_frequency_now, .-mcpwm_foc_get_sampling_frequency_now
 3569              		.section	.text.mcpwm_foc_get_ts,"ax",%progbits
 3570              		.align	1
 3571              		.p2align 4,,15
 3572              		.global	mcpwm_foc_get_ts
 3573              		.syntax unified
 3574              		.thumb
 3575              		.thumb_func
 3576              		.fpu fpv4-sp-d16
 3577              		.type	mcpwm_foc_get_ts, %function
 3578              	mcpwm_foc_get_ts:
 3579              	.LFB281:
 3580              		.loc 1 797 0
 3581              		.cfi_startproc
 3582              		@ args = 0, pretend = 0, frame = 0
 3583              		@ frame_needed = 0, uses_anonymous_args = 0
 3584              		@ link register save eliminated.
 3585              		.loc 1 800 0
 3586 0000 074B     		ldr	r3, .L322
 3587 0002 1B68     		ldr	r3, [r3]
 3588 0004 93F82421 		ldrb	r2, [r3, #292]	@ zero_extendqisi2
 3589              		.loc 1 801 0
 3590 0008 D3ED2D7A 		vldr.32	s15, [r3, #180]
 3591              		.loc 1 800 0
ARM GAS  /tmp/cc50jUqN.s 			page 64


 3592 000c 1AB9     		cbnz	r2, .L321
 3593              		.loc 1 803 0
 3594 000e B6EE007A 		vmov.f32	s14, #5.0e-1
 3595 0012 67EE877A 		vmul.f32	s15, s15, s14
 3596              	.L321:
 3597 0016 B7EE007A 		vmov.f32	s14, #1.0e+0
 3598 001a 87EE270A 		vdiv.f32	s0, s14, s15
 3599              		.loc 1 809 0
 3600 001e 7047     		bx	lr
 3601              	.L323:
 3602              		.align	2
 3603              	.L322:
 3604 0020 00000000 		.word	.LANCHOR0
 3605              		.cfi_endproc
 3606              	.LFE281:
 3607              		.size	mcpwm_foc_get_ts, .-mcpwm_foc_get_ts
 3608              		.section	.text.mcpwm_foc_get_rpm,"ax",%progbits
 3609              		.align	1
 3610              		.p2align 4,,15
 3611              		.global	mcpwm_foc_get_rpm
 3612              		.syntax unified
 3613              		.thumb
 3614              		.thumb_func
 3615              		.fpu fpv4-sp-d16
 3616              		.type	mcpwm_foc_get_rpm, %function
 3617              	mcpwm_foc_get_rpm:
 3618              	.LFB282:
 3619              		.loc 1 818 0
 3620              		.cfi_startproc
 3621              		@ args = 0, pretend = 0, frame = 0
 3622              		@ frame_needed = 0, uses_anonymous_args = 0
 3623              		@ link register save eliminated.
 3624              		.loc 1 819 0
 3625 0000 034B     		ldr	r3, .L325
 3626 0002 DFED047A 		vldr.32	s15, .L325+4
 3627 0006 93ED000A 		vldr.32	s0, [r3]
 3628              		.loc 1 820 0
 3629 000a 80EE270A 		vdiv.f32	s0, s0, s15
 3630 000e 7047     		bx	lr
 3631              	.L326:
 3632              		.align	2
 3633              	.L325:
 3634 0010 00000000 		.word	.LANCHOR12
 3635 0014 5077D63D 		.word	1037465424
 3636              		.cfi_endproc
 3637              	.LFE282:
 3638              		.size	mcpwm_foc_get_rpm, .-mcpwm_foc_get_rpm
 3639              		.section	.text.mcpwm_foc_get_tot_current,"ax",%progbits
 3640              		.align	1
 3641              		.p2align 4,,15
 3642              		.global	mcpwm_foc_get_tot_current
 3643              		.syntax unified
 3644              		.thumb
 3645              		.thumb_func
 3646              		.fpu fpv4-sp-d16
 3647              		.type	mcpwm_foc_get_tot_current, %function
 3648              	mcpwm_foc_get_tot_current:
ARM GAS  /tmp/cc50jUqN.s 			page 65


 3649              	.LFB283:
 3650              		.loc 1 830 0
 3651              		.cfi_startproc
 3652              		@ args = 0, pretend = 0, frame = 0
 3653              		@ frame_needed = 0, uses_anonymous_args = 0
 3654              		@ link register save eliminated.
 3655              		.loc 1 831 0
 3656 0000 094B     		ldr	r3, .L330
 3657 0002 D3ED147A 		vldr.32	s15, [r3, #80]
 3658 0006 93ED100A 		vldr.32	s0, [r3, #64]
 3659 000a F5EEC07A 		vcmpe.f32	s15, #0
 3660 000e F1EE10FA 		vmrs	APSR_nzcv, FPSCR
 3661 0012 B7EE007A 		vmov.f32	s14, #1.0e+0
 3662 0016 FFEE007A 		vmov.f32	s15, #-1.0e+0
 3663 001a 58BF     		it	pl
 3664 001c F0EE477A 		vmovpl.f32	s15, s14
 3665              		.loc 1 832 0
 3666 0020 20EE270A 		vmul.f32	s0, s0, s15
 3667 0024 7047     		bx	lr
 3668              	.L331:
 3669 0026 00BF     		.align	2
 3670              	.L330:
 3671 0028 00000000 		.word	.LANCHOR10
 3672              		.cfi_endproc
 3673              	.LFE283:
 3674              		.size	mcpwm_foc_get_tot_current, .-mcpwm_foc_get_tot_current
 3675              		.section	.text.mcpwm_foc_get_tot_current_filtered,"ax",%progbits
 3676              		.align	1
 3677              		.p2align 4,,15
 3678              		.global	mcpwm_foc_get_tot_current_filtered
 3679              		.syntax unified
 3680              		.thumb
 3681              		.thumb_func
 3682              		.fpu fpv4-sp-d16
 3683              		.type	mcpwm_foc_get_tot_current_filtered, %function
 3684              	mcpwm_foc_get_tot_current_filtered:
 3685              	.LFB284:
 3686              		.loc 1 842 0
 3687              		.cfi_startproc
 3688              		@ args = 0, pretend = 0, frame = 0
 3689              		@ frame_needed = 0, uses_anonymous_args = 0
 3690              		@ link register save eliminated.
 3691              		.loc 1 843 0
 3692 0000 094B     		ldr	r3, .L335
 3693 0002 D3ED147A 		vldr.32	s15, [r3, #80]
 3694 0006 93ED120A 		vldr.32	s0, [r3, #72]
 3695 000a F5EEC07A 		vcmpe.f32	s15, #0
 3696 000e F1EE10FA 		vmrs	APSR_nzcv, FPSCR
 3697 0012 B7EE007A 		vmov.f32	s14, #1.0e+0
 3698 0016 FFEE007A 		vmov.f32	s15, #-1.0e+0
 3699 001a 58BF     		it	pl
 3700 001c F0EE477A 		vmovpl.f32	s15, s14
 3701              		.loc 1 844 0
 3702 0020 20EE270A 		vmul.f32	s0, s0, s15
 3703 0024 7047     		bx	lr
 3704              	.L336:
 3705 0026 00BF     		.align	2
ARM GAS  /tmp/cc50jUqN.s 			page 66


 3706              	.L335:
 3707 0028 00000000 		.word	.LANCHOR10
 3708              		.cfi_endproc
 3709              	.LFE284:
 3710              		.size	mcpwm_foc_get_tot_current_filtered, .-mcpwm_foc_get_tot_current_filtered
 3711              		.section	.text.mcpwm_foc_get_abs_motor_current,"ax",%progbits
 3712              		.align	1
 3713              		.p2align 4,,15
 3714              		.global	mcpwm_foc_get_abs_motor_current
 3715              		.syntax unified
 3716              		.thumb
 3717              		.thumb_func
 3718              		.fpu fpv4-sp-d16
 3719              		.type	mcpwm_foc_get_abs_motor_current, %function
 3720              	mcpwm_foc_get_abs_motor_current:
 3721              	.LFB285:
 3722              		.loc 1 853 0
 3723              		.cfi_startproc
 3724              		@ args = 0, pretend = 0, frame = 0
 3725              		@ frame_needed = 0, uses_anonymous_args = 0
 3726              		@ link register save eliminated.
 3727              		.loc 1 854 0
 3728 0000 014B     		ldr	r3, .L338
 3729 0002 93ED070A 		vldr.32	s0, [r3, #28]
 3730              		.loc 1 855 0
 3731 0006 7047     		bx	lr
 3732              	.L339:
 3733              		.align	2
 3734              	.L338:
 3735 0008 00000000 		.word	.LANCHOR10
 3736              		.cfi_endproc
 3737              	.LFE285:
 3738              		.size	mcpwm_foc_get_abs_motor_current, .-mcpwm_foc_get_abs_motor_current
 3739              		.section	.text.mcpwm_foc_get_abs_motor_voltage,"ax",%progbits
 3740              		.align	1
 3741              		.p2align 4,,15
 3742              		.global	mcpwm_foc_get_abs_motor_voltage
 3743              		.syntax unified
 3744              		.thumb
 3745              		.thumb_func
 3746              		.fpu fpv4-sp-d16
 3747              		.type	mcpwm_foc_get_abs_motor_voltage, %function
 3748              	mcpwm_foc_get_abs_motor_voltage:
 3749              	.LFB286:
 3750              		.loc 1 863 0
 3751              		.cfi_startproc
 3752              		@ args = 0, pretend = 0, frame = 0
 3753              		@ frame_needed = 0, uses_anonymous_args = 0
 3754 0000 08B5     		push	{r3, lr}
 3755              		.cfi_def_cfa_offset 8
 3756              		.cfi_offset 3, -8
 3757              		.cfi_offset 14, -4
 3758              		.loc 1 864 0
 3759 0002 0D4B     		ldr	r3, .L344
 3760 0004 D3ED137A 		vldr.32	s15, [r3, #76]
 3761              	.LVL232:
 3762              		.loc 1 865 0
ARM GAS  /tmp/cc50jUqN.s 			page 67


 3763 0008 93ED140A 		vldr.32	s0, [r3, #80]
 3764              	.LVL233:
 3765              		.loc 1 866 0
 3766 000c 20EE000A 		vmul.f32	s0, s0, s0
 3767              	.LVL234:
 3768              		.loc 1 863 0
 3769 0010 2DED028B 		vpush.64	{d8}
 3770              		.cfi_def_cfa_offset 16
 3771              		.cfi_offset 80, -16
 3772              		.cfi_offset 81, -12
 3773              		.loc 1 866 0
 3774 0014 A7EEA70A 		vfma.f32	s0, s15, s15
 3775 0018 B5EE400A 		vcmp.f32	s0, #0
 3776 001c F1EE10FA 		vmrs	APSR_nzcv, FPSCR
 3777 0020 B1EEC08A 		vsqrt.f32	s16, s0
 3778 0024 04D4     		bmi	.L343
 3779              	.LVL235:
 3780              	.L340:
 3781              		.loc 1 867 0
 3782 0026 B0EE480A 		vmov.f32	s0, s16
 3783 002a BDEC028B 		vldm	sp!, {d8}
 3784              		.cfi_remember_state
 3785              		.cfi_restore 80
 3786              		.cfi_restore 81
 3787              		.cfi_def_cfa_offset 8
 3788 002e 08BD     		pop	{r3, pc}
 3789              	.LVL236:
 3790              	.L343:
 3791              		.cfi_restore_state
 3792              		.loc 1 866 0
 3793 0030 FFF7FEFF 		bl	sqrtf
 3794              	.LVL237:
 3795 0034 F7E7     		b	.L340
 3796              	.L345:
 3797 0036 00BF     		.align	2
 3798              	.L344:
 3799 0038 00000000 		.word	.LANCHOR10
 3800              		.cfi_endproc
 3801              	.LFE286:
 3802              		.size	mcpwm_foc_get_abs_motor_voltage, .-mcpwm_foc_get_abs_motor_voltage
 3803              		.section	.text.mcpwm_foc_get_abs_motor_current_filtered,"ax",%progbits
 3804              		.align	1
 3805              		.p2align 4,,15
 3806              		.global	mcpwm_foc_get_abs_motor_current_filtered
 3807              		.syntax unified
 3808              		.thumb
 3809              		.thumb_func
 3810              		.fpu fpv4-sp-d16
 3811              		.type	mcpwm_foc_get_abs_motor_current_filtered, %function
 3812              	mcpwm_foc_get_abs_motor_current_filtered:
 3813              	.LFB287:
 3814              		.loc 1 876 0
 3815              		.cfi_startproc
 3816              		@ args = 0, pretend = 0, frame = 0
 3817              		@ frame_needed = 0, uses_anonymous_args = 0
 3818              		@ link register save eliminated.
 3819              		.loc 1 877 0
ARM GAS  /tmp/cc50jUqN.s 			page 68


 3820 0000 014B     		ldr	r3, .L347
 3821 0002 93ED080A 		vldr.32	s0, [r3, #32]
 3822              		.loc 1 878 0
 3823 0006 7047     		bx	lr
 3824              	.L348:
 3825              		.align	2
 3826              	.L347:
 3827 0008 00000000 		.word	.LANCHOR10
 3828              		.cfi_endproc
 3829              	.LFE287:
 3830              		.size	mcpwm_foc_get_abs_motor_current_filtered, .-mcpwm_foc_get_abs_motor_current_filtered
 3831              		.section	.text.mcpwm_foc_get_tot_current_directional,"ax",%progbits
 3832              		.align	1
 3833              		.p2align 4,,15
 3834              		.global	mcpwm_foc_get_tot_current_directional
 3835              		.syntax unified
 3836              		.thumb
 3837              		.thumb_func
 3838              		.fpu fpv4-sp-d16
 3839              		.type	mcpwm_foc_get_tot_current_directional, %function
 3840              	mcpwm_foc_get_tot_current_directional:
 3841              	.LFB288:
 3842              		.loc 1 887 0
 3843              		.cfi_startproc
 3844              		@ args = 0, pretend = 0, frame = 0
 3845              		@ frame_needed = 0, uses_anonymous_args = 0
 3846              		@ link register save eliminated.
 3847              		.loc 1 888 0
 3848 0000 014B     		ldr	r3, .L350
 3849 0002 93ED100A 		vldr.32	s0, [r3, #64]
 3850              		.loc 1 889 0
 3851 0006 7047     		bx	lr
 3852              	.L351:
 3853              		.align	2
 3854              	.L350:
 3855 0008 00000000 		.word	.LANCHOR10
 3856              		.cfi_endproc
 3857              	.LFE288:
 3858              		.size	mcpwm_foc_get_tot_current_directional, .-mcpwm_foc_get_tot_current_directional
 3859              		.section	.text.mcpwm_foc_get_tot_current_directional_filtered,"ax",%progbits
 3860              		.align	1
 3861              		.p2align 4,,15
 3862              		.global	mcpwm_foc_get_tot_current_directional_filtered
 3863              		.syntax unified
 3864              		.thumb
 3865              		.thumb_func
 3866              		.fpu fpv4-sp-d16
 3867              		.type	mcpwm_foc_get_tot_current_directional_filtered, %function
 3868              	mcpwm_foc_get_tot_current_directional_filtered:
 3869              	.LFB289:
 3870              		.loc 1 898 0
 3871              		.cfi_startproc
 3872              		@ args = 0, pretend = 0, frame = 0
 3873              		@ frame_needed = 0, uses_anonymous_args = 0
 3874              		@ link register save eliminated.
 3875              		.loc 1 899 0
 3876 0000 014B     		ldr	r3, .L353
ARM GAS  /tmp/cc50jUqN.s 			page 69


 3877 0002 93ED120A 		vldr.32	s0, [r3, #72]
 3878              		.loc 1 900 0
 3879 0006 7047     		bx	lr
 3880              	.L354:
 3881              		.align	2
 3882              	.L353:
 3883 0008 00000000 		.word	.LANCHOR10
 3884              		.cfi_endproc
 3885              	.LFE289:
 3886              		.size	mcpwm_foc_get_tot_current_directional_filtered, .-mcpwm_foc_get_tot_current_directional_filt
 3887              		.section	.text.mcpwm_foc_get_id,"ax",%progbits
 3888              		.align	1
 3889              		.p2align 4,,15
 3890              		.global	mcpwm_foc_get_id
 3891              		.syntax unified
 3892              		.thumb
 3893              		.thumb_func
 3894              		.fpu fpv4-sp-d16
 3895              		.type	mcpwm_foc_get_id, %function
 3896              	mcpwm_foc_get_id:
 3897              	.LFB290:
 3898              		.loc 1 908 0
 3899              		.cfi_startproc
 3900              		@ args = 0, pretend = 0, frame = 0
 3901              		@ frame_needed = 0, uses_anonymous_args = 0
 3902              		@ link register save eliminated.
 3903              		.loc 1 909 0
 3904 0000 014B     		ldr	r3, .L356
 3905 0002 93ED0F0A 		vldr.32	s0, [r3, #60]
 3906              		.loc 1 910 0
 3907 0006 7047     		bx	lr
 3908              	.L357:
 3909              		.align	2
 3910              	.L356:
 3911 0008 00000000 		.word	.LANCHOR10
 3912              		.cfi_endproc
 3913              	.LFE290:
 3914              		.size	mcpwm_foc_get_id, .-mcpwm_foc_get_id
 3915              		.section	.text.mcpwm_foc_get_iq,"ax",%progbits
 3916              		.align	1
 3917              		.p2align 4,,15
 3918              		.global	mcpwm_foc_get_iq
 3919              		.syntax unified
 3920              		.thumb
 3921              		.thumb_func
 3922              		.fpu fpv4-sp-d16
 3923              		.type	mcpwm_foc_get_iq, %function
 3924              	mcpwm_foc_get_iq:
 3925              	.LFB327:
 3926              		.cfi_startproc
 3927              		@ args = 0, pretend = 0, frame = 0
 3928              		@ frame_needed = 0, uses_anonymous_args = 0
 3929              		@ link register save eliminated.
 3930 0000 014B     		ldr	r3, .L359
 3931 0002 93ED100A 		vldr.32	s0, [r3, #64]
 3932 0006 7047     		bx	lr
 3933              	.L360:
ARM GAS  /tmp/cc50jUqN.s 			page 70


 3934              		.align	2
 3935              	.L359:
 3936 0008 00000000 		.word	.LANCHOR10
 3937              		.cfi_endproc
 3938              	.LFE327:
 3939              		.size	mcpwm_foc_get_iq, .-mcpwm_foc_get_iq
 3940              		.section	.text.mcpwm_foc_get_tot_current_in,"ax",%progbits
 3941              		.align	1
 3942              		.p2align 4,,15
 3943              		.global	mcpwm_foc_get_tot_current_in
 3944              		.syntax unified
 3945              		.thumb
 3946              		.thumb_func
 3947              		.fpu fpv4-sp-d16
 3948              		.type	mcpwm_foc_get_tot_current_in, %function
 3949              	mcpwm_foc_get_tot_current_in:
 3950              	.LFB292:
 3951              		.loc 1 928 0
 3952              		.cfi_startproc
 3953              		@ args = 0, pretend = 0, frame = 0
 3954              		@ frame_needed = 0, uses_anonymous_args = 0
 3955              		@ link register save eliminated.
 3956              		.loc 1 929 0
 3957 0000 014B     		ldr	r3, .L362
 3958 0002 93ED090A 		vldr.32	s0, [r3, #36]
 3959              		.loc 1 930 0
 3960 0006 7047     		bx	lr
 3961              	.L363:
 3962              		.align	2
 3963              	.L362:
 3964 0008 00000000 		.word	.LANCHOR10
 3965              		.cfi_endproc
 3966              	.LFE292:
 3967              		.size	mcpwm_foc_get_tot_current_in, .-mcpwm_foc_get_tot_current_in
 3968              		.section	.text.mcpwm_foc_get_tot_current_in_filtered,"ax",%progbits
 3969              		.align	1
 3970              		.p2align 4,,15
 3971              		.global	mcpwm_foc_get_tot_current_in_filtered
 3972              		.syntax unified
 3973              		.thumb
 3974              		.thumb_func
 3975              		.fpu fpv4-sp-d16
 3976              		.type	mcpwm_foc_get_tot_current_in_filtered, %function
 3977              	mcpwm_foc_get_tot_current_in_filtered:
 3978              	.LFB329:
 3979              		.cfi_startproc
 3980              		@ args = 0, pretend = 0, frame = 0
 3981              		@ frame_needed = 0, uses_anonymous_args = 0
 3982              		@ link register save eliminated.
 3983 0000 014B     		ldr	r3, .L365
 3984 0002 93ED090A 		vldr.32	s0, [r3, #36]
 3985 0006 7047     		bx	lr
 3986              	.L366:
 3987              		.align	2
 3988              	.L365:
 3989 0008 00000000 		.word	.LANCHOR10
 3990              		.cfi_endproc
ARM GAS  /tmp/cc50jUqN.s 			page 71


 3991              	.LFE329:
 3992              		.size	mcpwm_foc_get_tot_current_in_filtered, .-mcpwm_foc_get_tot_current_in_filtered
 3993              		.section	.text.mcpwm_foc_get_tachometer_value,"ax",%progbits
 3994              		.align	1
 3995              		.p2align 4,,15
 3996              		.global	mcpwm_foc_get_tachometer_value
 3997              		.syntax unified
 3998              		.thumb
 3999              		.thumb_func
 4000              		.fpu fpv4-sp-d16
 4001              		.type	mcpwm_foc_get_tachometer_value, %function
 4002              	mcpwm_foc_get_tachometer_value:
 4003              	.LFB294:
 4004              		.loc 1 953 0
 4005              		.cfi_startproc
 4006              		@ args = 0, pretend = 0, frame = 0
 4007              		@ frame_needed = 0, uses_anonymous_args = 0
 4008              		@ link register save eliminated.
 4009              	.LVL238:
 4010              		.loc 1 954 0
 4011 0000 034B     		ldr	r3, .L372
 4012 0002 1A68     		ldr	r2, [r3]
 4013              	.LVL239:
 4014              		.loc 1 956 0
 4015 0004 08B1     		cbz	r0, .L367
 4016              		.loc 1 957 0
 4017 0006 0021     		movs	r1, #0
 4018 0008 1960     		str	r1, [r3]
 4019              	.L367:
 4020              		.loc 1 961 0
 4021 000a 1046     		mov	r0, r2
 4022              	.LVL240:
 4023 000c 7047     		bx	lr
 4024              	.L373:
 4025 000e 00BF     		.align	2
 4026              	.L372:
 4027 0010 00000000 		.word	.LANCHOR40
 4028              		.cfi_endproc
 4029              	.LFE294:
 4030              		.size	mcpwm_foc_get_tachometer_value, .-mcpwm_foc_get_tachometer_value
 4031              		.section	.text.mcpwm_foc_get_tachometer_abs_value,"ax",%progbits
 4032              		.align	1
 4033              		.p2align 4,,15
 4034              		.global	mcpwm_foc_get_tachometer_abs_value
 4035              		.syntax unified
 4036              		.thumb
 4037              		.thumb_func
 4038              		.fpu fpv4-sp-d16
 4039              		.type	mcpwm_foc_get_tachometer_abs_value, %function
 4040              	mcpwm_foc_get_tachometer_abs_value:
 4041              	.LFB295:
 4042              		.loc 1 973 0
 4043              		.cfi_startproc
 4044              		@ args = 0, pretend = 0, frame = 0
 4045              		@ frame_needed = 0, uses_anonymous_args = 0
 4046              		@ link register save eliminated.
 4047              	.LVL241:
ARM GAS  /tmp/cc50jUqN.s 			page 72


 4048              		.loc 1 974 0
 4049 0000 034B     		ldr	r3, .L379
 4050 0002 1A68     		ldr	r2, [r3]
 4051              	.LVL242:
 4052              		.loc 1 976 0
 4053 0004 08B1     		cbz	r0, .L374
 4054              		.loc 1 977 0
 4055 0006 0021     		movs	r1, #0
 4056 0008 1960     		str	r1, [r3]
 4057              	.L374:
 4058              		.loc 1 981 0
 4059 000a 1046     		mov	r0, r2
 4060              	.LVL243:
 4061 000c 7047     		bx	lr
 4062              	.L380:
 4063 000e 00BF     		.align	2
 4064              	.L379:
 4065 0010 00000000 		.word	.LANCHOR41
 4066              		.cfi_endproc
 4067              	.LFE295:
 4068              		.size	mcpwm_foc_get_tachometer_abs_value, .-mcpwm_foc_get_tachometer_abs_value
 4069              		.section	.text.mcpwm_foc_get_phase,"ax",%progbits
 4070              		.align	1
 4071              		.p2align 4,,15
 4072              		.global	mcpwm_foc_get_phase
 4073              		.syntax unified
 4074              		.thumb
 4075              		.thumb_func
 4076              		.fpu fpv4-sp-d16
 4077              		.type	mcpwm_foc_get_phase, %function
 4078              	mcpwm_foc_get_phase:
 4079              	.LFB296:
 4080              		.loc 1 989 0
 4081              		.cfi_startproc
 4082              		@ args = 0, pretend = 0, frame = 8
 4083              		@ frame_needed = 0, uses_anonymous_args = 0
 4084 0000 00B5     		push	{lr}
 4085              		.cfi_def_cfa_offset 4
 4086              		.cfi_offset 14, -4
 4087              		.loc 1 990 0
 4088 0002 094B     		ldr	r3, .L383
 4089 0004 9FED097A 		vldr.32	s14, .L383+4
 4090 0008 D3ED047A 		vldr.32	s15, [r3, #16]
 4091              		.loc 1 989 0
 4092 000c 83B0     		sub	sp, sp, #12
 4093              		.cfi_def_cfa_offset 16
 4094              		.loc 1 990 0
 4095 000e 67EE877A 		vmul.f32	s15, s15, s14
 4096 0012 02A8     		add	r0, sp, #8
 4097 0014 60ED017A 		vstmdb.32	r0!, {s15}
 4098              		.loc 1 991 0
 4099 0018 FFF7FEFF 		bl	utils_norm_angle
 4100              	.LVL244:
 4101              		.loc 1 993 0
 4102 001c 9DED010A 		vldr.32	s0, [sp, #4]
 4103 0020 03B0     		add	sp, sp, #12
 4104              		.cfi_def_cfa_offset 4
ARM GAS  /tmp/cc50jUqN.s 			page 73


 4105              		@ sp needed
 4106 0022 5DF804FB 		ldr	pc, [sp], #4
 4107              	.L384:
 4108 0026 00BF     		.align	2
 4109              	.L383:
 4110 0028 00000000 		.word	.LANCHOR10
 4111 002c E02E6542 		.word	1113927392
 4112              		.cfi_endproc
 4113              	.LFE296:
 4114              		.size	mcpwm_foc_get_phase, .-mcpwm_foc_get_phase
 4115              		.section	.text.mcpwm_foc_get_phase_observer,"ax",%progbits
 4116              		.align	1
 4117              		.p2align 4,,15
 4118              		.global	mcpwm_foc_get_phase_observer
 4119              		.syntax unified
 4120              		.thumb
 4121              		.thumb_func
 4122              		.fpu fpv4-sp-d16
 4123              		.type	mcpwm_foc_get_phase_observer, %function
 4124              	mcpwm_foc_get_phase_observer:
 4125              	.LFB297:
 4126              		.loc 1 1001 0
 4127              		.cfi_startproc
 4128              		@ args = 0, pretend = 0, frame = 8
 4129              		@ frame_needed = 0, uses_anonymous_args = 0
 4130 0000 00B5     		push	{lr}
 4131              		.cfi_def_cfa_offset 4
 4132              		.cfi_offset 14, -4
 4133              		.loc 1 1002 0
 4134 0002 094B     		ldr	r3, .L387
 4135 0004 9FED097A 		vldr.32	s14, .L387+4
 4136 0008 D3ED007A 		vldr.32	s15, [r3]
 4137              		.loc 1 1001 0
 4138 000c 83B0     		sub	sp, sp, #12
 4139              		.cfi_def_cfa_offset 16
 4140              		.loc 1 1002 0
 4141 000e 67EE877A 		vmul.f32	s15, s15, s14
 4142 0012 02A8     		add	r0, sp, #8
 4143 0014 60ED017A 		vstmdb.32	r0!, {s15}
 4144              		.loc 1 1003 0
 4145 0018 FFF7FEFF 		bl	utils_norm_angle
 4146              	.LVL245:
 4147              		.loc 1 1005 0
 4148 001c 9DED010A 		vldr.32	s0, [sp, #4]
 4149 0020 03B0     		add	sp, sp, #12
 4150              		.cfi_def_cfa_offset 4
 4151              		@ sp needed
 4152 0022 5DF804FB 		ldr	pc, [sp], #4
 4153              	.L388:
 4154 0026 00BF     		.align	2
 4155              	.L387:
 4156 0028 00000000 		.word	.LANCHOR16
 4157 002c E02E6542 		.word	1113927392
 4158              		.cfi_endproc
 4159              	.LFE297:
 4160              		.size	mcpwm_foc_get_phase_observer, .-mcpwm_foc_get_phase_observer
 4161              		.section	.text.mcpwm_foc_get_phase_encoder,"ax",%progbits
ARM GAS  /tmp/cc50jUqN.s 			page 74


 4162              		.align	1
 4163              		.p2align 4,,15
 4164              		.global	mcpwm_foc_get_phase_encoder
 4165              		.syntax unified
 4166              		.thumb
 4167              		.thumb_func
 4168              		.fpu fpv4-sp-d16
 4169              		.type	mcpwm_foc_get_phase_encoder, %function
 4170              	mcpwm_foc_get_phase_encoder:
 4171              	.LFB298:
 4172              		.loc 1 1013 0
 4173              		.cfi_startproc
 4174              		@ args = 0, pretend = 0, frame = 8
 4175              		@ frame_needed = 0, uses_anonymous_args = 0
 4176 0000 00B5     		push	{lr}
 4177              		.cfi_def_cfa_offset 4
 4178              		.cfi_offset 14, -4
 4179              		.loc 1 1014 0
 4180 0002 094B     		ldr	r3, .L391
 4181 0004 9FED097A 		vldr.32	s14, .L391+4
 4182 0008 D3ED007A 		vldr.32	s15, [r3]
 4183              		.loc 1 1013 0
 4184 000c 83B0     		sub	sp, sp, #12
 4185              		.cfi_def_cfa_offset 16
 4186              		.loc 1 1014 0
 4187 000e 67EE877A 		vmul.f32	s15, s15, s14
 4188 0012 02A8     		add	r0, sp, #8
 4189 0014 60ED017A 		vstmdb.32	r0!, {s15}
 4190              		.loc 1 1015 0
 4191 0018 FFF7FEFF 		bl	utils_norm_angle
 4192              	.LVL246:
 4193              		.loc 1 1017 0
 4194 001c 9DED010A 		vldr.32	s0, [sp, #4]
 4195 0020 03B0     		add	sp, sp, #12
 4196              		.cfi_def_cfa_offset 4
 4197              		@ sp needed
 4198 0022 5DF804FB 		ldr	pc, [sp], #4
 4199              	.L392:
 4200 0026 00BF     		.align	2
 4201              	.L391:
 4202 0028 00000000 		.word	.LANCHOR36
 4203 002c E02E6542 		.word	1113927392
 4204              		.cfi_endproc
 4205              	.LFE298:
 4206              		.size	mcpwm_foc_get_phase_encoder, .-mcpwm_foc_get_phase_encoder
 4207              		.section	.text.mcpwm_foc_get_vd,"ax",%progbits
 4208              		.align	1
 4209              		.p2align 4,,15
 4210              		.global	mcpwm_foc_get_vd
 4211              		.syntax unified
 4212              		.thumb
 4213              		.thumb_func
 4214              		.fpu fpv4-sp-d16
 4215              		.type	mcpwm_foc_get_vd, %function
 4216              	mcpwm_foc_get_vd:
 4217              	.LFB299:
 4218              		.loc 1 1019 0
ARM GAS  /tmp/cc50jUqN.s 			page 75


 4219              		.cfi_startproc
 4220              		@ args = 0, pretend = 0, frame = 0
 4221              		@ frame_needed = 0, uses_anonymous_args = 0
 4222              		@ link register save eliminated.
 4223              		.loc 1 1020 0
 4224 0000 014B     		ldr	r3, .L394
 4225 0002 93ED130A 		vldr.32	s0, [r3, #76]
 4226              		.loc 1 1021 0
 4227 0006 7047     		bx	lr
 4228              	.L395:
 4229              		.align	2
 4230              	.L394:
 4231 0008 00000000 		.word	.LANCHOR10
 4232              		.cfi_endproc
 4233              	.LFE299:
 4234              		.size	mcpwm_foc_get_vd, .-mcpwm_foc_get_vd
 4235              		.section	.text.mcpwm_foc_get_vq,"ax",%progbits
 4236              		.align	1
 4237              		.p2align 4,,15
 4238              		.global	mcpwm_foc_get_vq
 4239              		.syntax unified
 4240              		.thumb
 4241              		.thumb_func
 4242              		.fpu fpv4-sp-d16
 4243              		.type	mcpwm_foc_get_vq, %function
 4244              	mcpwm_foc_get_vq:
 4245              	.LFB300:
 4246              		.loc 1 1023 0
 4247              		.cfi_startproc
 4248              		@ args = 0, pretend = 0, frame = 0
 4249              		@ frame_needed = 0, uses_anonymous_args = 0
 4250              		@ link register save eliminated.
 4251              		.loc 1 1024 0
 4252 0000 014B     		ldr	r3, .L397
 4253 0002 93ED140A 		vldr.32	s0, [r3, #80]
 4254              		.loc 1 1025 0
 4255 0006 7047     		bx	lr
 4256              	.L398:
 4257              		.align	2
 4258              	.L397:
 4259 0008 00000000 		.word	.LANCHOR10
 4260              		.cfi_endproc
 4261              	.LFE300:
 4262              		.size	mcpwm_foc_get_vq, .-mcpwm_foc_get_vq
 4263              		.section	.text.mcpwm_foc_get_current_offsets,"ax",%progbits
 4264              		.align	1
 4265              		.p2align 4,,15
 4266              		.global	mcpwm_foc_get_current_offsets
 4267              		.syntax unified
 4268              		.thumb
 4269              		.thumb_func
 4270              		.fpu fpv4-sp-d16
 4271              		.type	mcpwm_foc_get_current_offsets, %function
 4272              	mcpwm_foc_get_current_offsets:
 4273              	.LFB301:
 4274              		.loc 1 1032 0
 4275              		.cfi_startproc
ARM GAS  /tmp/cc50jUqN.s 			page 76


 4276              		@ args = 0, pretend = 0, frame = 0
 4277              		@ frame_needed = 0, uses_anonymous_args = 0
 4278              		@ link register save eliminated.
 4279              	.LVL247:
 4280              		.loc 1 1033 0
 4281 0000 054B     		ldr	r3, .L401
 4282              		.loc 1 1032 0
 4283 0002 30B4     		push	{r4, r5}
 4284              		.cfi_def_cfa_offset 8
 4285              		.cfi_offset 4, -8
 4286              		.cfi_offset 5, -4
 4287              		.loc 1 1033 0
 4288 0004 1D68     		ldr	r5, [r3]
 4289              		.loc 1 1034 0
 4290 0006 054C     		ldr	r4, .L401+4
 4291              		.loc 1 1033 0
 4292 0008 0560     		str	r5, [r0]
 4293              		.loc 1 1034 0
 4294 000a 2068     		ldr	r0, [r4]
 4295              	.LVL248:
 4296              		.loc 1 1036 0
 4297 000c 044B     		ldr	r3, .L401+8
 4298              		.loc 1 1034 0
 4299 000e 0860     		str	r0, [r1]
 4300              		.loc 1 1036 0
 4301 0010 1B68     		ldr	r3, [r3]
 4302 0012 1360     		str	r3, [r2]
 4303              		.loc 1 1040 0
 4304 0014 30BC     		pop	{r4, r5}
 4305              		.cfi_restore 5
 4306              		.cfi_restore 4
 4307              		.cfi_def_cfa_offset 0
 4308 0016 7047     		bx	lr
 4309              	.L402:
 4310              		.align	2
 4311              	.L401:
 4312 0018 00000000 		.word	.LANCHOR45
 4313 001c 00000000 		.word	.LANCHOR46
 4314 0020 00000000 		.word	.LANCHOR47
 4315              		.cfi_endproc
 4316              	.LFE301:
 4317              		.size	mcpwm_foc_get_current_offsets, .-mcpwm_foc_get_current_offsets
 4318              		.global	__aeabi_f2d
 4319              		.section	.text.mcpwm_foc_encoder_detect,"ax",%progbits
 4320              		.align	1
 4321              		.p2align 4,,15
 4322              		.global	mcpwm_foc_encoder_detect
 4323              		.syntax unified
 4324              		.thumb
 4325              		.thumb_func
 4326              		.fpu fpv4-sp-d16
 4327              		.type	mcpwm_foc_encoder_detect, %function
 4328              	mcpwm_foc_encoder_detect:
 4329              	.LFB302:
 4330              		.loc 1 1057 0
 4331              		.cfi_startproc
 4332              		@ args = 0, pretend = 0, frame = 24
ARM GAS  /tmp/cc50jUqN.s 			page 77


 4333              		@ frame_needed = 0, uses_anonymous_args = 0
 4334              	.LVL249:
 4335 0000 2DE9F04F 		push	{r4, r5, r6, r7, r8, r9, r10, fp, lr}
 4336              		.cfi_def_cfa_offset 36
 4337              		.cfi_offset 4, -36
 4338              		.cfi_offset 5, -32
 4339              		.cfi_offset 6, -28
 4340              		.cfi_offset 7, -24
 4341              		.cfi_offset 8, -20
 4342              		.cfi_offset 9, -16
 4343              		.cfi_offset 10, -12
 4344              		.cfi_offset 11, -8
 4345              		.cfi_offset 14, -4
 4346 0004 2DED0E8B 		vpush.64	{d8, d9, d10, d11, d12, d13, d14}
 4347              		.cfi_def_cfa_offset 92
 4348              		.cfi_offset 80, -92
 4349              		.cfi_offset 81, -88
 4350              		.cfi_offset 82, -84
 4351              		.cfi_offset 83, -80
 4352              		.cfi_offset 84, -76
 4353              		.cfi_offset 85, -72
 4354              		.cfi_offset 86, -68
 4355              		.cfi_offset 87, -64
 4356              		.cfi_offset 88, -60
 4357              		.cfi_offset 89, -56
 4358              		.cfi_offset 90, -52
 4359              		.cfi_offset 91, -48
 4360              		.cfi_offset 92, -44
 4361              		.cfi_offset 93, -40
 4362 0008 87B0     		sub	sp, sp, #28
 4363              		.cfi_def_cfa_offset 120
 4364              		.loc 1 1057 0
 4365 000a B0EE409A 		vmov.f32	s18, s0
 4366 000e CDE90223 		strd	r2, r3, [sp, #8]
 4367 0012 0746     		mov	r7, r0
 4368 0014 8B46     		mov	fp, r1
 4369              		.loc 1 1058 0
 4370 0016 FFF7FEFF 		bl	mc_interface_lock
 4371              	.LVL250:
 4372              		.loc 1 1060 0
 4373 001a DA49     		ldr	r1, .L490
 4374              		.loc 1 1062 0
 4375 001c 9FEDDA8A 		vldr.32	s16, .L490+4
 4376              		.loc 1 1073 0
 4377 0020 DFF8A0A3 		ldr	r10, .L490+64
 4378              	.LBB72:
 4379              		.loc 1 1084 0
 4380 0024 DFEDD98A 		vldr.32	s17, .L490+8
 4381 0028 D94C     		ldr	r4, .L490+12
 4382              	.LBE72:
 4383              		.loc 1 1060 0
 4384 002a 0122     		movs	r2, #1
 4385 002c 0A70     		strb	r2, [r1]
 4386              		.loc 1 1061 0
 4387 002e D94A     		ldr	r2, .L490+16
 4388 0030 82ED009A 		vstr.32	s18, [r2]
 4389              		.loc 1 1062 0
ARM GAS  /tmp/cc50jUqN.s 			page 78


 4390 0034 D84A     		ldr	r2, .L490+20
 4391 0036 82ED008A 		vstr.32	s16, [r2]
 4392              		.loc 1 1063 0
 4393 003a D84A     		ldr	r2, .L490+24
 4394 003c 0223     		movs	r3, #2
 4395 003e 1370     		strb	r3, [r2]
 4396              		.loc 1 1064 0
 4397 0040 D74A     		ldr	r2, .L490+28
 4398 0042 1370     		strb	r3, [r2]
 4399              		.loc 1 1067 0
 4400 0044 FFF7FEFF 		bl	timeout_get_timeout_msec
 4401              	.LVL251:
 4402 0048 0190     		str	r0, [sp, #4]
 4403              	.LVL252:
 4404              		.loc 1 1068 0
 4405 004a FFF7FEFF 		bl	timeout_get_brake_current
 4406              	.LVL253:
 4407 004e F0EE409A 		vmov.f32	s19, s0
 4408              	.LVL254:
 4409              		.loc 1 1069 0
 4410 0052 FFF7FEFF 		bl	timeout_reset
 4411              	.LVL255:
 4412              		.loc 1 1070 0
 4413 0056 B0EE480A 		vmov.f32	s0, s16
 4414 005a D248     		ldr	r0, .L490+32
 4415 005c FFF7FEFF 		bl	timeout_configure
 4416              	.LVL256:
 4417              		.loc 1 1073 0
 4418 0060 DAF80030 		ldr	r3, [r10]
 4419 0064 93ED2FAA 		vldr.32	s20, [r3, #188]
 4420              	.LVL257:
 4421              		.loc 1 1074 0
 4422 0068 93F8C020 		ldrb	r2, [r3, #192]	@ zero_extendqisi2
 4423              		.loc 1 1075 0
 4424 006c D3ED31AA 		vldr.32	s21, [r3, #196]
 4425              		.loc 1 1077 0
 4426 0070 83ED2F8A 		vstr.32	s16, [r3, #188]
 4427              		.loc 1 1074 0
 4428 0074 09EE102A 		vmov	s18, r2	@ int
 4429              	.LVL258:
 4430              		.loc 1 1078 0
 4431 0078 0022     		movs	r2, #0
 4432 007a 83F8C020 		strb	r2, [r3, #192]
 4433              		.loc 1 1074 0
 4434 007e B8EE499A 		vcvt.f32.u32	s18, s18
 4435              	.LVL259:
 4436              		.loc 1 1079 0
 4437 0082 4FF07E52 		mov	r2, #1065353216
 4438 0086 C3F8C420 		str	r2, [r3, #196]	@ float
 4439              		.loc 1 1083 0
 4440 008a 1F25     		movs	r5, #31
 4441              	.LVL260:
 4442              	.L404:
 4443 008c FFF7FEFF 		bl	encoder_index_found
 4444              	.LVL261:
 4445 0090 70B9     		cbnz	r0, .L408
 4446              	.LBB73:
ARM GAS  /tmp/cc50jUqN.s 			page 79


 4447              		.loc 1 1084 0
 4448 0092 9FEDBD8A 		vldr.32	s16, .L490+4
 4449              	.LBE73:
 4450 0096 4FF4FA76 		mov	r6, #500
 4451              	.L405:
 4452              	.LVL262:
 4453              	.LBB74:
 4454              		.loc 1 1086 0 discriminator 3
 4455 009a 0A20     		movs	r0, #10
 4456              		.loc 1 1085 0 discriminator 3
 4457 009c 84ED008A 		vstr.32	s16, [r4]
 4458              		.loc 1 1086 0 discriminator 3
 4459 00a0 FFF7FEFF 		bl	chThdSleep
 4460              	.LVL263:
 4461              		.loc 1 1084 0 discriminator 3
 4462 00a4 013E     		subs	r6, r6, #1
 4463 00a6 38EE288A 		vadd.f32	s16, s16, s17
 4464              	.LVL264:
 4465 00aa F6D1     		bne	.L405
 4466              	.LVL265:
 4467              	.LBE74:
 4468              		.loc 1 1090 0
 4469 00ac 013D     		subs	r5, r5, #1
 4470              	.LVL266:
 4471 00ae EDD1     		bne	.L404
 4472              	.LVL267:
 4473              	.L408:
 4474              		.loc 1 1096 0
 4475 00b0 17B1     		cbz	r7, .L407
 4476              		.loc 1 1097 0
 4477 00b2 BD48     		ldr	r0, .L490+36
 4478 00b4 FFF7FEFF 		bl	commands_printf
 4479              	.LVL268:
 4480              	.L407:
 4481              		.loc 1 1083 0 discriminator 1
 4482 00b8 9FEDB38A 		vldr.32	s16, .L490+4
 4483              	.LBB75:
 4484              		.loc 1 1101 0 discriminator 1
 4485 00bc DFEDB38A 		vldr.32	s17, .L490+8
 4486              	.LBE75:
 4487              		.loc 1 1083 0 discriminator 1
 4488 00c0 4FF4FA75 		mov	r5, #500
 4489              	.LVL269:
 4490              	.L409:
 4491              	.LBB76:
 4492              		.loc 1 1103 0 discriminator 3
 4493 00c4 0A20     		movs	r0, #10
 4494              		.loc 1 1102 0 discriminator 3
 4495 00c6 84ED008A 		vstr.32	s16, [r4]
 4496              		.loc 1 1103 0 discriminator 3
 4497 00ca FFF7FEFF 		bl	chThdSleep
 4498              	.LVL270:
 4499              		.loc 1 1101 0 discriminator 3
 4500 00ce 013D     		subs	r5, r5, #1
 4501 00d0 38EE288A 		vadd.f32	s16, s16, s17
 4502              	.LVL271:
 4503 00d4 F6D1     		bne	.L409
ARM GAS  /tmp/cc50jUqN.s 			page 80


 4504              	.LBE76:
 4505              		.loc 1 1106 0
 4506 00d6 17B1     		cbz	r7, .L410
 4507              		.loc 1 1107 0
 4508 00d8 B448     		ldr	r0, .L490+40
 4509 00da FFF7FEFF 		bl	commands_printf
 4510              	.LVL272:
 4511              	.L410:
 4512              		.loc 1 1116 0
 4513 00de B44D     		ldr	r5, .L490+44
 4514              		.loc 1 1115 0
 4515 00e0 DFEDA9BA 		vldr.32	s23, .L490+4
 4516              	.LBB77:
 4517              	.LBB78:
 4518              	.LBB79:
 4519              		.loc 1 1121 0
 4520 00e4 DFEDB3CA 		vldr.32	s25, .L490+48
 4521              		.loc 1 1122 0
 4522 00e8 9FEDA8BA 		vldr.32	s22, .L490+8
 4523              	.LBE79:
 4524              		.loc 1 1126 0
 4525 00ec DFF8A082 		ldr	r8, .L490+12
 4526              		.loc 1 1136 0
 4527 00f0 9FEDB1EA 		vldr.32	s28, .L490+52
 4528 00f4 DFEDB1DA 		vldr.32	s27, .L490+56
 4529 00f8 DFF8CC92 		ldr	r9, .L490+68
 4530              	.LBE78:
 4531              	.LBE77:
 4532              		.loc 1 1111 0
 4533 00fc 42F21070 		movw	r0, #10000
 4534 0100 FFF7FEFF 		bl	chThdSleep
 4535              	.LVL273:
 4536              		.loc 1 1116 0
 4537 0104 95ED00DA 		vldr.32	s26, [r5]
 4538              	.LVL274:
 4539              		.loc 1 1114 0
 4540 0108 B0EE6BCA 		vmov.f32	s24, s23
 4541              	.LBB83:
 4542              		.loc 1 1118 0
 4543 010c 0026     		movs	r6, #0
 4544              	.LVL275:
 4545              	.L416:
 4546              	.LBB81:
 4547              		.loc 1 1119 0
 4548 010e D5ED00EA 		vldr.32	s29, [r5]
 4549              	.LVL276:
 4550              		.loc 1 1120 0
 4551 0112 94ED008A 		vldr.32	s16, [r4]
 4552              	.LVL277:
 4553              	.LBB80:
 4554              		.loc 1 1121 0
 4555 0116 78EE2C8A 		vadd.f32	s17, s16, s25
 4556 011a F4EEC88A 		vcmpe.f32	s17, s16
 4557 011e F1EE10FA 		vmrs	APSR_nzcv, FPSCR
 4558 0122 0BDD     		ble	.L411
 4559              	.LVL278:
 4560              	.L413:
ARM GAS  /tmp/cc50jUqN.s 			page 81


 4561              		.loc 1 1124 0
 4562 0124 0A20     		movs	r0, #10
 4563              		.loc 1 1123 0
 4564 0126 84ED008A 		vstr.32	s16, [r4]
 4565              		.loc 1 1124 0
 4566 012a FFF7FEFF 		bl	chThdSleep
 4567              	.LVL279:
 4568              		.loc 1 1122 0
 4569 012e 38EE0B8A 		vadd.f32	s16, s16, s22
 4570              	.LVL280:
 4571              		.loc 1 1121 0
 4572 0132 F4EEC88A 		vcmpe.f32	s17, s16
 4573 0136 F1EE10FA 		vmrs	APSR_nzcv, FPSCR
 4574 013a F3DC     		bgt	.L413
 4575              	.L411:
 4576              	.LBE80:
 4577              		.loc 1 1126 0
 4578 013c 4046     		mov	r0, r8
 4579 013e FFF7FEFF 		bl	utils_norm_angle_rad
 4580              	.LVL281:
 4581              		.loc 1 1127 0
 4582 0142 40F6B830 		movw	r0, #3000
 4583 0146 FFF7FEFF 		bl	chThdSleep
 4584              	.LVL282:
 4585              		.loc 1 1128 0
 4586 014a F0EE6E0A 		vmov.f32	s1, s29
 4587 014e 95ED000A 		vldr.32	s0, [r5]
 4588 0152 FFF7FEFF 		bl	utils_angle_difference_rad
 4589              	.LVL283:
 4590              		.loc 1 1131 0
 4591 0156 05A9     		add	r1, sp, #20
 4592 0158 04A8     		add	r0, sp, #16
 4593              		.loc 1 1128 0
 4594 015a B0EE408A 		vmov.f32	s16, s0
 4595              	.LVL284:
 4596              		.loc 1 1131 0
 4597 015e FFF7FEFF 		bl	sincosf
 4598              	.LVL285:
 4599              		.loc 1 1132 0
 4600 0162 9DED047A 		vldr.32	s14, [sp, #16]
 4601              		.loc 1 1133 0
 4602 0166 DDED057A 		vldr.32	s15, [sp, #20]
 4603              		.loc 1 1132 0
 4604 016a 3CEE07CA 		vadd.f32	s24, s24, s14
 4605              	.LVL286:
 4606              		.loc 1 1133 0
 4607 016e 7BEEA7BA 		vadd.f32	s23, s23, s15
 4608              	.LVL287:
 4609              		.loc 1 1135 0
 4610 0172 002F     		cmp	r7, #0
 4611 0174 40F09D81 		bne	.L482
 4612              	.L414:
 4613              		.loc 1 1139 0
 4614 0178 032E     		cmp	r6, #3
 4615 017a 12DD     		ble	.L418
 4616              		.loc 1 1139 0 is_stmt 0 discriminator 1
 4617 017c 95ED000A 		vldr.32	s0, [r5]
ARM GAS  /tmp/cc50jUqN.s 			page 82


 4618 0180 F0EE4D0A 		vmov.f32	s1, s26
 4619 0184 FFF7FEFF 		bl	utils_angle_difference_rad
 4620              	.LVL288:
 4621 0188 F6EE007A 		vmov.f32	s15, #5.0e-1
 4622 018c 28EE278A 		vmul.f32	s16, s16, s15
 4623              	.LVL289:
 4624 0190 B0EEC00A 		vabs.f32	s0, s0
 4625 0194 B0EEC88A 		vabs.f32	s16, s16
 4626 0198 B4EEC80A 		vcmpe.f32	s0, s16
 4627 019c F1EE10FA 		vmrs	APSR_nzcv, FPSCR
 4628 01a0 02D4     		bmi	.L417
 4629              	.L418:
 4630              	.LBE81:
 4631              		.loc 1 1118 0 is_stmt 1
 4632 01a2 0136     		adds	r6, r6, #1
 4633              	.LVL290:
 4634 01a4 142E     		cmp	r6, #20
 4635 01a6 B2D1     		bne	.L416
 4636              	.L417:
 4637              	.LBE83:
 4638              		.loc 1 1144 0
 4639 01a8 95ED00DA 		vldr.32	s26, [r5]
 4640              	.LVL291:
 4641              	.LBB84:
 4642              	.LBB85:
 4643              	.LBB86:
 4644              		.loc 1 1149 0
 4645 01ac DFED81CA 		vldr.32	s25, .L490+48
 4646              		.loc 1 1150 0
 4647 01b0 9FED76BA 		vldr.32	s22, .L490+8
 4648              	.LBE86:
 4649              		.loc 1 1154 0
 4650 01b4 DFF8D881 		ldr	r8, .L490+12
 4651              		.loc 1 1164 0
 4652 01b8 9FED7FEA 		vldr.32	s28, .L490+52
 4653 01bc DFED7FDA 		vldr.32	s27, .L490+56
 4654 01c0 DFF80492 		ldr	r9, .L490+68
 4655              	.LBE85:
 4656              		.loc 1 1146 0
 4657 01c4 0026     		movs	r6, #0
 4658              	.LVL292:
 4659              	.L425:
 4660              	.LBB88:
 4661              		.loc 1 1147 0
 4662 01c6 D5ED00EA 		vldr.32	s29, [r5]
 4663              	.LVL293:
 4664              		.loc 1 1148 0
 4665 01ca 94ED008A 		vldr.32	s16, [r4]
 4666              	.LVL294:
 4667              	.LBB87:
 4668              		.loc 1 1149 0
 4669 01ce 78EE6C8A 		vsub.f32	s17, s16, s25
 4670 01d2 B4EEE88A 		vcmpe.f32	s16, s17
 4671 01d6 F1EE10FA 		vmrs	APSR_nzcv, FPSCR
 4672 01da 0BDD     		ble	.L420
 4673              	.LVL295:
 4674              	.L422:
ARM GAS  /tmp/cc50jUqN.s 			page 83


 4675              		.loc 1 1152 0
 4676 01dc 0A20     		movs	r0, #10
 4677              		.loc 1 1151 0
 4678 01de 84ED008A 		vstr.32	s16, [r4]
 4679              		.loc 1 1152 0
 4680 01e2 FFF7FEFF 		bl	chThdSleep
 4681              	.LVL296:
 4682              		.loc 1 1150 0
 4683 01e6 38EE4B8A 		vsub.f32	s16, s16, s22
 4684              	.LVL297:
 4685              		.loc 1 1149 0
 4686 01ea B4EEE88A 		vcmpe.f32	s16, s17
 4687 01ee F1EE10FA 		vmrs	APSR_nzcv, FPSCR
 4688 01f2 F3DC     		bgt	.L422
 4689              	.L420:
 4690              	.LBE87:
 4691              		.loc 1 1154 0
 4692 01f4 4046     		mov	r0, r8
 4693 01f6 FFF7FEFF 		bl	utils_norm_angle_rad
 4694              	.LVL298:
 4695              		.loc 1 1155 0
 4696 01fa 40F6B830 		movw	r0, #3000
 4697 01fe FFF7FEFF 		bl	chThdSleep
 4698              	.LVL299:
 4699              		.loc 1 1156 0
 4700 0202 D5ED000A 		vldr.32	s1, [r5]
 4701 0206 B0EE6E0A 		vmov.f32	s0, s29
 4702 020a FFF7FEFF 		bl	utils_angle_difference_rad
 4703              	.LVL300:
 4704              		.loc 1 1159 0
 4705 020e 05A9     		add	r1, sp, #20
 4706 0210 04A8     		add	r0, sp, #16
 4707              		.loc 1 1156 0
 4708 0212 B0EE408A 		vmov.f32	s16, s0
 4709              	.LVL301:
 4710              		.loc 1 1159 0
 4711 0216 FFF7FEFF 		bl	sincosf
 4712              	.LVL302:
 4713              		.loc 1 1160 0
 4714 021a 9DED047A 		vldr.32	s14, [sp, #16]
 4715              		.loc 1 1161 0
 4716 021e DDED057A 		vldr.32	s15, [sp, #20]
 4717              		.loc 1 1160 0
 4718 0222 3CEE07CA 		vadd.f32	s24, s24, s14
 4719              	.LVL303:
 4720              		.loc 1 1161 0
 4721 0226 7BEEA7BA 		vadd.f32	s23, s23, s15
 4722              	.LVL304:
 4723              		.loc 1 1163 0
 4724 022a 002F     		cmp	r7, #0
 4725 022c 40F04F81 		bne	.L483
 4726              	.L423:
 4727              		.loc 1 1167 0
 4728 0230 032E     		cmp	r6, #3
 4729 0232 12DD     		ble	.L427
 4730              		.loc 1 1167 0 is_stmt 0 discriminator 1
 4731 0234 95ED000A 		vldr.32	s0, [r5]
ARM GAS  /tmp/cc50jUqN.s 			page 84


 4732 0238 F0EE4D0A 		vmov.f32	s1, s26
 4733 023c FFF7FEFF 		bl	utils_angle_difference_rad
 4734              	.LVL305:
 4735 0240 F6EE007A 		vmov.f32	s15, #5.0e-1
 4736 0244 28EE278A 		vmul.f32	s16, s16, s15
 4737              	.LVL306:
 4738 0248 B0EEC00A 		vabs.f32	s0, s0
 4739 024c B0EEC88A 		vabs.f32	s16, s16
 4740 0250 B4EEC80A 		vcmpe.f32	s0, s16
 4741 0254 F1EE10FA 		vmrs	APSR_nzcv, FPSCR
 4742 0258 02D4     		bmi	.L426
 4743              	.L427:
 4744              	.LBE88:
 4745              		.loc 1 1146 0 is_stmt 1
 4746 025a 0136     		adds	r6, r6, #1
 4747              	.LVL307:
 4748 025c 142E     		cmp	r6, #20
 4749 025e B2D1     		bne	.L425
 4750              	.L426:
 4751              	.LBE84:
 4752              		.loc 1 1172 0
 4753 0260 F0EE6B0A 		vmov.f32	s1, s23
 4754 0264 B0EE4C0A 		vmov.f32	s0, s24
 4755 0268 FFF7FEFF 		bl	atan2f
 4756              	.LVL308:
 4757 026c DFED527A 		vldr.32	s15, .L490+52
 4758 0270 DFED526A 		vldr.32	s13, .L490+56
 4759              		.loc 1 1173 0
 4760 0274 039B     		ldr	r3, [sp, #12]
 4761              		.loc 1 1174 0
 4762 0276 9FED527A 		vldr.32	s14, .L490+60
 4763              		.loc 1 1172 0
 4764 027a 20EE270A 		vmul.f32	s0, s0, s15
 4765 027e C0EE267A 		vdiv.f32	s15, s0, s13
 4766              	.LVL309:
 4767              		.loc 1 1173 0
 4768 0282 F5EEC07A 		vcmpe.f32	s15, #0
 4769 0286 F1EE10FA 		vmrs	APSR_nzcv, FPSCR
 4770 028a 4CBF     		ite	mi
 4771 028c 0126     		movmi	r6, #1
 4772              	.LVL310:
 4773 028e 0026     		movpl	r6, #0
 4774              		.loc 1 1175 0
 4775 0290 F0EEE77A 		vabs.f32	s15, s15
 4776              	.LVL311:
 4777              		.loc 1 1173 0
 4778 0294 1E70     		strb	r6, [r3]
 4779              		.loc 1 1174 0
 4780 0296 87EE270A 		vdiv.f32	s0, s14, s15
 4781              	.LVL312:
 4782 029a FFF7FEFF 		bl	roundf
 4783              	.LVL313:
 4784              		.loc 1 1177 0
 4785 029e DAF80030 		ldr	r3, [r10]
 4786              		.loc 1 1174 0
 4787 02a2 029A     		ldr	r2, [sp, #8]
 4788 02a4 82ED000A 		vstr.32	s0, [r2]
ARM GAS  /tmp/cc50jUqN.s 			page 85


 4789              		.loc 1 1177 0
 4790 02a8 83F8C060 		strb	r6, [r3, #192]
 4791              		.loc 1 1178 0
 4792 02ac 83ED310A 		vstr.32	s0, [r3, #196]
 4793              		.loc 1 1180 0
 4794 02b0 002F     		cmp	r7, #0
 4795 02b2 40F07681 		bne	.L484
 4796              	.LBB90:
 4797              		.loc 1 1185 0
 4798 02b6 94ED008A 		vldr.32	s16, [r4]
 4799              	.LVL314:
 4800 02ba DFED447A 		vldr.32	s15, .L490+72
 4801 02be B4EEE78A 		vcmpe.f32	s16, s15
 4802 02c2 F1EE10FA 		vmrs	APSR_nzcv, FPSCR
 4803 02c6 14D5     		bpl	.L435
 4804              	.L430:
 4805              		.loc 1 1185 0 is_stmt 0 discriminator 3
 4806 02c8 9FED30BA 		vldr.32	s22, .L490+8
 4807 02cc DFED3F8A 		vldr.32	s17, .L490+72
 4808              	.L433:
 4809              		.loc 1 1186 0 is_stmt 1 discriminator 3
 4810 02d0 84ED008A 		vstr.32	s16, [r4]
 4811              		.loc 1 1187 0 discriminator 3
 4812 02d4 1420     		movs	r0, #20
 4813 02d6 FFF7FEFF 		bl	chThdSleep
 4814              	.LVL315:
 4815              		.loc 1 1185 0 discriminator 3
 4816 02da 38EE0B8A 		vadd.f32	s16, s16, s22
 4817              	.LVL316:
 4818 02de B4EEE88A 		vcmpe.f32	s16, s17
 4819 02e2 F1EE10FA 		vmrs	APSR_nzcv, FPSCR
 4820 02e6 F3D4     		bmi	.L433
 4821              	.LBE90:
 4822              		.loc 1 1190 0
 4823 02e8 002F     		cmp	r7, #0
 4824 02ea 40F06781 		bne	.L434
 4825 02ee DAF80030 		ldr	r3, [r10]
 4826              	.L435:
 4827              		.loc 1 1195 0
 4828 02f2 D3ED317A 		vldr.32	s15, [r3, #196]
 4829 02f6 B0EE087A 		vmov.f32	s14, #3.0e+0
 4830 02fa 67EE877A 		vmul.f32	s15, s15, s14
 4831 02fe FDEEE77A 		vcvt.s32.f32	s15, s15
 4832 0302 17EE909A 		vmov	r9, s15	@ int
 4833              	.LVL317:
 4834              	.LBB91:
 4835              		.loc 1 1199 0
 4836 0306 B9F1000F 		cmp	r9, #0
 4837 030a 40F38A81 		ble	.L485
 4838              	.L431:
 4839 030e 07EE909A 		vmov	s15, r9	@ int
 4840              	.LBE91:
 4841              		.loc 1 1197 0
 4842 0312 9FED1DBA 		vldr.32	s22, .L490+4
 4843              	.LBB95:
 4844              	.LBB92:
 4845              		.loc 1 1200 0
ARM GAS  /tmp/cc50jUqN.s 			page 86


 4846 0316 DFED2DCA 		vldr.32	s25, .L490+72
 4847              		.loc 1 1204 0
 4848 031a 9FED2DDA 		vldr.32	s26, .L490+76
 4849              	.LVL318:
 4850 031e DFF87080 		ldr	r8, .L490+12
 4851              		.loc 1 1217 0
 4852 0322 9FED25EA 		vldr.32	s28, .L490+52
 4853 0326 DFED25DA 		vldr.32	s27, .L490+56
 4854 032a B8EEE7CA 		vcvt.f32.s32	s24, s15
 4855              	.LBE92:
 4856              	.LBE95:
 4857              		.loc 1 1196 0
 4858 032e F0EE4BBA 		vmov.f32	s23, s22
 4859              	.LBB96:
 4860              		.loc 1 1199 0
 4861 0332 0026     		movs	r6, #0
 4862              	.LVL319:
 4863              	.L439:
 4864              	.LBB93:
 4865              		.loc 1 1200 0
 4866 0334 D3ED317A 		vldr.32	s15, [r3, #196]
 4867              		.loc 1 1203 0
 4868 0338 D4ED006A 		vldr.32	s13, [r4]
 4869              		.loc 1 1200 0
 4870 033c 67EEAC7A 		vmul.f32	s15, s15, s25
 4871 0340 87EE8C7A 		vdiv.f32	s14, s15, s24
 4872              	.LVL320:
 4873              		.loc 1 1201 0
 4874 0344 07EE906A 		vmov	s15, r6	@ int
 4875 0348 B8EEE78A 		vcvt.f32.s32	s16, s15
 4876 034c 28EE078A 		vmul.f32	s16, s16, s14
 4877              	.LVL321:
 4878              		.loc 1 1203 0
 4879 0350 F4EE486A 		vcmp.f32	s13, s16
 4880 0354 F1EE10FA 		vmrs	APSR_nzcv, FPSCR
 4881 0358 3CD0     		beq	.L436
 4882              		.loc 1 1204 0
 4883 035a C7EE0D8A 		vdiv.f32	s17, s14, s26
 4884              	.LVL322:
 4885              	.L437:
 4886 035e 4046     		mov	r0, r8
 4887 0360 F0EE680A 		vmov.f32	s1, s17
 4888 0364 B0EE480A 		vmov.f32	s0, s16
 4889 0368 FFF7FEFF 		bl	utils_step_towards
 4890              	.LVL323:
 4891              		.loc 1 1205 0
 4892 036c 2820     		movs	r0, #40
 4893 036e FFF7FEFF 		bl	chThdSleep
 4894              	.LVL324:
 4895              		.loc 1 1203 0
 4896 0372 D4ED007A 		vldr.32	s15, [r4]
 4897 0376 F4EE487A 		vcmp.f32	s15, s16
 4898 037a F1EE10FA 		vmrs	APSR_nzcv, FPSCR
 4899 037e EED1     		bne	.L437
 4900 0380 28E0     		b	.L491
 4901              	.L492:
 4902 0382 00BF     		.align	2
ARM GAS  /tmp/cc50jUqN.s 			page 87


 4903              	.L490:
 4904 0384 00000000 		.word	.LANCHOR29
 4905 0388 00000000 		.word	0
 4906 038c 2EE34D3C 		.word	1011737390
 4907 0390 00000000 		.word	.LANCHOR30
 4908 0394 00000000 		.word	.LANCHOR32
 4909 0398 00000000 		.word	.LANCHOR23
 4910 039c 00000000 		.word	.LANCHOR14
 4911 03a0 00000000 		.word	.LANCHOR7
 4912 03a4 C0270900 		.word	600000
 4913 03a8 00000000 		.word	.LC1
 4914 03ac 0C000000 		.word	.LC2
 4915 03b0 00000000 		.word	.LANCHOR36
 4916 03b4 920A0640 		.word	1074137746
 4917 03b8 00003443 		.word	1127481344
 4918 03bc DB0F4940 		.word	1078530011
 4919 03c0 0000F042 		.word	1123024896
 4920 03c4 00000000 		.word	.LANCHOR0
 4921 03c8 20000000 		.word	.LC3
 4922 03cc DB0FC940 		.word	1086918619
 4923 03d0 0000C842 		.word	1120403456
 4924              	.L491:
 4925              	.L436:
 4926              		.loc 1 1208 0
 4927 03d4 4FF47A70 		mov	r0, #1000
 4928 03d8 FFF7FEFF 		bl	chThdSleep
 4929              	.LVL325:
 4930              		.loc 1 1210 0
 4931 03dc 95ED000A 		vldr.32	s0, [r5]
 4932 03e0 D4ED000A 		vldr.32	s1, [r4]
 4933 03e4 FFF7FEFF 		bl	utils_angle_difference_rad
 4934              	.LVL326:
 4935              		.loc 1 1212 0
 4936 03e8 05A9     		add	r1, sp, #20
 4937 03ea 04A8     		add	r0, sp, #16
 4938              		.loc 1 1210 0
 4939 03ec B0EE408A 		vmov.f32	s16, s0
 4940              	.LVL327:
 4941              		.loc 1 1212 0
 4942 03f0 FFF7FEFF 		bl	sincosf
 4943              	.LVL328:
 4944              		.loc 1 1213 0
 4945 03f4 9DED047A 		vldr.32	s14, [sp, #16]
 4946              		.loc 1 1214 0
 4947 03f8 DDED057A 		vldr.32	s15, [sp, #20]
 4948              		.loc 1 1213 0
 4949 03fc 7BEE87BA 		vadd.f32	s23, s23, s14
 4950              	.LVL329:
 4951              		.loc 1 1214 0
 4952 0400 3BEE27BA 		vadd.f32	s22, s22, s15
 4953              	.LVL330:
 4954              		.loc 1 1216 0
 4955 0404 002F     		cmp	r7, #0
 4956 0406 70D1     		bne	.L486
 4957              	.LVL331:
 4958              	.L438:
 4959              	.LBE93:
ARM GAS  /tmp/cc50jUqN.s 			page 88


 4960              		.loc 1 1199 0 discriminator 2
 4961 0408 0136     		adds	r6, r6, #1
 4962              	.LVL332:
 4963 040a B145     		cmp	r9, r6
 4964 040c DAF80030 		ldr	r3, [r10]
 4965 0410 90D1     		bne	.L439
 4966              	.LBE96:
 4967              	.LBB97:
 4968              	.LBB98:
 4969              		.loc 1 1222 0
 4970 0412 5FED12CA 		vldr.32	s25, .L490+72
 4971              		.loc 1 1226 0
 4972 0416 1FED12DA 		vldr.32	s26, .L490+76
 4973 041a DFF84C82 		ldr	r8, .L493+60
 4974              		.loc 1 1239 0
 4975 041e 9FED83EA 		vldr.32	s28, .L493
 4976 0422 DFED83DA 		vldr.32	s27, .L493+4
 4977 0426 DFF80C92 		ldr	r9, .L493+8
 4978              	.LVL333:
 4979              	.L443:
 4980              		.loc 1 1222 0
 4981 042a D3ED317A 		vldr.32	s15, [r3, #196]
 4982              		.loc 1 1225 0
 4983 042e D4ED006A 		vldr.32	s13, [r4]
 4984              		.loc 1 1222 0
 4985 0432 67EEAC7A 		vmul.f32	s15, s15, s25
 4986 0436 87EE8C7A 		vdiv.f32	s14, s15, s24
 4987              	.LVL334:
 4988              		.loc 1 1223 0
 4989 043a 07EE906A 		vmov	s15, r6	@ int
 4990 043e B8EEE78A 		vcvt.f32.s32	s16, s15
 4991 0442 28EE078A 		vmul.f32	s16, s16, s14
 4992              	.LVL335:
 4993              		.loc 1 1225 0
 4994 0446 B4EE668A 		vcmp.f32	s16, s13
 4995 044a F1EE10FA 		vmrs	APSR_nzcv, FPSCR
 4996 044e 12D0     		beq	.L440
 4997              		.loc 1 1226 0
 4998 0450 C7EE0D8A 		vdiv.f32	s17, s14, s26
 4999              	.LVL336:
 5000              	.L441:
 5001 0454 4046     		mov	r0, r8
 5002 0456 F0EE680A 		vmov.f32	s1, s17
 5003 045a B0EE480A 		vmov.f32	s0, s16
 5004 045e FFF7FEFF 		bl	utils_step_towards
 5005              	.LVL337:
 5006              		.loc 1 1227 0
 5007 0462 2820     		movs	r0, #40
 5008 0464 FFF7FEFF 		bl	chThdSleep
 5009              	.LVL338:
 5010              		.loc 1 1225 0
 5011 0468 D4ED007A 		vldr.32	s15, [r4]
 5012 046c F4EE487A 		vcmp.f32	s15, s16
 5013 0470 F1EE10FA 		vmrs	APSR_nzcv, FPSCR
 5014 0474 EED1     		bne	.L441
 5015              	.L440:
 5016              		.loc 1 1230 0
ARM GAS  /tmp/cc50jUqN.s 			page 89


 5017 0476 4FF47A70 		mov	r0, #1000
 5018 047a FFF7FEFF 		bl	chThdSleep
 5019              	.LVL339:
 5020              		.loc 1 1232 0
 5021 047e 95ED000A 		vldr.32	s0, [r5]
 5022 0482 D4ED000A 		vldr.32	s1, [r4]
 5023 0486 FFF7FEFF 		bl	utils_angle_difference_rad
 5024              	.LVL340:
 5025              		.loc 1 1234 0
 5026 048a 05A9     		add	r1, sp, #20
 5027 048c 04A8     		add	r0, sp, #16
 5028              		.loc 1 1232 0
 5029 048e B0EE408A 		vmov.f32	s16, s0
 5030              	.LVL341:
 5031              		.loc 1 1234 0
 5032 0492 FFF7FEFF 		bl	sincosf
 5033              	.LVL342:
 5034              		.loc 1 1235 0
 5035 0496 9DED047A 		vldr.32	s14, [sp, #16]
 5036              		.loc 1 1236 0
 5037 049a DDED057A 		vldr.32	s15, [sp, #20]
 5038              		.loc 1 1235 0
 5039 049e 7BEE87BA 		vadd.f32	s23, s23, s14
 5040              	.LVL343:
 5041              		.loc 1 1236 0
 5042 04a2 3BEE27BA 		vadd.f32	s22, s22, s15
 5043              	.LVL344:
 5044              		.loc 1 1238 0
 5045 04a6 77BB     		cbnz	r7, .L487
 5046              	.LVL345:
 5047              	.LBE98:
 5048              		.loc 1 1221 0 discriminator 2
 5049 04a8 013E     		subs	r6, r6, #1
 5050              	.LVL346:
 5051 04aa 3BD0     		beq	.L432
 5052              	.LVL347:
 5053              	.L488:
 5054 04ac DAF80030 		ldr	r3, [r10]
 5055 04b0 BBE7     		b	.L443
 5056              	.LVL348:
 5057              	.L482:
 5058              	.LBE97:
 5059              	.LBB100:
 5060              	.LBB82:
 5061              		.loc 1 1136 0
 5062 04b2 68EE0E7A 		vmul.f32	s15, s16, s28
 5063 04b6 C7EEAD7A 		vdiv.f32	s15, s15, s27
 5064 04ba 17EE900A 		vmov	r0, s15
 5065 04be FFF7FEFF 		bl	__aeabi_f2d
 5066              	.LVL349:
 5067 04c2 0246     		mov	r2, r0
 5068 04c4 0B46     		mov	r3, r1
 5069 04c6 4846     		mov	r0, r9
 5070 04c8 FFF7FEFF 		bl	commands_printf
 5071              	.LVL350:
 5072 04cc 54E6     		b	.L414
 5073              	.LVL351:
ARM GAS  /tmp/cc50jUqN.s 			page 90


 5074              	.L483:
 5075              	.LBE82:
 5076              	.LBE100:
 5077              	.LBB101:
 5078              	.LBB89:
 5079              		.loc 1 1164 0
 5080 04ce 68EE0E7A 		vmul.f32	s15, s16, s28
 5081 04d2 C7EEAD7A 		vdiv.f32	s15, s15, s27
 5082 04d6 17EE900A 		vmov	r0, s15
 5083 04da FFF7FEFF 		bl	__aeabi_f2d
 5084              	.LVL352:
 5085 04de 0246     		mov	r2, r0
 5086 04e0 0B46     		mov	r3, r1
 5087 04e2 4846     		mov	r0, r9
 5088 04e4 FFF7FEFF 		bl	commands_printf
 5089              	.LVL353:
 5090 04e8 A2E6     		b	.L423
 5091              	.LVL354:
 5092              	.L486:
 5093              	.LBE89:
 5094              	.LBE101:
 5095              	.LBB102:
 5096              	.LBB94:
 5097              		.loc 1 1217 0
 5098 04ea 28EE0E8A 		vmul.f32	s16, s16, s28
 5099              	.LVL355:
 5100 04ee C8EE2D7A 		vdiv.f32	s15, s16, s27
 5101 04f2 17EE900A 		vmov	r0, s15
 5102 04f6 FFF7FEFF 		bl	__aeabi_f2d
 5103              	.LVL356:
 5104 04fa 0246     		mov	r2, r0
 5105 04fc 0B46     		mov	r3, r1
 5106 04fe 4D48     		ldr	r0, .L493+8
 5107 0500 FFF7FEFF 		bl	commands_printf
 5108              	.LVL357:
 5109 0504 80E7     		b	.L438
 5110              	.LVL358:
 5111              	.L487:
 5112              	.LBE94:
 5113              	.LBE102:
 5114              	.LBB103:
 5115              	.LBB99:
 5116              		.loc 1 1239 0
 5117 0506 28EE0E8A 		vmul.f32	s16, s16, s28
 5118              	.LVL359:
 5119 050a C8EE2D7A 		vdiv.f32	s15, s16, s27
 5120 050e 17EE900A 		vmov	r0, s15
 5121 0512 FFF7FEFF 		bl	__aeabi_f2d
 5122              	.LVL360:
 5123 0516 0246     		mov	r2, r0
 5124 0518 0B46     		mov	r3, r1
 5125 051a 4846     		mov	r0, r9
 5126 051c FFF7FEFF 		bl	commands_printf
 5127              	.LVL361:
 5128              	.LBE99:
 5129              		.loc 1 1221 0
 5130 0520 013E     		subs	r6, r6, #1
ARM GAS  /tmp/cc50jUqN.s 			page 91


 5131              	.LVL362:
 5132 0522 C3D1     		bne	.L488
 5133              	.LVL363:
 5134              	.L432:
 5135              	.LBE103:
 5136              		.loc 1 1243 0
 5137 0524 F0EE4B0A 		vmov.f32	s1, s22
 5138 0528 B0EE6B0A 		vmov.f32	s0, s23
 5139 052c FFF7FEFF 		bl	atan2f
 5140              	.LVL364:
 5141 0530 DFED3E7A 		vldr.32	s15, .L493
 5142 0534 DFED3E6A 		vldr.32	s13, .L493+4
 5143 0538 60EE277A 		vmul.f32	s15, s0, s15
 5144 053c 87EEA67A 		vdiv.f32	s14, s15, s13
 5145 0540 8BED007A 		vstr.32	s14, [fp]
 5146              		.loc 1 1245 0
 5147 0544 002F     		cmp	r7, #0
 5148 0546 5CD1     		bne	.L489
 5149              	.L444:
 5150              		.loc 1 1249 0
 5151 0548 5846     		mov	r0, fp
 5152 054a FFF7FEFF 		bl	utils_norm_angle
 5153              	.LVL365:
 5154              	.L445:
 5155              		.loc 1 1256 0
 5156 054e 3A48     		ldr	r0, .L493+12
 5157              		.loc 1 1255 0
 5158 0550 3A49     		ldr	r1, .L493+16
 5159 0552 0022     		movs	r2, #0
 5160 0554 0A60     		str	r2, [r1]	@ float
 5161              		.loc 1 1256 0
 5162 0556 0260     		str	r2, [r0]	@ float
 5163              		.loc 1 1257 0
 5164 0558 394A     		ldr	r2, .L493+20
 5165 055a 0023     		movs	r3, #0
 5166 055c 1370     		strb	r3, [r2]
 5167              		.loc 1 1258 0
 5168 055e 394A     		ldr	r2, .L493+24
 5169 0560 0A21     		movs	r1, #10
 5170 0562 1170     		strb	r1, [r2]
 5171              		.loc 1 1259 0
 5172 0564 384A     		ldr	r2, .L493+28
 5173 0566 1370     		strb	r3, [r2]
 5174              		.loc 1 1260 0
 5175 0568 FFF7FEFF 		bl	stop_pwm_hw
 5176              	.LVL366:
 5177              		.loc 1 1263 0
 5178 056c B5EE409A 		vcmp.f32	s18, #0
 5179 0570 DAF80030 		ldr	r3, [r10]
 5180              		.loc 1 1268 0
 5181 0574 0198     		ldr	r0, [sp, #4]
 5182              		.loc 1 1263 0
 5183 0576 F1EE10FA 		vmrs	APSR_nzcv, FPSCR
 5184 057a 14BF     		ite	ne
 5185 057c 0122     		movne	r2, #1
 5186 057e 0022     		moveq	r2, #0
 5187 0580 83F8C020 		strb	r2, [r3, #192]
ARM GAS  /tmp/cc50jUqN.s 			page 92


 5188              		.loc 1 1268 0
 5189 0584 B0EE690A 		vmov.f32	s0, s19
 5190              		.loc 1 1264 0
 5191 0588 83ED2FAA 		vstr.32	s20, [r3, #188]
 5192              		.loc 1 1265 0
 5193 058c C3ED31AA 		vstr.32	s21, [r3, #196]
 5194              		.loc 1 1268 0
 5195 0590 FFF7FEFF 		bl	timeout_configure
 5196              	.LVL367:
 5197              		.loc 1 1271 0
 5198 0594 07B0     		add	sp, sp, #28
 5199              		.cfi_remember_state
 5200              		.cfi_def_cfa_offset 92
 5201              		@ sp needed
 5202 0596 BDEC0E8B 		vldm	sp!, {d8-d14}
 5203              		.cfi_restore 92
 5204              		.cfi_restore 93
 5205              		.cfi_restore 90
 5206              		.cfi_restore 91
 5207              		.cfi_restore 88
 5208              		.cfi_restore 89
 5209              		.cfi_restore 86
 5210              		.cfi_restore 87
 5211              		.cfi_restore 84
 5212              		.cfi_restore 85
 5213              		.cfi_restore 82
 5214              		.cfi_restore 83
 5215              		.cfi_restore 80
 5216              		.cfi_restore 81
 5217              		.cfi_def_cfa_offset 36
 5218              	.LVL368:
 5219 059a BDE8F04F 		pop	{r4, r5, r6, r7, r8, r9, r10, fp, lr}
 5220              		.cfi_restore 14
 5221              		.cfi_restore 11
 5222              		.cfi_restore 10
 5223              		.cfi_restore 9
 5224              		.cfi_restore 8
 5225              		.cfi_restore 7
 5226              		.cfi_restore 6
 5227              		.cfi_restore 5
 5228              		.cfi_restore 4
 5229              		.cfi_def_cfa_offset 0
 5230              	.LVL369:
 5231              		.loc 1 1270 0
 5232 059e FFF7FEBF 		b	mc_interface_unlock
 5233              	.LVL370:
 5234              	.L484:
 5235              		.cfi_restore_state
 5236              		.loc 1 1181 0
 5237 05a2 2A48     		ldr	r0, .L493+32
 5238 05a4 FFF7FEFF 		bl	commands_printf
 5239              	.LVL371:
 5240              	.LBB104:
 5241              		.loc 1 1185 0
 5242 05a8 94ED008A 		vldr.32	s16, [r4]
 5243              	.LVL372:
 5244 05ac DFED287A 		vldr.32	s15, .L493+36
ARM GAS  /tmp/cc50jUqN.s 			page 93


 5245 05b0 B4EEE78A 		vcmpe.f32	s16, s15
 5246 05b4 F1EE10FA 		vmrs	APSR_nzcv, FPSCR
 5247 05b8 3FF586AE 		bmi	.L430
 5248              	.L434:
 5249              	.LBE104:
 5250              		.loc 1 1191 0
 5251 05bc 2548     		ldr	r0, .L493+40
 5252 05be FFF7FEFF 		bl	commands_printf
 5253              	.LVL373:
 5254              		.loc 1 1192 0
 5255 05c2 FFF7FEFF 		bl	encoder_read_deg
 5256              	.LVL374:
 5257 05c6 10EE100A 		vmov	r0, s0
 5258 05ca FFF7FEFF 		bl	__aeabi_f2d
 5259              	.LVL375:
 5260 05ce 0246     		mov	r2, r0
 5261 05d0 0B46     		mov	r3, r1
 5262 05d2 2148     		ldr	r0, .L493+44
 5263 05d4 FFF7FEFF 		bl	commands_printf
 5264              	.LVL376:
 5265 05d8 DAF80030 		ldr	r3, [r10]
 5266              		.loc 1 1195 0
 5267 05dc D3ED317A 		vldr.32	s15, [r3, #196]
 5268 05e0 B0EE087A 		vmov.f32	s14, #3.0e+0
 5269 05e4 67EE877A 		vmul.f32	s15, s15, s14
 5270 05e8 FDEEE77A 		vcvt.s32.f32	s15, s15
 5271 05ec 17EE909A 		vmov	r9, s15	@ int
 5272              	.LVL377:
 5273              	.LBB105:
 5274              		.loc 1 1199 0
 5275 05f0 B9F1000F 		cmp	r9, #0
 5276 05f4 3FF78BAE 		bgt	.L431
 5277              	.LBE105:
 5278              		.loc 1 1197 0
 5279 05f8 9FED18BA 		vldr.32	s22, .L493+48
 5280              		.loc 1 1196 0
 5281 05fc F0EE4BBA 		vmov.f32	s23, s22
 5282 0600 90E7     		b	.L432
 5283              	.LVL378:
 5284              	.L489:
 5285              		.loc 1 1246 0
 5286 0602 17EE100A 		vmov	r0, s14
 5287 0606 FFF7FEFF 		bl	__aeabi_f2d
 5288              	.LVL379:
 5289 060a 0246     		mov	r2, r0
 5290 060c 0B46     		mov	r3, r1
 5291 060e 1448     		ldr	r0, .L493+52
 5292 0610 FFF7FEFF 		bl	commands_printf
 5293              	.LVL380:
 5294              		.loc 1 1249 0
 5295 0614 5846     		mov	r0, fp
 5296 0616 FFF7FEFF 		bl	utils_norm_angle
 5297              	.LVL381:
 5298              		.loc 1 1252 0
 5299 061a 1248     		ldr	r0, .L493+56
 5300 061c FFF7FEFF 		bl	commands_printf
 5301              	.LVL382:
ARM GAS  /tmp/cc50jUqN.s 			page 94


 5302 0620 95E7     		b	.L445
 5303              	.LVL383:
 5304              	.L485:
 5305              		.loc 1 1243 0
 5306 0622 0023     		movs	r3, #0
 5307 0624 CBF80030 		str	r3, [fp]	@ float
 5308 0628 8EE7     		b	.L444
 5309              	.L494:
 5310 062a 00BF     		.align	2
 5311              	.L493:
 5312 062c 00003443 		.word	1127481344
 5313 0630 DB0F4940 		.word	1078530011
 5314 0634 20000000 		.word	.LC3
 5315 0638 00000000 		.word	.LANCHOR23
 5316 063c 00000000 		.word	.LANCHOR32
 5317 0640 00000000 		.word	.LANCHOR29
 5318 0644 00000000 		.word	.LANCHOR14
 5319 0648 00000000 		.word	.LANCHOR7
 5320 064c 28000000 		.word	.LC4
 5321 0650 DB0FC940 		.word	1086918619
 5322 0654 0C000000 		.word	.LC2
 5323 0658 48000000 		.word	.LC5
 5324 065c 00000000 		.word	0
 5325 0660 54000000 		.word	.LC6
 5326 0664 60000000 		.word	.LC7
 5327 0668 00000000 		.word	.LANCHOR30
 5328              		.cfi_endproc
 5329              	.LFE302:
 5330              		.size	mcpwm_foc_encoder_detect, .-mcpwm_foc_encoder_detect
 5331              		.section	.text.mcpwm_foc_measure_resistance,"ax",%progbits
 5332              		.align	1
 5333              		.p2align 4,,15
 5334              		.global	mcpwm_foc_measure_resistance
 5335              		.syntax unified
 5336              		.thumb
 5337              		.thumb_func
 5338              		.fpu fpv4-sp-d16
 5339              		.type	mcpwm_foc_measure_resistance, %function
 5340              	mcpwm_foc_measure_resistance:
 5341              	.LFB303:
 5342              		.loc 1 1286 0
 5343              		.cfi_startproc
 5344              		@ args = 0, pretend = 0, frame = 8
 5345              		@ frame_needed = 0, uses_anonymous_args = 0
 5346              	.LVL384:
 5347 0000 2DE9F04F 		push	{r4, r5, r6, r7, r8, r9, r10, fp, lr}
 5348              		.cfi_def_cfa_offset 36
 5349              		.cfi_offset 4, -36
 5350              		.cfi_offset 5, -32
 5351              		.cfi_offset 6, -28
 5352              		.cfi_offset 7, -24
 5353              		.cfi_offset 8, -20
 5354              		.cfi_offset 9, -16
 5355              		.cfi_offset 10, -12
 5356              		.cfi_offset 11, -8
 5357              		.cfi_offset 14, -4
 5358 0004 2DED048B 		vpush.64	{d8, d9}
ARM GAS  /tmp/cc50jUqN.s 			page 95


 5359              		.cfi_def_cfa_offset 52
 5360              		.cfi_offset 80, -52
 5361              		.cfi_offset 81, -48
 5362              		.cfi_offset 82, -44
 5363              		.cfi_offset 83, -40
 5364 0008 83B0     		sub	sp, sp, #12
 5365              		.cfi_def_cfa_offset 64
 5366              		.loc 1 1286 0
 5367 000a F0EE408A 		vmov.f32	s17, s0
 5368              		.loc 1 1290 0
 5369 000e 9FED498A 		vldr.32	s16, .L505
 5370              		.loc 1 1289 0
 5371 0012 DFF834A1 		ldr	r10, .L505+20
 5372              		.loc 1 1291 0
 5373 0016 DFF834B1 		ldr	fp, .L505+24
 5374              		.loc 1 1292 0
 5375 001a DFF83491 		ldr	r9, .L505+28
 5376              		.loc 1 1293 0
 5377 001e 464F     		ldr	r7, .L505+4
 5378              		.loc 1 1294 0
 5379 0020 DFF83081 		ldr	r8, .L505+32
 5380              		.loc 1 1306 0
 5381 0024 454D     		ldr	r5, .L505+8
 5382              		.loc 1 1286 0
 5383 0026 0646     		mov	r6, r0
 5384              		.loc 1 1287 0
 5385 0028 FFF7FEFF 		bl	mc_interface_lock
 5386              	.LVL385:
 5387              		.loc 1 1290 0
 5388 002c 444A     		ldr	r2, .L505+12
 5389              		.loc 1 1293 0
 5390 002e 0223     		movs	r3, #2
 5391              		.loc 1 1289 0
 5392 0030 0121     		movs	r1, #1
 5393 0032 8AF80010 		strb	r1, [r10]
 5394              		.loc 1 1290 0
 5395 0036 82ED008A 		vstr.32	s16, [r2]
 5396              		.loc 1 1291 0
 5397 003a 8BED008A 		vstr.32	s16, [fp]
 5398              		.loc 1 1292 0
 5399 003e C9ED008A 		vstr.32	s17, [r9]
 5400              		.loc 1 1293 0
 5401 0042 3B70     		strb	r3, [r7]
 5402              		.loc 1 1294 0
 5403 0044 88F80030 		strb	r3, [r8]
 5404              		.loc 1 1297 0
 5405 0048 FFF7FEFF 		bl	timeout_get_timeout_msec
 5406              	.LVL386:
 5407 004c 0190     		str	r0, [sp, #4]
 5408              	.LVL387:
 5409              		.loc 1 1298 0
 5410 004e FFF7FEFF 		bl	timeout_get_brake_current
 5411              	.LVL388:
 5412 0052 F0EE408A 		vmov.f32	s17, s0
 5413              	.LVL389:
 5414              		.loc 1 1299 0
 5415 0056 FFF7FEFF 		bl	timeout_reset
ARM GAS  /tmp/cc50jUqN.s 			page 96


 5416              	.LVL390:
 5417              		.loc 1 1300 0
 5418 005a B0EE480A 		vmov.f32	s0, s16
 5419 005e 4EF66020 		movw	r0, #60000
 5420 0062 FFF7FEFF 		bl	timeout_configure
 5421              	.LVL391:
 5422              		.loc 1 1303 0
 5423 0066 41F28830 		movw	r0, #5000
 5424 006a FFF7FEFF 		bl	chThdSleep
 5425              	.LVL392:
 5426              		.loc 1 1308 0
 5427 006e 0023     		movs	r3, #0
 5428              		.loc 1 1306 0
 5429 0070 85ED018A 		vstr.32	s16, [r5, #4]
 5430              		.loc 1 1311 0
 5431 0074 42F21174 		movw	r4, #10001
 5432              		.loc 1 1307 0
 5433 0078 85ED028A 		vstr.32	s16, [r5, #8]
 5434              		.loc 1 1308 0
 5435 007c 2B60     		str	r3, [r5]
 5436              	.LVL393:
 5437              		.loc 1 1311 0
 5438 007e 06E0     		b	.L496
 5439              	.LVL394:
 5440              	.L499:
 5441              		.loc 1 1312 0
 5442 0080 FFF7FEFF 		bl	chThdSleep
 5443              	.LVL395:
 5444              		.loc 1 1315 0
 5445 0084 013C     		subs	r4, r4, #1
 5446              	.LVL396:
 5447 0086 07D0     		beq	.L500
 5448              		.loc 1 1319 0
 5449 0088 FFF7FEFF 		bl	mc_interface_get_fault
 5450              	.LVL397:
 5451 008c A0BB     		cbnz	r0, .L504
 5452              	.LVL398:
 5453              	.L496:
 5454              		.loc 1 1311 0
 5455 008e 2B68     		ldr	r3, [r5]
 5456 0090 B342     		cmp	r3, r6
 5457              		.loc 1 1312 0
 5458 0092 4FF00A00 		mov	r0, #10
 5459              		.loc 1 1311 0
 5460 0096 F3DB     		blt	.L499
 5461              	.LVL399:
 5462              	.L500:
 5463              		.loc 1 1334 0
 5464 0098 95ED016A 		vldr.32	s12, [r5, #4]
 5465 009c 95ED007A 		vldr.32	s14, [r5]	@ int
 5466              		.loc 1 1335 0
 5467 00a0 D5ED026A 		vldr.32	s13, [r5, #8]
 5468 00a4 D5ED007A 		vldr.32	s15, [r5]	@ int
 5469              		.loc 1 1334 0
 5470 00a8 B8EEC77A 		vcvt.f32.s32	s14, s14
 5471              		.loc 1 1335 0
 5472 00ac F8EEE77A 		vcvt.f32.s32	s15, s15
ARM GAS  /tmp/cc50jUqN.s 			page 97


 5473              		.loc 1 1334 0
 5474 00b0 86EE078A 		vdiv.f32	s16, s12, s14
 5475              	.LVL400:
 5476              		.loc 1 1338 0
 5477 00b4 0022     		movs	r2, #0
 5478              		.loc 1 1340 0
 5479 00b6 0023     		movs	r3, #0
 5480              		.loc 1 1341 0
 5481 00b8 0A21     		movs	r1, #10
 5482              		.loc 1 1338 0
 5483 00ba CBF80020 		str	r2, [fp]	@ float
 5484              		.loc 1 1339 0
 5485 00be C9F80020 		str	r2, [r9]	@ float
 5486              		.loc 1 1340 0
 5487 00c2 8AF80030 		strb	r3, [r10]
 5488              		.loc 1 1341 0
 5489 00c6 3970     		strb	r1, [r7]
 5490              		.loc 1 1342 0
 5491 00c8 88F80030 		strb	r3, [r8]
 5492              		.loc 1 1335 0
 5493 00cc 86EEA79A 		vdiv.f32	s18, s13, s15
 5494              	.LVL401:
 5495              		.loc 1 1343 0
 5496 00d0 FFF7FEFF 		bl	stop_pwm_hw
 5497              	.LVL402:
 5498              		.loc 1 1346 0
 5499 00d4 0198     		ldr	r0, [sp, #4]
 5500 00d6 B0EE680A 		vmov.f32	s0, s17
 5501 00da FFF7FEFF 		bl	timeout_configure
 5502              	.LVL403:
 5503              		.loc 1 1348 0
 5504 00de FFF7FEFF 		bl	mc_interface_unlock
 5505              	.LVL404:
 5506              		.loc 1 1350 0
 5507 00e2 89EE080A 		vdiv.f32	s0, s18, s16
 5508 00e6 DFED177A 		vldr.32	s15, .L505+16
 5509 00ea 20EE270A 		vmul.f32	s0, s0, s15
 5510              		.loc 1 1351 0
 5511 00ee 03B0     		add	sp, sp, #12
 5512              		.cfi_remember_state
 5513              		.cfi_def_cfa_offset 52
 5514              		@ sp needed
 5515 00f0 BDEC048B 		vldm	sp!, {d8-d9}
 5516              		.cfi_restore 82
 5517              		.cfi_restore 83
 5518              		.cfi_restore 80
 5519              		.cfi_restore 81
 5520              		.cfi_def_cfa_offset 36
 5521              	.LVL405:
 5522 00f4 BDE8F08F 		pop	{r4, r5, r6, r7, r8, r9, r10, fp, pc}
 5523              	.LVL406:
 5524              	.L504:
 5525              		.cfi_restore_state
 5526              		.loc 1 1320 0
 5527 00f8 9FED0E8A 		vldr.32	s16, .L505
 5528              		.loc 1 1322 0
 5529 00fc 0023     		movs	r3, #0
ARM GAS  /tmp/cc50jUqN.s 			page 98


 5530              		.loc 1 1323 0
 5531 00fe 0A22     		movs	r2, #10
 5532              		.loc 1 1320 0
 5533 0100 8BED008A 		vstr.32	s16, [fp]
 5534              		.loc 1 1321 0
 5535 0104 89ED008A 		vstr.32	s16, [r9]
 5536              		.loc 1 1322 0
 5537 0108 8AF80030 		strb	r3, [r10]
 5538              		.loc 1 1323 0
 5539 010c 3A70     		strb	r2, [r7]
 5540              		.loc 1 1324 0
 5541 010e 88F80030 		strb	r3, [r8]
 5542              		.loc 1 1325 0
 5543 0112 FFF7FEFF 		bl	stop_pwm_hw
 5544              	.LVL407:
 5545              		.loc 1 1327 0
 5546 0116 B0EE680A 		vmov.f32	s0, s17
 5547 011a 0198     		ldr	r0, [sp, #4]
 5548 011c FFF7FEFF 		bl	timeout_configure
 5549              	.LVL408:
 5550              		.loc 1 1328 0
 5551 0120 FFF7FEFF 		bl	mc_interface_unlock
 5552              	.LVL409:
 5553              		.loc 1 1330 0
 5554 0124 B0EE480A 		vmov.f32	s0, s16
 5555              		.loc 1 1351 0
 5556 0128 03B0     		add	sp, sp, #12
 5557              		.cfi_def_cfa_offset 52
 5558              		@ sp needed
 5559 012a BDEC048B 		vldm	sp!, {d8-d9}
 5560              		.cfi_restore 82
 5561              		.cfi_restore 83
 5562              		.cfi_restore 80
 5563              		.cfi_restore 81
 5564              		.cfi_def_cfa_offset 36
 5565 012e BDE8F08F 		pop	{r4, r5, r6, r7, r8, r9, r10, fp, pc}
 5566              	.LVL410:
 5567              	.L506:
 5568 0132 00BF     		.align	2
 5569              	.L505:
 5570 0134 00000000 		.word	0
 5571 0138 00000000 		.word	.LANCHOR14
 5572 013c 00000000 		.word	.LANCHOR17
 5573 0140 00000000 		.word	.LANCHOR30
 5574 0144 ABAA2A3F 		.word	1059760811
 5575 0148 00000000 		.word	.LANCHOR29
 5576 014c 00000000 		.word	.LANCHOR32
 5577 0150 00000000 		.word	.LANCHOR23
 5578 0154 00000000 		.word	.LANCHOR7
 5579              		.cfi_endproc
 5580              	.LFE303:
 5581              		.size	mcpwm_foc_measure_resistance, .-mcpwm_foc_measure_resistance
 5582              		.section	.text.mcpwm_foc_measure_inductance,"ax",%progbits
 5583              		.align	1
 5584              		.p2align 4,,15
 5585              		.global	mcpwm_foc_measure_inductance
 5586              		.syntax unified
ARM GAS  /tmp/cc50jUqN.s 			page 99


 5587              		.thumb
 5588              		.thumb_func
 5589              		.fpu fpv4-sp-d16
 5590              		.type	mcpwm_foc_measure_inductance, %function
 5591              	mcpwm_foc_measure_inductance:
 5592              	.LFB304:
 5593              		.loc 1 1368 0
 5594              		.cfi_startproc
 5595              		@ args = 0, pretend = 0, frame = 0
 5596              		@ frame_needed = 0, uses_anonymous_args = 0
 5597              	.LVL411:
 5598 0000 2DE9F84F 		push	{r3, r4, r5, r6, r7, r8, r9, r10, fp, lr}
 5599              		.cfi_def_cfa_offset 40
 5600              		.cfi_offset 3, -40
 5601              		.cfi_offset 4, -36
 5602              		.cfi_offset 5, -32
 5603              		.cfi_offset 6, -28
 5604              		.cfi_offset 7, -24
 5605              		.cfi_offset 8, -20
 5606              		.cfi_offset 9, -16
 5607              		.cfi_offset 10, -12
 5608              		.cfi_offset 11, -8
 5609              		.cfi_offset 14, -4
 5610              		.loc 1 1369 0
 5611 0004 394D     		ldr	r5, .L523
 5612              		.loc 1 1368 0
 5613 0006 2DED028B 		vpush.64	{d8}
 5614              		.cfi_def_cfa_offset 48
 5615              		.cfi_offset 80, -48
 5616              		.cfi_offset 81, -44
 5617              		.loc 1 1369 0
 5618 000a DFED398A 		vldr.32	s17, .L523+4
 5619              		.loc 1 1371 0
 5620 000e 0027     		movs	r7, #0
 5621              		.loc 1 1368 0
 5622 0010 8A46     		mov	r10, r1
 5623              		.loc 1 1369 0
 5624 0012 C5ED018A 		vstr.32	s17, [r5, #4]
 5625              		.loc 1 1368 0
 5626 0016 8046     		mov	r8, r0
 5627              		.loc 1 1370 0
 5628 0018 C5ED028A 		vstr.32	s17, [r5, #8]
 5629              		.loc 1 1371 0
 5630 001c 2F60     		str	r7, [r5]
 5631              		.loc 1 1372 0
 5632 001e 85ED040A 		vstr.32	s0, [r5, #16]
 5633              		.loc 1 1375 0
 5634 0022 FFF7FEFF 		bl	timeout_get_timeout_msec
 5635              	.LVL412:
 5636 0026 8346     		mov	fp, r0
 5637              	.LVL413:
 5638              		.loc 1 1376 0
 5639 0028 FFF7FEFF 		bl	timeout_get_brake_current
 5640              	.LVL414:
 5641 002c B0EE408A 		vmov.f32	s16, s0
 5642              	.LVL415:
 5643              		.loc 1 1377 0
ARM GAS  /tmp/cc50jUqN.s 			page 100


 5644 0030 FFF7FEFF 		bl	timeout_reset
 5645              	.LVL416:
 5646              		.loc 1 1378 0
 5647 0034 B0EE680A 		vmov.f32	s0, s17
 5648 0038 4EF66020 		movw	r0, #60000
 5649 003c FFF7FEFF 		bl	timeout_configure
 5650              	.LVL417:
 5651              		.loc 1 1380 0
 5652 0040 FFF7FEFF 		bl	mc_interface_lock
 5653              	.LVL418:
 5654              	.LBB106:
 5655              		.loc 1 1385 0
 5656 0044 B845     		cmp	r8, r7
 5657 0046 10DD     		ble	.L508
 5658              	.LBE106:
 5659              		.loc 1 1384 0
 5660 0048 3C46     		mov	r4, r7
 5661              	.LBB107:
 5662              		.loc 1 1386 0
 5663 004a 4FF00109 		mov	r9, #1
 5664              		.loc 1 1391 0
 5665 004e 4CF25036 		movw	r6, #50000
 5666              	.LVL419:
 5667              	.L512:
 5668              		.loc 1 1386 0
 5669 0052 85F80C90 		strb	r9, [r5, #12]
 5670 0056 02E0     		b	.L509
 5671              	.L522:
 5672              		.loc 1 1394 0
 5673 0058 2B7B     		ldrb	r3, [r5, #12]	@ zero_extendqisi2
 5674 005a 002B     		cmp	r3, #0
 5675 005c 42D0     		beq	.L521
 5676              	.L509:
 5677              		.loc 1 1390 0
 5678 005e 0134     		adds	r4, r4, #1
 5679              	.LVL420:
 5680              		.loc 1 1389 0
 5681 0060 0120     		movs	r0, #1
 5682 0062 FFF7FEFF 		bl	chThdSleep
 5683              	.LVL421:
 5684              		.loc 1 1391 0
 5685 0066 B442     		cmp	r4, r6
 5686 0068 F6DD     		ble	.L522
 5687              	.LVL422:
 5688              	.L508:
 5689              	.LBE107:
 5690              		.loc 1 1404 0
 5691 006a B0EE480A 		vmov.f32	s0, s16
 5692 006e 5846     		mov	r0, fp
 5693 0070 FFF7FEFF 		bl	timeout_configure
 5694              	.LVL423:
 5695              		.loc 1 1406 0
 5696 0074 FFF7FEFF 		bl	mc_interface_unlock
 5697              	.LVL424:
 5698              		.loc 1 1410 0
 5699 0078 1E4B     		ldr	r3, .L523+8
 5700              		.loc 1 1408 0
ARM GAS  /tmp/cc50jUqN.s 			page 101


 5701 007a D5ED014A 		vldr.32	s9, [r5, #4]
 5702 007e D5ED006A 		vldr.32	s13, [r5]	@ int
 5703              		.loc 1 1409 0
 5704 0082 95ED025A 		vldr.32	s10, [r5, #8]
 5705 0086 95ED007A 		vldr.32	s14, [r5]	@ int
 5706              		.loc 1 1410 0
 5707 008a D3ED0B7A 		vldr.32	s15, [r3, #44]	@ int
 5708 008e 95ED046A 		vldr.32	s12, [r5, #16]
 5709 0092 9FED194A 		vldr.32	s8, .L523+12
 5710 0096 DFED195A 		vldr.32	s11, .L523+16
 5711 009a F8EE677A 		vcvt.f32.u32	s15, s15
 5712              		.loc 1 1408 0
 5713 009e F8EEE66A 		vcvt.f32.s32	s13, s13
 5714              		.loc 1 1410 0
 5715 00a2 67EE867A 		vmul.f32	s15, s15, s12
 5716              		.loc 1 1409 0
 5717 00a6 B8EEC77A 		vcvt.f32.s32	s14, s14
 5718              		.loc 1 1410 0
 5719 00aa 87EE846A 		vdiv.f32	s12, s15, s8
 5720              		.loc 1 1408 0
 5721 00ae 84EEA64A 		vdiv.f32	s8, s9, s13
 5722              	.LVL425:
 5723              		.loc 1 1409 0
 5724 00b2 C5EE077A 		vdiv.f32	s15, s10, s14
 5725              	.LVL426:
 5726              		.loc 1 1410 0
 5727 00b6 36EE656A 		vsub.f32	s12, s12, s11
 5728              	.LVL427:
 5729              		.loc 1 1413 0
 5730 00ba BAF1000F 		cmp	r10, #0
 5731 00be 01D0     		beq	.L511
 5732              		.loc 1 1414 0
 5733 00c0 8AED004A 		vstr.32	s8, [r10]
 5734              	.L511:
 5735              		.loc 1 1417 0
 5736 00c4 27EE866A 		vmul.f32	s12, s15, s12
 5737              	.LVL428:
 5738              		.loc 1 1418 0
 5739 00c8 BDEC028B 		vldm	sp!, {d8}
 5740              		.cfi_remember_state
 5741              		.cfi_restore 80
 5742              		.cfi_restore 81
 5743              		.cfi_def_cfa_offset 40
 5744              	.LVL429:
 5745              		.loc 1 1417 0
 5746 00cc 86EE040A 		vdiv.f32	s0, s12, s8
 5747 00d0 9FED0B7A 		vldr.32	s14, .L523+20
 5748 00d4 DFED0B7A 		vldr.32	s15, .L523+24
 5749              	.LVL430:
 5750 00d8 20EE070A 		vmul.f32	s0, s0, s14
 5751 00dc 20EE270A 		vmul.f32	s0, s0, s15
 5752              		.loc 1 1418 0
 5753 00e0 BDE8F88F 		pop	{r3, r4, r5, r6, r7, r8, r9, r10, fp, pc}
 5754              	.LVL431:
 5755              	.L521:
 5756              		.cfi_restore_state
 5757              	.LBB108:
ARM GAS  /tmp/cc50jUqN.s 			page 102


 5758              		.loc 1 1385 0
 5759 00e4 0137     		adds	r7, r7, #1
 5760              	.LVL432:
 5761 00e6 B845     		cmp	r8, r7
 5762 00e8 B3D1     		bne	.L512
 5763 00ea BEE7     		b	.L508
 5764              	.L524:
 5765              		.align	2
 5766              	.L523:
 5767 00ec 00000000 		.word	.LANCHOR17
 5768 00f0 00000000 		.word	0
 5769 00f4 00000140 		.word	1073807360
 5770 00f8 A037204D 		.word	1293957024
 5771 00fc 57BDBF34 		.word	884981079
 5772 0100 00247449 		.word	1232348160
 5773 0104 ABAA2A3F 		.word	1059760811
 5774              	.LBE108:
 5775              		.cfi_endproc
 5776              	.LFE304:
 5777              		.size	mcpwm_foc_measure_inductance, .-mcpwm_foc_measure_inductance
 5778              		.section	.text.mcpwm_foc_measure_inductance_current,"ax",%progbits
 5779              		.align	1
 5780              		.p2align 4,,15
 5781              		.global	mcpwm_foc_measure_inductance_current
 5782              		.syntax unified
 5783              		.thumb
 5784              		.thumb_func
 5785              		.fpu fpv4-sp-d16
 5786              		.type	mcpwm_foc_measure_inductance_current, %function
 5787              	mcpwm_foc_measure_inductance_current:
 5788              	.LFB305:
 5789              		.loc 1 1437 0
 5790              		.cfi_startproc
 5791              		@ args = 0, pretend = 0, frame = 8
 5792              		@ frame_needed = 0, uses_anonymous_args = 0
 5793              	.LVL433:
 5794 0000 2DE9F041 		push	{r4, r5, r6, r7, r8, lr}
 5795              		.cfi_def_cfa_offset 24
 5796              		.cfi_offset 4, -24
 5797              		.cfi_offset 5, -20
 5798              		.cfi_offset 6, -16
 5799              		.cfi_offset 7, -12
 5800              		.cfi_offset 8, -8
 5801              		.cfi_offset 14, -4
 5802              		.loc 1 1438 0
 5803 0004 384D     		ldr	r5, .L531
 5804              		.loc 1 1442 0
 5805 0006 394A     		ldr	r2, .L531+4
 5806              		.loc 1 1438 0
 5807 0008 2B68     		ldr	r3, [r5]
 5808              		.loc 1 1439 0
 5809 000a 394C     		ldr	r4, .L531+8
 5810              		.loc 1 1438 0
 5811 000c D3F8B470 		ldr	r7, [r3, #180]	@ float
 5812              	.LVL434:
 5813              		.loc 1 1441 0
 5814 0010 384E     		ldr	r6, .L531+12
ARM GAS  /tmp/cc50jUqN.s 			page 103


 5815              		.loc 1 1437 0
 5816 0012 2DED048B 		vpush.64	{d8, d9}
 5817              		.cfi_def_cfa_offset 40
 5818              		.cfi_offset 80, -40
 5819              		.cfi_offset 81, -36
 5820              		.cfi_offset 82, -32
 5821              		.cfi_offset 83, -28
 5822              		.loc 1 1439 0
 5823 0016 C3F8B440 		str	r4, [r3, #180]	@ float
 5824              		.loc 1 1441 0
 5825 001a D3ED2D7A 		vldr.32	s15, [r3, #180]
 5826              		.loc 1 1442 0
 5827 001e 1468     		ldr	r4, [r2]
 5828 0020 354B     		ldr	r3, .L531+16
 5829              	.LBB109:
 5830              		.loc 1 1445 0
 5831 0022 9FED368A 		vldr.32	s16, .L531+20
 5832              	.LBE109:
 5833              		.loc 1 1442 0
 5834 0026 44F00204 		orr	r4, r4, #2
 5835 002a 1460     		str	r4, [r2]
 5836 002c 1C68     		ldr	r4, [r3]
 5837              		.loc 1 1441 0
 5838 002e FDEEE77A 		vcvt.s32.f32	s15, s15
 5839              		.loc 1 1442 0
 5840 0032 44F00204 		orr	r4, r4, #2
 5841 0036 1C60     		str	r4, [r3]
 5842              		.loc 1 1441 0
 5843 0038 17EE904A 		vmov	r4, s15	@ int
 5844              		.loc 1 1442 0
 5845 003c 4FF0020C 		mov	ip, #2
 5846              		.loc 1 1441 0
 5847 0040 96FBF4F4 		sdiv	r4, r6, r4
 5848              	.LVL435:
 5849              		.loc 1 1442 0
 5850 0044 D462     		str	r4, [r2, #44]
 5851 0046 C3F834C0 		str	ip, [r3, #52]
 5852 004a 1468     		ldr	r4, [r2]
 5853              	.LVL436:
 5854 004c 24F00204 		bic	r4, r4, #2
 5855 0050 1460     		str	r4, [r2]
 5856 0052 1A68     		ldr	r2, [r3]
 5857 0054 22F00202 		bic	r2, r2, #2
 5858              		.loc 1 1437 0
 5859 0058 82B0     		sub	sp, sp, #8
 5860              		.cfi_def_cfa_offset 48
 5861              		.loc 1 1437 0
 5862 005a F0EE408A 		vmov.f32	s17, s0
 5863 005e 0646     		mov	r6, r0
 5864              	.LVL437:
 5865 0060 8846     		mov	r8, r1
 5866              		.loc 1 1442 0
 5867 0062 1A60     		str	r2, [r3]
 5868              	.LVL438:
 5869 0064 0824     		movs	r4, #8
 5870              	.LBB111:
 5871              		.loc 1 1445 0
ARM GAS  /tmp/cc50jUqN.s 			page 104


 5872 0066 B7EE089A 		vmov.f32	s18, #1.5e+0
 5873              	.LVL439:
 5874              	.L527:
 5875              	.LBB110:
 5876              		.loc 1 1447 0
 5877 006a 01A9     		add	r1, sp, #4
 5878 006c 0A20     		movs	r0, #10
 5879 006e B0EE480A 		vmov.f32	s0, s16
 5880 0072 FFF7FEFF 		bl	mcpwm_foc_measure_inductance
 5881              	.LVL440:
 5882              		.loc 1 1450 0
 5883 0076 DDED017A 		vldr.32	s15, [sp, #4]
 5884 007a F4EEE87A 		vcmpe.f32	s15, s17
 5885 007e F1EE10FA 		vmrs	APSR_nzcv, FPSCR
 5886 0082 06DA     		bge	.L528
 5887              	.LBE110:
 5888              		.loc 1 1445 0
 5889 0084 013C     		subs	r4, r4, #1
 5890 0086 68EE097A 		vmul.f32	s15, s16, s18
 5891              	.LVL441:
 5892 008a 02D0     		beq	.L528
 5893 008c B0EE678A 		vmov.f32	s16, s15
 5894              	.LVL442:
 5895 0090 EBE7     		b	.L527
 5896              	.LVL443:
 5897              	.L528:
 5898              	.LBE111:
 5899              		.loc 1 1455 0
 5900 0092 4146     		mov	r1, r8
 5901 0094 3046     		mov	r0, r6
 5902 0096 B0EE480A 		vmov.f32	s0, s16
 5903 009a FFF7FEFF 		bl	mcpwm_foc_measure_inductance
 5904              	.LVL444:
 5905              		.loc 1 1457 0
 5906 009e 2B68     		ldr	r3, [r5]
 5907              		.loc 1 1459 0
 5908 00a0 124A     		ldr	r2, .L531+4
 5909              		.loc 1 1457 0
 5910 00a2 C3F8B470 		str	r7, [r3, #180]	@ float
 5911              		.loc 1 1458 0
 5912 00a6 D3ED2D7A 		vldr.32	s15, [r3, #180]
 5913              		.loc 1 1459 0
 5914 00aa 1168     		ldr	r1, [r2]
 5915 00ac 124B     		ldr	r3, .L531+16
 5916              		.loc 1 1458 0
 5917 00ae 1148     		ldr	r0, .L531+12
 5918              		.loc 1 1459 0
 5919 00b0 41F00201 		orr	r1, r1, #2
 5920 00b4 1160     		str	r1, [r2]
 5921 00b6 1968     		ldr	r1, [r3]
 5922 00b8 0224     		movs	r4, #2
 5923              		.loc 1 1458 0
 5924 00ba FDEEE77A 		vcvt.s32.f32	s15, s15
 5925              		.loc 1 1459 0
 5926 00be 2143     		orrs	r1, r1, r4
 5927 00c0 1960     		str	r1, [r3]
 5928              		.loc 1 1458 0
ARM GAS  /tmp/cc50jUqN.s 			page 105


 5929 00c2 17EE901A 		vmov	r1, s15	@ int
 5930 00c6 90FBF1F1 		sdiv	r1, r0, r1
 5931              	.LVL445:
 5932              		.loc 1 1459 0
 5933 00ca D162     		str	r1, [r2, #44]
 5934 00cc 5C63     		str	r4, [r3, #52]
 5935 00ce 1168     		ldr	r1, [r2]
 5936              	.LVL446:
 5937 00d0 21F00201 		bic	r1, r1, #2
 5938 00d4 1160     		str	r1, [r2]
 5939 00d6 1A68     		ldr	r2, [r3]
 5940 00d8 22F00202 		bic	r2, r2, #2
 5941 00dc 1A60     		str	r2, [r3]
 5942              		.loc 1 1462 0
 5943 00de 02B0     		add	sp, sp, #8
 5944              		.cfi_def_cfa_offset 40
 5945              		@ sp needed
 5946 00e0 BDEC048B 		vldm	sp!, {d8-d9}
 5947              		.cfi_restore 82
 5948              		.cfi_restore 83
 5949              		.cfi_restore 80
 5950              		.cfi_restore 81
 5951              		.cfi_def_cfa_offset 24
 5952              	.LVL447:
 5953 00e4 BDE8F081 		pop	{r4, r5, r6, r7, r8, pc}
 5954              	.LVL448:
 5955              	.L532:
 5956              		.align	2
 5957              	.L531:
 5958 00e8 00000000 		.word	.LANCHOR0
 5959 00ec 00000140 		.word	1073807360
 5960 00f0 00803B45 		.word	1161527296
 5961 00f4 007A030A 		.word	168000000
 5962 00f8 00040140 		.word	1073808384
 5963 00fc 0AD7A33C 		.word	1017370378
 5964              		.cfi_endproc
 5965              	.LFE305:
 5966              		.size	mcpwm_foc_measure_inductance_current, .-mcpwm_foc_measure_inductance_current
 5967              		.section	.text.mcpwm_foc_measure_res_ind,"ax",%progbits
 5968              		.align	1
 5969              		.p2align 4,,15
 5970              		.global	mcpwm_foc_measure_res_ind
 5971              		.syntax unified
 5972              		.thumb
 5973              		.thumb_func
 5974              		.fpu fpv4-sp-d16
 5975              		.type	mcpwm_foc_measure_res_ind, %function
 5976              	mcpwm_foc_measure_res_ind:
 5977              	.LFB306:
 5978              		.loc 1 1476 0
 5979              		.cfi_startproc
 5980              		@ args = 0, pretend = 0, frame = 0
 5981              		@ frame_needed = 0, uses_anonymous_args = 0
 5982              	.LVL449:
 5983 0000 2DE9F047 		push	{r4, r5, r6, r7, r8, r9, r10, lr}
 5984              		.cfi_def_cfa_offset 32
 5985              		.cfi_offset 4, -32
ARM GAS  /tmp/cc50jUqN.s 			page 106


 5986              		.cfi_offset 5, -28
 5987              		.cfi_offset 6, -24
 5988              		.cfi_offset 7, -20
 5989              		.cfi_offset 8, -16
 5990              		.cfi_offset 9, -12
 5991              		.cfi_offset 10, -8
 5992              		.cfi_offset 14, -4
 5993              		.loc 1 1477 0
 5994 0004 524C     		ldr	r4, .L545
 5995              		.loc 1 1486 0
 5996 0006 534D     		ldr	r5, .L545+4
 5997              		.loc 1 1477 0
 5998 0008 2368     		ldr	r3, [r4]
 5999              		.loc 1 1481 0
 6000 000a 534E     		ldr	r6, .L545+8
 6001              		.loc 1 1482 0
 6002 000c 534A     		ldr	r2, .L545+12
 6003              		.loc 1 1477 0
 6004 000e D3F8B4A0 		ldr	r10, [r3, #180]	@ float
 6005              	.LVL450:
 6006              		.loc 1 1478 0
 6007 0012 D3F8AC90 		ldr	r9, [r3, #172]	@ float
 6008              	.LVL451:
 6009              		.loc 1 1479 0
 6010 0016 D3F8B080 		ldr	r8, [r3, #176]	@ float
 6011              	.LVL452:
 6012              		.loc 1 1485 0
 6013 001a 514F     		ldr	r7, .L545+16
 6014              		.loc 1 1476 0
 6015 001c 2DED048B 		vpush.64	{d8, d9}
 6016              		.cfi_def_cfa_offset 48
 6017              		.cfi_offset 80, -48
 6018              		.cfi_offset 81, -44
 6019              		.cfi_offset 82, -40
 6020              		.cfi_offset 83, -36
 6021              		.loc 1 1483 0
 6022 0020 F7EE008A 		vmov.f32	s17, #1.0e+0
 6023              		.loc 1 1481 0
 6024 0024 C3F8B460 		str	r6, [r3, #180]	@ float
 6025              		.loc 1 1482 0
 6026 0028 C3F8AC20 		str	r2, [r3, #172]	@ float
 6027              		.loc 1 1483 0
 6028 002c C3ED2C8A 		vstr.32	s17, [r3, #176]
 6029              		.loc 1 1485 0
 6030 0030 D3ED2D7A 		vldr.32	s15, [r3, #180]
 6031              		.loc 1 1486 0
 6032 0034 2E68     		ldr	r6, [r5]
 6033 0036 4B4A     		ldr	r2, .L545+20
 6034 0038 46F00206 		orr	r6, r6, #2
 6035 003c 2E60     		str	r6, [r5]
 6036 003e 1668     		ldr	r6, [r2]
 6037              		.loc 1 1485 0
 6038 0040 FDEEE77A 		vcvt.s32.f32	s15, s15
 6039              		.loc 1 1486 0
 6040 0044 46F00206 		orr	r6, r6, #2
 6041 0048 1660     		str	r6, [r2]
 6042              		.loc 1 1485 0
ARM GAS  /tmp/cc50jUqN.s 			page 107


 6043 004a 17EE906A 		vmov	r6, s15	@ int
 6044              		.loc 1 1486 0
 6045 004e 4FF0020C 		mov	ip, #2
 6046              		.loc 1 1485 0
 6047 0052 97FBF6F6 		sdiv	r6, r7, r6
 6048              	.LVL453:
 6049              		.loc 1 1486 0
 6050 0056 EE62     		str	r6, [r5, #44]
 6051 0058 C2F834C0 		str	ip, [r2, #52]
 6052 005c 2E68     		ldr	r6, [r5]
 6053              	.LVL454:
 6054 005e 26F00206 		bic	r6, r6, #2
 6055 0062 2E60     		str	r6, [r5]
 6056 0064 1568     		ldr	r5, [r2]
 6057 0066 25F00205 		bic	r5, r5, #2
 6058 006a 1560     		str	r5, [r2]
 6059              	.LVL455:
 6060              	.LBB112:
 6061              		.loc 1 1489 0
 6062 006c D3ED017A 		vldr.32	s15, [r3, #4]
 6063              	.LVL456:
 6064 0070 B6EE007A 		vmov.f32	s14, #5.0e-1
 6065 0074 67EE877A 		vmul.f32	s15, s15, s14
 6066 0078 B0EE008A 		vmov.f32	s16, #2.0e+0
 6067 007c F4EEC87A 		vcmpe.f32	s15, s16
 6068 0080 F1EE10FA 		vmrs	APSR_nzcv, FPSCR
 6069              	.LBE112:
 6070              		.loc 1 1476 0
 6071 0084 0646     		mov	r6, r0
 6072 0086 0D46     		mov	r5, r1
 6073              	.LBB113:
 6074              		.loc 1 1489 0
 6075 0088 24DD     		ble	.L534
 6076 008a B7EE089A 		vmov.f32	s18, #1.5e+0
 6077 008e 0BE0     		b	.L537
 6078              	.LVL457:
 6079              	.L544:
 6080              		.loc 1 1489 0 is_stmt 0 discriminator 2
 6081 0090 2368     		ldr	r3, [r4]
 6082 0092 D3ED017A 		vldr.32	s15, [r3, #4]
 6083 0096 28EE098A 		vmul.f32	s16, s16, s18
 6084              	.LVL458:
 6085 009a 67EE877A 		vmul.f32	s15, s15, s14
 6086 009e F4EEC87A 		vcmpe.f32	s15, s16
 6087 00a2 F1EE10FA 		vmrs	APSR_nzcv, FPSCR
 6088 00a6 15DD     		ble	.L534
 6089              	.LVL459:
 6090              	.L537:
 6091              		.loc 1 1490 0 is_stmt 1
 6092 00a8 1420     		movs	r0, #20
 6093 00aa B0EE480A 		vmov.f32	s0, s16
 6094 00ae FFF7FEFF 		bl	mcpwm_foc_measure_resistance
 6095              	.LVL460:
 6096 00b2 88EE800A 		vdiv.f32	s0, s17, s0
 6097              		.loc 1 1489 0
 6098 00b6 B6EE007A 		vmov.f32	s14, #5.0e-1
 6099              		.loc 1 1490 0
ARM GAS  /tmp/cc50jUqN.s 			page 108


 6100 00ba B4EEC80A 		vcmpe.f32	s0, s16
 6101 00be F1EE10FA 		vmrs	APSR_nzcv, FPSCR
 6102 00c2 E5D5     		bpl	.L544
 6103              	.LVL461:
 6104              	.LBE113:
 6105              		.loc 1 1496 0
 6106 00c4 DFED287A 		vldr.32	s15, .L545+24
 6107 00c8 B4EEE78A 		vcmpe.f32	s16, s15
 6108 00cc F1EE10FA 		vmrs	APSR_nzcv, FPSCR
 6109 00d0 06D5     		bpl	.L538
 6110 00d2 2368     		ldr	r3, [r4]
 6111              	.LVL462:
 6112              	.L534:
 6113              		.loc 1 1497 0
 6114 00d4 93ED018A 		vldr.32	s16, [r3, #4]
 6115 00d8 F6EE007A 		vmov.f32	s15, #5.0e-1
 6116 00dc 28EE278A 		vmul.f32	s16, s16, s15
 6117              	.LVL463:
 6118              	.L538:
 6119              		.loc 1 1504 0
 6120 00e0 C820     		movs	r0, #200
 6121 00e2 B0EE480A 		vmov.f32	s0, s16
 6122 00e6 FFF7FEFF 		bl	mcpwm_foc_measure_resistance
 6123              	.LVL464:
 6124              		.loc 1 1505 0
 6125 00ea 0021     		movs	r1, #0
 6126              		.loc 1 1504 0
 6127 00ec 86ED000A 		vstr.32	s0, [r6]
 6128              		.loc 1 1505 0
 6129 00f0 C820     		movs	r0, #200
 6130 00f2 B0EE480A 		vmov.f32	s0, s16
 6131 00f6 FFF7FEFF 		bl	mcpwm_foc_measure_inductance_current
 6132              	.LVL465:
 6133              		.loc 1 1507 0
 6134 00fa 2368     		ldr	r3, [r4]
 6135              		.loc 1 1512 0
 6136 00fc 154A     		ldr	r2, .L545+4
 6137              		.loc 1 1505 0
 6138 00fe 85ED000A 		vstr.32	s0, [r5]
 6139              		.loc 1 1507 0
 6140 0102 C3F8B4A0 		str	r10, [r3, #180]	@ float
 6141              		.loc 1 1508 0
 6142 0106 C3F8AC90 		str	r9, [r3, #172]	@ float
 6143              		.loc 1 1509 0
 6144 010a C3F8B080 		str	r8, [r3, #176]	@ float
 6145              		.loc 1 1511 0
 6146 010e D3ED2D7A 		vldr.32	s15, [r3, #180]
 6147              		.loc 1 1512 0
 6148 0112 1168     		ldr	r1, [r2]
 6149 0114 134B     		ldr	r3, .L545+20
 6150              		.loc 1 1511 0
 6151 0116 1248     		ldr	r0, .L545+16
 6152              		.loc 1 1512 0
 6153 0118 41F00201 		orr	r1, r1, #2
 6154 011c 1160     		str	r1, [r2]
 6155              		.loc 1 1511 0
 6156 011e FDEEE77A 		vcvt.s32.f32	s15, s15
ARM GAS  /tmp/cc50jUqN.s 			page 109


 6157              		.loc 1 1512 0
 6158 0122 1C68     		ldr	r4, [r3]
 6159 0124 0225     		movs	r5, #2
 6160              	.LVL466:
 6161              		.loc 1 1511 0
 6162 0126 17EE901A 		vmov	r1, s15	@ int
 6163              		.loc 1 1512 0
 6164 012a 2C43     		orrs	r4, r4, r5
 6165 012c 1C60     		str	r4, [r3]
 6166              		.loc 1 1511 0
 6167 012e 90FBF1F1 		sdiv	r1, r0, r1
 6168              	.LVL467:
 6169              		.loc 1 1512 0
 6170 0132 D162     		str	r1, [r2, #44]
 6171 0134 5D63     		str	r5, [r3, #52]
 6172 0136 1168     		ldr	r1, [r2]
 6173              	.LVL468:
 6174              		.loc 1 1515 0
 6175 0138 BDEC048B 		vldm	sp!, {d8-d9}
 6176              		.cfi_restore 82
 6177              		.cfi_restore 83
 6178              		.cfi_restore 80
 6179              		.cfi_restore 81
 6180              		.cfi_def_cfa_offset 32
 6181              	.LVL469:
 6182              		.loc 1 1512 0
 6183 013c 21F00201 		bic	r1, r1, #2
 6184 0140 1160     		str	r1, [r2]
 6185 0142 1A68     		ldr	r2, [r3]
 6186 0144 22F00202 		bic	r2, r2, #2
 6187              		.loc 1 1515 0
 6188 0148 0120     		movs	r0, #1
 6189              		.loc 1 1512 0
 6190 014a 1A60     		str	r2, [r3]
 6191              		.loc 1 1515 0
 6192 014c BDE8F087 		pop	{r4, r5, r6, r7, r8, r9, r10, pc}
 6193              	.LVL470:
 6194              	.L546:
 6195              		.align	2
 6196              	.L545:
 6197 0150 00000000 		.word	.LANCHOR0
 6198 0154 00000140 		.word	1073807360
 6199 0158 00401C46 		.word	1176256512
 6200 015c 6F12833A 		.word	981668463
 6201 0160 007A030A 		.word	168000000
 6202 0164 00040140 		.word	1073808384
 6203 0168 0AD7233C 		.word	1008981770
 6204              		.cfi_endproc
 6205              	.LFE306:
 6206              		.size	mcpwm_foc_measure_res_ind, .-mcpwm_foc_measure_res_ind
 6207              		.section	.text.mcpwm_foc_hall_detect,"ax",%progbits
 6208              		.align	1
 6209              		.p2align 4,,15
 6210              		.global	mcpwm_foc_hall_detect
 6211              		.syntax unified
 6212              		.thumb
 6213              		.thumb_func
ARM GAS  /tmp/cc50jUqN.s 			page 110


 6214              		.fpu fpv4-sp-d16
 6215              		.type	mcpwm_foc_hall_detect, %function
 6216              	mcpwm_foc_hall_detect:
 6217              	.LFB307:
 6218              		.loc 1 1530 0
 6219              		.cfi_startproc
 6220              		@ args = 0, pretend = 0, frame = 112
 6221              		@ frame_needed = 0, uses_anonymous_args = 0
 6222              	.LVL471:
 6223 0000 2DE9F04F 		push	{r4, r5, r6, r7, r8, r9, r10, fp, lr}
 6224              		.cfi_def_cfa_offset 36
 6225              		.cfi_offset 4, -36
 6226              		.cfi_offset 5, -32
 6227              		.cfi_offset 6, -28
 6228              		.cfi_offset 7, -24
 6229              		.cfi_offset 8, -20
 6230              		.cfi_offset 9, -16
 6231              		.cfi_offset 10, -12
 6232              		.cfi_offset 11, -8
 6233              		.cfi_offset 14, -4
 6234 0004 2DED048B 		vpush.64	{d8, d9}
 6235              		.cfi_def_cfa_offset 52
 6236              		.cfi_offset 80, -52
 6237              		.cfi_offset 81, -48
 6238              		.cfi_offset 82, -44
 6239              		.cfi_offset 83, -40
 6240 0008 9DB0     		sub	sp, sp, #116
 6241              		.cfi_def_cfa_offset 168
 6242              		.loc 1 1530 0
 6243 000a B0EE408A 		vmov.f32	s16, s0
 6244 000e 0646     		mov	r6, r0
 6245              		.loc 1 1531 0
 6246 0010 FFF7FEFF 		bl	mc_interface_lock
 6247              	.LVL472:
 6248              		.loc 1 1533 0
 6249 0014 8349     		ldr	r1, .L562
 6250              		.loc 1 1535 0
 6251 0016 DFED849A 		vldr.32	s19, .L562+4
 6252              		.loc 1 1534 0
 6253 001a DFF82CB2 		ldr	fp, .L562+36
 6254              		.loc 1 1535 0
 6255 001e DFF82CA2 		ldr	r10, .L562+40
 6256              		.loc 1 1537 0
 6257 0022 824F     		ldr	r7, .L562+8
 6258              		.loc 1 1546 0
 6259 0024 824C     		ldr	r4, .L562+12
 6260              	.LBB114:
 6261              	.LBB115:
 6262              	.LBB116:
 6263              		.loc 1 1559 0
 6264 0026 9FED839A 		vldr.32	s18, .L562+16
 6265 002a DFED838A 		vldr.32	s17, .L562+20
 6266              	.LBE116:
 6267              	.LBE115:
 6268              	.LBE114:
 6269              		.loc 1 1533 0
 6270 002e 0122     		movs	r2, #1
ARM GAS  /tmp/cc50jUqN.s 			page 111


 6271 0030 0A70     		strb	r2, [r1]
 6272              		.loc 1 1536 0
 6273 0032 824A     		ldr	r2, .L562+24
 6274              		.loc 1 1534 0
 6275 0034 8BED008A 		vstr.32	s16, [fp]
 6276              		.loc 1 1536 0
 6277 0038 0223     		movs	r3, #2
 6278              		.loc 1 1535 0
 6279 003a CAED009A 		vstr.32	s19, [r10]
 6280              		.loc 1 1536 0
 6281 003e 1370     		strb	r3, [r2]
 6282              		.loc 1 1537 0
 6283 0040 3B70     		strb	r3, [r7]
 6284              		.loc 1 1540 0
 6285 0042 FFF7FEFF 		bl	timeout_get_timeout_msec
 6286              	.LVL473:
 6287 0046 0190     		str	r0, [sp, #4]
 6288              	.LVL474:
 6289              		.loc 1 1541 0
 6290 0048 FFF7FEFF 		bl	timeout_get_brake_current
 6291              	.LVL475:
 6292 004c B0EE408A 		vmov.f32	s16, s0
 6293              	.LVL476:
 6294              		.loc 1 1542 0
 6295 0050 FFF7FEFF 		bl	timeout_reset
 6296              	.LVL477:
 6297              		.loc 1 1543 0
 6298 0054 B0EE690A 		vmov.f32	s0, s19
 6299 0058 4EF66020 		movw	r0, #60000
 6300 005c FFF7FEFF 		bl	timeout_configure
 6301              	.LVL478:
 6302              		.loc 1 1547 0
 6303 0060 42F21070 		movw	r0, #10000
 6304              		.loc 1 1546 0
 6305 0064 C4ED009A 		vstr.32	s19, [r4]
 6306              		.loc 1 1547 0
 6307 0068 FFF7FEFF 		bl	chThdSleep
 6308              	.LVL479:
 6309              		.loc 1 1552 0
 6310 006c 2022     		movs	r2, #32
 6311 006e 0021     		movs	r1, #0
 6312 0070 04A8     		add	r0, sp, #16
 6313 0072 FFF7FEFF 		bl	memset
 6314              	.LVL480:
 6315              		.loc 1 1553 0
 6316 0076 2022     		movs	r2, #32
 6317 0078 0021     		movs	r1, #0
 6318 007a 0CA8     		add	r0, sp, #48
 6319 007c FFF7FEFF 		bl	memset
 6320              	.LVL481:
 6321              		.loc 1 1554 0
 6322 0080 2022     		movs	r2, #32
 6323 0082 0021     		movs	r1, #0
 6324 0084 14A8     		add	r0, sp, #80
 6325 0086 FFF7FEFF 		bl	memset
 6326              	.LVL482:
 6327 008a 0325     		movs	r5, #3
ARM GAS  /tmp/cc50jUqN.s 			page 112


 6328              	.LVL483:
 6329              	.L548:
 6330              	.LBB121:
 6331              	.LBB120:
 6332              		.loc 1 1558 0
 6333 008c 4FF00009 		mov	r9, #0
 6334              	.LVL484:
 6335              	.L549:
 6336              	.LBB117:
 6337              		.loc 1 1559 0 discriminator 3
 6338 0090 07EE909A 		vmov	s15, r9	@ int
 6339 0094 F8EEE77A 		vcvt.f32.s32	s15, s15
 6340              		.loc 1 1560 0 discriminator 3
 6341 0098 3220     		movs	r0, #50
 6342              		.loc 1 1559 0 discriminator 3
 6343 009a 67EE897A 		vmul.f32	s15, s15, s18
 6344              	.LBE117:
 6345              		.loc 1 1558 0 discriminator 3
 6346 009e 09F10109 		add	r9, r9, #1
 6347              	.LVL485:
 6348              	.LBB118:
 6349              		.loc 1 1559 0 discriminator 3
 6350 00a2 87EEA87A 		vdiv.f32	s14, s15, s17
 6351 00a6 84ED007A 		vstr.32	s14, [r4]
 6352              		.loc 1 1560 0 discriminator 3
 6353 00aa FFF7FEFF 		bl	chThdSleep
 6354              	.LVL486:
 6355              		.loc 1 1562 0 discriminator 3
 6356 00ae FFF7FEFF 		bl	read_hall
 6357              	.LVL487:
 6358              		.loc 1 1564 0 discriminator 3
 6359 00b2 94ED000A 		vldr.32	s0, [r4]
 6360              		.loc 1 1562 0 discriminator 3
 6361 00b6 8046     		mov	r8, r0
 6362              	.LVL488:
 6363              		.loc 1 1564 0 discriminator 3
 6364 00b8 03A9     		add	r1, sp, #12
 6365 00ba 02A8     		add	r0, sp, #8
 6366              	.LVL489:
 6367 00bc FFF7FEFF 		bl	sincosf
 6368              	.LVL490:
 6369              		.loc 1 1565 0 discriminator 3
 6370 00c0 1CAB     		add	r3, sp, #112
 6371 00c2 03EB8800 		add	r0, r3, r8, lsl #2
 6372 00c6 10ED186A 		vldr.32	s12, [r0, #-96]
 6373              		.loc 1 1566 0 discriminator 3
 6374 00ca 10ED107A 		vldr.32	s14, [r0, #-64]
 6375              		.loc 1 1565 0 discriminator 3
 6376 00ce DDED026A 		vldr.32	s13, [sp, #8]
 6377              		.loc 1 1566 0 discriminator 3
 6378 00d2 DDED037A 		vldr.32	s15, [sp, #12]
 6379              		.loc 1 1567 0 discriminator 3
 6380 00d6 50F8203C 		ldr	r3, [r0, #-32]
 6381              		.loc 1 1565 0 discriminator 3
 6382 00da 76EE266A 		vadd.f32	s13, s12, s13
 6383              		.loc 1 1566 0 discriminator 3
 6384 00de 77EE277A 		vadd.f32	s15, s14, s15
ARM GAS  /tmp/cc50jUqN.s 			page 113


 6385              		.loc 1 1567 0 discriminator 3
 6386 00e2 0133     		adds	r3, r3, #1
 6387              	.LBE118:
 6388              		.loc 1 1558 0 discriminator 3
 6389 00e4 B9F5B47F 		cmp	r9, #360
 6390              	.LBB119:
 6391              		.loc 1 1565 0 discriminator 3
 6392 00e8 40ED186A 		vstr.32	s13, [r0, #-96]
 6393              		.loc 1 1566 0 discriminator 3
 6394 00ec 40ED107A 		vstr.32	s15, [r0, #-64]
 6395              		.loc 1 1567 0 discriminator 3
 6396 00f0 40F8203C 		str	r3, [r0, #-32]
 6397              	.LBE119:
 6398              		.loc 1 1558 0 discriminator 3
 6399 00f4 CCD1     		bne	.L549
 6400              	.LVL491:
 6401              	.LBE120:
 6402              		.loc 1 1557 0 discriminator 2
 6403 00f6 013D     		subs	r5, r5, #1
 6404              	.LVL492:
 6405 00f8 C8D1     		bne	.L548
 6406              	.LBE121:
 6407              	.LBB122:
 6408              	.LBB123:
 6409              	.LBB124:
 6410              		.loc 1 1574 0
 6411 00fa 9FED4E9A 		vldr.32	s18, .L562+16
 6412 00fe DFED4E8A 		vldr.32	s17, .L562+20
 6413              	.LBE124:
 6414              	.LBE123:
 6415              	.LBE122:
 6416              	.LBB129:
 6417 0102 0325     		movs	r5, #3
 6418              	.LVL493:
 6419              	.L550:
 6420              	.LBE129:
 6421              	.LBB130:
 6422              	.LBB128:
 6423              		.loc 1 1573 0
 6424 0104 4FF4B479 		mov	r9, #360
 6425              	.LVL494:
 6426              	.L551:
 6427              	.LBB125:
 6428              		.loc 1 1574 0 discriminator 3
 6429 0108 07EE909A 		vmov	s15, r9	@ int
 6430 010c F8EEE77A 		vcvt.f32.s32	s15, s15
 6431              		.loc 1 1575 0 discriminator 3
 6432 0110 3220     		movs	r0, #50
 6433              		.loc 1 1574 0 discriminator 3
 6434 0112 67EE897A 		vmul.f32	s15, s15, s18
 6435              	.LBE125:
 6436              		.loc 1 1573 0 discriminator 3
 6437 0116 09F1FF39 		add	r9, r9, #-1
 6438              	.LVL495:
 6439              	.LBB126:
 6440              		.loc 1 1574 0 discriminator 3
 6441 011a 87EEA87A 		vdiv.f32	s14, s15, s17
ARM GAS  /tmp/cc50jUqN.s 			page 114


 6442 011e 84ED007A 		vstr.32	s14, [r4]
 6443              		.loc 1 1575 0 discriminator 3
 6444 0122 FFF7FEFF 		bl	chThdSleep
 6445              	.LVL496:
 6446              		.loc 1 1577 0 discriminator 3
 6447 0126 FFF7FEFF 		bl	read_hall
 6448              	.LVL497:
 6449              		.loc 1 1579 0 discriminator 3
 6450 012a 94ED000A 		vldr.32	s0, [r4]
 6451              		.loc 1 1577 0 discriminator 3
 6452 012e 8046     		mov	r8, r0
 6453              	.LVL498:
 6454              		.loc 1 1579 0 discriminator 3
 6455 0130 03A9     		add	r1, sp, #12
 6456 0132 02A8     		add	r0, sp, #8
 6457              	.LVL499:
 6458 0134 FFF7FEFF 		bl	sincosf
 6459              	.LVL500:
 6460              		.loc 1 1580 0 discriminator 3
 6461 0138 1CAB     		add	r3, sp, #112
 6462 013a 03EB8800 		add	r0, r3, r8, lsl #2
 6463 013e 10ED186A 		vldr.32	s12, [r0, #-96]
 6464              		.loc 1 1581 0 discriminator 3
 6465 0142 10ED107A 		vldr.32	s14, [r0, #-64]
 6466              		.loc 1 1580 0 discriminator 3
 6467 0146 DDED026A 		vldr.32	s13, [sp, #8]
 6468              		.loc 1 1581 0 discriminator 3
 6469 014a DDED037A 		vldr.32	s15, [sp, #12]
 6470              		.loc 1 1582 0 discriminator 3
 6471 014e 50F8203C 		ldr	r3, [r0, #-32]
 6472              		.loc 1 1580 0 discriminator 3
 6473 0152 76EE266A 		vadd.f32	s13, s12, s13
 6474              		.loc 1 1581 0 discriminator 3
 6475 0156 77EE277A 		vadd.f32	s15, s14, s15
 6476              		.loc 1 1582 0 discriminator 3
 6477 015a 0133     		adds	r3, r3, #1
 6478              	.LBE126:
 6479              		.loc 1 1573 0 discriminator 3
 6480 015c B9F1FF3F 		cmp	r9, #-1
 6481              	.LBB127:
 6482              		.loc 1 1580 0 discriminator 3
 6483 0160 40ED186A 		vstr.32	s13, [r0, #-96]
 6484              		.loc 1 1581 0 discriminator 3
 6485 0164 40ED107A 		vstr.32	s15, [r0, #-64]
 6486              		.loc 1 1582 0 discriminator 3
 6487 0168 40F8203C 		str	r3, [r0, #-32]
 6488              	.LBE127:
 6489              		.loc 1 1573 0 discriminator 3
 6490 016c CCD1     		bne	.L551
 6491              	.LVL501:
 6492              	.LBE128:
 6493              		.loc 1 1572 0 discriminator 2
 6494 016e 013D     		subs	r5, r5, #1
 6495              	.LVL502:
 6496 0170 C8D1     		bne	.L550
 6497              	.LBE130:
 6498              		.loc 1 1586 0
ARM GAS  /tmp/cc50jUqN.s 			page 115


 6499 0172 0023     		movs	r3, #0
 6500 0174 CBF80030 		str	r3, [fp]	@ float
 6501              		.loc 1 1587 0
 6502 0178 CAF80030 		str	r3, [r10]	@ float
 6503              		.loc 1 1588 0
 6504 017c 294B     		ldr	r3, .L562
 6505              	.LBB131:
 6506              	.LBB132:
 6507              		.loc 1 1599 0
 6508 017e DFED2E9A 		vldr.32	s19, .L562+20
 6509              	.LBE132:
 6510              	.LBE131:
 6511              		.loc 1 1588 0
 6512 0182 1D70     		strb	r5, [r3]
 6513              		.loc 1 1589 0
 6514 0184 2D4B     		ldr	r3, .L562+24
 6515              	.LBB136:
 6516              	.LBB133:
 6517              		.loc 1 1599 0
 6518 0186 9FED2B9A 		vldr.32	s18, .L562+16
 6519              		.loc 1 1601 0
 6520 018a DFED2D8A 		vldr.32	s17, .L562+28
 6521              	.LBE133:
 6522              	.LBE136:
 6523              		.loc 1 1589 0
 6524 018e 0A22     		movs	r2, #10
 6525 0190 1A70     		strb	r2, [r3]
 6526              		.loc 1 1590 0
 6527 0192 3D70     		strb	r5, [r7]
 6528              		.loc 1 1591 0
 6529 0194 FFF7FEFF 		bl	stop_pwm_hw
 6530              	.LVL503:
 6531              		.loc 1 1594 0
 6532 0198 B0EE480A 		vmov.f32	s0, s16
 6533 019c 0198     		ldr	r0, [sp, #4]
 6534              	.LBB137:
 6535              	.LBB134:
 6536              		.loc 1 1601 0
 6537 019e 9FED298A 		vldr.32	s16, .L562+32
 6538              	.LVL504:
 6539              	.LBE134:
 6540              	.LBE137:
 6541              		.loc 1 1594 0
 6542 01a2 FFF7FEFF 		bl	timeout_configure
 6543              	.LVL505:
