ARM GAS  /tmp/ccIpp2x8.s 			page 1


   1              		.cpu cortex-m4
   2              		.eabi_attribute 27, 1
   3              		.eabi_attribute 28, 1
   4              		.eabi_attribute 20, 1
   5              		.eabi_attribute 21, 1
   6              		.eabi_attribute 23, 3
   7              		.eabi_attribute 24, 1
   8              		.eabi_attribute 25, 1
   9              		.eabi_attribute 26, 1
  10              		.eabi_attribute 30, 2
  11              		.eabi_attribute 34, 1
  12              		.eabi_attribute 18, 4
  13              		.file	"mpu9150.c"
  14              		.text
  15              	.Ltext0:
  16              		.cfi_sections	.debug_frame
  17              		.section	.text.terminal_status,"ax",%progbits
  18              		.align	1
  19              		.p2align 4,,15
  20              		.syntax unified
  21              		.thumb
  22              		.thumb_func
  23              		.fpu fpv4-sp-d16
  24              		.type	terminal_status, %function
  25              	terminal_status:
  26              	.LFB257:
  27              		.file 1 "imu/mpu9150.c"
  28              		.loc 1 114 0
  29              		.cfi_startproc
  30              		@ args = 0, pretend = 0, frame = 0
  31              		@ frame_needed = 0, uses_anonymous_args = 0
  32              		@ link register save eliminated.
  33              	.LVL0:
  34              		.loc 1 118 0
  35 0000 0A4B     		ldr	r3, .L9
  36 0002 1B78     		ldrb	r3, [r3]	@ zero_extendqisi2
  37 0004 73B1     		cbz	r3, .L2
  38              	.LVL1:
  39              		.loc 1 114 0
  40 0006 30B4     		push	{r4, r5}
  41              		.cfi_def_cfa_offset 8
  42              		.cfi_offset 4, -8
  43              		.cfi_offset 5, -4
  44              	.LBB172:
  45              	.LBB173:
  46              	.LBB174:
  47              	.LBB175:
  48              		.loc 1 139 0
  49 0008 094A     		ldr	r2, .L9+4
  50              	.LBE175:
  51              	.LBE174:
  52              	.LBB177:
  53              	.LBB178:
  54              		.loc 1 167 0
  55 000a 0A4B     		ldr	r3, .L9+8
  56              	.LBE178:
  57              	.LBE177:
ARM GAS  /tmp/ccIpp2x8.s 			page 2


  58              	.LBB180:
  59              	.LBB176:
  60              		.loc 1 139 0
  61 000c 1578     		ldrb	r5, [r2]	@ zero_extendqisi2
  62              	.LBE176:
  63              	.LBE180:
  64              		.loc 1 119 0
  65 000e 0A4C     		ldr	r4, .L9+12
  66 0010 0A49     		ldr	r1, .L9+16
  67              	.LVL2:
  68              	.LBB181:
  69              	.LBB179:
  70              		.loc 1 167 0
  71 0012 1A68     		ldr	r2, [r3]
  72              	.LBE179:
  73              	.LBE181:
  74              		.loc 1 119 0
  75 0014 0A48     		ldr	r0, .L9+20
  76              	.LVL3:
  77              	.LBB182:
  78              	.LBB183:
  79              		.loc 1 167 0
  80 0016 1B68     		ldr	r3, [r3]
  81              	.LBE183:
  82              	.LBE182:
  83              		.loc 1 119 0
  84 0018 002D     		cmp	r5, #0
  85 001a 08BF     		it	eq
  86 001c 2146     		moveq	r1, r4
  87              	.LBE173:
  88              	.LBE172:
  89              		.loc 1 129 0
  90 001e 30BC     		pop	{r4, r5}
  91              		.cfi_restore 5
  92              		.cfi_restore 4
  93              		.cfi_def_cfa_offset 0
  94              	.LBB185:
  95              	.LBB184:
  96              		.loc 1 119 0
  97 0020 FFF7FEBF 		b	commands_printf
  98              	.LVL4:
  99              	.L2:
 100              	.LBE184:
 101              	.LBE185:
 102              		.loc 1 127 0
 103 0024 0748     		ldr	r0, .L9+24
 104              	.LVL5:
 105 0026 FFF7FEBF 		b	commands_printf
 106              	.LVL6:
 107              	.L10:
 108 002a 00BF     		.align	2
 109              	.L9:
 110 002c 00000000 		.word	.LANCHOR0
 111 0030 00000000 		.word	.LANCHOR1
 112 0034 00000000 		.word	.LANCHOR2
 113 0038 08000000 		.word	.LC1
 114 003c 00000000 		.word	.LC0
ARM GAS  /tmp/ccIpp2x8.s 			page 3


 115 0040 10000000 		.word	.LC2
 116 0044 44000000 		.word	.LC3
 117              		.cfi_endproc
 118              	.LFE257:
 119              		.size	terminal_status, .-terminal_status
 120              		.section	.text.read_single_reg.constprop.3,"ax",%progbits
 121              		.align	1
 122              		.p2align 4,,15
 123              		.syntax unified
 124              		.thumb
 125              		.thumb_func
 126              		.fpu fpv4-sp-d16
 127              		.type	read_single_reg.constprop.3, %function
 128              	read_single_reg.constprop.3:
 129              	.LFB278:
 130              		.loc 1 412 0
 131              		.cfi_startproc
 132              		@ args = 0, pretend = 0, frame = 8
 133              		@ frame_needed = 0, uses_anonymous_args = 0
 134              	.LVL7:
 135 0000 10B5     		push	{r4, lr}
 136              		.cfi_def_cfa_offset 8
 137              		.cfi_offset 4, -8
 138              		.cfi_offset 14, -4
 139              		.loc 1 417 0
 140 0002 094B     		ldr	r3, .L15
 141 0004 0948     		ldr	r0, .L15+4
 142 0006 1988     		ldrh	r1, [r3]
 143              		.loc 1 412 0
 144 0008 84B0     		sub	sp, sp, #16
 145              		.cfi_def_cfa_offset 24
 146              		.loc 1 416 0
 147 000a 04AA     		add	r2, sp, #16
 148 000c 7523     		movs	r3, #117
 149 000e 02F8043D 		strb	r3, [r2, #-4]!
 150              		.loc 1 417 0
 151 0012 02AC     		add	r4, sp, #8
 152 0014 0123     		movs	r3, #1
 153 0016 CDE90043 		strd	r4, r3, [sp]
 154 001a FFF7FEFF 		bl	i2c_bb_tx_rx
 155              	.LVL8:
 156              		.loc 1 419 0
 157 001e 08B1     		cbz	r0, .L12
 158              		.loc 1 420 0
 159 0020 9DF80800 		ldrb	r0, [sp, #8]	@ zero_extendqisi2
 160              	.LVL9:
 161              	.L12:
 162              		.loc 1 424 0
 163 0024 04B0     		add	sp, sp, #16
 164              		.cfi_def_cfa_offset 8
 165              		@ sp needed
 166 0026 10BD     		pop	{r4, pc}
 167              	.L16:
 168              		.align	2
 169              	.L15:
 170 0028 00000000 		.word	.LANCHOR3
 171 002c 00000000 		.word	.LANCHOR4
ARM GAS  /tmp/ccIpp2x8.s 			page 4


 172              		.cfi_endproc
 173              	.LFE278:
 174              		.size	read_single_reg.constprop.3, .-read_single_reg.constprop.3
 175              		.section	.text.reset_init_mpu,"ax",%progbits
 176              		.align	1
 177              		.p2align 4,,15
 178              		.syntax unified
 179              		.thumb
 180              		.thumb_func
 181              		.fpu fpv4-sp-d16
 182              		.type	reset_init_mpu, %function
 183              	reset_init_mpu:
 184              	.LFB272:
 185              		.loc 1 320 0
 186              		.cfi_startproc
 187              		@ args = 0, pretend = 0, frame = 0
 188              		@ frame_needed = 0, uses_anonymous_args = 0
 189 0000 F0B5     		push	{r4, r5, r6, r7, lr}
 190              		.cfi_def_cfa_offset 20
 191              		.cfi_offset 4, -20
 192              		.cfi_offset 5, -16
 193              		.cfi_offset 6, -12
 194              		.cfi_offset 7, -8
 195              		.cfi_offset 14, -4
 196              		.loc 1 321 0
 197 0002 3648     		ldr	r0, .L36
 198              		.loc 1 324 0
 199 0004 364D     		ldr	r5, .L36+4
 200              		.loc 1 326 0
 201 0006 374C     		ldr	r4, .L36+8
 202 0008 374E     		ldr	r6, .L36+12
 203              		.loc 1 320 0
 204 000a 83B0     		sub	sp, sp, #12
 205              		.cfi_def_cfa_offset 32
 206              		.loc 1 321 0
 207 000c FFF7FEFF 		bl	i2c_bb_restore_bus
 208              	.LVL10:
 209              		.loc 1 326 0
 210 0010 0023     		movs	r3, #0
 211 0012 2188     		ldrh	r1, [r4]
 212 0014 3148     		ldr	r0, .L36
 213 0016 0193     		str	r3, [sp, #4]
 214              		.loc 1 324 0
 215 0018 40F26B17 		movw	r7, #363
 216              		.loc 1 326 0
 217 001c 0096     		str	r6, [sp]
 218 001e 2A46     		mov	r2, r5
 219 0020 0223     		movs	r3, #2
 220              		.loc 1 324 0
 221 0022 2F80     		strh	r7, [r5]	@ movhi
 222              		.loc 1 326 0
 223 0024 FFF7FEFF 		bl	i2c_bb_tx_rx
 224              	.LVL11:
 225              		.loc 1 329 0
 226 0028 98B9     		cbnz	r0, .L23
 227              		.loc 1 330 0
 228 002a 2388     		ldrh	r3, [r4]
ARM GAS  /tmp/ccIpp2x8.s 			page 5


 229              		.loc 1 339 0
 230 002c 2C4A     		ldr	r2, .L36+4
 231 002e 2B48     		ldr	r0, .L36
 232              	.LVL12:
 233              		.loc 1 330 0
 234 0030 9BB2     		uxth	r3, r3
 235 0032 682B     		cmp	r3, #104
 236              		.loc 1 331 0
 237 0034 0CBF     		ite	eq
 238 0036 6923     		moveq	r3, #105
 239              		.loc 1 333 0
 240 0038 6823     		movne	r3, #104
 241 003a 2380     		strh	r3, [r4]	@ movhi
 242              		.loc 1 339 0
 243 003c 0023     		movs	r3, #0
 244 003e 2188     		ldrh	r1, [r4]
 245 0040 0193     		str	r3, [sp, #4]
 246              		.loc 1 337 0
 247 0042 40F26B17 		movw	r7, #363
 248              		.loc 1 339 0
 249 0046 0096     		str	r6, [sp]
 250 0048 0223     		movs	r3, #2
 251              		.loc 1 337 0
 252 004a 2F80     		strh	r7, [r5]	@ movhi
 253              		.loc 1 339 0
 254 004c FFF7FEFF 		bl	i2c_bb_tx_rx
 255              	.LVL13:
 256              		.loc 1 341 0
 257 0050 68B1     		cbz	r0, .L20
 258              	.L23:
 259              	.LBB188:
 260              	.LBB189:
 261              		.loc 1 349 0
 262 0052 0027     		movs	r7, #0
 263 0054 2188     		ldrh	r1, [r4]
 264 0056 224A     		ldr	r2, .L36+4
 265 0058 0096     		str	r6, [sp]
 266              		.loc 1 347 0
 267 005a 41F61C0C 		movw	ip, #6172
 268              		.loc 1 349 0
 269 005e 0197     		str	r7, [sp, #4]
 270 0060 0223     		movs	r3, #2
 271 0062 1E48     		ldr	r0, .L36
 272              	.LVL14:
 273              		.loc 1 347 0
 274 0064 A5F800C0 		strh	ip, [r5]	@ movhi
 275              		.loc 1 349 0
 276 0068 FFF7FEFF 		bl	i2c_bb_tx_rx
 277              	.LVL15:
 278              		.loc 1 351 0
 279 006c 10B9     		cbnz	r0, .L35
 280              	.LVL16:
 281              	.L20:
 282              	.LBE189:
 283              	.LBE188:
 284              		.loc 1 342 0
 285 006e 0020     		movs	r0, #0
ARM GAS  /tmp/ccIpp2x8.s 			page 6


 286              	.L17:
 287              		.loc 1 387 0
 288 0070 03B0     		add	sp, sp, #12
 289              		.cfi_remember_state
 290              		.cfi_def_cfa_offset 20
 291              		@ sp needed
 292 0072 F0BD     		pop	{r4, r5, r6, r7, pc}
 293              	.LVL17:
 294              	.L35:
 295              		.cfi_restore_state
 296              	.LBB191:
 297              	.LBB190:
 298              		.loc 1 358 0
 299 0074 2188     		ldrh	r1, [r4]
 300 0076 1A4A     		ldr	r2, .L36+4
 301 0078 1848     		ldr	r0, .L36
 302              	.LVL18:
 303              		.loc 1 356 0
 304 007a 41F61B0C 		movw	ip, #6171
 305              		.loc 1 358 0
 306 007e CDE90067 		strd	r6, r7, [sp]
 307 0082 0223     		movs	r3, #2
 308              		.loc 1 356 0
 309 0084 A5F800C0 		strh	ip, [r5]	@ movhi
 310              		.loc 1 358 0
 311 0088 FFF7FEFF 		bl	i2c_bb_tx_rx
 312              	.LVL19:
 313              		.loc 1 360 0
 314 008c 0028     		cmp	r0, #0
 315 008e EED0     		beq	.L20
 316              		.loc 1 367 0
 317 0090 2188     		ldrh	r1, [r4]
 318 0092 134A     		ldr	r2, .L36+4
 319 0094 1148     		ldr	r0, .L36
 320              	.LVL20:
 321              		.loc 1 365 0
 322 0096 4FF01A0C 		mov	ip, #26
 323              		.loc 1 367 0
 324 009a CDE90067 		strd	r6, r7, [sp]
 325 009e 0223     		movs	r3, #2
 326              		.loc 1 365 0
 327 00a0 A5F800C0 		strh	ip, [r5]	@ movhi
 328              		.loc 1 367 0
 329 00a4 FFF7FEFF 		bl	i2c_bb_tx_rx
 330              	.LVL21:
 331              		.loc 1 369 0
 332 00a8 0028     		cmp	r0, #0
 333 00aa E0D0     		beq	.L20
 334              		.loc 1 377 0
 335 00ac 2188     		ldrh	r1, [r4]
 336 00ae 0C4A     		ldr	r2, .L36+4
 337 00b0 0A48     		ldr	r0, .L36
 338              	.LVL22:
 339              		.loc 1 375 0
 340 00b2 40F23724 		movw	r4, #567
 341              		.loc 1 377 0
 342 00b6 CDE90067 		strd	r6, r7, [sp]
ARM GAS  /tmp/ccIpp2x8.s 			page 7


 343 00ba 0223     		movs	r3, #2
 344              		.loc 1 375 0
 345 00bc 2C80     		strh	r4, [r5]	@ movhi
 346              		.loc 1 377 0
 347 00be FFF7FEFF 		bl	i2c_bb_tx_rx
 348              	.LVL23:
 349              		.loc 1 379 0
 350 00c2 0028     		cmp	r0, #0
 351 00c4 D3D0     		beq	.L20
 352              		.loc 1 384 0
 353 00c6 FFF7FEFF 		bl	read_single_reg.constprop.3
 354              	.LVL24:
 355 00ca A0F17100 		sub	r0, #113
 356 00ce 074B     		ldr	r3, .L36+16
 357 00d0 B0FA80F0 		clz	r0, r0
 358 00d4 4009     		lsrs	r0, r0, #5
 359 00d6 1870     		strb	r0, [r3]
 360              		.loc 1 386 0
 361 00d8 0120     		movs	r0, #1
 362 00da C9E7     		b	.L17
 363              	.L37:
 364              		.align	2
 365              	.L36:
 366 00dc 00000000 		.word	.LANCHOR4
 367 00e0 00000000 		.word	.LANCHOR5
 368 00e4 00000000 		.word	.LANCHOR3
 369 00e8 00000000 		.word	.LANCHOR6
 370 00ec 00000000 		.word	.LANCHOR1
 371              	.LBE190:
 372              	.LBE191:
 373              		.cfi_endproc
 374              	.LFE272:
 375              		.size	reset_init_mpu, .-reset_init_mpu
 376              		.section	.text.mpu_thread,"ax",%progbits
 377              		.align	1
 378              		.p2align 4,,15
 379              		.syntax unified
 380              		.thumb
 381              		.thumb_func
 382              		.fpu fpv4-sp-d16
 383              		.type	mpu_thread, %function
 384              	mpu_thread:
 385              	.LFB271:
 386              		.loc 1 231 0
 387              		.cfi_startproc
 388              		@ args = 0, pretend = 0, frame = 8
 389              		@ frame_needed = 0, uses_anonymous_args = 0
 390              	.LVL25:
 391 0000 2DE9F04F 		push	{r4, r5, r6, r7, r8, r9, r10, fp, lr}
 392              		.cfi_def_cfa_offset 36
 393              		.cfi_offset 4, -36
 394              		.cfi_offset 5, -32
 395              		.cfi_offset 6, -28
 396              		.cfi_offset 7, -24
 397              		.cfi_offset 8, -20
 398              		.cfi_offset 9, -16
 399              		.cfi_offset 10, -12
ARM GAS  /tmp/ccIpp2x8.s 			page 8


 400              		.cfi_offset 11, -8
 401              		.cfi_offset 14, -4
 402              	.LBB309:
 403              	.LBB310:
 404              		.file 2 "ChibiOS_3.0.2/os/rt/include/chregistry.h"
 405              		.loc 2 135 0
 406 0004 DFF89092 		ldr	r9, .L67+68
 407              	.LBE310:
 408              	.LBE309:
 409              		.loc 1 235 0
 410 0008 924A     		ldr	r2, .L67
 411              	.LBB312:
 412              	.LBB311:
 413              		.loc 2 135 0
 414 000a D9F81830 		ldr	r3, [r9, #24]
 415 000e 9249     		ldr	r1, .L67+4
 416 0010 9961     		str	r1, [r3, #24]
 417              	.LVL26:
 418              	.LBE311:
 419              	.LBE312:
 420              		.loc 1 235 0
 421 0012 1360     		str	r3, [r2]
 422              	.LVL27:
 423              		.loc 1 231 0
 424 0014 85B0     		sub	sp, sp, #20
 425              		.cfi_def_cfa_offset 56
 426              	.LBB313:
 427              	.LBB314:
 428              	.LBB315:
 429              	.LBB316:
 430              	.LBB317:
 431              	.LBB318:
 432              		.file 3 "ChibiOS_3.0.2/os/ext/CMSIS/include/core_cmFunc.h"
 433              		.loc 3 546 0
 434 0016 2023     		movs	r3, #32
 435              		.syntax unified
 436              	@ 546 "ChibiOS_3.0.2/os/ext/CMSIS/include/core_cmFunc.h" 1
 437 0018 83F31188 		MSR basepri, r3
 438              	@ 0 "" 2
 439              	.LVL28:
 440              		.thumb
 441              		.syntax unified
 442              	.LBE318:
 443              	.LBE317:
 444              	.LBE316:
 445              	.LBE315:
 446              	.LBB319:
 447              	.LBB320:
 448              	.LBB321:
 449              	.LBB322:
 450              	.LBB323:
 451 001c 4FF00008 		mov	r8, #0
 452              	.LBE323:
 453              	.LBE322:
 454              	.LBE321:
 455              	.LBE320:
 456              	.LBE319:
ARM GAS  /tmp/ccIpp2x8.s 			page 9


 457              	.LBB328:
 458              	.LBB329:
 459              		.file 4 "ChibiOS_3.0.2/os/rt/include/chvt.h"
 460              		.loc 4 231 0
 461 0020 D9F82830 		ldr	r3, [r9, #40]
 462              	.LVL29:
 463              	.LBE329:
 464              	.LBE328:
 465              	.LBB330:
 466              	.LBB327:
 467              	.LBB326:
 468              	.LBB325:
 469              	.LBB324:
 470              		.loc 3 546 0
 471              		.syntax unified
 472              	@ 546 "ChibiOS_3.0.2/os/ext/CMSIS/include/core_cmFunc.h" 1
 473 0024 88F31188 		MSR basepri, r8
 474              	@ 0 "" 2
 475              	.LVL30:
 476              		.thumb
 477              		.syntax unified
 478              	.LBE324:
 479              	.LBE325:
 480              	.LBE326:
 481              	.LBE327:
 482              	.LBE330:
 483              	.LBE314:
 484              	.LBE313:
 485              		.loc 1 244 0
 486 0028 DFF870B2 		ldr	fp, .L67+72
 487 002c 8B4C     		ldr	r4, .L67+8
 488 002e 8C4D     		ldr	r5, .L67+12
 489 0030 CBF80030 		str	r3, [fp]
 490              	.LVL31:
 491              	.L39:
 492              	.LBB331:
 493              	.LBB332:
 494              	.LBB333:
 495              		.loc 1 391 0
 496 0034 8B4B     		ldr	r3, .L67+16
 497 0036 8C4A     		ldr	r2, .L67+20
 498 0038 1988     		ldrh	r1, [r3]
 499 003a 8C48     		ldr	r0, .L67+24
 500 003c 0094     		str	r4, [sp]
 501 003e 0E23     		movs	r3, #14
 502              		.loc 1 390 0
 503 0040 3B26     		movs	r6, #59
 504              		.loc 1 391 0
 505 0042 0193     		str	r3, [sp, #4]
 506              		.loc 1 390 0
 507 0044 1670     		strb	r6, [r2]
 508              		.loc 1 391 0
 509 0046 0123     		movs	r3, #1
 510 0048 FFF7FEFF 		bl	i2c_bb_tx_rx
 511              	.LVL32:
 512              		.loc 1 393 0
 513 004c 0646     		mov	r6, r0
ARM GAS  /tmp/ccIpp2x8.s 			page 10


 514 004e 0028     		cmp	r0, #0
 515 0050 37D0     		beq	.L65
 516              	.LVL33:
 517              	.LBB334:
 518              		.loc 1 399 0
 519 0052 94F800C0 		ldrb	ip, [r4]	@ zero_extendqisi2
 520              	.LBE334:
 521              	.LBB335:
 522              		.loc 1 405 0
 523 0056 227A     		ldrb	r2, [r4, #8]	@ zero_extendqisi2
 524 0058 A07A     		ldrb	r0, [r4, #10]	@ zero_extendqisi2
 525              	.LVL34:
 526 005a 237B     		ldrb	r3, [r4, #12]	@ zero_extendqisi2
 527              	.LBE335:
 528              	.LBB336:
 529              		.loc 1 400 0
 530 005c 6178     		ldrb	r1, [r4, #1]	@ zero_extendqisi2
 531              	.LBE336:
 532              	.LBB337:
 533              		.loc 1 406 0
 534 005e 94F809E0 		ldrb	lr, [r4, #9]	@ zero_extendqisi2
 535 0062 E67A     		ldrb	r6, [r4, #11]	@ zero_extendqisi2
 536 0064 677B     		ldrb	r7, [r4, #13]	@ zero_extendqisi2
 537              	.LBE337:
 538              	.LBB338:
 539              		.loc 1 400 0
 540 0066 01EB0C21 		add	r1, r1, ip, lsl #8
 541              	.LBE338:
 542              	.LBB339:
 543              		.loc 1 406 0
 544 006a 0EEB022E 		add	lr, lr, r2, lsl #8
 545 006e 06EB0026 		add	r6, r6, r0, lsl #8
 546 0072 07EB0327 		add	r7, r7, r3, lsl #8
 547              	.LBE339:
 548              	.LBB340:
 549              		.loc 1 399 0
 550 0076 94F802C0 		ldrb	ip, [r4, #2]	@ zero_extendqisi2
 551              		.loc 1 400 0
 552 007a E278     		ldrb	r2, [r4, #3]	@ zero_extendqisi2
 553              		.loc 1 399 0
 554 007c 2079     		ldrb	r0, [r4, #4]	@ zero_extendqisi2
 555              		.loc 1 400 0
 556 007e 6379     		ldrb	r3, [r4, #5]	@ zero_extendqisi2
 557 0080 0FFA81FA 		sxth	r10, r1
 558 0084 03EB0023 		add	r3, r3, r0, lsl #8
 559              	.LBE340:
 560              	.LBB341:
 561              		.loc 1 406 0
 562 0088 1FFA8EF1 		uxth	r1, lr
 563 008c B6B2     		uxth	r6, r6
 564 008e BFB2     		uxth	r7, r7
 565              	.LBE341:
 566              	.LBB342:
 567              		.loc 1 400 0
 568 0090 02EB0C22 		add	r2, r2, ip, lsl #8
 569              	.LBE342:
 570              	.LBB343:
ARM GAS  /tmp/ccIpp2x8.s 			page 11


 571              		.loc 1 406 0
 572 0094 0391     		str	r1, [sp, #12]
 573              		.loc 1 405 0
 574 0096 E980     		strh	r1, [r5, #6]	@ movhi
 575              	.LBE343:
 576              	.LBB344:
 577              		.loc 1 399 0
 578 0098 AB80     		strh	r3, [r5, #4]	@ movhi
 579 009a A5F800A0 		strh	r10, [r5]	@ movhi
 580              	.LVL35:
 581              	.LBE344:
 582              	.LBB345:
 583              		.loc 1 405 0
 584 009e 2E81     		strh	r6, [r5, #8]	@ movhi
 585 00a0 6F81     		strh	r7, [r5, #10]	@ movhi
 586              	.LBE345:
 587              	.LBB346:
 588              		.loc 1 399 0
 589 00a2 6A80     		strh	r2, [r5, #2]	@ movhi
 590              	.LVL36:
 591              	.LBE346:
 592              	.LBE333:
 593              	.LBE332:
 594              	.LBB347:
 595              	.LBB348:
 596              		.loc 1 249 0
 597 00a4 0023     		movs	r3, #0
 598 00a6 5146     		mov	r1, r10
 599              	.LVL37:
 600              	.L44:
 601              		.loc 1 250 0
 602 00a8 714A     		ldr	r2, .L67+28
 603 00aa 32F81320 		ldrh	r2, [r2, r3, lsl #1]
 604 00ae 12B2     		sxth	r2, r2
 605 00b0 8A42     		cmp	r2, r1
 606              		.loc 1 249 0
 607 00b2 03F10103 		add	r3, r3, #1
 608              	.LVL38:
 609              		.loc 1 250 0
 610 00b6 49D1     		bne	.L42
 611              		.loc 1 249 0 discriminator 2
 612 00b8 062B     		cmp	r3, #6
 613 00ba 30D0     		beq	.L43
 614 00bc 35F91310 		ldrsh	r1, [r5, r3, lsl #1]
 615 00c0 F2E7     		b	.L44
 616              	.LVL39:
 617              	.L65:
 618              	.LBE348:
 619              	.LBE347:
 620              		.loc 1 303 0
 621 00c2 6C4A     		ldr	r2, .L67+32
 622 00c4 1368     		ldr	r3, [r2]
 623              		.loc 1 304 0
 624 00c6 0A20     		movs	r0, #10
 625              		.loc 1 303 0
 626 00c8 0133     		adds	r3, r3, #1
 627 00ca 1360     		str	r3, [r2]
ARM GAS  /tmp/ccIpp2x8.s 			page 12


 628              		.loc 1 304 0
 629 00cc FFF7FEFF 		bl	chThdSleep
 630              	.LVL40:
 631              		.loc 1 305 0
 632 00d0 FFF7FEFF 		bl	reset_init_mpu
 633              	.LVL41:
 634              	.LBB403:
 635              	.LBB404:
 636              	.LBB405:
 637              	.LBB406:
 638              	.LBB407:
 639              	.LBB408:
 640              		.loc 3 546 0
 641 00d4 2023     		movs	r3, #32
 642              		.syntax unified
 643              	@ 546 "ChibiOS_3.0.2/os/ext/CMSIS/include/core_cmFunc.h" 1
 644 00d6 83F31188 		MSR basepri, r3
 645              	@ 0 "" 2
 646              	.LVL42:
 647              		.thumb
 648              		.syntax unified
 649              	.LBE408:
 650              	.LBE407:
 651              	.LBE406:
 652              	.LBE405:
 653              	.LBB409:
 654              	.LBB410:
 655              		.loc 4 231 0
 656 00da D9F82830 		ldr	r3, [r9, #40]
 657              	.LVL43:
 658              	.LBE410:
 659              	.LBE409:
 660              	.LBB411:
 661              	.LBB412:
 662              	.LBB413:
 663              	.LBB414:
 664              	.LBB415:
 665              		.loc 3 546 0
 666              		.syntax unified
 667              	@ 546 "ChibiOS_3.0.2/os/ext/CMSIS/include/core_cmFunc.h" 1
 668 00de 86F31188 		MSR basepri, r6
 669              	@ 0 "" 2
 670              	.LVL44:
 671              		.thumb
 672              		.syntax unified
 673              	.L41:
 674              	.LBE415:
 675              	.LBE414:
 676              	.LBE413:
 677              	.LBE412:
 678              	.LBE411:
 679              	.LBE404:
 680              	.LBE403:
 681              		.loc 1 309 0
 682 00e2 3233     		adds	r3, r3, #50
 683 00e4 CBF80030 		str	r3, [fp]
 684              	.LVL45:
ARM GAS  /tmp/ccIpp2x8.s 			page 13


 685              	.LBB416:
 686              	.LBB417:
 687              	.LBB418:
 688              	.LBB419:
 689              	.LBB420:
 690              	.LBB421:
 691              		.loc 3 546 0
 692 00e8 2026     		movs	r6, #32
 693              		.syntax unified
 694              	@ 546 "ChibiOS_3.0.2/os/ext/CMSIS/include/core_cmFunc.h" 1
 695 00ea 86F31188 		MSR basepri, r6
 696              	@ 0 "" 2
 697              	.LVL46:
 698              		.thumb
 699              		.syntax unified
 700              	.LBE421:
 701              	.LBE420:
 702              	.LBE419:
 703              	.LBE418:
 704              	.LBB422:
 705              	.LBB423:
 706              		.loc 4 231 0
 707 00ee D9F82830 		ldr	r3, [r9, #40]
 708              	.LVL47:
 709              	.LBE423:
 710              	.LBE422:
 711              	.LBB424:
 712              	.LBB425:
 713              	.LBB426:
 714              	.LBB427:
 715              	.LBB428:
 716              		.loc 3 546 0
 717              		.syntax unified
 718              	@ 546 "ChibiOS_3.0.2/os/ext/CMSIS/include/core_cmFunc.h" 1
 719 00f2 88F31188 		MSR basepri, r8
 720              	@ 0 "" 2
 721              	.LVL48:
 722              		.thumb
 723              		.syntax unified
 724              	.LBE428:
 725              	.LBE427:
 726              	.LBE426:
 727              	.LBE425:
 728              	.LBE424:
 729              	.LBE417:
 730              	.LBE416:
 731              		.loc 1 311 0
 732 00f6 DBF80000 		ldr	r0, [fp]
 733 00fa 9842     		cmp	r0, r3
 734 00fc 03D9     		bls	.L49
 735              		.loc 1 312 0
 736 00fe C01A     		subs	r0, r0, r3
 737 0100 FFF7FEFF 		bl	chThdSleep
 738              	.LVL49:
 739 0104 96E7     		b	.L39
 740              	.L49:
 741              		.loc 1 314 0
ARM GAS  /tmp/ccIpp2x8.s 			page 14


 742 0106 0520     		movs	r0, #5
 743 0108 FFF7FEFF 		bl	chThdSleep
 744              	.LVL50:
 745              	.LBB429:
 746              	.LBB430:
 747              	.LBB431:
 748              	.LBB432:
 749              	.LBB433:
 750              	.LBB434:
 751              		.loc 3 546 0
 752              		.syntax unified
 753              	@ 546 "ChibiOS_3.0.2/os/ext/CMSIS/include/core_cmFunc.h" 1
 754 010c 86F31188 		MSR basepri, r6
 755              	@ 0 "" 2
 756              	.LVL51:
 757              		.thumb
 758              		.syntax unified
 759              	.LBE434:
 760              	.LBE433:
 761              	.LBE432:
 762              	.LBE431:
 763              	.LBB435:
 764              	.LBB436:
 765              		.loc 4 231 0
 766 0110 D9F82830 		ldr	r3, [r9, #40]
 767              	.LVL52:
 768              	.LBE436:
 769              	.LBE435:
 770              	.LBB437:
 771              	.LBB438:
 772              	.LBB439:
 773              	.LBB440:
 774              	.LBB441:
 775              		.loc 3 546 0
 776              		.syntax unified
 777              	@ 546 "ChibiOS_3.0.2/os/ext/CMSIS/include/core_cmFunc.h" 1
 778 0114 88F31188 		MSR basepri, r8
 779              	@ 0 "" 2
 780              	.LVL53:
 781              		.thumb
 782              		.syntax unified
 783              	.LBE441:
 784              	.LBE440:
 785              	.LBE439:
 786              	.LBE438:
 787              	.LBE437:
 788              	.LBE430:
 789              	.LBE429:
 790              		.loc 1 315 0
 791 0118 CBF80030 		str	r3, [fp]
 792 011c 8AE7     		b	.L39
 793              	.LVL54:
 794              	.L43:
 795              	.LBB442:
 796              		.loc 1 257 0
 797 011e 564A     		ldr	r2, .L67+36
 798 0120 1368     		ldr	r3, [r2]
ARM GAS  /tmp/ccIpp2x8.s 			page 15


 799              	.LVL55:
 800 0122 0133     		adds	r3, r3, #1
 801              		.loc 1 262 0
 802 0124 042B     		cmp	r3, #4
 803              		.loc 1 257 0
 804 0126 1360     		str	r3, [r2]
 805              		.loc 1 262 0
 806 0128 13DD     		ble	.L52
 807              		.loc 1 263 0
 808 012a 524A     		ldr	r2, .L67+32
 809              	.LVL56:
 810              	.L64:
 811              	.LBB349:
 812              		.loc 1 292 0
 813 012c 1368     		ldr	r3, [r2]
 814 012e 0133     		adds	r3, r3, #1
 815 0130 1360     		str	r3, [r2]
 816              		.loc 1 293 0
 817 0132 0A20     		movs	r0, #10
 818 0134 FFF7FEFF 		bl	chThdSleep
 819              	.LVL57:
 820              		.loc 1 294 0
 821 0138 FFF7FEFF 		bl	reset_init_mpu
 822              	.LVL58:
 823              	.LBB350:
 824              	.LBB351:
 825              	.LBB352:
 826              	.LBB353:
 827              	.LBB354:
 828              	.LBB355:
 829              		.loc 3 546 0
 830 013c 2023     		movs	r3, #32
 831              		.syntax unified
 832              	@ 546 "ChibiOS_3.0.2/os/ext/CMSIS/include/core_cmFunc.h" 1
 833 013e 83F31188 		MSR basepri, r3
 834              	@ 0 "" 2
 835              	.LVL59:
 836              		.thumb
 837              		.syntax unified
 838              	.LBE355:
 839              	.LBE354:
 840              	.LBE353:
 841              	.LBE352:
 842              	.LBB356:
 843              	.LBB357:
 844              		.loc 4 231 0
 845 0142 D9F82830 		ldr	r3, [r9, #40]
 846              	.LVL60:
 847              	.LBE357:
 848              	.LBE356:
 849              	.LBB358:
 850              	.LBB359:
 851              	.LBB360:
 852              	.LBB361:
 853              	.LBB362:
 854              		.loc 3 546 0
 855              		.syntax unified
ARM GAS  /tmp/ccIpp2x8.s 			page 16


 856              	@ 546 "ChibiOS_3.0.2/os/ext/CMSIS/include/core_cmFunc.h" 1
 857 0146 88F31188 		MSR basepri, r8
 858              	@ 0 "" 2
 859              	.LVL61:
 860              		.thumb
 861              		.syntax unified
 862 014a CAE7     		b	.L41
 863              	.LVL62:
 864              	.L42:
 865              	.LBE362:
 866              	.LBE361:
 867              	.LBE360:
 868              	.LBE359:
 869              	.LBE358:
 870              	.LBE351:
 871              	.LBE350:
 872              	.LBE349:
 873              		.loc 1 259 0
 874 014c 4A4B     		ldr	r3, .L67+36
 875              	.LVL63:
 876 014e C3F80080 		str	r8, [r3]
 877              	.LVL64:
 878              	.L52:
 879              		.loc 1 268 0
 880 0152 DFF80CC1 		ldr	ip, .L67+12
 881 0156 DFF818A1 		ldr	r10, .L67+28
 882              		.loc 1 272 0
 883 015a DFF844E1 		ldr	lr, .L67+76
 884              		.loc 1 268 0
 885 015e BCE80F00 		ldmia	ip!, {r0, r1, r2, r3}
 886 0162 AAE80F00 		stmia	r10!, {r0, r1, r2, r3}
 887 0166 DCF80030 		ldr	r3, [ip]
 888 016a AAF80030 		strh	r3, [r10]	@ movhi
 889              		.loc 1 269 0
 890 016e 434B     		ldr	r3, .L67+40
 891 0170 0398     		ldr	r0, [sp, #12]
 892 0172 1988     		ldrh	r1, [r3]
 893              		.loc 1 270 0
 894 0174 5A88     		ldrh	r2, [r3, #2]
 895              		.loc 1 271 0
 896 0176 9B88     		ldrh	r3, [r3, #4]
 897              		.loc 1 270 0
 898 0178 B61A     		subs	r6, r6, r2
 899              		.loc 1 271 0
 900 017a FF1A     		subs	r7, r7, r3
 901              		.loc 1 269 0
 902 017c 411A     		subs	r1, r0, r1
 903              		.loc 1 270 0
 904 017e 2E81     		strh	r6, [r5, #8]	@ movhi
 905              		.loc 1 269 0
 906 0180 E980     		strh	r1, [r5, #6]	@ movhi
 907              		.loc 1 271 0
 908 0182 6F81     		strh	r7, [r5, #10]	@ movhi
 909              		.loc 1 272 0
 910 0184 ACF11005 		sub	r5, ip, #16
 911 0188 2E46     		mov	r6, r5
 912 018a 0FCE     		ldmia	r6!, {r0, r1, r2, r3}
ARM GAS  /tmp/ccIpp2x8.s 			page 17


 913 018c AEE80F00 		stmia	lr!, {r0, r1, r2, r3}
 914 0190 DCF80030 		ldr	r3, [ip]
 915 0194 AEF80030 		strh	r3, [lr]	@ movhi
 916              	.LVL65:
 917              	.LBB376:
 918              	.LBB377:
 919              	.LBB378:
 920              	.LBB379:
 921              	.LBB380:
 922              	.LBB381:
 923              		.loc 3 546 0
 924 0198 2022     		movs	r2, #32
 925              		.syntax unified
 926              	@ 546 "ChibiOS_3.0.2/os/ext/CMSIS/include/core_cmFunc.h" 1
 927 019a 82F31188 		MSR basepri, r2
 928              	@ 0 "" 2
 929              	.LVL66:
 930              		.thumb
 931              		.syntax unified
 932              	.LBE381:
 933              	.LBE380:
 934              	.LBE379:
 935              	.LBE378:
 936              	.LBB382:
 937              	.LBB383:
 938              		.loc 4 231 0
 939 019e D9F82830 		ldr	r3, [r9, #40]
 940              	.LVL67:
 941              	.LBE383:
 942              	.LBE382:
 943              	.LBB384:
 944              	.LBB385:
 945              	.LBB386:
 946              	.LBB387:
 947              	.LBB388:
 948              		.loc 3 546 0
 949              		.syntax unified
 950              	@ 546 "ChibiOS_3.0.2/os/ext/CMSIS/include/core_cmFunc.h" 1
 951 01a2 88F31188 		MSR basepri, r8
 952              	@ 0 "" 2
 953              	.LVL68:
 954              		.thumb
 955              		.syntax unified
 956              	.LBE388:
 957              	.LBE387:
 958              	.LBE386:
 959              	.LBE385:
 960              	.LBE384:
 961              	.LBE377:
 962              	.LBE376:
 963              		.loc 1 274 0
 964 01a6 3648     		ldr	r0, .L67+44
 965 01a8 0168     		ldr	r1, [r0]
 966 01aa 5B1A     		subs	r3, r3, r1
 967 01ac 3549     		ldr	r1, .L67+48
 968 01ae 0B60     		str	r3, [r1]
 969              	.LVL69:
ARM GAS  /tmp/ccIpp2x8.s 			page 18


 970              	.LBB389:
 971              	.LBB390:
 972              	.LBB391:
 973              	.LBB392:
 974              	.LBB393:
 975              	.LBB394:
 976              		.loc 3 546 0
 977              		.syntax unified
 978              	@ 546 "ChibiOS_3.0.2/os/ext/CMSIS/include/core_cmFunc.h" 1
 979 01b0 82F31188 		MSR basepri, r2
 980              	@ 0 "" 2
 981              	.LVL70:
 982              		.thumb
 983              		.syntax unified
 984              	.LBE394:
 985              	.LBE393:
 986              	.LBE392:
 987              	.LBE391:
 988              	.LBB395:
 989              	.LBB396:
 990              		.loc 4 231 0
 991 01b4 D9F82820 		ldr	r2, [r9, #40]
 992              	.LVL71:
 993              	.LBE396:
 994              	.LBE395:
 995              	.LBB397:
 996              	.LBB398:
 997              	.LBB399:
 998              	.LBB400:
 999              	.LBB401:
 1000              		.loc 3 546 0
 1001              		.syntax unified
 1002              	@ 546 "ChibiOS_3.0.2/os/ext/CMSIS/include/core_cmFunc.h" 1
 1003 01b8 88F31188 		MSR basepri, r8
 1004              	@ 0 "" 2
 1005              	.LVL72:
 1006              		.thumb
 1007              		.syntax unified
 1008              	.LBE401:
 1009              	.LBE400:
 1010              	.LBE399:
 1011              	.LBE398:
 1012              	.LBE397:
 1013              	.LBE390:
 1014              	.LBE389:
 1015              		.loc 1 277 0
 1016 01bc 324B     		ldr	r3, .L67+52
 1017              		.loc 1 275 0
 1018 01be 0260     		str	r2, [r0]
 1019              		.loc 1 277 0
 1020 01c0 1B68     		ldr	r3, [r3]
 1021 01c2 03B1     		cbz	r3, .L45
 1022              		.loc 1 278 0
 1023 01c4 9847     		blx	r3
 1024              	.LVL73:
 1025              	.L45:
 1026              		.loc 1 282 0
ARM GAS  /tmp/ccIpp2x8.s 			page 19


 1027 01c6 314A     		ldr	r2, .L67+56
 1028 01c8 1368     		ldr	r3, [r2]
 1029 01ca 0133     		adds	r3, r3, #1
 1030              		.loc 1 283 0
 1031 01cc 092B     		cmp	r3, #9
 1032              		.loc 1 282 0
 1033 01ce 1360     		str	r3, [r2]
 1034              		.loc 1 283 0
 1035 01d0 05DC     		bgt	.L66
 1036              		.loc 1 298 0
 1037 01d2 2F4A     		ldr	r2, .L67+60
 1038 01d4 DBF80030 		ldr	r3, [fp]
 1039 01d8 C2F80080 		str	r8, [r2]
 1040 01dc 81E7     		b	.L41
 1041              	.L66:
 1042              	.LBB402:
 1043              		.loc 1 284 0
 1044 01de 2B4F     		ldr	r7, .L67+56
 1045              	.LBB363:
 1046              	.LBB364:
 1047              		.loc 1 429 0
 1048 01e0 0094     		str	r4, [sp]
 1049 01e2 0622     		movs	r2, #6
 1050 01e4 0192     		str	r2, [sp, #4]
 1051              	.LBE364:
 1052              	.LBE363:
 1053              		.loc 1 284 0
 1054 01e6 C7F80080 		str	r8, [r7]
 1055              	.LBB373:
 1056              	.LBB370:
 1057              		.loc 1 429 0
 1058 01ea 1F4A     		ldr	r2, .L67+20
 1059              	.LBE370:
 1060              	.LBE373:
 1061              		.loc 1 285 0
 1062 01ec 284F     		ldr	r7, .L67+60
 1063 01ee 0120     		movs	r0, #1
 1064              	.LBB374:
 1065              	.LBB371:
 1066              		.loc 1 428 0
 1067 01f0 0326     		movs	r6, #3
 1068              		.loc 1 429 0
 1069 01f2 0346     		mov	r3, r0
 1070              	.LBE371:
 1071              	.LBE374:
 1072              		.loc 1 285 0
 1073 01f4 3860     		str	r0, [r7]
 1074              	.LVL74:
 1075              	.LBB375:
 1076              	.LBB372:
 1077              		.loc 1 429 0
 1078 01f6 0C21     		movs	r1, #12
 1079 01f8 1C48     		ldr	r0, .L67+24
 1080              		.loc 1 428 0
 1081 01fa 1670     		strb	r6, [r2]
 1082              		.loc 1 429 0
 1083 01fc FFF7FEFF 		bl	i2c_bb_tx_rx
ARM GAS  /tmp/ccIpp2x8.s 			page 20


 1084              	.LVL75:
 1085              		.loc 1 431 0
 1086 0200 30B3     		cbz	r0, .L47
 1087              	.LVL76:
 1088              	.LBB365:
 1089              		.loc 1 436 0
 1090 0202 E278     		ldrb	r2, [r4, #3]	@ zero_extendqisi2
 1091 0204 A778     		ldrb	r7, [r4, #2]	@ zero_extendqisi2
 1092 0206 6178     		ldrb	r1, [r4, #1]	@ zero_extendqisi2
 1093 0208 6379     		ldrb	r3, [r4, #5]	@ zero_extendqisi2
 1094 020a 94F800A0 		ldrb	r10, [r4]	@ zero_extendqisi2
 1095 020e 2679     		ldrb	r6, [r4, #4]	@ zero_extendqisi2
 1096              	.LBE365:
 1097              		.loc 1 442 0
 1098 0210 1648     		ldr	r0, .L67+24
 1099              	.LVL77:
 1100              	.LBB366:
 1101              		.loc 1 436 0
 1102 0212 07EB0227 		add	r7, r7, r2, lsl #8
 1103              	.LBE366:
 1104              		.loc 1 442 0
 1105 0216 144A     		ldr	r2, .L67+20
 1106              		.loc 1 440 0
 1107 0218 4FF4857C 		mov	ip, #266
 1108              	.LBB367:
 1109              		.loc 1 436 0
 1110 021c 0AEB012A 		add	r10, r10, r1, lsl #8
 1111 0220 06EB0326 		add	r6, r6, r3, lsl #8
 1112              	.LBE367:
 1113              		.loc 1 442 0
 1114 0224 CDE90048 		strd	r4, r8, [sp]
 1115              	.LBB368:
 1116              		.loc 1 436 0
 1117 0228 3FB2     		sxth	r7, r7
 1118              	.LBE368:
 1119              		.loc 1 442 0
 1120 022a 0223     		movs	r3, #2
 1121 022c 0C21     		movs	r1, #12
 1122              		.loc 1 440 0
 1123 022e A2F800C0 		strh	ip, [r2]	@ movhi
 1124              	.LBB369:
 1125              		.loc 1 436 0
 1126 0232 0FFA8AFA 		sxth	r10, r10
 1127              	.LVL78:
 1128 0236 0397     		str	r7, [sp, #12]
 1129              	.LVL79:
 1130 0238 36B2     		sxth	r6, r6
 1131              	.LVL80:
 1132              	.LBE369:
 1133              		.loc 1 442 0
 1134 023a FFF7FEFF 		bl	i2c_bb_tx_rx
 1135              	.LVL81:
 1136              		.loc 1 444 0
 1137 023e 38B1     		cbz	r0, .L47
 1138              	.LVL82:
 1139              	.LBE372:
 1140              	.LBE375:
ARM GAS  /tmp/ccIpp2x8.s 			page 21


 1141              		.loc 1 290 0
 1142 0240 039B     		ldr	r3, [sp, #12]
 1143 0242 EB81     		strh	r3, [r5, #14]	@ movhi
 1144 0244 A5F80CA0 		strh	r10, [r5, #12]	@ movhi
 1145 0248 2E82     		strh	r6, [r5, #16]	@ movhi
 1146 024a DBF80030 		ldr	r3, [fp]
 1147 024e 48E7     		b	.L41
 1148              	.LVL83:
 1149              	.L47:
 1150              		.loc 1 292 0
 1151 0250 104A     		ldr	r2, .L67+64
 1152 0252 6BE7     		b	.L64
 1153              	.L68:
 1154              		.align	2
 1155              	.L67:
 1156 0254 00000000 		.word	.LANCHOR7
 1157 0258 00000000 		.word	.LC4
 1158 025c 00000000 		.word	.LANCHOR6
 1159 0260 00000000 		.word	.LANCHOR10
 1160 0264 00000000 		.word	.LANCHOR3
 1161 0268 00000000 		.word	.LANCHOR5
 1162 026c 00000000 		.word	.LANCHOR4
 1163 0270 00000000 		.word	.LANCHOR11
 1164 0274 00000000 		.word	.LANCHOR9
 1165 0278 00000000 		.word	.LANCHOR19
 1166 027c 00000000 		.word	.LANCHOR12
 1167 0280 00000000 		.word	.LANCHOR14
 1168 0284 00000000 		.word	.LANCHOR15
 1169 0288 00000000 		.word	.LANCHOR16
 1170 028c 00000000 		.word	.LANCHOR17
 1171 0290 00000000 		.word	.LANCHOR18
 1172 0294 00000000 		.word	.LANCHOR2
 1173 0298 00000000 		.word	ch
 1174 029c 00000000 		.word	.LANCHOR8
 1175 02a0 00000000 		.word	.LANCHOR13
 1176              	.LBE402:
 1177              	.LBE442:
 1178              	.LBE331:
 1179              		.cfi_endproc
 1180              	.LFE271:
 1181              		.size	mpu_thread, .-mpu_thread
 1182              		.section	.text.mpu9150_init,"ax",%progbits
 1183              		.align	1
 1184              		.p2align 4,,15
 1185              		.global	mpu9150_init
 1186              		.syntax unified
 1187              		.thumb
 1188              		.thumb_func
 1189              		.fpu fpv4-sp-d16
 1190              		.type	mpu9150_init, %function
 1191              	mpu9150_init:
 1192              	.LFB256:
 1193              		.loc 1 77 0
 1194              		.cfi_startproc
 1195              		@ args = 0, pretend = 0, frame = 0
 1196              		@ frame_needed = 0, uses_anonymous_args = 0
 1197              	.LVL84:
ARM GAS  /tmp/ccIpp2x8.s 			page 22


 1198 0000 F0B5     		push	{r4, r5, r6, r7, lr}
 1199              		.cfi_def_cfa_offset 20
 1200              		.cfi_offset 4, -20
 1201              		.cfi_offset 5, -16
 1202              		.cfi_offset 6, -12
 1203              		.cfi_offset 7, -8
 1204              		.cfi_offset 14, -4
 1205              		.loc 1 89 0
 1206 0002 234D     		ldr	r5, .L74
 1207              		.loc 1 78 0
 1208 0004 234F     		ldr	r7, .L74+4
 1209              		.loc 1 79 0
 1210 0006 DFF8C8C0 		ldr	ip, .L74+64
 1211              		.loc 1 89 0
 1212 000a 2860     		str	r0, [r5]
 1213              		.loc 1 78 0
 1214 000c 0024     		movs	r4, #0
 1215 000e 3C60     		str	r4, [r7]
 1216              		.loc 1 81 0
 1217 0010 2148     		ldr	r0, .L74+8
 1218              	.LVL85:
 1219              		.loc 1 82 0
 1220 0012 224E     		ldr	r6, .L74+12
 1221              		.loc 1 83 0
 1222 0014 224F     		ldr	r7, .L74+16
 1223              		.loc 1 90 0
 1224 0016 6960     		str	r1, [r5, #4]
 1225              		.loc 1 84 0
 1226 0018 2249     		ldr	r1, .L74+20
 1227              	.LVL86:
 1228              		.loc 1 79 0
 1229 001a CCF80040 		str	r4, [ip]
 1230              		.loc 1 81 0
 1231 001e 0460     		str	r4, [r0]
 1232              		.loc 1 82 0
 1233 0020 3460     		str	r4, [r6]
 1234              		.loc 1 83 0
 1235 0022 3C60     		str	r4, [r7]
 1236              		.loc 1 84 0
 1237 0024 6827     		movs	r7, #104
 1238 0026 0F80     		strh	r7, [r1]	@ movhi
 1239              		.loc 1 85 0
 1240 0028 1F48     		ldr	r0, .L74+24
 1241              		.loc 1 87 0
 1242 002a 2049     		ldr	r1, .L74+28
 1243              		.loc 1 80 0
 1244 002c 204E     		ldr	r6, .L74+32
 1245              		.loc 1 85 0
 1246 002e 0470     		strb	r4, [r0]
 1247              		.loc 1 77 0
 1248 0030 83B0     		sub	sp, sp, #12
 1249              		.cfi_def_cfa_offset 32
 1250              		.loc 1 87 0
 1251 0032 0C60     		str	r4, [r1]
 1252              		.loc 1 93 0
 1253 0034 2846     		mov	r0, r5
 1254              		.loc 1 87 0
ARM GAS  /tmp/ccIpp2x8.s 			page 23


 1255 0036 8C80     		strh	r4, [r1, #4]	@ movhi
 1256              		.loc 1 91 0
 1257 0038 AA60     		str	r2, [r5, #8]
 1258              		.loc 1 92 0
 1259 003a EB60     		str	r3, [r5, #12]
 1260              		.loc 1 80 0
 1261 003c 3460     		str	r4, [r6]
 1262              		.loc 1 93 0
 1263 003e FFF7FEFF 		bl	i2c_bb_init
 1264              	.LVL87:
 1265              		.loc 1 95 0
 1266 0042 FFF7FEFF 		bl	reset_init_mpu
 1267              	.LVL88:
 1268              		.loc 1 97 0
 1269 0046 1B4B     		ldr	r3, .L74+36
 1270 0048 1B49     		ldr	r1, .L74+40
 1271 004a 1C48     		ldr	r0, .L74+44
 1272 004c 2246     		mov	r2, r4
 1273 004e FFF7FEFF 		bl	terminal_register_command_callback
 1274              	.LVL89:
 1275              		.loc 1 103 0
 1276 0052 FFF7FEFF 		bl	read_single_reg.constprop.3
 1277              	.LVL90:
 1278              		.loc 1 104 0
 1279 0056 A0F16803 		sub	r3, r0, #104
 1280 005a DBB2     		uxtb	r3, r3
 1281 005c 012B     		cmp	r3, #1
 1282 005e 05D9     		bls	.L70
 1283              		.loc 1 104 0 is_stmt 0 discriminator 1
 1284 0060 7128     		cmp	r0, #113
 1285 0062 03D0     		beq	.L70
 1286              		.loc 1 110 0 is_stmt 1
 1287 0064 164B     		ldr	r3, .L74+48
 1288 0066 1C70     		strb	r4, [r3]
 1289              	.L69:
 1290              		.loc 1 112 0
 1291 0068 03B0     		add	sp, sp, #12
 1292              		.cfi_remember_state
 1293              		.cfi_def_cfa_offset 20
 1294              		@ sp needed
 1295 006a F0BD     		pop	{r4, r5, r6, r7, pc}
 1296              	.L70:
 1297              		.cfi_restore_state
 1298              		.loc 1 106 0
 1299 006c 154B     		ldr	r3, .L74+52
 1300              		.loc 1 105 0
 1301 006e 144A     		ldr	r2, .L74+48
 1302              		.loc 1 106 0
 1303 0070 1B68     		ldr	r3, [r3]
 1304              		.loc 1 105 0
 1305 0072 0121     		movs	r1, #1
 1306 0074 1170     		strb	r1, [r2]
 1307              		.loc 1 106 0
 1308 0076 002B     		cmp	r3, #0
 1309 0078 F6D1     		bne	.L69
 1310              		.loc 1 107 0
 1311 007a 0093     		str	r3, [sp]
ARM GAS  /tmp/ccIpp2x8.s 			page 24


 1312 007c 4022     		movs	r2, #64
 1313 007e 124B     		ldr	r3, .L74+56
 1314 0080 1248     		ldr	r0, .L74+60
 1315              	.LVL91:
 1316 0082 40F69811 		movw	r1, #2456
 1317 0086 FFF7FEFF 		bl	chThdCreateStatic
 1318              	.LVL92:
 1319              		.loc 1 112 0
 1320 008a 03B0     		add	sp, sp, #12
 1321              		.cfi_def_cfa_offset 20
 1322              		@ sp needed
 1323 008c F0BD     		pop	{r4, r5, r6, r7, pc}
 1324              	.L75:
 1325 008e 00BF     		.align	2
 1326              	.L74:
 1327 0090 00000000 		.word	.LANCHOR4
 1328 0094 00000000 		.word	.LANCHOR9
 1329 0098 00000000 		.word	.LANCHOR14
 1330 009c 00000000 		.word	.LANCHOR15
 1331 00a0 00000000 		.word	.LANCHOR18
 1332 00a4 00000000 		.word	.LANCHOR3
 1333 00a8 00000000 		.word	.LANCHOR1
 1334 00ac 00000000 		.word	.LANCHOR12
 1335 00b0 00000000 		.word	.LANCHOR16
 1336 00b4 00000000 		.word	terminal_status
 1337 00b8 00000000 		.word	.LC5
 1338 00bc 24000000 		.word	.LC6
 1339 00c0 00000000 		.word	.LANCHOR0
 1340 00c4 00000000 		.word	.LANCHOR7
 1341 00c8 00000000 		.word	mpu_thread
 1342 00cc 00000000 		.word	.LANCHOR20
 1343 00d0 00000000 		.word	.LANCHOR2
 1344              		.cfi_endproc
 1345              	.LFE256:
 1346              		.size	mpu9150_init, .-mpu9150_init
 1347              		.section	.text.mpu9150_is_mpu9250,"ax",%progbits
 1348              		.align	1
 1349              		.p2align 4,,15
 1350              		.global	mpu9150_is_mpu9250
 1351              		.syntax unified
 1352              		.thumb
 1353              		.thumb_func
 1354              		.fpu fpv4-sp-d16
 1355              		.type	mpu9150_is_mpu9250, %function
 1356              	mpu9150_is_mpu9250:
 1357              	.LFB258:
 1358              		.loc 1 138 0
 1359              		.cfi_startproc
 1360              		@ args = 0, pretend = 0, frame = 0
 1361              		@ frame_needed = 0, uses_anonymous_args = 0
 1362              		@ link register save eliminated.
 1363              		.loc 1 139 0
 1364 0000 014B     		ldr	r3, .L77
 1365 0002 1878     		ldrb	r0, [r3]	@ zero_extendqisi2
 1366              		.loc 1 140 0
 1367 0004 7047     		bx	lr
 1368              	.L78:
ARM GAS  /tmp/ccIpp2x8.s 			page 25


 1369 0006 00BF     		.align	2
 1370              	.L77:
 1371 0008 00000000 		.word	.LANCHOR1
 1372              		.cfi_endproc
 1373              	.LFE258:
 1374              		.size	mpu9150_is_mpu9250, .-mpu9150_is_mpu9250
 1375              		.section	.text.mpu9150_set_read_callback,"ax",%progbits
 1376              		.align	1
 1377              		.p2align 4,,15
 1378              		.global	mpu9150_set_read_callback
 1379              		.syntax unified
 1380              		.thumb
 1381              		.thumb_func
 1382              		.fpu fpv4-sp-d16
 1383              		.type	mpu9150_set_read_callback, %function
 1384              	mpu9150_set_read_callback:
 1385              	.LFB259:
 1386              		.loc 1 142 0
 1387              		.cfi_startproc
 1388              		@ args = 0, pretend = 0, frame = 0
 1389              		@ frame_needed = 0, uses_anonymous_args = 0
 1390              		@ link register save eliminated.
 1391              	.LVL93:
 1392              		.loc 1 143 0
 1393 0000 014B     		ldr	r3, .L80
 1394 0002 1860     		str	r0, [r3]
 1395              		.loc 1 144 0
 1396 0004 7047     		bx	lr
 1397              	.L81:
 1398 0006 00BF     		.align	2
 1399              	.L80:
 1400 0008 00000000 		.word	.LANCHOR16
 1401              		.cfi_endproc
 1402              	.LFE259:
 1403              		.size	mpu9150_set_read_callback, .-mpu9150_set_read_callback
 1404              		.section	.text.mpu9150_get_time_since_update,"ax",%progbits
 1405              		.align	1
 1406              		.p2align 4,,15
 1407              		.global	mpu9150_get_time_since_update
 1408              		.syntax unified
 1409              		.thumb
 1410              		.thumb_func
 1411              		.fpu fpv4-sp-d16
 1412              		.type	mpu9150_get_time_since_update, %function
 1413              	mpu9150_get_time_since_update:
 1414              	.LFB260:
 1415              		.loc 1 150 0
 1416              		.cfi_startproc
 1417              		@ args = 0, pretend = 0, frame = 0
 1418              		@ frame_needed = 0, uses_anonymous_args = 0
 1419              		@ link register save eliminated.
 1420              		.loc 1 151 0
 1421 0000 084A     		ldr	r2, .L83
 1422              	.LBB443:
 1423              	.LBB444:
 1424              	.LBB445:
 1425              	.LBB446:
ARM GAS  /tmp/ccIpp2x8.s 			page 26


 1426              		.loc 4 231 0
 1427 0002 094B     		ldr	r3, .L83+4
 1428              	.LBE446:
 1429              	.LBE445:
 1430              	.LBE444:
 1431              	.LBE443:
 1432              		.loc 1 151 0
 1433 0004 1268     		ldr	r2, [r2]
 1434              	.LVL94:
 1435              	.LBB450:
 1436              	.LBB449:
 1437              	.LBB448:
 1438              	.LBB447:
 1439              		.loc 4 231 0
 1440 0006 9B6A     		ldr	r3, [r3, #40]
 1441              	.LVL95:
 1442              	.LBE447:
 1443              	.LBE448:
 1444              		.loc 4 267 0
 1445 0008 9B1A     		subs	r3, r3, r2
 1446              	.LBE449:
 1447              	.LBE450:
 1448              		.loc 1 151 0
 1449 000a 07EE903A 		vmov	s15, r3	@ int
 1450 000e F8EE677A 		vcvt.f32.u32	s15, s15
 1451 0012 F2EE046A 		vmov.f32	s13, #1.0e+1
 1452 0016 87EEA67A 		vdiv.f32	s14, s15, s13
 1453              		.loc 1 153 0
 1454 001a FCEEC77A 		vcvt.u32.f32	s15, s14
 1455 001e 17EE900A 		vmov	r0, s15	@ int
 1456 0022 7047     		bx	lr
 1457              	.L84:
 1458              		.align	2
 1459              	.L83:
 1460 0024 00000000 		.word	.LANCHOR14
 1461 0028 00000000 		.word	ch
 1462              		.cfi_endproc
 1463              	.LFE260:
 1464              		.size	mpu9150_get_time_since_update, .-mpu9150_get_time_since_update
 1465              		.section	.text.mpu9150_get_last_sample_duration,"ax",%progbits
 1466              		.align	1
 1467              		.p2align 4,,15
 1468              		.global	mpu9150_get_last_sample_duration
 1469              		.syntax unified
 1470              		.thumb
 1471              		.thumb_func
 1472              		.fpu fpv4-sp-d16
 1473              		.type	mpu9150_get_last_sample_duration, %function
 1474              	mpu9150_get_last_sample_duration:
 1475              	.LFB261:
 1476              		.loc 1 158 0
 1477              		.cfi_startproc
 1478              		@ args = 0, pretend = 0, frame = 0
 1479              		@ frame_needed = 0, uses_anonymous_args = 0
 1480              		@ link register save eliminated.
 1481              		.loc 1 159 0
 1482 0000 064B     		ldr	r3, .L86
ARM GAS  /tmp/ccIpp2x8.s 			page 27


 1483 0002 DFED076A 		vldr.32	s13, .L86+4
 1484 0006 D3ED007A 		vldr.32	s15, [r3]	@ int
 1485 000a 9FED067A 		vldr.32	s14, .L86+8
 1486 000e F8EE677A 		vcvt.f32.u32	s15, s15
 1487 0012 87EEA60A 		vdiv.f32	s0, s15, s13
 1488              		.loc 1 160 0
 1489 0016 20EE070A 		vmul.f32	s0, s0, s14
 1490 001a 7047     		bx	lr
 1491              	.L87:
 1492              		.align	2
 1493              	.L86:
 1494 001c 00000000 		.word	.LANCHOR15
 1495 0020 00401C46 		.word	1176256512
 1496 0024 00007A44 		.word	1148846080
 1497              		.cfi_endproc
 1498              	.LFE261:
 1499              		.size	mpu9150_get_last_sample_duration, .-mpu9150_get_last_sample_duration
 1500              		.section	.text.mpu9150_get_failed_reads,"ax",%progbits
 1501              		.align	1
 1502              		.p2align 4,,15
 1503              		.global	mpu9150_get_failed_reads
 1504              		.syntax unified
 1505              		.thumb
 1506              		.thumb_func
 1507              		.fpu fpv4-sp-d16
 1508              		.type	mpu9150_get_failed_reads, %function
 1509              	mpu9150_get_failed_reads:
 1510              	.LFB262:
 1511              		.loc 1 162 0
 1512              		.cfi_startproc
 1513              		@ args = 0, pretend = 0, frame = 0
 1514              		@ frame_needed = 0, uses_anonymous_args = 0
 1515              		@ link register save eliminated.
 1516              		.loc 1 163 0
 1517 0000 014B     		ldr	r3, .L89
 1518 0002 1868     		ldr	r0, [r3]
 1519              		.loc 1 164 0
 1520 0004 7047     		bx	lr
 1521              	.L90:
 1522 0006 00BF     		.align	2
 1523              	.L89:
 1524 0008 00000000 		.word	.LANCHOR9
 1525              		.cfi_endproc
 1526              	.LFE262:
 1527              		.size	mpu9150_get_failed_reads, .-mpu9150_get_failed_reads
 1528              		.section	.text.mpu9150_get_failed_mag_reads,"ax",%progbits
 1529              		.align	1
 1530              		.p2align 4,,15
 1531              		.global	mpu9150_get_failed_mag_reads
 1532              		.syntax unified
 1533              		.thumb
 1534              		.thumb_func
 1535              		.fpu fpv4-sp-d16
 1536              		.type	mpu9150_get_failed_mag_reads, %function
 1537              	mpu9150_get_failed_mag_reads:
 1538              	.LFB263:
 1539              		.loc 1 166 0
ARM GAS  /tmp/ccIpp2x8.s 			page 28


 1540              		.cfi_startproc
 1541              		@ args = 0, pretend = 0, frame = 0
 1542              		@ frame_needed = 0, uses_anonymous_args = 0
 1543              		@ link register save eliminated.
 1544              		.loc 1 167 0
 1545 0000 014B     		ldr	r3, .L92
 1546 0002 1868     		ldr	r0, [r3]
 1547              		.loc 1 168 0
 1548 0004 7047     		bx	lr
 1549              	.L93:
 1550 0006 00BF     		.align	2
 1551              	.L92:
 1552 0008 00000000 		.word	.LANCHOR2
 1553              		.cfi_endproc
 1554              	.LFE263:
 1555              		.size	mpu9150_get_failed_mag_reads, .-mpu9150_get_failed_mag_reads
 1556              		.section	.text.mpu9150_mag_updated,"ax",%progbits
 1557              		.align	1
 1558              		.p2align 4,,15
 1559              		.global	mpu9150_mag_updated
 1560              		.syntax unified
 1561              		.thumb
 1562              		.thumb_func
 1563              		.fpu fpv4-sp-d16
 1564              		.type	mpu9150_mag_updated, %function
 1565              	mpu9150_mag_updated:
 1566              	.LFB264:
 1567              		.loc 1 173 0
 1568              		.cfi_startproc
 1569              		@ args = 0, pretend = 0, frame = 0
 1570              		@ frame_needed = 0, uses_anonymous_args = 0
 1571              		@ link register save eliminated.
 1572              		.loc 1 174 0
 1573 0000 014B     		ldr	r3, .L95
 1574 0002 1868     		ldr	r0, [r3]
 1575              		.loc 1 175 0
 1576 0004 7047     		bx	lr
 1577              	.L96:
 1578 0006 00BF     		.align	2
 1579              	.L95:
 1580 0008 00000000 		.word	.LANCHOR18
 1581              		.cfi_endproc
 1582              	.LFE264:
 1583              		.size	mpu9150_mag_updated, .-mpu9150_mag_updated
 1584              		.section	.text.mpu9150_sample_gyro_offsets,"ax",%progbits
 1585              		.align	1
 1586              		.p2align 4,,15
 1587              		.global	mpu9150_sample_gyro_offsets
 1588              		.syntax unified
 1589              		.thumb
 1590              		.thumb_func
 1591              		.fpu fpv4-sp-d16
 1592              		.type	mpu9150_sample_gyro_offsets, %function
 1593              	mpu9150_sample_gyro_offsets:
 1594              	.LFB265:
 1595              		.loc 1 177 0
 1596              		.cfi_startproc
ARM GAS  /tmp/ccIpp2x8.s 			page 29


 1597              		@ args = 0, pretend = 0, frame = 16
 1598              		@ frame_needed = 0, uses_anonymous_args = 0
 1599              	.LVL96:
 1600 0000 2DE9F043 		push	{r4, r5, r6, r7, r8, r9, lr}
 1601              		.cfi_def_cfa_offset 28
 1602              		.cfi_offset 4, -28
 1603              		.cfi_offset 5, -24
 1604              		.cfi_offset 6, -20
 1605              		.cfi_offset 7, -16
 1606              		.cfi_offset 8, -12
 1607              		.cfi_offset 9, -8
 1608              		.cfi_offset 14, -4
 1609 0004 85B0     		sub	sp, sp, #20
 1610              		.cfi_def_cfa_offset 48
 1611              		.loc 1 179 0
 1612 0006 0024     		movs	r4, #0
 1613 0008 CDE90144 		strd	r4, r4, [sp, #4]
 1614 000c 0394     		str	r4, [sp, #12]
 1615              	.LVL97:
 1616              	.LBB451:
 1617              		.loc 1 181 0
 1618 000e 58B3     		cbz	r0, .L100
 1619 0010 DFF86090 		ldr	r9, .L103+4
 1620 0014 0746     		mov	r7, r0
 1621 0016 2546     		mov	r5, r4
 1622 0018 2646     		mov	r6, r4
 1623 001a A046     		mov	r8, r4
 1624              	.LVL98:
 1625              	.L99:
 1626              		.loc 1 182 0 discriminator 3
 1627 001c B9F80610 		ldrh	r1, [r9, #6]
 1628              		.loc 1 183 0 discriminator 3
 1629 0020 B9F80820 		ldrh	r2, [r9, #8]
 1630              		.loc 1 184 0 discriminator 3
 1631 0024 B9F80A30 		ldrh	r3, [r9, #10]
 1632              		.loc 1 182 0 discriminator 3
 1633 0028 06FA81F6 		sxtah	r6, r6, r1
 1634              		.loc 1 183 0 discriminator 3
 1635 002c 05FA82F5 		sxtah	r5, r5, r2
 1636              		.loc 1 184 0 discriminator 3
 1637 0030 04FA83F4 		sxtah	r4, r4, r3
 1638              		.loc 1 181 0 discriminator 3
 1639 0034 08F10108 		add	r8, r8, #1
 1640              	.LVL99:
 1641              		.loc 1 185 0 discriminator 3
 1642 0038 6420     		movs	r0, #100
 1643              		.loc 1 183 0 discriminator 3
 1644 003a CDE90165 		strd	r6, r5, [sp, #4]
 1645              		.loc 1 184 0 discriminator 3
 1646 003e 0394     		str	r4, [sp, #12]
 1647              		.loc 1 185 0 discriminator 3
 1648 0040 FFF7FEFF 		bl	chThdSleep
 1649              	.LVL100:
 1650              		.loc 1 181 0 discriminator 3
 1651 0044 4745     		cmp	r7, r8
 1652 0046 E9D1     		bne	.L99
 1653 0048 96FBF7F6 		sdiv	r6, r6, r7
ARM GAS  /tmp/ccIpp2x8.s 			page 30


 1654 004c 95FBF7F5 		sdiv	r5, r5, r7
 1655 0050 94FBF7F4 		sdiv	r4, r4, r7
 1656 0054 36B2     		sxth	r6, r6
 1657 0056 2DB2     		sxth	r5, r5
 1658 0058 24B2     		sxth	r4, r4
 1659              	.LVL101:
 1660              	.L98:
 1661              	.LBE451:
 1662              		.loc 1 192 0
 1663 005a 054B     		ldr	r3, .L103
 1664 005c 1E80     		strh	r6, [r3]	@ movhi
 1665              		.loc 1 193 0
 1666 005e 5D80     		strh	r5, [r3, #2]	@ movhi
 1667              		.loc 1 194 0
 1668 0060 9C80     		strh	r4, [r3, #4]	@ movhi
 1669              		.loc 1 195 0
 1670 0062 05B0     		add	sp, sp, #20
 1671              		.cfi_remember_state
 1672              		.cfi_def_cfa_offset 28
 1673              		@ sp needed
 1674 0064 BDE8F083 		pop	{r4, r5, r6, r7, r8, r9, pc}
 1675              	.LVL102:
 1676              	.L100:
 1677              		.cfi_restore_state
 1678              	.LBB452:
 1679              		.loc 1 181 0
 1680 0068 0446     		mov	r4, r0
 1681 006a 0546     		mov	r5, r0
 1682 006c 0646     		mov	r6, r0
 1683 006e F4E7     		b	.L98
 1684              	.L104:
 1685              		.align	2
 1686              	.L103:
 1687 0070 00000000 		.word	.LANCHOR12
 1688 0074 00000000 		.word	.LANCHOR11
 1689              	.LBE452:
 1690              		.cfi_endproc
 1691              	.LFE265:
 1692              		.size	mpu9150_sample_gyro_offsets, .-mpu9150_sample_gyro_offsets
 1693              		.section	.text.mpu9150_get_raw_accel_gyro_mag,"ax",%progbits
 1694              		.align	1
 1695              		.p2align 4,,15
 1696              		.global	mpu9150_get_raw_accel_gyro_mag
 1697              		.syntax unified
 1698              		.thumb
 1699              		.thumb_func
 1700              		.fpu fpv4-sp-d16
 1701              		.type	mpu9150_get_raw_accel_gyro_mag, %function
 1702              	mpu9150_get_raw_accel_gyro_mag:
 1703              	.LFB266:
 1704              		.loc 1 197 0
 1705              		.cfi_startproc
 1706              		@ args = 0, pretend = 0, frame = 0
 1707              		@ frame_needed = 0, uses_anonymous_args = 0
 1708              		@ link register save eliminated.
 1709              	.LVL103:
 1710 0000 30B4     		push	{r4, r5}
ARM GAS  /tmp/ccIpp2x8.s 			page 31


 1711              		.cfi_def_cfa_offset 8
 1712              		.cfi_offset 4, -8
 1713              		.cfi_offset 5, -4
 1714              		.loc 1 198 0
 1715 0002 054C     		ldr	r4, .L107
 1716              		.loc 1 197 0
 1717 0004 0546     		mov	r5, r0
 1718              		.loc 1 198 0
 1719 0006 0FCC     		ldmia	r4!, {r0, r1, r2, r3}
 1720              	.LVL104:
 1721 0008 2860     		str	r0, [r5]	@ unaligned
 1722 000a 6960     		str	r1, [r5, #4]	@ unaligned
 1723 000c AA60     		str	r2, [r5, #8]	@ unaligned
 1724 000e EB60     		str	r3, [r5, #12]	@ unaligned
 1725 0010 2388     		ldrh	r3, [r4]	@ unaligned
 1726 0012 2B82     		strh	r3, [r5, #16]	@ unaligned
 1727              		.loc 1 199 0
 1728 0014 30BC     		pop	{r4, r5}
 1729              		.cfi_restore 5
 1730              		.cfi_restore 4
 1731              		.cfi_def_cfa_offset 0
 1732              	.LVL105:
 1733 0016 7047     		bx	lr
 1734              	.L108:
 1735              		.align	2
 1736              	.L107:
 1737 0018 00000000 		.word	.LANCHOR13
 1738              		.cfi_endproc
 1739              	.LFE266:
 1740              		.size	mpu9150_get_raw_accel_gyro_mag, .-mpu9150_get_raw_accel_gyro_mag
 1741              		.section	.text.mpu9150_get_accel,"ax",%progbits
 1742              		.align	1
 1743              		.p2align 4,,15
 1744              		.global	mpu9150_get_accel
 1745              		.syntax unified
 1746              		.thumb
 1747              		.thumb_func
 1748              		.fpu fpv4-sp-d16
 1749              		.type	mpu9150_get_accel, %function
 1750              	mpu9150_get_accel:
 1751              	.LFB267:
 1752              		.loc 1 201 0
 1753              		.cfi_startproc
 1754              		@ args = 0, pretend = 0, frame = 0
 1755              		@ frame_needed = 0, uses_anonymous_args = 0
 1756              		@ link register save eliminated.
 1757              	.LVL106:
 1758              		.loc 1 202 0
 1759 0000 144B     		ldr	r3, .L110
 1760 0002 9FED156A 		vldr.32	s12, .L110+4
 1761 0006 1988     		ldrh	r1, [r3]
 1762              		.loc 1 203 0
 1763 0008 5A88     		ldrh	r2, [r3, #2]
 1764              		.loc 1 204 0
 1765 000a 9B88     		ldrh	r3, [r3, #4]
 1766              		.loc 1 202 0
 1767 000c 09B2     		sxth	r1, r1
ARM GAS  /tmp/ccIpp2x8.s 			page 32


 1768              		.loc 1 203 0
 1769 000e 12B2     		sxth	r2, r2
 1770              		.loc 1 204 0
 1771 0010 1BB2     		sxth	r3, r3
 1772              		.loc 1 202 0
 1773 0012 06EE901A 		vmov	s13, r1	@ int
 1774              		.loc 1 203 0
 1775 0016 07EE102A 		vmov	s14, r2	@ int
 1776              		.loc 1 204 0
 1777 001a 07EE903A 		vmov	s15, r3	@ int
 1778              		.loc 1 202 0
 1779 001e F8EEE66A 		vcvt.f32.s32	s13, s13
 1780              		.loc 1 203 0
 1781 0022 B8EEC77A 		vcvt.f32.s32	s14, s14
 1782              		.loc 1 204 0
 1783 0026 F8EEE77A 		vcvt.f32.s32	s15, s15
 1784              		.loc 1 202 0
 1785 002a F3EE005A 		vmov.f32	s11, #1.6e+1
 1786 002e 66EEA56A 		vmul.f32	s13, s13, s11
 1787              		.loc 1 203 0
 1788 0032 27EE257A 		vmul.f32	s14, s14, s11
 1789              		.loc 1 204 0
 1790 0036 67EEA57A 		vmul.f32	s15, s15, s11
 1791              		.loc 1 202 0
 1792 003a 66EE866A 		vmul.f32	s13, s13, s12
 1793              		.loc 1 203 0
 1794 003e 27EE067A 		vmul.f32	s14, s14, s12
 1795              		.loc 1 204 0
 1796 0042 67EE867A 		vmul.f32	s15, s15, s12
 1797              		.loc 1 202 0
 1798 0046 C0ED006A 		vstr.32	s13, [r0]
 1799              		.loc 1 203 0
 1800 004a 80ED017A 		vstr.32	s14, [r0, #4]
 1801              		.loc 1 204 0
 1802 004e C0ED027A 		vstr.32	s15, [r0, #8]
 1803              		.loc 1 205 0
 1804 0052 7047     		bx	lr
 1805              	.L111:
 1806              		.align	2
 1807              	.L110:
 1808 0054 00000000 		.word	.LANCHOR13
 1809 0058 00000038 		.word	939524096
 1810              		.cfi_endproc
 1811              	.LFE267:
 1812              		.size	mpu9150_get_accel, .-mpu9150_get_accel
 1813              		.section	.text.mpu9150_get_gyro,"ax",%progbits
 1814              		.align	1
 1815              		.p2align 4,,15
 1816              		.global	mpu9150_get_gyro
 1817              		.syntax unified
 1818              		.thumb
 1819              		.thumb_func
 1820              		.fpu fpv4-sp-d16
 1821              		.type	mpu9150_get_gyro, %function
 1822              	mpu9150_get_gyro:
 1823              	.LFB268:
 1824              		.loc 1 207 0
ARM GAS  /tmp/ccIpp2x8.s 			page 33


 1825              		.cfi_startproc
 1826              		@ args = 0, pretend = 0, frame = 0
 1827              		@ frame_needed = 0, uses_anonymous_args = 0
 1828              		@ link register save eliminated.
 1829              	.LVL107:
 1830              		.loc 1 208 0
 1831 0000 144B     		ldr	r3, .L113
 1832 0002 DFED155A 		vldr.32	s11, .L113+4
 1833 0006 D988     		ldrh	r1, [r3, #6]
 1834              		.loc 1 209 0
 1835 0008 1A89     		ldrh	r2, [r3, #8]
 1836              		.loc 1 210 0
 1837 000a 5B89     		ldrh	r3, [r3, #10]
 1838              		.loc 1 208 0
 1839 000c 9FED136A 		vldr.32	s12, .L113+8
 1840 0010 09B2     		sxth	r1, r1
 1841              		.loc 1 209 0
 1842 0012 12B2     		sxth	r2, r2
 1843              		.loc 1 210 0
 1844 0014 1BB2     		sxth	r3, r3
 1845              		.loc 1 208 0
 1846 0016 06EE901A 		vmov	s13, r1	@ int
 1847              		.loc 1 209 0
 1848 001a 07EE102A 		vmov	s14, r2	@ int
 1849              		.loc 1 210 0
 1850 001e 07EE903A 		vmov	s15, r3	@ int
 1851              		.loc 1 208 0
 1852 0022 F8EEE66A 		vcvt.f32.s32	s13, s13
 1853              		.loc 1 209 0
 1854 0026 B8EEC77A 		vcvt.f32.s32	s14, s14
 1855              		.loc 1 210 0
 1856 002a F8EEE77A 		vcvt.f32.s32	s15, s15
 1857              		.loc 1 208 0
 1858 002e 66EEA56A 		vmul.f32	s13, s13, s11
 1859              		.loc 1 209 0
 1860 0032 27EE257A 		vmul.f32	s14, s14, s11
 1861              		.loc 1 210 0
 1862 0036 67EEA57A 		vmul.f32	s15, s15, s11
 1863              		.loc 1 208 0
 1864 003a 66EE866A 		vmul.f32	s13, s13, s12
 1865              		.loc 1 209 0
 1866 003e 27EE067A 		vmul.f32	s14, s14, s12
 1867              		.loc 1 210 0
 1868 0042 67EE867A 		vmul.f32	s15, s15, s12
 1869              		.loc 1 208 0
 1870 0046 C0ED006A 		vstr.32	s13, [r0]
 1871              		.loc 1 209 0
 1872 004a 80ED017A 		vstr.32	s14, [r0, #4]
 1873              		.loc 1 210 0
 1874 004e C0ED027A 		vstr.32	s15, [r0, #8]
 1875              		.loc 1 211 0
 1876 0052 7047     		bx	lr
 1877              	.L114:
 1878              		.align	2
 1879              	.L113:
 1880 0054 00000000 		.word	.LANCHOR13
 1881 0058 0000FA44 		.word	1157234688
ARM GAS  /tmp/ccIpp2x8.s 			page 34


 1882 005c 00000038 		.word	939524096
 1883              		.cfi_endproc
 1884              	.LFE268:
 1885              		.size	mpu9150_get_gyro, .-mpu9150_get_gyro
 1886              		.section	.text.mpu9150_get_mag,"ax",%progbits
 1887              		.align	1
 1888              		.p2align 4,,15
 1889              		.global	mpu9150_get_mag
 1890              		.syntax unified
 1891              		.thumb
 1892              		.thumb_func
 1893              		.fpu fpv4-sp-d16
 1894              		.type	mpu9150_get_mag, %function
 1895              	mpu9150_get_mag:
 1896              	.LFB269:
 1897              		.loc 1 213 0
 1898              		.cfi_startproc
 1899              		@ args = 0, pretend = 0, frame = 0
 1900              		@ frame_needed = 0, uses_anonymous_args = 0
 1901              		@ link register save eliminated.
 1902              	.LVL108:
 1903              		.loc 1 215 0
 1904 0000 144B     		ldr	r3, .L116
 1905 0002 DFED155A 		vldr.32	s11, .L116+4
 1906 0006 9989     		ldrh	r1, [r3, #12]
 1907              		.loc 1 216 0
 1908 0008 DA89     		ldrh	r2, [r3, #14]
 1909              		.loc 1 217 0
 1910 000a 1B8A     		ldrh	r3, [r3, #16]
 1911              		.loc 1 215 0
 1912 000c 9FED136A 		vldr.32	s12, .L116+8
 1913 0010 09B2     		sxth	r1, r1
 1914              		.loc 1 216 0
 1915 0012 12B2     		sxth	r2, r2
 1916              		.loc 1 217 0
 1917 0014 1BB2     		sxth	r3, r3
 1918              		.loc 1 215 0
 1919 0016 06EE901A 		vmov	s13, r1	@ int
 1920              		.loc 1 216 0
 1921 001a 07EE102A 		vmov	s14, r2	@ int
 1922              		.loc 1 217 0
 1923 001e 07EE903A 		vmov	s15, r3	@ int
 1924              		.loc 1 215 0
 1925 0022 F8EEE66A 		vcvt.f32.s32	s13, s13
 1926              		.loc 1 216 0
 1927 0026 B8EEC77A 		vcvt.f32.s32	s14, s14
 1928              		.loc 1 217 0
 1929 002a F8EEE77A 		vcvt.f32.s32	s15, s15
 1930              		.loc 1 215 0
 1931 002e 66EEA56A 		vmul.f32	s13, s13, s11
 1932              		.loc 1 216 0
 1933 0032 27EE257A 		vmul.f32	s14, s14, s11
 1934              		.loc 1 217 0
 1935 0036 67EEA57A 		vmul.f32	s15, s15, s11
 1936              		.loc 1 215 0
 1937 003a 66EE866A 		vmul.f32	s13, s13, s12
 1938              		.loc 1 216 0
ARM GAS  /tmp/ccIpp2x8.s 			page 35


 1939 003e 27EE067A 		vmul.f32	s14, s14, s12
 1940              		.loc 1 217 0
 1941 0042 67EE867A 		vmul.f32	s15, s15, s12
 1942              		.loc 1 215 0
 1943 0046 C0ED006A 		vstr.32	s13, [r0]
 1944              		.loc 1 216 0
 1945 004a 80ED017A 		vstr.32	s14, [r0, #4]
 1946              		.loc 1 217 0
 1947 004e C0ED027A 		vstr.32	s15, [r0, #8]
 1948              		.loc 1 223 0
 1949 0052 7047     		bx	lr
 1950              	.L117:
 1951              		.align	2
 1952              	.L116:
 1953 0054 00000000 		.word	.LANCHOR13
 1954 0058 00009644 		.word	1150681088
 1955 005c 00008039 		.word	964689920
 1956              		.cfi_endproc
 1957              	.LFE269:
 1958              		.size	mpu9150_get_mag, .-mpu9150_get_mag
 1959              		.section	.text.mpu9150_get_accel_gyro_mag,"ax",%progbits
 1960              		.align	1
 1961              		.p2align 4,,15
 1962              		.global	mpu9150_get_accel_gyro_mag
 1963              		.syntax unified
 1964              		.thumb
 1965              		.thumb_func
 1966              		.fpu fpv4-sp-d16
 1967              		.type	mpu9150_get_accel_gyro_mag, %function
 1968              	mpu9150_get_accel_gyro_mag:
 1969              	.LFB270:
 1970              		.loc 1 225 0
 1971              		.cfi_startproc
 1972              		@ args = 0, pretend = 0, frame = 0
 1973              		@ frame_needed = 0, uses_anonymous_args = 0
 1974              		@ link register save eliminated.
 1975              	.LVL109:
 1976 0000 F0B4     		push	{r4, r5, r6, r7}
 1977              		.cfi_def_cfa_offset 16
 1978              		.cfi_offset 4, -16
 1979              		.cfi_offset 5, -12
 1980              		.cfi_offset 6, -8
 1981              		.cfi_offset 7, -4
 1982              	.LBB453:
 1983              	.LBB454:
 1984              		.loc 1 202 0
 1985 0002 3D4F     		ldr	r7, .L120
 1986              	.LBE454:
 1987              	.LBE453:
 1988              	.LBB465:
 1989              	.LBB466:
 1990              		.loc 1 208 0
 1991 0004 DFED3D1A 		vldr.32	s3, .L120+4
 1992              	.LBE466:
 1993              	.LBE465:
 1994              	.LBB477:
 1995              	.LBB455:
ARM GAS  /tmp/ccIpp2x8.s 			page 36


 1996              		.loc 1 202 0
 1997 0008 B7F800C0 		ldrh	ip, [r7]
 1998              		.loc 1 203 0
 1999 000c 7E88     		ldrh	r6, [r7, #2]
 2000              		.loc 1 204 0
 2001 000e BD88     		ldrh	r5, [r7, #4]
 2002              	.LBE455:
 2003              	.LBE477:
 2004              	.LBB478:
 2005              	.LBB467:
 2006              		.loc 1 208 0
 2007 0010 FC88     		ldrh	r4, [r7, #6]
 2008              		.loc 1 209 0
 2009 0012 3B89     		ldrh	r3, [r7, #8]
 2010              	.LBE467:
 2011              	.LBE478:
 2012              	.LBB479:
 2013              	.LBB480:
 2014              		.loc 1 215 0
 2015 0014 9FED3A2A 		vldr.32	s4, .L120+8
 2016              	.LBE480:
 2017              	.LBE479:
 2018              	.LBB492:
 2019              	.LBB456:
 2020              		.loc 1 202 0
 2021 0018 DFED3A2A 		vldr.32	s5, .L120+12
 2022              	.LBE456:
 2023              	.LBE492:
 2024              	.LBB493:
 2025              	.LBB481:
 2026              		.loc 1 215 0
 2027 001c DFED3A3A 		vldr.32	s7, .L120+16
 2028              	.LBE481:
 2029              	.LBE493:
 2030              	.LBB494:
 2031              	.LBB457:
 2032              		.loc 1 203 0
 2033 0020 36B2     		sxth	r6, r6
 2034              		.loc 1 204 0
 2035 0022 2DB2     		sxth	r5, r5
 2036              	.LBE457:
 2037              	.LBE494:
 2038              	.LBB495:
 2039              	.LBB468:
 2040              		.loc 1 208 0
 2041 0024 24B2     		sxth	r4, r4
 2042              		.loc 1 209 0
 2043 0026 1BB2     		sxth	r3, r3
 2044              	.LBE468:
 2045              	.LBE495:
 2046              	.LBB496:
 2047              	.LBB458:
 2048              		.loc 1 203 0
 2049 0028 04EE106A 		vmov	s8, r6	@ int
 2050              		.loc 1 204 0
 2051 002c 04EE905A 		vmov	s9, r5	@ int
 2052              	.LBE458:
ARM GAS  /tmp/ccIpp2x8.s 			page 37


 2053              	.LBE496:
 2054              	.LBB497:
 2055              	.LBB469:
 2056              		.loc 1 210 0
 2057 0030 7E89     		ldrh	r6, [r7, #10]
 2058              	.LBE469:
 2059              	.LBE497:
 2060              	.LBB498:
 2061              	.LBB482:
 2062              		.loc 1 215 0
 2063 0032 BD89     		ldrh	r5, [r7, #12]
 2064              	.LBE482:
 2065              	.LBE498:
 2066              	.LBB499:
 2067              	.LBB470:
 2068              		.loc 1 208 0
 2069 0034 05EE104A 		vmov	s10, r4	@ int
 2070              		.loc 1 209 0
 2071 0038 05EE903A 		vmov	s11, r3	@ int
 2072              	.LBE470:
 2073              	.LBE499:
 2074              	.LBB500:
 2075              	.LBB483:
 2076              		.loc 1 216 0
 2077 003c FC89     		ldrh	r4, [r7, #14]
 2078              		.loc 1 217 0
 2079 003e 3B8A     		ldrh	r3, [r7, #16]
 2080              	.LBE483:
 2081              	.LBE500:
 2082              	.LBB501:
 2083              	.LBB471:
 2084              		.loc 1 210 0
 2085 0040 36B2     		sxth	r6, r6
 2086              	.LBE471:
 2087              	.LBE501:
 2088              	.LBB502:
 2089              	.LBB484:
 2090              		.loc 1 215 0
 2091 0042 2DB2     		sxth	r5, r5
 2092              		.loc 1 216 0
 2093 0044 24B2     		sxth	r4, r4
 2094              	.LBE484:
 2095              	.LBE502:
 2096              	.LBB503:
 2097              	.LBB459:
 2098              		.loc 1 202 0
 2099 0046 0FFA8CFC 		sxth	ip, ip
 2100              	.LBE459:
 2101              	.LBE503:
 2102              	.LBB504:
 2103              	.LBB485:
 2104              		.loc 1 217 0
 2105 004a 1BB2     		sxth	r3, r3
 2106              	.LBE485:
 2107              	.LBE504:
 2108              	.LBB505:
 2109              	.LBB472:
ARM GAS  /tmp/ccIpp2x8.s 			page 38


 2110              		.loc 1 210 0
 2111 004c 06EE106A 		vmov	s12, r6	@ int
 2112              	.LBE472:
 2113              	.LBE505:
 2114              	.LBB506:
 2115              	.LBB486:
 2116              		.loc 1 215 0
 2117 0050 06EE905A 		vmov	s13, r5	@ int
 2118              		.loc 1 216 0
 2119 0054 07EE104A 		vmov	s14, r4	@ int
 2120              	.LBE486:
 2121              	.LBE506:
 2122              	.LBB507:
 2123              	.LBB460:
 2124              		.loc 1 202 0
 2125 0058 03EE10CA 		vmov	s6, ip	@ int
 2126              	.LBE460:
 2127              	.LBE507:
 2128              	.LBB508:
 2129              	.LBB487:
 2130              		.loc 1 217 0
 2131 005c 07EE903A 		vmov	s15, r3	@ int
 2132              	.LBE487:
 2133              	.LBE508:
 2134              	.LBB509:
 2135              	.LBB461:
 2136              		.loc 1 202 0
 2137 0060 B8EEC33A 		vcvt.f32.s32	s6, s6
 2138              		.loc 1 203 0
 2139 0064 B8EEC44A 		vcvt.f32.s32	s8, s8
 2140              		.loc 1 204 0
 2141 0068 F8EEE44A 		vcvt.f32.s32	s9, s9
 2142              	.LBE461:
 2143              	.LBE509:
 2144              	.LBB510:
 2145              	.LBB473:
 2146              		.loc 1 208 0
 2147 006c B8EEC55A 		vcvt.f32.s32	s10, s10
 2148              		.loc 1 209 0
 2149 0070 F8EEE55A 		vcvt.f32.s32	s11, s11
 2150              		.loc 1 210 0
 2151 0074 B8EEC66A 		vcvt.f32.s32	s12, s12
 2152              	.LBE473:
 2153              	.LBE510:
 2154              	.LBB511:
 2155              	.LBB488:
 2156              		.loc 1 215 0
 2157 0078 F8EEE66A 		vcvt.f32.s32	s13, s13
 2158              		.loc 1 216 0
 2159 007c B8EEC77A 		vcvt.f32.s32	s14, s14
 2160              		.loc 1 217 0
 2161 0080 F8EEE77A 		vcvt.f32.s32	s15, s15
 2162              	.LBE488:
 2163              	.LBE511:
 2164              	.LBB512:
 2165              	.LBB462:
 2166              		.loc 1 202 0
ARM GAS  /tmp/ccIpp2x8.s 			page 39


 2167 0084 B3EE001A 		vmov.f32	s2, #1.6e+1
 2168 0088 23EE013A 		vmul.f32	s6, s6, s2
 2169              		.loc 1 203 0
 2170 008c 24EE014A 		vmul.f32	s8, s8, s2
 2171              		.loc 1 204 0
 2172 0090 64EE814A 		vmul.f32	s9, s9, s2
 2173              	.LBE462:
 2174              	.LBE512:
 2175              	.LBB513:
 2176              	.LBB474:
 2177              		.loc 1 208 0
 2178 0094 25EE215A 		vmul.f32	s10, s10, s3
 2179              		.loc 1 209 0
 2180 0098 65EEA15A 		vmul.f32	s11, s11, s3
 2181              		.loc 1 210 0
 2182 009c 26EE216A 		vmul.f32	s12, s12, s3
 2183              	.LBE474:
 2184              	.LBE513:
 2185              	.LBB514:
 2186              	.LBB489:
 2187              		.loc 1 215 0
 2188 00a0 66EE826A 		vmul.f32	s13, s13, s4
 2189              		.loc 1 216 0
 2190 00a4 27EE027A 		vmul.f32	s14, s14, s4
 2191              		.loc 1 217 0
 2192 00a8 67EE827A 		vmul.f32	s15, s15, s4
 2193              	.LBE489:
 2194              	.LBE514:
 2195              	.LBB515:
 2196              	.LBB463:
 2197              		.loc 1 202 0
 2198 00ac 23EE223A 		vmul.f32	s6, s6, s5
 2199              		.loc 1 203 0
 2200 00b0 24EE224A 		vmul.f32	s8, s8, s5
 2201              		.loc 1 204 0
 2202 00b4 64EEA24A 		vmul.f32	s9, s9, s5
 2203              	.LBE463:
 2204              	.LBE515:
 2205              	.LBB516:
 2206              	.LBB475:
 2207              		.loc 1 208 0
 2208 00b8 25EE225A 		vmul.f32	s10, s10, s5
 2209              		.loc 1 209 0
 2210 00bc 65EEA25A 		vmul.f32	s11, s11, s5
 2211              		.loc 1 210 0
 2212 00c0 26EE226A 		vmul.f32	s12, s12, s5
 2213              	.LBE475:
 2214              	.LBE516:
 2215              	.LBB517:
 2216              	.LBB490:
 2217              		.loc 1 215 0
 2218 00c4 66EEA36A 		vmul.f32	s13, s13, s7
 2219              		.loc 1 216 0
 2220 00c8 27EE237A 		vmul.f32	s14, s14, s7
 2221              		.loc 1 217 0
 2222 00cc 67EEA37A 		vmul.f32	s15, s15, s7
 2223              	.LVL110:
ARM GAS  /tmp/ccIpp2x8.s 			page 40


 2224              	.LBE490:
 2225              	.LBE517:
 2226              	.LBB518:
 2227              	.LBB464:
 2228              		.loc 1 202 0
 2229 00d0 80ED003A 		vstr.32	s6, [r0]
 2230              		.loc 1 203 0
 2231 00d4 80ED014A 		vstr.32	s8, [r0, #4]
 2232              		.loc 1 204 0
 2233 00d8 C0ED024A 		vstr.32	s9, [r0, #8]
 2234              	.LVL111:
 2235              	.LBE464:
 2236              	.LBE518:
 2237              		.loc 1 229 0
 2238 00dc F0BC     		pop	{r4, r5, r6, r7}
 2239              		.cfi_restore 7
 2240              		.cfi_restore 6
 2241              		.cfi_restore 5
 2242              		.cfi_restore 4
 2243              		.cfi_def_cfa_offset 0
 2244              	.LBB519:
 2245              	.LBB476:
 2246              		.loc 1 208 0
 2247 00de 81ED005A 		vstr.32	s10, [r1]
 2248              		.loc 1 209 0
 2249 00e2 C1ED015A 		vstr.32	s11, [r1, #4]
 2250              		.loc 1 210 0
 2251 00e6 81ED026A 		vstr.32	s12, [r1, #8]
 2252              	.LVL112:
 2253              	.LBE476:
 2254              	.LBE519:
 2255              	.LBB520:
 2256              	.LBB491:
 2257              		.loc 1 215 0
 2258 00ea C2ED006A 		vstr.32	s13, [r2]
 2259              		.loc 1 216 0
 2260 00ee 82ED017A 		vstr.32	s14, [r2, #4]
 2261              		.loc 1 217 0
 2262 00f2 C2ED027A 		vstr.32	s15, [r2, #8]
 2263              	.LVL113:
 2264              	.LBE491:
 2265              	.LBE520:
 2266              		.loc 1 229 0
 2267 00f6 7047     		bx	lr
 2268              	.L121:
 2269              		.align	2
 2270              	.L120:
 2271 00f8 00000000 		.word	.LANCHOR13
 2272 00fc 0000FA44 		.word	1157234688
 2273 0100 00009644 		.word	1150681088
 2274 0104 00000038 		.word	939524096
 2275 0108 00008039 		.word	964689920
 2276              		.cfi_endproc
 2277              	.LFE270:
 2278              		.size	mpu9150_get_accel_gyro_mag, .-mpu9150_get_accel_gyro_mag
 2279              		.section	.bss.failed_mag_reads,"aw",%nobits
 2280              		.align	2
ARM GAS  /tmp/ccIpp2x8.s 			page 41


 2281              		.set	.LANCHOR2,. + 0
 2282              		.type	failed_mag_reads, %object
 2283              		.size	failed_mag_reads, 4
 2284              	failed_mag_reads:
 2285 0000 00000000 		.space	4
 2286              		.section	.bss.failed_reads,"aw",%nobits
 2287              		.align	2
 2288              		.set	.LANCHOR9,. + 0
 2289              		.type	failed_reads, %object
 2290              		.size	failed_reads, 4
 2291              	failed_reads:
 2292 0000 00000000 		.space	4
 2293              		.section	.bss.i2cs,"aw",%nobits
 2294              		.align	2
 2295              		.set	.LANCHOR4,. + 0
 2296              		.type	i2cs, %object
 2297              		.size	i2cs, 20
 2298              	i2cs:
 2299 0000 00000000 		.space	20
 2299      00000000 
 2299      00000000 
 2299      00000000 
 2299      00000000 
 2300              		.section	.bss.identical_reads.11858,"aw",%nobits
 2301              		.align	2
 2302              		.set	.LANCHOR19,. + 0
 2303              		.type	identical_reads.11858, %object
 2304              		.size	identical_reads.11858, 4
 2305              	identical_reads.11858:
 2306 0000 00000000 		.space	4
 2307              		.section	.bss.is_mpu9250,"aw",%nobits
 2308              		.set	.LANCHOR1,. + 0
 2309              		.type	is_mpu9250, %object
 2310              		.size	is_mpu9250, 1
 2311              	is_mpu9250:
 2312 0000 00       		.space	1
 2313              		.section	.bss.iteration_timer.11857,"aw",%nobits
 2314              		.align	2
 2315              		.set	.LANCHOR8,. + 0
 2316              		.type	iteration_timer.11857, %object
 2317              		.size	iteration_timer.11857, 4
 2318              	iteration_timer.11857:
 2319 0000 00000000 		.space	4
 2320              		.section	.bss.last_update_time,"aw",%nobits
 2321              		.align	2
 2322              		.set	.LANCHOR14,. + 0
 2323              		.type	last_update_time, %object
 2324              		.size	last_update_time, 4
 2325              	last_update_time:
 2326 0000 00000000 		.space	4
 2327              		.section	.bss.mag_updated,"aw",%nobits
 2328              		.align	2
 2329              		.set	.LANCHOR18,. + 0
 2330              		.type	mag_updated, %object
 2331              		.size	mag_updated, 4
 2332              	mag_updated:
 2333 0000 00000000 		.space	4
ARM GAS  /tmp/ccIpp2x8.s 			page 42


 2334              		.section	.bss.mpu9150_gyro_offsets,"aw",%nobits
 2335              		.align	2
 2336              		.set	.LANCHOR12,. + 0
 2337              		.type	mpu9150_gyro_offsets, %object
 2338              		.size	mpu9150_gyro_offsets, 6
 2339              	mpu9150_gyro_offsets:
 2340 0000 00000000 		.space	6
 2340      0000
 2341              		.section	.bss.mpu_addr,"aw",%nobits
 2342              		.align	1
 2343              		.set	.LANCHOR3,. + 0
 2344              		.type	mpu_addr, %object
 2345              		.size	mpu_addr, 2
 2346              	mpu_addr:
 2347 0000 0000     		.space	2
 2348              		.section	.bss.mpu_found,"aw",%nobits
 2349              		.set	.LANCHOR0,. + 0
 2350              		.type	mpu_found, %object
 2351              		.size	mpu_found, 1
 2352              	mpu_found:
 2353 0000 00       		.space	1
 2354              		.section	.bss.mpu_thread_wa,"aw",%nobits
 2355              		.align	3
 2356              		.set	.LANCHOR20,. + 0
 2357              		.type	mpu_thread_wa, %object
 2358              		.size	mpu_thread_wa, 2456
 2359              	mpu_thread_wa:
 2360 0000 00000000 		.space	2456
 2360      00000000 
 2360      00000000 
 2360      00000000 
 2360      00000000 
 2361              		.section	.bss.mpu_tp,"aw",%nobits
 2362              		.align	2
 2363              		.set	.LANCHOR7,. + 0
 2364              		.type	mpu_tp, %object
 2365              		.size	mpu_tp, 4
 2366              	mpu_tp:
 2367 0000 00000000 		.space	4
 2368              		.section	.bss.raw_accel_gyro_mag,"aw",%nobits
 2369              		.align	2
 2370              		.set	.LANCHOR13,. + 0
 2371              		.type	raw_accel_gyro_mag, %object
 2372              		.size	raw_accel_gyro_mag, 18
 2373              	raw_accel_gyro_mag:
 2374 0000 00000000 		.space	18
 2374      00000000 
 2374      00000000 
 2374      00000000 
 2374      0000
 2375              		.section	.bss.raw_accel_gyro_mag_no_offset,"aw",%nobits
 2376              		.align	2
 2377              		.set	.LANCHOR11,. + 0
 2378              		.type	raw_accel_gyro_mag_no_offset, %object
 2379              		.size	raw_accel_gyro_mag_no_offset, 18
 2380              	raw_accel_gyro_mag_no_offset:
 2381 0000 00000000 		.space	18
ARM GAS  /tmp/ccIpp2x8.s 			page 43


 2381      00000000 
 2381      00000000 
 2381      00000000 
 2381      0000
 2382              		.section	.bss.raw_accel_gyro_mag_tmp.11855,"aw",%nobits
 2383              		.align	2
 2384              		.set	.LANCHOR10,. + 0
 2385              		.type	raw_accel_gyro_mag_tmp.11855, %object
 2386              		.size	raw_accel_gyro_mag_tmp.11855, 18
 2387              	raw_accel_gyro_mag_tmp.11855:
 2388 0000 00000000 		.space	18
 2388      00000000 
 2388      00000000 
 2388      00000000 
 2388      0000
 2389              		.section	.bss.read_callback,"aw",%nobits
 2390              		.align	2
 2391              		.set	.LANCHOR16,. + 0
 2392              		.type	read_callback, %object
 2393              		.size	read_callback, 4
 2394              	read_callback:
 2395 0000 00000000 		.space	4
 2396              		.section	.bss.rx_buf,"aw",%nobits
 2397              		.align	2
 2398              		.set	.LANCHOR6,. + 0
 2399              		.type	rx_buf, %object
 2400              		.size	rx_buf, 100
 2401              	rx_buf:
 2402 0000 00000000 		.space	100
 2402      00000000 
 2402      00000000 
 2402      00000000 
 2402      00000000 
 2403              		.section	.bss.tx_buf,"aw",%nobits
 2404              		.align	2
 2405              		.set	.LANCHOR5,. + 0
 2406              		.type	tx_buf, %object
 2407              		.size	tx_buf, 100
 2408              	tx_buf:
 2409 0000 00000000 		.space	100
 2409      00000000 
 2409      00000000 
 2409      00000000 
 2409      00000000 
 2410              		.section	.bss.update_time_diff,"aw",%nobits
 2411              		.align	2
 2412              		.set	.LANCHOR15,. + 0
 2413              		.type	update_time_diff, %object
 2414              		.size	update_time_diff, 4
 2415              	update_time_diff:
 2416 0000 00000000 		.space	4
 2417              		.section	.data.mag_cnt.11856,"aw",%progbits
 2418              		.align	2
 2419              		.set	.LANCHOR17,. + 0
 2420              		.type	mag_cnt.11856, %object
 2421              		.size	mag_cnt.11856, 4
 2422              	mag_cnt.11856:
ARM GAS  /tmp/ccIpp2x8.s 			page 44


 2423 0000 0A000000 		.word	10
 2424              		.section	.rodata.mpu9150_init.str1.4,"aMS",%progbits,1
 2425              		.align	2
 2426              	.LC5:
 2427 0000 5072696E 		.ascii	"Print status of the MPU 9150/9250\000"
 2427      74207374 
 2427      61747573 
 2427      206F6620 
 2427      74686520 
 2428 0022 0000     		.space	2
 2429              	.LC6:
 2430 0024 6D70755F 		.ascii	"mpu_status\000"
 2430      73746174 
 2430      757300
 2431              		.section	.rodata.mpu_thread.str1.4,"aMS",%progbits,1
 2432              		.align	2
 2433              	.LC4:
 2434 0000 4D505520 		.ascii	"MPU Sampling\000"
 2434      53616D70 
 2434      6C696E67 
 2434      00
 2435              		.section	.rodata.terminal_status.str1.4,"aMS",%progbits,1
 2436              		.align	2
 2437              	.LC0:
 2438 0000 4D505539 		.ascii	"MPU9250\000"
 2438      32353000 
 2439              	.LC1:
 2440 0008 4D505539 		.ascii	"MPU9150\000"
 2440      31353000 
 2441              	.LC2:
 2442 0010 54797065 		.ascii	"Type       : %s\012Errors     : %i\012Errors Mag : "
 2442      20202020 
 2442      2020203A 
 2442      2025730A 
 2442      4572726F 
 2443 003d 25690A00 		.ascii	"%i\012\000"
 2444 0041 000000   		.space	3
 2445              	.LC3:
 2446 0044 4D505539 		.ascii	"MPU9x50 not found\012\000"
 2446      78353020 
 2446      6E6F7420 
 2446      666F756E 
 2446      640A00
 2447              		.text
 2448              	.Letext0:
 2449              		.file 5 "/usr/arm-none-eabi/include/machine/_default_types.h"
 2450              		.file 6 "/usr/arm-none-eabi/include/sys/_stdint.h"
 2451              		.file 7 "/usr/lib/gcc/arm-none-eabi/7.3.1/include/stddef.h"
 2452              		.file 8 "ChibiOS_3.0.2/os/rt/ports/ARMCMx/compilers/GCC/chtypes.h"
 2453              		.file 9 "ChibiOS_3.0.2/os/rt/include/chsystypes.h"
 2454              		.file 10 "ChibiOS_3.0.2/os/rt/include/chschd.h"
 2455              		.file 11 "ChibiOS_3.0.2/os/ext/CMSIS/include/core_cm4.h"
 2456              		.file 12 "ChibiOS_3.0.2/os/ext/CMSIS/ST/system_stm32f4xx.h"
 2457              		.file 13 "ChibiOS_3.0.2/os/ext/CMSIS/ST/stm32f407xx.h"
 2458              		.file 14 "ChibiOS_3.0.2/os/rt/ports/ARMCMx/chcore.h"
 2459              		.file 15 "ChibiOS_3.0.2/os/rt/ports/ARMCMx/chcore_v7m.h"
 2460              		.file 16 "ChibiOS_3.0.2/os/rt/include/chtm.h"
ARM GAS  /tmp/ccIpp2x8.s 			page 45


 2461              		.file 17 "ChibiOS_3.0.2/os/rt/include/chsem.h"
 2462              		.file 18 "ChibiOS_3.0.2/os/rt/include/chmtx.h"
 2463              		.file 19 "ChibiOS_3.0.2/os/rt/include/chevents.h"
 2464              		.file 20 "ChibiOS_3.0.2/os/rt/include/chqueues.h"
 2465              		.file 21 "./conf_general.h"
 2466              		.file 22 "ChibiOS_3.0.2/os/hal/ports/STM32/STM32F4xx/stm32_dma.h"
 2467              		.file 23 "ChibiOS_3.0.2/os/hal/ports/STM32/LLD/GPIOv2/pal_lld.h"
 2468              		.file 24 "ChibiOS_3.0.2/os/hal/include/can.h"
 2469              		.file 25 "ChibiOS_3.0.2/os/hal/ports/STM32/LLD/can_lld.h"
 2470              		.file 26 "ChibiOS_3.0.2/os/hal/include/i2c.h"
 2471              		.file 27 "ChibiOS_3.0.2/os/hal/ports/STM32/LLD/I2Cv1/i2c_lld.h"
 2472              		.file 28 "ChibiOS_3.0.2/os/hal/include/icu.h"
 2473              		.file 29 "ChibiOS_3.0.2/os/hal/ports/STM32/LLD/TIMv1/icu_lld.h"
 2474              		.file 30 "ChibiOS_3.0.2/os/hal/ports/STM32/LLD/TIMv1/stm32_tim.h"
 2475              		.file 31 "ChibiOS_3.0.2/os/hal/include/serial.h"
 2476              		.file 32 "ChibiOS_3.0.2/os/hal/ports/STM32/LLD/USARTv1/serial_lld.h"
 2477              		.file 33 "ChibiOS_3.0.2/os/hal/include/spi.h"
 2478              		.file 34 "ChibiOS_3.0.2/os/hal/ports/STM32/LLD/SPIv1/spi_lld.h"
 2479              		.file 35 "ChibiOS_3.0.2/os/hal/include/usb.h"
 2480              		.file 36 "ChibiOS_3.0.2/os/hal/ports/STM32/LLD/OTGv1/usb_lld.h"
 2481              		.file 37 "ChibiOS_3.0.2/os/hal/ports/STM32/LLD/OTGv1/stm32_otg.h"
 2482              		.file 38 "./i2c_bb.h"
 2483              		.file 39 "/usr/arm-none-eabi/include/sys/lock.h"
 2484              		.file 40 "/usr/arm-none-eabi/include/sys/_types.h"
 2485              		.file 41 "/usr/arm-none-eabi/include/sys/reent.h"
 2486              		.file 42 "/usr/arm-none-eabi/include/math.h"
 2487              		.file 43 "ChibiOS_3.0.2/os/rt/include/chsys.h"
 2488              		.file 44 "ChibiOS_3.0.2/os/rt/include/chthreads.h"
 2489              		.file 45 "./terminal.h"
 2490              		.file 46 "./commands.h"