ARM GAS  /tmp/cc0HVsVR.s 			page 1


   1              		.cpu cortex-m4
   2              		.eabi_attribute 27, 1
   3              		.eabi_attribute 28, 1
   4              		.eabi_attribute 20, 1
   5              		.eabi_attribute 21, 1
   6              		.eabi_attribute 23, 3
   7              		.eabi_attribute 24, 1
   8              		.eabi_attribute 25, 1
   9              		.eabi_attribute 26, 1
  10              		.eabi_attribute 30, 2
  11              		.eabi_attribute 34, 1
  12              		.eabi_attribute 18, 4
  13              		.file	"nrf_driver.c"
  14              		.text
  15              	.Ltext0:
  16              		.cfi_sections	.debug_frame
  17              		.section	.text.rf_tx_wrapper,"ax",%progbits
  18              		.align	1
  19              		.p2align 4,,15
  20              		.syntax unified
  21              		.thumb
  22              		.thumb_func
  23              		.fpu fpv4-sp-d16
  24              		.type	rf_tx_wrapper, %function
  25              	rf_tx_wrapper:
  26              	.LFB223:
  27              		.file 1 "nrf/nrf_driver.c"
  28              		.loc 1 165 0
  29              		.cfi_startproc
  30              		@ args = 0, pretend = 0, frame = 0
  31              		@ frame_needed = 1, uses_anonymous_args = 0
  32              	.LVL0:
  33 0000 B0B5     		push	{r4, r5, r7, lr}
  34              		.cfi_def_cfa_offset 16
  35              		.cfi_offset 4, -16
  36              		.cfi_offset 5, -12
  37              		.cfi_offset 7, -8
  38              		.cfi_offset 14, -4
  39              		.loc 1 168 0
  40 0002 134B     		ldr	r3, .L7
  41 0004 1B78     		ldrb	r3, [r3]	@ zero_extendqisi2
  42              		.loc 1 165 0
  43 0006 00AF     		add	r7, sp, #0
  44              		.cfi_def_cfa_register 7
  45              		.loc 1 168 0
  46 0008 43B9     		cbnz	r3, .L6
  47              		.loc 1 174 0
  48 000a FFF7FEFF 		bl	rfhelp_send_data_crc
  49              	.LVL1:
  50              		.loc 1 176 0
  51 000e 18B9     		cbnz	r0, .L1
  52              		.loc 1 177 0
  53 0010 104B     		ldr	r3, .L7+4
  54 0012 4FF4FA72 		mov	r2, #500
  55 0016 1A60     		str	r2, [r3]
  56              	.L1:
  57              		.loc 1 182 0
ARM GAS  /tmp/cc0HVsVR.s 			page 2


  58 0018 BD46     		mov	sp, r7
  59              		.cfi_remember_state
  60              		.cfi_def_cfa_register 13
  61              		@ sp needed
  62 001a B0BD     		pop	{r4, r5, r7, pc}
  63              	.LVL2:
  64              	.L6:
  65              		.cfi_restore_state
  66              	.LBB27:
  67              	.LBB28:
  68              	.LBB29:
  69              		.loc 1 169 0
  70 001c 01F10803 		add	r3, r1, #8
  71 0020 23F00703 		bic	r3, r3, #7
  72              		.loc 1 168 0
  73 0024 6D46     		mov	r5, sp
  74              		.loc 1 169 0
  75 0026 ADEB030D 		sub	sp, sp, r3
  76 002a 0446     		mov	r4, r0
  77              	.LVL3:
  78              		.loc 1 170 0
  79 002c 6846     		mov	r0, sp
  80              	.LVL4:
  81 002e 0A46     		mov	r2, r1
  82              	.LVL5:
  83 0030 3623     		movs	r3, #54
  84 0032 00F8013B 		strb	r3, [r0], #1
  85              	.LVL6:
  86              		.loc 1 171 0
  87 0036 2146     		mov	r1, r4
  88              	.LVL7:
  89              		.loc 1 169 0
  90 0038 541C     		adds	r4, r2, #1
  91              	.LVL8:
  92              		.loc 1 171 0
  93 003a FFF7FEFF 		bl	memcpy
  94              	.LVL9:
  95              		.loc 1 172 0
  96 003e 6846     		mov	r0, sp
  97 0040 2146     		mov	r1, r4
  98 0042 FFF7FEFF 		bl	commands_send_packet_nrf
  99              	.LVL10:
 100 0046 0020     		movs	r0, #0
 101 0048 AD46     		mov	sp, r5
 102              	.LVL11:
 103              	.LBE29:
 104              	.LBE28:
 105              	.LBE27:
 106              		.loc 1 182 0
 107 004a BD46     		mov	sp, r7
 108              		.cfi_def_cfa_register 13
 109              		@ sp needed
 110 004c B0BD     		pop	{r4, r5, r7, pc}
 111              	.L8:
 112 004e 00BF     		.align	2
 113              	.L7:
 114 0050 00000000 		.word	.LANCHOR0
ARM GAS  /tmp/cc0HVsVR.s 			page 3


 115 0054 00000000 		.word	.LANCHOR1
 116              		.cfi_endproc
 117              	.LFE223:
 118              		.size	rf_tx_wrapper, .-rf_tx_wrapper
 119              		.section	.text.tx_thread,"ax",%progbits
 120              		.align	1
 121              		.p2align 4,,15
 122              		.syntax unified
 123              		.thumb
 124              		.thumb_func
 125              		.fpu fpv4-sp-d16
 126              		.type	tx_thread, %function
 127              	tx_thread:
 128              	.LFB224:
 129              		.loc 1 184 0
 130              		.cfi_startproc
 131              		@ args = 0, pretend = 0, frame = 24
 132              		@ frame_needed = 0, uses_anonymous_args = 0
 133              	.LVL12:
 134 0000 2DE9F04F 		push	{r4, r5, r6, r7, r8, r9, r10, fp, lr}
 135              		.cfi_def_cfa_offset 36
 136              		.cfi_offset 4, -36
 137              		.cfi_offset 5, -32
 138              		.cfi_offset 6, -28
 139              		.cfi_offset 7, -24
 140              		.cfi_offset 8, -20
 141              		.cfi_offset 9, -16
 142              		.cfi_offset 10, -12
 143              		.cfi_offset 11, -8
 144              		.cfi_offset 14, -4
 145              		.loc 1 188 0
 146 0004 5E48     		ldr	r0, .L25
 147              	.LVL13:
 148              		.loc 1 191 0
 149 0006 5F4F     		ldr	r7, .L25+4
 150              	.LBB30:
 151              	.LBB31:
 152              		.file 2 "ChibiOS_3.0.2/os/rt/include/chregistry.h"
 153              		.loc 2 135 0
 154 0008 DFF89481 		ldr	r8, .L25+32
 155 000c 5E49     		ldr	r1, .L25+8
 156 000e D8F81820 		ldr	r2, [r8, #24]
 157              	.LBE31:
 158              	.LBE30:
 159              		.loc 1 188 0
 160 0012 0123     		movs	r3, #1
 161              		.loc 1 184 0
 162 0014 2DED028B 		vpush.64	{d8}
 163              		.cfi_def_cfa_offset 44
 164              		.cfi_offset 80, -44
 165              		.cfi_offset 81, -40
 166              		.loc 1 188 0
 167 0018 0370     		strb	r3, [r0]
 168              		.loc 1 191 0
 169 001a 3B78     		ldrb	r3, [r7]	@ zero_extendqisi2
 170              	.LBB33:
 171              	.LBB32:
ARM GAS  /tmp/cc0HVsVR.s 			page 4


 172              		.loc 2 135 0
 173 001c 9161     		str	r1, [r2, #24]
 174              	.LVL14:
 175              	.LBE32:
 176              	.LBE33:
 177              		.loc 1 184 0
 178 001e 87B0     		sub	sp, sp, #28
 179              		.cfi_def_cfa_offset 72
 180              		.loc 1 191 0
 181 0020 002B     		cmp	r3, #0
 182 0022 40F09180 		bne	.L17
 183 0026 594D     		ldr	r5, .L25+12
 184 0028 594C     		ldr	r4, .L25+16
 185 002a DFF87891 		ldr	r9, .L25+36
 186              		.loc 1 198 0
 187 002e 594E     		ldr	r6, .L25+20
 188              	.LBB34:
 189              		.loc 1 202 0
 190 0030 DFF874A1 		ldr	r10, .L25+40
 191              		.loc 1 205 0
 192 0034 9FED588A 		vldr.32	s16, .L25+24
 193 0038 3CE0     		b	.L10
 194              	.L11:
 195              	.LBE34:
 196              		.loc 1 219 0
 197 003a 2368     		ldr	r3, [r4]
 198 003c 002B     		cmp	r3, #0
 199 003e 02DD     		ble	.L13
 200              		.loc 1 220 0
 201 0040 2368     		ldr	r3, [r4]
 202 0042 013B     		subs	r3, r3, #1
 203 0044 2360     		str	r3, [r4]
 204              	.L13:
 205              	.LBB35:
 206              	.LBB36:
 207              		.file 3 "ChibiOS_3.0.2/os/rt/include/chvt.h"
 208              		.loc 3 231 0
 209 0046 D8F82830 		ldr	r3, [r8, #40]
 210              	.LBE36:
 211              	.LBE35:
 212              		.loc 1 223 0
 213 004a D9F80020 		ldr	r2, [r9]
 214 004e 9A42     		cmp	r2, r3
 215 0050 2AD2     		bcs	.L14
 216              		.loc 1 223 0 is_stmt 0 discriminator 1
 217 0052 3378     		ldrb	r3, [r6]	@ zero_extendqisi2
 218 0054 43B3     		cbz	r3, .L14
 219              	.LBB37:
 220              		.loc 1 224 0 is_stmt 1
 221 0056 0022     		movs	r2, #0
 222              		.loc 1 226 0
 223 0058 504B     		ldr	r3, .L25+28
 224              		.loc 1 224 0
 225 005a 3270     		strb	r2, [r6]
 226              		.loc 1 226 0
 227 005c 1B78     		ldrb	r3, [r3]	@ zero_extendqisi2
 228 005e 002B     		cmp	r3, #0
ARM GAS  /tmp/cc0HVsVR.s 			page 5


 229 0060 7AD0     		beq	.L15
 230              	.LBB38:
 231              		.loc 1 227 0
 232 0062 FFF7FEFF 		bl	app_get_configuration
 233              	.LVL15:
 234              		.loc 1 229 0
 235 0066 3523     		movs	r3, #53
 236 0068 8DF80430 		strb	r3, [sp, #4]
 237              		.loc 1 230 0
 238 006c 90F8C530 		ldrb	r3, [r0, #197]	@ zero_extendqisi2
 239 0070 8DF80530 		strb	r3, [sp, #5]
 240              		.loc 1 231 0
 241 0074 90F8C630 		ldrb	r3, [r0, #198]	@ zero_extendqisi2
 242 0078 8DF80630 		strb	r3, [sp, #6]
 243              		.loc 1 232 0
 244 007c 90F8C730 		ldrb	r3, [r0, #199]	@ zero_extendqisi2
 245 0080 8DF80730 		strb	r3, [sp, #7]
 246              		.loc 1 234 0
 247 0084 0DF1040B 		add	fp, sp, #4
 248              		.loc 1 233 0
 249 0088 90F8C820 		ldrb	r2, [r0, #200]	@ zero_extendqisi2
 250 008c 8DF80820 		strb	r2, [sp, #8]
 251              		.loc 1 234 0
 252 0090 5846     		mov	r0, fp
 253              	.LVL16:
 254 0092 0521     		movs	r1, #5
 255 0094 FFF7FEFF 		bl	commands_send_packet_nrf
 256              	.LVL17:
 257              	.L16:
 258              	.LBE38:
 259              		.loc 1 241 0 discriminator 1
 260 0098 40F22523 		movw	r3, #549
 261              		.loc 1 243 0 discriminator 1
 262 009c 5846     		mov	r0, fp
 263 009e 0221     		movs	r1, #2
 264              		.loc 1 241 0 discriminator 1
 265 00a0 ADF80430 		strh	r3, [sp, #4]	@ movhi
 266              		.loc 1 243 0 discriminator 1
 267 00a4 FFF7FEFF 		bl	commands_send_packet
 268              	.LVL18:
 269              	.L14:
 270              	.LBE37:
 271              		.loc 1 246 0
 272 00a8 0A20     		movs	r0, #10
 273 00aa FFF7FEFF 		bl	chThdSleep
 274              	.LVL19:
 275              		.loc 1 191 0
 276 00ae 3B78     		ldrb	r3, [r7]	@ zero_extendqisi2
 277 00b0 002B     		cmp	r3, #0
 278 00b2 49D1     		bne	.L17
 279              	.L10:
 280              		.loc 1 196 0
 281 00b4 2B68     		ldr	r3, [r5]
 282 00b6 0133     		adds	r3, r3, #1
 283              		.loc 1 198 0
 284 00b8 632B     		cmp	r3, #99
 285              		.loc 1 196 0
ARM GAS  /tmp/cc0HVsVR.s 			page 6


 286 00ba 2B60     		str	r3, [r5]
 287              		.loc 1 198 0
 288 00bc BDDD     		ble	.L11
 289              		.loc 1 198 0 is_stmt 0 discriminator 1
 290 00be 3378     		ldrb	r3, [r6]	@ zero_extendqisi2
 291 00c0 03F0FF00 		and	r0, r3, #255
 292 00c4 002B     		cmp	r3, #0
 293 00c6 B8D1     		bne	.L11
 294              	.LBB40:
 295              		.loc 1 202 0 is_stmt 1
 296 00c8 9AF80030 		ldrb	r3, [r10]	@ zero_extendqisi2
 297              		.loc 1 204 0
 298 00cc 0222     		movs	r2, #2
 299              		.loc 1 202 0
 300 00ce 0133     		adds	r3, r3, #1
 301              		.loc 1 204 0
 302 00d0 0121     		movs	r1, #1
 303              		.loc 1 202 0
 304 00d2 8AF80030 		strb	r3, [r10]
 305              		.loc 1 204 0
 306 00d6 8DF80420 		strb	r2, [sp, #4]
 307 00da 0091     		str	r1, [sp]
 308              		.loc 1 205 0
 309 00dc FFF7FEFF 		bl	mc_interface_get_battery_level
 310              	.LVL20:
 311 00e0 6946     		mov	r1, sp
 312 00e2 01A8     		add	r0, sp, #4
 313 00e4 F0EE480A 		vmov.f32	s1, s16
 314 00e8 FFF7FEFF 		bl	buffer_append_float16
 315              	.LVL21:
 316              		.loc 1 206 0
 317 00ec FFF7FEFF 		bl	mc_interface_get_speed
 318              	.LVL22:
 319 00f0 6946     		mov	r1, sp
 320 00f2 F0EE480A 		vmov.f32	s1, s16
 321 00f6 01A8     		add	r0, sp, #4
 322 00f8 FFF7FEFF 		bl	buffer_append_float32
 323              	.LVL23:
 324              		.loc 1 207 0
 325 00fc FFF7FEFF 		bl	mc_interface_get_distance_abs
 326              	.LVL24:
 327 0100 6946     		mov	r1, sp
 328 0102 F0EE480A 		vmov.f32	s1, s16
 329 0106 01A8     		add	r0, sp, #4
 330 0108 FFF7FEFF 		bl	buffer_append_float32
 331              	.LVL25:
 332              		.loc 1 208 0
 333 010c FFF7FEFF 		bl	mc_interface_temp_fet_filtered
 334              	.LVL26:
 335 0110 6946     		mov	r1, sp
 336 0112 01A8     		add	r0, sp, #4
 337 0114 F2EE040A 		vmov.f32	s1, #1.0e+1
 338 0118 FFF7FEFF 		bl	buffer_append_float16
 339              	.LVL27:
 340              		.loc 1 209 0
 341 011c FFF7FEFF 		bl	mc_interface_temp_motor_filtered
 342              	.LVL28:
ARM GAS  /tmp/cc0HVsVR.s 			page 7


 343 0120 6946     		mov	r1, sp
 344 0122 01A8     		add	r0, sp, #4
 345 0124 F2EE040A 		vmov.f32	s1, #1.0e+1
 346 0128 FFF7FEFF 		bl	buffer_append_float16
 347              	.LVL29:
 348              		.loc 1 210 0
 349 012c 0099     		ldr	r1, [sp]
 350              		.loc 1 212 0
 351 012e 2368     		ldr	r3, [r4]
 352              		.loc 1 210 0
 353 0130 9AF80000 		ldrb	r0, [r10]	@ zero_extendqisi2
 354 0134 06AA     		add	r2, sp, #24
 355 0136 0A44     		add	r2, r2, r1
 356 0138 0131     		adds	r1, r1, #1
 357 013a 0091     		str	r1, [sp]
 358 013c 02F8140C 		strb	r0, [r2, #-20]
 359              		.loc 1 212 0
 360 0140 D3B1     		cbz	r3, .L24
 361              	.L12:
 362              		.loc 1 216 0
 363 0142 0023     		movs	r3, #0
 364 0144 2B60     		str	r3, [r5]
 365 0146 78E7     		b	.L11
 366              	.L17:
 367              	.LBE40:
 368              		.loc 1 192 0
 369 0148 0D4A     		ldr	r2, .L25
 370 014a 0023     		movs	r3, #0
 371 014c 1370     		strb	r3, [r2]
 372              		.loc 1 249 0
 373 014e 07B0     		add	sp, sp, #28
 374              		.cfi_remember_state
 375              		.cfi_def_cfa_offset 44
 376              		@ sp needed
 377 0150 BDEC028B 		vldm	sp!, {d8}
 378              		.cfi_restore 80
 379              		.cfi_restore 81
 380              		.cfi_def_cfa_offset 36
 381 0154 BDE8F08F 		pop	{r4, r5, r6, r7, r8, r9, r10, fp, pc}
 382              	.L15:
 383              		.cfi_restore_state
 384              	.LBB41:
 385              	.LBB39:
 386              		.loc 1 236 0 discriminator 2
 387 0158 FFF7FEFF 		bl	app_get_configuration
 388              	.LVL30:
 389 015c C030     		adds	r0, r0, #192
 390 015e 07C8     		ldm	r0, {r0, r1, r2}
 391 0160 0DF1040C 		add	ip, sp, #4
 392 0164 ACE80300 		stmia	ip!, {r0, r1}
 393              		.loc 1 237 0 discriminator 2
 394 0168 0DF1040B 		add	fp, sp, #4
 395 016c 5846     		mov	r0, fp
 396              		.loc 1 236 0 discriminator 2
 397 016e ACF80020 		strh	r2, [ip]	@ movhi
 398              		.loc 1 237 0 discriminator 2
 399 0172 FFF7FEFF 		bl	rfhelp_update_conf
ARM GAS  /tmp/cc0HVsVR.s 			page 8


 400              	.LVL31:
 401 0176 8FE7     		b	.L16
 402              	.L24:
 403              	.LBE39:
 404              	.LBE41:
 405              	.LBB42:
 406              		.loc 1 213 0
 407 0178 01A8     		add	r0, sp, #4
 408 017a FFF7FEFF 		bl	rf_tx_wrapper
 409              	.LVL32:
 410 017e E0E7     		b	.L12
 411              	.L26:
 412              		.align	2
 413              	.L25:
 414 0180 00000000 		.word	.LANCHOR2
 415 0184 00000000 		.word	.LANCHOR3
 416 0188 00000000 		.word	.LC0
 417 018c 00000000 		.word	.LANCHOR4
 418 0190 00000000 		.word	.LANCHOR7
 419 0194 00000000 		.word	.LANCHOR5
 420 0198 00007A44 		.word	1148846080
 421 019c 00000000 		.word	.LANCHOR0
 422 01a0 00000000 		.word	ch
 423 01a4 00000000 		.word	.LANCHOR8
 424 01a8 00000000 		.word	.LANCHOR6
 425              	.LBE42:
 426              		.cfi_endproc
 427              	.LFE224:
 428              		.size	tx_thread, .-tx_thread
 429              		.section	.text.nrf_driver_send_buffer,"ax",%progbits
 430              		.align	1
 431              		.p2align 4,,15
 432              		.global	nrf_driver_send_buffer
 433              		.syntax unified
 434              		.thumb
 435              		.thumb_func
 436              		.fpu fpv4-sp-d16
 437              		.type	nrf_driver_send_buffer, %function
 438              	nrf_driver_send_buffer:
 439              	.LFB226:
 440              		.loc 1 304 0
 441              		.cfi_startproc
 442              		@ args = 0, pretend = 0, frame = 40
 443              		@ frame_needed = 0, uses_anonymous_args = 0
 444              	.LVL33:
 445 0000 2DE9F04F 		push	{r4, r5, r6, r7, r8, r9, r10, fp, lr}
 446              		.cfi_def_cfa_offset 36
 447              		.cfi_offset 4, -36
 448              		.cfi_offset 5, -32
 449              		.cfi_offset 6, -28
 450              		.cfi_offset 7, -24
 451              		.cfi_offset 8, -20
 452              		.cfi_offset 9, -16
 453              		.cfi_offset 10, -12
 454              		.cfi_offset 11, -8
 455              		.cfi_offset 14, -4
 456              		.loc 1 307 0
ARM GAS  /tmp/cc0HVsVR.s 			page 9


 457 0004 1829     		cmp	r1, #24
 458              		.loc 1 304 0
 459 0006 8BB0     		sub	sp, sp, #44
 460              		.cfi_def_cfa_offset 80
 461              		.loc 1 304 0
 462 0008 8846     		mov	r8, r1
 463 000a 0646     		mov	r6, r0
 464              		.loc 1 307 0
 465 000c 62D9     		bls	.L41
 466              	.LVL34:
 467              	.LBB43:
 468              		.loc 1 315 0
 469 000e 0021     		movs	r1, #0
 470              	.LVL35:
 471              	.LBB44:
 472              	.LBB45:
 473              		.loc 1 337 0
 474 0010 8A46     		mov	r10, r1
 475              	.LBE45:
 476              	.LBE44:
 477              		.loc 1 316 0
 478 0012 A8F11405 		sub	r5, r8, #20
 479              	.LVL36:
 480 0016 5D4F     		ldr	r7, .L44
 481              	.LBB49:
 482              	.LBB46:
 483              		.loc 1 326 0
 484 0018 4FF00309 		mov	r9, #3
 485 001c 02E0     		b	.L30
 486              	.LVL37:
 487              	.L34:
 488              		.loc 1 319 0
 489 001e B4F58A7F 		cmp	r4, #276
 490 0022 6CD0     		beq	.L42
 491              	.LVL38:
 492              	.L30:
 493              		.loc 1 323 0
 494 0024 01F11704 		add	r4, r1, #23
 495              	.LVL39:
 496 0028 E3B2     		uxtb	r3, r4
 497              		.loc 1 327 0
 498 002a A3F11702 		sub	r2, r3, #23
 499              		.loc 1 329 0
 500 002e A542     		cmp	r5, r4
 501              		.loc 1 326 0
 502 0030 8DF80C90 		strb	r9, [sp, #12]
 503 0034 3144     		add	r1, r1, r6
 504              	.LVL40:
 505              		.loc 1 327 0
 506 0036 8DF80D20 		strb	r2, [sp, #13]
 507              		.loc 1 329 0
 508 003a C0F09980 		bcc	.L32
 509              		.loc 1 330 0
 510 003e 0B68     		ldr	r3, [r1]	@ unaligned
 511 0040 8A68     		ldr	r2, [r1, #8]	@ unaligned
 512 0042 CDF80E30 		str	r3, [sp, #14]	@ unaligned
 513 0046 4B68     		ldr	r3, [r1, #4]	@ unaligned
ARM GAS  /tmp/cc0HVsVR.s 			page 10


 514 0048 D1F80CC0 		ldr	ip, [r1, #12]	@ unaligned
 515 004c 888A     		ldrh	r0, [r1, #20]	@ unaligned
 516 004e CDF81230 		str	r3, [sp, #18]	@ unaligned
 517 0052 CDF81620 		str	r2, [sp, #22]	@ unaligned
 518 0056 0B69     		ldr	r3, [r1, #16]	@ unaligned
 519 0058 8A7D     		ldrb	r2, [r1, #22]	@ zero_extendqisi2
 520 005a CDF81AC0 		str	ip, [sp, #26]	@ unaligned
 521 005e CDF81E30 		str	r3, [sp, #30]	@ unaligned
 522 0062 ADF82200 		strh	r0, [sp, #34]	@ unaligned
 523 0066 8DF82420 		strb	r2, [sp, #36]
 524 006a 1921     		movs	r1, #25
 525              	.LVL41:
 526              	.L33:
 527              		.loc 1 336 0 discriminator 2
 528 006c 03A8     		add	r0, sp, #12
 529 006e FFF7FEFF 		bl	rf_tx_wrapper
 530              	.LVL42:
 531              	.LBE46:
 532              		.loc 1 318 0 discriminator 2
 533 0072 A542     		cmp	r5, r4
 534              	.LBB47:
 535              		.loc 1 337 0 discriminator 2
 536 0074 C7F800A0 		str	r10, [r7]
 537 0078 2146     		mov	r1, r4
 538              	.LBE47:
 539              		.loc 1 318 0 discriminator 2
 540 007a D0D8     		bhi	.L34
 541              	.LVL43:
 542              	.L35:
 543              	.LBE49:
 544              		.loc 1 359 0
 545 007c 4FEA1823 		lsr	r3, r8, #8
 546              		.loc 1 358 0
 547 0080 0522     		movs	r2, #5
 548              		.loc 1 361 0
 549 0082 4146     		mov	r1, r8
 550 0084 3046     		mov	r0, r6
 551              		.loc 1 364 0
 552 0086 3544     		add	r5, r5, r6
 553              	.LVL44:
 554              		.loc 1 358 0
 555 0088 8DF80C20 		strb	r2, [sp, #12]
 556              	.LVL45:
 557              		.loc 1 359 0
 558 008c 8DF80D30 		strb	r3, [sp, #13]
 559              	.LVL46:
 560              		.loc 1 360 0
 561 0090 8DF80E80 		strb	r8, [sp, #14]
 562              		.loc 1 361 0
 563 0094 FFF7FEFF 		bl	crc16
 564              	.LVL47:
 565              		.loc 1 364 0
 566 0098 2B68     		ldr	r3, [r5]	@ unaligned
 567 009a 6968     		ldr	r1, [r5, #4]	@ unaligned
 568 009c CDF81130 		str	r3, [sp, #17]	@ unaligned
 569              		.loc 1 361 0
 570 00a0 0246     		mov	r2, r0
ARM GAS  /tmp/cc0HVsVR.s 			page 11


 571              	.LVL48:
 572              		.loc 1 362 0
 573 00a2 030A     		lsrs	r3, r0, #8
 574              		.loc 1 363 0
 575 00a4 8DF81020 		strb	r2, [sp, #16]
 576              		.loc 1 364 0
 577 00a8 AC68     		ldr	r4, [r5, #8]	@ unaligned
 578              		.loc 1 362 0
 579 00aa 8DF80F30 		strb	r3, [sp, #15]
 580              	.LVL49:
 581              		.loc 1 364 0
 582 00ae EA68     		ldr	r2, [r5, #12]	@ unaligned
 583 00b0 2B69     		ldr	r3, [r5, #16]	@ unaligned
 584 00b2 CDF81510 		str	r1, [sp, #21]	@ unaligned
 585              		.loc 1 367 0
 586 00b6 03A8     		add	r0, sp, #12
 587              	.LVL50:
 588 00b8 1921     		movs	r1, #25
 589              		.loc 1 364 0
 590 00ba CDF82130 		str	r3, [sp, #33]	@ unaligned
 591              	.LVL51:
 592 00be CDF81940 		str	r4, [sp, #25]	@ unaligned
 593 00c2 CDF81D20 		str	r2, [sp, #29]	@ unaligned
 594              		.loc 1 367 0
 595 00c6 FFF7FEFF 		bl	rf_tx_wrapper
 596              	.LVL52:
 597              		.loc 1 368 0
 598 00ca 0023     		movs	r3, #0
 599 00cc 3B60     		str	r3, [r7]
 600              	.LBE43:
 601              		.loc 1 370 0
 602 00ce 0BB0     		add	sp, sp, #44
 603              		.cfi_remember_state
 604              		.cfi_def_cfa_offset 36
 605              		@ sp needed
 606 00d0 BDE8F08F 		pop	{r4, r5, r6, r7, r8, r9, r10, fp, pc}
 607              	.LVL53:
 608              	.L41:
 609              		.cfi_restore_state
 610              	.LBB55:
 611              		.loc 1 309 0
 612 00d4 0AAC     		add	r4, sp, #40
 613 00d6 0623     		movs	r3, #6
 614 00d8 04F81C3D 		strb	r3, [r4, #-28]!
 615              		.loc 1 310 0
 616 00dc 4246     		mov	r2, r8
 617 00de 0146     		mov	r1, r0
 618              	.LVL54:
 619 00e0 0DF10D00 		add	r0, sp, #13
 620              	.LVL55:
 621 00e4 FFF7FEFF 		bl	memcpy
 622              	.LVL56:
 623              		.loc 1 312 0
 624 00e8 2046     		mov	r0, r4
 625 00ea 08F10101 		add	r1, r8, #1
 626              	.LVL57:
 627 00ee FFF7FEFF 		bl	rf_tx_wrapper
ARM GAS  /tmp/cc0HVsVR.s 			page 12


 628              	.LVL58:
 629              		.loc 1 313 0
 630 00f2 264B     		ldr	r3, .L44
 631 00f4 0022     		movs	r2, #0
 632 00f6 1A60     		str	r2, [r3]
 633              	.LBE55:
 634              		.loc 1 370 0
 635 00f8 0BB0     		add	sp, sp, #44
 636              		.cfi_remember_state
 637              		.cfi_def_cfa_offset 36
 638              		@ sp needed
 639 00fa BDE8F08F 		pop	{r4, r5, r6, r7, r8, r9, r10, fp, pc}
 640              	.LVL59:
 641              	.L42:
 642              		.cfi_restore_state
 643 00fe A6F1160B 		sub	fp, r6, #22
 644              	.LBB56:
 645              	.LBB50:
 646              	.LBB51:
 647              		.loc 1 342 0
 648 0102 4FF0040A 		mov	r10, #4
 649 0106 05F11609 		add	r9, r5, #22
 650 010a 19E0     		b	.L31
 651              	.LVL60:
 652              	.L43:
 653              		.loc 1 347 0
 654 010c 0B68     		ldr	r3, [r1]	@ unaligned
 655 010e 4A68     		ldr	r2, [r1, #4]	@ unaligned
 656 0110 CDF80F30 		str	r3, [sp, #15]	@ unaligned
 657 0114 8B68     		ldr	r3, [r1, #8]	@ unaligned
 658 0116 C868     		ldr	r0, [r1, #12]	@ unaligned
 659 0118 CDF81320 		str	r2, [sp, #19]	@ unaligned
 660 011c CDF81730 		str	r3, [sp, #23]	@ unaligned
 661 0120 8A8A     		ldrh	r2, [r1, #20]	@ unaligned
 662 0122 0B69     		ldr	r3, [r1, #16]	@ unaligned
 663 0124 CDF81B00 		str	r0, [sp, #27]	@ unaligned
 664 0128 CDF81F30 		str	r3, [sp, #31]	@ unaligned
 665 012c ADF82320 		strh	r2, [sp, #35]	@ unaligned
 666 0130 1921     		movs	r1, #25
 667              	.LVL61:
 668              	.L37:
 669              		.loc 1 353 0 discriminator 2
 670 0132 03A8     		add	r0, sp, #12
 671 0134 FFF7FEFF 		bl	rf_tx_wrapper
 672              	.LVL62:
 673              		.loc 1 354 0 discriminator 2
 674 0138 0023     		movs	r3, #0
 675              	.LBE51:
 676              		.loc 1 340 0 discriminator 2
 677 013a AC42     		cmp	r4, r5
 678              	.LBB52:
 679              		.loc 1 354 0 discriminator 2
 680 013c 3B60     		str	r3, [r7]
 681              	.LVL63:
 682              	.LBE52:
 683              		.loc 1 340 0 discriminator 2
 684 013e 9DD2     		bcs	.L35
ARM GAS  /tmp/cc0HVsVR.s 			page 13


 685              	.LVL64:
 686              	.L31:
 687              	.LBB53:
 688              		.loc 1 343 0
 689 0140 230A     		lsrs	r3, r4, #8
 690              		.loc 1 344 0
 691 0142 8DF80E40 		strb	r4, [sp, #14]
 692              		.loc 1 346 0
 693 0146 1634     		adds	r4, r4, #22
 694              	.LVL65:
 695 0148 AC42     		cmp	r4, r5
 696              		.loc 1 343 0
 697 014a 8DF80D30 		strb	r3, [sp, #13]
 698              		.loc 1 342 0
 699 014e 8DF80CA0 		strb	r10, [sp, #12]
 700 0152 0BEB0401 		add	r1, fp, r4
 701 0156 A9EB0403 		sub	r3, r9, r4
 702              		.loc 1 346 0
 703 015a D7D9     		bls	.L43
 704 015c DBB2     		uxtb	r3, r3
 705              	.LVL66:
 706              		.loc 1 350 0
 707 015e 1A46     		mov	r2, r3
 708 0160 0DF10F00 		add	r0, sp, #15
 709 0164 0193     		str	r3, [sp, #4]
 710 0166 FFF7FEFF 		bl	memcpy
 711              	.LVL67:
 712 016a 019B     		ldr	r3, [sp, #4]
 713 016c D91C     		adds	r1, r3, #3
 714 016e E0E7     		b	.L37
 715              	.LVL68:
 716              	.L32:
 717 0170 C3F1170B 		rsb	fp, r3, #23
 718 0174 AB44     		add	fp, fp, r5
 719 0176 5FFA8BFB 		uxtb	fp, fp
 720              	.LVL69:
 721              	.LBE53:
 722              	.LBE50:
 723              	.LBB54:
 724              	.LBB48:
 725              		.loc 1 333 0
 726 017a 5A46     		mov	r2, fp
 727 017c 0DF10E00 		add	r0, sp, #14
 728 0180 FFF7FEFF 		bl	memcpy
 729              	.LVL70:
 730 0184 0BF10201 		add	r1, fp, #2
 731 0188 70E7     		b	.L33
 732              	.L45:
 733 018a 00BF     		.align	2
 734              	.L44:
 735 018c 00000000 		.word	.LANCHOR4
 736              	.LBE48:
 737              	.LBE54:
 738              	.LBE56:
 739              		.cfi_endproc
 740              	.LFE226:
 741              		.size	nrf_driver_send_buffer, .-nrf_driver_send_buffer
ARM GAS  /tmp/cc0HVsVR.s 			page 14


 742              		.section	.text.nrf_driver_stop.part.1,"ax",%progbits
 743              		.align	1
 744              		.p2align 4,,15
 745              		.syntax unified
 746              		.thumb
 747              		.thumb_func
 748              		.fpu fpv4-sp-d16
 749              		.type	nrf_driver_stop.part.1, %function
 750              	nrf_driver_stop.part.1:
 751              	.LFB232:
 752              		.loc 1 107 0
 753              		.cfi_startproc
 754              		@ args = 0, pretend = 0, frame = 0
 755              		@ frame_needed = 0, uses_anonymous_args = 0
 756 0000 38B5     		push	{r3, r4, r5, lr}
 757              		.cfi_def_cfa_offset 16
 758              		.cfi_offset 3, -16
 759              		.cfi_offset 4, -12
 760              		.cfi_offset 5, -8
 761              		.cfi_offset 14, -4
 762              		.loc 1 112 0
 763 0002 0B4C     		ldr	r4, .L55
 764 0004 2378     		ldrb	r3, [r4]	@ zero_extendqisi2
 765 0006 83B9     		cbnz	r3, .L54
 766              	.L47:
 767              		.loc 1 116 0
 768 0008 0A49     		ldr	r1, .L55+4
 769              		.loc 1 117 0
 770 000a 0B4A     		ldr	r2, .L55+8
 771 000c 0B4D     		ldr	r5, .L55+12
 772              		.loc 1 116 0
 773 000e 0123     		movs	r3, #1
 774 0010 0B70     		strb	r3, [r1]
 775              		.loc 1 117 0
 776 0012 1370     		strb	r3, [r2]
 777 0014 01E0     		b	.L48
 778              	.L49:
 779              		.loc 1 120 0
 780 0016 FFF7FEFF 		bl	chThdSleep
 781              	.LVL71:
 782              	.L48:
 783              		.loc 1 119 0
 784 001a 2378     		ldrb	r3, [r4]	@ zero_extendqisi2
 785              		.loc 1 120 0
 786 001c 0A20     		movs	r0, #10
 787              		.loc 1 119 0
 788 001e 002B     		cmp	r3, #0
 789 0020 F9D1     		bne	.L49
 790 0022 2B78     		ldrb	r3, [r5]	@ zero_extendqisi2
 791 0024 002B     		cmp	r3, #0
 792 0026 F6D1     		bne	.L49
 793              		.loc 1 122 0
 794 0028 38BD     		pop	{r3, r4, r5, pc}
 795              	.L54:
 796              		.loc 1 113 0
 797 002a FFF7FEFF 		bl	rfhelp_stop
 798              	.LVL72:
ARM GAS  /tmp/cc0HVsVR.s 			page 15


 799 002e EBE7     		b	.L47
 800              	.L56:
 801              		.align	2
 802              	.L55:
 803 0030 00000000 		.word	.LANCHOR9
 804 0034 00000000 		.word	.LANCHOR3
 805 0038 00000000 		.word	.LANCHOR10
 806 003c 00000000 		.word	.LANCHOR2
 807              		.cfi_endproc
 808              	.LFE232:
 809              		.size	nrf_driver_stop.part.1, .-nrf_driver_stop.part.1
 810              		.section	.text.nrf_driver_init,"ax",%progbits
 811              		.align	1
 812              		.p2align 4,,15
 813              		.global	nrf_driver_init
 814              		.syntax unified
 815              		.thumb
 816              		.thumb_func
 817              		.fpu fpv4-sp-d16
 818              		.type	nrf_driver_init, %function
 819              	nrf_driver_init:
 820              	.LFB219:
 821              		.loc 1 68 0
 822              		.cfi_startproc
 823              		@ args = 0, pretend = 0, frame = 0
 824              		@ frame_needed = 0, uses_anonymous_args = 0
 825 0000 70B5     		push	{r4, r5, r6, lr}
 826              		.cfi_def_cfa_offset 16
 827              		.cfi_offset 4, -16
 828              		.cfi_offset 5, -12
 829              		.cfi_offset 6, -8
 830              		.cfi_offset 14, -4
 831              		.loc 1 69 0
 832 0002 1F4A     		ldr	r2, .L66
 833 0004 1378     		ldrb	r3, [r2]	@ zero_extendqisi2
 834              		.loc 1 68 0
 835 0006 82B0     		sub	sp, sp, #8
 836              		.cfi_def_cfa_offset 24
 837              		.loc 1 69 0
 838 0008 03F0FF04 		and	r4, r3, #255
 839 000c 3BB9     		cbnz	r3, .L58
 840              		.loc 1 73 0
 841 000e 1D4B     		ldr	r3, .L66+4
 842 0010 1C70     		strb	r4, [r3]
 843              	.LBB57:
 844              	.LBB58:
 845              		.loc 1 108 0
 846 0012 1278     		ldrb	r2, [r2]	@ zero_extendqisi2
 847 0014 32B1     		cbz	r2, .L64
 848              	.L59:
 849              	.LBE58:
 850              	.LBE57:
 851              		.loc 1 77 0
 852 0016 FFF7FEFF 		bl	rfhelp_init
 853              	.LVL73:
 854 001a 0446     		mov	r4, r0
 855 001c 40B9     		cbnz	r0, .L65
ARM GAS  /tmp/cc0HVsVR.s 			page 16


 856              	.L58:
 857              		.loc 1 96 0
 858 001e 2046     		mov	r0, r4
 859 0020 02B0     		add	sp, sp, #8
 860              		.cfi_remember_state
 861              		.cfi_def_cfa_offset 16
 862              		@ sp needed
 863 0022 70BD     		pop	{r4, r5, r6, pc}
 864              	.L64:
 865              		.cfi_restore_state
 866              	.LBB60:
 867              	.LBB59:
 868              		.loc 1 108 0
 869 0024 1B78     		ldrb	r3, [r3]	@ zero_extendqisi2
 870 0026 002B     		cmp	r3, #0
 871 0028 F5D1     		bne	.L59
 872 002a FFF7FEFF 		bl	nrf_driver_stop.part.1
 873              	.LVL74:
 874 002e F2E7     		b	.L59
 875              	.L65:
 876              	.LBE59:
 877              	.LBE60:
 878              		.loc 1 86 0
 879 0030 1548     		ldr	r0, .L66+8
 880              		.loc 1 88 0
 881 0032 164E     		ldr	r6, .L66+12
 882              		.loc 1 81 0
 883 0034 164B     		ldr	r3, .L66+16
 884              		.loc 1 82 0
 885 0036 174A     		ldr	r2, .L66+20
 886              		.loc 1 83 0
 887 0038 1749     		ldr	r1, .L66+24
 888              		.loc 1 81 0
 889 003a 0025     		movs	r5, #0
 890              		.loc 1 90 0
 891 003c 0095     		str	r5, [sp]
 892              		.loc 1 86 0
 893 003e 0570     		strb	r5, [r0]
 894              		.loc 1 88 0
 895 0040 3570     		strb	r5, [r6]
 896              		.loc 1 85 0
 897 0042 1648     		ldr	r0, .L66+28
 898              		.loc 1 89 0
 899 0044 164E     		ldr	r6, .L66+32
 900              		.loc 1 81 0
 901 0046 1D60     		str	r5, [r3]
 902              		.loc 1 82 0
 903 0048 1560     		str	r5, [r2]
 904              		.loc 1 83 0
 905 004a 0D60     		str	r5, [r1]
 906              		.loc 1 85 0
 907 004c 0560     		str	r5, [r0]
 908              		.loc 1 90 0
 909 004e 154B     		ldr	r3, .L66+36
 910              		.loc 1 89 0
 911 0050 3570     		strb	r5, [r6]
 912              		.loc 1 90 0
ARM GAS  /tmp/cc0HVsVR.s 			page 17


 913 0052 3F22     		movs	r2, #63
 914 0054 40F69811 		movw	r1, #2456
 915 0058 1348     		ldr	r0, .L66+40
 916 005a FFF7FEFF 		bl	chThdCreateStatic
 917              	.LVL75:
 918              		.loc 1 91 0
 919 005e 0095     		str	r5, [sp]
 920 0060 124B     		ldr	r3, .L66+44
 921 0062 1348     		ldr	r0, .L66+48
 922 0064 3F22     		movs	r2, #63
 923 0066 4FF46671 		mov	r1, #920
 924 006a FFF7FEFF 		bl	chThdCreateStatic
 925              	.LVL76:
 926              		.loc 1 92 0
 927 006e 1149     		ldr	r1, .L66+52
 928              		.loc 1 93 0
 929 0070 114A     		ldr	r2, .L66+56
 930              		.loc 1 92 0
 931 0072 0123     		movs	r3, #1
 932              		.loc 1 96 0
 933 0074 2046     		mov	r0, r4
 934              		.loc 1 92 0
 935 0076 0B70     		strb	r3, [r1]
 936              		.loc 1 93 0
 937 0078 1370     		strb	r3, [r2]
 938              		.loc 1 96 0
 939 007a 02B0     		add	sp, sp, #8
 940              		.cfi_def_cfa_offset 16
 941              		@ sp needed
 942 007c 70BD     		pop	{r4, r5, r6, pc}
 943              	.L67:
 944 007e 00BF     		.align	2
 945              	.L66:
 946 0080 00000000 		.word	.LANCHOR11
 947 0084 00000000 		.word	.LANCHOR0
 948 0088 00000000 		.word	.LANCHOR5
 949 008c 00000000 		.word	.LANCHOR10
 950 0090 00000000 		.word	.LANCHOR4
 951 0094 00000000 		.word	.LANCHOR12
 952 0098 00000000 		.word	.LANCHOR1
 953 009c 00000000 		.word	.LANCHOR8
 954 00a0 00000000 		.word	.LANCHOR3
 955 00a4 00000000 		.word	rx_thread
 956 00a8 00000000 		.word	.LANCHOR13
 957 00ac 00000000 		.word	tx_thread
 958 00b0 00000000 		.word	.LANCHOR14
 959 00b4 00000000 		.word	.LANCHOR9
 960 00b8 00000000 		.word	.LANCHOR2
 961              		.cfi_endproc
 962              	.LFE219:
 963              		.size	nrf_driver_init, .-nrf_driver_init
 964              		.section	.text.nrf_driver_init_ext_nrf,"ax",%progbits
 965              		.align	1
 966              		.p2align 4,,15
 967              		.global	nrf_driver_init_ext_nrf
 968              		.syntax unified
 969              		.thumb
ARM GAS  /tmp/cc0HVsVR.s 			page 18


 970              		.thumb_func
 971              		.fpu fpv4-sp-d16
 972              		.type	nrf_driver_init_ext_nrf, %function
 973              	nrf_driver_init_ext_nrf:
 974              	.LFB220:
 975              		.loc 1 98 0
 976              		.cfi_startproc
 977              		@ args = 0, pretend = 0, frame = 0
 978              		@ frame_needed = 0, uses_anonymous_args = 0
 979              		.loc 1 99 0
 980 0000 0B4A     		ldr	r2, .L75
 981              		.loc 1 101 0
 982 0002 0C4B     		ldr	r3, .L75+4
 983              		.loc 1 99 0
 984 0004 0121     		movs	r1, #1
 985 0006 1170     		strb	r1, [r2]
 986              		.loc 1 101 0
 987 0008 1B78     		ldrb	r3, [r3]	@ zero_extendqisi2
 988 000a 03B1     		cbz	r3, .L74
 989 000c 7047     		bx	lr
 990              	.L74:
 991              		.loc 1 98 0
 992 000e 00B5     		push	{lr}
 993              		.cfi_def_cfa_offset 4
 994              		.cfi_offset 14, -4
 995              		.loc 1 102 0
 996 0010 0949     		ldr	r1, .L75+8
 997              		.loc 1 103 0
 998 0012 0A48     		ldr	r0, .L75+12
 999              		.loc 1 98 0
 1000 0014 83B0     		sub	sp, sp, #12
 1001              		.cfi_def_cfa_offset 16
 1002 0016 03F0FF02 		and	r2, r3, #255
 1003              		.loc 1 103 0
 1004 001a 0092     		str	r2, [sp]
 1005 001c 084B     		ldr	r3, .L75+16
 1006              		.loc 1 102 0
 1007 001e 0A70     		strb	r2, [r1]
 1008              		.loc 1 103 0
 1009 0020 3F22     		movs	r2, #63
 1010 0022 4FF46671 		mov	r1, #920
 1011 0026 FFF7FEFF 		bl	chThdCreateStatic
 1012              	.LVL77:
 1013              		.loc 1 105 0
 1014 002a 03B0     		add	sp, sp, #12
 1015              		.cfi_def_cfa_offset 4
 1016              		@ sp needed
 1017 002c 5DF804FB 		ldr	pc, [sp], #4
 1018              	.L76:
 1019              		.align	2
 1020              	.L75:
 1021 0030 00000000 		.word	.LANCHOR0
 1022 0034 00000000 		.word	.LANCHOR2
 1023 0038 00000000 		.word	.LANCHOR3
 1024 003c 00000000 		.word	.LANCHOR14
 1025 0040 00000000 		.word	tx_thread
 1026              		.cfi_endproc
ARM GAS  /tmp/cc0HVsVR.s 			page 19


 1027              	.LFE220:
 1028              		.size	nrf_driver_init_ext_nrf, .-nrf_driver_init_ext_nrf
 1029              		.section	.text.nrf_driver_stop,"ax",%progbits
 1030              		.align	1
 1031              		.p2align 4,,15
 1032              		.global	nrf_driver_stop
 1033              		.syntax unified
 1034              		.thumb
 1035              		.thumb_func
 1036              		.fpu fpv4-sp-d16
 1037              		.type	nrf_driver_stop, %function
 1038              	nrf_driver_stop:
 1039              	.LFB221:
 1040              		.loc 1 107 0
 1041              		.cfi_startproc
 1042              		@ args = 0, pretend = 0, frame = 0
 1043              		@ frame_needed = 0, uses_anonymous_args = 0
 1044              		@ link register save eliminated.
 1045              		.loc 1 108 0
 1046 0000 044B     		ldr	r3, .L79
 1047 0002 1B78     		ldrb	r3, [r3]	@ zero_extendqisi2
 1048 0004 23B9     		cbnz	r3, .L77
 1049              		.loc 1 108 0 is_stmt 0 discriminator 1
 1050 0006 044B     		ldr	r3, .L79+4
 1051 0008 1B78     		ldrb	r3, [r3]	@ zero_extendqisi2
 1052 000a 0BB9     		cbnz	r3, .L77
 1053 000c FFF7FEBF 		b	nrf_driver_stop.part.1
 1054              	.LVL78:
 1055              	.L77:
 1056              		.loc 1 122 0 is_stmt 1
 1057 0010 7047     		bx	lr
 1058              	.L80:
 1059 0012 00BF     		.align	2
 1060              	.L79:
 1061 0014 00000000 		.word	.LANCHOR11
 1062 0018 00000000 		.word	.LANCHOR0
 1063              		.cfi_endproc
 1064              	.LFE221:
 1065              		.size	nrf_driver_stop, .-nrf_driver_stop
 1066              		.section	.text.nrf_driver_start_pairing,"ax",%progbits
 1067              		.align	1
 1068              		.p2align 4,,15
 1069              		.global	nrf_driver_start_pairing
 1070              		.syntax unified
 1071              		.thumb
 1072              		.thumb_func
 1073              		.fpu fpv4-sp-d16
 1074              		.type	nrf_driver_start_pairing, %function
 1075              	nrf_driver_start_pairing:
 1076              	.LFB222:
 1077              		.loc 1 124 0
 1078              		.cfi_startproc
 1079              		@ args = 0, pretend = 0, frame = 16
 1080              		@ frame_needed = 0, uses_anonymous_args = 0
 1081              	.LVL79:
 1082 0000 30B5     		push	{r4, r5, lr}
 1083              		.cfi_def_cfa_offset 12
ARM GAS  /tmp/cc0HVsVR.s 			page 20


 1084              		.cfi_offset 4, -12
 1085              		.cfi_offset 5, -8
 1086              		.cfi_offset 14, -4
 1087              		.loc 1 125 0
 1088 0002 2D4B     		ldr	r3, .L91
 1089 0004 1B78     		ldrb	r3, [r3]	@ zero_extendqisi2
 1090              		.loc 1 124 0
 1091 0006 85B0     		sub	sp, sp, #20
 1092              		.cfi_def_cfa_offset 32
 1093              		.loc 1 125 0
 1094 0008 B3B1     		cbz	r3, .L82
 1095              		.loc 1 126 0
 1096 000a 42F21073 		movw	r3, #10000
 1097              	.LBB61:
 1098              	.LBB62:
 1099              		.loc 3 231 0
 1100 000e 2B4A     		ldr	r2, .L91+4
 1101              	.LBE62:
 1102              	.LBE61:
 1103              		.loc 1 126 0
 1104 0010 2B4D     		ldr	r5, .L91+8
 1105              		.loc 1 128 0
 1106 0012 2C4C     		ldr	r4, .L91+12
 1107              	.LBB64:
 1108              	.LBB63:
 1109              		.loc 3 231 0
 1110 0014 926A     		ldr	r2, [r2, #40]
 1111              	.LBE63:
 1112              	.LBE64:
 1113              		.loc 1 126 0
 1114 0016 2C49     		ldr	r1, .L91+16
 1115 0018 03FB00F0 		mul	r0, r3, r0
 1116              	.LVL80:
 1117 001c 00F2E730 		addw	r0, r0, #999
 1118 0020 A5FB0030 		umull	r3, r0, r5, r0
 1119              		.loc 1 128 0
 1120 0024 2378     		ldrb	r3, [r4]	@ zero_extendqisi2
 1121              		.loc 1 126 0
 1122 0026 02EB9010 		add	r0, r2, r0, lsr #6
 1123 002a 0860     		str	r0, [r1]
 1124              		.loc 1 128 0
 1125 002c 03F0FF02 		and	r2, r3, #255
 1126 0030 002B     		cmp	r3, #0
 1127 0032 34D0     		beq	.L90
 1128              	.L81:
 1129              		.loc 1 163 0
 1130 0034 05B0     		add	sp, sp, #20
 1131              		.cfi_remember_state
 1132              		.cfi_def_cfa_offset 12
 1133              		@ sp needed
 1134 0036 30BD     		pop	{r4, r5, pc}
 1135              	.LVL81:
 1136              	.L82:
 1137              		.cfi_restore_state
 1138              		.loc 1 140 0
 1139 0038 244B     		ldr	r3, .L91+20
 1140 003a 1B78     		ldrb	r3, [r3]	@ zero_extendqisi2
ARM GAS  /tmp/cc0HVsVR.s 			page 21


 1141 003c 002B     		cmp	r3, #0
 1142 003e F9D0     		beq	.L81
 1143              		.loc 1 144 0
 1144 0040 42F21073 		movw	r3, #10000
 1145              	.LBB65:
 1146              	.LBB66:
 1147              		.loc 3 231 0
 1148 0044 1D4A     		ldr	r2, .L91+4
 1149              	.LBE66:
 1150              	.LBE65:
 1151              		.loc 1 144 0
 1152 0046 1E4D     		ldr	r5, .L91+8
 1153              		.loc 1 146 0
 1154 0048 1E49     		ldr	r1, .L91+12
 1155              	.LBB68:
 1156              	.LBB67:
 1157              		.loc 3 231 0
 1158 004a 926A     		ldr	r2, [r2, #40]
 1159              	.LBE67:
 1160              	.LBE68:
 1161              		.loc 1 144 0
 1162 004c 1E4C     		ldr	r4, .L91+16
 1163 004e 03FB00F0 		mul	r0, r3, r0
 1164              	.LVL82:
 1165 0052 00F2E730 		addw	r0, r0, #999
 1166 0056 A5FB0030 		umull	r3, r0, r5, r0
 1167              		.loc 1 146 0
 1168 005a 0B78     		ldrb	r3, [r1]	@ zero_extendqisi2
 1169              		.loc 1 144 0
 1170 005c 02EB9010 		add	r0, r2, r0, lsr #6
 1171 0060 2060     		str	r0, [r4]
 1172              		.loc 1 146 0
 1173 0062 03F0FF05 		and	r5, r3, #255
 1174 0066 002B     		cmp	r3, #0
 1175 0068 E4D1     		bne	.L81
 1176              	.LBB69:
 1177              		.loc 1 147 0 discriminator 4
 1178 006a 0124     		movs	r4, #1
 1179 006c 0C70     		strb	r4, [r1]
 1180              		.loc 1 149 0 discriminator 4
 1181 006e FFF7FEFF 		bl	app_get_configuration
 1182              	.LVL83:
 1183 0072 C030     		adds	r0, r0, #192
 1184 0074 07C8     		ldm	r0, {r0, r1, r2}
 1185 0076 01AB     		add	r3, sp, #4
 1186              		.loc 1 158 0 discriminator 4
 1187 0078 04AA     		add	r2, sp, #16
 1188              		.loc 1 149 0 discriminator 4
 1189 007a 03C3     		stmia	r3!, {r0, r1}
 1190              		.loc 1 155 0 discriminator 4
 1191 007c 144B     		ldr	r3, .L91+24
 1192 007e 0293     		str	r3, [sp, #8]
 1193              		.loc 1 151 0 discriminator 4
 1194 0080 8DF80C50 		strb	r5, [sp, #12]
 1195              		.loc 1 158 0 discriminator 4
 1196 0084 02F80C4D 		strb	r4, [r2, #-12]!
 1197              		.loc 1 156 0 discriminator 4
ARM GAS  /tmp/cc0HVsVR.s 			page 22


 1198 0088 0323     		movs	r3, #3
 1199              		.loc 1 160 0 discriminator 4
 1200 008a 1046     		mov	r0, r2
 1201              		.loc 1 157 0 discriminator 4
 1202 008c 8DF80D40 		strb	r4, [sp, #13]
 1203              		.loc 1 154 0 discriminator 4
 1204 0090 8DF80640 		strb	r4, [sp, #6]
 1205              		.loc 1 156 0 discriminator 4
 1206 0094 8DF80730 		strb	r3, [sp, #7]
 1207              		.loc 1 160 0 discriminator 4
 1208 0098 FFF7FEFF 		bl	rfhelp_update_conf
 1209              	.LVL84:
 1210 009c CAE7     		b	.L81
 1211              	.L90:
 1212              	.LBE69:
 1213              	.LBB70:
 1214              		.loc 1 132 0
 1215 009e 0D4B     		ldr	r3, .L91+28
 1216              		.loc 1 135 0
 1217 00a0 8DF80820 		strb	r2, [sp, #8]
 1218              		.loc 1 129 0
 1219 00a4 0125     		movs	r5, #1
 1220              		.loc 1 137 0
 1221 00a6 0521     		movs	r1, #5
 1222 00a8 01A8     		add	r0, sp, #4
 1223              		.loc 1 129 0
 1224 00aa 2570     		strb	r5, [r4]
 1225              		.loc 1 132 0
 1226 00ac 0193     		str	r3, [sp, #4]
 1227              		.loc 1 137 0
 1228 00ae FFF7FEFF 		bl	commands_send_packet_nrf
 1229              	.LVL85:
 1230              	.LBE70:
 1231              		.loc 1 163 0
 1232 00b2 05B0     		add	sp, sp, #20
 1233              		.cfi_def_cfa_offset 12
 1234              		@ sp needed
 1235 00b4 30BD     		pop	{r4, r5, pc}
 1236              	.L92:
 1237 00b6 00BF     		.align	2
 1238              	.L91:
 1239 00b8 00000000 		.word	.LANCHOR0
 1240 00bc 00000000 		.word	ch
 1241 00c0 D34D6210 		.word	274877907
 1242 00c4 00000000 		.word	.LANCHOR5
 1243 00c8 00000000 		.word	.LANCHOR8
 1244 00cc 00000000 		.word	.LANCHOR9
 1245 00d0 0343C6C5 		.word	-976862461
 1246 00d4 3543C6C5 		.word	-976862411
 1247              		.cfi_endproc
 1248              	.LFE222:
 1249              		.size	nrf_driver_start_pairing, .-nrf_driver_start_pairing
 1250              		.section	.text.nrf_driver_process_packet,"ax",%progbits
 1251              		.align	1
 1252              		.p2align 4,,15
 1253              		.global	nrf_driver_process_packet
 1254              		.syntax unified
ARM GAS  /tmp/cc0HVsVR.s 			page 23


 1255              		.thumb
 1256              		.thumb_func
 1257              		.fpu fpv4-sp-d16
 1258              		.type	nrf_driver_process_packet, %function
 1259              	nrf_driver_process_packet:
 1260              	.LFB227:
 1261              		.loc 1 372 0
 1262              		.cfi_startproc
 1263              		@ args = 0, pretend = 0, frame = 224
 1264              		@ frame_needed = 0, uses_anonymous_args = 0
 1265              	.LVL86:
 1266 0000 2DE9F041 		push	{r4, r5, r6, r7, r8, lr}
 1267              		.cfi_def_cfa_offset 24
 1268              		.cfi_offset 4, -24
 1269              		.cfi_offset 5, -20
 1270              		.cfi_offset 6, -16
 1271              		.cfi_offset 7, -12
 1272              		.cfi_offset 8, -8
 1273              		.cfi_offset 14, -4
 1274              		.loc 1 373 0
 1275 0004 0378     		ldrb	r3, [r0]	@ zero_extendqisi2
 1276              	.LVL87:
 1277              		.loc 1 378 0
 1278 0006 7D4D     		ldr	r5, .L114
 1279              		.loc 1 372 0
 1280 0008 B8B0     		sub	sp, sp, #224
 1281              		.cfi_def_cfa_offset 248
 1282              		.loc 1 372 0
 1283 000a 0446     		mov	r4, r0
 1284              		.loc 1 378 0
 1285 000c 4FF4FA76 		mov	r6, #500
 1286              		.loc 1 375 0
 1287 0010 0020     		movs	r0, #0
 1288              	.LVL88:
 1289              		.loc 1 380 0
 1290 0012 013B     		subs	r3, r3, #1
 1291              	.LVL89:
 1292              		.loc 1 378 0
 1293 0014 2E60     		str	r6, [r5]
 1294              		.loc 1 375 0
 1295 0016 0290     		str	r0, [sp, #8]
 1296              		.loc 1 380 0
 1297 0018 062B     		cmp	r3, #6
 1298 001a 5CD8     		bhi	.L93
 1299 001c DFE803F0 		tbb	[pc, r3]
 1300              	.L96:
 1301 0020 70       		.byte	(.L95-.L96)/2
 1302 0021 5B       		.byte	(.L93-.L96)/2
 1303 0022 AE       		.byte	(.L97-.L96)/2
 1304 0023 B8       		.byte	(.L98-.L96)/2
 1305 0024 C4       		.byte	(.L99-.L96)/2
 1306 0025 5E       		.byte	(.L100-.L96)/2
 1307 0026 04       		.byte	(.L101-.L96)/2
 1308 0027 00       		.p2align 1
 1309              	.L101:
 1310              	.LBB71:
 1311              		.loc 1 460 0
ARM GAS  /tmp/cc0HVsVR.s 			page 24


 1312 0028 754B     		ldr	r3, .L114+4
 1313              	.LVL90:
 1314 002a 1A78     		ldrb	r2, [r3]	@ zero_extendqisi2
 1315              		.loc 1 458 0
 1316 002c 0125     		movs	r5, #1
 1317 002e 0295     		str	r5, [sp, #8]
 1318              		.loc 1 460 0
 1319 0030 002A     		cmp	r2, #0
 1320 0032 50D0     		beq	.L93
 1321              		.loc 1 464 0
 1322 0034 0022     		movs	r2, #0
 1323 0036 1A70     		strb	r2, [r3]
 1324              		.loc 1 466 0
 1325 0038 FFF7FEFF 		bl	app_get_configuration
 1326              	.LVL91:
 1327 003c CC22     		movs	r2, #204
 1328 003e 0146     		mov	r1, r0
 1329 0040 05A8     		add	r0, sp, #20
 1330 0042 FFF7FEFF 		bl	memcpy
 1331              	.LVL92:
 1332              		.loc 1 467 0
 1333 0046 029B     		ldr	r3, [sp, #8]
 1334              		.loc 1 477 0
 1335 0048 6E4A     		ldr	r2, .L114+8
 1336              		.loc 1 467 0
 1337 004a E75C     		ldrb	r7, [r4, r3]	@ zero_extendqisi2
 1338              		.loc 1 477 0
 1339 004c 92F800C0 		ldrb	ip, [r2]	@ zero_extendqisi2
 1340              		.loc 1 471 0
 1341 0050 8DF8D650 		strb	r5, [sp, #214]
 1342              		.loc 1 468 0
 1343 0054 1C44     		add	r4, r4, r3
 1344              	.LVL93:
 1345              		.loc 1 472 0
 1346 0056 0322     		movs	r2, #3
 1347              		.loc 1 470 0
 1348 0058 0433     		adds	r3, r3, #4
 1349              		.loc 1 468 0
 1350 005a 6178     		ldrb	r1, [r4, #1]	@ zero_extendqisi2
 1351              		.loc 1 469 0
 1352 005c A678     		ldrb	r6, [r4, #2]	@ zero_extendqisi2
 1353              		.loc 1 470 0
 1354 005e E078     		ldrb	r0, [r4, #3]	@ zero_extendqisi2
 1355              		.loc 1 474 0
 1356 0060 8DF8DD50 		strb	r5, [sp, #221]
 1357              		.loc 1 475 0
 1358 0064 8DF8D450 		strb	r5, [sp, #212]
 1359              		.loc 1 467 0
 1360 0068 8DF8DA70 		strb	r7, [sp, #218]
 1361              		.loc 1 470 0
 1362 006c 0293     		str	r3, [sp, #8]
 1363              		.loc 1 468 0
 1364 006e 8DF8DB10 		strb	r1, [sp, #219]
 1365              		.loc 1 469 0
 1366 0072 8DF8DC60 		strb	r6, [sp, #220]
 1367              		.loc 1 470 0
 1368 0076 8DF8D900 		strb	r0, [sp, #217]
ARM GAS  /tmp/cc0HVsVR.s 			page 25


 1369              		.loc 1 472 0
 1370 007a 8DF8D820 		strb	r2, [sp, #216]
 1371              		.loc 1 473 0
 1372 007e 8DF8D720 		strb	r2, [sp, #215]
 1373              	.LBB72:
 1374              		.loc 1 484 0
 1375 0082 03AD     		add	r5, sp, #12
 1376              	.LBE72:
 1377              		.loc 1 477 0
 1378 0084 BCF1000F 		cmp	ip, #0
 1379 0088 0ED0     		beq	.L105
 1380              	.LBB73:
 1381              		.loc 1 480 0
 1382 008a 8DF80D00 		strb	r0, [sp, #13]
 1383              		.loc 1 479 0
 1384 008e 3523     		movs	r3, #53
 1385              		.loc 1 482 0
 1386 0090 8DF80F10 		strb	r1, [sp, #15]
 1387              		.loc 1 484 0
 1388 0094 2846     		mov	r0, r5
 1389 0096 0521     		movs	r1, #5
 1390              		.loc 1 481 0
 1391 0098 8DF80E70 		strb	r7, [sp, #14]
 1392              		.loc 1 483 0
 1393 009c 8DF81060 		strb	r6, [sp, #16]
 1394              		.loc 1 479 0
 1395 00a0 8DF80C30 		strb	r3, [sp, #12]
 1396              		.loc 1 484 0
 1397 00a4 FFF7FEFF 		bl	commands_send_packet_nrf
 1398              	.LVL94:
 1399              	.L105:
 1400              	.LBE73:
 1401              		.loc 1 487 0
 1402 00a8 574C     		ldr	r4, .L114+12
 1403 00aa 0123     		movs	r3, #1
 1404              		.loc 1 488 0
 1405 00ac 05A8     		add	r0, sp, #20
 1406              		.loc 1 487 0
 1407 00ae 2370     		strb	r3, [r4]
 1408              		.loc 1 488 0
 1409 00b0 FFF7FEFF 		bl	conf_general_store_app_configuration
 1410              	.LVL95:
 1411              		.loc 1 489 0
 1412 00b4 05A8     		add	r0, sp, #20
 1413 00b6 FFF7FEFF 		bl	app_set_configuration
 1414              	.LVL96:
 1415              		.loc 1 491 0
 1416 00ba 05A9     		add	r1, sp, #20
 1417 00bc 1120     		movs	r0, #17
 1418 00be FFF7FEFF 		bl	commands_send_appconf
 1419              	.LVL97:
 1420              		.loc 1 494 0
 1421 00c2 40F22513 		movw	r3, #293
 1422              		.loc 1 496 0
 1423 00c6 2846     		mov	r0, r5
 1424 00c8 0221     		movs	r1, #2
 1425              		.loc 1 494 0
ARM GAS  /tmp/cc0HVsVR.s 			page 26


 1426 00ca ADF80C30 		strh	r3, [sp, #12]	@ movhi
 1427              		.loc 1 496 0
 1428 00ce FFF7FEFF 		bl	commands_send_packet
 1429              	.LVL98:
 1430              		.loc 1 498 0
 1431 00d2 0023     		movs	r3, #0
 1432 00d4 2370     		strb	r3, [r4]
 1433              	.L93:
 1434              	.LBE71:
 1435              		.loc 1 504 0
 1436 00d6 38B0     		add	sp, sp, #224
 1437              		.cfi_remember_state
 1438              		.cfi_def_cfa_offset 24
 1439              		@ sp needed
 1440 00d8 BDE8F081 		pop	{r4, r5, r6, r7, r8, pc}
 1441              	.LVL99:
 1442              	.L100:
 1443              		.cfi_restore_state
 1444              		.loc 1 450 0
 1445 00dc 1420     		movs	r0, #20
 1446 00de 0191     		str	r1, [sp, #4]
 1447 00e0 FFF7FEFF 		bl	chThdSleep
 1448              	.LVL100:
 1449              		.loc 1 453 0
 1450 00e4 0199     		ldr	r1, [sp, #4]
 1451              		.loc 1 452 0
 1452 00e6 484D     		ldr	r5, .L114+12
 1453              		.loc 1 453 0
 1454 00e8 484A     		ldr	r2, .L114+16
 1455              		.loc 1 452 0
 1456 00ea 0123     		movs	r3, #1
 1457              		.loc 1 453 0
 1458 00ec 0139     		subs	r1, r1, #1
 1459 00ee 601C     		adds	r0, r4, #1
 1460              		.loc 1 452 0
 1461 00f0 2B70     		strb	r3, [r5]
 1462              		.loc 1 453 0
 1463 00f2 FFF7FEFF 		bl	commands_process_packet
 1464              	.LVL101:
 1465              		.loc 1 454 0
 1466 00f6 0023     		movs	r3, #0
 1467 00f8 2B70     		strb	r3, [r5]
 1468              		.loc 1 504 0
 1469 00fa 38B0     		add	sp, sp, #224
 1470              		.cfi_remember_state
 1471              		.cfi_def_cfa_offset 24
 1472              		@ sp needed
 1473 00fc BDE8F081 		pop	{r4, r5, r6, r7, r8, pc}
 1474              	.LVL102:
 1475              	.L95:
 1476              		.cfi_restore_state
 1477              		.loc 1 389 0
 1478 0100 38A9     		add	r1, sp, #224
 1479              	.LVL103:
 1480 0102 0423     		movs	r3, #4
 1481              	.LVL104:
 1482              		.loc 1 387 0
ARM GAS  /tmp/cc0HVsVR.s 			page 27


 1483 0104 424D     		ldr	r5, .L114+20
 1484              		.loc 1 389 0
 1485 0106 41F8D83D 		str	r3, [r1, #-216]!
 1486 010a E378     		ldrb	r3, [r4, #3]	@ zero_extendqisi2
 1487              	.LVL105:
 1488              		.loc 1 387 0
 1489 010c 6278     		ldrb	r2, [r4, #1]	@ zero_extendqisi2
 1490 010e 2A70     		strb	r2, [r5]
 1491              		.loc 1 390 0
 1492 0110 03F00102 		and	r2, r3, #1
 1493 0114 AA70     		strb	r2, [r5, #2]
 1494              		.loc 1 391 0
 1495 0116 C3F34002 		ubfx	r2, r3, #1, #1
 1496              		.loc 1 388 0
 1497 011a A678     		ldrb	r6, [r4, #2]	@ zero_extendqisi2
 1498              		.loc 1 391 0
 1499 011c EA70     		strb	r2, [r5, #3]
 1500              		.loc 1 395 0
 1501 011e 2046     		mov	r0, r4
 1502              		.loc 1 393 0
 1503 0120 C3F3C002 		ubfx	r2, r3, #3, #1
 1504              		.loc 1 392 0
 1505 0124 C3F38004 		ubfx	r4, r3, #2, #1
 1506              	.LVL106:
 1507              		.loc 1 394 0
 1508 0128 C3F30013 		ubfx	r3, r3, #4, #1
 1509              	.LVL107:
 1510              		.loc 1 388 0
 1511 012c 6E70     		strb	r6, [r5, #1]
 1512              		.loc 1 392 0
 1513 012e 2C71     		strb	r4, [r5, #4]
 1514              		.loc 1 393 0
 1515 0130 6A71     		strb	r2, [r5, #5]
 1516              		.loc 1 394 0
 1517 0132 AB71     		strb	r3, [r5, #6]
 1518              		.loc 1 395 0
 1519 0134 FFF7FEFF 		bl	buffer_get_int16
 1520              	.LVL108:
 1521 0138 07EE900A 		vmov	s15, r0	@ int
 1522 013c 9FED357A 		vldr.32	s14, .L114+24
 1523              		.loc 1 397 0
 1524 0140 2B78     		ldrb	r3, [r5]	@ zero_extendqisi2
 1525              		.loc 1 398 0
 1526 0142 6A78     		ldrb	r2, [r5, #1]	@ zero_extendqisi2
 1527              		.loc 1 399 0
 1528 0144 AE78     		ldrb	r6, [r5, #2]	@ zero_extendqisi2
 1529              		.loc 1 398 0
 1530 0146 0692     		str	r2, [sp, #24]
 1531              		.loc 1 395 0
 1532 0148 F8EEE76A 		vcvt.f32.s32	s13, s15
 1533              		.loc 1 397 0
 1534 014c C3F1FF03 		rsb	r3, r3, #255
 1535              		.loc 1 395 0
 1536 0150 C6EE877A 		vdiv.f32	s15, s13, s14
 1537              		.loc 1 400 0
 1538 0154 EC78     		ldrb	r4, [r5, #3]	@ zero_extendqisi2
 1539              		.loc 1 401 0
ARM GAS  /tmp/cc0HVsVR.s 			page 28


 1540 0156 6979     		ldrb	r1, [r5, #5]	@ zero_extendqisi2
 1541              		.loc 1 402 0
 1542 0158 AA79     		ldrb	r2, [r5, #6]	@ zero_extendqisi2
 1543              		.loc 1 397 0
 1544 015a 0593     		str	r3, [sp, #20]
 1545              		.loc 1 404 0
 1546 015c 05A8     		add	r0, sp, #20
 1547              		.loc 1 399 0
 1548 015e 8DF82860 		strb	r6, [sp, #40]
 1549              		.loc 1 400 0
 1550 0162 8DF82940 		strb	r4, [sp, #41]
 1551              		.loc 1 401 0
 1552 0166 8DF82A10 		strb	r1, [sp, #42]
 1553              		.loc 1 402 0
 1554 016a 8DF82B20 		strb	r2, [sp, #43]
 1555              		.loc 1 395 0
 1556 016e C5ED027A 		vstr.32	s15, [r5, #8]
 1557              		.loc 1 404 0
 1558 0172 FFF7FEFF 		bl	app_nunchuk_update_output
 1559              	.LVL109:
 1560              		.loc 1 504 0
 1561 0176 38B0     		add	sp, sp, #224
 1562              		.cfi_remember_state
 1563              		.cfi_def_cfa_offset 24
 1564              		@ sp needed
 1565 0178 BDE8F081 		pop	{r4, r5, r6, r7, r8, pc}
 1566              	.LVL110:
 1567              	.L97:
 1568              		.cfi_restore_state
 1569              		.loc 1 408 0
 1570 017c 2648     		ldr	r0, .L114+28
 1571 017e 6378     		ldrb	r3, [r4, #1]	@ zero_extendqisi2
 1572              	.LVL111:
 1573 0180 8A1E     		subs	r2, r1, #2
 1574 0182 1844     		add	r0, r0, r3
 1575 0184 A11C     		adds	r1, r4, #2
 1576              	.LVL112:
 1577              	.L113:
 1578              		.loc 1 504 0
 1579 0186 38B0     		add	sp, sp, #224
 1580              		.cfi_remember_state
 1581              		.cfi_def_cfa_offset 24
 1582              		@ sp needed
 1583 0188 BDE8F041 		pop	{r4, r5, r6, r7, r8, lr}
 1584              		.cfi_restore 14
 1585              		.cfi_restore 8
 1586              		.cfi_restore 7
 1587              		.cfi_restore 6
 1588              		.cfi_restore 5
 1589              		.cfi_restore 4
 1590              		.cfi_def_cfa_offset 0
 1591              	.LVL113:
 1592              	.LBB74:
 1593              		.loc 1 415 0
 1594 018c FFF7FEBF 		b	memcpy
 1595              	.LVL114:
 1596              	.L98:
ARM GAS  /tmp/cc0HVsVR.s 			page 29


 1597              		.cfi_restore_state
 1598 0190 B4F80130 		ldrh	r3, [r4, #1]	@ unaligned
 1599              	.LVL115:
 1600 0194 5BBA     		rev16	r3, r3
 1601 0196 9BB2     		uxth	r3, r3
 1602              	.LVL116:
 1603              		.loc 1 414 0
 1604 0198 B3F5007F 		cmp	r3, #512
 1605 019c 9BD2     		bcs	.L93
 1606              		.loc 1 415 0
 1607 019e 1E48     		ldr	r0, .L114+28
 1608 01a0 CA1E     		subs	r2, r1, #3
 1609 01a2 1844     		add	r0, r0, r3
 1610 01a4 E11C     		adds	r1, r4, #3
 1611              	.LVL117:
 1612 01a6 EEE7     		b	.L113
 1613              	.LVL118:
 1614              	.L99:
 1615              	.LBE74:
 1616              	.LBB75:
 1617              		.loc 1 422 0
 1618 01a8 6378     		ldrb	r3, [r4, #1]	@ zero_extendqisi2
 1619              	.LVL119:
 1620              		.loc 1 423 0
 1621 01aa A578     		ldrb	r5, [r4, #2]	@ zero_extendqisi2
 1622 01ac 45EA0325 		orr	r5, r5, r3, lsl #8
 1623              	.LVL120:
 1624              		.loc 1 425 0
 1625 01b0 B5F5007F 		cmp	r5, #512
 1626 01b4 8FD8     		bhi	.L93
 1627              		.loc 1 432 0
 1628 01b6 4A1F     		subs	r2, r1, #5
 1629 01b8 174F     		ldr	r7, .L114+28
 1630              		.loc 1 429 0
 1631 01ba 94F80380 		ldrb	r8, [r4, #3]	@ zero_extendqisi2
 1632              	.LVL121:
 1633              		.loc 1 430 0
 1634 01be 2679     		ldrb	r6, [r4, #4]	@ zero_extendqisi2
 1635              	.LVL122:
 1636 01c0 0523     		movs	r3, #5
 1637              		.loc 1 432 0
 1638 01c2 A81A     		subs	r0, r5, r2
 1639 01c4 E118     		adds	r1, r4, r3
 1640              	.LVL123:
 1641 01c6 3844     		add	r0, r0, r7
 1642              		.loc 1 430 0
 1643 01c8 0293     		str	r3, [sp, #8]
 1644              		.loc 1 432 0
 1645 01ca FFF7FEFF 		bl	memcpy
 1646              	.LVL124:
 1647              		.loc 1 434 0
 1648 01ce 2946     		mov	r1, r5
 1649 01d0 3846     		mov	r0, r7
 1650 01d2 FFF7FEFF 		bl	crc16
 1651              	.LVL125:
 1652              		.loc 1 436 0
 1653 01d6 46EA0826 		orr	r6, r6, r8, lsl #8
ARM GAS  /tmp/cc0HVsVR.s 			page 30


 1654              	.LVL126:
 1655              		.loc 1 434 0
 1656 01da B042     		cmp	r0, r6
 1657 01dc 7FF47BAF 		bne	.L93
 1658              		.loc 1 439 0
 1659 01e0 1420     		movs	r0, #20
 1660              		.loc 1 441 0
 1661 01e2 094C     		ldr	r4, .L114+12
 1662              	.LVL127:
 1663              		.loc 1 439 0
 1664 01e4 FFF7FEFF 		bl	chThdSleep
 1665              	.LVL128:
 1666              		.loc 1 441 0
 1667 01e8 0123     		movs	r3, #1
 1668              		.loc 1 442 0
 1669 01ea 2946     		mov	r1, r5
 1670 01ec 3846     		mov	r0, r7
 1671 01ee 074A     		ldr	r2, .L114+16
 1672              		.loc 1 441 0
 1673 01f0 2370     		strb	r3, [r4]
 1674              		.loc 1 442 0
 1675 01f2 FFF7FEFF 		bl	commands_process_packet
 1676              	.LVL129:
 1677              		.loc 1 443 0
 1678 01f6 0023     		movs	r3, #0
 1679 01f8 2370     		strb	r3, [r4]
 1680 01fa 6CE7     		b	.L93
 1681              	.L115:
 1682              		.align	2
 1683              	.L114:
 1684 01fc 00000000 		.word	.LANCHOR12
 1685 0200 00000000 		.word	.LANCHOR5
 1686 0204 00000000 		.word	.LANCHOR0
 1687 0208 00000000 		.word	.LANCHOR11
 1688 020c 00000000 		.word	nrf_driver_send_buffer
 1689 0210 00000000 		.word	.LANCHOR15
 1690 0214 00007A44 		.word	1148846080
 1691 0218 00000000 		.word	.LANCHOR16
 1692              	.LBE75:
 1693              		.cfi_endproc
 1694              	.LFE227:
 1695              		.size	nrf_driver_process_packet, .-nrf_driver_process_packet
 1696              		.section	.text.rx_thread,"ax",%progbits
 1697              		.align	1
 1698              		.p2align 4,,15
 1699              		.syntax unified
 1700              		.thumb
 1701              		.thumb_func
 1702              		.fpu fpv4-sp-d16
 1703              		.type	rx_thread, %function
 1704              	rx_thread:
 1705              	.LFB225:
 1706              		.loc 1 251 0
 1707              		.cfi_startproc
 1708              		@ args = 0, pretend = 0, frame = 40
 1709              		@ frame_needed = 0, uses_anonymous_args = 0
 1710              	.LVL130:
ARM GAS  /tmp/cc0HVsVR.s 			page 31


 1711 0000 2DE9F043 		push	{r4, r5, r6, r7, r8, r9, lr}
 1712              		.cfi_def_cfa_offset 28
 1713              		.cfi_offset 4, -28
 1714              		.cfi_offset 5, -24
 1715              		.cfi_offset 6, -20
 1716              		.cfi_offset 7, -16
 1717              		.cfi_offset 8, -12
 1718              		.cfi_offset 9, -8
 1719              		.cfi_offset 14, -4
 1720              	.LBB76:
 1721              	.LBB77:
 1722              		.loc 2 135 0
 1723 0004 234B     		ldr	r3, .L135
 1724              	.LBE77:
 1725              	.LBE76:
 1726              		.loc 1 255 0
 1727 0006 DFF8A090 		ldr	r9, .L135+20
 1728              	.LBB79:
 1729              	.LBB78:
 1730              		.loc 2 135 0
 1731 000a 9B69     		ldr	r3, [r3, #24]
 1732 000c 224A     		ldr	r2, .L135+4
 1733 000e 9A61     		str	r2, [r3, #24]
 1734              	.LVL131:
 1735 0010 224F     		ldr	r7, .L135+8
 1736 0012 DFF89880 		ldr	r8, .L135+24
 1737              	.LBE78:
 1738              	.LBE79:
 1739              	.LBB80:
 1740              		.loc 1 292 0
 1741 0016 224D     		ldr	r5, .L135+12
 1742 0018 224E     		ldr	r6, .L135+16
 1743              	.LBE80:
 1744              		.loc 1 255 0
 1745 001a 0123     		movs	r3, #1
 1746              		.loc 1 251 0
 1747 001c 8BB0     		sub	sp, sp, #44
 1748              		.cfi_def_cfa_offset 72
 1749              		.loc 1 255 0
 1750 001e 89F80030 		strb	r3, [r9]
 1751              	.LVL132:
 1752              	.L117:
 1753              	.LBB83:
 1754              		.loc 1 258 0
 1755 0022 3B68     		ldr	r3, [r7]
 1756 0024 D3B9     		cbnz	r3, .L132
 1757              	.L118:
 1758              		.loc 1 263 0
 1759 0026 98F80020 		ldrb	r2, [r8]	@ zero_extendqisi2
 1760 002a 72BB     		cbnz	r2, .L133
 1761              	.L120:
 1762              	.LBB81:
 1763              		.loc 1 273 0
 1764 002c 01AA     		add	r2, sp, #4
 1765 002e 6946     		mov	r1, sp
 1766 0030 02A8     		add	r0, sp, #8
 1767 0032 FFF7FEFF 		bl	rfhelp_read_rx_data_crc
ARM GAS  /tmp/cc0HVsVR.s 			page 32


 1768              	.LVL133:
 1769              		.loc 1 276 0
 1770 0036 041E     		subs	r4, r0, #0
 1771              		.loc 1 277 0
 1772 0038 02A8     		add	r0, sp, #8
 1773              	.LVL134:
 1774              		.loc 1 276 0
 1775 003a 13DA     		bge	.L134
 1776              	.L121:
 1777              	.LBE81:
 1778              		.loc 1 289 0
 1779 003c 3220     		movs	r0, #50
 1780 003e FFF7FEFF 		bl	chThdSleep
 1781              	.LVL135:
 1782              		.loc 1 292 0
 1783 0042 2B68     		ldr	r3, [r5]
 1784 0044 002B     		cmp	r3, #0
 1785 0046 17DD     		ble	.L122
 1786              		.loc 1 292 0 is_stmt 0 discriminator 1
 1787 0048 3268     		ldr	r2, [r6]
 1788 004a 002A     		cmp	r2, #0
 1789 004c 14DD     		ble	.L122
 1790              		.loc 1 293 0 is_stmt 1
 1791 004e 053B     		subs	r3, r3, #5
 1792 0050 2B60     		str	r3, [r5]
 1793              		.loc 1 258 0
 1794 0052 3B68     		ldr	r3, [r7]
 1795              		.loc 1 294 0
 1796 0054 053A     		subs	r2, r2, #5
 1797 0056 3260     		str	r2, [r6]
 1798              		.loc 1 258 0
 1799 0058 002B     		cmp	r3, #0
 1800 005a E4D0     		beq	.L118
 1801              	.LVL136:
 1802              	.L132:
 1803              		.loc 1 259 0
 1804 005c 3220     		movs	r0, #50
 1805 005e FFF7FEFF 		bl	chThdSleep
 1806              	.LVL137:
 1807 0062 DEE7     		b	.L117
 1808              	.LVL138:
 1809              	.L134:
 1810              	.LBB82:
 1811              		.loc 1 277 0
 1812 0064 9DF80010 		ldrb	r1, [sp]	@ zero_extendqisi2
 1813 0068 FFF7FEFF 		bl	nrf_driver_process_packet
 1814              	.LVL139:
 1815              		.loc 1 285 0
 1816 006c 0A20     		movs	r0, #10
 1817              		.loc 1 281 0
 1818 006e 002C     		cmp	r4, #0
 1819 0070 E4D0     		beq	.L121
 1820              		.loc 1 285 0
 1821 0072 FFF7FEFF 		bl	chThdSleep
 1822              	.LVL140:
 1823              	.LBE82:
 1824              		.loc 1 272 0
ARM GAS  /tmp/cc0HVsVR.s 			page 33


 1825 0076 D9E7     		b	.L120
 1826              	.L122:
 1827              		.loc 1 296 0
 1828 0078 FFF7FEFF 		bl	rfhelp_power_up
 1829              	.LVL141:
 1830              		.loc 1 297 0
 1831 007c FFF7FEFF 		bl	rfhelp_restart
 1832              	.LVL142:
 1833              		.loc 1 298 0
 1834 0080 4FF4FA73 		mov	r3, #500
 1835 0084 2B60     		str	r3, [r5]
 1836              		.loc 1 299 0
 1837 0086 3360     		str	r3, [r6]
 1838 0088 CBE7     		b	.L117
 1839              	.LVL143:
 1840              	.L133:
 1841              		.loc 1 264 0
 1842 008a 89F80030 		strb	r3, [r9]
 1843              	.LBE83:
 1844              		.loc 1 302 0
 1845 008e 0BB0     		add	sp, sp, #44
 1846              		.cfi_def_cfa_offset 28
 1847              		@ sp needed
 1848 0090 BDE8F083 		pop	{r4, r5, r6, r7, r8, r9, pc}
 1849              	.L136:
 1850              		.align	2
 1851              	.L135:
 1852 0094 00000000 		.word	ch
 1853 0098 00000000 		.word	.LC1
 1854 009c 00000000 		.word	.LANCHOR7
 1855 00a0 00000000 		.word	.LANCHOR12
 1856 00a4 00000000 		.word	.LANCHOR1
 1857 00a8 00000000 		.word	.LANCHOR9
 1858 00ac 00000000 		.word	.LANCHOR10
 1859              		.cfi_endproc
 1860              	.LFE225:
 1861              		.size	rx_thread, .-rx_thread
 1862              		.section	.text.nrf_driver_is_pairing,"ax",%progbits
 1863              		.align	1
 1864              		.p2align 4,,15
 1865              		.global	nrf_driver_is_pairing
 1866              		.syntax unified
 1867              		.thumb
 1868              		.thumb_func
 1869              		.fpu fpv4-sp-d16
 1870              		.type	nrf_driver_is_pairing, %function
 1871              	nrf_driver_is_pairing:
 1872              	.LFB228:
 1873              		.loc 1 506 0
 1874              		.cfi_startproc
 1875              		@ args = 0, pretend = 0, frame = 0
 1876              		@ frame_needed = 0, uses_anonymous_args = 0
 1877              		@ link register save eliminated.
 1878              		.loc 1 507 0
 1879 0000 014B     		ldr	r3, .L138
 1880 0002 1878     		ldrb	r0, [r3]	@ zero_extendqisi2
 1881              		.loc 1 508 0
ARM GAS  /tmp/cc0HVsVR.s 			page 34


 1882 0004 7047     		bx	lr
 1883              	.L139:
 1884 0006 00BF     		.align	2
 1885              	.L138:
 1886 0008 00000000 		.word	.LANCHOR5
 1887              		.cfi_endproc
 1888              	.LFE228:
 1889              		.size	nrf_driver_is_pairing, .-nrf_driver_is_pairing
 1890              		.section	.text.nrf_driver_ext_nrf_running,"ax",%progbits
 1891              		.align	1
 1892              		.p2align 4,,15
 1893              		.global	nrf_driver_ext_nrf_running
 1894              		.syntax unified
 1895              		.thumb
 1896              		.thumb_func
 1897              		.fpu fpv4-sp-d16
 1898              		.type	nrf_driver_ext_nrf_running, %function
 1899              	nrf_driver_ext_nrf_running:
 1900              	.LFB229:
 1901              		.loc 1 510 0
 1902              		.cfi_startproc
 1903              		@ args = 0, pretend = 0, frame = 0
 1904              		@ frame_needed = 0, uses_anonymous_args = 0
 1905              		@ link register save eliminated.
 1906              		.loc 1 511 0
 1907 0000 014B     		ldr	r3, .L141
 1908 0002 1878     		ldrb	r0, [r3]	@ zero_extendqisi2
 1909              		.loc 1 512 0
 1910 0004 7047     		bx	lr
 1911              	.L142:
 1912 0006 00BF     		.align	2
 1913              	.L141:
 1914 0008 00000000 		.word	.LANCHOR0
 1915              		.cfi_endproc
 1916              	.LFE229:
 1917              		.size	nrf_driver_ext_nrf_running, .-nrf_driver_ext_nrf_running
 1918              		.section	.text.nrf_driver_pause,"ax",%progbits
 1919              		.align	1
 1920              		.p2align 4,,15
 1921              		.global	nrf_driver_pause
 1922              		.syntax unified
 1923              		.thumb
 1924              		.thumb_func
 1925              		.fpu fpv4-sp-d16
 1926              		.type	nrf_driver_pause, %function
 1927              	nrf_driver_pause:
 1928              	.LFB230:
 1929              		.loc 1 514 0
 1930              		.cfi_startproc
 1931              		@ args = 0, pretend = 0, frame = 0
 1932              		@ frame_needed = 0, uses_anonymous_args = 0
 1933              		@ link register save eliminated.
 1934              	.LVL144:
 1935              		.loc 1 515 0
 1936 0000 014B     		ldr	r3, .L144
 1937 0002 1860     		str	r0, [r3]
 1938              		.loc 1 516 0
ARM GAS  /tmp/cc0HVsVR.s 			page 35


 1939 0004 7047     		bx	lr
 1940              	.L145:
 1941 0006 00BF     		.align	2
 1942              	.L144:
 1943 0008 00000000 		.word	.LANCHOR7
 1944              		.cfi_endproc
 1945              	.LFE230:
 1946              		.size	nrf_driver_pause, .-nrf_driver_pause
 1947              		.section	.bss.driver_paused,"aw",%nobits
 1948              		.align	2
 1949              		.set	.LANCHOR7,. + 0
 1950              		.type	driver_paused, %object
 1951              		.size	driver_paused, 4
 1952              	driver_paused:
 1953 0000 00000000 		.space	4
 1954              		.section	.bss.ext_nrf,"aw",%nobits
 1955              		.set	.LANCHOR0,. + 0
 1956              		.type	ext_nrf, %object
 1957              		.size	ext_nrf, 1
 1958              	ext_nrf:
 1959 0000 00       		.space	1
 1960              		.section	.bss.from_nrf,"aw",%nobits
 1961              		.set	.LANCHOR11,. + 0
 1962              		.type	from_nrf, %object
 1963              		.size	from_nrf, 1
 1964              	from_nrf:
 1965 0000 00       		.space	1
 1966              		.section	.bss.mstate,"aw",%nobits
 1967              		.align	2
 1968              		.set	.LANCHOR15,. + 0
 1969              		.type	mstate, %object
 1970              		.size	mstate, 12
 1971              	mstate:
 1972 0000 00000000 		.space	12
 1972      00000000 
 1972      00000000 
 1973              		.section	.bss.nosend_cnt,"aw",%nobits
 1974              		.align	2
 1975              		.set	.LANCHOR4,. + 0
 1976              		.type	nosend_cnt, %object
 1977              		.size	nosend_cnt, 4
 1978              	nosend_cnt:
 1979 0000 00000000 		.space	4
 1980              		.section	.bss.nrf_restart_rx_time,"aw",%nobits
 1981              		.align	2
 1982              		.set	.LANCHOR12,. + 0
 1983              		.type	nrf_restart_rx_time, %object
 1984              		.size	nrf_restart_rx_time, 4
 1985              	nrf_restart_rx_time:
 1986 0000 00000000 		.space	4
 1987              		.section	.bss.nrf_restart_tx_time,"aw",%nobits
 1988              		.align	2
 1989              		.set	.LANCHOR1,. + 0
 1990              		.type	nrf_restart_tx_time, %object
 1991              		.size	nrf_restart_tx_time, 4
 1992              	nrf_restart_tx_time:
 1993 0000 00000000 		.space	4
ARM GAS  /tmp/cc0HVsVR.s 			page 36


 1994              		.section	.bss.pairing_active,"aw",%nobits
 1995              		.set	.LANCHOR5,. + 0
 1996              		.type	pairing_active, %object
 1997              		.size	pairing_active, 1
 1998              	pairing_active:
 1999 0000 00       		.space	1
 2000              		.section	.bss.pairing_time_end,"aw",%nobits
 2001              		.align	2
 2002              		.set	.LANCHOR8,. + 0
 2003              		.type	pairing_time_end, %object
 2004              		.size	pairing_time_end, 4
 2005              	pairing_time_end:
 2006 0000 00000000 		.space	4
 2007              		.section	.bss.rx_buffer,"aw",%nobits
 2008              		.align	2
 2009              		.set	.LANCHOR16,. + 0
 2010              		.type	rx_buffer, %object
 2011              		.size	rx_buffer, 512
 2012              	rx_buffer:
 2013 0000 00000000 		.space	512
 2013      00000000 
 2013      00000000 
 2013      00000000 
 2013      00000000 
 2014              		.section	.bss.rx_running,"aw",%nobits
 2015              		.set	.LANCHOR9,. + 0
 2016              		.type	rx_running, %object
 2017              		.size	rx_running, 1
 2018              	rx_running:
 2019 0000 00       		.space	1
 2020              		.section	.bss.rx_thread_wa,"aw",%nobits
 2021              		.align	3
 2022              		.set	.LANCHOR13,. + 0
 2023              		.type	rx_thread_wa, %object
 2024              		.size	rx_thread_wa, 2456
 2025              	rx_thread_wa:
 2026 0000 00000000 		.space	2456
 2026      00000000 
 2026      00000000 
 2026      00000000 
 2026      00000000 
 2027              		.section	.bss.seq_cnt.10253,"aw",%nobits
 2028              		.set	.LANCHOR6,. + 0
 2029              		.type	seq_cnt.10253, %object
 2030              		.size	seq_cnt.10253, 1
 2031              	seq_cnt.10253:
 2032 0000 00       		.space	1
 2033              		.section	.bss.tx_running,"aw",%nobits
 2034              		.set	.LANCHOR2,. + 0
 2035              		.type	tx_running, %object
 2036              		.size	tx_running, 1
 2037              	tx_running:
 2038 0000 00       		.space	1
 2039              		.section	.bss.tx_thread_wa,"aw",%nobits
 2040              		.align	3
 2041              		.set	.LANCHOR14,. + 0
 2042              		.type	tx_thread_wa, %object
ARM GAS  /tmp/cc0HVsVR.s 			page 37


 2043              		.size	tx_thread_wa, 920
 2044              	tx_thread_wa:
 2045 0000 00000000 		.space	920
 2045      00000000 
 2045      00000000 
 2045      00000000 
 2045      00000000 
 2046              		.section	.data.rx_stop,"aw",%progbits
 2047              		.set	.LANCHOR10,. + 0
 2048              		.type	rx_stop, %object
 2049              		.size	rx_stop, 1
 2050              	rx_stop:
 2051 0000 01       		.byte	1
 2052              		.section	.data.tx_stop,"aw",%progbits
 2053              		.set	.LANCHOR3,. + 0
 2054              		.type	tx_stop, %object
 2055              		.size	tx_stop, 1
 2056              	tx_stop:
 2057 0000 01       		.byte	1
 2058              		.section	.rodata.rx_thread.str1.4,"aMS",%progbits,1
 2059              		.align	2
 2060              	.LC1:
 2061 0000 4E726620 		.ascii	"Nrf RX\000"
 2061      525800
 2062              		.section	.rodata.tx_thread.str1.4,"aMS",%progbits,1
 2063              		.align	2
 2064              	.LC0:
 2065 0000 4E726620 		.ascii	"Nrf TX\000"
 2065      545800
 2066              		.text
 2067              	.Letext0:
 2068              		.file 4 "/usr/lib/gcc/arm-none-eabi/7.3.1/include/stddef.h"
 2069              		.file 5 "/usr/arm-none-eabi/include/machine/_default_types.h"
 2070              		.file 6 "/usr/arm-none-eabi/include/sys/lock.h"
 2071              		.file 7 "/usr/arm-none-eabi/include/sys/_types.h"
 2072              		.file 8 "/usr/arm-none-eabi/include/sys/reent.h"
 2073              		.file 9 "/usr/arm-none-eabi/include/sys/_stdint.h"
 2074              		.file 10 "ChibiOS_3.0.2/os/rt/ports/ARMCMx/compilers/GCC/chtypes.h"
 2075              		.file 11 "ChibiOS_3.0.2/os/rt/include/chsystypes.h"
 2076              		.file 12 "ChibiOS_3.0.2/os/rt/include/chschd.h"
 2077              		.file 13 "ChibiOS_3.0.2/os/ext/CMSIS/include/core_cm4.h"
 2078              		.file 14 "ChibiOS_3.0.2/os/ext/CMSIS/ST/system_stm32f4xx.h"
 2079              		.file 15 "ChibiOS_3.0.2/os/rt/ports/ARMCMx/chcore.h"
 2080              		.file 16 "ChibiOS_3.0.2/os/rt/ports/ARMCMx/chcore_v7m.h"
 2081              		.file 17 "ChibiOS_3.0.2/os/rt/include/chtm.h"
 2082              		.file 18 "ChibiOS_3.0.2/os/rt/include/chsem.h"
 2083              		.file 19 "ChibiOS_3.0.2/os/rt/include/chmtx.h"
 2084              		.file 20 "./datatypes.h"
 2085              		.file 21 "./conf_general.h"
 2086              		.file 22 "./mc_interface.h"
 2087              		.file 23 "./crc.h"
 2088              		.file 24 "ChibiOS_3.0.2/os/rt/include/chthreads.h"
 2089              		.file 25 "./commands.h"
 2090              		.file 26 "applications/app.h"
 2091              		.file 27 "./buffer.h"
 2092              		.file 28 "nrf/rfhelp.h"
 2093              		.file 29 "<built-in>"
ARM GAS  /tmp/cc0HVsVR.s 			page 38

