ARM GAS  /tmp/ccCS9T6O.s 			page 1


   1              		.cpu cortex-m4
   2              		.eabi_attribute 27, 1
   3              		.eabi_attribute 28, 1
   4              		.eabi_attribute 20, 1
   5              		.eabi_attribute 21, 1
   6              		.eabi_attribute 23, 3
   7              		.eabi_attribute 24, 1
   8              		.eabi_attribute 25, 1
   9              		.eabi_attribute 26, 1
  10              		.eabi_attribute 30, 2
  11              		.eabi_attribute 34, 1
  12              		.eabi_attribute 18, 4
  13              		.file	"packet.c"
  14              		.text
  15              	.Ltext0:
  16              		.cfi_sections	.debug_frame
  17              		.section	.text.packet_init,"ax",%progbits
  18              		.align	1
  19              		.p2align 4,,15
  20              		.global	packet_init
  21              		.syntax unified
  22              		.thumb
  23              		.thumb_func
  24              		.fpu fpv4-sp-d16
  25              		.type	packet_init, %function
  26              	packet_init:
  27              	.LFB0:
  28              		.file 1 "packet.c"
  29              		.loc 1 52 0
  30              		.cfi_startproc
  31              		@ args = 0, pretend = 0, frame = 0
  32              		@ frame_needed = 0, uses_anonymous_args = 0
  33              	.LVL0:
  34              		.loc 1 53 0
  35 0000 074B     		ldr	r3, .L4
  36              		.loc 1 52 0
  37 0002 70B5     		push	{r4, r5, r6, lr}
  38              		.cfi_def_cfa_offset 16
  39              		.cfi_offset 4, -16
  40              		.cfi_offset 5, -12
  41              		.cfi_offset 6, -8
  42              		.cfi_offset 14, -4
  43              		.loc 1 53 0
  44 0004 4FF48564 		mov	r4, #1064
  45 0008 04FB0233 		mla	r3, r4, r2, r3
  46              		.loc 1 52 0
  47 000c 0646     		mov	r6, r0
  48 000e 0D46     		mov	r5, r1
  49              		.loc 1 53 0
  50 0010 2246     		mov	r2, r4
  51              	.LVL1:
  52 0012 1846     		mov	r0, r3
  53              	.LVL2:
  54 0014 0021     		movs	r1, #0
  55              	.LVL3:
  56 0016 FFF7FEFF 		bl	memset
  57              	.LVL4:
ARM GAS  /tmp/ccCS9T6O.s 			page 2


  58              		.loc 1 55 0
  59 001a C0E90165 		strd	r6, r5, [r0, #4]
  60              		.loc 1 56 0
  61 001e 70BD     		pop	{r4, r5, r6, pc}
  62              	.LVL5:
  63              	.L5:
  64              		.align	2
  65              	.L4:
  66 0020 00000000 		.word	.LANCHOR0
  67              		.cfi_endproc
  68              	.LFE0:
  69              		.size	packet_init, .-packet_init
  70              		.section	.text.packet_reset,"ax",%progbits
  71              		.align	1
  72              		.p2align 4,,15
  73              		.global	packet_reset
  74              		.syntax unified
  75              		.thumb
  76              		.thumb_func
  77              		.fpu fpv4-sp-d16
  78              		.type	packet_reset, %function
  79              	packet_reset:
  80              	.LFB1:
  81              		.loc 1 58 0
  82              		.cfi_startproc
  83              		@ args = 0, pretend = 0, frame = 0
  84              		@ frame_needed = 0, uses_anonymous_args = 0
  85              		@ link register save eliminated.
  86              	.LVL6:
  87              		.loc 1 59 0
  88 0000 044A     		ldr	r2, .L7
  89 0002 4FF48563 		mov	r3, #1064
  90 0006 03FB0020 		mla	r0, r3, r0, r2
  91              	.LVL7:
  92 000a 0023     		movs	r3, #0
  93              		.loc 1 60 0
  94 000c C0E90333 		strd	r3, r3, [r0, #12]
  95              		.loc 1 61 0
  96 0010 4361     		str	r3, [r0, #20]
  97              		.loc 1 62 0
  98 0012 7047     		bx	lr
  99              	.L8:
 100              		.align	2
 101              	.L7:
 102 0014 00000000 		.word	.LANCHOR0
 103              		.cfi_endproc
 104              	.LFE1:
 105              		.size	packet_reset, .-packet_reset
 106              		.section	.text.packet_send_packet,"ax",%progbits
 107              		.align	1
 108              		.p2align 4,,15
 109              		.global	packet_send_packet
 110              		.syntax unified
 111              		.thumb
 112              		.thumb_func
 113              		.fpu fpv4-sp-d16
 114              		.type	packet_send_packet, %function
ARM GAS  /tmp/ccCS9T6O.s 			page 3


 115              	packet_send_packet:
 116              	.LFB2:
 117              		.loc 1 64 0
 118              		.cfi_startproc
 119              		@ args = 0, pretend = 0, frame = 0
 120              		@ frame_needed = 0, uses_anonymous_args = 0
 121              	.LVL8:
 122              		.loc 1 65 0
 123 0000 4B1E     		subs	r3, r1, #1
 124 0002 B3F5007F 		cmp	r3, #512
 125 0006 35D2     		bcs	.L19
 126              	.LVL9:
 127              		.loc 1 64 0
 128 0008 2DE9F047 		push	{r4, r5, r6, r7, r8, r9, r10, lr}
 129              		.cfi_def_cfa_offset 32
 130              		.cfi_offset 4, -32
 131              		.cfi_offset 5, -28
 132              		.cfi_offset 6, -24
 133              		.cfi_offset 7, -20
 134              		.cfi_offset 8, -16
 135              		.cfi_offset 9, -12
 136              		.cfi_offset 10, -8
 137              		.cfi_offset 14, -4
 138              		.loc 1 73 0
 139 000c 1E4E     		ldr	r6, .L22
 140 000e 4FF48563 		mov	r3, #1064
 141              		.loc 1 72 0
 142 0012 FF29     		cmp	r1, #255
 143 0014 CCB2     		uxtb	r4, r1
 144              		.loc 1 73 0
 145 0016 03FB0263 		mla	r3, r3, r2, r6
 146              		.loc 1 72 0
 147 001a 2CD8     		bhi	.L12
 148              	.LVL10:
 149              		.loc 1 73 0
 150 001c 0225     		movs	r5, #2
 151              		.loc 1 74 0
 152 001e 83F82142 		strb	r4, [r3, #545]
 153              		.loc 1 73 0
 154 0022 83F82052 		strb	r5, [r3, #544]
 155              	.LVL11:
 156              	.L13:
 157              		.loc 1 86 0
 158 0026 4FF48569 		mov	r9, #1064
 159 002a 09FB02F9 		mul	r9, r9, r2
 160 002e 09F50878 		add	r8, r9, #544
 161 0032 0746     		mov	r7, r0
 162 0034 B044     		add	r8, r8, r6
 163 0036 0C46     		mov	r4, r1
 164 0038 0A46     		mov	r2, r1
 165              	.LVL12:
 166 003a 08EB0500 		add	r0, r8, r5
 167              	.LVL13:
 168 003e 3946     		mov	r1, r7
 169              	.LVL14:
 170 0040 FFF7FEFF 		bl	memcpy
 171              	.LVL15:
ARM GAS  /tmp/ccCS9T6O.s 			page 4


 172              		.loc 1 89 0
 173 0044 2146     		mov	r1, r4
 174 0046 3846     		mov	r0, r7
 175 0048 FFF7FEFF 		bl	crc16
 176              	.LVL16:
 177              		.loc 1 90 0
 178 004c 4E44     		add	r6, r6, r9
 179              		.loc 1 87 0
 180 004e 2919     		adds	r1, r5, r4
 181              	.LVL17:
 182              		.loc 1 90 0
 183 0050 7318     		adds	r3, r6, r1
 184              		.loc 1 94 0
 185 0052 7268     		ldr	r2, [r6, #4]
 186              		.loc 1 91 0
 187 0054 83F82102 		strb	r0, [r3, #545]
 188              		.loc 1 92 0
 189 0058 0324     		movs	r4, #3
 190              	.LVL18:
 191              		.loc 1 90 0
 192 005a 000A     		lsrs	r0, r0, #8
 193              	.LVL19:
 194 005c 83F82002 		strb	r0, [r3, #544]
 195              	.LVL20:
 196              		.loc 1 92 0
 197 0060 2144     		add	r1, r1, r4
 198              	.LVL21:
 199 0062 83F82242 		strb	r4, [r3, #546]
 200              		.loc 1 94 0
 201 0066 1AB1     		cbz	r2, .L9
 202              		.loc 1 95 0
 203 0068 4046     		mov	r0, r8
 204              		.loc 1 97 0
 205 006a BDE8F047 		pop	{r4, r5, r6, r7, r8, r9, r10, lr}
 206              		.cfi_remember_state
 207              		.cfi_restore 14
 208              		.cfi_restore 10
 209              		.cfi_restore 9
 210              		.cfi_restore 8
 211              		.cfi_restore 7
 212              		.cfi_restore 6
 213              		.cfi_restore 5
 214              		.cfi_restore 4
 215              		.cfi_def_cfa_offset 0
 216              	.LVL22:
 217              		.loc 1 95 0
 218 006e 1047     		bx	r2	@ indirect register sibling call
 219              	.LVL23:
 220              	.L9:
 221              		.cfi_restore_state
 222              		.loc 1 97 0
 223 0070 BDE8F087 		pop	{r4, r5, r6, r7, r8, r9, r10, pc}
 224              	.LVL24:
 225              	.L19:
 226              		.cfi_def_cfa_offset 0
 227              		.cfi_restore 4
 228              		.cfi_restore 5
ARM GAS  /tmp/ccCS9T6O.s 			page 5


 229              		.cfi_restore 6
 230              		.cfi_restore 7
 231              		.cfi_restore 8
 232              		.cfi_restore 9
 233              		.cfi_restore 10
 234              		.cfi_restore 14
 235 0074 7047     		bx	lr
 236              	.LVL25:
 237              	.L12:
 238              		.cfi_def_cfa_offset 32
 239              		.cfi_offset 4, -32
 240              		.cfi_offset 5, -28
 241              		.cfi_offset 6, -24
 242              		.cfi_offset 7, -20
 243              		.cfi_offset 8, -16
 244              		.cfi_offset 9, -12
 245              		.cfi_offset 10, -8
 246              		.cfi_offset 14, -4
 247              		.loc 1 77 0
 248 0076 0F0A     		lsrs	r7, r1, #8
 249              		.loc 1 76 0
 250 0078 0325     		movs	r5, #3
 251              		.loc 1 78 0
 252 007a 83F82242 		strb	r4, [r3, #546]
 253              		.loc 1 77 0
 254 007e 83F82172 		strb	r7, [r3, #545]
 255              		.loc 1 76 0
 256 0082 83F82052 		strb	r5, [r3, #544]
 257              	.LVL26:
 258 0086 CEE7     		b	.L13
 259              	.L23:
 260              		.align	2
 261              	.L22:
 262 0088 00000000 		.word	.LANCHOR0
 263              		.cfi_endproc
 264              	.LFE2:
 265              		.size	packet_send_packet, .-packet_send_packet
 266              		.section	.text.packet_timerfunc,"ax",%progbits
 267              		.align	1
 268              		.p2align 4,,15
 269              		.global	packet_timerfunc
 270              		.syntax unified
 271              		.thumb
 272              		.thumb_func
 273              		.fpu fpv4-sp-d16
 274              		.type	packet_timerfunc, %function
 275              	packet_timerfunc:
 276              	.LFB3:
 277              		.loc 1 103 0
 278              		.cfi_startproc
 279              		@ args = 0, pretend = 0, frame = 0
 280              		@ frame_needed = 0, uses_anonymous_args = 0
 281              		@ link register save eliminated.
 282              	.LVL27:
 283 0000 30B4     		push	{r4, r5}
 284              		.cfi_def_cfa_offset 8
 285              		.cfi_offset 4, -8
ARM GAS  /tmp/ccCS9T6O.s 			page 6


 286              		.cfi_offset 5, -4
 287 0002 0C4C     		ldr	r4, .L30
 288              	.LBB5:
 289              		.loc 1 104 0
 290 0004 0022     		movs	r2, #0
 291 0006 2146     		mov	r1, r4
 292              		.loc 1 105 0
 293 0008 4FF48565 		mov	r5, #1064
 294              	.LVL28:
 295              	.L27:
 296 000c 05FB02F0 		mul	r0, r5, r2
 297 0010 235A     		ldrh	r3, [r4, r0]
 298 0012 9BB2     		uxth	r3, r3
 299 0014 53B1     		cbz	r3, .L25
 300              		.loc 1 106 0
 301 0016 235A     		ldrh	r3, [r4, r0]
 302 0018 013B     		subs	r3, r3, #1
 303 001a 9BB2     		uxth	r3, r3
 304 001c 2352     		strh	r3, [r4, r0]	@ movhi
 305              	.L26:
 306              		.loc 1 104 0 discriminator 2
 307 001e 0132     		adds	r2, r2, #1
 308              	.LVL29:
 309 0020 032A     		cmp	r2, #3
 310 0022 01F58561 		add	r1, r1, #1064
 311 0026 F1D1     		bne	.L27
 312              	.LBE5:
 313              		.loc 1 111 0
 314 0028 30BC     		pop	{r4, r5}
 315              		.cfi_remember_state
 316              		.cfi_restore 5
 317              		.cfi_restore 4
 318              		.cfi_def_cfa_offset 0
 319 002a 7047     		bx	lr
 320              	.LVL30:
 321              	.L25:
 322              		.cfi_restore_state
 323              	.LBB8:
 324              	.LBB6:
 325              	.LBB7:
 326              		.loc 1 60 0
 327 002c C1E90333 		strd	r3, r3, [r1, #12]
 328              		.loc 1 61 0
 329 0030 4B61     		str	r3, [r1, #20]
 330 0032 F4E7     		b	.L26
 331              	.L31:
 332              		.align	2
 333              	.L30:
 334 0034 00000000 		.word	.LANCHOR0
 335              	.LBE7:
 336              	.LBE6:
 337              	.LBE8:
 338              		.cfi_endproc
 339              	.LFE3:
 340              		.size	packet_timerfunc, .-packet_timerfunc
 341              		.section	.text.packet_process_byte,"ax",%progbits
 342              		.align	1
ARM GAS  /tmp/ccCS9T6O.s 			page 7


 343              		.p2align 4,,15
 344              		.global	packet_process_byte
 345              		.syntax unified
 346              		.thumb
 347              		.thumb_func
 348              		.fpu fpv4-sp-d16
 349              		.type	packet_process_byte, %function
 350              	packet_process_byte:
 351              	.LFB4:
 352              		.loc 1 113 0
 353              		.cfi_startproc
 354              		@ args = 0, pretend = 0, frame = 24
 355              		@ frame_needed = 0, uses_anonymous_args = 0
 356              	.LVL31:
 357 0000 2DE9F04F 		push	{r4, r5, r6, r7, r8, r9, r10, fp, lr}
 358              		.cfi_def_cfa_offset 36
 359              		.cfi_offset 4, -36
 360              		.cfi_offset 5, -32
 361              		.cfi_offset 6, -28
 362              		.cfi_offset 7, -24
 363              		.cfi_offset 8, -20
 364              		.cfi_offset 9, -16
 365              		.cfi_offset 10, -12
 366              		.cfi_offset 11, -8
 367              		.cfi_offset 14, -4
 368              		.loc 1 116 0
 369 0004 4FF48563 		mov	r3, #1064
 370 0008 574E     		ldr	r6, .L68
 371 000a 03FB01F3 		mul	r3, r3, r1
 372 000e F518     		adds	r5, r6, r3
 373              		.loc 1 118 0
 374 0010 D5E903C2 		ldrd	ip, r2, [r5, #12]
 375              		.loc 1 116 0
 376 0014 4FF47A74 		mov	r4, #1000
 377 0018 F452     		strh	r4, [r6, r3]	@ movhi
 378              		.loc 1 118 0
 379 001a A2EB0C04 		sub	r4, r2, ip
 380              	.LVL32:
 381              		.loc 1 121 0
 382 001e B4F5027F 		cmp	r4, #520
 383              		.loc 1 113 0
 384 0022 87B0     		sub	sp, sp, #28
 385              		.cfi_def_cfa_offset 64
 386              		.loc 1 121 0
 387 0024 6FD2     		bcs	.L61
 388              		.loc 1 131 0
 389 0026 B2F5027F 		cmp	r2, #520
 390 002a 0746     		mov	r7, r0
 391 002c 0591     		str	r1, [sp, #20]
 392 002e 73D2     		bcs	.L62
 393              	.LVL33:
 394              	.L35:
 395              		.loc 1 140 0
 396 0030 059B     		ldr	r3, [sp, #20]
 397 0032 4FF48561 		mov	r1, #1064
 398 0036 01FB03F1 		mul	r1, r1, r3
 399 003a 7318     		adds	r3, r6, r1
ARM GAS  /tmp/ccCS9T6O.s 			page 8


 400 003c 9D18     		adds	r5, r3, r2
 401              		.loc 1 143 0
 402 003e 5869     		ldr	r0, [r3, #20]
 403              		.loc 1 140 0
 404 0040 2F76     		strb	r7, [r5, #24]
 405              	.LVL34:
 406 0042 0132     		adds	r2, r2, #1
 407              		.loc 1 143 0
 408 0044 0128     		cmp	r0, #1
 409              		.loc 1 140 0
 410 0046 1A61     		str	r2, [r3, #16]
 411              		.loc 1 143 0
 412 0048 04DD     		ble	.L63
 413              		.loc 1 144 0
 414 004a 0138     		subs	r0, r0, #1
 415 004c 5861     		str	r0, [r3, #20]
 416              	.LVL35:
 417              	.L32:
 418              		.loc 1 174 0
 419 004e 07B0     		add	sp, sp, #28
 420              		.cfi_remember_state
 421              		.cfi_def_cfa_offset 36
 422              		@ sp needed
 423 0050 BDE8F08F 		pop	{r4, r5, r6, r7, r8, r9, r10, fp, pc}
 424              	.LVL36:
 425              	.L63:
 426              		.cfi_restore_state
 427              	.LBB12:
 428              		.loc 1 151 0
 429 0054 9B46     		mov	fp, r3
 430 0056 01F11802 		add	r2, r1, #24
 431 005a 0492     		str	r2, [sp, #16]
 432 005c DB68     		ldr	r3, [r3, #12]
 433              	.LBB13:
 434              	.LBB14:
 435              		.loc 1 199 0
 436 005e 0BF11402 		add	r2, fp, #20
 437              	.LBE14:
 438              	.LBE13:
 439              	.LBE12:
 440              		.loc 1 141 0
 441 0062 0134     		adds	r4, r4, #1
 442              	.LVL37:
 443              	.LBB29:
 444              	.LBB22:
 445              	.LBB15:
 446              		.loc 1 199 0
 447 0064 0392     		str	r2, [sp, #12]
 448              	.LVL38:
 449              	.L37:
 450              	.LBE15:
 451              	.LBE22:
 452              		.loc 1 151 0
 453 0066 049A     		ldr	r2, [sp, #16]
 454 0068 DBF80890 		ldr	r9, [fp, #8]
 455 006c 1344     		add	r3, r3, r2
 456              	.LBB23:
ARM GAS  /tmp/ccCS9T6O.s 			page 9


 457              	.LBB16:
 458              		.loc 1 199 0
 459 006e 039A     		ldr	r2, [sp, #12]
 460 0070 1146     		mov	r1, r2
 461 0072 0022     		movs	r2, #0
 462 0074 0A60     		str	r2, [r1]
 463              	.LBE16:
 464              	.LBE23:
 465              		.loc 1 151 0
 466 0076 F718     		adds	r7, r6, r3
 467              	.LVL39:
 468              	.LBB24:
 469              	.LBB17:
 470              		.loc 1 201 0
 471 0078 002C     		cmp	r4, #0
 472 007a 58D0     		beq	.L64
 473              		.loc 1 206 0
 474 007c F05C     		ldrb	r0, [r6, r3]	@ zero_extendqisi2
 475              	.LVL40:
 476              		.loc 1 222 0
 477 007e 0228     		cmp	r0, #2
 478 0080 35D0     		beq	.L39
 479 0082 0328     		cmp	r0, #3
 480 0084 38D1     		bne	.L40
 481              		.loc 1 227 0
 482 0086 022C     		cmp	r4, #2
 483 0088 6BD9     		bls	.L65
 484              	.LVL41:
 485 008a B7F80150 		ldrh	r5, [r7, #1]	@ unaligned
 486 008e 6DBA     		rev16	r5, r5
 487 0090 ADB2     		uxth	r5, r5
 488              	.LVL42:
 489              		.loc 1 245 0
 490 0092 A5F1FF03 		sub	r3, r5, #255
 491 0096 B3F5817F 		cmp	r3, #258
 492 009a 2DD2     		bcs	.L40
 493              	.LVL43:
 494              	.L42:
 495              		.loc 1 265 0
 496 009c 00EB0508 		add	r8, r0, r5
 497 00a0 08F1030A 		add	r10, r8, #3
 498 00a4 5445     		cmp	r4, r10
 499 00a6 49D3     		bcc	.L66
 500              		.loc 1 271 0
 501 00a8 07EB0803 		add	r3, r7, r8
 502 00ac 0193     		str	r3, [sp, #4]
 503 00ae 9A78     		ldrb	r2, [r3, #2]	@ zero_extendqisi2
 504 00b0 032A     		cmp	r2, #3
 505 00b2 21D1     		bne	.L40
 506              		.loc 1 275 0
 507 00b4 3A18     		adds	r2, r7, r0
 508 00b6 2946     		mov	r1, r5
 509 00b8 1046     		mov	r0, r2
 510              	.LVL44:
 511 00ba 0292     		str	r2, [sp, #8]
 512 00bc FFF7FEFF 		bl	crc16
 513              	.LVL45:
ARM GAS  /tmp/ccCS9T6O.s 			page 10


 514              		.loc 1 277 0
 515 00c0 019B     		ldr	r3, [sp, #4]
 516              		.loc 1 276 0
 517 00c2 17F80810 		ldrb	r1, [r7, r8]	@ zero_extendqisi2
 518              		.loc 1 277 0
 519 00c6 5B78     		ldrb	r3, [r3, #1]	@ zero_extendqisi2
 520              		.loc 1 279 0
 521 00c8 43EA0123 		orr	r3, r3, r1, lsl #8
 522 00cc 9842     		cmp	r0, r3
 523 00ce 13D1     		bne	.L40
 524              		.loc 1 280 0
 525 00d0 B9F1000F 		cmp	r9, #0
 526 00d4 03D0     		beq	.L44
 527              		.loc 1 281 0
 528 00d6 029A     		ldr	r2, [sp, #8]
 529 00d8 2946     		mov	r1, r5
 530 00da 1046     		mov	r0, r2
 531              	.LVL46:
 532 00dc C847     		blx	r9
 533              	.LVL47:
 534              	.L44:
 535              	.LBE17:
 536              	.LBE24:
 537              		.loc 1 161 0
 538 00de DBF80C30 		ldr	r3, [fp, #12]
 539 00e2 5344     		add	r3, r3, r10
 540              		.loc 1 160 0
 541 00e4 A4EB0A04 		sub	r4, r4, r10
 542              	.LVL48:
 543              		.loc 1 161 0
 544 00e8 CBF80C30 		str	r3, [fp, #12]
 545 00ec BBE7     		b	.L37
 546              	.LVL49:
 547              	.L39:
 548              	.LBB25:
 549              	.LBB18:
 550              		.loc 1 227 0
 551 00ee 012C     		cmp	r4, #1
 552 00f0 2DD9     		bls	.L67
 553              	.LVL50:
 554              		.loc 1 235 0
 555 00f2 7D78     		ldrb	r5, [r7, #1]	@ zero_extendqisi2
 556              	.LVL51:
 557              		.loc 1 238 0
 558 00f4 002D     		cmp	r5, #0
 559 00f6 D1D1     		bne	.L42
 560              	.LVL52:
 561              	.L40:
 562              	.LBE18:
 563              	.LBE25:
 564              		.loc 1 164 0
 565 00f8 DBF80C30 		ldr	r3, [fp, #12]
 566 00fc 0133     		adds	r3, r3, #1
 567              		.loc 1 165 0
 568 00fe 013C     		subs	r4, r4, #1
 569              	.LVL53:
 570              		.loc 1 164 0
ARM GAS  /tmp/ccCS9T6O.s 			page 11


 571 0100 CBF80C30 		str	r3, [fp, #12]
 572 0104 AFE7     		b	.L37
 573              	.LVL54:
 574              	.L61:
 575              	.LBE29:
 576              		.loc 1 123 0
 577 0106 0023     		movs	r3, #0
 578              		.loc 1 125 0
 579 0108 0122     		movs	r2, #1
 580 010a 2876     		strb	r0, [r5, #24]
 581              		.loc 1 123 0
 582 010c EB60     		str	r3, [r5, #12]
 583              		.loc 1 125 0
 584 010e C5E90423 		strd	r2, r3, [r5, #16]
 585              		.loc 1 174 0
 586 0112 07B0     		add	sp, sp, #28
 587              		.cfi_remember_state
 588              		.cfi_def_cfa_offset 36
 589              		@ sp needed
 590 0114 BDE8F08F 		pop	{r4, r5, r6, r7, r8, r9, r10, fp, pc}
 591              	.LVL55:
 592              	.L62:
 593              		.cfi_restore_state
 594              		.loc 1 132 0
 595 0118 1833     		adds	r3, r3, #24
 596 011a F018     		adds	r0, r6, r3
 597              	.LVL56:
 598 011c 2246     		mov	r2, r4
 599 011e 00EB0C01 		add	r1, r0, ip
 600              	.LVL57:
 601 0122 FFF7FEFF 		bl	memmove
 602              	.LVL58:
 603              		.loc 1 136 0
 604 0126 0023     		movs	r3, #0
 605 0128 EB60     		str	r3, [r5, #12]
 606 012a 2246     		mov	r2, r4
 607 012c 80E7     		b	.L35
 608              	.LVL59:
 609              	.L64:
 610              	.LBB30:
 611              	.LBB26:
 612              	.LBB19:
 613              		.loc 1 202 0
 614 012e 0123     		movs	r3, #1
 615              	.LBE19:
 616              	.LBE26:
 617              	.LBE30:
 618              		.loc 1 172 0
 619 0130 CBE90344 		strd	r4, r4, [fp, #12]
 620              	.LBB31:
 621              	.LBB27:
 622              	.LBB20:
 623              		.loc 1 202 0
 624 0134 0B60     		str	r3, [r1]
 625              	.LVL60:
 626              	.LBE20:
 627              	.LBE27:
ARM GAS  /tmp/ccCS9T6O.s 			page 12


 628              	.LBE31:
 629              		.loc 1 174 0
 630 0136 07B0     		add	sp, sp, #28
 631              		.cfi_remember_state
 632              		.cfi_def_cfa_offset 36
 633              		@ sp needed
 634 0138 BDE8F08F 		pop	{r4, r5, r6, r7, r8, r9, r10, fp, pc}
 635              	.LVL61:
 636              	.L66:
 637              		.cfi_restore_state
 638              	.LBB32:
 639              	.LBB28:
 640              	.LBB21:
 641              		.loc 1 266 0
 642 013c 059A     		ldr	r2, [sp, #20]
 643 013e 4FF48563 		mov	r3, #1064
 644 0142 03FB0266 		mla	r6, r3, r2, r6
 645 0146 AAEB0404 		sub	r4, r10, r4
 646              	.LVL62:
 647 014a 7461     		str	r4, [r6, #20]
 648              	.LVL63:
 649 014c 7FE7     		b	.L32
 650              	.LVL64:
 651              	.L67:
 652 014e 0546     		mov	r5, r0
 653              		.loc 1 227 0
 654 0150 0124     		movs	r4, #1
 655              	.LVL65:
 656              	.L46:
 657              		.loc 1 228 0
 658 0152 059A     		ldr	r2, [sp, #20]
 659 0154 4FF48563 		mov	r3, #1064
 660 0158 03FB0266 		mla	r6, r3, r2, r6
 661 015c 2C1B     		subs	r4, r5, r4
 662 015e 7461     		str	r4, [r6, #20]
 663              	.LVL66:
 664 0160 75E7     		b	.L32
 665              	.LVL67:
 666              	.L65:
 667 0162 0546     		mov	r5, r0
 668 0164 F5E7     		b	.L46
 669              	.L69:
 670 0166 00BF     		.align	2
 671              	.L68:
 672 0168 00000000 		.word	.LANCHOR0
 673              	.LBE21:
 674              	.LBE28:
 675              	.LBE32:
 676              		.cfi_endproc
 677              	.LFE4:
 678              		.size	packet_process_byte, .-packet_process_byte
 679              		.section	.bss.m_handler_states,"aw",%nobits
 680              		.align	2
 681              		.set	.LANCHOR0,. + 0
 682              		.type	m_handler_states, %object
 683              		.size	m_handler_states, 3192
 684              	m_handler_states:
ARM GAS  /tmp/ccCS9T6O.s 			page 13


 685 0000 00000000 		.space	3192
 685      00000000 
 685      00000000 
 685      00000000 
 685      00000000 
 686              		.text
 687              	.Letext0:
 688              		.file 2 "/usr/arm-none-eabi/include/machine/_default_types.h"
 689              		.file 3 "/usr/arm-none-eabi/include/sys/lock.h"
 690              		.file 4 "/usr/arm-none-eabi/include/sys/_types.h"
 691              		.file 5 "/usr/lib/gcc/arm-none-eabi/7.3.1/include/stddef.h"
 692              		.file 6 "/usr/arm-none-eabi/include/sys/reent.h"
 693              		.file 7 "/usr/arm-none-eabi/include/sys/_stdint.h"
 694              		.file 8 "crc.h"
 695              		.file 9 "/usr/arm-none-eabi/include/string.h"
 696              		.file 10 "<built-in>"
 697              		.section	.debug_info,"",%progbits
 698              	.Ldebug_info0:
 699 0000 EB0C0000 		.4byte	0xceb
 700 0004 0400     		.2byte	0x4
 701 0006 00000000 		.4byte	.Ldebug_abbrev0
 702 000a 04       		.byte	0x4
 703 000b 01       		.uleb128 0x1
 704 000c 50000000 		.4byte	.LASF158
 705 0010 0C       		.byte	0xc
 706 0011 78050000 		.4byte	.LASF159
 707 0015 BF030000 		.4byte	.LASF160
 708 0019 90000000 		.4byte	.Ldebug_ranges0+0x90
 709 001d 00000000 		.4byte	0
 710 0021 00000000 		.4byte	.Ldebug_line0
 711 0025 02       		.uleb128 0x2
 712 0026 04       		.byte	0x4
 713 0027 05       		.byte	0x5
 714 0028 696E7400 		.ascii	"int\000"
 715 002c 03       		.uleb128 0x3
 716 002d 04       		.byte	0x4
 717 002e 07       		.byte	0x7
 718 002f 33030000 		.4byte	.LASF0
 719 0033 03       		.uleb128 0x3
 720 0034 01       		.byte	0x1
 721 0035 06       		.byte	0x6
 722 0036 FE010000 		.4byte	.LASF1
 723 003a 04       		.uleb128 0x4
 724 003b 40000000 		.4byte	.LASF9
 725 003f 02       		.byte	0x2
 726 0040 2B       		.byte	0x2b
 727 0041 45000000 		.4byte	0x45
 728 0045 03       		.uleb128 0x3
 729 0046 01       		.byte	0x1
 730 0047 08       		.byte	0x8
 731 0048 DE040000 		.4byte	.LASF2
 732 004c 03       		.uleb128 0x3
 733 004d 02       		.byte	0x2
 734 004e 05       		.byte	0x5
 735 004f FA040000 		.4byte	.LASF3
 736 0053 03       		.uleb128 0x3
 737 0054 02       		.byte	0x2
ARM GAS  /tmp/ccCS9T6O.s 			page 14


 738 0055 07       		.byte	0x7
 739 0056 A3030000 		.4byte	.LASF4
 740 005a 05       		.uleb128 0x5
 741 005b 53000000 		.4byte	0x53
 742 005f 03       		.uleb128 0x3
 743 0060 04       		.byte	0x4
 744 0061 05       		.byte	0x5
 745 0062 43020000 		.4byte	.LASF5
 746 0066 03       		.uleb128 0x3
 747 0067 04       		.byte	0x4
 748 0068 07       		.byte	0x7
 749 0069 6B030000 		.4byte	.LASF6
 750 006d 03       		.uleb128 0x3
 751 006e 08       		.byte	0x8
 752 006f 05       		.byte	0x5
 753 0070 F0010000 		.4byte	.LASF7
 754 0074 03       		.uleb128 0x3
 755 0075 08       		.byte	0x8
 756 0076 07       		.byte	0x7
 757 0077 A5010000 		.4byte	.LASF8
 758 007b 04       		.uleb128 0x4
 759 007c 05040000 		.4byte	.LASF10
 760 0080 03       		.byte	0x3
 761 0081 22       		.byte	0x22
 762 0082 86000000 		.4byte	0x86
 763 0086 06       		.uleb128 0x6
 764 0087 04       		.byte	0x4
 765 0088 8C000000 		.4byte	0x8c
 766 008c 07       		.uleb128 0x7
 767 008d D4050000 		.4byte	.LASF117
 768 0091 04       		.uleb128 0x4
 769 0092 87040000 		.4byte	.LASF11
 770 0096 04       		.byte	0x4
 771 0097 2C       		.byte	0x2c
 772 0098 5F000000 		.4byte	0x5f
 773 009c 04       		.uleb128 0x4
 774 009d F5050000 		.4byte	.LASF12
 775 00a1 04       		.byte	0x4
 776 00a2 72       		.byte	0x72
 777 00a3 5F000000 		.4byte	0x5f
 778 00a7 08       		.uleb128 0x8
 779 00a8 0D040000 		.4byte	.LASF13
 780 00ac 05       		.byte	0x5
 781 00ad 6501     		.2byte	0x165
 782 00af 2C000000 		.4byte	0x2c
 783 00b3 09       		.uleb128 0x9
 784 00b4 04       		.byte	0x4
 785 00b5 04       		.byte	0x4
 786 00b6 A6       		.byte	0xa6
 787 00b7 D2000000 		.4byte	0xd2
 788 00bb 0A       		.uleb128 0xa
 789 00bc F8030000 		.4byte	.LASF14
 790 00c0 04       		.byte	0x4
 791 00c1 A8       		.byte	0xa8
 792 00c2 A7000000 		.4byte	0xa7
 793 00c6 0A       		.uleb128 0xa
 794 00c7 40030000 		.4byte	.LASF15
ARM GAS  /tmp/ccCS9T6O.s 			page 15


 795 00cb 04       		.byte	0x4
 796 00cc A9       		.byte	0xa9
 797 00cd D2000000 		.4byte	0xd2
 798 00d1 00       		.byte	0
 799 00d2 0B       		.uleb128 0xb
 800 00d3 45000000 		.4byte	0x45
 801 00d7 E2000000 		.4byte	0xe2
 802 00db 0C       		.uleb128 0xc
 803 00dc 2C000000 		.4byte	0x2c
 804 00e0 03       		.byte	0x3
 805 00e1 00       		.byte	0
 806 00e2 0D       		.uleb128 0xd
 807 00e3 08       		.byte	0x8
 808 00e4 04       		.byte	0x4
 809 00e5 A3       		.byte	0xa3
 810 00e6 03010000 		.4byte	0x103
 811 00ea 0E       		.uleb128 0xe
 812 00eb CC050000 		.4byte	.LASF16
 813 00ef 04       		.byte	0x4
 814 00f0 A5       		.byte	0xa5
 815 00f1 25000000 		.4byte	0x25
 816 00f5 00       		.byte	0
 817 00f6 0E       		.uleb128 0xe
 818 00f7 DB050000 		.4byte	.LASF17
 819 00fb 04       		.byte	0x4
 820 00fc AA       		.byte	0xaa
 821 00fd B3000000 		.4byte	0xb3
 822 0101 04       		.byte	0x4
 823 0102 00       		.byte	0
 824 0103 04       		.uleb128 0x4
 825 0104 22050000 		.4byte	.LASF18
 826 0108 04       		.byte	0x4
 827 0109 AB       		.byte	0xab
 828 010a E2000000 		.4byte	0xe2
 829 010e 04       		.uleb128 0x4
 830 010f DD020000 		.4byte	.LASF19
 831 0113 04       		.byte	0x4
 832 0114 AF       		.byte	0xaf
 833 0115 7B000000 		.4byte	0x7b
 834 0119 0F       		.uleb128 0xf
 835 011a 04       		.byte	0x4
 836 011b 06       		.uleb128 0x6
 837 011c 04       		.byte	0x4
 838 011d 21010000 		.4byte	0x121
 839 0121 03       		.uleb128 0x3
 840 0122 01       		.byte	0x1
 841 0123 08       		.byte	0x8
 842 0124 04060000 		.4byte	.LASF20
 843 0128 10       		.uleb128 0x10
 844 0129 21010000 		.4byte	0x121
 845 012d 04       		.uleb128 0x4
 846 012e 47060000 		.4byte	.LASF21
 847 0132 06       		.byte	0x6
 848 0133 16       		.byte	0x16
 849 0134 66000000 		.4byte	0x66
 850 0138 11       		.uleb128 0x11
 851 0139 EE020000 		.4byte	.LASF26
ARM GAS  /tmp/ccCS9T6O.s 			page 16


 852 013d 18       		.byte	0x18
 853 013e 06       		.byte	0x6
 854 013f 2F       		.byte	0x2f
 855 0140 8B010000 		.4byte	0x18b
 856 0144 0E       		.uleb128 0xe
 857 0145 26060000 		.4byte	.LASF22
 858 0149 06       		.byte	0x6
 859 014a 31       		.byte	0x31
 860 014b 8B010000 		.4byte	0x18b
 861 014f 00       		.byte	0
 862 0150 12       		.uleb128 0x12
 863 0151 5F6B00   		.ascii	"_k\000"
 864 0154 06       		.byte	0x6
 865 0155 32       		.byte	0x32
 866 0156 25000000 		.4byte	0x25
 867 015a 04       		.byte	0x4
 868 015b 0E       		.uleb128 0xe
 869 015c AC050000 		.4byte	.LASF23
 870 0160 06       		.byte	0x6
 871 0161 32       		.byte	0x32
 872 0162 25000000 		.4byte	0x25
 873 0166 08       		.byte	0x8
 874 0167 0E       		.uleb128 0xe
 875 0168 D7020000 		.4byte	.LASF24
 876 016c 06       		.byte	0x6
 877 016d 32       		.byte	0x32
 878 016e 25000000 		.4byte	0x25
 879 0172 0C       		.byte	0xc
 880 0173 0E       		.uleb128 0xe
 881 0174 9A060000 		.4byte	.LASF25
 882 0178 06       		.byte	0x6
 883 0179 32       		.byte	0x32
 884 017a 25000000 		.4byte	0x25
 885 017e 10       		.byte	0x10
 886 017f 12       		.uleb128 0x12
 887 0180 5F7800   		.ascii	"_x\000"
 888 0183 06       		.byte	0x6
 889 0184 33       		.byte	0x33
 890 0185 91010000 		.4byte	0x191
 891 0189 14       		.byte	0x14
 892 018a 00       		.byte	0
 893 018b 06       		.uleb128 0x6
 894 018c 04       		.byte	0x4
 895 018d 38010000 		.4byte	0x138
 896 0191 0B       		.uleb128 0xb
 897 0192 2D010000 		.4byte	0x12d
 898 0196 A1010000 		.4byte	0x1a1
 899 019a 0C       		.uleb128 0xc
 900 019b 2C000000 		.4byte	0x2c
 901 019f 00       		.byte	0
 902 01a0 00       		.byte	0
 903 01a1 11       		.uleb128 0x11
 904 01a2 15030000 		.4byte	.LASF27
 905 01a6 24       		.byte	0x24
 906 01a7 06       		.byte	0x6
 907 01a8 37       		.byte	0x37
 908 01a9 1A020000 		.4byte	0x21a
ARM GAS  /tmp/ccCS9T6O.s 			page 17


 909 01ad 0E       		.uleb128 0xe
 910 01ae E7010000 		.4byte	.LASF28
 911 01b2 06       		.byte	0x6
 912 01b3 39       		.byte	0x39
 913 01b4 25000000 		.4byte	0x25
 914 01b8 00       		.byte	0
 915 01b9 0E       		.uleb128 0xe
 916 01ba 09060000 		.4byte	.LASF29
 917 01be 06       		.byte	0x6
 918 01bf 3A       		.byte	0x3a
 919 01c0 25000000 		.4byte	0x25
 920 01c4 04       		.byte	0x4
 921 01c5 0E       		.uleb128 0xe
 922 01c6 16020000 		.4byte	.LASF30
 923 01ca 06       		.byte	0x6
 924 01cb 3B       		.byte	0x3b
 925 01cc 25000000 		.4byte	0x25
 926 01d0 08       		.byte	0x8
 927 01d1 0E       		.uleb128 0xe
 928 01d2 48070000 		.4byte	.LASF31
 929 01d6 06       		.byte	0x6
 930 01d7 3C       		.byte	0x3c
 931 01d8 25000000 		.4byte	0x25
 932 01dc 0C       		.byte	0xc
 933 01dd 0E       		.uleb128 0xe
 934 01de 6B040000 		.4byte	.LASF32
 935 01e2 06       		.byte	0x6
 936 01e3 3D       		.byte	0x3d
 937 01e4 25000000 		.4byte	0x25
 938 01e8 10       		.byte	0x10
 939 01e9 0E       		.uleb128 0xe
 940 01ea 46040000 		.4byte	.LASF33
 941 01ee 06       		.byte	0x6
 942 01ef 3E       		.byte	0x3e
 943 01f0 25000000 		.4byte	0x25
 944 01f4 14       		.byte	0x14
 945 01f5 0E       		.uleb128 0xe
 946 01f6 9F060000 		.4byte	.LASF34
 947 01fa 06       		.byte	0x6
 948 01fb 3F       		.byte	0x3f
 949 01fc 25000000 		.4byte	0x25
 950 0200 18       		.byte	0x18
 951 0201 0E       		.uleb128 0xe
 952 0202 04050000 		.4byte	.LASF35
 953 0206 06       		.byte	0x6
 954 0207 40       		.byte	0x40
 955 0208 25000000 		.4byte	0x25
 956 020c 1C       		.byte	0x1c
 957 020d 0E       		.uleb128 0xe
 958 020e F5060000 		.4byte	.LASF36
 959 0212 06       		.byte	0x6
 960 0213 41       		.byte	0x41
 961 0214 25000000 		.4byte	0x25
 962 0218 20       		.byte	0x20
 963 0219 00       		.byte	0
 964 021a 13       		.uleb128 0x13
 965 021b 25020000 		.4byte	.LASF37
ARM GAS  /tmp/ccCS9T6O.s 			page 18


 966 021f 0801     		.2byte	0x108
 967 0221 06       		.byte	0x6
 968 0222 4A       		.byte	0x4a
 969 0223 5A020000 		.4byte	0x25a
 970 0227 0E       		.uleb128 0xe
 971 0228 B1020000 		.4byte	.LASF38
 972 022c 06       		.byte	0x6
 973 022d 4B       		.byte	0x4b
 974 022e 5A020000 		.4byte	0x25a
 975 0232 00       		.byte	0
 976 0233 0E       		.uleb128 0xe
 977 0234 00000000 		.4byte	.LASF39
 978 0238 06       		.byte	0x6
 979 0239 4C       		.byte	0x4c
 980 023a 5A020000 		.4byte	0x25a
 981 023e 80       		.byte	0x80
 982 023f 14       		.uleb128 0x14
 983 0240 39060000 		.4byte	.LASF40
 984 0244 06       		.byte	0x6
 985 0245 4E       		.byte	0x4e
 986 0246 2D010000 		.4byte	0x12d
 987 024a 0001     		.2byte	0x100
 988 024c 14       		.uleb128 0x14
 989 024d 53020000 		.4byte	.LASF41
 990 0251 06       		.byte	0x6
 991 0252 51       		.byte	0x51
 992 0253 2D010000 		.4byte	0x12d
 993 0257 0401     		.2byte	0x104
 994 0259 00       		.byte	0
 995 025a 0B       		.uleb128 0xb
 996 025b 19010000 		.4byte	0x119
 997 025f 6A020000 		.4byte	0x26a
 998 0263 0C       		.uleb128 0xc
 999 0264 2C000000 		.4byte	0x2c
 1000 0268 1F       		.byte	0x1f
 1001 0269 00       		.byte	0
 1002 026a 13       		.uleb128 0x13
 1003 026b 74040000 		.4byte	.LASF42
 1004 026f 9001     		.2byte	0x190
 1005 0271 06       		.byte	0x6
 1006 0272 5D       		.byte	0x5d
 1007 0273 A8020000 		.4byte	0x2a8
 1008 0277 0E       		.uleb128 0xe
 1009 0278 26060000 		.4byte	.LASF22
 1010 027c 06       		.byte	0x6
 1011 027d 5E       		.byte	0x5e
 1012 027e A8020000 		.4byte	0x2a8
 1013 0282 00       		.byte	0
 1014 0283 0E       		.uleb128 0xe
 1015 0284 73050000 		.4byte	.LASF43
 1016 0288 06       		.byte	0x6
 1017 0289 5F       		.byte	0x5f
 1018 028a 25000000 		.4byte	0x25
 1019 028e 04       		.byte	0x4
 1020 028f 0E       		.uleb128 0xe
 1021 0290 BF020000 		.4byte	.LASF44
 1022 0294 06       		.byte	0x6
ARM GAS  /tmp/ccCS9T6O.s 			page 19


 1023 0295 61       		.byte	0x61
 1024 0296 AE020000 		.4byte	0x2ae
 1025 029a 08       		.byte	0x8
 1026 029b 0E       		.uleb128 0xe
 1027 029c 25020000 		.4byte	.LASF37
 1028 02a0 06       		.byte	0x6
 1029 02a1 62       		.byte	0x62
 1030 02a2 1A020000 		.4byte	0x21a
 1031 02a6 88       		.byte	0x88
 1032 02a7 00       		.byte	0
 1033 02a8 06       		.uleb128 0x6
 1034 02a9 04       		.byte	0x4
 1035 02aa 6A020000 		.4byte	0x26a
 1036 02ae 0B       		.uleb128 0xb
 1037 02af BE020000 		.4byte	0x2be
 1038 02b3 BE020000 		.4byte	0x2be
 1039 02b7 0C       		.uleb128 0xc
 1040 02b8 2C000000 		.4byte	0x2c
 1041 02bc 1F       		.byte	0x1f
 1042 02bd 00       		.byte	0
 1043 02be 06       		.uleb128 0x6
 1044 02bf 04       		.byte	0x4
 1045 02c0 C4020000 		.4byte	0x2c4
 1046 02c4 15       		.uleb128 0x15
 1047 02c5 11       		.uleb128 0x11
 1048 02c6 0E050000 		.4byte	.LASF45
 1049 02ca 08       		.byte	0x8
 1050 02cb 06       		.byte	0x6
 1051 02cc 75       		.byte	0x75
 1052 02cd EA020000 		.4byte	0x2ea
 1053 02d1 0E       		.uleb128 0xe
 1054 02d2 10020000 		.4byte	.LASF46
 1055 02d6 06       		.byte	0x6
 1056 02d7 76       		.byte	0x76
 1057 02d8 EA020000 		.4byte	0x2ea
 1058 02dc 00       		.byte	0
 1059 02dd 0E       		.uleb128 0xe
 1060 02de 16000000 		.4byte	.LASF47
 1061 02e2 06       		.byte	0x6
 1062 02e3 77       		.byte	0x77
 1063 02e4 25000000 		.4byte	0x25
 1064 02e8 04       		.byte	0x4
 1065 02e9 00       		.byte	0
 1066 02ea 06       		.uleb128 0x6
 1067 02eb 04       		.byte	0x4
 1068 02ec 45000000 		.4byte	0x45
 1069 02f0 11       		.uleb128 0x11
 1070 02f1 2D050000 		.4byte	.LASF48
 1071 02f5 68       		.byte	0x68
 1072 02f6 06       		.byte	0x6
 1073 02f7 B5       		.byte	0xb5
 1074 02f8 1A040000 		.4byte	0x41a
 1075 02fc 12       		.uleb128 0x12
 1076 02fd 5F7000   		.ascii	"_p\000"
 1077 0300 06       		.byte	0x6
 1078 0301 B6       		.byte	0xb6
 1079 0302 EA020000 		.4byte	0x2ea
ARM GAS  /tmp/ccCS9T6O.s 			page 20


 1080 0306 00       		.byte	0
 1081 0307 12       		.uleb128 0x12
 1082 0308 5F7200   		.ascii	"_r\000"
 1083 030b 06       		.byte	0x6
 1084 030c B7       		.byte	0xb7
 1085 030d 25000000 		.4byte	0x25
 1086 0311 04       		.byte	0x4
 1087 0312 12       		.uleb128 0x12
 1088 0313 5F7700   		.ascii	"_w\000"
 1089 0316 06       		.byte	0x6
 1090 0317 B8       		.byte	0xb8
 1091 0318 25000000 		.4byte	0x25
 1092 031c 08       		.byte	0x8
 1093 031d 0E       		.uleb128 0xe
 1094 031e 4C020000 		.4byte	.LASF49
 1095 0322 06       		.byte	0x6
 1096 0323 B9       		.byte	0xb9
 1097 0324 4C000000 		.4byte	0x4c
 1098 0328 0C       		.byte	0xc
 1099 0329 0E       		.uleb128 0xe
 1100 032a 7D030000 		.4byte	.LASF50
 1101 032e 06       		.byte	0x6
 1102 032f BA       		.byte	0xba
 1103 0330 4C000000 		.4byte	0x4c
 1104 0334 0E       		.byte	0xe
 1105 0335 12       		.uleb128 0x12
 1106 0336 5F626600 		.ascii	"_bf\000"
 1107 033a 06       		.byte	0x6
 1108 033b BB       		.byte	0xbb
 1109 033c C5020000 		.4byte	0x2c5
 1110 0340 10       		.byte	0x10
 1111 0341 0E       		.uleb128 0xe
 1112 0342 BC010000 		.4byte	.LASF51
 1113 0346 06       		.byte	0x6
 1114 0347 BC       		.byte	0xbc
 1115 0348 25000000 		.4byte	0x25
 1116 034c 18       		.byte	0x18
 1117 034d 0E       		.uleb128 0xe
 1118 034e 33020000 		.4byte	.LASF52
 1119 0352 06       		.byte	0x6
 1120 0353 C3       		.byte	0xc3
 1121 0354 19010000 		.4byte	0x119
 1122 0358 1C       		.byte	0x1c
 1123 0359 0E       		.uleb128 0xe
 1124 035a 05030000 		.4byte	.LASF53
 1125 035e 06       		.byte	0x6
 1126 035f C5       		.byte	0xc5
 1127 0360 75050000 		.4byte	0x575
 1128 0364 20       		.byte	0x20
 1129 0365 0E       		.uleb128 0xe
 1130 0366 3F040000 		.4byte	.LASF54
 1131 036a 06       		.byte	0x6
 1132 036b C7       		.byte	0xc7
 1133 036c 9F050000 		.4byte	0x59f
 1134 0370 24       		.byte	0x24
 1135 0371 0E       		.uleb128 0xe
 1136 0372 E3050000 		.4byte	.LASF55
ARM GAS  /tmp/ccCS9T6O.s 			page 21


 1137 0376 06       		.byte	0x6
 1138 0377 CA       		.byte	0xca
 1139 0378 C3050000 		.4byte	0x5c3
 1140 037c 28       		.byte	0x28
 1141 037d 0E       		.uleb128 0xe
 1142 037e 0F070000 		.4byte	.LASF56
 1143 0382 06       		.byte	0x6
 1144 0383 CB       		.byte	0xcb
 1145 0384 DD050000 		.4byte	0x5dd
 1146 0388 2C       		.byte	0x2c
 1147 0389 12       		.uleb128 0x12
 1148 038a 5F756200 		.ascii	"_ub\000"
 1149 038e 06       		.byte	0x6
 1150 038f CE       		.byte	0xce
 1151 0390 C5020000 		.4byte	0x2c5
 1152 0394 30       		.byte	0x30
 1153 0395 12       		.uleb128 0x12
 1154 0396 5F757000 		.ascii	"_up\000"
 1155 039a 06       		.byte	0x6
 1156 039b CF       		.byte	0xcf
 1157 039c EA020000 		.4byte	0x2ea
 1158 03a0 38       		.byte	0x38
 1159 03a1 12       		.uleb128 0x12
 1160 03a2 5F757200 		.ascii	"_ur\000"
 1161 03a6 06       		.byte	0x6
 1162 03a7 D0       		.byte	0xd0
 1163 03a8 25000000 		.4byte	0x25
 1164 03ac 3C       		.byte	0x3c
 1165 03ad 0E       		.uleb128 0xe
 1166 03ae 0A020000 		.4byte	.LASF57
 1167 03b2 06       		.byte	0x6
 1168 03b3 D3       		.byte	0xd3
 1169 03b4 E3050000 		.4byte	0x5e3
 1170 03b8 40       		.byte	0x40
 1171 03b9 0E       		.uleb128 0xe
 1172 03ba E7060000 		.4byte	.LASF58
 1173 03be 06       		.byte	0x6
 1174 03bf D4       		.byte	0xd4
 1175 03c0 F3050000 		.4byte	0x5f3
 1176 03c4 43       		.byte	0x43
 1177 03c5 12       		.uleb128 0x12
 1178 03c6 5F6C6200 		.ascii	"_lb\000"
 1179 03ca 06       		.byte	0x6
 1180 03cb D7       		.byte	0xd7
 1181 03cc C5020000 		.4byte	0x2c5
 1182 03d0 44       		.byte	0x44
 1183 03d1 0E       		.uleb128 0xe
 1184 03d2 62020000 		.4byte	.LASF59
 1185 03d6 06       		.byte	0x6
 1186 03d7 DA       		.byte	0xda
 1187 03d8 25000000 		.4byte	0x25
 1188 03dc 4C       		.byte	0x4c
 1189 03dd 0E       		.uleb128 0xe
 1190 03de 73020000 		.4byte	.LASF60
 1191 03e2 06       		.byte	0x6
 1192 03e3 DB       		.byte	0xdb
 1193 03e4 91000000 		.4byte	0x91
ARM GAS  /tmp/ccCS9T6O.s 			page 22


 1194 03e8 50       		.byte	0x50
 1195 03e9 0E       		.uleb128 0xe
 1196 03ea 4A000000 		.4byte	.LASF61
 1197 03ee 06       		.byte	0x6
 1198 03ef DE       		.byte	0xde
 1199 03f0 38040000 		.4byte	0x438
 1200 03f4 54       		.byte	0x54
 1201 03f5 0E       		.uleb128 0xe
 1202 03f6 25040000 		.4byte	.LASF62
 1203 03fa 06       		.byte	0x6
 1204 03fb E2       		.byte	0xe2
 1205 03fc 0E010000 		.4byte	0x10e
 1206 0400 58       		.byte	0x58
 1207 0401 0E       		.uleb128 0xe
 1208 0402 3D050000 		.4byte	.LASF63
 1209 0406 06       		.byte	0x6
 1210 0407 E4       		.byte	0xe4
 1211 0408 03010000 		.4byte	0x103
 1212 040c 5C       		.byte	0x5c
 1213 040d 0E       		.uleb128 0xe
 1214 040e 2B040000 		.4byte	.LASF64
 1215 0412 06       		.byte	0x6
 1216 0413 E5       		.byte	0xe5
 1217 0414 25000000 		.4byte	0x25
 1218 0418 64       		.byte	0x64
 1219 0419 00       		.byte	0
 1220 041a 16       		.uleb128 0x16
 1221 041b 25000000 		.4byte	0x25
 1222 041f 38040000 		.4byte	0x438
 1223 0423 17       		.uleb128 0x17
 1224 0424 38040000 		.4byte	0x438
 1225 0428 17       		.uleb128 0x17
 1226 0429 19010000 		.4byte	0x119
 1227 042d 17       		.uleb128 0x17
 1228 042e 1B010000 		.4byte	0x11b
 1229 0432 17       		.uleb128 0x17
 1230 0433 25000000 		.4byte	0x25
 1231 0437 00       		.byte	0
 1232 0438 06       		.uleb128 0x6
 1233 0439 04       		.byte	0x4
 1234 043a 43040000 		.4byte	0x443
 1235 043e 10       		.uleb128 0x10
 1236 043f 38040000 		.4byte	0x438
 1237 0443 18       		.uleb128 0x18
 1238 0444 B4050000 		.4byte	.LASF65
 1239 0448 2804     		.2byte	0x428
 1240 044a 06       		.byte	0x6
 1241 044b 6002     		.2byte	0x260
 1242 044d 75050000 		.4byte	0x575
 1243 0451 19       		.uleb128 0x19
 1244 0452 FD050000 		.4byte	.LASF66
 1245 0456 06       		.byte	0x6
 1246 0457 6202     		.2byte	0x262
 1247 0459 25000000 		.4byte	0x25
 1248 045d 00       		.byte	0
 1249 045e 19       		.uleb128 0x19
 1250 045f 5B020000 		.4byte	.LASF67
ARM GAS  /tmp/ccCS9T6O.s 			page 23


 1251 0463 06       		.byte	0x6
 1252 0464 6702     		.2byte	0x267
 1253 0466 4A060000 		.4byte	0x64a
 1254 046a 04       		.byte	0x4
 1255 046b 19       		.uleb128 0x19
 1256 046c 54030000 		.4byte	.LASF68
 1257 0470 06       		.byte	0x6
 1258 0471 6702     		.2byte	0x267
 1259 0473 4A060000 		.4byte	0x64a
 1260 0477 08       		.byte	0x8
 1261 0478 19       		.uleb128 0x19
 1262 0479 E6020000 		.4byte	.LASF69
 1263 047d 06       		.byte	0x6
 1264 047e 6702     		.2byte	0x267
 1265 0480 4A060000 		.4byte	0x64a
 1266 0484 0C       		.byte	0xc
 1267 0485 19       		.uleb128 0x19
 1268 0486 6E050000 		.4byte	.LASF70
 1269 048a 06       		.byte	0x6
 1270 048b 6902     		.2byte	0x269
 1271 048d 25000000 		.4byte	0x25
 1272 0491 10       		.byte	0x10
 1273 0492 19       		.uleb128 0x19
 1274 0493 24000000 		.4byte	.LASF71
 1275 0497 06       		.byte	0x6
 1276 0498 6A02     		.2byte	0x26a
 1277 049a 2C080000 		.4byte	0x82c
 1278 049e 14       		.byte	0x14
 1279 049f 19       		.uleb128 0x19
 1280 04a0 93050000 		.4byte	.LASF72
 1281 04a4 06       		.byte	0x6
 1282 04a5 6D02     		.2byte	0x26d
 1283 04a7 25000000 		.4byte	0x25
 1284 04ab 30       		.byte	0x30
 1285 04ac 19       		.uleb128 0x19
 1286 04ad 81050000 		.4byte	.LASF73
 1287 04b1 06       		.byte	0x6
 1288 04b2 6E02     		.2byte	0x26e
 1289 04b4 41080000 		.4byte	0x841
 1290 04b8 34       		.byte	0x34
 1291 04b9 19       		.uleb128 0x19
 1292 04ba 7C040000 		.4byte	.LASF74
 1293 04be 06       		.byte	0x6
 1294 04bf 7002     		.2byte	0x270
 1295 04c1 25000000 		.4byte	0x25
 1296 04c5 38       		.byte	0x38
 1297 04c6 19       		.uleb128 0x19
 1298 04c7 89050000 		.4byte	.LASF75
 1299 04cb 06       		.byte	0x6
 1300 04cc 7202     		.2byte	0x272
 1301 04ce 52080000 		.4byte	0x852
 1302 04d2 3C       		.byte	0x3c
 1303 04d3 19       		.uleb128 0x19
 1304 04d4 F0030000 		.4byte	.LASF76
 1305 04d8 06       		.byte	0x6
 1306 04d9 7502     		.2byte	0x275
 1307 04db 8B010000 		.4byte	0x18b
ARM GAS  /tmp/ccCS9T6O.s 			page 24


 1308 04df 40       		.byte	0x40
 1309 04e0 19       		.uleb128 0x19
 1310 04e1 0B030000 		.4byte	.LASF77
 1311 04e5 06       		.byte	0x6
 1312 04e6 7602     		.2byte	0x276
 1313 04e8 25000000 		.4byte	0x25
 1314 04ec 44       		.byte	0x44
 1315 04ed 19       		.uleb128 0x19
 1316 04ee 38070000 		.4byte	.LASF78
 1317 04f2 06       		.byte	0x6
 1318 04f3 7702     		.2byte	0x277
 1319 04f5 8B010000 		.4byte	0x18b
 1320 04f9 48       		.byte	0x48
 1321 04fa 19       		.uleb128 0x19
 1322 04fb 8E040000 		.4byte	.LASF79
 1323 04ff 06       		.byte	0x6
 1324 0500 7802     		.2byte	0x278
 1325 0502 58080000 		.4byte	0x858
 1326 0506 4C       		.byte	0x4c
 1327 0507 19       		.uleb128 0x19
 1328 0508 5C030000 		.4byte	.LASF80
 1329 050c 06       		.byte	0x6
 1330 050d 7B02     		.2byte	0x27b
 1331 050f 25000000 		.4byte	0x25
 1332 0513 50       		.byte	0x50
 1333 0514 19       		.uleb128 0x19
 1334 0515 6B020000 		.4byte	.LASF81
 1335 0519 06       		.byte	0x6
 1336 051a 7C02     		.2byte	0x27c
 1337 051c 1B010000 		.4byte	0x11b
 1338 0520 54       		.byte	0x54
 1339 0521 19       		.uleb128 0x19
 1340 0522 EC040000 		.4byte	.LASF82
 1341 0526 06       		.byte	0x6
 1342 0527 9F02     		.2byte	0x29f
 1343 0529 0A080000 		.4byte	0x80a
 1344 052d 58       		.byte	0x58
 1345 052e 1A       		.uleb128 0x1a
 1346 052f 74040000 		.4byte	.LASF42
 1347 0533 06       		.byte	0x6
 1348 0534 A302     		.2byte	0x2a3
 1349 0536 A8020000 		.4byte	0x2a8
 1350 053a 4801     		.2byte	0x148
 1351 053c 1A       		.uleb128 0x1a
 1352 053d B6030000 		.4byte	.LASF83
 1353 0541 06       		.byte	0x6
 1354 0542 A402     		.2byte	0x2a4
 1355 0544 6A020000 		.4byte	0x26a
 1356 0548 4C01     		.2byte	0x14c
 1357 054a 1A       		.uleb128 0x1a
 1358 054b C2060000 		.4byte	.LASF84
 1359 054f 06       		.byte	0x6
 1360 0550 A802     		.2byte	0x2a8
 1361 0552 69080000 		.4byte	0x869
 1362 0556 DC02     		.2byte	0x2dc
 1363 0558 1A       		.uleb128 0x1a
 1364 0559 3B020000 		.4byte	.LASF85
ARM GAS  /tmp/ccCS9T6O.s 			page 25


 1365 055d 06       		.byte	0x6
 1366 055e AD02     		.2byte	0x2ad
 1367 0560 0F060000 		.4byte	0x60f
 1368 0564 E002     		.2byte	0x2e0
 1369 0566 1A       		.uleb128 0x1a
 1370 0567 20020000 		.4byte	.LASF86
 1371 056b 06       		.byte	0x6
 1372 056c AF02     		.2byte	0x2af
 1373 056e 75080000 		.4byte	0x875
 1374 0572 EC02     		.2byte	0x2ec
 1375 0574 00       		.byte	0
 1376 0575 06       		.uleb128 0x6
 1377 0576 04       		.byte	0x4
 1378 0577 1A040000 		.4byte	0x41a
 1379 057b 16       		.uleb128 0x16
 1380 057c 25000000 		.4byte	0x25
 1381 0580 99050000 		.4byte	0x599
 1382 0584 17       		.uleb128 0x17
 1383 0585 38040000 		.4byte	0x438
 1384 0589 17       		.uleb128 0x17
 1385 058a 19010000 		.4byte	0x119
 1386 058e 17       		.uleb128 0x17
 1387 058f 99050000 		.4byte	0x599
 1388 0593 17       		.uleb128 0x17
 1389 0594 25000000 		.4byte	0x25
 1390 0598 00       		.byte	0
 1391 0599 06       		.uleb128 0x6
 1392 059a 04       		.byte	0x4
 1393 059b 28010000 		.4byte	0x128
 1394 059f 06       		.uleb128 0x6
 1395 05a0 04       		.byte	0x4
 1396 05a1 7B050000 		.4byte	0x57b
 1397 05a5 16       		.uleb128 0x16
 1398 05a6 9C000000 		.4byte	0x9c
 1399 05aa C3050000 		.4byte	0x5c3
 1400 05ae 17       		.uleb128 0x17
 1401 05af 38040000 		.4byte	0x438
 1402 05b3 17       		.uleb128 0x17
 1403 05b4 19010000 		.4byte	0x119
 1404 05b8 17       		.uleb128 0x17
 1405 05b9 9C000000 		.4byte	0x9c
 1406 05bd 17       		.uleb128 0x17
 1407 05be 25000000 		.4byte	0x25
 1408 05c2 00       		.byte	0
 1409 05c3 06       		.uleb128 0x6
 1410 05c4 04       		.byte	0x4
 1411 05c5 A5050000 		.4byte	0x5a5
 1412 05c9 16       		.uleb128 0x16
 1413 05ca 25000000 		.4byte	0x25
 1414 05ce DD050000 		.4byte	0x5dd
 1415 05d2 17       		.uleb128 0x17
 1416 05d3 38040000 		.4byte	0x438
 1417 05d7 17       		.uleb128 0x17
 1418 05d8 19010000 		.4byte	0x119
 1419 05dc 00       		.byte	0
 1420 05dd 06       		.uleb128 0x6
 1421 05de 04       		.byte	0x4
ARM GAS  /tmp/ccCS9T6O.s 			page 26


 1422 05df C9050000 		.4byte	0x5c9
 1423 05e3 0B       		.uleb128 0xb
 1424 05e4 45000000 		.4byte	0x45
 1425 05e8 F3050000 		.4byte	0x5f3
 1426 05ec 0C       		.uleb128 0xc
 1427 05ed 2C000000 		.4byte	0x2c
 1428 05f1 02       		.byte	0x2
 1429 05f2 00       		.byte	0
 1430 05f3 0B       		.uleb128 0xb
 1431 05f4 45000000 		.4byte	0x45
 1432 05f8 03060000 		.4byte	0x603
 1433 05fc 0C       		.uleb128 0xc
 1434 05fd 2C000000 		.4byte	0x2c
 1435 0601 00       		.byte	0
 1436 0602 00       		.byte	0
 1437 0603 08       		.uleb128 0x8
 1438 0604 1B050000 		.4byte	.LASF87
 1439 0608 06       		.byte	0x6
 1440 0609 1F01     		.2byte	0x11f
 1441 060b F0020000 		.4byte	0x2f0
 1442 060f 1B       		.uleb128 0x1b
 1443 0610 A9060000 		.4byte	.LASF88
 1444 0614 0C       		.byte	0xc
 1445 0615 06       		.byte	0x6
 1446 0616 2301     		.2byte	0x123
 1447 0618 44060000 		.4byte	0x644
 1448 061c 19       		.uleb128 0x19
 1449 061d 26060000 		.4byte	.LASF22
 1450 0621 06       		.byte	0x6
 1451 0622 2501     		.2byte	0x125
 1452 0624 44060000 		.4byte	0x644
 1453 0628 00       		.byte	0
 1454 0629 19       		.uleb128 0x19
 1455 062a 97030000 		.4byte	.LASF89
 1456 062e 06       		.byte	0x6
 1457 062f 2601     		.2byte	0x126
 1458 0631 25000000 		.4byte	0x25
 1459 0635 04       		.byte	0x4
 1460 0636 19       		.uleb128 0x19
 1461 0637 15050000 		.4byte	.LASF90
 1462 063b 06       		.byte	0x6
 1463 063c 2701     		.2byte	0x127
 1464 063e 4A060000 		.4byte	0x64a
 1465 0642 08       		.byte	0x8
 1466 0643 00       		.byte	0
 1467 0644 06       		.uleb128 0x6
 1468 0645 04       		.byte	0x4
 1469 0646 0F060000 		.4byte	0x60f
 1470 064a 06       		.uleb128 0x6
 1471 064b 04       		.byte	0x4
 1472 064c 03060000 		.4byte	0x603
 1473 0650 1B       		.uleb128 0x1b
 1474 0651 1C000000 		.4byte	.LASF91
 1475 0655 0E       		.byte	0xe
 1476 0656 06       		.byte	0x6
 1477 0657 3F01     		.2byte	0x13f
 1478 0659 85060000 		.4byte	0x685
ARM GAS  /tmp/ccCS9T6O.s 			page 27


 1479 065d 19       		.uleb128 0x19
 1480 065e BB050000 		.4byte	.LASF92
 1481 0662 06       		.byte	0x6
 1482 0663 4001     		.2byte	0x140
 1483 0665 85060000 		.4byte	0x685
 1484 0669 00       		.byte	0
 1485 066a 19       		.uleb128 0x19
 1486 066b 20060000 		.4byte	.LASF93
 1487 066f 06       		.byte	0x6
 1488 0670 4101     		.2byte	0x141
 1489 0672 85060000 		.4byte	0x685
 1490 0676 06       		.byte	0x6
 1491 0677 19       		.uleb128 0x19
 1492 0678 42060000 		.4byte	.LASF94
 1493 067c 06       		.byte	0x6
 1494 067d 4201     		.2byte	0x142
 1495 067f 53000000 		.4byte	0x53
 1496 0683 0C       		.byte	0xc
 1497 0684 00       		.byte	0
 1498 0685 0B       		.uleb128 0xb
 1499 0686 53000000 		.4byte	0x53
 1500 068a 95060000 		.4byte	0x695
 1501 068e 0C       		.uleb128 0xc
 1502 068f 2C000000 		.4byte	0x2c
 1503 0693 02       		.byte	0x2
 1504 0694 00       		.byte	0
 1505 0695 1C       		.uleb128 0x1c
 1506 0696 D0       		.byte	0xd0
 1507 0697 06       		.byte	0x6
 1508 0698 8002     		.2byte	0x280
 1509 069a 96070000 		.4byte	0x796
 1510 069e 19       		.uleb128 0x19
 1511 069f 8D060000 		.4byte	.LASF95
 1512 06a3 06       		.byte	0x6
 1513 06a4 8202     		.2byte	0x282
 1514 06a6 2C000000 		.4byte	0x2c
 1515 06aa 00       		.byte	0
 1516 06ab 19       		.uleb128 0x19
 1517 06ac 2C060000 		.4byte	.LASF96
 1518 06b0 06       		.byte	0x6
 1519 06b1 8302     		.2byte	0x283
 1520 06b3 1B010000 		.4byte	0x11b
 1521 06b7 04       		.byte	0x4
 1522 06b8 19       		.uleb128 0x19
 1523 06b9 E3030000 		.4byte	.LASF97
 1524 06bd 06       		.byte	0x6
 1525 06be 8402     		.2byte	0x284
 1526 06c0 96070000 		.4byte	0x796
 1527 06c4 08       		.byte	0x8
 1528 06c5 19       		.uleb128 0x19
 1529 06c6 00070000 		.4byte	.LASF98
 1530 06ca 06       		.byte	0x6
 1531 06cb 8502     		.2byte	0x285
 1532 06cd A1010000 		.4byte	0x1a1
 1533 06d1 24       		.byte	0x24
 1534 06d2 19       		.uleb128 0x19
 1535 06d3 F6020000 		.4byte	.LASF99
ARM GAS  /tmp/ccCS9T6O.s 			page 28


 1536 06d7 06       		.byte	0x6
 1537 06d8 8602     		.2byte	0x286
 1538 06da 25000000 		.4byte	0x25
 1539 06de 48       		.byte	0x48
 1540 06df 19       		.uleb128 0x19
 1541 06e0 46050000 		.4byte	.LASF100
 1542 06e4 06       		.byte	0x6
 1543 06e5 8702     		.2byte	0x287
 1544 06e7 74000000 		.4byte	0x74
 1545 06eb 50       		.byte	0x50
 1546 06ec 19       		.uleb128 0x19
 1547 06ed 16070000 		.4byte	.LASF101
 1548 06f1 06       		.byte	0x6
 1549 06f2 8802     		.2byte	0x288
 1550 06f4 50060000 		.4byte	0x650
 1551 06f8 58       		.byte	0x58
 1552 06f9 19       		.uleb128 0x19
 1553 06fa 61050000 		.4byte	.LASF102
 1554 06fe 06       		.byte	0x6
 1555 06ff 8902     		.2byte	0x289
 1556 0701 03010000 		.4byte	0x103
 1557 0705 68       		.byte	0x68
 1558 0706 19       		.uleb128 0x19
 1559 0707 2A070000 		.4byte	.LASF103
 1560 070b 06       		.byte	0x6
 1561 070c 8A02     		.2byte	0x28a
 1562 070e 03010000 		.4byte	0x103
 1563 0712 70       		.byte	0x70
 1564 0713 19       		.uleb128 0x19
 1565 0714 C0040000 		.4byte	.LASF104
 1566 0718 06       		.byte	0x6
 1567 0719 8B02     		.2byte	0x28b
 1568 071b 03010000 		.4byte	0x103
 1569 071f 78       		.byte	0x78
 1570 0720 19       		.uleb128 0x19
 1571 0721 B8060000 		.4byte	.LASF105
 1572 0725 06       		.byte	0x6
 1573 0726 8C02     		.2byte	0x28c
 1574 0728 A6070000 		.4byte	0x7a6
 1575 072c 80       		.byte	0x80
 1576 072d 19       		.uleb128 0x19
 1577 072e D7030000 		.4byte	.LASF106
 1578 0732 06       		.byte	0x6
 1579 0733 8D02     		.2byte	0x28d
 1580 0735 B6070000 		.4byte	0x7b6
 1581 0739 88       		.byte	0x88
 1582 073a 19       		.uleb128 0x19
 1583 073b 4F060000 		.4byte	.LASF107
 1584 073f 06       		.byte	0x6
 1585 0740 8E02     		.2byte	0x28e
 1586 0742 25000000 		.4byte	0x25
 1587 0746 A0       		.byte	0xa0
 1588 0747 19       		.uleb128 0x19
 1589 0748 A3020000 		.4byte	.LASF108
 1590 074c 06       		.byte	0x6
 1591 074d 8F02     		.2byte	0x28f
 1592 074f 03010000 		.4byte	0x103
ARM GAS  /tmp/ccCS9T6O.s 			page 29


 1593 0753 A4       		.byte	0xa4
 1594 0754 19       		.uleb128 0x19
 1595 0755 D8010000 		.4byte	.LASF109
 1596 0759 06       		.byte	0x6
 1597 075a 9002     		.2byte	0x290
 1598 075c 03010000 		.4byte	0x103
 1599 0760 AC       		.byte	0xac
 1600 0761 19       		.uleb128 0x19
 1601 0762 92020000 		.4byte	.LASF110
 1602 0766 06       		.byte	0x6
 1603 0767 9102     		.2byte	0x291
 1604 0769 03010000 		.4byte	0x103
 1605 076d B4       		.byte	0xb4
 1606 076e 19       		.uleb128 0x19
 1607 076f 74010000 		.4byte	.LASF111
 1608 0773 06       		.byte	0x6
 1609 0774 9202     		.2byte	0x292
 1610 0776 03010000 		.4byte	0x103
 1611 077a BC       		.byte	0xbc
 1612 077b 19       		.uleb128 0x19
 1613 077c 83010000 		.4byte	.LASF112
 1614 0780 06       		.byte	0x6
 1615 0781 9302     		.2byte	0x293
 1616 0783 03010000 		.4byte	0x103
 1617 0787 C4       		.byte	0xc4
 1618 0788 19       		.uleb128 0x19
 1619 0789 F1040000 		.4byte	.LASF113
 1620 078d 06       		.byte	0x6
 1621 078e 9402     		.2byte	0x294
 1622 0790 25000000 		.4byte	0x25
 1623 0794 CC       		.byte	0xcc
 1624 0795 00       		.byte	0
 1625 0796 0B       		.uleb128 0xb
 1626 0797 21010000 		.4byte	0x121
 1627 079b A6070000 		.4byte	0x7a6
 1628 079f 0C       		.uleb128 0xc
 1629 07a0 2C000000 		.4byte	0x2c
 1630 07a4 19       		.byte	0x19
 1631 07a5 00       		.byte	0
 1632 07a6 0B       		.uleb128 0xb
 1633 07a7 21010000 		.4byte	0x121
 1634 07ab B6070000 		.4byte	0x7b6
 1635 07af 0C       		.uleb128 0xc
 1636 07b0 2C000000 		.4byte	0x2c
 1637 07b4 07       		.byte	0x7
 1638 07b5 00       		.byte	0
 1639 07b6 0B       		.uleb128 0xb
 1640 07b7 21010000 		.4byte	0x121
 1641 07bb C6070000 		.4byte	0x7c6
 1642 07bf 0C       		.uleb128 0xc
 1643 07c0 2C000000 		.4byte	0x2c
 1644 07c4 17       		.byte	0x17
 1645 07c5 00       		.byte	0
 1646 07c6 1C       		.uleb128 0x1c
 1647 07c7 F0       		.byte	0xf0
 1648 07c8 06       		.byte	0x6
 1649 07c9 9902     		.2byte	0x299
ARM GAS  /tmp/ccCS9T6O.s 			page 30


 1650 07cb EA070000 		.4byte	0x7ea
 1651 07cf 19       		.uleb128 0x19
 1652 07d0 64040000 		.4byte	.LASF114
 1653 07d4 06       		.byte	0x6
 1654 07d5 9C02     		.2byte	0x29c
 1655 07d7 EA070000 		.4byte	0x7ea
 1656 07db 00       		.byte	0
 1657 07dc 19       		.uleb128 0x19
 1658 07dd AF060000 		.4byte	.LASF115
 1659 07e1 06       		.byte	0x6
 1660 07e2 9D02     		.2byte	0x29d
 1661 07e4 FA070000 		.4byte	0x7fa
 1662 07e8 78       		.byte	0x78
 1663 07e9 00       		.byte	0
 1664 07ea 0B       		.uleb128 0xb
 1665 07eb EA020000 		.4byte	0x2ea
 1666 07ef FA070000 		.4byte	0x7fa
 1667 07f3 0C       		.uleb128 0xc
 1668 07f4 2C000000 		.4byte	0x2c
 1669 07f8 1D       		.byte	0x1d
 1670 07f9 00       		.byte	0
 1671 07fa 0B       		.uleb128 0xb
 1672 07fb 2C000000 		.4byte	0x2c
 1673 07ff 0A080000 		.4byte	0x80a
 1674 0803 0C       		.uleb128 0xc
 1675 0804 2C000000 		.4byte	0x2c
 1676 0808 1D       		.byte	0x1d
 1677 0809 00       		.byte	0
 1678 080a 1D       		.uleb128 0x1d
 1679 080b F0       		.byte	0xf0
 1680 080c 06       		.byte	0x6
 1681 080d 7E02     		.2byte	0x27e
 1682 080f 2C080000 		.4byte	0x82c
 1683 0813 1E       		.uleb128 0x1e
 1684 0814 B4050000 		.4byte	.LASF65
 1685 0818 06       		.byte	0x6
 1686 0819 9502     		.2byte	0x295
 1687 081b 95060000 		.4byte	0x695
 1688 081f 1E       		.uleb128 0x1e
 1689 0820 ED060000 		.4byte	.LASF116
 1690 0824 06       		.byte	0x6
 1691 0825 9E02     		.2byte	0x29e
 1692 0827 C6070000 		.4byte	0x7c6
 1693 082b 00       		.byte	0
 1694 082c 0B       		.uleb128 0xb
 1695 082d 21010000 		.4byte	0x121
 1696 0831 3C080000 		.4byte	0x83c
 1697 0835 0C       		.uleb128 0xc
 1698 0836 2C000000 		.4byte	0x2c
 1699 083a 18       		.byte	0x18
 1700 083b 00       		.byte	0
 1701 083c 07       		.uleb128 0x7
 1702 083d CD010000 		.4byte	.LASF118
 1703 0841 06       		.uleb128 0x6
 1704 0842 04       		.byte	0x4
 1705 0843 3C080000 		.4byte	0x83c
 1706 0847 1F       		.uleb128 0x1f
ARM GAS  /tmp/ccCS9T6O.s 			page 31


 1707 0848 52080000 		.4byte	0x852
 1708 084c 17       		.uleb128 0x17
 1709 084d 38040000 		.4byte	0x438
 1710 0851 00       		.byte	0
 1711 0852 06       		.uleb128 0x6
 1712 0853 04       		.byte	0x4
 1713 0854 47080000 		.4byte	0x847
 1714 0858 06       		.uleb128 0x6
 1715 0859 04       		.byte	0x4
 1716 085a 8B010000 		.4byte	0x18b
 1717 085e 1F       		.uleb128 0x1f
 1718 085f 69080000 		.4byte	0x869
 1719 0863 17       		.uleb128 0x17
 1720 0864 25000000 		.4byte	0x25
 1721 0868 00       		.byte	0
 1722 0869 06       		.uleb128 0x6
 1723 086a 04       		.byte	0x4
 1724 086b 6F080000 		.4byte	0x86f
 1725 086f 06       		.uleb128 0x6
 1726 0870 04       		.byte	0x4
 1727 0871 5E080000 		.4byte	0x85e
 1728 0875 0B       		.uleb128 0xb
 1729 0876 03060000 		.4byte	0x603
 1730 087a 85080000 		.4byte	0x885
 1731 087e 0C       		.uleb128 0xc
 1732 087f 2C000000 		.4byte	0x2c
 1733 0883 02       		.byte	0x2
 1734 0884 00       		.byte	0
 1735 0885 20       		.uleb128 0x20
 1736 0886 E9050000 		.4byte	.LASF119
 1737 088a 06       		.byte	0x6
 1738 088b 2E03     		.2byte	0x32e
 1739 088d 38040000 		.4byte	0x438
 1740 0891 20       		.uleb128 0x20
 1741 0892 69060000 		.4byte	.LASF120
 1742 0896 06       		.byte	0x6
 1743 0897 2F03     		.2byte	0x32f
 1744 0899 3E040000 		.4byte	0x43e
 1745 089d 04       		.uleb128 0x4
 1746 089e 18060000 		.4byte	.LASF121
 1747 08a2 07       		.byte	0x7
 1748 08a3 18       		.byte	0x18
 1749 08a4 3A000000 		.4byte	0x3a
 1750 08a8 21       		.uleb128 0x21
 1751 08a9 2804     		.2byte	0x428
 1752 08ab 01       		.byte	0x1
 1753 08ac 21       		.byte	0x21
 1754 08ad 13090000 		.4byte	0x913
 1755 08b1 0E       		.uleb128 0xe
 1756 08b2 87020000 		.4byte	.LASF122
 1757 08b6 01       		.byte	0x1
 1758 08b7 22       		.byte	0x22
 1759 08b8 5A000000 		.4byte	0x5a
 1760 08bc 00       		.byte	0
 1761 08bd 0E       		.uleb128 0xe
 1762 08be 0C000000 		.4byte	.LASF123
 1763 08c2 01       		.byte	0x1
ARM GAS  /tmp/ccCS9T6O.s 			page 32


 1764 08c3 23       		.byte	0x23
 1765 08c4 23090000 		.4byte	0x923
 1766 08c8 04       		.byte	0x4
 1767 08c9 0E       		.uleb128 0xe
 1768 08ca 47030000 		.4byte	.LASF124
 1769 08ce 01       		.byte	0x1
 1770 08cf 24       		.byte	0x24
 1771 08d0 23090000 		.4byte	0x923
 1772 08d4 08       		.byte	0x8
 1773 08d5 0E       		.uleb128 0xe
 1774 08d6 7B020000 		.4byte	.LASF125
 1775 08da 01       		.byte	0x1
 1776 08db 25       		.byte	0x25
 1777 08dc 2C000000 		.4byte	0x2c
 1778 08e0 0C       		.byte	0xc
 1779 08e1 0E       		.uleb128 0xe
 1780 08e2 50040000 		.4byte	.LASF126
 1781 08e6 01       		.byte	0x1
 1782 08e7 26       		.byte	0x26
 1783 08e8 2C000000 		.4byte	0x2c
 1784 08ec 10       		.byte	0x10
 1785 08ed 0E       		.uleb128 0xe
 1786 08ee 3D070000 		.4byte	.LASF127
 1787 08f2 01       		.byte	0x1
 1788 08f3 27       		.byte	0x27
 1789 08f4 25000000 		.4byte	0x25
 1790 08f8 14       		.byte	0x14
 1791 08f9 0E       		.uleb128 0xe
 1792 08fa D4040000 		.4byte	.LASF128
 1793 08fe 01       		.byte	0x1
 1794 08ff 28       		.byte	0x28
 1795 0900 29090000 		.4byte	0x929
 1796 0904 18       		.byte	0x18
 1797 0905 14       		.uleb128 0x14
 1798 0906 7C060000 		.4byte	.LASF129
 1799 090a 01       		.byte	0x1
 1800 090b 29       		.byte	0x29
 1801 090c 29090000 		.4byte	0x929
 1802 0910 2002     		.2byte	0x220
 1803 0912 00       		.byte	0
 1804 0913 1F       		.uleb128 0x1f
 1805 0914 23090000 		.4byte	0x923
 1806 0918 17       		.uleb128 0x17
 1807 0919 EA020000 		.4byte	0x2ea
 1808 091d 17       		.uleb128 0x17
 1809 091e 2C000000 		.4byte	0x2c
 1810 0922 00       		.byte	0
 1811 0923 06       		.uleb128 0x6
 1812 0924 04       		.byte	0x4
 1813 0925 13090000 		.4byte	0x913
 1814 0929 0B       		.uleb128 0xb
 1815 092a 45000000 		.4byte	0x45
 1816 092e 3A090000 		.4byte	0x93a
 1817 0932 22       		.uleb128 0x22
 1818 0933 2C000000 		.4byte	0x2c
 1819 0937 0702     		.2byte	0x207
 1820 0939 00       		.byte	0
ARM GAS  /tmp/ccCS9T6O.s 			page 33


 1821 093a 04       		.uleb128 0x4
 1822 093b 1B070000 		.4byte	.LASF130
 1823 093f 01       		.byte	0x1
 1824 0940 2A       		.byte	0x2a
 1825 0941 A8080000 		.4byte	0x8a8
 1826 0945 0B       		.uleb128 0xb
 1827 0946 3A090000 		.4byte	0x93a
 1828 094a 55090000 		.4byte	0x955
 1829 094e 0C       		.uleb128 0xc
 1830 094f 2C000000 		.4byte	0x2c
 1831 0953 02       		.byte	0x2
 1832 0954 00       		.byte	0
 1833 0955 23       		.uleb128 0x23
 1834 0956 CC060000 		.4byte	.LASF141
 1835 095a 01       		.byte	0x1
 1836 095b 2D       		.byte	0x2d
 1837 095c 45090000 		.4byte	0x945
 1838 0960 05       		.uleb128 0x5
 1839 0961 03       		.byte	0x3
 1840 0962 00000000 		.4byte	m_handler_states
 1841 0966 24       		.uleb128 0x24
 1842 0967 1A030000 		.4byte	.LASF161
 1843 096b 01       		.byte	0x1
 1844 096c C5       		.byte	0xc5
 1845 096d 25000000 		.4byte	0x25
 1846 0971 01       		.byte	0x1
 1847 0972 E7090000 		.4byte	0x9e7
 1848 0976 25       		.uleb128 0x25
 1849 0977 51050000 		.4byte	.LASF131
 1850 097b 01       		.byte	0x1
 1851 097c C5       		.byte	0xc5
 1852 097d EA020000 		.4byte	0x2ea
 1853 0981 25       		.uleb128 0x25
 1854 0982 5D040000 		.4byte	.LASF132
 1855 0986 01       		.byte	0x1
 1856 0987 C5       		.byte	0xc5
 1857 0988 2C000000 		.4byte	0x2c
 1858 098c 25       		.uleb128 0x25
 1859 098d 47030000 		.4byte	.LASF124
 1860 0991 01       		.byte	0x1
 1861 0992 C6       		.byte	0xc6
 1862 0993 23090000 		.4byte	0x923
 1863 0997 25       		.uleb128 0x25
 1864 0998 3D070000 		.4byte	.LASF127
 1865 099c 01       		.byte	0x1
 1866 099d C6       		.byte	0xc6
 1867 099e E7090000 		.4byte	0x9e7
 1868 09a2 26       		.uleb128 0x26
 1869 09a3 DD060000 		.4byte	.LASF133
 1870 09a7 01       		.byte	0x1
 1871 09a8 CE       		.byte	0xce
 1872 09a9 ED090000 		.4byte	0x9ed
 1873 09ad 26       		.uleb128 0x26
 1874 09ae 8C030000 		.4byte	.LASF134
 1875 09b2 01       		.byte	0x1
 1876 09b3 CF       		.byte	0xcf
 1877 09b4 2C000000 		.4byte	0x2c
ARM GAS  /tmp/ccCS9T6O.s 			page 34


 1878 09b8 26       		.uleb128 0x26
 1879 09b9 C1050000 		.4byte	.LASF135
 1880 09bd 01       		.byte	0x1
 1881 09be D2       		.byte	0xd2
 1882 09bf ED090000 		.4byte	0x9ed
 1883 09c3 27       		.uleb128 0x27
 1884 09c4 6C656E00 		.ascii	"len\000"
 1885 09c8 01       		.byte	0x1
 1886 09c9 E8       		.byte	0xe8
 1887 09ca 2C000000 		.4byte	0x2c
 1888 09ce 28       		.uleb128 0x28
 1889 09cf 83030000 		.4byte	.LASF136
 1890 09d3 01       		.byte	0x1
 1891 09d4 1301     		.2byte	0x113
 1892 09d6 53000000 		.4byte	0x53
 1893 09da 28       		.uleb128 0x28
 1894 09db 64030000 		.4byte	.LASF137
 1895 09df 01       		.byte	0x1
 1896 09e0 1401     		.2byte	0x114
 1897 09e2 53000000 		.4byte	0x53
 1898 09e6 00       		.byte	0
 1899 09e7 06       		.uleb128 0x6
 1900 09e8 04       		.byte	0x4
 1901 09e9 25000000 		.4byte	0x25
 1902 09ed 03       		.uleb128 0x3
 1903 09ee 01       		.byte	0x1
 1904 09ef 02       		.byte	0x2
 1905 09f0 CE040000 		.4byte	.LASF138
 1906 09f4 29       		.uleb128 0x29
 1907 09f5 A4040000 		.4byte	.LASF144
 1908 09f9 01       		.byte	0x1
 1909 09fa 71       		.byte	0x71
 1910 09fb 00000000 		.4byte	.LFB4
 1911 09ff 6C010000 		.4byte	.LFE4-.LFB4
 1912 0a03 01       		.uleb128 0x1
 1913 0a04 9C       		.byte	0x9c
 1914 0a05 110B0000 		.4byte	0xb11
 1915 0a09 2A       		.uleb128 0x2a
 1916 0a0a B8040000 		.4byte	.LASF139
 1917 0a0e 01       		.byte	0x1
 1918 0a0f 71       		.byte	0x71
 1919 0a10 9D080000 		.4byte	0x89d
 1920 0a14 00000000 		.4byte	.LLST12
 1921 0a18 2A       		.uleb128 0x2a
 1922 0a19 98040000 		.4byte	.LASF140
 1923 0a1d 01       		.byte	0x1
 1924 0a1e 71       		.byte	0x71
 1925 0a1f 25000000 		.4byte	0x25
 1926 0a23 3A000000 		.4byte	.LLST13
 1927 0a27 2B       		.uleb128 0x2b
 1928 0a28 35050000 		.4byte	.LASF142
 1929 0a2c 01       		.byte	0x1
 1930 0a2d 72       		.byte	0x72
 1931 0a2e 110B0000 		.4byte	0xb11
 1932 0a32 70000000 		.4byte	.LLST14
 1933 0a36 2B       		.uleb128 0x2b
 1934 0a37 58050000 		.4byte	.LASF143
ARM GAS  /tmp/ccCS9T6O.s 			page 35


 1935 0a3b 01       		.byte	0x1
 1936 0a3c 76       		.byte	0x76
 1937 0a3d 2C000000 		.4byte	0x2c
 1938 0a41 D6000000 		.4byte	.LLST15
 1939 0a45 2C       		.uleb128 0x2c
 1940 0a46 18000000 		.4byte	.Ldebug_ranges0+0x18
 1941 0a4a F00A0000 		.4byte	0xaf0
 1942 0a4e 27       		.uleb128 0x27
 1943 0a4f 72657300 		.ascii	"res\000"
 1944 0a53 01       		.byte	0x1
 1945 0a54 97       		.byte	0x97
 1946 0a55 25000000 		.4byte	0x25
 1947 0a59 2D       		.uleb128 0x2d
 1948 0a5a 66090000 		.4byte	0x966
 1949 0a5e 5E000000 		.4byte	.LBB13
 1950 0a62 48000000 		.4byte	.Ldebug_ranges0+0x48
 1951 0a66 01       		.byte	0x1
 1952 0a67 97       		.byte	0x97
 1953 0a68 2E       		.uleb128 0x2e
 1954 0a69 97090000 		.4byte	0x997
 1955 0a6d 2F       		.uleb128 0x2f
 1956 0a6e 8C090000 		.4byte	0x98c
 1957 0a72 24010000 		.4byte	.LLST16
 1958 0a76 2F       		.uleb128 0x2f
 1959 0a77 81090000 		.4byte	0x981
 1960 0a7b 6E010000 		.4byte	.LLST17
 1961 0a7f 2F       		.uleb128 0x2f
 1962 0a80 76090000 		.4byte	0x976
 1963 0a84 C5010000 		.4byte	.LLST18
 1964 0a88 30       		.uleb128 0x30
 1965 0a89 48000000 		.4byte	.Ldebug_ranges0+0x48
 1966 0a8d 31       		.uleb128 0x31
 1967 0a8e A2090000 		.4byte	0x9a2
 1968 0a92 32       		.uleb128 0x32
 1969 0a93 AD090000 		.4byte	0x9ad
 1970 0a97 0F020000 		.4byte	.LLST19
 1971 0a9b 32       		.uleb128 0x32
 1972 0a9c B8090000 		.4byte	0x9b8
 1973 0aa0 60020000 		.4byte	.LLST20
 1974 0aa4 32       		.uleb128 0x32
 1975 0aa5 C3090000 		.4byte	0x9c3
 1976 0aa9 AF020000 		.4byte	.LLST21
 1977 0aad 32       		.uleb128 0x32
 1978 0aae CE090000 		.4byte	0x9ce
 1979 0ab2 F6020000 		.4byte	.LLST22
 1980 0ab6 32       		.uleb128 0x32
 1981 0ab7 DA090000 		.4byte	0x9da
 1982 0abb 09030000 		.4byte	.LLST23
 1983 0abf 33       		.uleb128 0x33
 1984 0ac0 C0000000 		.4byte	.LVL45
 1985 0ac4 BA0C0000 		.4byte	0xcba
 1986 0ac8 DA0A0000 		.4byte	0xada
 1987 0acc 34       		.uleb128 0x34
 1988 0acd 01       		.uleb128 0x1
 1989 0ace 50       		.byte	0x50
 1990 0acf 03       		.uleb128 0x3
 1991 0ad0 91       		.byte	0x91
ARM GAS  /tmp/ccCS9T6O.s 			page 36


 1992 0ad1 48       		.sleb128 -56
 1993 0ad2 06       		.byte	0x6
 1994 0ad3 34       		.uleb128 0x34
 1995 0ad4 01       		.uleb128 0x1
 1996 0ad5 51       		.byte	0x51
 1997 0ad6 02       		.uleb128 0x2
 1998 0ad7 75       		.byte	0x75
 1999 0ad8 00       		.sleb128 0
 2000 0ad9 00       		.byte	0
 2001 0ada 35       		.uleb128 0x35
 2002 0adb DE000000 		.4byte	.LVL47
 2003 0adf 34       		.uleb128 0x34
 2004 0ae0 01       		.uleb128 0x1
 2005 0ae1 50       		.byte	0x50
 2006 0ae2 03       		.uleb128 0x3
 2007 0ae3 91       		.byte	0x91
 2008 0ae4 48       		.sleb128 -56
 2009 0ae5 06       		.byte	0x6
 2010 0ae6 34       		.uleb128 0x34
 2011 0ae7 01       		.uleb128 0x1
 2012 0ae8 51       		.byte	0x51
 2013 0ae9 02       		.uleb128 0x2
 2014 0aea 75       		.byte	0x75
 2015 0aeb 00       		.sleb128 0
 2016 0aec 00       		.byte	0
 2017 0aed 00       		.byte	0
 2018 0aee 00       		.byte	0
 2019 0aef 00       		.byte	0
 2020 0af0 36       		.uleb128 0x36
 2021 0af1 26010000 		.4byte	.LVL58
 2022 0af5 C50C0000 		.4byte	0xcc5
 2023 0af9 34       		.uleb128 0x34
 2024 0afa 01       		.uleb128 0x1
 2025 0afb 50       		.byte	0x50
 2026 0afc 0C       		.uleb128 0xc
 2027 0afd 91       		.byte	0x91
 2028 0afe 54       		.sleb128 -44
 2029 0aff 06       		.byte	0x6
 2030 0b00 0A       		.byte	0xa
 2031 0b01 2804     		.2byte	0x428
 2032 0b03 1E       		.byte	0x1e
 2033 0b04 76       		.byte	0x76
 2034 0b05 00       		.sleb128 0
 2035 0b06 22       		.byte	0x22
 2036 0b07 23       		.byte	0x23
 2037 0b08 18       		.uleb128 0x18
 2038 0b09 34       		.uleb128 0x34
 2039 0b0a 01       		.uleb128 0x1
 2040 0b0b 52       		.byte	0x52
 2041 0b0c 02       		.uleb128 0x2
 2042 0b0d 74       		.byte	0x74
 2043 0b0e 00       		.sleb128 0
 2044 0b0f 00       		.byte	0
 2045 0b10 00       		.byte	0
 2046 0b11 06       		.uleb128 0x6
 2047 0b12 04       		.byte	0x4
 2048 0b13 3A090000 		.4byte	0x93a
ARM GAS  /tmp/ccCS9T6O.s 			page 37


 2049 0b17 29       		.uleb128 0x29
 2050 0b18 2F000000 		.4byte	.LASF145
 2051 0b1c 01       		.byte	0x1
 2052 0b1d 67       		.byte	0x67
 2053 0b1e 00000000 		.4byte	.LFB3
 2054 0b22 38000000 		.4byte	.LFE3-.LFB3
 2055 0b26 01       		.uleb128 0x1
 2056 0b27 9C       		.byte	0x9c
 2057 0b28 590B0000 		.4byte	0xb59
 2058 0b2c 30       		.uleb128 0x30
 2059 0b2d 00000000 		.4byte	.Ldebug_ranges0+0
 2060 0b31 37       		.uleb128 0x37
 2061 0b32 6900     		.ascii	"i\000"
 2062 0b34 01       		.byte	0x1
 2063 0b35 68       		.byte	0x68
 2064 0b36 25000000 		.4byte	0x25
 2065 0b3a 31030000 		.4byte	.LLST10
 2066 0b3e 38       		.uleb128 0x38
 2067 0b3f 1D0C0000 		.4byte	0xc1d
 2068 0b43 2C000000 		.4byte	.LBB6
 2069 0b47 0C000000 		.4byte	.LBE6-.LBB6
 2070 0b4b 01       		.byte	0x1
 2071 0b4c 6C       		.byte	0x6c
 2072 0b4d 2F       		.uleb128 0x2f
 2073 0b4e 290C0000 		.4byte	0xc29
 2074 0b52 50030000 		.4byte	.LLST11
 2075 0b56 00       		.byte	0
 2076 0b57 00       		.byte	0
 2077 0b58 00       		.byte	0
 2078 0b59 29       		.uleb128 0x29
 2079 0b5a C4020000 		.4byte	.LASF146
 2080 0b5e 01       		.byte	0x1
 2081 0b5f 40       		.byte	0x40
 2082 0b60 00000000 		.4byte	.LFB2
 2083 0b64 8C000000 		.4byte	.LFE2-.LFB2
 2084 0b68 01       		.uleb128 0x1
 2085 0b69 9C       		.byte	0x9c
 2086 0b6a 1D0C0000 		.4byte	0xc1d
 2087 0b6e 2A       		.uleb128 0x2a
 2088 0b6f 9E030000 		.4byte	.LASF147
 2089 0b73 01       		.byte	0x1
 2090 0b74 40       		.byte	0x40
 2091 0b75 EA020000 		.4byte	0x2ea
 2092 0b79 7B030000 		.4byte	.LLST4
 2093 0b7d 39       		.uleb128 0x39
 2094 0b7e 6C656E00 		.ascii	"len\000"
 2095 0b82 01       		.byte	0x1
 2096 0b83 40       		.byte	0x40
 2097 0b84 2C000000 		.4byte	0x2c
 2098 0b88 BD030000 		.4byte	.LLST5
 2099 0b8c 2A       		.uleb128 0x2a
 2100 0b8d 98040000 		.4byte	.LASF140
 2101 0b91 01       		.byte	0x1
 2102 0b92 40       		.byte	0x40
 2103 0b93 25000000 		.4byte	0x25
 2104 0b97 FF030000 		.4byte	.LLST6
 2105 0b9b 2B       		.uleb128 0x2b
ARM GAS  /tmp/ccCS9T6O.s 			page 38


 2106 0b9c B9020000 		.4byte	.LASF148
 2107 0ba0 01       		.byte	0x1
 2108 0ba1 45       		.byte	0x45
 2109 0ba2 25000000 		.4byte	0x25
 2110 0ba6 2B040000 		.4byte	.LLST7
 2111 0baa 2B       		.uleb128 0x2b
 2112 0bab 35050000 		.4byte	.LASF142
 2113 0baf 01       		.byte	0x1
 2114 0bb0 46       		.byte	0x46
 2115 0bb1 110B0000 		.4byte	0xb11
 2116 0bb5 93040000 		.4byte	.LLST8
 2117 0bb9 37       		.uleb128 0x37
 2118 0bba 63726300 		.ascii	"crc\000"
 2119 0bbe 01       		.byte	0x1
 2120 0bbf 59       		.byte	0x59
 2121 0bc0 53000000 		.4byte	0x53
 2122 0bc4 E1040000 		.4byte	.LLST9
 2123 0bc8 33       		.uleb128 0x33
 2124 0bc9 44000000 		.4byte	.LVL15
 2125 0bcd D00C0000 		.4byte	0xcd0
 2126 0bd1 EB0B0000 		.4byte	0xbeb
 2127 0bd5 34       		.uleb128 0x34
 2128 0bd6 01       		.uleb128 0x1
 2129 0bd7 50       		.byte	0x50
 2130 0bd8 05       		.uleb128 0x5
 2131 0bd9 78       		.byte	0x78
 2132 0bda 00       		.sleb128 0
 2133 0bdb 75       		.byte	0x75
 2134 0bdc 00       		.sleb128 0
 2135 0bdd 22       		.byte	0x22
 2136 0bde 34       		.uleb128 0x34
 2137 0bdf 01       		.uleb128 0x1
 2138 0be0 51       		.byte	0x51
 2139 0be1 02       		.uleb128 0x2
 2140 0be2 77       		.byte	0x77
 2141 0be3 00       		.sleb128 0
 2142 0be4 34       		.uleb128 0x34
 2143 0be5 01       		.uleb128 0x1
 2144 0be6 52       		.byte	0x52
 2145 0be7 02       		.uleb128 0x2
 2146 0be8 74       		.byte	0x74
 2147 0be9 00       		.sleb128 0
 2148 0bea 00       		.byte	0
 2149 0beb 33       		.uleb128 0x33
 2150 0bec 4C000000 		.4byte	.LVL16
 2151 0bf0 BA0C0000 		.4byte	0xcba
 2152 0bf4 050C0000 		.4byte	0xc05
 2153 0bf8 34       		.uleb128 0x34
 2154 0bf9 01       		.uleb128 0x1
 2155 0bfa 50       		.byte	0x50
 2156 0bfb 02       		.uleb128 0x2
 2157 0bfc 77       		.byte	0x77
 2158 0bfd 00       		.sleb128 0
 2159 0bfe 34       		.uleb128 0x34
 2160 0bff 01       		.uleb128 0x1
 2161 0c00 51       		.byte	0x51
 2162 0c01 02       		.uleb128 0x2
ARM GAS  /tmp/ccCS9T6O.s 			page 39


 2163 0c02 74       		.byte	0x74
 2164 0c03 00       		.sleb128 0
 2165 0c04 00       		.byte	0
 2166 0c05 3A       		.uleb128 0x3a
 2167 0c06 70000000 		.4byte	.LVL23
 2168 0c0a 34       		.uleb128 0x34
 2169 0c0b 01       		.uleb128 0x1
 2170 0c0c 50       		.byte	0x50
 2171 0c0d 0D       		.uleb128 0xd
 2172 0c0e F3       		.byte	0xf3
 2173 0c0f 01       		.uleb128 0x1
 2174 0c10 52       		.byte	0x52
 2175 0c11 0A       		.byte	0xa
 2176 0c12 2804     		.2byte	0x428
 2177 0c14 1E       		.byte	0x1e
 2178 0c15 03       		.byte	0x3
 2179 0c16 20020000 		.4byte	.LANCHOR0+544
 2180 0c1a 22       		.byte	0x22
 2181 0c1b 00       		.byte	0
 2182 0c1c 00       		.byte	0
 2183 0c1d 3B       		.uleb128 0x3b
 2184 0c1e 5C060000 		.4byte	.LASF162
 2185 0c22 01       		.byte	0x1
 2186 0c23 3A       		.byte	0x3a
 2187 0c24 01       		.byte	0x1
 2188 0c25 350C0000 		.4byte	0xc35
 2189 0c29 25       		.uleb128 0x25
 2190 0c2a 98040000 		.4byte	.LASF140
 2191 0c2e 01       		.byte	0x1
 2192 0c2f 3A       		.byte	0x3a
 2193 0c30 25000000 		.4byte	0x25
 2194 0c34 00       		.byte	0
 2195 0c35 29       		.uleb128 0x29
 2196 0c36 33040000 		.4byte	.LASF149
 2197 0c3a 01       		.byte	0x1
 2198 0c3b 33       		.byte	0x33
 2199 0c3c 00000000 		.4byte	.LFB0
 2200 0c40 24000000 		.4byte	.LFE0-.LFB0
 2201 0c44 01       		.uleb128 0x1
 2202 0c45 9C       		.byte	0x9c
 2203 0c46 9D0C0000 		.4byte	0xc9d
 2204 0c4a 2A       		.uleb128 0x2a
 2205 0c4b 52070000 		.4byte	.LASF150
 2206 0c4f 01       		.byte	0x1
 2207 0c50 33       		.byte	0x33
 2208 0c51 23090000 		.4byte	0x923
 2209 0c55 F4040000 		.4byte	.LLST0
 2210 0c59 2A       		.uleb128 0x2a
 2211 0c5a 2C030000 		.4byte	.LASF151
 2212 0c5e 01       		.byte	0x1
 2213 0c5f 34       		.byte	0x34
 2214 0c60 23090000 		.4byte	0x923
 2215 0c64 1E050000 		.4byte	.LLST1
 2216 0c68 2A       		.uleb128 0x2a
 2217 0c69 98040000 		.4byte	.LASF140
 2218 0c6d 01       		.byte	0x1
 2219 0c6e 34       		.byte	0x34
ARM GAS  /tmp/ccCS9T6O.s 			page 40


 2220 0c6f 25000000 		.4byte	0x25
 2221 0c73 48050000 		.4byte	.LLST2
 2222 0c77 36       		.uleb128 0x36
 2223 0c78 1A000000 		.4byte	.LVL4
 2224 0c7c DF0C0000 		.4byte	0xcdf
 2225 0c80 34       		.uleb128 0x34
 2226 0c81 01       		.uleb128 0x1
 2227 0c82 50       		.byte	0x50
 2228 0c83 0C       		.uleb128 0xc
 2229 0c84 74       		.byte	0x74
 2230 0c85 00       		.sleb128 0
 2231 0c86 F3       		.byte	0xf3
 2232 0c87 01       		.uleb128 0x1
 2233 0c88 52       		.byte	0x52
 2234 0c89 1E       		.byte	0x1e
 2235 0c8a 03       		.byte	0x3
 2236 0c8b 00000000 		.4byte	.LANCHOR0
 2237 0c8f 22       		.byte	0x22
 2238 0c90 34       		.uleb128 0x34
 2239 0c91 01       		.uleb128 0x1
 2240 0c92 51       		.byte	0x51
 2241 0c93 01       		.uleb128 0x1
 2242 0c94 30       		.byte	0x30
 2243 0c95 34       		.uleb128 0x34
 2244 0c96 01       		.uleb128 0x1
 2245 0c97 52       		.byte	0x52
 2246 0c98 02       		.uleb128 0x2
 2247 0c99 74       		.byte	0x74
 2248 0c9a 00       		.sleb128 0
 2249 0c9b 00       		.byte	0
 2250 0c9c 00       		.byte	0
 2251 0c9d 3C       		.uleb128 0x3c
 2252 0c9e 1D0C0000 		.4byte	0xc1d
 2253 0ca2 00000000 		.4byte	.LFB1
 2254 0ca6 18000000 		.4byte	.LFE1-.LFB1
 2255 0caa 01       		.uleb128 0x1
 2256 0cab 9C       		.byte	0x9c
 2257 0cac BA0C0000 		.4byte	0xcba
 2258 0cb0 2F       		.uleb128 0x2f
 2259 0cb1 290C0000 		.4byte	0xc29
 2260 0cb5 69050000 		.4byte	.LLST3
 2261 0cb9 00       		.byte	0
 2262 0cba 3D       		.uleb128 0x3d
 2263 0cbb 12060000 		.4byte	.LASF152
 2264 0cbf 12060000 		.4byte	.LASF152
 2265 0cc3 08       		.byte	0x8
 2266 0cc4 1C       		.byte	0x1c
 2267 0cc5 3D       		.uleb128 0x3d
 2268 0cc6 C5010000 		.4byte	.LASF153
 2269 0cca C5010000 		.4byte	.LASF153
 2270 0cce 09       		.byte	0x9
 2271 0ccf 20       		.byte	0x20
 2272 0cd0 3E       		.uleb128 0x3e
 2273 0cd1 FE030000 		.4byte	.LASF154
 2274 0cd5 14040000 		.4byte	.LASF156
 2275 0cd9 0A       		.byte	0xa
 2276 0cda 00       		.byte	0
ARM GAS  /tmp/ccCS9T6O.s 			page 41


 2277 0cdb FE030000 		.4byte	.LASF154
 2278 0cdf 3E       		.uleb128 0x3e
 2279 0ce0 86060000 		.4byte	.LASF155
 2280 0ce4 94010000 		.4byte	.LASF157
 2281 0ce8 0A       		.byte	0xa
 2282 0ce9 00       		.byte	0
 2283 0cea 86060000 		.4byte	.LASF155
 2284 0cee 00       		.byte	0
 2285              		.section	.debug_abbrev,"",%progbits
 2286              	.Ldebug_abbrev0:
 2287 0000 01       		.uleb128 0x1
 2288 0001 11       		.uleb128 0x11
 2289 0002 01       		.byte	0x1
 2290 0003 25       		.uleb128 0x25
 2291 0004 0E       		.uleb128 0xe
 2292 0005 13       		.uleb128 0x13
 2293 0006 0B       		.uleb128 0xb
 2294 0007 03       		.uleb128 0x3
 2295 0008 0E       		.uleb128 0xe
 2296 0009 1B       		.uleb128 0x1b
 2297 000a 0E       		.uleb128 0xe
 2298 000b 55       		.uleb128 0x55
 2299 000c 17       		.uleb128 0x17
 2300 000d 11       		.uleb128 0x11
 2301 000e 01       		.uleb128 0x1
 2302 000f 10       		.uleb128 0x10
 2303 0010 17       		.uleb128 0x17
 2304 0011 00       		.byte	0
 2305 0012 00       		.byte	0
 2306 0013 02       		.uleb128 0x2
 2307 0014 24       		.uleb128 0x24
 2308 0015 00       		.byte	0
 2309 0016 0B       		.uleb128 0xb
 2310 0017 0B       		.uleb128 0xb
 2311 0018 3E       		.uleb128 0x3e
 2312 0019 0B       		.uleb128 0xb
 2313 001a 03       		.uleb128 0x3
 2314 001b 08       		.uleb128 0x8
 2315 001c 00       		.byte	0
 2316 001d 00       		.byte	0
 2317 001e 03       		.uleb128 0x3
 2318 001f 24       		.uleb128 0x24
 2319 0020 00       		.byte	0
 2320 0021 0B       		.uleb128 0xb
 2321 0022 0B       		.uleb128 0xb
 2322 0023 3E       		.uleb128 0x3e
 2323 0024 0B       		.uleb128 0xb
 2324 0025 03       		.uleb128 0x3
 2325 0026 0E       		.uleb128 0xe
 2326 0027 00       		.byte	0
 2327 0028 00       		.byte	0
 2328 0029 04       		.uleb128 0x4
 2329 002a 16       		.uleb128 0x16
 2330 002b 00       		.byte	0
 2331 002c 03       		.uleb128 0x3
 2332 002d 0E       		.uleb128 0xe
 2333 002e 3A       		.uleb128 0x3a
ARM GAS  /tmp/ccCS9T6O.s 			page 42


 2334 002f 0B       		.uleb128 0xb
 2335 0030 3B       		.uleb128 0x3b
 2336 0031 0B       		.uleb128 0xb
 2337 0032 49       		.uleb128 0x49
 2338 0033 13       		.uleb128 0x13
 2339 0034 00       		.byte	0
 2340 0035 00       		.byte	0
 2341 0036 05       		.uleb128 0x5
 2342 0037 35       		.uleb128 0x35
 2343 0038 00       		.byte	0
 2344 0039 49       		.uleb128 0x49
 2345 003a 13       		.uleb128 0x13
 2346 003b 00       		.byte	0
 2347 003c 00       		.byte	0
 2348 003d 06       		.uleb128 0x6
 2349 003e 0F       		.uleb128 0xf
 2350 003f 00       		.byte	0
 2351 0040 0B       		.uleb128 0xb
 2352 0041 0B       		.uleb128 0xb
 2353 0042 49       		.uleb128 0x49
 2354 0043 13       		.uleb128 0x13
 2355 0044 00       		.byte	0
 2356 0045 00       		.byte	0
 2357 0046 07       		.uleb128 0x7
 2358 0047 13       		.uleb128 0x13
 2359 0048 00       		.byte	0
 2360 0049 03       		.uleb128 0x3
 2361 004a 0E       		.uleb128 0xe
 2362 004b 3C       		.uleb128 0x3c
 2363 004c 19       		.uleb128 0x19
 2364 004d 00       		.byte	0
 2365 004e 00       		.byte	0
 2366 004f 08       		.uleb128 0x8
 2367 0050 16       		.uleb128 0x16
 2368 0051 00       		.byte	0
 2369 0052 03       		.uleb128 0x3
 2370 0053 0E       		.uleb128 0xe
 2371 0054 3A       		.uleb128 0x3a
 2372 0055 0B       		.uleb128 0xb
 2373 0056 3B       		.uleb128 0x3b
 2374 0057 05       		.uleb128 0x5
 2375 0058 49       		.uleb128 0x49
 2376 0059 13       		.uleb128 0x13
 2377 005a 00       		.byte	0
 2378 005b 00       		.byte	0
 2379 005c 09       		.uleb128 0x9
 2380 005d 17       		.uleb128 0x17
 2381 005e 01       		.byte	0x1
 2382 005f 0B       		.uleb128 0xb
 2383 0060 0B       		.uleb128 0xb
 2384 0061 3A       		.uleb128 0x3a
 2385 0062 0B       		.uleb128 0xb
 2386 0063 3B       		.uleb128 0x3b
 2387 0064 0B       		.uleb128 0xb
 2388 0065 01       		.uleb128 0x1
 2389 0066 13       		.uleb128 0x13
 2390 0067 00       		.byte	0
ARM GAS  /tmp/ccCS9T6O.s 			page 43


 2391 0068 00       		.byte	0
 2392 0069 0A       		.uleb128 0xa
 2393 006a 0D       		.uleb128 0xd
 2394 006b 00       		.byte	0
 2395 006c 03       		.uleb128 0x3
 2396 006d 0E       		.uleb128 0xe
 2397 006e 3A       		.uleb128 0x3a
 2398 006f 0B       		.uleb128 0xb
 2399 0070 3B       		.uleb128 0x3b
 2400 0071 0B       		.uleb128 0xb
 2401 0072 49       		.uleb128 0x49
 2402 0073 13       		.uleb128 0x13
 2403 0074 00       		.byte	0
 2404 0075 00       		.byte	0
 2405 0076 0B       		.uleb128 0xb
 2406 0077 01       		.uleb128 0x1
 2407 0078 01       		.byte	0x1
 2408 0079 49       		.uleb128 0x49
 2409 007a 13       		.uleb128 0x13
 2410 007b 01       		.uleb128 0x1
 2411 007c 13       		.uleb128 0x13
 2412 007d 00       		.byte	0
 2413 007e 00       		.byte	0
 2414 007f 0C       		.uleb128 0xc
 2415 0080 21       		.uleb128 0x21
 2416 0081 00       		.byte	0
 2417 0082 49       		.uleb128 0x49
 2418 0083 13       		.uleb128 0x13
 2419 0084 2F       		.uleb128 0x2f
 2420 0085 0B       		.uleb128 0xb
 2421 0086 00       		.byte	0
 2422 0087 00       		.byte	0
 2423 0088 0D       		.uleb128 0xd
 2424 0089 13       		.uleb128 0x13
 2425 008a 01       		.byte	0x1
 2426 008b 0B       		.uleb128 0xb
 2427 008c 0B       		.uleb128 0xb
 2428 008d 3A       		.uleb128 0x3a
 2429 008e 0B       		.uleb128 0xb
 2430 008f 3B       		.uleb128 0x3b
 2431 0090 0B       		.uleb128 0xb
 2432 0091 01       		.uleb128 0x1
 2433 0092 13       		.uleb128 0x13
 2434 0093 00       		.byte	0
 2435 0094 00       		.byte	0
 2436 0095 0E       		.uleb128 0xe
 2437 0096 0D       		.uleb128 0xd
 2438 0097 00       		.byte	0
 2439 0098 03       		.uleb128 0x3
 2440 0099 0E       		.uleb128 0xe
 2441 009a 3A       		.uleb128 0x3a
 2442 009b 0B       		.uleb128 0xb
 2443 009c 3B       		.uleb128 0x3b
 2444 009d 0B       		.uleb128 0xb
 2445 009e 49       		.uleb128 0x49
 2446 009f 13       		.uleb128 0x13
 2447 00a0 38       		.uleb128 0x38
ARM GAS  /tmp/ccCS9T6O.s 			page 44


 2448 00a1 0B       		.uleb128 0xb
 2449 00a2 00       		.byte	0
 2450 00a3 00       		.byte	0
 2451 00a4 0F       		.uleb128 0xf
 2452 00a5 0F       		.uleb128 0xf
 2453 00a6 00       		.byte	0
 2454 00a7 0B       		.uleb128 0xb
 2455 00a8 0B       		.uleb128 0xb
 2456 00a9 00       		.byte	0
 2457 00aa 00       		.byte	0
 2458 00ab 10       		.uleb128 0x10
 2459 00ac 26       		.uleb128 0x26
 2460 00ad 00       		.byte	0
 2461 00ae 49       		.uleb128 0x49
 2462 00af 13       		.uleb128 0x13
 2463 00b0 00       		.byte	0
 2464 00b1 00       		.byte	0
 2465 00b2 11       		.uleb128 0x11
 2466 00b3 13       		.uleb128 0x13
 2467 00b4 01       		.byte	0x1
 2468 00b5 03       		.uleb128 0x3
 2469 00b6 0E       		.uleb128 0xe
 2470 00b7 0B       		.uleb128 0xb
 2471 00b8 0B       		.uleb128 0xb
 2472 00b9 3A       		.uleb128 0x3a
 2473 00ba 0B       		.uleb128 0xb
 2474 00bb 3B       		.uleb128 0x3b
 2475 00bc 0B       		.uleb128 0xb
 2476 00bd 01       		.uleb128 0x1
 2477 00be 13       		.uleb128 0x13
 2478 00bf 00       		.byte	0
 2479 00c0 00       		.byte	0
 2480 00c1 12       		.uleb128 0x12
 2481 00c2 0D       		.uleb128 0xd
 2482 00c3 00       		.byte	0
 2483 00c4 03       		.uleb128 0x3
 2484 00c5 08       		.uleb128 0x8
 2485 00c6 3A       		.uleb128 0x3a
 2486 00c7 0B       		.uleb128 0xb
 2487 00c8 3B       		.uleb128 0x3b
 2488 00c9 0B       		.uleb128 0xb
 2489 00ca 49       		.uleb128 0x49
 2490 00cb 13       		.uleb128 0x13
 2491 00cc 38       		.uleb128 0x38
 2492 00cd 0B       		.uleb128 0xb
 2493 00ce 00       		.byte	0
 2494 00cf 00       		.byte	0
 2495 00d0 13       		.uleb128 0x13
 2496 00d1 13       		.uleb128 0x13
 2497 00d2 01       		.byte	0x1
 2498 00d3 03       		.uleb128 0x3
 2499 00d4 0E       		.uleb128 0xe
 2500 00d5 0B       		.uleb128 0xb
 2501 00d6 05       		.uleb128 0x5
 2502 00d7 3A       		.uleb128 0x3a
 2503 00d8 0B       		.uleb128 0xb
 2504 00d9 3B       		.uleb128 0x3b
ARM GAS  /tmp/ccCS9T6O.s 			page 45


 2505 00da 0B       		.uleb128 0xb
 2506 00db 01       		.uleb128 0x1
 2507 00dc 13       		.uleb128 0x13
 2508 00dd 00       		.byte	0
 2509 00de 00       		.byte	0
 2510 00df 14       		.uleb128 0x14
 2511 00e0 0D       		.uleb128 0xd
 2512 00e1 00       		.byte	0
 2513 00e2 03       		.uleb128 0x3
 2514 00e3 0E       		.uleb128 0xe
 2515 00e4 3A       		.uleb128 0x3a
 2516 00e5 0B       		.uleb128 0xb
 2517 00e6 3B       		.uleb128 0x3b
 2518 00e7 0B       		.uleb128 0xb
 2519 00e8 49       		.uleb128 0x49
 2520 00e9 13       		.uleb128 0x13
 2521 00ea 38       		.uleb128 0x38
 2522 00eb 05       		.uleb128 0x5
 2523 00ec 00       		.byte	0
 2524 00ed 00       		.byte	0
 2525 00ee 15       		.uleb128 0x15
 2526 00ef 15       		.uleb128 0x15
 2527 00f0 00       		.byte	0
 2528 00f1 27       		.uleb128 0x27
 2529 00f2 19       		.uleb128 0x19
 2530 00f3 00       		.byte	0
 2531 00f4 00       		.byte	0
 2532 00f5 16       		.uleb128 0x16
 2533 00f6 15       		.uleb128 0x15
 2534 00f7 01       		.byte	0x1
 2535 00f8 27       		.uleb128 0x27
 2536 00f9 19       		.uleb128 0x19
 2537 00fa 49       		.uleb128 0x49
 2538 00fb 13       		.uleb128 0x13
 2539 00fc 01       		.uleb128 0x1
 2540 00fd 13       		.uleb128 0x13
 2541 00fe 00       		.byte	0
 2542 00ff 00       		.byte	0
 2543 0100 17       		.uleb128 0x17
 2544 0101 05       		.uleb128 0x5
 2545 0102 00       		.byte	0
 2546 0103 49       		.uleb128 0x49
 2547 0104 13       		.uleb128 0x13
 2548 0105 00       		.byte	0
 2549 0106 00       		.byte	0
 2550 0107 18       		.uleb128 0x18
 2551 0108 13       		.uleb128 0x13
 2552 0109 01       		.byte	0x1
 2553 010a 03       		.uleb128 0x3
 2554 010b 0E       		.uleb128 0xe
 2555 010c 0B       		.uleb128 0xb
 2556 010d 05       		.uleb128 0x5
 2557 010e 3A       		.uleb128 0x3a
 2558 010f 0B       		.uleb128 0xb
 2559 0110 3B       		.uleb128 0x3b
 2560 0111 05       		.uleb128 0x5
 2561 0112 01       		.uleb128 0x1
ARM GAS  /tmp/ccCS9T6O.s 			page 46


 2562 0113 13       		.uleb128 0x13
 2563 0114 00       		.byte	0
 2564 0115 00       		.byte	0
 2565 0116 19       		.uleb128 0x19
 2566 0117 0D       		.uleb128 0xd
 2567 0118 00       		.byte	0
 2568 0119 03       		.uleb128 0x3
 2569 011a 0E       		.uleb128 0xe
 2570 011b 3A       		.uleb128 0x3a
 2571 011c 0B       		.uleb128 0xb
 2572 011d 3B       		.uleb128 0x3b
 2573 011e 05       		.uleb128 0x5
 2574 011f 49       		.uleb128 0x49
 2575 0120 13       		.uleb128 0x13
 2576 0121 38       		.uleb128 0x38
 2577 0122 0B       		.uleb128 0xb
 2578 0123 00       		.byte	0
 2579 0124 00       		.byte	0
 2580 0125 1A       		.uleb128 0x1a
 2581 0126 0D       		.uleb128 0xd
 2582 0127 00       		.byte	0
 2583 0128 03       		.uleb128 0x3
 2584 0129 0E       		.uleb128 0xe
 2585 012a 3A       		.uleb128 0x3a
 2586 012b 0B       		.uleb128 0xb
 2587 012c 3B       		.uleb128 0x3b
 2588 012d 05       		.uleb128 0x5
 2589 012e 49       		.uleb128 0x49
 2590 012f 13       		.uleb128 0x13
 2591 0130 38       		.uleb128 0x38
 2592 0131 05       		.uleb128 0x5
 2593 0132 00       		.byte	0
 2594 0133 00       		.byte	0
 2595 0134 1B       		.uleb128 0x1b
 2596 0135 13       		.uleb128 0x13
 2597 0136 01       		.byte	0x1
 2598 0137 03       		.uleb128 0x3
 2599 0138 0E       		.uleb128 0xe
 2600 0139 0B       		.uleb128 0xb
 2601 013a 0B       		.uleb128 0xb
 2602 013b 3A       		.uleb128 0x3a
 2603 013c 0B       		.uleb128 0xb
 2604 013d 3B       		.uleb128 0x3b
 2605 013e 05       		.uleb128 0x5
 2606 013f 01       		.uleb128 0x1
 2607 0140 13       		.uleb128 0x13
 2608 0141 00       		.byte	0
 2609 0142 00       		.byte	0
 2610 0143 1C       		.uleb128 0x1c
 2611 0144 13       		.uleb128 0x13
 2612 0145 01       		.byte	0x1
 2613 0146 0B       		.uleb128 0xb
 2614 0147 0B       		.uleb128 0xb
 2615 0148 3A       		.uleb128 0x3a
 2616 0149 0B       		.uleb128 0xb
 2617 014a 3B       		.uleb128 0x3b
 2618 014b 05       		.uleb128 0x5
ARM GAS  /tmp/ccCS9T6O.s 			page 47


 2619 014c 01       		.uleb128 0x1
 2620 014d 13       		.uleb128 0x13
 2621 014e 00       		.byte	0
 2622 014f 00       		.byte	0
 2623 0150 1D       		.uleb128 0x1d
 2624 0151 17       		.uleb128 0x17
 2625 0152 01       		.byte	0x1
 2626 0153 0B       		.uleb128 0xb
 2627 0154 0B       		.uleb128 0xb
 2628 0155 3A       		.uleb128 0x3a
 2629 0156 0B       		.uleb128 0xb
 2630 0157 3B       		.uleb128 0x3b
 2631 0158 05       		.uleb128 0x5
 2632 0159 01       		.uleb128 0x1
 2633 015a 13       		.uleb128 0x13
 2634 015b 00       		.byte	0
 2635 015c 00       		.byte	0
 2636 015d 1E       		.uleb128 0x1e
 2637 015e 0D       		.uleb128 0xd
 2638 015f 00       		.byte	0
 2639 0160 03       		.uleb128 0x3
 2640 0161 0E       		.uleb128 0xe
 2641 0162 3A       		.uleb128 0x3a
 2642 0163 0B       		.uleb128 0xb
 2643 0164 3B       		.uleb128 0x3b
 2644 0165 05       		.uleb128 0x5
 2645 0166 49       		.uleb128 0x49
 2646 0167 13       		.uleb128 0x13
 2647 0168 00       		.byte	0
 2648 0169 00       		.byte	0
 2649 016a 1F       		.uleb128 0x1f
 2650 016b 15       		.uleb128 0x15
 2651 016c 01       		.byte	0x1
 2652 016d 27       		.uleb128 0x27
 2653 016e 19       		.uleb128 0x19
 2654 016f 01       		.uleb128 0x1
 2655 0170 13       		.uleb128 0x13
 2656 0171 00       		.byte	0
 2657 0172 00       		.byte	0
 2658 0173 20       		.uleb128 0x20
 2659 0174 34       		.uleb128 0x34
 2660 0175 00       		.byte	0
 2661 0176 03       		.uleb128 0x3
 2662 0177 0E       		.uleb128 0xe
 2663 0178 3A       		.uleb128 0x3a
 2664 0179 0B       		.uleb128 0xb
 2665 017a 3B       		.uleb128 0x3b
 2666 017b 05       		.uleb128 0x5
 2667 017c 49       		.uleb128 0x49
 2668 017d 13       		.uleb128 0x13
 2669 017e 3F       		.uleb128 0x3f
 2670 017f 19       		.uleb128 0x19
 2671 0180 3C       		.uleb128 0x3c
 2672 0181 19       		.uleb128 0x19
 2673 0182 00       		.byte	0
 2674 0183 00       		.byte	0
 2675 0184 21       		.uleb128 0x21
ARM GAS  /tmp/ccCS9T6O.s 			page 48


 2676 0185 13       		.uleb128 0x13
 2677 0186 01       		.byte	0x1
 2678 0187 0B       		.uleb128 0xb
 2679 0188 05       		.uleb128 0x5
 2680 0189 3A       		.uleb128 0x3a
 2681 018a 0B       		.uleb128 0xb
 2682 018b 3B       		.uleb128 0x3b
 2683 018c 0B       		.uleb128 0xb
 2684 018d 01       		.uleb128 0x1
 2685 018e 13       		.uleb128 0x13
 2686 018f 00       		.byte	0
 2687 0190 00       		.byte	0
 2688 0191 22       		.uleb128 0x22
 2689 0192 21       		.uleb128 0x21
 2690 0193 00       		.byte	0
 2691 0194 49       		.uleb128 0x49
 2692 0195 13       		.uleb128 0x13
 2693 0196 2F       		.uleb128 0x2f
 2694 0197 05       		.uleb128 0x5
 2695 0198 00       		.byte	0
 2696 0199 00       		.byte	0
 2697 019a 23       		.uleb128 0x23
 2698 019b 34       		.uleb128 0x34
 2699 019c 00       		.byte	0
 2700 019d 03       		.uleb128 0x3
 2701 019e 0E       		.uleb128 0xe
 2702 019f 3A       		.uleb128 0x3a
 2703 01a0 0B       		.uleb128 0xb
 2704 01a1 3B       		.uleb128 0x3b
 2705 01a2 0B       		.uleb128 0xb
 2706 01a3 49       		.uleb128 0x49
 2707 01a4 13       		.uleb128 0x13
 2708 01a5 02       		.uleb128 0x2
 2709 01a6 18       		.uleb128 0x18
 2710 01a7 00       		.byte	0
 2711 01a8 00       		.byte	0
 2712 01a9 24       		.uleb128 0x24
 2713 01aa 2E       		.uleb128 0x2e
 2714 01ab 01       		.byte	0x1
 2715 01ac 03       		.uleb128 0x3
 2716 01ad 0E       		.uleb128 0xe
 2717 01ae 3A       		.uleb128 0x3a
 2718 01af 0B       		.uleb128 0xb
 2719 01b0 3B       		.uleb128 0x3b
 2720 01b1 0B       		.uleb128 0xb
 2721 01b2 27       		.uleb128 0x27
 2722 01b3 19       		.uleb128 0x19
 2723 01b4 49       		.uleb128 0x49
 2724 01b5 13       		.uleb128 0x13
 2725 01b6 20       		.uleb128 0x20
 2726 01b7 0B       		.uleb128 0xb
 2727 01b8 01       		.uleb128 0x1
 2728 01b9 13       		.uleb128 0x13
 2729 01ba 00       		.byte	0
 2730 01bb 00       		.byte	0
 2731 01bc 25       		.uleb128 0x25
 2732 01bd 05       		.uleb128 0x5
ARM GAS  /tmp/ccCS9T6O.s 			page 49


 2733 01be 00       		.byte	0
 2734 01bf 03       		.uleb128 0x3
 2735 01c0 0E       		.uleb128 0xe
 2736 01c1 3A       		.uleb128 0x3a
 2737 01c2 0B       		.uleb128 0xb
 2738 01c3 3B       		.uleb128 0x3b
 2739 01c4 0B       		.uleb128 0xb
 2740 01c5 49       		.uleb128 0x49
 2741 01c6 13       		.uleb128 0x13
 2742 01c7 00       		.byte	0
 2743 01c8 00       		.byte	0
 2744 01c9 26       		.uleb128 0x26
 2745 01ca 34       		.uleb128 0x34
 2746 01cb 00       		.byte	0
 2747 01cc 03       		.uleb128 0x3
 2748 01cd 0E       		.uleb128 0xe
 2749 01ce 3A       		.uleb128 0x3a
 2750 01cf 0B       		.uleb128 0xb
 2751 01d0 3B       		.uleb128 0x3b
 2752 01d1 0B       		.uleb128 0xb
 2753 01d2 49       		.uleb128 0x49
 2754 01d3 13       		.uleb128 0x13
 2755 01d4 00       		.byte	0
 2756 01d5 00       		.byte	0
 2757 01d6 27       		.uleb128 0x27
 2758 01d7 34       		.uleb128 0x34
 2759 01d8 00       		.byte	0
 2760 01d9 03       		.uleb128 0x3
 2761 01da 08       		.uleb128 0x8
 2762 01db 3A       		.uleb128 0x3a
 2763 01dc 0B       		.uleb128 0xb
 2764 01dd 3B       		.uleb128 0x3b
 2765 01de 0B       		.uleb128 0xb
 2766 01df 49       		.uleb128 0x49
 2767 01e0 13       		.uleb128 0x13
 2768 01e1 00       		.byte	0
 2769 01e2 00       		.byte	0
 2770 01e3 28       		.uleb128 0x28
 2771 01e4 34       		.uleb128 0x34
 2772 01e5 00       		.byte	0
 2773 01e6 03       		.uleb128 0x3
 2774 01e7 0E       		.uleb128 0xe
 2775 01e8 3A       		.uleb128 0x3a
 2776 01e9 0B       		.uleb128 0xb
 2777 01ea 3B       		.uleb128 0x3b
 2778 01eb 05       		.uleb128 0x5
 2779 01ec 49       		.uleb128 0x49
 2780 01ed 13       		.uleb128 0x13
 2781 01ee 00       		.byte	0
 2782 01ef 00       		.byte	0
 2783 01f0 29       		.uleb128 0x29
 2784 01f1 2E       		.uleb128 0x2e
 2785 01f2 01       		.byte	0x1
 2786 01f3 3F       		.uleb128 0x3f
 2787 01f4 19       		.uleb128 0x19
 2788 01f5 03       		.uleb128 0x3
 2789 01f6 0E       		.uleb128 0xe
ARM GAS  /tmp/ccCS9T6O.s 			page 50


 2790 01f7 3A       		.uleb128 0x3a
 2791 01f8 0B       		.uleb128 0xb
 2792 01f9 3B       		.uleb128 0x3b
 2793 01fa 0B       		.uleb128 0xb
 2794 01fb 27       		.uleb128 0x27
 2795 01fc 19       		.uleb128 0x19
 2796 01fd 11       		.uleb128 0x11
 2797 01fe 01       		.uleb128 0x1
 2798 01ff 12       		.uleb128 0x12
 2799 0200 06       		.uleb128 0x6
 2800 0201 40       		.uleb128 0x40
 2801 0202 18       		.uleb128 0x18
 2802 0203 9742     		.uleb128 0x2117
 2803 0205 19       		.uleb128 0x19
 2804 0206 01       		.uleb128 0x1
 2805 0207 13       		.uleb128 0x13
 2806 0208 00       		.byte	0
 2807 0209 00       		.byte	0
 2808 020a 2A       		.uleb128 0x2a
 2809 020b 05       		.uleb128 0x5
 2810 020c 00       		.byte	0
 2811 020d 03       		.uleb128 0x3
 2812 020e 0E       		.uleb128 0xe
 2813 020f 3A       		.uleb128 0x3a
 2814 0210 0B       		.uleb128 0xb
 2815 0211 3B       		.uleb128 0x3b
 2816 0212 0B       		.uleb128 0xb
 2817 0213 49       		.uleb128 0x49
 2818 0214 13       		.uleb128 0x13
 2819 0215 02       		.uleb128 0x2
 2820 0216 17       		.uleb128 0x17
 2821 0217 00       		.byte	0
 2822 0218 00       		.byte	0
 2823 0219 2B       		.uleb128 0x2b
 2824 021a 34       		.uleb128 0x34
 2825 021b 00       		.byte	0
 2826 021c 03       		.uleb128 0x3
 2827 021d 0E       		.uleb128 0xe
 2828 021e 3A       		.uleb128 0x3a
 2829 021f 0B       		.uleb128 0xb
 2830 0220 3B       		.uleb128 0x3b
 2831 0221 0B       		.uleb128 0xb
 2832 0222 49       		.uleb128 0x49
 2833 0223 13       		.uleb128 0x13
 2834 0224 02       		.uleb128 0x2
 2835 0225 17       		.uleb128 0x17
 2836 0226 00       		.byte	0
 2837 0227 00       		.byte	0
 2838 0228 2C       		.uleb128 0x2c
 2839 0229 0B       		.uleb128 0xb
 2840 022a 01       		.byte	0x1
 2841 022b 55       		.uleb128 0x55
 2842 022c 17       		.uleb128 0x17
 2843 022d 01       		.uleb128 0x1
 2844 022e 13       		.uleb128 0x13
 2845 022f 00       		.byte	0
 2846 0230 00       		.byte	0
ARM GAS  /tmp/ccCS9T6O.s 			page 51


 2847 0231 2D       		.uleb128 0x2d
 2848 0232 1D       		.uleb128 0x1d
 2849 0233 01       		.byte	0x1
 2850 0234 31       		.uleb128 0x31
 2851 0235 13       		.uleb128 0x13
 2852 0236 52       		.uleb128 0x52
 2853 0237 01       		.uleb128 0x1
 2854 0238 55       		.uleb128 0x55
 2855 0239 17       		.uleb128 0x17
 2856 023a 58       		.uleb128 0x58
 2857 023b 0B       		.uleb128 0xb
 2858 023c 59       		.uleb128 0x59
 2859 023d 0B       		.uleb128 0xb
 2860 023e 00       		.byte	0
 2861 023f 00       		.byte	0
 2862 0240 2E       		.uleb128 0x2e
 2863 0241 05       		.uleb128 0x5
 2864 0242 00       		.byte	0
 2865 0243 31       		.uleb128 0x31
 2866 0244 13       		.uleb128 0x13
 2867 0245 00       		.byte	0
 2868 0246 00       		.byte	0
 2869 0247 2F       		.uleb128 0x2f
 2870 0248 05       		.uleb128 0x5
 2871 0249 00       		.byte	0
 2872 024a 31       		.uleb128 0x31
 2873 024b 13       		.uleb128 0x13
 2874 024c 02       		.uleb128 0x2
 2875 024d 17       		.uleb128 0x17
 2876 024e 00       		.byte	0
 2877 024f 00       		.byte	0
 2878 0250 30       		.uleb128 0x30
 2879 0251 0B       		.uleb128 0xb
 2880 0252 01       		.byte	0x1
 2881 0253 55       		.uleb128 0x55
 2882 0254 17       		.uleb128 0x17
 2883 0255 00       		.byte	0
 2884 0256 00       		.byte	0
 2885 0257 31       		.uleb128 0x31
 2886 0258 34       		.uleb128 0x34
 2887 0259 00       		.byte	0
 2888 025a 31       		.uleb128 0x31
 2889 025b 13       		.uleb128 0x13
 2890 025c 00       		.byte	0
 2891 025d 00       		.byte	0
 2892 025e 32       		.uleb128 0x32
 2893 025f 34       		.uleb128 0x34
 2894 0260 00       		.byte	0
 2895 0261 31       		.uleb128 0x31
 2896 0262 13       		.uleb128 0x13
 2897 0263 02       		.uleb128 0x2
 2898 0264 17       		.uleb128 0x17
 2899 0265 00       		.byte	0
 2900 0266 00       		.byte	0
 2901 0267 33       		.uleb128 0x33
 2902 0268 898201   		.uleb128 0x4109
 2903 026b 01       		.byte	0x1
ARM GAS  /tmp/ccCS9T6O.s 			page 52


 2904 026c 11       		.uleb128 0x11
 2905 026d 01       		.uleb128 0x1
 2906 026e 31       		.uleb128 0x31
 2907 026f 13       		.uleb128 0x13
 2908 0270 01       		.uleb128 0x1
 2909 0271 13       		.uleb128 0x13
 2910 0272 00       		.byte	0
 2911 0273 00       		.byte	0
 2912 0274 34       		.uleb128 0x34
 2913 0275 8A8201   		.uleb128 0x410a
 2914 0278 00       		.byte	0
 2915 0279 02       		.uleb128 0x2
 2916 027a 18       		.uleb128 0x18
 2917 027b 9142     		.uleb128 0x2111
 2918 027d 18       		.uleb128 0x18
 2919 027e 00       		.byte	0
 2920 027f 00       		.byte	0
 2921 0280 35       		.uleb128 0x35
 2922 0281 898201   		.uleb128 0x4109
 2923 0284 01       		.byte	0x1
 2924 0285 11       		.uleb128 0x11
 2925 0286 01       		.uleb128 0x1
 2926 0287 00       		.byte	0
 2927 0288 00       		.byte	0
 2928 0289 36       		.uleb128 0x36
 2929 028a 898201   		.uleb128 0x4109
 2930 028d 01       		.byte	0x1
 2931 028e 11       		.uleb128 0x11
 2932 028f 01       		.uleb128 0x1
 2933 0290 31       		.uleb128 0x31
 2934 0291 13       		.uleb128 0x13
 2935 0292 00       		.byte	0
 2936 0293 00       		.byte	0
 2937 0294 37       		.uleb128 0x37
 2938 0295 34       		.uleb128 0x34
 2939 0296 00       		.byte	0
 2940 0297 03       		.uleb128 0x3
 2941 0298 08       		.uleb128 0x8
 2942 0299 3A       		.uleb128 0x3a
 2943 029a 0B       		.uleb128 0xb
 2944 029b 3B       		.uleb128 0x3b
 2945 029c 0B       		.uleb128 0xb
 2946 029d 49       		.uleb128 0x49
 2947 029e 13       		.uleb128 0x13
 2948 029f 02       		.uleb128 0x2
 2949 02a0 17       		.uleb128 0x17
 2950 02a1 00       		.byte	0
 2951 02a2 00       		.byte	0
 2952 02a3 38       		.uleb128 0x38
 2953 02a4 1D       		.uleb128 0x1d
 2954 02a5 01       		.byte	0x1
 2955 02a6 31       		.uleb128 0x31
 2956 02a7 13       		.uleb128 0x13
 2957 02a8 11       		.uleb128 0x11
 2958 02a9 01       		.uleb128 0x1
 2959 02aa 12       		.uleb128 0x12
 2960 02ab 06       		.uleb128 0x6
ARM GAS  /tmp/ccCS9T6O.s 			page 53


 2961 02ac 58       		.uleb128 0x58
 2962 02ad 0B       		.uleb128 0xb
 2963 02ae 59       		.uleb128 0x59
 2964 02af 0B       		.uleb128 0xb
 2965 02b0 00       		.byte	0
 2966 02b1 00       		.byte	0
 2967 02b2 39       		.uleb128 0x39
 2968 02b3 05       		.uleb128 0x5
 2969 02b4 00       		.byte	0
 2970 02b5 03       		.uleb128 0x3
 2971 02b6 08       		.uleb128 0x8
 2972 02b7 3A       		.uleb128 0x3a
 2973 02b8 0B       		.uleb128 0xb
 2974 02b9 3B       		.uleb128 0x3b
 2975 02ba 0B       		.uleb128 0xb
 2976 02bb 49       		.uleb128 0x49
 2977 02bc 13       		.uleb128 0x13
 2978 02bd 02       		.uleb128 0x2
 2979 02be 17       		.uleb128 0x17
 2980 02bf 00       		.byte	0
 2981 02c0 00       		.byte	0
 2982 02c1 3A       		.uleb128 0x3a
 2983 02c2 898201   		.uleb128 0x4109
 2984 02c5 01       		.byte	0x1
 2985 02c6 11       		.uleb128 0x11
 2986 02c7 01       		.uleb128 0x1
 2987 02c8 9542     		.uleb128 0x2115
 2988 02ca 19       		.uleb128 0x19
 2989 02cb 00       		.byte	0
 2990 02cc 00       		.byte	0
 2991 02cd 3B       		.uleb128 0x3b
 2992 02ce 2E       		.uleb128 0x2e
 2993 02cf 01       		.byte	0x1
 2994 02d0 3F       		.uleb128 0x3f
 2995 02d1 19       		.uleb128 0x19
 2996 02d2 03       		.uleb128 0x3
 2997 02d3 0E       		.uleb128 0xe
 2998 02d4 3A       		.uleb128 0x3a
 2999 02d5 0B       		.uleb128 0xb
 3000 02d6 3B       		.uleb128 0x3b
 3001 02d7 0B       		.uleb128 0xb
 3002 02d8 27       		.uleb128 0x27
 3003 02d9 19       		.uleb128 0x19
 3004 02da 20       		.uleb128 0x20
 3005 02db 0B       		.uleb128 0xb
 3006 02dc 01       		.uleb128 0x1
 3007 02dd 13       		.uleb128 0x13
 3008 02de 00       		.byte	0
 3009 02df 00       		.byte	0
 3010 02e0 3C       		.uleb128 0x3c
 3011 02e1 2E       		.uleb128 0x2e
 3012 02e2 01       		.byte	0x1
 3013 02e3 31       		.uleb128 0x31
 3014 02e4 13       		.uleb128 0x13
 3015 02e5 11       		.uleb128 0x11
 3016 02e6 01       		.uleb128 0x1
 3017 02e7 12       		.uleb128 0x12
ARM GAS  /tmp/ccCS9T6O.s 			page 54


 3018 02e8 06       		.uleb128 0x6
 3019 02e9 40       		.uleb128 0x40
 3020 02ea 18       		.uleb128 0x18
 3021 02eb 9742     		.uleb128 0x2117
 3022 02ed 19       		.uleb128 0x19
 3023 02ee 01       		.uleb128 0x1
 3024 02ef 13       		.uleb128 0x13
 3025 02f0 00       		.byte	0
 3026 02f1 00       		.byte	0
 3027 02f2 3D       		.uleb128 0x3d
 3028 02f3 2E       		.uleb128 0x2e
 3029 02f4 00       		.byte	0
 3030 02f5 3F       		.uleb128 0x3f
 3031 02f6 19       		.uleb128 0x19
 3032 02f7 3C       		.uleb128 0x3c
 3033 02f8 19       		.uleb128 0x19
 3034 02f9 6E       		.uleb128 0x6e
 3035 02fa 0E       		.uleb128 0xe
 3036 02fb 03       		.uleb128 0x3
 3037 02fc 0E       		.uleb128 0xe
 3038 02fd 3A       		.uleb128 0x3a
 3039 02fe 0B       		.uleb128 0xb
 3040 02ff 3B       		.uleb128 0x3b
 3041 0300 0B       		.uleb128 0xb
 3042 0301 00       		.byte	0
 3043 0302 00       		.byte	0
 3044 0303 3E       		.uleb128 0x3e
 3045 0304 2E       		.uleb128 0x2e
 3046 0305 00       		.byte	0
 3047 0306 3F       		.uleb128 0x3f
 3048 0307 19       		.uleb128 0x19
 3049 0308 3C       		.uleb128 0x3c
 3050 0309 19       		.uleb128 0x19
 3051 030a 6E       		.uleb128 0x6e
 3052 030b 0E       		.uleb128 0xe
 3053 030c 03       		.uleb128 0x3
 3054 030d 0E       		.uleb128 0xe
 3055 030e 3A       		.uleb128 0x3a
 3056 030f 0B       		.uleb128 0xb
 3057 0310 3B       		.uleb128 0x3b
 3058 0311 0B       		.uleb128 0xb
 3059 0312 6E       		.uleb128 0x6e
 3060 0313 0E       		.uleb128 0xe
 3061 0314 00       		.byte	0
 3062 0315 00       		.byte	0
 3063 0316 00       		.byte	0
 3064              		.section	.debug_loc,"",%progbits
 3065              	.Ldebug_loc0:
 3066              	.LLST12:
 3067 0000 00000000 		.4byte	.LVL31
 3068 0004 30000000 		.4byte	.LVL33
 3069 0008 0100     		.2byte	0x1
 3070 000a 50       		.byte	0x50
 3071 000b 30000000 		.4byte	.LVL33
 3072 000f 06010000 		.4byte	.LVL54
 3073 0013 0400     		.2byte	0x4
 3074 0015 F3       		.byte	0xf3
ARM GAS  /tmp/ccCS9T6O.s 			page 55


 3075 0016 01       		.uleb128 0x1
 3076 0017 50       		.byte	0x50
 3077 0018 9F       		.byte	0x9f
 3078 0019 06010000 		.4byte	.LVL54
 3079 001d 1C010000 		.4byte	.LVL56
 3080 0021 0100     		.2byte	0x1
 3081 0023 50       		.byte	0x50
 3082 0024 1C010000 		.4byte	.LVL56
 3083 0028 6C010000 		.4byte	.LFE4
 3084 002c 0400     		.2byte	0x4
 3085 002e F3       		.byte	0xf3
 3086 002f 01       		.uleb128 0x1
 3087 0030 50       		.byte	0x50
 3088 0031 9F       		.byte	0x9f
 3089 0032 00000000 		.4byte	0
 3090 0036 00000000 		.4byte	0
 3091              	.LLST13:
 3092 003a 00000000 		.4byte	.LVL31
 3093 003e 30000000 		.4byte	.LVL33
 3094 0042 0100     		.2byte	0x1
 3095 0044 51       		.byte	0x51
 3096 0045 30000000 		.4byte	.LVL33
 3097 0049 06010000 		.4byte	.LVL54
 3098 004d 0200     		.2byte	0x2
 3099 004f 91       		.byte	0x91
 3100 0050 54       		.sleb128 -44
 3101 0051 06010000 		.4byte	.LVL54
 3102 0055 22010000 		.4byte	.LVL57
 3103 0059 0100     		.2byte	0x1
 3104 005b 51       		.byte	0x51
 3105 005c 22010000 		.4byte	.LVL57
 3106 0060 6C010000 		.4byte	.LFE4
 3107 0064 0200     		.2byte	0x2
 3108 0066 91       		.byte	0x91
 3109 0067 54       		.sleb128 -44
 3110 0068 00000000 		.4byte	0
 3111 006c 00000000 		.4byte	0
 3112              	.LLST14:
 3113 0070 00000000 		.4byte	.LVL31
 3114 0074 30000000 		.4byte	.LVL33
 3115 0078 0D00     		.2byte	0xd
 3116 007a 71       		.byte	0x71
 3117 007b 00       		.sleb128 0
 3118 007c 0A       		.byte	0xa
 3119 007d 2804     		.2byte	0x428
 3120 007f 1E       		.byte	0x1e
 3121 0080 03       		.byte	0x3
 3122 0081 00000000 		.4byte	m_handler_states
 3123 0085 22       		.byte	0x22
 3124 0086 9F       		.byte	0x9f
 3125 0087 30000000 		.4byte	.LVL33
 3126 008b 06010000 		.4byte	.LVL54
 3127 008f 0E00     		.2byte	0xe
 3128 0091 91       		.byte	0x91
 3129 0092 54       		.sleb128 -44
 3130 0093 06       		.byte	0x6
 3131 0094 0A       		.byte	0xa
ARM GAS  /tmp/ccCS9T6O.s 			page 56


 3132 0095 2804     		.2byte	0x428
 3133 0097 1E       		.byte	0x1e
 3134 0098 03       		.byte	0x3
 3135 0099 00000000 		.4byte	m_handler_states
 3136 009d 22       		.byte	0x22
 3137 009e 9F       		.byte	0x9f
 3138 009f 06010000 		.4byte	.LVL54
 3139 00a3 22010000 		.4byte	.LVL57
 3140 00a7 0D00     		.2byte	0xd
 3141 00a9 71       		.byte	0x71
 3142 00aa 00       		.sleb128 0
 3143 00ab 0A       		.byte	0xa
 3144 00ac 2804     		.2byte	0x428
 3145 00ae 1E       		.byte	0x1e
 3146 00af 03       		.byte	0x3
 3147 00b0 00000000 		.4byte	m_handler_states
 3148 00b4 22       		.byte	0x22
 3149 00b5 9F       		.byte	0x9f
 3150 00b6 22010000 		.4byte	.LVL57
 3151 00ba 6C010000 		.4byte	.LFE4
 3152 00be 0E00     		.2byte	0xe
 3153 00c0 91       		.byte	0x91
 3154 00c1 54       		.sleb128 -44
 3155 00c2 06       		.byte	0x6
 3156 00c3 0A       		.byte	0xa
 3157 00c4 2804     		.2byte	0x428
 3158 00c6 1E       		.byte	0x1e
 3159 00c7 03       		.byte	0x3
 3160 00c8 00000000 		.4byte	m_handler_states
 3161 00cc 22       		.byte	0x22
 3162 00cd 9F       		.byte	0x9f
 3163 00ce 00000000 		.4byte	0
 3164 00d2 00000000 		.4byte	0
 3165              	.LLST15:
 3166 00d6 1E000000 		.4byte	.LVL32
 3167 00da 42000000 		.4byte	.LVL34
 3168 00de 0100     		.2byte	0x1
 3169 00e0 54       		.byte	0x54
 3170 00e1 42000000 		.4byte	.LVL34
 3171 00e5 4E000000 		.4byte	.LVL35
 3172 00e9 0300     		.2byte	0x3
 3173 00eb 74       		.byte	0x74
 3174 00ec 01       		.sleb128 1
 3175 00ed 9F       		.byte	0x9f
 3176 00ee 54000000 		.4byte	.LVL36
 3177 00f2 64000000 		.4byte	.LVL37
 3178 00f6 0300     		.2byte	0x3
 3179 00f8 74       		.byte	0x74
 3180 00f9 01       		.sleb128 1
 3181 00fa 9F       		.byte	0x9f
 3182 00fb 64000000 		.4byte	.LVL37
 3183 00ff 4A010000 		.4byte	.LVL62
 3184 0103 0100     		.2byte	0x1
 3185 0105 54       		.byte	0x54
 3186 0106 4E010000 		.4byte	.LVL64
 3187 010a 52010000 		.4byte	.LVL65
 3188 010e 0100     		.2byte	0x1
ARM GAS  /tmp/ccCS9T6O.s 			page 57


 3189 0110 54       		.byte	0x54
 3190 0111 62010000 		.4byte	.LVL67
 3191 0115 6C010000 		.4byte	.LFE4
 3192 0119 0100     		.2byte	0x1
 3193 011b 54       		.byte	0x54
 3194 011c 00000000 		.4byte	0
 3195 0120 00000000 		.4byte	0
 3196              	.LLST16:
 3197 0124 78000000 		.4byte	.LVL39
 3198 0128 DE000000 		.4byte	.LVL47
 3199 012c 0100     		.2byte	0x1
 3200 012e 59       		.byte	0x59
 3201 012f EE000000 		.4byte	.LVL49
 3202 0133 06010000 		.4byte	.LVL54
 3203 0137 0100     		.2byte	0x1
 3204 0139 59       		.byte	0x59
 3205 013a 2E010000 		.4byte	.LVL59
 3206 013e 36010000 		.4byte	.LVL60
 3207 0142 0100     		.2byte	0x1
 3208 0144 59       		.byte	0x59
 3209 0145 3C010000 		.4byte	.LVL61
 3210 0149 4C010000 		.4byte	.LVL63
 3211 014d 0100     		.2byte	0x1
 3212 014f 59       		.byte	0x59
 3213 0150 4E010000 		.4byte	.LVL64
 3214 0154 60010000 		.4byte	.LVL66
 3215 0158 0100     		.2byte	0x1
 3216 015a 59       		.byte	0x59
 3217 015b 62010000 		.4byte	.LVL67
 3218 015f 6C010000 		.4byte	.LFE4
 3219 0163 0100     		.2byte	0x1
 3220 0165 59       		.byte	0x59
 3221 0166 00000000 		.4byte	0
 3222 016a 00000000 		.4byte	0
 3223              	.LLST17:
 3224 016e 78000000 		.4byte	.LVL39
 3225 0172 DE000000 		.4byte	.LVL47
 3226 0176 0100     		.2byte	0x1
 3227 0178 54       		.byte	0x54
 3228 0179 EE000000 		.4byte	.LVL49
 3229 017d 00010000 		.4byte	.LVL53
 3230 0181 0100     		.2byte	0x1
 3231 0183 54       		.byte	0x54
 3232 0184 00010000 		.4byte	.LVL53
 3233 0188 06010000 		.4byte	.LVL54
 3234 018c 0300     		.2byte	0x3
 3235 018e 74       		.byte	0x74
 3236 018f 01       		.sleb128 1
 3237 0190 9F       		.byte	0x9f
 3238 0191 2E010000 		.4byte	.LVL59
 3239 0195 36010000 		.4byte	.LVL60
 3240 0199 0100     		.2byte	0x1
 3241 019b 54       		.byte	0x54
 3242 019c 3C010000 		.4byte	.LVL61
 3243 01a0 4A010000 		.4byte	.LVL62
 3244 01a4 0100     		.2byte	0x1
 3245 01a6 54       		.byte	0x54
ARM GAS  /tmp/ccCS9T6O.s 			page 58


 3246 01a7 4E010000 		.4byte	.LVL64
 3247 01ab 52010000 		.4byte	.LVL65
 3248 01af 0100     		.2byte	0x1
 3249 01b1 54       		.byte	0x54
 3250 01b2 62010000 		.4byte	.LVL67
 3251 01b6 6C010000 		.4byte	.LFE4
 3252 01ba 0100     		.2byte	0x1
 3253 01bc 54       		.byte	0x54
 3254 01bd 00000000 		.4byte	0
 3255 01c1 00000000 		.4byte	0
 3256              	.LLST18:
 3257 01c5 78000000 		.4byte	.LVL39
 3258 01c9 DE000000 		.4byte	.LVL47
 3259 01cd 0100     		.2byte	0x1
 3260 01cf 57       		.byte	0x57
 3261 01d0 EE000000 		.4byte	.LVL49
 3262 01d4 06010000 		.4byte	.LVL54
 3263 01d8 0100     		.2byte	0x1
 3264 01da 57       		.byte	0x57
 3265 01db 2E010000 		.4byte	.LVL59
 3266 01df 36010000 		.4byte	.LVL60
 3267 01e3 0100     		.2byte	0x1
 3268 01e5 57       		.byte	0x57
 3269 01e6 3C010000 		.4byte	.LVL61
 3270 01ea 4C010000 		.4byte	.LVL63
 3271 01ee 0100     		.2byte	0x1
 3272 01f0 57       		.byte	0x57
 3273 01f1 4E010000 		.4byte	.LVL64
 3274 01f5 60010000 		.4byte	.LVL66
 3275 01f9 0100     		.2byte	0x1
 3276 01fb 57       		.byte	0x57
 3277 01fc 62010000 		.4byte	.LVL67
 3278 0200 6C010000 		.4byte	.LFE4
 3279 0204 0100     		.2byte	0x1
 3280 0206 57       		.byte	0x57
 3281 0207 00000000 		.4byte	0
 3282 020b 00000000 		.4byte	0
 3283              	.LLST19:
 3284 020f 7E000000 		.4byte	.LVL40
 3285 0213 BA000000 		.4byte	.LVL44
 3286 0217 0100     		.2byte	0x1
 3287 0219 50       		.byte	0x50
 3288 021a BA000000 		.4byte	.LVL44
 3289 021e BF000000 		.4byte	.LVL45-1
 3290 0222 0800     		.2byte	0x8
 3291 0224 77       		.byte	0x77
 3292 0225 00       		.sleb128 0
 3293 0226 94       		.byte	0x94
 3294 0227 01       		.byte	0x1
 3295 0228 08       		.byte	0x8
 3296 0229 FF       		.byte	0xff
 3297 022a 1A       		.byte	0x1a
 3298 022b 9F       		.byte	0x9f
 3299 022c EE000000 		.4byte	.LVL49
 3300 0230 F8000000 		.4byte	.LVL52
 3301 0234 0100     		.2byte	0x1
 3302 0236 50       		.byte	0x50
ARM GAS  /tmp/ccCS9T6O.s 			page 59


 3303 0237 3C010000 		.4byte	.LVL61
 3304 023b 4C010000 		.4byte	.LVL63
 3305 023f 0100     		.2byte	0x1
 3306 0241 50       		.byte	0x50
 3307 0242 4E010000 		.4byte	.LVL64
 3308 0246 60010000 		.4byte	.LVL66
 3309 024a 0100     		.2byte	0x1
 3310 024c 50       		.byte	0x50
 3311 024d 62010000 		.4byte	.LVL67
 3312 0251 6C010000 		.4byte	.LFE4
 3313 0255 0100     		.2byte	0x1
 3314 0257 50       		.byte	0x50
 3315 0258 00000000 		.4byte	0
 3316 025c 00000000 		.4byte	0
 3317              	.LLST20:
 3318 0260 7E000000 		.4byte	.LVL40
 3319 0264 BA000000 		.4byte	.LVL44
 3320 0268 0800     		.2byte	0x8
 3321 026a 70       		.byte	0x70
 3322 026b 00       		.sleb128 0
 3323 026c 08       		.byte	0x8
 3324 026d FF       		.byte	0xff
 3325 026e 1A       		.byte	0x1a
 3326 026f 33       		.byte	0x33
 3327 0270 29       		.byte	0x29
 3328 0271 9F       		.byte	0x9f
 3329 0272 BA000000 		.4byte	.LVL44
 3330 0276 BF000000 		.4byte	.LVL45-1
 3331 027a 0700     		.2byte	0x7
 3332 027c 77       		.byte	0x77
 3333 027d 00       		.sleb128 0
 3334 027e 94       		.byte	0x94
 3335 027f 01       		.byte	0x1
 3336 0280 33       		.byte	0x33
 3337 0281 29       		.byte	0x29
 3338 0282 9F       		.byte	0x9f
 3339 0283 EE000000 		.4byte	.LVL49
 3340 0287 F8000000 		.4byte	.LVL52
 3341 028b 0800     		.2byte	0x8
 3342 028d 70       		.byte	0x70
 3343 028e 00       		.sleb128 0
 3344 028f 08       		.byte	0x8
 3345 0290 FF       		.byte	0xff
 3346 0291 1A       		.byte	0x1a
 3347 0292 33       		.byte	0x33
 3348 0293 29       		.byte	0x29
 3349 0294 9F       		.byte	0x9f
 3350 0295 3C010000 		.4byte	.LVL61
 3351 0299 6C010000 		.4byte	.LFE4
 3352 029d 0800     		.2byte	0x8
 3353 029f 70       		.byte	0x70
 3354 02a0 00       		.sleb128 0
 3355 02a1 08       		.byte	0x8
 3356 02a2 FF       		.byte	0xff
 3357 02a3 1A       		.byte	0x1a
 3358 02a4 33       		.byte	0x33
 3359 02a5 29       		.byte	0x29
ARM GAS  /tmp/ccCS9T6O.s 			page 60


 3360 02a6 9F       		.byte	0x9f
 3361 02a7 00000000 		.4byte	0
 3362 02ab 00000000 		.4byte	0
 3363              	.LLST21:
 3364 02af 8A000000 		.4byte	.LVL41
 3365 02b3 92000000 		.4byte	.LVL42
 3366 02b7 0200     		.2byte	0x2
 3367 02b9 30       		.byte	0x30
 3368 02ba 9F       		.byte	0x9f
 3369 02bb 92000000 		.4byte	.LVL42
 3370 02bf 9C000000 		.4byte	.LVL43
 3371 02c3 1200     		.2byte	0x12
 3372 02c5 77       		.byte	0x77
 3373 02c6 01       		.sleb128 1
 3374 02c7 94       		.byte	0x94
 3375 02c8 01       		.byte	0x1
 3376 02c9 08       		.byte	0x8
 3377 02ca FF       		.byte	0xff
 3378 02cb 1A       		.byte	0x1a
 3379 02cc 38       		.byte	0x38
 3380 02cd 24       		.byte	0x24
 3381 02ce 77       		.byte	0x77
 3382 02cf 02       		.sleb128 2
 3383 02d0 94       		.byte	0x94
 3384 02d1 01       		.byte	0x1
 3385 02d2 08       		.byte	0x8
 3386 02d3 FF       		.byte	0xff
 3387 02d4 1A       		.byte	0x1a
 3388 02d5 21       		.byte	0x21
 3389 02d6 9F       		.byte	0x9f
 3390 02d7 F2000000 		.4byte	.LVL50
 3391 02db F4000000 		.4byte	.LVL51
 3392 02df 0200     		.2byte	0x2
 3393 02e1 30       		.byte	0x30
 3394 02e2 9F       		.byte	0x9f
 3395 02e3 F4000000 		.4byte	.LVL51
 3396 02e7 F8000000 		.4byte	.LVL52
 3397 02eb 0100     		.2byte	0x1
 3398 02ed 55       		.byte	0x55
 3399 02ee 00000000 		.4byte	0
 3400 02f2 00000000 		.4byte	0
 3401              	.LLST22:
 3402 02f6 C0000000 		.4byte	.LVL45
 3403 02fa DC000000 		.4byte	.LVL46
 3404 02fe 0100     		.2byte	0x1
 3405 0300 50       		.byte	0x50
 3406 0301 00000000 		.4byte	0
 3407 0305 00000000 		.4byte	0
 3408              	.LLST23:
 3409 0309 C0000000 		.4byte	.LVL45
 3410 030d DD000000 		.4byte	.LVL47-1
 3411 0311 1600     		.2byte	0x16
 3412 0313 91       		.byte	0x91
 3413 0314 44       		.sleb128 -60
 3414 0315 06       		.byte	0x6
 3415 0316 94       		.byte	0x94
 3416 0317 01       		.byte	0x1
ARM GAS  /tmp/ccCS9T6O.s 			page 61


 3417 0318 08       		.byte	0x8
 3418 0319 FF       		.byte	0xff
 3419 031a 1A       		.byte	0x1a
 3420 031b 38       		.byte	0x38
 3421 031c 24       		.byte	0x24
 3422 031d 91       		.byte	0x91
 3423 031e 44       		.sleb128 -60
 3424 031f 06       		.byte	0x6
 3425 0320 23       		.byte	0x23
 3426 0321 01       		.uleb128 0x1
 3427 0322 94       		.byte	0x94
 3428 0323 01       		.byte	0x1
 3429 0324 08       		.byte	0x8
 3430 0325 FF       		.byte	0xff
 3431 0326 1A       		.byte	0x1a
 3432 0327 21       		.byte	0x21
 3433 0328 9F       		.byte	0x9f
 3434 0329 00000000 		.4byte	0
 3435 032d 00000000 		.4byte	0
 3436              	.LLST10:
 3437 0331 00000000 		.4byte	.LVL27
 3438 0335 0C000000 		.4byte	.LVL28
 3439 0339 0200     		.2byte	0x2
 3440 033b 30       		.byte	0x30
 3441 033c 9F       		.byte	0x9f
 3442 033d 0C000000 		.4byte	.LVL28
 3443 0341 38000000 		.4byte	.LFE3
 3444 0345 0100     		.2byte	0x1
 3445 0347 52       		.byte	0x52
 3446 0348 00000000 		.4byte	0
 3447 034c 00000000 		.4byte	0
 3448              	.LLST11:
 3449 0350 0C000000 		.4byte	.LVL28
 3450 0354 20000000 		.4byte	.LVL29
 3451 0358 0100     		.2byte	0x1
 3452 035a 52       		.byte	0x52
 3453 035b 20000000 		.4byte	.LVL29
 3454 035f 2C000000 		.4byte	.LVL30
 3455 0363 0300     		.2byte	0x3
 3456 0365 72       		.byte	0x72
 3457 0366 7F       		.sleb128 -1
 3458 0367 9F       		.byte	0x9f
 3459 0368 2C000000 		.4byte	.LVL30
 3460 036c 38000000 		.4byte	.LFE3
 3461 0370 0100     		.2byte	0x1
 3462 0372 52       		.byte	0x52
 3463 0373 00000000 		.4byte	0
 3464 0377 00000000 		.4byte	0
 3465              	.LLST4:
 3466 037b 00000000 		.4byte	.LVL8
 3467 037f 3E000000 		.4byte	.LVL13
 3468 0383 0100     		.2byte	0x1
 3469 0385 50       		.byte	0x50
 3470 0386 3E000000 		.4byte	.LVL13
 3471 038a 6E000000 		.4byte	.LVL22
 3472 038e 0100     		.2byte	0x1
 3473 0390 57       		.byte	0x57
ARM GAS  /tmp/ccCS9T6O.s 			page 62


 3474 0391 6E000000 		.4byte	.LVL22
 3475 0395 70000000 		.4byte	.LVL23
 3476 0399 0400     		.2byte	0x4
 3477 039b F3       		.byte	0xf3
 3478 039c 01       		.uleb128 0x1
 3479 039d 50       		.byte	0x50
 3480 039e 9F       		.byte	0x9f
 3481 039f 70000000 		.4byte	.LVL23
 3482 03a3 74000000 		.4byte	.LVL24
 3483 03a7 0100     		.2byte	0x1
 3484 03a9 57       		.byte	0x57
 3485 03aa 74000000 		.4byte	.LVL24
 3486 03ae 8C000000 		.4byte	.LFE2
 3487 03b2 0100     		.2byte	0x1
 3488 03b4 50       		.byte	0x50
 3489 03b5 00000000 		.4byte	0
 3490 03b9 00000000 		.4byte	0
 3491              	.LLST5:
 3492 03bd 00000000 		.4byte	.LVL8
 3493 03c1 40000000 		.4byte	.LVL14
 3494 03c5 0100     		.2byte	0x1
 3495 03c7 51       		.byte	0x51
 3496 03c8 40000000 		.4byte	.LVL14
 3497 03cc 43000000 		.4byte	.LVL15-1
 3498 03d0 0100     		.2byte	0x1
 3499 03d2 52       		.byte	0x52
 3500 03d3 43000000 		.4byte	.LVL15-1
 3501 03d7 5A000000 		.4byte	.LVL18
 3502 03db 0100     		.2byte	0x1
 3503 03dd 54       		.byte	0x54
 3504 03de 5A000000 		.4byte	.LVL18
 3505 03e2 74000000 		.4byte	.LVL24
 3506 03e6 0400     		.2byte	0x4
 3507 03e8 F3       		.byte	0xf3
 3508 03e9 01       		.uleb128 0x1
 3509 03ea 51       		.byte	0x51
 3510 03eb 9F       		.byte	0x9f
 3511 03ec 74000000 		.4byte	.LVL24
 3512 03f0 8C000000 		.4byte	.LFE2
 3513 03f4 0100     		.2byte	0x1
 3514 03f6 51       		.byte	0x51
 3515 03f7 00000000 		.4byte	0
 3516 03fb 00000000 		.4byte	0
 3517              	.LLST6:
 3518 03ff 00000000 		.4byte	.LVL8
 3519 0403 3A000000 		.4byte	.LVL12
 3520 0407 0100     		.2byte	0x1
 3521 0409 52       		.byte	0x52
 3522 040a 3A000000 		.4byte	.LVL12
 3523 040e 74000000 		.4byte	.LVL24
 3524 0412 0400     		.2byte	0x4
 3525 0414 F3       		.byte	0xf3
 3526 0415 01       		.uleb128 0x1
 3527 0416 52       		.byte	0x52
 3528 0417 9F       		.byte	0x9f
 3529 0418 74000000 		.4byte	.LVL24
 3530 041c 8C000000 		.4byte	.LFE2
ARM GAS  /tmp/ccCS9T6O.s 			page 63


 3531 0420 0100     		.2byte	0x1
 3532 0422 52       		.byte	0x52
 3533 0423 00000000 		.4byte	0
 3534 0427 00000000 		.4byte	0
 3535              	.LLST7:
 3536 042b 08000000 		.4byte	.LVL9
 3537 042f 1C000000 		.4byte	.LVL10
 3538 0433 0200     		.2byte	0x2
 3539 0435 30       		.byte	0x30
 3540 0436 9F       		.byte	0x9f
 3541 0437 1C000000 		.4byte	.LVL10
 3542 043b 26000000 		.4byte	.LVL11
 3543 043f 0200     		.2byte	0x2
 3544 0441 31       		.byte	0x31
 3545 0442 9F       		.byte	0x9f
 3546 0443 50000000 		.4byte	.LVL17
 3547 0447 60000000 		.4byte	.LVL20
 3548 044b 0300     		.2byte	0x3
 3549 044d 71       		.byte	0x71
 3550 044e 01       		.sleb128 1
 3551 044f 9F       		.byte	0x9f
 3552 0450 60000000 		.4byte	.LVL20
 3553 0454 62000000 		.4byte	.LVL21
 3554 0458 0300     		.2byte	0x3
 3555 045a 71       		.byte	0x71
 3556 045b 02       		.sleb128 2
 3557 045c 9F       		.byte	0x9f
 3558 045d 62000000 		.4byte	.LVL21
 3559 0461 6F000000 		.4byte	.LVL23-1
 3560 0465 0100     		.2byte	0x1
 3561 0467 51       		.byte	0x51
 3562 0468 70000000 		.4byte	.LVL23
 3563 046c 74000000 		.4byte	.LVL24
 3564 0470 0100     		.2byte	0x1
 3565 0472 51       		.byte	0x51
 3566 0473 76000000 		.4byte	.LVL25
 3567 0477 86000000 		.4byte	.LVL26
 3568 047b 0200     		.2byte	0x2
 3569 047d 31       		.byte	0x31
 3570 047e 9F       		.byte	0x9f
 3571 047f 86000000 		.4byte	.LVL26
 3572 0483 8C000000 		.4byte	.LFE2
 3573 0487 0200     		.2byte	0x2
 3574 0489 33       		.byte	0x33
 3575 048a 9F       		.byte	0x9f
 3576 048b 00000000 		.4byte	0
 3577 048f 00000000 		.4byte	0
 3578              	.LLST8:
 3579 0493 08000000 		.4byte	.LVL9
 3580 0497 3A000000 		.4byte	.LVL12
 3581 049b 0D00     		.2byte	0xd
 3582 049d 72       		.byte	0x72
 3583 049e 00       		.sleb128 0
 3584 049f 0A       		.byte	0xa
 3585 04a0 2804     		.2byte	0x428
 3586 04a2 1E       		.byte	0x1e
 3587 04a3 03       		.byte	0x3
ARM GAS  /tmp/ccCS9T6O.s 			page 64


 3588 04a4 00000000 		.4byte	m_handler_states
 3589 04a8 22       		.byte	0x22
 3590 04a9 9F       		.byte	0x9f
 3591 04aa 3A000000 		.4byte	.LVL12
 3592 04ae 74000000 		.4byte	.LVL24
 3593 04b2 0E00     		.2byte	0xe
 3594 04b4 F3       		.byte	0xf3
 3595 04b5 01       		.uleb128 0x1
 3596 04b6 52       		.byte	0x52
 3597 04b7 0A       		.byte	0xa
 3598 04b8 2804     		.2byte	0x428
 3599 04ba 1E       		.byte	0x1e
 3600 04bb 03       		.byte	0x3
 3601 04bc 00000000 		.4byte	m_handler_states
 3602 04c0 22       		.byte	0x22
 3603 04c1 9F       		.byte	0x9f
 3604 04c2 76000000 		.4byte	.LVL25
 3605 04c6 8C000000 		.4byte	.LFE2
 3606 04ca 0D00     		.2byte	0xd
 3607 04cc 72       		.byte	0x72
 3608 04cd 00       		.sleb128 0
 3609 04ce 0A       		.byte	0xa
 3610 04cf 2804     		.2byte	0x428
 3611 04d1 1E       		.byte	0x1e
 3612 04d2 03       		.byte	0x3
 3613 04d3 00000000 		.4byte	m_handler_states
 3614 04d7 22       		.byte	0x22
 3615 04d8 9F       		.byte	0x9f
 3616 04d9 00000000 		.4byte	0
 3617 04dd 00000000 		.4byte	0
 3618              	.LLST9:
 3619 04e1 50000000 		.4byte	.LVL17
 3620 04e5 5C000000 		.4byte	.LVL19
 3621 04e9 0100     		.2byte	0x1
 3622 04eb 50       		.byte	0x50
 3623 04ec 00000000 		.4byte	0
 3624 04f0 00000000 		.4byte	0
 3625              	.LLST0:
 3626 04f4 00000000 		.4byte	.LVL0
 3627 04f8 14000000 		.4byte	.LVL2
 3628 04fc 0100     		.2byte	0x1
 3629 04fe 50       		.byte	0x50
 3630 04ff 14000000 		.4byte	.LVL2
 3631 0503 20000000 		.4byte	.LVL5
 3632 0507 0100     		.2byte	0x1
 3633 0509 56       		.byte	0x56
 3634 050a 20000000 		.4byte	.LVL5
 3635 050e 24000000 		.4byte	.LFE0
 3636 0512 0200     		.2byte	0x2
 3637 0514 70       		.byte	0x70
 3638 0515 04       		.sleb128 4
 3639 0516 00000000 		.4byte	0
 3640 051a 00000000 		.4byte	0
 3641              	.LLST1:
 3642 051e 00000000 		.4byte	.LVL0
 3643 0522 16000000 		.4byte	.LVL3
 3644 0526 0100     		.2byte	0x1
ARM GAS  /tmp/ccCS9T6O.s 			page 65


 3645 0528 51       		.byte	0x51
 3646 0529 16000000 		.4byte	.LVL3
 3647 052d 20000000 		.4byte	.LVL5
 3648 0531 0100     		.2byte	0x1
 3649 0533 55       		.byte	0x55
 3650 0534 20000000 		.4byte	.LVL5
 3651 0538 24000000 		.4byte	.LFE0
 3652 053c 0200     		.2byte	0x2
 3653 053e 70       		.byte	0x70
 3654 053f 08       		.sleb128 8
 3655 0540 00000000 		.4byte	0
 3656 0544 00000000 		.4byte	0
 3657              	.LLST2:
 3658 0548 00000000 		.4byte	.LVL0
 3659 054c 12000000 		.4byte	.LVL1
 3660 0550 0100     		.2byte	0x1
 3661 0552 52       		.byte	0x52
 3662 0553 12000000 		.4byte	.LVL1
 3663 0557 24000000 		.4byte	.LFE0
 3664 055b 0400     		.2byte	0x4
 3665 055d F3       		.byte	0xf3
 3666 055e 01       		.uleb128 0x1
 3667 055f 52       		.byte	0x52
 3668 0560 9F       		.byte	0x9f
 3669 0561 00000000 		.4byte	0
 3670 0565 00000000 		.4byte	0
 3671              	.LLST3:
 3672 0569 00000000 		.4byte	.LVL6
 3673 056d 0A000000 		.4byte	.LVL7
 3674 0571 0100     		.2byte	0x1
 3675 0573 50       		.byte	0x50
 3676 0574 0A000000 		.4byte	.LVL7
 3677 0578 18000000 		.4byte	.LFE1
 3678 057c 0400     		.2byte	0x4
 3679 057e F3       		.byte	0xf3
 3680 057f 01       		.uleb128 0x1
 3681 0580 50       		.byte	0x50
 3682 0581 9F       		.byte	0x9f
 3683 0582 00000000 		.4byte	0
 3684 0586 00000000 		.4byte	0
 3685              		.section	.debug_aranges,"",%progbits
 3686 0000 3C000000 		.4byte	0x3c
 3687 0004 0200     		.2byte	0x2
 3688 0006 00000000 		.4byte	.Ldebug_info0
 3689 000a 04       		.byte	0x4
 3690 000b 00       		.byte	0
 3691 000c 0000     		.2byte	0
 3692 000e 0000     		.2byte	0
 3693 0010 00000000 		.4byte	.LFB0
 3694 0014 24000000 		.4byte	.LFE0-.LFB0
 3695 0018 00000000 		.4byte	.LFB1
 3696 001c 18000000 		.4byte	.LFE1-.LFB1
 3697 0020 00000000 		.4byte	.LFB2
 3698 0024 8C000000 		.4byte	.LFE2-.LFB2
 3699 0028 00000000 		.4byte	.LFB3
 3700 002c 38000000 		.4byte	.LFE3-.LFB3
 3701 0030 00000000 		.4byte	.LFB4
ARM GAS  /tmp/ccCS9T6O.s 			page 66


 3702 0034 6C010000 		.4byte	.LFE4-.LFB4
 3703 0038 00000000 		.4byte	0
 3704 003c 00000000 		.4byte	0
 3705              		.section	.debug_ranges,"",%progbits
 3706              	.Ldebug_ranges0:
 3707 0000 04000000 		.4byte	.LBB5
 3708 0004 28000000 		.4byte	.LBE5
 3709 0008 2C000000 		.4byte	.LBB8
 3710 000c 38000000 		.4byte	.LBE8
 3711 0010 00000000 		.4byte	0
 3712 0014 00000000 		.4byte	0
 3713 0018 54000000 		.4byte	.LBB12
 3714 001c 62000000 		.4byte	.LBE12
 3715 0020 64000000 		.4byte	.LBB29
 3716 0024 06010000 		.4byte	.LBE29
 3717 0028 2E010000 		.4byte	.LBB30
 3718 002c 30010000 		.4byte	.LBE30
 3719 0030 34010000 		.4byte	.LBB31
 3720 0034 36010000 		.4byte	.LBE31
 3721 0038 3C010000 		.4byte	.LBB32
 3722 003c 6C010000 		.4byte	.LBE32
 3723 0040 00000000 		.4byte	0
 3724 0044 00000000 		.4byte	0
 3725 0048 5E000000 		.4byte	.LBB13
 3726 004c 62000000 		.4byte	.LBE13
 3727 0050 64000000 		.4byte	.LBB22
 3728 0054 66000000 		.4byte	.LBE22
 3729 0058 6E000000 		.4byte	.LBB23
 3730 005c 76000000 		.4byte	.LBE23
 3731 0060 78000000 		.4byte	.LBB24
 3732 0064 DE000000 		.4byte	.LBE24
 3733 0068 EE000000 		.4byte	.LBB25
 3734 006c F8000000 		.4byte	.LBE25
 3735 0070 2E010000 		.4byte	.LBB26
 3736 0074 30010000 		.4byte	.LBE26
 3737 0078 34010000 		.4byte	.LBB27
 3738 007c 36010000 		.4byte	.LBE27
 3739 0080 3C010000 		.4byte	.LBB28
 3740 0084 6C010000 		.4byte	.LBE28
 3741 0088 00000000 		.4byte	0
 3742 008c 00000000 		.4byte	0
 3743 0090 00000000 		.4byte	.LFB0
 3744 0094 24000000 		.4byte	.LFE0
 3745 0098 00000000 		.4byte	.LFB1
 3746 009c 18000000 		.4byte	.LFE1
 3747 00a0 00000000 		.4byte	.LFB2
 3748 00a4 8C000000 		.4byte	.LFE2
 3749 00a8 00000000 		.4byte	.LFB3
 3750 00ac 38000000 		.4byte	.LFE3
 3751 00b0 00000000 		.4byte	.LFB4
 3752 00b4 6C010000 		.4byte	.LFE4
 3753 00b8 00000000 		.4byte	0
 3754 00bc 00000000 		.4byte	0
 3755              		.section	.debug_line,"",%progbits
 3756              	.Ldebug_line0:
 3757 0000 1B020000 		.section	.debug_str,"MS",%progbits,1
 3757      02001601 
ARM GAS  /tmp/ccCS9T6O.s 			page 67


 3757      00000201 
 3757      FB0E0D00 
 3757      01010101 
 3758              	.LASF39:
 3759 0000 5F64736F 		.ascii	"_dso_handle\000"
 3759      5F68616E 
 3759      646C6500 
 3760              	.LASF123:
 3761 000c 73656E64 		.ascii	"send_func\000"
 3761      5F66756E 
 3761      6300
 3762              	.LASF47:
 3763 0016 5F73697A 		.ascii	"_size\000"
 3763      6500
 3764              	.LASF91:
 3765 001c 5F72616E 		.ascii	"_rand48\000"
 3765      64343800 
 3766              	.LASF71:
 3767 0024 5F656D65 		.ascii	"_emergency\000"
 3767      7267656E 
 3767      637900
 3768              	.LASF145:
 3769 002f 7061636B 		.ascii	"packet_timerfunc\000"
 3769      65745F74 
 3769      696D6572 
 3769      66756E63 
 3769      00
 3770              	.LASF9:
 3771 0040 5F5F7569 		.ascii	"__uint8_t\000"
 3771      6E74385F 
 3771      7400
 3772              	.LASF61:
 3773 004a 5F646174 		.ascii	"_data\000"
 3773      6100
 3774              	.LASF158:
 3775 0050 474E5520 		.ascii	"GNU C99 7.3.1 20180622 (release) [ARM/embedded-7-br"
 3775      43393920 
 3775      372E332E 
 3775      31203230 
 3775      31383036 
 3776 0083 616E6368 		.ascii	"anch revision 261907] -mcpu=cortex-m4 -mfloat-abi=h"
 3776      20726576 
 3776      6973696F 
 3776      6E203236 
 3776      31393037 
 3777 00b6 61726420 		.ascii	"ard -mfpu=fpv4-sp-d16 -mno-thumb-interwork -mthumb "
 3777      2D6D6670 
 3777      753D6670 
 3777      76342D73 
 3777      702D6431 
 3778 00e9 2D676764 		.ascii	"-ggdb -O2 -std=gnu99 -fomit-frame-pointer -falign-f"
 3778      62202D4F 
 3778      32202D73 
 3778      74643D67 
 3778      6E753939 
 3779 011c 756E6374 		.ascii	"unctions=16 -ffunction-sections -fdata-sections -fn"
 3779      696F6E73 
ARM GAS  /tmp/ccCS9T6O.s 			page 68


 3779      3D313620 
 3779      2D666675 
 3779      6E637469 
 3780 014f 6F2D636F 		.ascii	"o-common -fsingle-precision-constant\000"
 3780      6D6D6F6E 
 3780      202D6673 
 3780      696E676C 
 3780      652D7072 
 3781              	.LASF111:
 3782 0174 5F776372 		.ascii	"_wcrtomb_state\000"
 3782      746F6D62 
 3782      5F737461 
 3782      746500
 3783              	.LASF112:
 3784 0183 5F776373 		.ascii	"_wcsrtombs_state\000"
 3784      72746F6D 
 3784      62735F73 
 3784      74617465 
 3784      00
 3785              	.LASF157:
 3786 0194 5F5F6275 		.ascii	"__builtin_memset\000"
 3786      696C7469 
 3786      6E5F6D65 
 3786      6D736574 
 3786      00
 3787              	.LASF8:
 3788 01a5 6C6F6E67 		.ascii	"long long unsigned int\000"
 3788      206C6F6E 
 3788      6720756E 
 3788      7369676E 
 3788      65642069 
 3789              	.LASF51:
 3790 01bc 5F6C6266 		.ascii	"_lbfsize\000"
 3790      73697A65 
 3790      00
 3791              	.LASF153:
 3792 01c5 6D656D6D 		.ascii	"memmove\000"
 3792      6F766500 
 3793              	.LASF118:
 3794 01cd 5F5F6C6F 		.ascii	"__locale_t\000"
 3794      63616C65 
 3794      5F7400
 3795              	.LASF109:
 3796 01d8 5F6D6272 		.ascii	"_mbrtowc_state\000"
 3796      746F7763 
 3796      5F737461 
 3796      746500
 3797              	.LASF28:
 3798 01e7 5F5F746D 		.ascii	"__tm_sec\000"
 3798      5F736563 
 3798      00
 3799              	.LASF7:
 3800 01f0 6C6F6E67 		.ascii	"long long int\000"
 3800      206C6F6E 
 3800      6720696E 
 3800      7400
 3801              	.LASF1:
ARM GAS  /tmp/ccCS9T6O.s 			page 69


 3802 01fe 7369676E 		.ascii	"signed char\000"
 3802      65642063 
 3802      68617200 
 3803              	.LASF57:
 3804 020a 5F756275 		.ascii	"_ubuf\000"
 3804      6600
 3805              	.LASF46:
 3806 0210 5F626173 		.ascii	"_base\000"
 3806      6500
 3807              	.LASF30:
 3808 0216 5F5F746D 		.ascii	"__tm_hour\000"
 3808      5F686F75 
 3808      7200
 3809              	.LASF86:
 3810 0220 5F5F7366 		.ascii	"__sf\000"
 3810      00
 3811              	.LASF37:
 3812 0225 5F6F6E5F 		.ascii	"_on_exit_args\000"
 3812      65786974 
 3812      5F617267 
 3812      7300
 3813              	.LASF52:
 3814 0233 5F636F6F 		.ascii	"_cookie\000"
 3814      6B696500 
 3815              	.LASF85:
 3816 023b 5F5F7367 		.ascii	"__sglue\000"
 3816      6C756500 
 3817              	.LASF5:
 3818 0243 6C6F6E67 		.ascii	"long int\000"
 3818      20696E74 
 3818      00
 3819              	.LASF49:
 3820 024c 5F666C61 		.ascii	"_flags\000"
 3820      677300
 3821              	.LASF41:
 3822 0253 5F69735F 		.ascii	"_is_cxa\000"
 3822      63786100 
 3823              	.LASF67:
 3824 025b 5F737464 		.ascii	"_stdin\000"
 3824      696E00
 3825              	.LASF59:
 3826 0262 5F626C6B 		.ascii	"_blksize\000"
 3826      73697A65 
 3826      00
 3827              	.LASF81:
 3828 026b 5F637674 		.ascii	"_cvtbuf\000"
 3828      62756600 
 3829              	.LASF60:
 3830 0273 5F6F6666 		.ascii	"_offset\000"
 3830      73657400 
 3831              	.LASF125:
 3832 027b 72785F72 		.ascii	"rx_read_ptr\000"
 3832      6561645F 
 3832      70747200 
 3833              	.LASF122:
 3834 0287 72785F74 		.ascii	"rx_timeout\000"
 3834      696D656F 
ARM GAS  /tmp/ccCS9T6O.s 			page 70


 3834      757400
 3835              	.LASF110:
 3836 0292 5F6D6273 		.ascii	"_mbsrtowcs_state\000"
 3836      72746F77 
 3836      63735F73 
 3836      74617465 
 3836      00
 3837              	.LASF108:
 3838 02a3 5F6D6272 		.ascii	"_mbrlen_state\000"
 3838      6C656E5F 
 3838      73746174 
 3838      6500
 3839              	.LASF38:
 3840 02b1 5F666E61 		.ascii	"_fnargs\000"
 3840      72677300 
 3841              	.LASF148:
 3842 02b9 625F696E 		.ascii	"b_ind\000"
 3842      6400
 3843              	.LASF44:
 3844 02bf 5F666E73 		.ascii	"_fns\000"
 3844      00
 3845              	.LASF146:
 3846 02c4 7061636B 		.ascii	"packet_send_packet\000"
 3846      65745F73 
 3846      656E645F 
 3846      7061636B 
 3846      657400
 3847              	.LASF24:
 3848 02d7 5F736967 		.ascii	"_sign\000"
 3848      6E00
 3849              	.LASF19:
 3850 02dd 5F666C6F 		.ascii	"_flock_t\000"
 3850      636B5F74 
 3850      00
 3851              	.LASF69:
 3852 02e6 5F737464 		.ascii	"_stderr\000"
 3852      65727200 
 3853              	.LASF26:
 3854 02ee 5F426967 		.ascii	"_Bigint\000"
 3854      696E7400 
 3855              	.LASF99:
 3856 02f6 5F67616D 		.ascii	"_gamma_signgam\000"
 3856      6D615F73 
 3856      69676E67 
 3856      616D00
 3857              	.LASF53:
 3858 0305 5F726561 		.ascii	"_read\000"
 3858      6400
 3859              	.LASF77:
 3860 030b 5F726573 		.ascii	"_result_k\000"
 3860      756C745F 
 3860      6B00
 3861              	.LASF27:
 3862 0315 5F5F746D 		.ascii	"__tm\000"
 3862      00
 3863              	.LASF161:
 3864 031a 7472795F 		.ascii	"try_decode_packet\000"
ARM GAS  /tmp/ccCS9T6O.s 			page 71


 3864      6465636F 
 3864      64655F70 
 3864      61636B65 
 3864      7400
 3865              	.LASF151:
 3866 032c 705F6675 		.ascii	"p_func\000"
 3866      6E6300
 3867              	.LASF0:
 3868 0333 756E7369 		.ascii	"unsigned int\000"
 3868      676E6564 
 3868      20696E74 
 3868      00
 3869              	.LASF15:
 3870 0340 5F5F7763 		.ascii	"__wchb\000"
 3870      686200
 3871              	.LASF124:
 3872 0347 70726F63 		.ascii	"process_func\000"
 3872      6573735F 
 3872      66756E63 
 3872      00
 3873              	.LASF68:
 3874 0354 5F737464 		.ascii	"_stdout\000"
 3874      6F757400 
 3875              	.LASF80:
 3876 035c 5F637674 		.ascii	"_cvtlen\000"
 3876      6C656E00 
 3877              	.LASF137:
 3878 0364 6372635F 		.ascii	"crc_rx\000"
 3878      727800
 3879              	.LASF6:
 3880 036b 6C6F6E67 		.ascii	"long unsigned int\000"
 3880      20756E73 
 3880      69676E65 
 3880      6420696E 
 3880      7400
 3881              	.LASF50:
 3882 037d 5F66696C 		.ascii	"_file\000"
 3882      6500
 3883              	.LASF136:
 3884 0383 6372635F 		.ascii	"crc_calc\000"
 3884      63616C63 
 3884      00
 3885              	.LASF134:
 3886 038c 64617461 		.ascii	"data_start\000"
 3886      5F737461 
 3886      727400
 3887              	.LASF89:
 3888 0397 5F6E696F 		.ascii	"_niobs\000"
 3888      627300
 3889              	.LASF147:
 3890 039e 64617461 		.ascii	"data\000"
 3890      00
 3891              	.LASF4:
 3892 03a3 73686F72 		.ascii	"short unsigned int\000"
 3892      7420756E 
 3892      7369676E 
 3892      65642069 
ARM GAS  /tmp/ccCS9T6O.s 			page 72


 3892      6E7400
 3893              	.LASF83:
 3894 03b6 5F617465 		.ascii	"_atexit0\000"
 3894      78697430 
 3894      00
 3895              	.LASF160:
 3896 03bf 2F686F6D 		.ascii	"/home/patrick/vesc/bldc\000"
 3896      652F7061 
 3896      74726963 
 3896      6B2F7665 
 3896      73632F62 
 3897              	.LASF106:
 3898 03d7 5F736967 		.ascii	"_signal_buf\000"
 3898      6E616C5F 
 3898      62756600 
 3899              	.LASF97:
 3900 03e3 5F617363 		.ascii	"_asctime_buf\000"
 3900      74696D65 
 3900      5F627566 
 3900      00
 3901              	.LASF76:
 3902 03f0 5F726573 		.ascii	"_result\000"
 3902      756C7400 
 3903              	.LASF14:
 3904 03f8 5F5F7763 		.ascii	"__wch\000"
 3904      6800
 3905              	.LASF154:
 3906 03fe 6D656D63 		.ascii	"memcpy\000"
 3906      707900
 3907              	.LASF10:
 3908 0405 5F4C4F43 		.ascii	"_LOCK_T\000"
 3908      4B5F5400 
 3909              	.LASF13:
 3910 040d 77696E74 		.ascii	"wint_t\000"
 3910      5F7400
 3911              	.LASF156:
 3912 0414 5F5F6275 		.ascii	"__builtin_memcpy\000"
 3912      696C7469 
 3912      6E5F6D65 
 3912      6D637079 
 3912      00
 3913              	.LASF62:
 3914 0425 5F6C6F63 		.ascii	"_lock\000"
 3914      6B00
 3915              	.LASF64:
 3916 042b 5F666C61 		.ascii	"_flags2\000"
 3916      67733200 
 3917              	.LASF149:
 3918 0433 7061636B 		.ascii	"packet_init\000"
 3918      65745F69 
 3918      6E697400 
 3919              	.LASF54:
 3920 043f 5F777269 		.ascii	"_write\000"
 3920      746500
 3921              	.LASF33:
 3922 0446 5F5F746D 		.ascii	"__tm_year\000"
 3922      5F796561 
ARM GAS  /tmp/ccCS9T6O.s 			page 73


 3922      7200
 3923              	.LASF126:
 3924 0450 72785F77 		.ascii	"rx_write_ptr\000"
 3924      72697465 
 3924      5F707472 
 3924      00
 3925              	.LASF132:
 3926 045d 696E5F6C 		.ascii	"in_len\000"
 3926      656E00
 3927              	.LASF114:
 3928 0464 5F6E6578 		.ascii	"_nextf\000"
 3928      746600
 3929              	.LASF32:
 3930 046b 5F5F746D 		.ascii	"__tm_mon\000"
 3930      5F6D6F6E 
 3930      00
 3931              	.LASF42:
 3932 0474 5F617465 		.ascii	"_atexit\000"
 3932      78697400 
 3933              	.LASF74:
 3934 047c 5F5F7364 		.ascii	"__sdidinit\000"
 3934      6964696E 
 3934      697400
 3935              	.LASF11:
 3936 0487 5F6F6666 		.ascii	"_off_t\000"
 3936      5F7400
 3937              	.LASF79:
 3938 048e 5F667265 		.ascii	"_freelist\000"
 3938      656C6973 
 3938      7400
 3939              	.LASF140:
 3940 0498 68616E64 		.ascii	"handler_num\000"
 3940      6C65725F 
 3940      6E756D00 
 3941              	.LASF144:
 3942 04a4 7061636B 		.ascii	"packet_process_byte\000"
 3942      65745F70 
 3942      726F6365 
 3942      73735F62 
 3942      79746500 
 3943              	.LASF139:
 3944 04b8 72785F64 		.ascii	"rx_data\000"
 3944      61746100 
 3945              	.LASF104:
 3946 04c0 5F776374 		.ascii	"_wctomb_state\000"
 3946      6F6D625F 
 3946      73746174 
 3946      6500
 3947              	.LASF138:
 3948 04ce 5F426F6F 		.ascii	"_Bool\000"
 3948      6C00
 3949              	.LASF128:
 3950 04d4 72785F62 		.ascii	"rx_buffer\000"
 3950      75666665 
 3950      7200
 3951              	.LASF2:
 3952 04de 756E7369 		.ascii	"unsigned char\000"
ARM GAS  /tmp/ccCS9T6O.s 			page 74


 3952      676E6564 
 3952      20636861 
 3952      7200
 3953              	.LASF82:
 3954 04ec 5F6E6577 		.ascii	"_new\000"
 3954      00
 3955              	.LASF113:
 3956 04f1 5F685F65 		.ascii	"_h_errno\000"
 3956      72726E6F 
 3956      00
 3957              	.LASF3:
 3958 04fa 73686F72 		.ascii	"short int\000"
 3958      7420696E 
 3958      7400
 3959              	.LASF35:
 3960 0504 5F5F746D 		.ascii	"__tm_yday\000"
 3960      5F796461 
 3960      7900
 3961              	.LASF45:
 3962 050e 5F5F7362 		.ascii	"__sbuf\000"
 3962      756600
 3963              	.LASF90:
 3964 0515 5F696F62 		.ascii	"_iobs\000"
 3964      7300
 3965              	.LASF87:
 3966 051b 5F5F4649 		.ascii	"__FILE\000"
 3966      4C4500
 3967              	.LASF18:
 3968 0522 5F6D6273 		.ascii	"_mbstate_t\000"
 3968      74617465 
 3968      5F7400
 3969              	.LASF48:
 3970 052d 5F5F7346 		.ascii	"__sFILE\000"
 3970      494C4500 
 3971              	.LASF142:
 3972 0535 68616E64 		.ascii	"handler\000"
 3972      6C657200 
 3973              	.LASF63:
 3974 053d 5F6D6273 		.ascii	"_mbstate\000"
 3974      74617465 
 3974      00
 3975              	.LASF100:
 3976 0546 5F72616E 		.ascii	"_rand_next\000"
 3976      645F6E65 
 3976      787400
 3977              	.LASF131:
 3978 0551 62756666 		.ascii	"buffer\000"
 3978      657200
 3979              	.LASF143:
 3980 0558 64617461 		.ascii	"data_len\000"
 3980      5F6C656E 
 3980      00
 3981              	.LASF102:
 3982 0561 5F6D626C 		.ascii	"_mblen_state\000"
 3982      656E5F73 
 3982      74617465 
 3982      00
ARM GAS  /tmp/ccCS9T6O.s 			page 75


 3983              	.LASF70:
 3984 056e 5F696E63 		.ascii	"_inc\000"
 3984      00
 3985              	.LASF43:
 3986 0573 5F696E64 		.ascii	"_ind\000"
 3986      00
 3987              	.LASF159:
 3988 0578 7061636B 		.ascii	"packet.c\000"
 3988      65742E63 
 3988      00
 3989              	.LASF73:
 3990 0581 5F6C6F63 		.ascii	"_locale\000"
 3990      616C6500 
 3991              	.LASF75:
 3992 0589 5F5F636C 		.ascii	"__cleanup\000"
 3992      65616E75 
 3992      7000
 3993              	.LASF72:
 3994 0593 5F756E73 		.ascii	"_unspecified_locale_info\000"
 3994      70656369 
 3994      66696564 
 3994      5F6C6F63 
 3994      616C655F 
 3995              	.LASF23:
 3996 05ac 5F6D6178 		.ascii	"_maxwds\000"
 3996      77647300 
 3997              	.LASF65:
 3998 05b4 5F726565 		.ascii	"_reent\000"
 3998      6E7400
 3999              	.LASF92:
 4000 05bb 5F736565 		.ascii	"_seed\000"
 4000      6400
 4001              	.LASF135:
 4002 05c1 69735F6C 		.ascii	"is_len_16b\000"
 4002      656E5F31 
 4002      366200
 4003              	.LASF16:
 4004 05cc 5F5F636F 		.ascii	"__count\000"
 4004      756E7400 
 4005              	.LASF117:
 4006 05d4 5F5F6C6F 		.ascii	"__lock\000"
 4006      636B00
 4007              	.LASF17:
 4008 05db 5F5F7661 		.ascii	"__value\000"
 4008      6C756500 
 4009              	.LASF55:
 4010 05e3 5F736565 		.ascii	"_seek\000"
 4010      6B00
 4011              	.LASF119:
 4012 05e9 5F696D70 		.ascii	"_impure_ptr\000"
 4012      7572655F 
 4012      70747200 
 4013              	.LASF12:
 4014 05f5 5F66706F 		.ascii	"_fpos_t\000"
 4014      735F7400 
 4015              	.LASF66:
 4016 05fd 5F657272 		.ascii	"_errno\000"
ARM GAS  /tmp/ccCS9T6O.s 			page 76


 4016      6E6F00
 4017              	.LASF20:
 4018 0604 63686172 		.ascii	"char\000"
 4018      00
 4019              	.LASF29:
 4020 0609 5F5F746D 		.ascii	"__tm_min\000"
 4020      5F6D696E 
 4020      00
 4021              	.LASF152:
 4022 0612 63726331 		.ascii	"crc16\000"
 4022      3600
 4023              	.LASF121:
 4024 0618 75696E74 		.ascii	"uint8_t\000"
 4024      385F7400 
 4025              	.LASF93:
 4026 0620 5F6D756C 		.ascii	"_mult\000"
 4026      7400
 4027              	.LASF22:
 4028 0626 5F6E6578 		.ascii	"_next\000"
 4028      7400
 4029              	.LASF96:
 4030 062c 5F737472 		.ascii	"_strtok_last\000"
 4030      746F6B5F 
 4030      6C617374 
 4030      00
 4031              	.LASF40:
 4032 0639 5F666E74 		.ascii	"_fntypes\000"
 4032      79706573 
 4032      00
 4033              	.LASF94:
 4034 0642 5F616464 		.ascii	"_add\000"
 4034      00
 4035              	.LASF21:
 4036 0647 5F5F554C 		.ascii	"__ULong\000"
 4036      6F6E6700 
 4037              	.LASF107:
 4038 064f 5F676574 		.ascii	"_getdate_err\000"
 4038      64617465 
 4038      5F657272 
 4038      00
 4039              	.LASF162:
 4040 065c 7061636B 		.ascii	"packet_reset\000"
 4040      65745F72 
 4040      65736574 
 4040      00
 4041              	.LASF120:
 4042 0669 5F676C6F 		.ascii	"_global_impure_ptr\000"
 4042      62616C5F 
 4042      696D7075 
 4042      72655F70 
 4042      747200
 4043              	.LASF129:
 4044 067c 74785F62 		.ascii	"tx_buffer\000"
 4044      75666665 
 4044      7200
 4045              	.LASF155:
 4046 0686 6D656D73 		.ascii	"memset\000"
ARM GAS  /tmp/ccCS9T6O.s 			page 77


 4046      657400
 4047              	.LASF95:
 4048 068d 5F756E75 		.ascii	"_unused_rand\000"
 4048      7365645F 
 4048      72616E64 
 4048      00
 4049              	.LASF25:
 4050 069a 5F776473 		.ascii	"_wds\000"
 4050      00
 4051              	.LASF34:
 4052 069f 5F5F746D 		.ascii	"__tm_wday\000"
 4052      5F776461 
 4052      7900
 4053              	.LASF88:
 4054 06a9 5F676C75 		.ascii	"_glue\000"
 4054      6500
 4055              	.LASF115:
 4056 06af 5F6E6D61 		.ascii	"_nmalloc\000"
 4056      6C6C6F63 
 4056      00
 4057              	.LASF105:
 4058 06b8 5F6C3634 		.ascii	"_l64a_buf\000"
 4058      615F6275 
 4058      6600
 4059              	.LASF84:
 4060 06c2 5F736967 		.ascii	"_sig_func\000"
 4060      5F66756E 
 4060      6300
 4061              	.LASF141:
 4062 06cc 6D5F6861 		.ascii	"m_handler_states\000"
 4062      6E646C65 
 4062      725F7374 
 4062      61746573 
 4062      00
 4063              	.LASF133:
 4064 06dd 69735F6C 		.ascii	"is_len_8b\000"
 4064      656E5F38 
 4064      6200
 4065              	.LASF58:
 4066 06e7 5F6E6275 		.ascii	"_nbuf\000"
 4066      6600
 4067              	.LASF116:
 4068 06ed 5F756E75 		.ascii	"_unused\000"
 4068      73656400 
 4069              	.LASF36:
 4070 06f5 5F5F746D 		.ascii	"__tm_isdst\000"
 4070      5F697364 
 4070      737400
 4071              	.LASF98:
 4072 0700 5F6C6F63 		.ascii	"_localtime_buf\000"
 4072      616C7469 
 4072      6D655F62 
 4072      756600
 4073              	.LASF56:
 4074 070f 5F636C6F 		.ascii	"_close\000"
 4074      736500
 4075              	.LASF101:
ARM GAS  /tmp/ccCS9T6O.s 			page 78


 4076 0716 5F723438 		.ascii	"_r48\000"
 4076      00
 4077              	.LASF130:
 4078 071b 5041434B 		.ascii	"PACKET_STATE_t\000"
 4078      45545F53 
 4078      54415445 
 4078      5F7400
 4079              	.LASF103:
 4080 072a 5F6D6274 		.ascii	"_mbtowc_state\000"
 4080      6F77635F 
 4080      73746174 
 4080      6500
 4081              	.LASF78:
 4082 0738 5F703573 		.ascii	"_p5s\000"
 4082      00
 4083              	.LASF127:
 4084 073d 62797465 		.ascii	"bytes_left\000"
 4084      735F6C65 
 4084      667400
 4085              	.LASF31:
 4086 0748 5F5F746D 		.ascii	"__tm_mday\000"
 4086      5F6D6461 
 4086      7900
 4087              	.LASF150:
 4088 0752 735F6675 		.ascii	"s_func\000"
 4088      6E6300
 4089              		.ident	"GCC: (GNU Tools for Arm Embedded Processors 7-2018-q3-update) 7.3.1 20180622 (release) [AR
ARM GAS  /tmp/ccCS9T6O.s 			page 79


DEFINED SYMBOLS
                            *ABS*:0000000000000000 packet.c
     /tmp/ccCS9T6O.s:18     .text.packet_init:0000000000000000 $t
     /tmp/ccCS9T6O.s:26     .text.packet_init:0000000000000000 packet_init
     /tmp/ccCS9T6O.s:66     .text.packet_init:0000000000000020 $d
     /tmp/ccCS9T6O.s:71     .text.packet_reset:0000000000000000 $t
     /tmp/ccCS9T6O.s:79     .text.packet_reset:0000000000000000 packet_reset
     /tmp/ccCS9T6O.s:102    .text.packet_reset:0000000000000014 $d
     /tmp/ccCS9T6O.s:107    .text.packet_send_packet:0000000000000000 $t
     /tmp/ccCS9T6O.s:115    .text.packet_send_packet:0000000000000000 packet_send_packet
     /tmp/ccCS9T6O.s:262    .text.packet_send_packet:0000000000000088 $d
     /tmp/ccCS9T6O.s:267    .text.packet_timerfunc:0000000000000000 $t
     /tmp/ccCS9T6O.s:275    .text.packet_timerfunc:0000000000000000 packet_timerfunc
     /tmp/ccCS9T6O.s:334    .text.packet_timerfunc:0000000000000034 $d
     /tmp/ccCS9T6O.s:342    .text.packet_process_byte:0000000000000000 $t
     /tmp/ccCS9T6O.s:350    .text.packet_process_byte:0000000000000000 packet_process_byte
     /tmp/ccCS9T6O.s:672    .text.packet_process_byte:0000000000000168 $d
     /tmp/ccCS9T6O.s:680    .bss.m_handler_states:0000000000000000 $d
     /tmp/ccCS9T6O.s:684    .bss.m_handler_states:0000000000000000 m_handler_states

UNDEFINED SYMBOLS
memset
memcpy
crc16
memmove
