ARM GAS  /tmp/ccCS9T6O.s 			page 1


   1              		.cpu cortex-m4
   2              		.eabi_attribute 27, 1
   3              		.eabi_attribute 28, 1
   4              		.eabi_attribute 20, 1
   5              		.eabi_attribute 21, 1
   6              		.eabi_attribute 23, 3
   7              		.eabi_attribute 24, 1
   8              		.eabi_attribute 25, 1
   9              		.eabi_attribute 26, 1
  10              		.eabi_attribute 30, 2
  11              		.eabi_attribute 34, 1
  12              		.eabi_attribute 18, 4
  13              		.file	"packet.c"
  14              		.text
  15              	.Ltext0:
  16              		.cfi_sections	.debug_frame
  17              		.section	.text.packet_init,"ax",%progbits
  18              		.align	1
  19              		.p2align 4,,15
  20              		.global	packet_init
  21              		.syntax unified
  22              		.thumb
  23              		.thumb_func
  24              		.fpu fpv4-sp-d16
  25              		.type	packet_init, %function
  26              	packet_init:
  27              	.LFB0:
  28              		.file 1 "packet.c"
  29              		.loc 1 52 0
  30              		.cfi_startproc
  31              		@ args = 0, pretend = 0, frame = 0
  32              		@ frame_needed = 0, uses_anonymous_args = 0
  33              	.LVL0:
  34              		.loc 1 53 0
  35 0000 074B     		ldr	r3, .L4
  36              		.loc 1 52 0
  37 0002 70B5     		push	{r4, r5, r6, lr}
  38              		.cfi_def_cfa_offset 16
  39              		.cfi_offset 4, -16
  40              		.cfi_offset 5, -12
  41              		.cfi_offset 6, -8
  42              		.cfi_offset 14, -4
  43              		.loc 1 53 0
  44 0004 4FF48564 		mov	r4, #1064
  45 0008 04FB0233 		mla	r3, r4, r2, r3
  46              		.loc 1 52 0
  47 000c 0646     		mov	r6, r0
  48 000e 0D46     		mov	r5, r1
  49              		.loc 1 53 0
  50 0010 2246     		mov	r2, r4
  51              	.LVL1:
  52 0012 1846     		mov	r0, r3
  53              	.LVL2:
  54 0014 0021     		movs	r1, #0
  55              	.LVL3:
  56 0016 FFF7FEFF 		bl	memset
  57              	.LVL4:
ARM GAS  /tmp/ccCS9T6O.s 			page 2


  58              		.loc 1 55 0
  59 001a C0E90165 		strd	r6, r5, [r0, #4]
  60              		.loc 1 56 0
  61 001e 70BD     		pop	{r4, r5, r6, pc}
  62              	.LVL5:
  63              	.L5:
  64              		.align	2
  65              	.L4:
  66 0020 00000000 		.word	.LANCHOR0
  67              		.cfi_endproc
  68              	.LFE0:
  69              		.size	packet_init, .-packet_init
  70              		.section	.text.packet_reset,"ax",%progbits
  71              		.align	1
  72              		.p2align 4,,15
  73              		.global	packet_reset
  74              		.syntax unified
  75              		.thumb
  76              		.thumb_func
  77              		.fpu fpv4-sp-d16
  78              		.type	packet_reset, %function
  79              	packet_reset:
  80              	.LFB1:
  81              		.loc 1 58 0
  82              		.cfi_startproc
  83              		@ args = 0, pretend = 0, frame = 0
  84              		@ frame_needed = 0, uses_anonymous_args = 0
  85              		@ link register save eliminated.
  86              	.LVL6:
  87              		.loc 1 59 0
  88 0000 044A     		ldr	r2, .L7
  89 0002 4FF48563 		mov	r3, #1064
  90 0006 03FB0020 		mla	r0, r3, r0, r2
  91              	.LVL7:
  92 000a 0023     		movs	r3, #0
  93              		.loc 1 60 0
  94 000c C0E90333 		strd	r3, r3, [r0, #12]
  95              		.loc 1 61 0
  96 0010 4361     		str	r3, [r0, #20]
  97              		.loc 1 62 0
  98 0012 7047     		bx	lr
  99              	.L8:
 100              		.align	2
 101              	.L7:
 102 0014 00000000 		.word	.LANCHOR0
 103              		.cfi_endproc
 104              	.LFE1:
 105              		.size	packet_reset, .-packet_reset
 106              		.section	.text.packet_send_packet,"ax",%progbits
 107              		.align	1
 108              		.p2align 4,,15
 109              		.global	packet_send_packet
 110              		.syntax unified
 111              		.thumb
 112              		.thumb_func
 113              		.fpu fpv4-sp-d16
 114              		.type	packet_send_packet, %function
ARM GAS  /tmp/ccCS9T6O.s 			page 3


 115              	packet_send_packet:
 116              	.LFB2:
 117              		.loc 1 64 0
 118              		.cfi_startproc
 119              		@ args = 0, pretend = 0, frame = 0
 120              		@ frame_needed = 0, uses_anonymous_args = 0
 121              	.LVL8:
 122              		.loc 1 65 0
 123 0000 4B1E     		subs	r3, r1, #1
 124 0002 B3F5007F 		cmp	r3, #512
 125 0006 35D2     		bcs	.L19
 126              	.LVL9:
 127              		.loc 1 64 0
 128 0008 2DE9F047 		push	{r4, r5, r6, r7, r8, r9, r10, lr}
 129              		.cfi_def_cfa_offset 32
 130              		.cfi_offset 4, -32
 131              		.cfi_offset 5, -28
 132              		.cfi_offset 6, -24
 133              		.cfi_offset 7, -20
 134              		.cfi_offset 8, -16
 135              		.cfi_offset 9, -12
 136              		.cfi_offset 10, -8
 137              		.cfi_offset 14, -4
 138              		.loc 1 73 0
 139 000c 1E4E     		ldr	r6, .L22
 140 000e 4FF48563 		mov	r3, #1064
 141              		.loc 1 72 0
 142 0012 FF29     		cmp	r1, #255
 143 0014 CCB2     		uxtb	r4, r1
 144              		.loc 1 73 0
 145 0016 03FB0263 		mla	r3, r3, r2, r6
 146              		.loc 1 72 0
 147 001a 2CD8     		bhi	.L12
 148              	.LVL10:
 149              		.loc 1 73 0
 150 001c 0225     		movs	r5, #2
 151              		.loc 1 74 0
 152 001e 83F82142 		strb	r4, [r3, #545]
 153              		.loc 1 73 0
 154 0022 83F82052 		strb	r5, [r3, #544]
 155              	.LVL11:
 156              	.L13:
 157              		.loc 1 86 0
 158 0026 4FF48569 		mov	r9, #1064
 159 002a 09FB02F9 		mul	r9, r9, r2
 160 002e 09F50878 		add	r8, r9, #544
 161 0032 0746     		mov	r7, r0
 162 0034 B044     		add	r8, r8, r6
 163 0036 0C46     		mov	r4, r1
 164 0038 0A46     		mov	r2, r1
 165              	.LVL12:
 166 003a 08EB0500 		add	r0, r8, r5
 167              	.LVL13:
 168 003e 3946     		mov	r1, r7
 169              	.LVL14:
 170 0040 FFF7FEFF 		bl	memcpy
 171              	.LVL15:
ARM GAS  /tmp/ccCS9T6O.s 			page 4


 172              		.loc 1 89 0
 173 0044 2146     		mov	r1, r4
 174 0046 3846     		mov	r0, r7
 175 0048 FFF7FEFF 		bl	crc16
 176              	.LVL16:
 177              		.loc 1 90 0
 178 004c 4E44     		add	r6, r6, r9
 179              		.loc 1 87 0
 180 004e 2919     		adds	r1, r5, r4
 181              	.LVL17:
 182              		.loc 1 90 0
 183 0050 7318     		adds	r3, r6, r1
 184              		.loc 1 94 0
 185 0052 7268     		ldr	r2, [r6, #4]
 186              		.loc 1 91 0
 187 0054 83F82102 		strb	r0, [r3, #545]
 188              		.loc 1 92 0
 189 0058 0324     		movs	r4, #3
 190              	.LVL18:
 191              		.loc 1 90 0
 192 005a 000A     		lsrs	r0, r0, #8
 193              	.LVL19:
 194 005c 83F82002 		strb	r0, [r3, #544]
 195              	.LVL20:
 196              		.loc 1 92 0
 197 0060 2144     		add	r1, r1, r4
 198              	.LVL21:
 199 0062 83F82242 		strb	r4, [r3, #546]
 200              		.loc 1 94 0
 201 0066 1AB1     		cbz	r2, .L9
 202              		.loc 1 95 0
 203 0068 4046     		mov	r0, r8
 204              		.loc 1 97 0
 205 006a BDE8F047 		pop	{r4, r5, r6, r7, r8, r9, r10, lr}
 206              		.cfi_remember_state
 207              		.cfi_restore 14
 208              		.cfi_restore 10
 209              		.cfi_restore 9
 210              		.cfi_restore 8
 211              		.cfi_restore 7
 212              		.cfi_restore 6
 213              		.cfi_restore 5
 214              		.cfi_restore 4
 215              		.cfi_def_cfa_offset 0
 216              	.LVL22:
 217              		.loc 1 95 0
 218 006e 1047     		bx	r2	@ indirect register sibling call
 219              	.LVL23:
 220              	.L9:
 221              		.cfi_restore_state
 222              		.loc 1 97 0
 223 0070 BDE8F087 		pop	{r4, r5, r6, r7, r8, r9, r10, pc}
 224              	.LVL24:
 225              	.L19:
 226              		.cfi_def_cfa_offset 0
 227              		.cfi_restore 4
 228              		.cfi_restore 5
ARM GAS  /tmp/ccCS9T6O.s 			page 5


 229              		.cfi_restore 6
 230              		.cfi_restore 7
 231              		.cfi_restore 8
 232              		.cfi_restore 9
 233              		.cfi_restore 10
 234              		.cfi_restore 14
 235 0074 7047     		bx	lr
 236              	.LVL25:
 237              	.L12:
 238              		.cfi_def_cfa_offset 32
 239              		.cfi_offset 4, -32
 240              		.cfi_offset 5, -28
 241              		.cfi_offset 6, -24
 242              		.cfi_offset 7, -20
 243              		.cfi_offset 8, -16
 244              		.cfi_offset 9, -12
 245              		.cfi_offset 10, -8
 246              		.cfi_offset 14, -4
 247              		.loc 1 77 0
 248 0076 0F0A     		lsrs	r7, r1, #8
 249              		.loc 1 76 0
 250 0078 0325     		movs	r5, #3
 251              		.loc 1 78 0
 252 007a 83F82242 		strb	r4, [r3, #546]
 253              		.loc 1 77 0
 254 007e 83F82172 		strb	r7, [r3, #545]
 255              		.loc 1 76 0
 256 0082 83F82052 		strb	r5, [r3, #544]
 257              	.LVL26:
 258 0086 CEE7     		b	.L13
 259              	.L23:
 260              		.align	2
 261              	.L22:
 262 0088 00000000 		.word	.LANCHOR0
 263              		.cfi_endproc
 264              	.LFE2:
 265              		.size	packet_send_packet, .-packet_send_packet
 266              		.section	.text.packet_timerfunc,"ax",%progbits
 267              		.align	1
 268              		.p2align 4,,15
 269              		.global	packet_timerfunc
 270              		.syntax unified
 271              		.thumb
 272              		.thumb_func
 273              		.fpu fpv4-sp-d16
 274              		.type	packet_timerfunc, %function
 275              	packet_timerfunc:
 276              	.LFB3:
 277              		.loc 1 103 0
 278              		.cfi_startproc
 279              		@ args = 0, pretend = 0, frame = 0
 280              		@ frame_needed = 0, uses_anonymous_args = 0
 281              		@ link register save eliminated.
 282              	.LVL27:
 283 0000 30B4     		push	{r4, r5}
 284              		.cfi_def_cfa_offset 8
 285              		.cfi_offset 4, -8
ARM GAS  /tmp/ccCS9T6O.s 			page 6


 286              		.cfi_offset 5, -4
 287 0002 0C4C     		ldr	r4, .L30
 288              	.LBB5:
 289              		.loc 1 104 0
 290 0004 0022     		movs	r2, #0
 291 0006 2146     		mov	r1, r4
 292              		.loc 1 105 0
 293 0008 4FF48565 		mov	r5, #1064
 294              	.LVL28:
 295              	.L27:
 296 000c 05FB02F0 		mul	r0, r5, r2
 297 0010 235A     		ldrh	r3, [r4, r0]
 298 0012 9BB2     		uxth	r3, r3
 299 0014 53B1     		cbz	r3, .L25
 300              		.loc 1 106 0
 301 0016 235A     		ldrh	r3, [r4, r0]
 302 0018 013B     		subs	r3, r3, #1
 303 001a 9BB2     		uxth	r3, r3
 304 001c 2352     		strh	r3, [r4, r0]	@ movhi
 305              	.L26:
 306              		.loc 1 104 0 discriminator 2
 307 001e 0132     		adds	r2, r2, #1
 308              	.LVL29:
 309 0020 032A     		cmp	r2, #3
 310 0022 01F58561 		add	r1, r1, #1064
 311 0026 F1D1     		bne	.L27
 312              	.LBE5:
 313              		.loc 1 111 0
 314 0028 30BC     		pop	{r4, r5}
 315              		.cfi_remember_state
 316              		.cfi_restore 5
 317              		.cfi_restore 4
 318              		.cfi_def_cfa_offset 0
 319 002a 7047     		bx	lr
 320              	.LVL30:
 321              	.L25:
 322              		.cfi_restore_state
 323              	.LBB8:
 324              	.LBB6:
 325              	.LBB7:
 326              		.loc 1 60 0
 327 002c C1E90333 		strd	r3, r3, [r1, #12]
 328              		.loc 1 61 0
 329 0030 4B61     		str	r3, [r1, #20]
 330 0032 F4E7     		b	.L26
 331              	.L31:
 332              		.align	2
 333              	.L30:
 334 0034 00000000 		.word	.LANCHOR0
 335              	.LBE7:
 336              	.LBE6:
 337              	.LBE8:
 338              		.cfi_endproc
 339              	.LFE3:
 340              		.size	packet_timerfunc, .-packet_timerfunc
 341              		.section	.text.packet_process_byte,"ax",%progbits
 342              		.align	1
ARM GAS  /tmp/ccCS9T6O.s 			page 7


 343              		.p2align 4,,15
 344              		.global	packet_process_byte
 345              		.syntax unified
 346              		.thumb
 347              		.thumb_func
 348              		.fpu fpv4-sp-d16
 349              		.type	packet_process_byte, %function
 350              	packet_process_byte:
 351              	.LFB4:
 352              		.loc 1 113 0
 353              		.cfi_startproc
 354              		@ args = 0, pretend = 0, frame = 24
 355              		@ frame_needed = 0, uses_anonymous_args = 0
 356              	.LVL31:
 357 0000 2DE9F04F 		push	{r4, r5, r6, r7, r8, r9, r10, fp, lr}
 358              		.cfi_def_cfa_offset 36
 359              		.cfi_offset 4, -36
 360              		.cfi_offset 5, -32
 361              		.cfi_offset 6, -28
 362              		.cfi_offset 7, -24
 363              		.cfi_offset 8, -20
 364              		.cfi_offset 9, -16
 365              		.cfi_offset 10, -12
 366              		.cfi_offset 11, -8
 367              		.cfi_offset 14, -4
 368              		.loc 1 116 0
 369 0004 4FF48563 		mov	r3, #1064
 370 0008 574E     		ldr	r6, .L68
 371 000a 03FB01F3 		mul	r3, r3, r1
 372 000e F518     		adds	r5, r6, r3
 373              		.loc 1 118 0
 374 0010 D5E903C2 		ldrd	ip, r2, [r5, #12]
 375              		.loc 1 116 0
 376 0014 4FF47A74 		mov	r4, #1000
 377 0018 F452     		strh	r4, [r6, r3]	@ movhi
 378              		.loc 1 118 0
 379 001a A2EB0C04 		sub	r4, r2, ip
 380              	.LVL32:
 381              		.loc 1 121 0
 382 001e B4F5027F 		cmp	r4, #520
 383              		.loc 1 113 0
 384 0022 87B0     		sub	sp, sp, #28
 385              		.cfi_def_cfa_offset 64
 386              		.loc 1 121 0
 387 0024 6FD2     		bcs	.L61
 388              		.loc 1 131 0
 389 0026 B2F5027F 		cmp	r2, #520
 390 002a 0746     		mov	r7, r0
 391 002c 0591     		str	r1, [sp, #20]
 392 002e 73D2     		bcs	.L62
 393              	.LVL33:
 394              	.L35:
 395              		.loc 1 140 0
 396 0030 059B     		ldr	r3, [sp, #20]
 397 0032 4FF48561 		mov	r1, #1064
 398 0036 01FB03F1 		mul	r1, r1, r3
 399 003a 7318     		adds	r3, r6, r1
ARM GAS  /tmp/ccCS9T6O.s 			page 8


 400 003c 9D18     		adds	r5, r3, r2
 401              		.loc 1 143 0
 402 003e 5869     		ldr	r0, [r3, #20]
 403              		.loc 1 140 0
 404 0040 2F76     		strb	r7, [r5, #24]
 405              	.LVL34:
 406 0042 0132     		adds	r2, r2, #1
 407              		.loc 1 143 0
 408 0044 0128     		cmp	r0, #1
 409              		.loc 1 140 0
 410 0046 1A61     		str	r2, [r3, #16]
 411              		.loc 1 143 0
 412 0048 04DD     		ble	.L63
 413              		.loc 1 144 0
 414 004a 0138     		subs	r0, r0, #1
 415 004c 5861     		str	r0, [r3, #20]
 416              	.LVL35:
 417              	.L32:
 418              		.loc 1 174 0
 419 004e 07B0     		add	sp, sp, #28
 420              		.cfi_remember_state
 421              		.cfi_def_cfa_offset 36
 422              		@ sp needed
 423 0050 BDE8F08F 		pop	{r4, r5, r6, r7, r8, r9, r10, fp, pc}
 424              	.LVL36:
 425              	.L63:
 426              		.cfi_restore_state
 427              	.LBB12:
 428              		.loc 1 151 0
 429 0054 9B46     		mov	fp, r3
 430 0056 01F11802 		add	r2, r1, #24
 431 005a 0492     		str	r2, [sp, #16]
 432 005c DB68     		ldr	r3, [r3, #12]
 433              	.LBB13:
 434              	.LBB14:
 435              		.loc 1 199 0
 436 005e 0BF11402 		add	r2, fp, #20
 437              	.LBE14:
 438              	.LBE13:
 439              	.LBE12:
 440              		.loc 1 141 0
 441 0062 0134     		adds	r4, r4, #1
 442              	.LVL37:
 443              	.LBB29:
 444              	.LBB22:
 445              	.LBB15:
 446              		.loc 1 199 0
 447 0064 0392     		str	r2, [sp, #12]
 448              	.LVL38:
 449              	.L37:
 450              	.LBE15:
 451              	.LBE22:
 452              		.loc 1 151 0
 453 0066 049A     		ldr	r2, [sp, #16]
 454 0068 DBF80890 		ldr	r9, [fp, #8]
 455 006c 1344     		add	r3, r3, r2
 456              	.LBB23:
ARM GAS  /tmp/ccCS9T6O.s 			page 9


 457              	.LBB16:
 458              		.loc 1 199 0
 459 006e 039A     		ldr	r2, [sp, #12]
 460 0070 1146     		mov	r1, r2
 461 0072 0022     		movs	r2, #0
 462 0074 0A60     		str	r2, [r1]
 463              	.LBE16:
 464              	.LBE23:
 465              		.loc 1 151 0
 466 0076 F718     		adds	r7, r6, r3
 467              	.LVL39:
 468              	.LBB24:
 469              	.LBB17:
 470              		.loc 1 201 0
 471 0078 002C     		cmp	r4, #0
 472 007a 58D0     		beq	.L64
 473              		.loc 1 206 0
 474 007c F05C     		ldrb	r0, [r6, r3]	@ zero_extendqisi2
 475              	.LVL40:
 476              		.loc 1 222 0
 477 007e 0228     		cmp	r0, #2
 478 0080 35D0     		beq	.L39
 479 0082 0328     		cmp	r0, #3
 480 0084 38D1     		bne	.L40
 481              		.loc 1 227 0
 482 0086 022C     		cmp	r4, #2
 483 0088 6BD9     		bls	.L65
 484              	.LVL41:
 485 008a B7F80150 		ldrh	r5, [r7, #1]	@ unaligned
 486 008e 6DBA     		rev16	r5, r5
 487 0090 ADB2     		uxth	r5, r5
 488              	.LVL42:
 489              		.loc 1 245 0
 490 0092 A5F1FF03 		sub	r3, r5, #255
 491 0096 B3F5817F 		cmp	r3, #258
 492 009a 2DD2     		bcs	.L40
 493              	.LVL43:
 494              	.L42:
 495              		.loc 1 265 0
 496 009c 00EB0508 		add	r8, r0, r5
 497 00a0 08F1030A 		add	r10, r8, #3
 498 00a4 5445     		cmp	r4, r10
 499 00a6 49D3     		bcc	.L66
 500              		.loc 1 271 0
 501 00a8 07EB0803 		add	r3, r7, r8
 502 00ac 0193     		str	r3, [sp, #4]
 503 00ae 9A78     		ldrb	r2, [r3, #2]	@ zero_extendqisi2
 504 00b0 032A     		cmp	r2, #3
 505 00b2 21D1     		bne	.L40
 506              		.loc 1 275 0
 507 00b4 3A18     		adds	r2, r7, r0
 508 00b6 2946     		mov	r1, r5
 509 00b8 1046     		mov	r0, r2
 510              	.LVL44:
 511 00ba 0292     		str	r2, [sp, #8]
 512 00bc FFF7FEFF 		bl	crc16
 513              	.LVL45:
ARM GAS  /tmp/ccCS9T6O.s 			page 10


 514              		.loc 1 277 0
 515 00c0 019B     		ldr	r3, [sp, #4]
 516              		.loc 1 276 0
 517 00c2 17F80810 		ldrb	r1, [r7, r8]	@ zero_extendqisi2
 518              		.loc 1 277 0
 519 00c6 5B78     		ldrb	r3, [r3, #1]	@ zero_extendqisi2
 520              		.loc 1 279 0
 521 00c8 43EA0123 		orr	r3, r3, r1, lsl #8
 522 00cc 9842     		cmp	r0, r3
 523 00ce 13D1     		bne	.L40
 524              		.loc 1 280 0
 525 00d0 B9F1000F 		cmp	r9, #0
 526 00d4 03D0     		beq	.L44
 527              		.loc 1 281 0
 528 00d6 029A     		ldr	r2, [sp, #8]
 529 00d8 2946     		mov	r1, r5
 530 00da 1046     		mov	r0, r2
 531              	.LVL46:
 532 00dc C847     		blx	r9
 533              	.LVL47:
 534              	.L44:
 535              	.LBE17:
 536              	.LBE24:
 537              		.loc 1 161 0
 538 00de DBF80C30 		ldr	r3, [fp, #12]
 539 00e2 5344     		add	r3, r3, r10
 540              		.loc 1 160 0
 541 00e4 A4EB0A04 		sub	r4, r4, r10
 542              	.LVL48:
 543              		.loc 1 161 0
 544 00e8 CBF80C30 		str	r3, [fp, #12]
 545 00ec BBE7     		b	.L37
 546              	.LVL49:
 547              	.L39:
 548              	.LBB25:
 549              	.LBB18:
 550              		.loc 1 227 0
 551 00ee 012C     		cmp	r4, #1
 552 00f0 2DD9     		bls	.L67
 553              	.LVL50:
 554              		.loc 1 235 0
 555 00f2 7D78     		ldrb	r5, [r7, #1]	@ zero_extendqisi2
 556              	.LVL51:
 557              		.loc 1 238 0
 558 00f4 002D     		cmp	r5, #0
 559 00f6 D1D1     		bne	.L42
 560              	.LVL52:
 561              	.L40:
 562              	.LBE18:
 563              	.LBE25:
 564              		.loc 1 164 0
 565 00f8 DBF80C30 		ldr	r3, [fp, #12]
 566 00fc 0133     		adds	r3, r3, #1
 567              		.loc 1 165 0
 568 00fe 013C     		subs	r4, r4, #1
 569              	.LVL53:
 570              		.loc 1 164 0
ARM GAS  /tmp/ccCS9T6O.s 			page 11


 571 0100 CBF80C30 		str	r3, [fp, #12]
 572 0104 AFE7     		b	.L37
 573              	.LVL54:
 574              	.L61:
 575              	.LBE29:
 576              		.loc 1 123 0
 577 0106 0023     		movs	r3, #0
 578              		.loc 1 125 0
 579 0108 0122     		movs	r2, #1
 580 010a 2876     		strb	r0, [r5, #24]
 581              		.loc 1 123 0
 582 010c EB60     		str	r3, [r5, #12]
 583              		.loc 1 125 0
 584 010e C5E90423 		strd	r2, r3, [r5, #16]
 585              		.loc 1 174 0
 586 0112 07B0     		add	sp, sp, #28
 587              		.cfi_remember_state
 588              		.cfi_def_cfa_offset 36
 589              		@ sp needed
 590 0114 BDE8F08F 		pop	{r4, r5, r6, r7, r8, r9, r10, fp, pc}
 591              	.LVL55:
 592              	.L62:
 593              		.cfi_restore_state
 594              		.loc 1 132 0
 595 0118 1833     		adds	r3, r3, #24
 596 011a F018     		adds	r0, r6, r3
 597              	.LVL56:
 598 011c 2246     		mov	r2, r4
 599 011e 00EB0C01 		add	r1, r0, ip
 600              	.LVL57:
 601 0122 FFF7FEFF 		bl	memmove
 602              	.LVL58:
 603              		.loc 1 136 0
 604 0126 0023     		movs	r3, #0
 605 0128 EB60     		str	r3, [r5, #12]
 606 012a 2246     		mov	r2, r4
 607 012c 80E7     		b	.L35
 608              	.LVL59:
 609              	.L64:
 610              	.LBB30:
 611              	.LBB26:
 612              	.LBB19:
 613              		.loc 1 202 0
 614 012e 0123     		movs	r3, #1
 615              	.LBE19:
 616              	.LBE26:
 617              	.LBE30:
 618              		.loc 1 172 0
 619 0130 CBE90344 		strd	r4, r4, [fp, #12]
 620              	.LBB31:
 621              	.LBB27:
 622              	.LBB20:
 623              		.loc 1 202 0
 624 0134 0B60     		str	r3, [r1]
 625              	.LVL60:
 626              	.LBE20:
 627              	.LBE27:
ARM GAS  /tmp/ccCS9T6O.s 			page 12


 628              	.LBE31:
 629              		.loc 1 174 0
 630 0136 07B0     		add	sp, sp, #28
 631              		.cfi_remember_state
 632              		.cfi_def_cfa_offset 36
 633              		@ sp needed
 634 0138 BDE8F08F 		pop	{r4, r5, r6, r7, r8, r9, r10, fp, pc}
 635              	.LVL61:
 636              	.L66:
 637              		.cfi_restore_state
 638              	.LBB32:
 639              	.LBB28:
 640              	.LBB21:
 641              		.loc 1 266 0
 642 013c 059A     		ldr	r2, [sp, #20]
 643 013e 4FF48563 		mov	r3, #1064
 644 0142 03FB0266 		mla	r6, r3, r2, r6
 645 0146 AAEB0404 		sub	r4, r10, r4
 646              	.LVL62:
 647 014a 7461     		str	r4, [r6, #20]
 648              	.LVL63:
 649 014c 7FE7     		b	.L32
 650              	.LVL64:
 651              	.L67:
 652 014e 0546     		mov	r5, r0
 653              		.loc 1 227 0
 654 0150 0124     		movs	r4, #1
 655              	.LVL65:
 656              	.L46:
 657              		.loc 1 228 0
 658 0152 059A     		ldr	r2, [sp, #20]
 659 0154 4FF48563 		mov	r3, #1064
 660 0158 03FB0266 		mla	r6, r3, r2, r6
 661 015c 2C1B     		subs	r4, r5, r4
 662 015e 7461     		str	r4, [r6, #20]
 663              	.LVL66:
 664 0160 75E7     		b	.L32
 665              	.LVL67:
 666              	.L65:
 667 0162 0546     		mov	r5, r0
 668 0164 F5E7     		b	.L46
 669              	.L69:
 670 0166 00BF     		.align	2
 671              	.L68:
 672 0168 00000000 		.word	.LANCHOR0
 673              	.LBE21:
 674              	.LBE28:
 675              	.LBE32:
 676              		.cfi_endproc
 677              	.LFE4:
 678              		.size	packet_process_byte, .-packet_process_byte
 679              		.section	.bss.m_handler_states,"aw",%nobits
 680              		.align	2
 681              		.set	.LANCHOR0,. + 0
 682              		.type	m_handler_states, %object
 683              		.size	m_handler_states, 3192
 684              	m_handler_states:
ARM GAS  /tmp/ccCS9T6O.s 			page 13


 685 0000 00000000 		.space	3192
 685      00000000 
 685      00000000 
 685      00000000 
 685      00000000 
 686              		.text
 687              	.Letext0:
 688              		.file 2 "/usr/arm-none-eabi/include/machine/_default_types.h"
 689              		.file 3 "/usr/arm-none-eabi/include/sys/lock.h"
 690              		.file 4 "/usr/arm-none-eabi/include/sys/_types.h"
 691              		.file 5 "/usr/lib/gcc/arm-none-eabi/7.3.1/include/stddef.h"
 692              		.file 6 "/usr/arm-none-eabi/include/sys/reent.h"
 693              		.file 7 "/usr/arm-none-eabi/include/sys/_stdint.h"
 694              		.file 8 "crc.h"
 695              		.file 9 "/usr/arm-none-eabi/include/string.h"
 696              		.file 10 "<built-in>"