ARM GAS  /tmp/ccHRlmmj.s 			page 1


   1              		.cpu cortex-m4
   2              		.eabi_attribute 27, 1
   3              		.eabi_attribute 28, 1
   4              		.eabi_attribute 20, 1
   5              		.eabi_attribute 21, 1
   6              		.eabi_attribute 23, 3
   7              		.eabi_attribute 24, 1
   8              		.eabi_attribute 25, 1
   9              		.eabi_attribute 26, 1
  10              		.eabi_attribute 30, 2
  11              		.eabi_attribute 34, 1
  12              		.eabi_attribute 18, 4
  13              		.file	"serial.c"
  14              		.text
  15              	.Ltext0:
  16              		.cfi_sections	.debug_frame
  17              		.section	.text.readt,"ax",%progbits
  18              		.align	1
  19              		.p2align 4,,15
  20              		.syntax unified
  21              		.thumb
  22              		.thumb_func
  23              		.fpu fpv4-sp-d16
  24              		.type	readt, %function
  25              	readt:
  26              	.LFB263:
  27              		.file 1 "ChibiOS_3.0.2/os/hal/src/serial.c"
  28              		.loc 1 87 0
  29              		.cfi_startproc
  30              		@ args = 0, pretend = 0, frame = 0
  31              		@ frame_needed = 0, uses_anonymous_args = 0
  32              		@ link register save eliminated.
  33              	.LVL0:
  34              		.loc 1 89 0
  35 0000 0C30     		adds	r0, r0, #12
  36              	.LVL1:
  37 0002 FFF7FEBF 		b	chIQReadTimeout
  38              	.LVL2:
  39              		.cfi_endproc
  40              	.LFE263:
  41              		.size	readt, .-readt
  42 0006 00BF     		.section	.text.read,"ax",%progbits
  43              		.align	1
  44              		.p2align 4,,15
  45              		.syntax unified
  46              		.thumb
  47              		.thumb_func
  48              		.fpu fpv4-sp-d16
  49              		.type	read, %function
  50              	read:
  51              	.LFB257:
  52              		.loc 1 56 0
  53              		.cfi_startproc
  54              		@ args = 0, pretend = 0, frame = 0
  55              		@ frame_needed = 0, uses_anonymous_args = 0
  56              		@ link register save eliminated.
  57              	.LVL3:
ARM GAS  /tmp/ccHRlmmj.s 			page 2


  58              		.loc 1 58 0
  59 0000 0C30     		adds	r0, r0, #12
  60              	.LVL4:
  61 0002 4FF0FF33 		mov	r3, #-1
  62 0006 FFF7FEBF 		b	chIQReadTimeout
  63              	.LVL5:
  64              		.cfi_endproc
  65              	.LFE257:
  66              		.size	read, .-read
  67 000a 00BF     		.section	.text.writet,"ax",%progbits
  68              		.align	1
  69              		.p2align 4,,15
  70              		.syntax unified
  71              		.thumb
  72              		.thumb_func
  73              		.fpu fpv4-sp-d16
  74              		.type	writet, %function
  75              	writet:
  76              	.LFB262:
  77              		.loc 1 82 0
  78              		.cfi_startproc
  79              		@ args = 0, pretend = 0, frame = 0
  80              		@ frame_needed = 0, uses_anonymous_args = 0
  81              		@ link register save eliminated.
  82              	.LVL6:
  83              		.loc 1 84 0
  84 0000 3030     		adds	r0, r0, #48
  85              	.LVL7:
  86 0002 FFF7FEBF 		b	chOQWriteTimeout
  87              	.LVL8:
  88              		.cfi_endproc
  89              	.LFE262:
  90              		.size	writet, .-writet
  91 0006 00BF     		.section	.text.write,"ax",%progbits
  92              		.align	1
  93              		.p2align 4,,15
  94              		.syntax unified
  95              		.thumb
  96              		.thumb_func
  97              		.fpu fpv4-sp-d16
  98              		.type	write, %function
  99              	write:
 100              	.LFB256:
 101              		.loc 1 50 0
 102              		.cfi_startproc
 103              		@ args = 0, pretend = 0, frame = 0
 104              		@ frame_needed = 0, uses_anonymous_args = 0
 105              		@ link register save eliminated.
 106              	.LVL9:
 107              		.loc 1 52 0
 108 0000 3030     		adds	r0, r0, #48
 109              	.LVL10:
 110 0002 4FF0FF33 		mov	r3, #-1
 111 0006 FFF7FEBF 		b	chOQWriteTimeout
 112              	.LVL11:
 113              		.cfi_endproc
 114              	.LFE256:
ARM GAS  /tmp/ccHRlmmj.s 			page 3


 115              		.size	write, .-write
 116 000a 00BF     		.section	.text.gett,"ax",%progbits
 117              		.align	1
 118              		.p2align 4,,15
 119              		.syntax unified
 120              		.thumb
 121              		.thumb_func
 122              		.fpu fpv4-sp-d16
 123              		.type	gett, %function
 124              	gett:
 125              	.LFB261:
 126              		.loc 1 77 0
 127              		.cfi_startproc
 128              		@ args = 0, pretend = 0, frame = 0
 129              		@ frame_needed = 0, uses_anonymous_args = 0
 130              		@ link register save eliminated.
 131              	.LVL12:
 132              		.loc 1 79 0
 133 0000 0C30     		adds	r0, r0, #12
 134              	.LVL13:
 135 0002 FFF7FEBF 		b	chIQGetTimeout
 136              	.LVL14:
 137              		.cfi_endproc
 138              	.LFE261:
 139              		.size	gett, .-gett
 140 0006 00BF     		.section	.text.get,"ax",%progbits
 141              		.align	1
 142              		.p2align 4,,15
 143              		.syntax unified
 144              		.thumb
 145              		.thumb_func
 146              		.fpu fpv4-sp-d16
 147              		.type	get, %function
 148              	get:
 149              	.LFB259:
 150              		.loc 1 67 0
 151              		.cfi_startproc
 152              		@ args = 0, pretend = 0, frame = 0
 153              		@ frame_needed = 0, uses_anonymous_args = 0
 154              		@ link register save eliminated.
 155              	.LVL15:
 156              		.loc 1 69 0
 157 0000 0C30     		adds	r0, r0, #12
 158              	.LVL16:
 159 0002 4FF0FF31 		mov	r1, #-1
 160 0006 FFF7FEBF 		b	chIQGetTimeout
 161              	.LVL17:
 162              		.cfi_endproc
 163              	.LFE259:
 164              		.size	get, .-get
 165 000a 00BF     		.section	.text.putt,"ax",%progbits
 166              		.align	1
 167              		.p2align 4,,15
 168              		.syntax unified
 169              		.thumb
 170              		.thumb_func
 171              		.fpu fpv4-sp-d16
ARM GAS  /tmp/ccHRlmmj.s 			page 4


 172              		.type	putt, %function
 173              	putt:
 174              	.LFB260:
 175              		.loc 1 72 0
 176              		.cfi_startproc
 177              		@ args = 0, pretend = 0, frame = 0
 178              		@ frame_needed = 0, uses_anonymous_args = 0
 179              		@ link register save eliminated.
 180              	.LVL18:
 181              		.loc 1 74 0
 182 0000 3030     		adds	r0, r0, #48
 183              	.LVL19:
 184 0002 FFF7FEBF 		b	chOQPutTimeout
 185              	.LVL20:
 186              		.cfi_endproc
 187              	.LFE260:
 188              		.size	putt, .-putt
 189 0006 00BF     		.section	.text.put,"ax",%progbits
 190              		.align	1
 191              		.p2align 4,,15
 192              		.syntax unified
 193              		.thumb
 194              		.thumb_func
 195              		.fpu fpv4-sp-d16
 196              		.type	put, %function
 197              	put:
 198              	.LFB258:
 199              		.loc 1 62 0
 200              		.cfi_startproc
 201              		@ args = 0, pretend = 0, frame = 0
 202              		@ frame_needed = 0, uses_anonymous_args = 0
 203              		@ link register save eliminated.
 204              	.LVL21:
 205              		.loc 1 64 0
 206 0000 3030     		adds	r0, r0, #48
 207              	.LVL22:
 208 0002 4FF0FF32 		mov	r2, #-1
 209 0006 FFF7FEBF 		b	chOQPutTimeout
 210              	.LVL23:
 211              		.cfi_endproc
 212              	.LFE258:
 213              		.size	put, .-put
 214 000a 00BF     		.section	.text.sdInit,"ax",%progbits
 215              		.align	1
 216              		.p2align 4,,15
 217              		.global	sdInit
 218              		.syntax unified
 219              		.thumb
 220              		.thumb_func
 221              		.fpu fpv4-sp-d16
 222              		.type	sdInit, %function
 223              	sdInit:
 224              	.LFB264:
 225              		.loc 1 108 0
 226              		.cfi_startproc
 227              		@ args = 0, pretend = 0, frame = 0
 228              		@ frame_needed = 0, uses_anonymous_args = 0
ARM GAS  /tmp/ccHRlmmj.s 			page 5


 229              		@ link register save eliminated.
 230              		.loc 1 110 0
 231 0000 FFF7FEBF 		b	sd_lld_init
 232              	.LVL24:
 233              		.cfi_endproc
 234              	.LFE264:
 235              		.size	sdInit, .-sdInit
 236              		.section	.text.sdObjectInit,"ax",%progbits
 237              		.align	1
 238              		.p2align 4,,15
 239              		.global	sdObjectInit
 240              		.syntax unified
 241              		.thumb
 242              		.thumb_func
 243              		.fpu fpv4-sp-d16
 244              		.type	sdObjectInit, %function
 245              	sdObjectInit:
 246              	.LFB265:
 247              		.loc 1 128 0
 248              		.cfi_startproc
 249              		@ args = 0, pretend = 0, frame = 0
 250              		@ frame_needed = 0, uses_anonymous_args = 0
 251              	.LVL25:
 252 0000 70B5     		push	{r4, r5, r6, lr}
 253              		.cfi_def_cfa_offset 16
 254              		.cfi_offset 4, -16
 255              		.cfi_offset 5, -12
 256              		.cfi_offset 6, -8
 257              		.cfi_offset 14, -4
 258              		.loc 1 130 0
 259 0002 0E4B     		ldr	r3, .L13
 260              		.loc 1 128 0
 261 0004 0446     		mov	r4, r0
 262 0006 82B0     		sub	sp, sp, #8
 263              		.cfi_def_cfa_offset 24
 264              		.loc 1 130 0
 265 0008 40F8043B 		str	r3, [r0], #4
 266              	.LVL26:
 267              		.loc 1 132 0
 268 000c 0126     		movs	r6, #1
 269              		.loc 1 133 0
 270 000e 0094     		str	r4, [sp]
 271              		.loc 1 128 0
 272 0010 1546     		mov	r5, r2
 273              		.loc 1 133 0
 274 0012 0B46     		mov	r3, r1
 275              	.LBB66:
 276              	.LBB67:
 277              	.LBB68:
 278              		.file 2 "ChibiOS_3.0.2/os/rt/include/chevents.h"
 279              		.loc 2 172 0
 280 0014 6060     		str	r0, [r4, #4]
 281              	.LVL27:
 282              	.LBE68:
 283              	.LBE67:
 284              	.LBE66:
 285              		.loc 1 133 0
ARM GAS  /tmp/ccHRlmmj.s 			page 6


 286 0016 04F15401 		add	r1, r4, #84
 287              	.LVL28:
 288 001a 04F10C00 		add	r0, r4, #12
 289              		.loc 1 132 0
 290 001e 2672     		strb	r6, [r4, #8]
 291              		.loc 1 133 0
 292 0020 8022     		movs	r2, #128
 293              	.LVL29:
 294 0022 FFF7FEFF 		bl	chIQObjectInit
 295              	.LVL30:
 296              		.loc 1 134 0
 297 0026 0094     		str	r4, [sp]
 298 0028 2B46     		mov	r3, r5
 299 002a 04F1D401 		add	r1, r4, #212
 300 002e 04F13000 		add	r0, r4, #48
 301 0032 8022     		movs	r2, #128
 302 0034 FFF7FEFF 		bl	chOQObjectInit
 303              	.LVL31:
 304              		.loc 1 135 0
 305 0038 02B0     		add	sp, sp, #8
 306              		.cfi_def_cfa_offset 16
 307              		@ sp needed
 308 003a 70BD     		pop	{r4, r5, r6, pc}
 309              	.LVL32:
 310              	.L14:
 311              		.align	2
 312              	.L13:
 313 003c 00000000 		.word	.LANCHOR0
 314              		.cfi_endproc
 315              	.LFE265:
 316              		.size	sdObjectInit, .-sdObjectInit
 317              		.section	.text.sdStart,"ax",%progbits
 318              		.align	1
 319              		.p2align 4,,15
 320              		.global	sdStart
 321              		.syntax unified
 322              		.thumb
 323              		.thumb_func
 324              		.fpu fpv4-sp-d16
 325              		.type	sdStart, %function
 326              	sdStart:
 327              	.LFB266:
 328              		.loc 1 147 0
 329              		.cfi_startproc
 330              		@ args = 0, pretend = 0, frame = 0
 331              		@ frame_needed = 0, uses_anonymous_args = 0
 332              	.LVL33:
 333 0000 10B5     		push	{r4, lr}
 334              		.cfi_def_cfa_offset 8
 335              		.cfi_offset 4, -8
 336              		.cfi_offset 14, -4
 337              	.LBB69:
 338              	.LBB70:
 339              	.LBB71:
 340              	.LBB72:
 341              	.LBB73:
 342              		.file 3 "ChibiOS_3.0.2/os/ext/CMSIS/include/core_cmFunc.h"
ARM GAS  /tmp/ccHRlmmj.s 			page 7


 343              		.loc 3 546 0
 344 0002 2023     		movs	r3, #32
 345              	.LBE73:
 346              	.LBE72:
 347              	.LBE71:
 348              	.LBE70:
 349              	.LBE69:
 350              		.loc 1 147 0
 351 0004 0446     		mov	r4, r0
 352              	.LBB78:
 353              	.LBB77:
 354              	.LBB76:
 355              	.LBB75:
 356              	.LBB74:
 357              		.loc 3 546 0
 358              		.syntax unified
 359              	@ 546 "ChibiOS_3.0.2/os/ext/CMSIS/include/core_cmFunc.h" 1
 360 0006 83F31188 		MSR basepri, r3
 361              	@ 0 "" 2
 362              	.LVL34:
 363              		.thumb
 364              		.syntax unified
 365              	.LBE74:
 366              	.LBE75:
 367              	.LBE76:
 368              	.LBE77:
 369              	.LBE78:
 370              		.loc 1 154 0
 371 000a FFF7FEFF 		bl	sd_lld_start
 372              	.LVL35:
 373              		.loc 1 155 0
 374 000e 0223     		movs	r3, #2
 375 0010 2372     		strb	r3, [r4, #8]
 376              	.LVL36:
 377              	.LBB79:
 378              	.LBB80:
 379              	.LBB81:
 380              	.LBB82:
 381              	.LBB83:
 382              	.LBB84:
 383              		.loc 3 546 0
 384 0012 0023     		movs	r3, #0
 385              		.syntax unified
 386              	@ 546 "ChibiOS_3.0.2/os/ext/CMSIS/include/core_cmFunc.h" 1
 387 0014 83F31188 		MSR basepri, r3
 388              	@ 0 "" 2
 389              	.LVL37:
 390              		.thumb
 391              		.syntax unified
 392              	.LBE84:
 393              	.LBE83:
 394              	.LBE82:
 395              	.LBE81:
 396              	.LBE80:
 397              	.LBE79:
 398              		.loc 1 157 0
 399 0018 10BD     		pop	{r4, pc}
ARM GAS  /tmp/ccHRlmmj.s 			page 8


 400              		.cfi_endproc
 401              	.LFE266:
 402              		.size	sdStart, .-sdStart
 403 001a 00BF     		.section	.text.sdStop,"ax",%progbits
 404              		.align	1
 405              		.p2align 4,,15
 406              		.global	sdStop
 407              		.syntax unified
 408              		.thumb
 409              		.thumb_func
 410              		.fpu fpv4-sp-d16
 411              		.type	sdStop, %function
 412              	sdStop:
 413              	.LFB267:
 414              		.loc 1 168 0
 415              		.cfi_startproc
 416              		@ args = 0, pretend = 0, frame = 0
 417              		@ frame_needed = 0, uses_anonymous_args = 0
 418              	.LVL38:
 419 0000 10B5     		push	{r4, lr}
 420              		.cfi_def_cfa_offset 8
 421              		.cfi_offset 4, -8
 422              		.cfi_offset 14, -4
 423              	.LBB85:
 424              	.LBB86:
 425              	.LBB87:
 426              	.LBB88:
 427              	.LBB89:
 428              		.loc 3 546 0
 429 0002 2023     		movs	r3, #32
 430              	.LBE89:
 431              	.LBE88:
 432              	.LBE87:
 433              	.LBE86:
 434              	.LBE85:
 435              		.loc 1 168 0
 436 0004 0446     		mov	r4, r0
 437              	.LBB94:
 438              	.LBB93:
 439              	.LBB92:
 440              	.LBB91:
 441              	.LBB90:
 442              		.loc 3 546 0
 443              		.syntax unified
 444              	@ 546 "ChibiOS_3.0.2/os/ext/CMSIS/include/core_cmFunc.h" 1
 445 0006 83F31188 		MSR basepri, r3
 446              	@ 0 "" 2
 447              	.LVL39:
 448              		.thumb
 449              		.syntax unified
 450              	.LBE90:
 451              	.LBE91:
 452              	.LBE92:
 453              	.LBE93:
 454              	.LBE94:
 455              		.loc 1 175 0
 456 000a FFF7FEFF 		bl	sd_lld_stop
ARM GAS  /tmp/ccHRlmmj.s 			page 9


 457              	.LVL40:
 458              		.loc 1 176 0
 459 000e 0123     		movs	r3, #1
 460 0010 2372     		strb	r3, [r4, #8]
 461              		.loc 1 177 0
 462 0012 04F13000 		add	r0, r4, #48
 463 0016 FFF7FEFF 		bl	chOQResetI
 464              	.LVL41:
 465              		.loc 1 178 0
 466 001a 04F10C00 		add	r0, r4, #12
 467 001e FFF7FEFF 		bl	chIQResetI
 468              	.LVL42:
 469              	.LBB95:
 470              	.LBB96:
 471              		.file 4 "ChibiOS_3.0.2/os/hal/osal/rt/osal.h"
 472              		.loc 4 600 0
 473 0022 FFF7FEFF 		bl	chSchRescheduleS
 474              	.LVL43:
 475              	.LBE96:
 476              	.LBE95:
 477              	.LBB97:
 478              	.LBB98:
 479              	.LBB99:
 480              	.LBB100:
 481              	.LBB101:
 482              	.LBB102:
 483              		.loc 3 546 0
 484 0026 0023     		movs	r3, #0
 485              		.syntax unified
 486              	@ 546 "ChibiOS_3.0.2/os/ext/CMSIS/include/core_cmFunc.h" 1
 487 0028 83F31188 		MSR basepri, r3
 488              	@ 0 "" 2
 489              	.LVL44:
 490              		.thumb
 491              		.syntax unified
 492              	.LBE102:
 493              	.LBE101:
 494              	.LBE100:
 495              	.LBE99:
 496              	.LBE98:
 497              	.LBE97:
 498              		.loc 1 181 0
 499 002c 10BD     		pop	{r4, pc}
 500              		.cfi_endproc
 501              	.LFE267:
 502              		.size	sdStop, .-sdStop
 503 002e 00BF     		.section	.text.sdIncomingDataI,"ax",%progbits
 504              		.align	1
 505              		.p2align 4,,15
 506              		.global	sdIncomingDataI
 507              		.syntax unified
 508              		.thumb
 509              		.thumb_func
 510              		.fpu fpv4-sp-d16
 511              		.type	sdIncomingDataI, %function
 512              	sdIncomingDataI:
 513              	.LFB268:
ARM GAS  /tmp/ccHRlmmj.s 			page 10


 514              		.loc 1 199 0
 515              		.cfi_startproc
 516              		@ args = 0, pretend = 0, frame = 0
 517              		@ frame_needed = 0, uses_anonymous_args = 0
 518              	.LVL45:
 519 0000 38B5     		push	{r3, r4, r5, lr}
 520              		.cfi_def_cfa_offset 16
 521              		.cfi_offset 3, -16
 522              		.cfi_offset 4, -12
 523              		.cfi_offset 5, -8
 524              		.cfi_offset 14, -4
 525              	.LBB103:
 526              	.LBB104:
 527              		.file 5 "ChibiOS_3.0.2/os/rt/include/chqueues.h"
 528              		.loc 5 307 0
 529 0002 4369     		ldr	r3, [r0, #20]
 530              	.LBE104:
 531              	.LBE103:
 532              		.loc 1 199 0
 533 0004 0446     		mov	r4, r0
 534              	.LVL46:
 535 0006 0D46     		mov	r5, r1
 536              		.loc 1 204 0
 537 0008 3BB1     		cbz	r3, .L23
 538              		.loc 1 206 0
 539 000a 2946     		mov	r1, r5
 540              	.LVL47:
 541 000c 04F10C00 		add	r0, r4, #12
 542              	.LVL48:
 543 0010 FFF7FEFF 		bl	chIQPutI
 544              	.LVL49:
 545 0014 0028     		cmp	r0, #0
 546 0016 0BDB     		blt	.L24
 547              	.L19:
 548              		.loc 1 208 0
 549 0018 38BD     		pop	{r3, r4, r5, pc}
 550              	.LVL50:
 551              	.L23:
 552              	.LBB105:
 553              	.LBB106:
 554              		.loc 4 844 0
 555 001a 0421     		movs	r1, #4
 556              	.LVL51:
 557 001c 0844     		add	r0, r0, r1
 558              	.LVL52:
 559 001e FFF7FEFF 		bl	chEvtBroadcastFlagsI
 560              	.LVL53:
 561              	.LBE106:
 562              	.LBE105:
 563              		.loc 1 206 0
 564 0022 2946     		mov	r1, r5
 565 0024 04F10C00 		add	r0, r4, #12
 566 0028 FFF7FEFF 		bl	chIQPutI
 567              	.LVL54:
 568 002c 0028     		cmp	r0, #0
 569 002e F3DA     		bge	.L19
 570              	.LVL55:
ARM GAS  /tmp/ccHRlmmj.s 			page 11


 571              	.L24:
 572              	.LBB107:
 573              	.LBB108:
 574              		.loc 4 844 0
 575 0030 201D     		adds	r0, r4, #4
 576              	.LVL56:
 577 0032 8021     		movs	r1, #128
 578              	.LBE108:
 579              	.LBE107:
 580              		.loc 1 208 0
 581 0034 BDE83840 		pop	{r3, r4, r5, lr}
 582              		.cfi_restore 14
 583              		.cfi_restore 5
 584              		.cfi_restore 4
 585              		.cfi_restore 3
 586              		.cfi_def_cfa_offset 0
 587              	.LVL57:
 588              	.LBB110:
 589              	.LBB109:
 590              		.loc 4 844 0
 591 0038 FFF7FEBF 		b	chEvtBroadcastFlagsI
 592              	.LVL58:
 593              	.LBE109:
 594              	.LBE110:
 595              		.cfi_endproc
 596              	.LFE268:
 597              		.size	sdIncomingDataI, .-sdIncomingDataI
 598              		.section	.text.sdRequestDataI,"ax",%progbits
 599              		.align	1
 600              		.p2align 4,,15
 601              		.global	sdRequestDataI
 602              		.syntax unified
 603              		.thumb
 604              		.thumb_func
 605              		.fpu fpv4-sp-d16
 606              		.type	sdRequestDataI, %function
 607              	sdRequestDataI:
 608              	.LFB269:
 609              		.loc 1 225 0
 610              		.cfi_startproc
 611              		@ args = 0, pretend = 0, frame = 0
 612              		@ frame_needed = 0, uses_anonymous_args = 0
 613              	.LVL59:
 614 0000 38B5     		push	{r3, r4, r5, lr}
 615              		.cfi_def_cfa_offset 16
 616              		.cfi_offset 3, -16
 617              		.cfi_offset 4, -12
 618              		.cfi_offset 5, -8
 619              		.cfi_offset 14, -4
 620              		.loc 1 225 0
 621 0002 0446     		mov	r4, r0
 622              		.loc 1 231 0
 623 0004 3030     		adds	r0, r0, #48
 624              	.LVL60:
 625 0006 FFF7FEFF 		bl	chOQGetI
 626              	.LVL61:
 627              		.loc 1 232 0
ARM GAS  /tmp/ccHRlmmj.s 			page 12


 628 000a 051E     		subs	r5, r0, #0
 629 000c 01DB     		blt	.L28
 630              		.loc 1 235 0
 631 000e 2846     		mov	r0, r5
 632 0010 38BD     		pop	{r3, r4, r5, pc}
 633              	.LVL62:
 634              	.L28:
 635              	.LBB111:
 636              	.LBB112:
 637              		.loc 4 844 0
 638 0012 201D     		adds	r0, r4, #4
 639              	.LVL63:
 640 0014 0821     		movs	r1, #8
 641 0016 FFF7FEFF 		bl	chEvtBroadcastFlagsI
 642              	.LVL64:
 643              	.LBE112:
 644              	.LBE111:
 645              		.loc 1 235 0
 646 001a 2846     		mov	r0, r5
 647 001c 38BD     		pop	{r3, r4, r5, pc}
 648              		.cfi_endproc
 649              	.LFE269:
 650              		.size	sdRequestDataI, .-sdRequestDataI
 651 001e 00BF     		.section	.rodata.vmt,"a",%progbits
 652              		.align	2
 653              		.set	.LANCHOR0,. + 0
 654              		.type	vmt, %object
 655              		.size	vmt, 32
 656              	vmt:
 657 0000 00000000 		.word	write
 658 0004 00000000 		.word	read
 659 0008 00000000 		.word	put
 660 000c 00000000 		.word	get
 661 0010 00000000 		.word	putt
 662 0014 00000000 		.word	gett
 663 0018 00000000 		.word	writet
 664 001c 00000000 		.word	readt
 665              		.text
 666              	.Letext0:
 667              		.file 6 "/usr/lib/gcc/arm-none-eabi/7.3.1/include/stddef.h"
 668              		.file 7 "/usr/arm-none-eabi/include/machine/_default_types.h"
 669              		.file 8 "/usr/arm-none-eabi/include/sys/_stdint.h"
 670              		.file 9 "ChibiOS_3.0.2/os/rt/ports/ARMCMx/compilers/GCC/chtypes.h"
 671              		.file 10 "ChibiOS_3.0.2/os/rt/include/chsystypes.h"
 672              		.file 11 "ChibiOS_3.0.2/os/rt/include/chschd.h"
 673              		.file 12 "ChibiOS_3.0.2/os/ext/CMSIS/include/core_cm4.h"
 674              		.file 13 "ChibiOS_3.0.2/os/ext/CMSIS/ST/system_stm32f4xx.h"
 675              		.file 14 "ChibiOS_3.0.2/os/ext/CMSIS/ST/stm32f407xx.h"
 676              		.file 15 "ChibiOS_3.0.2/os/rt/ports/ARMCMx/chcore.h"
 677              		.file 16 "ChibiOS_3.0.2/os/rt/ports/ARMCMx/chcore_v7m.h"
 678              		.file 17 "ChibiOS_3.0.2/os/rt/include/chtm.h"
 679              		.file 18 "ChibiOS_3.0.2/os/rt/include/chsem.h"
 680              		.file 19 "ChibiOS_3.0.2/os/rt/include/chmtx.h"
 681              		.file 20 "ChibiOS_3.0.2/os/rt/include/chregistry.h"
 682              		.file 21 "./conf_general.h"
 683              		.file 22 "ChibiOS_3.0.2/os/hal/ports/STM32/STM32F4xx/stm32_dma.h"
 684              		.file 23 "ChibiOS_3.0.2/os/hal/ports/STM32/LLD/GPIOv2/pal_lld.h"
ARM GAS  /tmp/ccHRlmmj.s 			page 13


 685              		.file 24 "ChibiOS_3.0.2/os/hal/include/can.h"
 686              		.file 25 "ChibiOS_3.0.2/os/hal/ports/STM32/LLD/can_lld.h"
 687              		.file 26 "ChibiOS_3.0.2/os/hal/include/i2c.h"
 688              		.file 27 "ChibiOS_3.0.2/os/hal/ports/STM32/LLD/I2Cv1/i2c_lld.h"
 689              		.file 28 "ChibiOS_3.0.2/os/hal/include/icu.h"
 690              		.file 29 "ChibiOS_3.0.2/os/hal/ports/STM32/LLD/TIMv1/icu_lld.h"
 691              		.file 30 "ChibiOS_3.0.2/os/hal/ports/STM32/LLD/TIMv1/stm32_tim.h"
 692              		.file 31 "ChibiOS_3.0.2/os/hal/include/serial.h"
 693              		.file 32 "ChibiOS_3.0.2/os/hal/ports/STM32/LLD/USARTv1/serial_lld.h"
 694              		.file 33 "ChibiOS_3.0.2/os/hal/include/spi.h"
 695              		.file 34 "ChibiOS_3.0.2/os/hal/ports/STM32/LLD/SPIv1/spi_lld.h"
 696              		.file 35 "ChibiOS_3.0.2/os/hal/include/usb.h"
 697              		.file 36 "ChibiOS_3.0.2/os/hal/ports/STM32/LLD/OTGv1/usb_lld.h"
 698              		.file 37 "ChibiOS_3.0.2/os/hal/ports/STM32/LLD/OTGv1/stm32_otg.h"
 699              		.file 38 "ChibiOS_3.0.2/os/rt/include/chsys.h"