ARM GAS  /tmp/ccBMg8Vm.s 			page 1


   1              		.cpu cortex-m4
   2              		.eabi_attribute 27, 1
   3              		.eabi_attribute 28, 1
   4              		.eabi_attribute 20, 1
   5              		.eabi_attribute 21, 1
   6              		.eabi_attribute 23, 3
   7              		.eabi_attribute 24, 1
   8              		.eabi_attribute 25, 1
   9              		.eabi_attribute 26, 1
  10              		.eabi_attribute 30, 2
  11              		.eabi_attribute 34, 1
  12              		.eabi_attribute 18, 4
  13              		.file	"spi_lld.c"
  14              		.text
  15              	.Ltext0:
  16              		.cfi_sections	.debug_frame
  17              		.section	.text.spi_lld_serve_tx_interrupt,"ax",%progbits
  18              		.align	1
  19              		.p2align 4,,15
  20              		.syntax unified
  21              		.thumb
  22              		.thumb_func
  23              		.fpu fpv4-sp-d16
  24              		.type	spi_lld_serve_tx_interrupt, %function
  25              	spi_lld_serve_tx_interrupt:
  26              	.LFB257:
  27              		.file 1 "ChibiOS_3.0.2/os/hal/ports/STM32/LLD/SPIv1/spi_lld.c"
  28              		.loc 1 158 0
  29              		.cfi_startproc
  30              		@ args = 0, pretend = 0, frame = 0
  31              		@ frame_needed = 0, uses_anonymous_args = 0
  32              		@ link register save eliminated.
  33              	.LVL0:
  34              		.loc 1 163 0
  35 0000 11F00C0F 		tst	r1, #12
  36 0004 00D1     		bne	.L4
  37              		.loc 1 170 0
  38 0006 7047     		bx	lr
  39              	.L4:
  40              	.LVL1:
  41              	.LBB56:
  42              	.LBB57:
  43              		.file 2 "ChibiOS_3.0.2/os/hal/osal/rt/osal.h"
  44              		.loc 2 462 0
  45 0008 0148     		ldr	r0, .L5
  46              	.LVL2:
  47 000a FFF7FEBF 		b	chSysHalt
  48              	.LVL3:
  49              	.L6:
  50 000e 00BF     		.align	2
  51              	.L5:
  52 0010 00000000 		.word	.LC0
  53              	.LBE57:
  54              	.LBE56:
  55              		.cfi_endproc
  56              	.LFE257:
  57              		.size	spi_lld_serve_tx_interrupt, .-spi_lld_serve_tx_interrupt
ARM GAS  /tmp/ccBMg8Vm.s 			page 2


  58              		.section	.text.spi_lld_serve_rx_interrupt,"ax",%progbits
  59              		.align	1
  60              		.p2align 4,,15
  61              		.syntax unified
  62              		.thumb
  63              		.thumb_func
  64              		.fpu fpv4-sp-d16
  65              		.type	spi_lld_serve_rx_interrupt, %function
  66              	spi_lld_serve_rx_interrupt:
  67              	.LFB256:
  68              		.loc 1 132 0
  69              		.cfi_startproc
  70              		@ args = 0, pretend = 0, frame = 0
  71              		@ frame_needed = 0, uses_anonymous_args = 0
  72              	.LVL4:
  73              		.loc 1 136 0
  74 0000 11F00C0F 		tst	r1, #12
  75              		.loc 1 132 0
  76 0004 38B5     		push	{r3, r4, r5, lr}
  77              		.cfi_def_cfa_offset 16
  78              		.cfi_offset 3, -16
  79              		.cfi_offset 4, -12
  80              		.cfi_offset 5, -8
  81              		.cfi_offset 14, -4
  82              		.loc 1 132 0
  83 0006 0446     		mov	r4, r0
  84              		.loc 1 136 0
  85 0008 34D1     		bne	.L22
  86              	.LVL5:
  87              	.L8:
  88              		.loc 1 144 0
  89 000a 606A     		ldr	r0, [r4, #36]
  90 000c 0268     		ldr	r2, [r0]
  91 000e 1368     		ldr	r3, [r2]
  92 0010 23F01F03 		bic	r3, r3, #31
  93 0014 1360     		str	r3, [r2]
  94              	.L9:
  95              		.loc 1 144 0 is_stmt 0 discriminator 2
  96 0016 1368     		ldr	r3, [r2]
  97 0018 D907     		lsls	r1, r3, #31
  98 001a FCD4     		bmi	.L9
  99              		.loc 1 144 0 discriminator 3
 100 001c 057A     		ldrb	r5, [r0, #8]	@ zero_extendqisi2
 101              		.loc 1 145 0 is_stmt 1 discriminator 3
 102 001e 216A     		ldr	r1, [r4, #32]
 103              		.loc 1 144 0 discriminator 3
 104 0020 4068     		ldr	r0, [r0, #4]
 105              		.loc 1 145 0 discriminator 3
 106 0022 0A68     		ldr	r2, [r1]
 107              		.loc 1 144 0 discriminator 3
 108 0024 3D23     		movs	r3, #61
 109 0026 AB40     		lsls	r3, r3, r5
 110 0028 0360     		str	r3, [r0]
 111              		.loc 1 145 0 discriminator 3
 112 002a 1368     		ldr	r3, [r2]
 113 002c 23F01F03 		bic	r3, r3, #31
 114 0030 1360     		str	r3, [r2]
ARM GAS  /tmp/ccBMg8Vm.s 			page 3


 115              	.L10:
 116              		.loc 1 145 0 is_stmt 0 discriminator 2
 117 0032 1368     		ldr	r3, [r2]
 118 0034 DB07     		lsls	r3, r3, #31
 119 0036 FCD4     		bmi	.L10
 120              		.loc 1 149 0 is_stmt 1 discriminator 3
 121 0038 6368     		ldr	r3, [r4, #4]
 122              		.loc 1 145 0 discriminator 3
 123 003a 087A     		ldrb	r0, [r1, #8]	@ zero_extendqisi2
 124              		.loc 1 149 0 discriminator 3
 125 003c 1A68     		ldr	r2, [r3]
 126              		.loc 1 145 0 discriminator 3
 127 003e 4968     		ldr	r1, [r1, #4]
 128 0040 3D23     		movs	r3, #61
 129 0042 8340     		lsls	r3, r3, r0
 130 0044 0B60     		str	r3, [r1]
 131              		.loc 1 149 0 discriminator 3
 132 0046 92B1     		cbz	r2, .L11
 133              		.loc 1 149 0 is_stmt 0 discriminator 1
 134 0048 0423     		movs	r3, #4
 135 004a 2370     		strb	r3, [r4]
 136 004c 2046     		mov	r0, r4
 137 004e 9047     		blx	r2
 138              	.LVL6:
 139 0050 2378     		ldrb	r3, [r4]	@ zero_extendqisi2
 140 0052 042B     		cmp	r3, #4
 141 0054 0BD0     		beq	.L11
 142              	.L12:
 143              	.LVL7:
 144              	.LBB58:
 145              	.LBB59:
 146              	.LBB60:
 147              	.LBB61:
 148              	.LBB62:
 149              	.LBB63:
 150              		.file 3 "ChibiOS_3.0.2/os/ext/CMSIS/include/core_cmFunc.h"
 151              		.loc 3 546 0 is_stmt 1 discriminator 4
 152 0056 2023     		movs	r3, #32
 153              		.syntax unified
 154              	@ 546 "ChibiOS_3.0.2/os/ext/CMSIS/include/core_cmFunc.h" 1
 155 0058 83F31188 		MSR basepri, r3
 156              	@ 0 "" 2
 157              	.LVL8:
 158              		.thumb
 159              		.syntax unified
 160              	.LBE63:
 161              	.LBE62:
 162              	.LBE61:
 163              	.LBE60:
 164              	.LBE59:
 165              	.LBE58:
 166              	.LBB64:
 167              	.LBB65:
 168              		.loc 2 728 0 discriminator 4
 169 005c 0021     		movs	r1, #0
 170 005e 04F10800 		add	r0, r4, #8
 171              	.LVL9:
ARM GAS  /tmp/ccBMg8Vm.s 			page 4


 172 0062 FFF7FEFF 		bl	chThdResumeI
 173              	.LVL10:
 174              	.LBE65:
 175              	.LBE64:
 176              	.LBB66:
 177              	.LBB67:
 178              	.LBB68:
 179              	.LBB69:
 180              	.LBB70:
 181              	.LBB71:
 182              		.loc 3 546 0 discriminator 4
 183 0066 0023     		movs	r3, #0
 184              		.syntax unified
 185              	@ 546 "ChibiOS_3.0.2/os/ext/CMSIS/include/core_cmFunc.h" 1
 186 0068 83F31188 		MSR basepri, r3
 187              	@ 0 "" 2
 188              	.LVL11:
 189              		.thumb
 190              		.syntax unified
 191              	.LBE71:
 192              	.LBE70:
 193              	.LBE69:
 194              	.LBE68:
 195              	.LBE67:
 196              	.LBE66:
 197              		.loc 1 150 0 discriminator 4
 198 006c 38BD     		pop	{r3, r4, r5, pc}
 199              	.LVL12:
 200              	.L11:
 201              		.loc 1 149 0 discriminator 3
 202 006e 0223     		movs	r3, #2
 203 0070 2370     		strb	r3, [r4]
 204 0072 F0E7     		b	.L12
 205              	.LVL13:
 206              	.L22:
 207              	.LBB72:
 208              	.LBB73:
 209              		.loc 2 462 0
 210 0074 0148     		ldr	r0, .L23
 211              	.LVL14:
 212 0076 FFF7FEFF 		bl	chSysHalt
 213              	.LVL15:
 214 007a C6E7     		b	.L8
 215              	.L24:
 216              		.align	2
 217              	.L23:
 218 007c 00000000 		.word	.LC0
 219              	.LBE73:
 220              	.LBE72:
 221              		.cfi_endproc
 222              	.LFE256:
 223              		.size	spi_lld_serve_rx_interrupt, .-spi_lld_serve_rx_interrupt
 224              		.section	.text.spi_lld_init,"ax",%progbits
 225              		.align	1
 226              		.p2align 4,,15
 227              		.global	spi_lld_init
 228              		.syntax unified
ARM GAS  /tmp/ccBMg8Vm.s 			page 5


 229              		.thumb
 230              		.thumb_func
 231              		.fpu fpv4-sp-d16
 232              		.type	spi_lld_init, %function
 233              	spi_lld_init:
 234              	.LFB258:
 235              		.loc 1 185 0
 236              		.cfi_startproc
 237              		@ args = 0, pretend = 0, frame = 0
 238              		@ frame_needed = 0, uses_anonymous_args = 0
 239 0000 10B5     		push	{r4, lr}
 240              		.cfi_def_cfa_offset 8
 241              		.cfi_offset 4, -8
 242              		.cfi_offset 14, -4
 243              		.loc 1 190 0
 244 0002 0A4C     		ldr	r4, .L27
 245              		.loc 1 187 0
 246 0004 0A4B     		ldr	r3, .L27+4
 247 0006 4FF6FF72 		movw	r2, #65535
 248              		.loc 1 190 0
 249 000a 2046     		mov	r0, r4
 250              		.loc 1 187 0
 251 000c 1A80     		strh	r2, [r3]	@ movhi
 252              		.loc 1 190 0
 253 000e FFF7FEFF 		bl	spiObjectInit
 254              	.LVL16:
 255              		.loc 1 192 0
 256 0012 084B     		ldr	r3, .L27+8
 257              		.loc 1 191 0
 258 0014 0848     		ldr	r0, .L27+12
 259              		.loc 1 194 0
 260 0016 0949     		ldr	r1, .L27+16
 261              		.loc 1 200 0
 262 0018 094A     		ldr	r2, .L27+20
 263              		.loc 1 191 0
 264 001a E061     		str	r0, [r4, #28]
 265              		.loc 1 193 0
 266 001c 03F12400 		add	r0, r3, #36
 267 0020 C4E90830 		strd	r3, r0, [r4, #32]
 268              		.loc 1 200 0
 269 0024 C4E90A12 		strd	r1, r2, [r4, #40]
 270              		.loc 1 296 0
 271 0028 10BD     		pop	{r4, pc}
 272              	.L28:
 273 002a 00BF     		.align	2
 274              	.L27:
 275 002c 00000000 		.word	.LANCHOR1
 276 0030 00000000 		.word	.LANCHOR0
 277 0034 60000000 		.word	_stm32_dma_streams+96
 278 0038 00300140 		.word	1073819648
 279 003c 16000106 		.word	100728854
 280 0040 46000106 		.word	100728902
 281              		.cfi_endproc
 282              	.LFE258:
 283              		.size	spi_lld_init, .-spi_lld_init
 284              		.section	.text.spi_lld_start,"ax",%progbits
 285              		.align	1
ARM GAS  /tmp/ccBMg8Vm.s 			page 6


 286              		.p2align 4,,15
 287              		.global	spi_lld_start
 288              		.syntax unified
 289              		.thumb
 290              		.thumb_func
 291              		.fpu fpv4-sp-d16
 292              		.type	spi_lld_start, %function
 293              	spi_lld_start:
 294              	.LFB259:
 295              		.loc 1 305 0
 296              		.cfi_startproc
 297              		@ args = 0, pretend = 0, frame = 0
 298              		@ frame_needed = 0, uses_anonymous_args = 0
 299              	.LVL17:
 300              		.loc 1 308 0
 301 0000 0378     		ldrb	r3, [r0]	@ zero_extendqisi2
 302 0002 012B     		cmp	r3, #1
 303              		.loc 1 305 0
 304 0004 10B5     		push	{r4, lr}
 305              		.cfi_def_cfa_offset 8
 306              		.cfi_offset 4, -8
 307              		.cfi_offset 14, -4
 308              		.loc 1 305 0
 309 0006 0446     		mov	r4, r0
 310              		.loc 1 308 0
 311 0008 1DD0     		beq	.L35
 312 000a C369     		ldr	r3, [r0, #28]
 313              	.LVL18:
 314              	.L30:
 315              		.loc 1 412 0
 316 000c 6268     		ldr	r2, [r4, #4]
 317 000e A16A     		ldr	r1, [r4, #40]
 318 0010 5089     		ldrh	r0, [r2, #10]
 319 0012 E26A     		ldr	r2, [r4, #44]
 320 0014 21F4F041 		bic	r1, r1, #30720
 321 0018 22F4F042 		bic	r2, r2, #30720
 322 001c 10F4006F 		tst	r0, #2048
 323              		.loc 1 422 0
 324 0020 1CBF     		itt	ne
 325 0022 41F42051 		orrne	r1, r1, #10240
 326              		.loc 1 424 0
 327 0026 42F42052 		orrne	r2, r2, #10240
 328              		.loc 1 423 0
 329 002a C4E90A12 		strd	r1, r2, [r4, #40]
 330              		.loc 1 428 0
 331 002e 40F44170 		orr	r0, r0, #772
 332              		.loc 1 430 0
 333 0032 0722     		movs	r2, #7
 334              		.loc 1 427 0
 335 0034 0021     		movs	r1, #0
 336 0036 1960     		str	r1, [r3]
 337              		.loc 1 428 0
 338 0038 1860     		str	r0, [r3]
 339              		.loc 1 430 0
 340 003a 5A60     		str	r2, [r3, #4]
 341              		.loc 1 431 0
 342 003c 1A68     		ldr	r2, [r3]
ARM GAS  /tmp/ccBMg8Vm.s 			page 7


 343 003e 42F04002 		orr	r2, r2, #64
 344 0042 1A60     		str	r2, [r3]
 345              		.loc 1 432 0
 346 0044 10BD     		pop	{r4, pc}
 347              	.LVL19:
 348              	.L35:
 349              		.loc 1 310 0
 350 0046 0F4B     		ldr	r3, .L39
 351 0048 9842     		cmp	r0, r3
 352 004a 09D0     		beq	.L38
 353              	.LVL20:
 354              	.L31:
 355              		.loc 1 408 0
 356 004c D4E90812 		ldrd	r1, r2, [r4, #32]
 357              		.loc 1 407 0
 358 0050 E369     		ldr	r3, [r4, #28]
 359 0052 0868     		ldr	r0, [r1]
 360              		.loc 1 408 0
 361 0054 1168     		ldr	r1, [r2]
 362              		.loc 1 407 0
 363 0056 03F10C02 		add	r2, r3, #12
 364 005a 8260     		str	r2, [r0, #8]
 365              		.loc 1 408 0
 366 005c 8A60     		str	r2, [r1, #8]
 367 005e D5E7     		b	.L30
 368              	.LVL21:
 369              	.L38:
 370              	.LBB74:
 371              		.loc 1 312 0
 372 0060 0346     		mov	r3, r0
 373 0062 094A     		ldr	r2, .L39+4
 374 0064 006A     		ldr	r0, [r0, #32]
 375              	.LVL22:
 376 0066 0A21     		movs	r1, #10
 377 0068 FFF7FEFF 		bl	dmaStreamAllocate
 378              	.LVL23:
 379              		.loc 1 317 0
 380 006c 2346     		mov	r3, r4
 381 006e 074A     		ldr	r2, .L39+8
 382 0070 606A     		ldr	r0, [r4, #36]
 383 0072 0A21     		movs	r1, #10
 384 0074 FFF7FEFF 		bl	dmaStreamAllocate
 385              	.LVL24:
 386              		.loc 1 322 0
 387 0078 054A     		ldr	r2, .L39+12
 388 007a 536C     		ldr	r3, [r2, #68]
 389 007c 43F48053 		orr	r3, r3, #4096
 390 0080 5364     		str	r3, [r2, #68]
 391 0082 E3E7     		b	.L31
 392              	.L40:
 393              		.align	2
 394              	.L39:
 395 0084 00000000 		.word	.LANCHOR1
 396 0088 00000000 		.word	spi_lld_serve_rx_interrupt
 397 008c 00000000 		.word	spi_lld_serve_tx_interrupt
 398 0090 00380240 		.word	1073887232
 399              	.LBE74:
ARM GAS  /tmp/ccBMg8Vm.s 			page 8


 400              		.cfi_endproc
 401              	.LFE259:
 402              		.size	spi_lld_start, .-spi_lld_start
 403              		.section	.text.spi_lld_stop,"ax",%progbits
 404              		.align	1
 405              		.p2align 4,,15
 406              		.global	spi_lld_stop
 407              		.syntax unified
 408              		.thumb
 409              		.thumb_func
 410              		.fpu fpv4-sp-d16
 411              		.type	spi_lld_stop, %function
 412              	spi_lld_stop:
 413              	.LFB260:
 414              		.loc 1 441 0
 415              		.cfi_startproc
 416              		@ args = 0, pretend = 0, frame = 0
 417              		@ frame_needed = 0, uses_anonymous_args = 0
 418              	.LVL25:
 419              		.loc 1 444 0
 420 0000 0378     		ldrb	r3, [r0]	@ zero_extendqisi2
 421 0002 022B     		cmp	r3, #2
 422 0004 00D0     		beq	.L49
 423 0006 7047     		bx	lr
 424              	.L49:
 425              		.loc 1 441 0
 426 0008 10B5     		push	{r4, lr}
 427              		.cfi_def_cfa_offset 8
 428              		.cfi_offset 4, -8
 429              		.cfi_offset 14, -4
 430 000a 0446     		mov	r4, r0
 431              		.loc 1 449 0
 432 000c D0E90730 		ldrd	r3, r0, [r0, #28]
 433              	.LVL26:
 434              		.loc 1 447 0
 435 0010 0022     		movs	r2, #0
 436 0012 1A60     		str	r2, [r3]
 437              		.loc 1 448 0
 438 0014 5A60     		str	r2, [r3, #4]
 439              		.loc 1 449 0
 440 0016 FFF7FEFF 		bl	dmaStreamRelease
 441              	.LVL27:
 442              		.loc 1 450 0
 443 001a 606A     		ldr	r0, [r4, #36]
 444 001c FFF7FEFF 		bl	dmaStreamRelease
 445              	.LVL28:
 446              		.loc 1 453 0
 447 0020 044B     		ldr	r3, .L51
 448 0022 9C42     		cmp	r4, r3
 449 0024 00D0     		beq	.L50
 450              		.loc 1 477 0
 451 0026 10BD     		pop	{r4, pc}
 452              	.LVL29:
 453              	.L50:
 454              		.loc 1 454 0
 455 0028 034A     		ldr	r2, .L51+4
 456 002a 536C     		ldr	r3, [r2, #68]
ARM GAS  /tmp/ccBMg8Vm.s 			page 9


 457 002c 23F48053 		bic	r3, r3, #4096
 458 0030 5364     		str	r3, [r2, #68]
 459              		.loc 1 477 0
 460 0032 10BD     		pop	{r4, pc}
 461              	.LVL30:
 462              	.L52:
 463              		.align	2
 464              	.L51:
 465 0034 00000000 		.word	.LANCHOR1
 466 0038 00380240 		.word	1073887232
 467              		.cfi_endproc
 468              	.LFE260:
 469              		.size	spi_lld_stop, .-spi_lld_stop
 470              		.section	.text.spi_lld_select,"ax",%progbits
 471              		.align	1
 472              		.p2align 4,,15
 473              		.global	spi_lld_select
 474              		.syntax unified
 475              		.thumb
 476              		.thumb_func
 477              		.fpu fpv4-sp-d16
 478              		.type	spi_lld_select, %function
 479              	spi_lld_select:
 480              	.LFB261:
 481              		.loc 1 486 0
 482              		.cfi_startproc
 483              		@ args = 0, pretend = 0, frame = 0
 484              		@ frame_needed = 0, uses_anonymous_args = 0
 485              		@ link register save eliminated.
 486              	.LVL31:
 487              		.loc 1 488 0
 488 0000 4268     		ldr	r2, [r0, #4]
 489 0002 1189     		ldrh	r1, [r2, #8]
 490 0004 5268     		ldr	r2, [r2, #4]
 491 0006 0123     		movs	r3, #1
 492 0008 8B40     		lsls	r3, r3, r1
 493 000a 9BB2     		uxth	r3, r3
 494 000c 5383     		strh	r3, [r2, #26]	@ movhi
 495              		.loc 1 489 0
 496 000e 7047     		bx	lr
 497              		.cfi_endproc
 498              	.LFE261:
 499              		.size	spi_lld_select, .-spi_lld_select
 500              		.section	.text.spi_lld_unselect,"ax",%progbits
 501              		.align	1
 502              		.p2align 4,,15
 503              		.global	spi_lld_unselect
 504              		.syntax unified
 505              		.thumb
 506              		.thumb_func
 507              		.fpu fpv4-sp-d16
 508              		.type	spi_lld_unselect, %function
 509              	spi_lld_unselect:
 510              	.LFB262:
 511              		.loc 1 499 0
 512              		.cfi_startproc
 513              		@ args = 0, pretend = 0, frame = 0
ARM GAS  /tmp/ccBMg8Vm.s 			page 10


 514              		@ frame_needed = 0, uses_anonymous_args = 0
 515              		@ link register save eliminated.
 516              	.LVL32:
 517              		.loc 1 501 0
 518 0000 4268     		ldr	r2, [r0, #4]
 519 0002 1189     		ldrh	r1, [r2, #8]
 520 0004 5268     		ldr	r2, [r2, #4]
 521 0006 0123     		movs	r3, #1
 522 0008 8B40     		lsls	r3, r3, r1
 523 000a 9BB2     		uxth	r3, r3
 524 000c 1383     		strh	r3, [r2, #24]	@ movhi
 525              		.loc 1 502 0
 526 000e 7047     		bx	lr
 527              		.cfi_endproc
 528              	.LFE262:
 529              		.size	spi_lld_unselect, .-spi_lld_unselect
 530              		.section	.text.spi_lld_ignore,"ax",%progbits
 531              		.align	1
 532              		.p2align 4,,15
 533              		.global	spi_lld_ignore
 534              		.syntax unified
 535              		.thumb
 536              		.thumb_func
 537              		.fpu fpv4-sp-d16
 538              		.type	spi_lld_ignore, %function
 539              	spi_lld_ignore:
 540              	.LFB263:
 541              		.loc 1 515 0
 542              		.cfi_startproc
 543              		@ args = 0, pretend = 0, frame = 0
 544              		@ frame_needed = 0, uses_anonymous_args = 0
 545              		@ link register save eliminated.
 546              	.LVL33:
 547              		.loc 1 521 0
 548 0000 D0E90823 		ldrd	r2, r3, [r0, #32]
 549              		.loc 1 515 0
 550 0004 30B4     		push	{r4, r5}
 551              		.cfi_def_cfa_offset 8
 552              		.cfi_offset 4, -8
 553              		.cfi_offset 5, -4
 554              		.loc 1 517 0
 555 0006 1268     		ldr	r2, [r2]
 556              		.loc 1 521 0
 557 0008 1B68     		ldr	r3, [r3]
 558              		.loc 1 517 0
 559 000a 0A4C     		ldr	r4, .L57
 560              		.loc 1 523 0
 561 000c D0E90A50 		ldrd	r5, r0, [r0, #40]
 562              	.LVL34:
 563              		.loc 1 517 0
 564 0010 D460     		str	r4, [r2, #12]
 565              		.loc 1 521 0
 566 0012 094C     		ldr	r4, .L57+4
 567              		.loc 1 518 0
 568 0014 5160     		str	r1, [r2, #4]
 569              		.loc 1 519 0
 570 0016 1560     		str	r5, [r2]
ARM GAS  /tmp/ccBMg8Vm.s 			page 11


 571              		.loc 1 521 0
 572 0018 DC60     		str	r4, [r3, #12]
 573              		.loc 1 522 0
 574 001a 5960     		str	r1, [r3, #4]
 575              		.loc 1 523 0
 576 001c 1860     		str	r0, [r3]
 577              		.loc 1 525 0
 578 001e 1168     		ldr	r1, [r2]
 579              	.LVL35:
 580 0020 41F00101 		orr	r1, r1, #1
 581 0024 1160     		str	r1, [r2]
 582              		.loc 1 526 0
 583 0026 1A68     		ldr	r2, [r3]
 584 0028 42F00102 		orr	r2, r2, #1
 585 002c 1A60     		str	r2, [r3]
 586              		.loc 1 527 0
 587 002e 30BC     		pop	{r4, r5}
 588              		.cfi_restore 5
 589              		.cfi_restore 4
 590              		.cfi_def_cfa_offset 0
 591 0030 7047     		bx	lr
 592              	.L58:
 593 0032 00BF     		.align	2
 594              	.L57:
 595 0034 00000000 		.word	.LANCHOR2
 596 0038 00000000 		.word	.LANCHOR0
 597              		.cfi_endproc
 598              	.LFE263:
 599              		.size	spi_lld_ignore, .-spi_lld_ignore
 600              		.section	.text.spi_lld_exchange,"ax",%progbits
 601              		.align	1
 602              		.p2align 4,,15
 603              		.global	spi_lld_exchange
 604              		.syntax unified
 605              		.thumb
 606              		.thumb_func
 607              		.fpu fpv4-sp-d16
 608              		.type	spi_lld_exchange, %function
 609              	spi_lld_exchange:
 610              	.LFB264:
 611              		.loc 1 545 0
 612              		.cfi_startproc
 613              		@ args = 0, pretend = 0, frame = 0
 614              		@ frame_needed = 0, uses_anonymous_args = 0
 615              		@ link register save eliminated.
 616              	.LVL36:
 617 0000 70B4     		push	{r4, r5, r6}
 618              		.cfi_def_cfa_offset 12
 619              		.cfi_offset 4, -12
 620              		.cfi_offset 5, -8
 621              		.cfi_offset 6, -4
 622              		.loc 1 551 0
 623 0002 D0E90854 		ldrd	r5, r4, [r0, #32]
 624              		.loc 1 553 0
 625 0006 D0E90A60 		ldrd	r6, r0, [r0, #40]
 626              	.LVL37:
 627              		.loc 1 547 0
ARM GAS  /tmp/ccBMg8Vm.s 			page 12


 628 000a 2D68     		ldr	r5, [r5]
 629              		.loc 1 551 0
 630 000c 2468     		ldr	r4, [r4]
 631              		.loc 1 547 0
 632 000e EB60     		str	r3, [r5, #12]
 633              		.loc 1 549 0
 634 0010 46F48066 		orr	r6, r6, #1024
 635              		.loc 1 553 0
 636 0014 40F48060 		orr	r0, r0, #1024
 637              		.loc 1 548 0
 638 0018 6960     		str	r1, [r5, #4]
 639              		.loc 1 549 0
 640 001a 2E60     		str	r6, [r5]
 641              		.loc 1 551 0
 642 001c E260     		str	r2, [r4, #12]
 643              		.loc 1 552 0
 644 001e 6160     		str	r1, [r4, #4]
 645              		.loc 1 553 0
 646 0020 2060     		str	r0, [r4]
 647              		.loc 1 555 0
 648 0022 2B68     		ldr	r3, [r5]
 649              	.LVL38:
 650 0024 43F00103 		orr	r3, r3, #1
 651 0028 2B60     		str	r3, [r5]
 652              		.loc 1 556 0
 653 002a 2368     		ldr	r3, [r4]
 654 002c 43F00103 		orr	r3, r3, #1
 655 0030 2360     		str	r3, [r4]
 656              		.loc 1 557 0
 657 0032 70BC     		pop	{r4, r5, r6}
 658              		.cfi_restore 6
 659              		.cfi_restore 5
 660              		.cfi_restore 4
 661              		.cfi_def_cfa_offset 0
 662 0034 7047     		bx	lr
 663              		.cfi_endproc
 664              	.LFE264:
 665              		.size	spi_lld_exchange, .-spi_lld_exchange
 666 0036 00BF     		.section	.text.spi_lld_send,"ax",%progbits
 667              		.align	1
 668              		.p2align 4,,15
 669              		.global	spi_lld_send
 670              		.syntax unified
 671              		.thumb
 672              		.thumb_func
 673              		.fpu fpv4-sp-d16
 674              		.type	spi_lld_send, %function
 675              	spi_lld_send:
 676              	.LFB265:
 677              		.loc 1 572 0
 678              		.cfi_startproc
 679              		@ args = 0, pretend = 0, frame = 0
 680              		@ frame_needed = 0, uses_anonymous_args = 0
 681              		@ link register save eliminated.
 682              	.LVL39:
 683 0000 70B4     		push	{r4, r5, r6}
 684              		.cfi_def_cfa_offset 12
ARM GAS  /tmp/ccBMg8Vm.s 			page 13


 685              		.cfi_offset 4, -12
 686              		.cfi_offset 5, -8
 687              		.cfi_offset 6, -4
 688              		.loc 1 578 0
 689 0002 D0E90843 		ldrd	r4, r3, [r0, #32]
 690              		.loc 1 580 0
 691 0006 C56A     		ldr	r5, [r0, #44]
 692              		.loc 1 574 0
 693 0008 2468     		ldr	r4, [r4]
 694              		.loc 1 578 0
 695 000a 1B68     		ldr	r3, [r3]
 696              		.loc 1 576 0
 697 000c 806A     		ldr	r0, [r0, #40]
 698              	.LVL40:
 699              		.loc 1 574 0
 700 000e 094E     		ldr	r6, .L63
 701 0010 E660     		str	r6, [r4, #12]
 702              		.loc 1 580 0
 703 0012 45F48065 		orr	r5, r5, #1024
 704              		.loc 1 575 0
 705 0016 6160     		str	r1, [r4, #4]
 706              		.loc 1 576 0
 707 0018 2060     		str	r0, [r4]
 708              		.loc 1 578 0
 709 001a DA60     		str	r2, [r3, #12]
 710              		.loc 1 579 0
 711 001c 5960     		str	r1, [r3, #4]
 712              		.loc 1 580 0
 713 001e 1D60     		str	r5, [r3]
 714              		.loc 1 582 0
 715 0020 2268     		ldr	r2, [r4]
 716              	.LVL41:
 717 0022 42F00102 		orr	r2, r2, #1
 718 0026 2260     		str	r2, [r4]
 719              		.loc 1 583 0
 720 0028 1A68     		ldr	r2, [r3]
 721 002a 42F00102 		orr	r2, r2, #1
 722 002e 1A60     		str	r2, [r3]
 723              		.loc 1 584 0
 724 0030 70BC     		pop	{r4, r5, r6}
 725              		.cfi_restore 6
 726              		.cfi_restore 5
 727              		.cfi_restore 4
 728              		.cfi_def_cfa_offset 0
 729 0032 7047     		bx	lr
 730              	.L64:
 731              		.align	2
 732              	.L63:
 733 0034 00000000 		.word	.LANCHOR2
 734              		.cfi_endproc
 735              	.LFE265:
 736              		.size	spi_lld_send, .-spi_lld_send
 737              		.section	.text.spi_lld_receive,"ax",%progbits
 738              		.align	1
 739              		.p2align 4,,15
 740              		.global	spi_lld_receive
 741              		.syntax unified
ARM GAS  /tmp/ccBMg8Vm.s 			page 14


 742              		.thumb
 743              		.thumb_func
 744              		.fpu fpv4-sp-d16
 745              		.type	spi_lld_receive, %function
 746              	spi_lld_receive:
 747              	.LFB266:
 748              		.loc 1 599 0
 749              		.cfi_startproc
 750              		@ args = 0, pretend = 0, frame = 0
 751              		@ frame_needed = 0, uses_anonymous_args = 0
 752              		@ link register save eliminated.
 753              	.LVL42:
 754 0000 30B4     		push	{r4, r5}
 755              		.cfi_def_cfa_offset 8
 756              		.cfi_offset 4, -8
 757              		.cfi_offset 5, -4
 758              		.loc 1 605 0
 759 0002 D0E90843 		ldrd	r4, r3, [r0, #32]
 760              		.loc 1 603 0
 761 0006 856A     		ldr	r5, [r0, #40]
 762              		.loc 1 601 0
 763 0008 2468     		ldr	r4, [r4]
 764              		.loc 1 605 0
 765 000a 1B68     		ldr	r3, [r3]
 766              		.loc 1 607 0
 767 000c C06A     		ldr	r0, [r0, #44]
 768              	.LVL43:
 769              		.loc 1 601 0
 770 000e E260     		str	r2, [r4, #12]
 771              		.loc 1 603 0
 772 0010 45F48065 		orr	r5, r5, #1024
 773              		.loc 1 605 0
 774 0014 074A     		ldr	r2, .L67
 775              	.LVL44:
 776              		.loc 1 602 0
 777 0016 6160     		str	r1, [r4, #4]
 778              	.LVL45:
 779              		.loc 1 603 0
 780 0018 2560     		str	r5, [r4]
 781              		.loc 1 605 0
 782 001a DA60     		str	r2, [r3, #12]
 783              		.loc 1 606 0
 784 001c 5960     		str	r1, [r3, #4]
 785              		.loc 1 607 0
 786 001e 1860     		str	r0, [r3]
 787              		.loc 1 609 0
 788 0020 2268     		ldr	r2, [r4]
 789 0022 42F00102 		orr	r2, r2, #1
 790 0026 2260     		str	r2, [r4]
 791              		.loc 1 610 0
 792 0028 1A68     		ldr	r2, [r3]
 793 002a 42F00102 		orr	r2, r2, #1
 794 002e 1A60     		str	r2, [r3]
 795              		.loc 1 611 0
 796 0030 30BC     		pop	{r4, r5}
 797              		.cfi_restore 5
 798              		.cfi_restore 4
ARM GAS  /tmp/ccBMg8Vm.s 			page 15


 799              		.cfi_def_cfa_offset 0
 800 0032 7047     		bx	lr
 801              	.L68:
 802              		.align	2
 803              	.L67:
 804 0034 00000000 		.word	.LANCHOR0
 805              		.cfi_endproc
 806              	.LFE266:
 807              		.size	spi_lld_receive, .-spi_lld_receive
 808              		.section	.text.spi_lld_polled_exchange,"ax",%progbits
 809              		.align	1
 810              		.p2align 4,,15
 811              		.global	spi_lld_polled_exchange
 812              		.syntax unified
 813              		.thumb
 814              		.thumb_func
 815              		.fpu fpv4-sp-d16
 816              		.type	spi_lld_polled_exchange, %function
 817              	spi_lld_polled_exchange:
 818              	.LFB267:
 819              		.loc 1 625 0
 820              		.cfi_startproc
 821              		@ args = 0, pretend = 0, frame = 0
 822              		@ frame_needed = 0, uses_anonymous_args = 0
 823              		@ link register save eliminated.
 824              	.LVL46:
 825              		.loc 1 627 0
 826 0000 C269     		ldr	r2, [r0, #28]
 827 0002 D160     		str	r1, [r2, #12]
 828              	.L70:
 829              		.loc 1 628 0 discriminator 1
 830 0004 9368     		ldr	r3, [r2, #8]
 831 0006 DB07     		lsls	r3, r3, #31
 832 0008 FCD5     		bpl	.L70
 833              		.loc 1 630 0
 834 000a D068     		ldr	r0, [r2, #12]
 835              	.LVL47:
 836              		.loc 1 631 0
 837 000c 80B2     		uxth	r0, r0
 838 000e 7047     		bx	lr
 839              		.cfi_endproc
 840              	.LFE267:
 841              		.size	spi_lld_polled_exchange, .-spi_lld_polled_exchange
 842              		.global	SPID1
 843              		.section	.bss.SPID1,"aw",%nobits
 844              		.align	2
 845              		.set	.LANCHOR1,. + 0
 846              		.type	SPID1, %object
 847              		.size	SPID1, 48
 848              	SPID1:
 849 0000 00000000 		.space	48
 849      00000000 
 849      00000000 
 849      00000000 
 849      00000000 
 850              		.section	.bss.dummyrx,"aw",%nobits
 851              		.align	1
ARM GAS  /tmp/ccBMg8Vm.s 			page 16


 852              		.set	.LANCHOR2,. + 0
 853              		.type	dummyrx, %object
 854              		.size	dummyrx, 2
 855              	dummyrx:
 856 0000 0000     		.space	2
 857              		.section	.bss.dummytx,"aw",%nobits
 858              		.align	1
 859              		.set	.LANCHOR0,. + 0
 860              		.type	dummytx, %object
 861              		.size	dummytx, 2
 862              	dummytx:
 863 0000 0000     		.space	2
 864              		.section	.rodata.spi_lld_serve_tx_interrupt.str1.4,"aMS",%progbits,1
 865              		.align	2
 866              	.LC0:
 867 0000 444D4120 		.ascii	"DMA failure\000"
 867      6661696C 
 867      75726500 
 868              		.text
 869              	.Letext0:
 870              		.file 4 "/usr/lib/gcc/arm-none-eabi/7.3.1/include/stddef.h"
 871              		.file 5 "/usr/arm-none-eabi/include/machine/_default_types.h"
 872              		.file 6 "/usr/arm-none-eabi/include/sys/_stdint.h"
 873              		.file 7 "ChibiOS_3.0.2/os/rt/ports/ARMCMx/compilers/GCC/chtypes.h"
 874              		.file 8 "ChibiOS_3.0.2/os/rt/include/chsystypes.h"
 875              		.file 9 "ChibiOS_3.0.2/os/rt/include/chschd.h"
 876              		.file 10 "ChibiOS_3.0.2/os/ext/CMSIS/include/core_cm4.h"
 877              		.file 11 "ChibiOS_3.0.2/os/ext/CMSIS/ST/system_stm32f4xx.h"
 878              		.file 12 "ChibiOS_3.0.2/os/ext/CMSIS/ST/stm32f407xx.h"
 879              		.file 13 "ChibiOS_3.0.2/os/rt/ports/ARMCMx/chcore.h"
 880              		.file 14 "ChibiOS_3.0.2/os/rt/ports/ARMCMx/chcore_v7m.h"
 881              		.file 15 "ChibiOS_3.0.2/os/rt/include/chtm.h"
 882              		.file 16 "ChibiOS_3.0.2/os/rt/include/chsem.h"
 883              		.file 17 "ChibiOS_3.0.2/os/rt/include/chmtx.h"
 884              		.file 18 "ChibiOS_3.0.2/os/rt/include/chregistry.h"
 885              		.file 19 "ChibiOS_3.0.2/os/rt/include/chevents.h"
 886              		.file 20 "ChibiOS_3.0.2/os/rt/include/chqueues.h"
 887              		.file 21 "./conf_general.h"
 888              		.file 22 "ChibiOS_3.0.2/os/hal/ports/STM32/STM32F4xx/stm32_dma.h"
 889              		.file 23 "ChibiOS_3.0.2/os/hal/ports/STM32/LLD/GPIOv2/pal_lld.h"
 890              		.file 24 "ChibiOS_3.0.2/os/hal/include/can.h"
 891              		.file 25 "ChibiOS_3.0.2/os/hal/ports/STM32/LLD/can_lld.h"
 892              		.file 26 "ChibiOS_3.0.2/os/hal/include/i2c.h"
 893              		.file 27 "ChibiOS_3.0.2/os/hal/ports/STM32/LLD/I2Cv1/i2c_lld.h"
 894              		.file 28 "ChibiOS_3.0.2/os/hal/include/icu.h"
 895              		.file 29 "ChibiOS_3.0.2/os/hal/ports/STM32/LLD/TIMv1/icu_lld.h"
 896              		.file 30 "ChibiOS_3.0.2/os/hal/ports/STM32/LLD/TIMv1/stm32_tim.h"
 897              		.file 31 "ChibiOS_3.0.2/os/hal/include/serial.h"
 898              		.file 32 "ChibiOS_3.0.2/os/hal/ports/STM32/LLD/USARTv1/serial_lld.h"
 899              		.file 33 "ChibiOS_3.0.2/os/hal/include/spi.h"
 900              		.file 34 "ChibiOS_3.0.2/os/hal/ports/STM32/LLD/SPIv1/spi_lld.h"
 901              		.file 35 "ChibiOS_3.0.2/os/hal/include/usb.h"
 902              		.file 36 "ChibiOS_3.0.2/os/hal/ports/STM32/LLD/OTGv1/usb_lld.h"
 903              		.file 37 "ChibiOS_3.0.2/os/hal/ports/STM32/LLD/OTGv1/stm32_otg.h"
 904              		.file 38 "ChibiOS_3.0.2/os/rt/include/chsys.h"
 905              		.file 39 "ChibiOS_3.0.2/os/rt/include/chthreads.h"