ARM GAS  /tmp/ccmyfVOk.s 			page 1


   1              		.cpu cortex-m4
   2              		.eabi_attribute 27, 1
   3              		.eabi_attribute 28, 1
   4              		.eabi_attribute 20, 1
   5              		.eabi_attribute 21, 1
   6              		.eabi_attribute 23, 3
   7              		.eabi_attribute 24, 1
   8              		.eabi_attribute 25, 1
   9              		.eabi_attribute 26, 1
  10              		.eabi_attribute 30, 2
  11              		.eabi_attribute 34, 1
  12              		.eabi_attribute 18, 4
  13              		.file	"st_lld.c"
  14              		.text
  15              	.Ltext0:
  16              		.cfi_sections	.debug_frame
  17              		.section	.text.SysTick_Handler,"ax",%progbits
  18              		.align	1
  19              		.p2align 4,,15
  20              		.global	SysTick_Handler
  21              		.syntax unified
  22              		.thumb
  23              		.thumb_func
  24              		.fpu fpv4-sp-d16
  25              		.type	SysTick_Handler, %function
  26              	SysTick_Handler:
  27              	.LFB256:
  28              		.file 1 "ChibiOS_3.0.2/os/hal/ports/STM32/LLD/TIMv1/st_lld.c"
  29              		.loc 1 154 0
  30              		.cfi_startproc
  31              		@ args = 0, pretend = 0, frame = 0
  32              		@ frame_needed = 0, uses_anonymous_args = 0
  33              	.LVL0:
  34 0000 08B5     		push	{r3, lr}
  35              		.cfi_def_cfa_offset 8
  36              		.cfi_offset 3, -8
  37              		.cfi_offset 14, -4
  38              	.LBB52:
  39              	.LBB53:
  40              	.LBB54:
  41              	.LBB55:
  42              	.LBB56:
  43              	.LBB57:
  44              		.file 2 "ChibiOS_3.0.2/os/ext/CMSIS/include/core_cmFunc.h"
  45              		.loc 2 546 0
  46 0002 2023     		movs	r3, #32
  47              		.syntax unified
  48              	@ 546 "ChibiOS_3.0.2/os/ext/CMSIS/include/core_cmFunc.h" 1
  49 0004 83F31188 		MSR basepri, r3
  50              	@ 0 "" 2
  51              	.LVL1:
  52              		.thumb
  53              		.syntax unified
  54              	.LBE57:
  55              	.LBE56:
  56              	.LBE55:
  57              	.LBE54:
ARM GAS  /tmp/ccmyfVOk.s 			page 2


  58              	.LBE53:
  59              	.LBE52:
  60              	.LBB58:
  61              	.LBB59:
  62              		.file 3 "ChibiOS_3.0.2/os/hal/osal/rt/osal.h"
  63              		.loc 3 585 0
  64 0008 FFF7FEFF 		bl	chSysTimerHandlerI
  65              	.LVL2:
  66              	.LBE59:
  67              	.LBE58:
  68              	.LBB60:
  69              	.LBB61:
  70              	.LBB62:
  71              	.LBB63:
  72              	.LBB64:
  73              	.LBB65:
  74              		.loc 2 546 0
  75 000c 0023     		movs	r3, #0
  76              		.syntax unified
  77              	@ 546 "ChibiOS_3.0.2/os/ext/CMSIS/include/core_cmFunc.h" 1
  78 000e 83F31188 		MSR basepri, r3
  79              	@ 0 "" 2
  80              	.LVL3:
  81              		.thumb
  82              		.syntax unified
  83              	.LBE65:
  84              	.LBE64:
  85              	.LBE63:
  86              	.LBE62:
  87              	.LBE61:
  88              	.LBE60:
  89              		.loc 1 163 0
  90 0012 BDE80840 		pop	{r3, lr}
  91              		.cfi_restore 14
  92              		.cfi_restore 3
  93              		.cfi_def_cfa_offset 0
  94              		.loc 1 162 0
  95 0016 FFF7FEBF 		b	_port_irq_epilogue
  96              	.LVL4:
  97              		.cfi_endproc
  98              	.LFE256:
  99              		.size	SysTick_Handler, .-SysTick_Handler
 100 001a 00BF     		.section	.text.st_lld_init,"ax",%progbits
 101              		.align	1
 102              		.p2align 4,,15
 103              		.global	st_lld_init
 104              		.syntax unified
 105              		.thumb
 106              		.thumb_func
 107              		.fpu fpv4-sp-d16
 108              		.type	st_lld_init, %function
 109              	st_lld_init:
 110              	.LFB257:
 111              		.loc 1 201 0
 112              		.cfi_startproc
 113              		@ args = 0, pretend = 0, frame = 0
 114              		@ frame_needed = 0, uses_anonymous_args = 0
ARM GAS  /tmp/ccmyfVOk.s 			page 3


 115              		@ link register save eliminated.
 116              		.loc 1 229 0
 117 0000 054B     		ldr	r3, .L5
 118 0002 44F29F11 		movw	r1, #16799
 119              		.loc 1 230 0
 120 0006 0020     		movs	r0, #0
 121              		.loc 1 231 0
 122 0008 0722     		movs	r2, #7
 123              		.loc 1 229 0
 124 000a 5960     		str	r1, [r3, #4]
 125              		.loc 1 230 0
 126 000c 9860     		str	r0, [r3, #8]
 127              		.loc 1 236 0
 128 000e 0821     		movs	r1, #8
 129 0010 0B20     		movs	r0, #11
 130              		.loc 1 231 0
 131 0012 1A60     		str	r2, [r3]
 132              		.loc 1 236 0
 133 0014 FFF7FEBF 		b	nvicSetSystemHandlerPriority
 134              	.LVL5:
 135              	.L6:
 136              		.align	2
 137              	.L5:
 138 0018 10E000E0 		.word	-536813552
 139              		.cfi_endproc
 140              	.LFE257:
 141              		.size	st_lld_init, .-st_lld_init
 142              		.text
 143              	.Letext0:
 144              		.file 4 "/usr/lib/gcc/arm-none-eabi/7.3.1/include/stddef.h"
 145              		.file 5 "/usr/arm-none-eabi/include/machine/_default_types.h"
 146              		.file 6 "/usr/arm-none-eabi/include/sys/_stdint.h"
 147              		.file 7 "ChibiOS_3.0.2/os/rt/ports/ARMCMx/compilers/GCC/chtypes.h"
 148              		.file 8 "ChibiOS_3.0.2/os/rt/include/chsystypes.h"
 149              		.file 9 "ChibiOS_3.0.2/os/rt/include/chschd.h"
 150              		.file 10 "ChibiOS_3.0.2/os/ext/CMSIS/include/core_cm4.h"
 151              		.file 11 "ChibiOS_3.0.2/os/ext/CMSIS/ST/system_stm32f4xx.h"
 152              		.file 12 "ChibiOS_3.0.2/os/ext/CMSIS/ST/stm32f407xx.h"
 153              		.file 13 "ChibiOS_3.0.2/os/rt/ports/ARMCMx/chcore.h"
 154              		.file 14 "ChibiOS_3.0.2/os/rt/ports/ARMCMx/chcore_v7m.h"
 155              		.file 15 "ChibiOS_3.0.2/os/rt/include/chtm.h"
 156              		.file 16 "ChibiOS_3.0.2/os/rt/include/chsem.h"
 157              		.file 17 "ChibiOS_3.0.2/os/rt/include/chmtx.h"
 158              		.file 18 "ChibiOS_3.0.2/os/rt/include/chregistry.h"
 159              		.file 19 "ChibiOS_3.0.2/os/rt/include/chevents.h"
 160              		.file 20 "ChibiOS_3.0.2/os/rt/include/chqueues.h"
 161              		.file 21 "./conf_general.h"
 162              		.file 22 "ChibiOS_3.0.2/os/hal/ports/STM32/STM32F4xx/stm32_dma.h"
 163              		.file 23 "ChibiOS_3.0.2/os/hal/ports/STM32/LLD/GPIOv2/pal_lld.h"
 164              		.file 24 "ChibiOS_3.0.2/os/hal/include/can.h"
 165              		.file 25 "ChibiOS_3.0.2/os/hal/ports/STM32/LLD/can_lld.h"
 166              		.file 26 "ChibiOS_3.0.2/os/hal/include/i2c.h"
 167              		.file 27 "ChibiOS_3.0.2/os/hal/ports/STM32/LLD/I2Cv1/i2c_lld.h"
 168              		.file 28 "ChibiOS_3.0.2/os/hal/include/icu.h"
 169              		.file 29 "ChibiOS_3.0.2/os/hal/ports/STM32/LLD/TIMv1/icu_lld.h"
 170              		.file 30 "ChibiOS_3.0.2/os/hal/ports/STM32/LLD/TIMv1/stm32_tim.h"
 171              		.file 31 "ChibiOS_3.0.2/os/hal/include/serial.h"
ARM GAS  /tmp/ccmyfVOk.s 			page 4


 172              		.file 32 "ChibiOS_3.0.2/os/hal/ports/STM32/LLD/USARTv1/serial_lld.h"
 173              		.file 33 "ChibiOS_3.0.2/os/hal/include/spi.h"
 174              		.file 34 "ChibiOS_3.0.2/os/hal/ports/STM32/LLD/SPIv1/spi_lld.h"
 175              		.file 35 "ChibiOS_3.0.2/os/hal/include/usb.h"
 176              		.file 36 "ChibiOS_3.0.2/os/hal/ports/STM32/LLD/OTGv1/usb_lld.h"
 177              		.file 37 "ChibiOS_3.0.2/os/hal/ports/STM32/LLD/OTGv1/stm32_otg.h"
 178              		.file 38 "ChibiOS_3.0.2/os/rt/include/chsys.h"
 179              		.file 39 "ChibiOS_3.0.2/os/hal/ports/common/ARMCMx/nvic.h"