ARM GAS  /tmp/ccr16YEU.s 			page 1


   1              		.cpu cortex-m4
   2              		.eabi_attribute 27, 1
   3              		.eabi_attribute 28, 1
   4              		.eabi_attribute 20, 1
   5              		.eabi_attribute 21, 1
   6              		.eabi_attribute 23, 3
   7              		.eabi_attribute 24, 1
   8              		.eabi_attribute 25, 1
   9              		.eabi_attribute 26, 1
  10              		.eabi_attribute 30, 2
  11              		.eabi_attribute 34, 1
  12              		.eabi_attribute 18, 4
  13              		.file	"stm32f1.c"
  14              		.text
  15              	.Ltext0:
  16              		.cfi_sections	.debug_frame
  17              		.section	.text.stm32f1_flash_unlock,"ax",%progbits
  18              		.align	1
  19              		.p2align 4,,15
  20              		.syntax unified
  21              		.thumb
  22              		.thumb_func
  23              		.fpu fpv4-sp-d16
  24              		.type	stm32f1_flash_unlock, %function
  25              	stm32f1_flash_unlock:
  26              	.LFB265:
  27              		.file 1 "blackmagic/target/stm32f1.c"
  28              		.loc 1 182 0
  29              		.cfi_startproc
  30              		@ args = 0, pretend = 0, frame = 0
  31              		@ frame_needed = 0, uses_anonymous_args = 0
  32              	.LVL0:
  33 0000 38B5     		push	{r3, r4, r5, lr}
  34              		.cfi_def_cfa_offset 16
  35              		.cfi_offset 3, -16
  36              		.cfi_offset 4, -12
  37              		.cfi_offset 5, -8
  38              		.cfi_offset 14, -4
  39              		.loc 1 183 0
  40 0002 064C     		ldr	r4, .L4
  41 0004 064A     		ldr	r2, .L4+4
  42 0006 2146     		mov	r1, r4
  43              		.loc 1 182 0
  44 0008 0546     		mov	r5, r0
  45              		.loc 1 183 0
  46 000a FFF7FEFF 		bl	target_mem_write32
  47              	.LVL1:
  48              		.loc 1 184 0
  49 000e 2146     		mov	r1, r4
  50 0010 2846     		mov	r0, r5
  51 0012 044A     		ldr	r2, .L4+8
  52              		.loc 1 185 0
  53 0014 BDE83840 		pop	{r3, r4, r5, lr}
  54              		.cfi_restore 14
  55              		.cfi_restore 5
  56              		.cfi_restore 4
  57              		.cfi_restore 3
ARM GAS  /tmp/ccr16YEU.s 			page 2


  58              		.cfi_def_cfa_offset 0
  59              	.LVL2:
  60              		.loc 1 184 0
  61 0018 FFF7FEBF 		b	target_mem_write32
  62              	.LVL3:
  63              	.L5:
  64              		.align	2
  65              	.L4:
  66 001c 04200240 		.word	1073881092
  67 0020 23016745 		.word	1164378403
  68 0024 AB89EFCD 		.word	-839939669
  69              		.cfi_endproc
  70              	.LFE265:
  71              		.size	stm32f1_flash_unlock, .-stm32f1_flash_unlock
  72              		.section	.text.stm32f1_option_erase,"ax",%progbits
  73              		.align	1
  74              		.p2align 4,,15
  75              		.syntax unified
  76              		.thumb
  77              		.thumb_func
  78              		.fpu fpv4-sp-d16
  79              		.type	stm32f1_option_erase, %function
  80              	stm32f1_option_erase:
  81              	.LFB269:
  82              		.loc 1 272 0
  83              		.cfi_startproc
  84              		@ args = 0, pretend = 0, frame = 0
  85              		@ frame_needed = 0, uses_anonymous_args = 0
  86              	.LVL4:
  87 0000 38B5     		push	{r3, r4, r5, lr}
  88              		.cfi_def_cfa_offset 16
  89              		.cfi_offset 3, -16
  90              		.cfi_offset 4, -12
  91              		.cfi_offset 5, -8
  92              		.cfi_offset 14, -4
  93              		.loc 1 274 0
  94 0002 4FF40872 		mov	r2, #544
  95              		.loc 1 272 0
  96 0006 0446     		mov	r4, r0
  97              		.loc 1 274 0
  98 0008 0C49     		ldr	r1, .L12
  99              		.loc 1 278 0
 100 000a 0D4D     		ldr	r5, .L12+4
 101              		.loc 1 274 0
 102 000c FFF7FEFF 		bl	target_mem_write32
 103              	.LVL5:
 104              		.loc 1 275 0
 105 0010 2046     		mov	r0, r4
 106 0012 4FF41872 		mov	r2, #608
 107 0016 0949     		ldr	r1, .L12
 108 0018 FFF7FEFF 		bl	target_mem_write32
 109              	.LVL6:
 110              		.loc 1 278 0
 111 001c 02E0     		b	.L7
 112              	.LVL7:
 113              	.L9:
 114              		.loc 1 279 0
ARM GAS  /tmp/ccr16YEU.s 			page 3


 115 001e FFF7FEFF 		bl	target_check_error
 116              	.LVL8:
 117 0022 48B9     		cbnz	r0, .L10
 118              	.L7:
 119              		.loc 1 278 0
 120 0024 2946     		mov	r1, r5
 121 0026 2046     		mov	r0, r4
 122 0028 FFF7FEFF 		bl	target_mem_read32
 123              	.LVL9:
 124 002c 10F0010F 		tst	r0, #1
 125              		.loc 1 279 0
 126 0030 2046     		mov	r0, r4
 127              		.loc 1 278 0
 128 0032 F4D1     		bne	.L9
 129              	.LVL10:
 130              		.loc 1 281 0
 131 0034 0120     		movs	r0, #1
 132              	.LVL11:
 133              		.loc 1 282 0
 134 0036 38BD     		pop	{r3, r4, r5, pc}
 135              	.LVL12:
 136              	.L10:
 137              		.loc 1 280 0
 138 0038 0020     		movs	r0, #0
 139              		.loc 1 282 0
 140 003a 38BD     		pop	{r3, r4, r5, pc}
 141              	.LVL13:
 142              	.L13:
 143              		.align	2
 144              	.L12:
 145 003c 10200240 		.word	1073881104
 146 0040 0C200240 		.word	1073881100
 147              		.cfi_endproc
 148              	.LFE269:
 149              		.size	stm32f1_option_erase, .-stm32f1_option_erase
 150              		.section	.text.stm32f1_flash_write,"ax",%progbits
 151              		.align	1
 152              		.p2align 4,,15
 153              		.syntax unified
 154              		.thumb
 155              		.thumb_func
 156              		.fpu fpv4-sp-d16
 157              		.type	stm32f1_flash_write, %function
 158              	stm32f1_flash_write:
 159              	.LFB267:
 160              		.loc 1 225 0
 161              		.cfi_startproc
 162              		@ args = 0, pretend = 0, frame = 0
 163              		@ frame_needed = 0, uses_anonymous_args = 0
 164              	.LVL14:
 165 0000 2DE9F043 		push	{r4, r5, r6, r7, r8, r9, lr}
 166              		.cfi_def_cfa_offset 28
 167              		.cfi_offset 4, -28
 168              		.cfi_offset 5, -24
 169              		.cfi_offset 6, -20
 170              		.cfi_offset 7, -16
 171              		.cfi_offset 8, -12
ARM GAS  /tmp/ccr16YEU.s 			page 4


 172              		.cfi_offset 9, -8
 173              		.cfi_offset 14, -4
 174              		.loc 1 226 0
 175 0004 8469     		ldr	r4, [r0, #24]
 176              	.LVL15:
 177              		.loc 1 233 0
 178 0006 184E     		ldr	r6, .L22
 179              		.loc 1 225 0
 180 0008 83B0     		sub	sp, sp, #12
 181              		.cfi_def_cfa_offset 40
 182              		.loc 1 225 0
 183 000a 0F46     		mov	r7, r1
 184 000c 9046     		mov	r8, r2
 185              		.loc 1 228 0
 186 000e 2046     		mov	r0, r4
 187              	.LVL16:
 188              		.loc 1 225 0
 189 0010 9946     		mov	r9, r3
 190              		.loc 1 228 0
 191 0012 0122     		movs	r2, #1
 192              	.LVL17:
 193 0014 1549     		ldr	r1, .L22+4
 194              	.LVL18:
 195              		.loc 1 229 0
 196 0016 0125     		movs	r5, #1
 197              		.loc 1 228 0
 198 0018 FFF7FEFF 		bl	target_mem_write32
 199              	.LVL19:
 200              		.loc 1 229 0
 201 001c 4B46     		mov	r3, r9
 202 001e 4246     		mov	r2, r8
 203 0020 3946     		mov	r1, r7
 204 0022 2046     		mov	r0, r4
 205 0024 0095     		str	r5, [sp]
 206 0026 FFF7FEFF 		bl	cortexm_mem_write_sized
 207              	.LVL20:
 208 002a 01E0     		b	.L17
 209              	.LVL21:
 210              	.L15:
 211              		.loc 1 238 0
 212 002c EB07     		lsls	r3, r5, #31
 213 002e 11D5     		bpl	.L21
 214              	.LVL22:
 215              	.L17:
 216              		.loc 1 233 0
 217 0030 3146     		mov	r1, r6
 218 0032 2046     		mov	r0, r4
 219 0034 FFF7FEFF 		bl	target_mem_read32
 220              	.LVL23:
 221 0038 0546     		mov	r5, r0
 222              	.LVL24:
 223              		.loc 1 234 0
 224 003a 2046     		mov	r0, r4
 225              	.LVL25:
 226 003c FFF7FEFF 		bl	target_check_error
 227              	.LVL26:
 228 0040 0028     		cmp	r0, #0
ARM GAS  /tmp/ccr16YEU.s 			page 5


 229 0042 F3D0     		beq	.L15
 230              		.loc 1 235 0
 231 0044 0A48     		ldr	r0, .L22+8
 232 0046 FFF7FEFF 		bl	commands_printf
 233              	.LVL27:
 234              		.loc 1 236 0
 235 004a 4FF0FF30 		mov	r0, #-1
 236              	.L14:
 237              		.loc 1 245 0
 238 004e 03B0     		add	sp, sp, #12
 239              		.cfi_remember_state
 240              		.cfi_def_cfa_offset 28
 241              		@ sp needed
 242 0050 BDE8F083 		pop	{r4, r5, r6, r7, r8, r9, pc}
 243              	.LVL28:
 244              	.L21:
 245              		.cfi_restore_state
 246              		.loc 1 240 0
 247 0054 15F01400 		ands	r0, r5, #20
 248 0058 F9D0     		beq	.L14
 249              		.loc 1 241 0
 250 005a 0648     		ldr	r0, .L22+12
 251 005c 2946     		mov	r1, r5
 252 005e FFF7FEFF 		bl	commands_printf
 253              	.LVL29:
 254              		.loc 1 242 0
 255 0062 4FF0FF30 		mov	r0, #-1
 256 0066 F2E7     		b	.L14
 257              	.L23:
 258              		.align	2
 259              	.L22:
 260 0068 0C200240 		.word	1073881100
 261 006c 10200240 		.word	1073881104
 262 0070 00000000 		.word	.LC0
 263 0074 24000000 		.word	.LC1
 264              		.cfi_endproc
 265              	.LFE267:
 266              		.size	stm32f1_flash_write, .-stm32f1_flash_write
 267              		.section	.text.stm32f1_flash_erase,"ax",%progbits
 268              		.align	1
 269              		.p2align 4,,15
 270              		.syntax unified
 271              		.thumb
 272              		.thumb_func
 273              		.fpu fpv4-sp-d16
 274              		.type	stm32f1_flash_erase, %function
 275              	stm32f1_flash_erase:
 276              	.LFB266:
 277              		.loc 1 189 0
 278              		.cfi_startproc
 279              		@ args = 0, pretend = 0, frame = 0
 280              		@ frame_needed = 0, uses_anonymous_args = 0
 281              	.LVL30:
 282 0000 2DE9F047 		push	{r4, r5, r6, r7, r8, r9, r10, lr}
 283              		.cfi_def_cfa_offset 32
 284              		.cfi_offset 4, -32
 285              		.cfi_offset 5, -28
ARM GAS  /tmp/ccr16YEU.s 			page 6


 286              		.cfi_offset 6, -24
 287              		.cfi_offset 7, -20
 288              		.cfi_offset 8, -16
 289              		.cfi_offset 9, -12
 290              		.cfi_offset 10, -8
 291              		.cfi_offset 14, -4
 292              		.loc 1 190 0
 293 0004 8469     		ldr	r4, [r0, #24]
 294              	.LVL31:
 295              		.loc 1 189 0
 296 0006 8146     		mov	r9, r0
 297 0008 1646     		mov	r6, r2
 298              		.loc 1 192 0
 299 000a 2046     		mov	r0, r4
 300              	.LVL32:
 301              		.loc 1 189 0
 302 000c 0F46     		mov	r7, r1
 303              		.loc 1 192 0
 304 000e FFF7FEFF 		bl	stm32f1_flash_unlock
 305              	.LVL33:
 306              		.loc 1 194 0
 307 0012 26B3     		cbz	r6, .L25
 308              		.loc 1 196 0
 309 0014 DFF88480 		ldr	r8, .L39+12
 310              		.loc 1 198 0
 311 0018 DFF884A0 		ldr	r10, .L39+16
 312              		.loc 1 203 0
 313 001c 1C4D     		ldr	r5, .L39
 314              	.LVL34:
 315              	.L29:
 316              		.loc 1 196 0
 317 001e 4146     		mov	r1, r8
 318 0020 2046     		mov	r0, r4
 319 0022 0222     		movs	r2, #2
 320 0024 FFF7FEFF 		bl	target_mem_write32
 321              	.LVL35:
 322              		.loc 1 198 0
 323 0028 3A46     		mov	r2, r7
 324 002a 5146     		mov	r1, r10
 325 002c 2046     		mov	r0, r4
 326 002e FFF7FEFF 		bl	target_mem_write32
 327              	.LVL36:
 328              		.loc 1 200 0
 329 0032 4222     		movs	r2, #66
 330 0034 4146     		mov	r1, r8
 331 0036 2046     		mov	r0, r4
 332 0038 FFF7FEFF 		bl	target_mem_write32
 333              	.LVL37:
 334              		.loc 1 203 0
 335 003c 02E0     		b	.L26
 336              	.LVL38:
 337              	.L28:
 338              		.loc 1 204 0
 339 003e FFF7FEFF 		bl	target_check_error
 340              	.LVL39:
 341 0042 E8B9     		cbnz	r0, .L38
 342              	.L26:
ARM GAS  /tmp/ccr16YEU.s 			page 7


 343              		.loc 1 203 0
 344 0044 2946     		mov	r1, r5
 345 0046 2046     		mov	r0, r4
 346 0048 FFF7FEFF 		bl	target_mem_read32
 347              	.LVL40:
 348 004c 10F0010F 		tst	r0, #1
 349              		.loc 1 204 0
 350 0050 2046     		mov	r0, r4
 351              		.loc 1 203 0
 352 0052 F4D1     		bne	.L28
 353              	.LVL41:
 354              		.loc 1 209 0
 355 0054 D9F80830 		ldr	r3, [r9, #8]
 356              	.LVL42:
 357              		.loc 1 194 0
 358 0058 F61A     		subs	r6, r6, r3
 359              	.LVL43:
 360              		.loc 1 210 0
 361 005a 1F44     		add	r7, r7, r3
 362              	.LVL44:
 363              		.loc 1 194 0
 364 005c DFD1     		bne	.L29
 365              	.LVL45:
 366              	.L25:
 367              		.loc 1 214 0
 368 005e 2046     		mov	r0, r4
 369 0060 0B49     		ldr	r1, .L39
 370 0062 FFF7FEFF 		bl	target_mem_read32
 371              	.LVL46:
 372              		.loc 1 215 0
 373 0066 00F03403 		and	r3, r0, #52
 374 006a 202B     		cmp	r3, #32
 375              		.loc 1 220 0
 376 006c 08BF     		it	eq
 377 006e 0020     		moveq	r0, #0
 378              	.LVL47:
 379              		.loc 1 215 0
 380 0070 0BD0     		beq	.L24
 381              		.loc 1 216 0
 382 0072 0146     		mov	r1, r0
 383 0074 0748     		ldr	r0, .L39+4
 384 0076 FFF7FEFF 		bl	commands_printf
 385              	.LVL48:
 386              		.loc 1 217 0
 387 007a 4FF0FF30 		mov	r0, #-1
 388 007e 04E0     		b	.L24
 389              	.LVL49:
 390              	.L38:
 391              		.loc 1 205 0
 392 0080 0548     		ldr	r0, .L39+8
 393 0082 FFF7FEFF 		bl	commands_printf
 394              	.LVL50:
 395              		.loc 1 206 0
 396 0086 4FF0FF30 		mov	r0, #-1
 397              	.LVL51:
 398              	.L24:
 399              		.loc 1 221 0
ARM GAS  /tmp/ccr16YEU.s 			page 8


 400 008a BDE8F087 		pop	{r4, r5, r6, r7, r8, r9, r10, pc}
 401              	.LVL52:
 402              	.L40:
 403 008e 00BF     		.align	2
 404              	.L39:
 405 0090 0C200240 		.word	1073881100
 406 0094 24000000 		.word	.LC3
 407 0098 00000000 		.word	.LC2
 408 009c 10200240 		.word	1073881104
 409 00a0 14200240 		.word	1073881108
 410              		.cfi_endproc
 411              	.LFE266:
 412              		.size	stm32f1_flash_erase, .-stm32f1_flash_erase
 413              		.section	.text.stm32f1_option_write_erased.part.0,"ax",%progbits
 414              		.align	1
 415              		.p2align 4,,15
 416              		.syntax unified
 417              		.thumb
 418              		.thumb_func
 419              		.fpu fpv4-sp-d16
 420              		.type	stm32f1_option_write_erased.part.0, %function
 421              	stm32f1_option_write_erased.part.0:
 422              	.LFB273:
 423              		.loc 1 284 0
 424              		.cfi_startproc
 425              		@ args = 0, pretend = 0, frame = 0
 426              		@ frame_needed = 0, uses_anonymous_args = 0
 427              	.LVL53:
 428 0000 F8B5     		push	{r3, r4, r5, r6, r7, lr}
 429              		.cfi_def_cfa_offset 24
 430              		.cfi_offset 3, -24
 431              		.cfi_offset 4, -20
 432              		.cfi_offset 5, -16
 433              		.cfi_offset 6, -12
 434              		.cfi_offset 7, -8
 435              		.cfi_offset 14, -4
 436              		.loc 1 284 0
 437 0002 0E46     		mov	r6, r1
 438 0004 1746     		mov	r7, r2
 439 0006 0446     		mov	r4, r0
 440              		.loc 1 289 0
 441 0008 4FF40472 		mov	r2, #528
 442              	.LVL54:
 443 000c 0C49     		ldr	r1, .L47
 444              	.LVL55:
 445              		.loc 1 292 0
 446 000e 0D4D     		ldr	r5, .L47+4
 447              		.loc 1 289 0
 448 0010 FFF7FEFF 		bl	target_mem_write32
 449              	.LVL56:
 450              		.loc 1 290 0
 451 0014 3A46     		mov	r2, r7
 452 0016 3146     		mov	r1, r6
 453 0018 2046     		mov	r0, r4
 454 001a FFF7FEFF 		bl	target_mem_write16
 455              	.LVL57:
 456 001e 02E0     		b	.L42
ARM GAS  /tmp/ccr16YEU.s 			page 9


 457              	.LVL58:
 458              	.L44:
 459              		.loc 1 293 0
 460 0020 FFF7FEFF 		bl	target_check_error
 461              	.LVL59:
 462 0024 48B9     		cbnz	r0, .L45
 463              	.L42:
 464              		.loc 1 292 0
 465 0026 2946     		mov	r1, r5
 466 0028 2046     		mov	r0, r4
 467 002a FFF7FEFF 		bl	target_mem_read32
 468              	.LVL60:
 469 002e 10F0010F 		tst	r0, #1
 470              		.loc 1 293 0
 471 0032 2046     		mov	r0, r4
 472              		.loc 1 292 0
 473 0034 F4D1     		bne	.L44
 474              	.LVL61:
 475              		.loc 1 295 0
 476 0036 0120     		movs	r0, #1
 477              	.LVL62:
 478              		.loc 1 296 0
 479 0038 F8BD     		pop	{r3, r4, r5, r6, r7, pc}
 480              	.LVL63:
 481              	.L45:
 482              		.loc 1 294 0
 483 003a 0020     		movs	r0, #0
 484              		.loc 1 296 0
 485 003c F8BD     		pop	{r3, r4, r5, r6, r7, pc}
 486              	.LVL64:
 487              	.L48:
 488 003e 00BF     		.align	2
 489              	.L47:
 490 0040 10200240 		.word	1073881104
 491 0044 0C200240 		.word	1073881100
 492              		.cfi_endproc
 493              	.LFE273:
 494              		.size	stm32f1_option_write_erased.part.0, .-stm32f1_option_write_erased.part.0
 495              		.section	.text.stm32f1_cmd_option,"ax",%progbits
 496              		.align	1
 497              		.p2align 4,,15
 498              		.syntax unified
 499              		.thumb
 500              		.thumb_func
 501              		.fpu fpv4-sp-d16
 502              		.type	stm32f1_cmd_option, %function
 503              	stm32f1_cmd_option:
 504              	.LFB272:
 505              		.loc 1 328 0
 506              		.cfi_startproc
 507              		@ args = 0, pretend = 0, frame = 16
 508              		@ frame_needed = 0, uses_anonymous_args = 0
 509              	.LVL65:
 510 0000 2DE9F043 		push	{r4, r5, r6, r7, r8, r9, lr}
 511              		.cfi_def_cfa_offset 28
 512              		.cfi_offset 4, -28
 513              		.cfi_offset 5, -24
ARM GAS  /tmp/ccr16YEU.s 			page 10


 514              		.cfi_offset 6, -20
 515              		.cfi_offset 7, -16
 516              		.cfi_offset 8, -12
 517              		.cfi_offset 9, -8
 518              		.cfi_offset 14, -4
 519              		.loc 1 333 0
 520 0004 036D     		ldr	r3, [r0, #80]
 521 0006 A3F22243 		subw	r3, r3, #1058
 522              		.loc 1 328 0
 523 000a 85B0     		sub	sp, sp, #20
 524              		.cfi_def_cfa_offset 48
 525              		.loc 1 328 0
 526 000c 0546     		mov	r5, r0
 527 000e 0E46     		mov	r6, r1
 528 0010 1746     		mov	r7, r2
 529              		.loc 1 333 0
 530 0012 262B     		cmp	r3, #38
 531 0014 53D8     		bhi	.L50
 532 0016 DFE803F0 		tbb	[pc, r3]
 533              	.LVL66:
 534              	.L52:
 535 001a 14       		.byte	(.L68-.L52)/2
 536 001b 52       		.byte	(.L50-.L52)/2
 537 001c 52       		.byte	(.L50-.L52)/2
 538 001d 52       		.byte	(.L50-.L52)/2
 539 001e 52       		.byte	(.L50-.L52)/2
 540 001f 52       		.byte	(.L50-.L52)/2
 541 0020 52       		.byte	(.L50-.L52)/2
 542 0021 52       		.byte	(.L50-.L52)/2
 543 0022 52       		.byte	(.L50-.L52)/2
 544 0023 52       		.byte	(.L50-.L52)/2
 545 0024 52       		.byte	(.L50-.L52)/2
 546 0025 52       		.byte	(.L50-.L52)/2
 547 0026 52       		.byte	(.L50-.L52)/2
 548 0027 52       		.byte	(.L50-.L52)/2
 549 0028 52       		.byte	(.L50-.L52)/2
 550 0029 52       		.byte	(.L50-.L52)/2
 551 002a 14       		.byte	(.L68-.L52)/2
 552 002b 52       		.byte	(.L50-.L52)/2
 553 002c 52       		.byte	(.L50-.L52)/2
 554 002d 52       		.byte	(.L50-.L52)/2
 555 002e 52       		.byte	(.L50-.L52)/2
 556 002f 52       		.byte	(.L50-.L52)/2
 557 0030 14       		.byte	(.L68-.L52)/2
 558 0031 52       		.byte	(.L50-.L52)/2
 559 0032 52       		.byte	(.L50-.L52)/2
 560 0033 52       		.byte	(.L50-.L52)/2
 561 0034 52       		.byte	(.L50-.L52)/2
 562 0035 52       		.byte	(.L50-.L52)/2
 563 0036 52       		.byte	(.L50-.L52)/2
 564 0037 52       		.byte	(.L50-.L52)/2
 565 0038 14       		.byte	(.L68-.L52)/2
 566 0039 52       		.byte	(.L50-.L52)/2
 567 003a 14       		.byte	(.L68-.L52)/2
 568 003b 52       		.byte	(.L50-.L52)/2
 569 003c 52       		.byte	(.L50-.L52)/2
 570 003d 14       		.byte	(.L68-.L52)/2
ARM GAS  /tmp/ccr16YEU.s 			page 11


 571 003e 14       		.byte	(.L68-.L52)/2
 572 003f 52       		.byte	(.L50-.L52)/2
 573 0040 14       		.byte	(.L68-.L52)/2
 574 0041 00       		.p2align 1
 575              	.L68:
 576              		.loc 1 342 0
 577 0042 45F2AA58 		movw	r8, #21930
 578              	.L51:
 579              	.LVL67:
 580              		.loc 1 346 0
 581 0046 5A49     		ldr	r1, .L77
 582              	.LVL68:
 583 0048 2846     		mov	r0, r5
 584              	.LVL69:
 585 004a FFF7FEFF 		bl	target_mem_read32
 586              	.LVL70:
 587 004e 00F00204 		and	r4, r0, #2
 588              	.LVL71:
 589              		.loc 1 347 0
 590 0052 2846     		mov	r0, r5
 591 0054 FFF7FEFF 		bl	stm32f1_flash_unlock
 592              	.LVL72:
 593              		.loc 1 348 0
 594 0058 564A     		ldr	r2, .L77+4
 595 005a 5749     		ldr	r1, .L77+8
 596 005c 2846     		mov	r0, r5
 597 005e FFF7FEFF 		bl	target_mem_write32
 598              	.LVL73:
 599              		.loc 1 349 0
 600 0062 564A     		ldr	r2, .L77+12
 601 0064 5449     		ldr	r1, .L77+8
 602 0066 2846     		mov	r0, r5
 603 0068 FFF7FEFF 		bl	target_mem_write32
 604              	.LVL74:
 605              		.loc 1 351 0
 606 006c 022E     		cmp	r6, #2
 607 006e 29D0     		beq	.L74
 608              		.loc 1 354 0
 609 0070 84BB     		cbnz	r4, .L67
 610              		.loc 1 358 0
 611 0072 032E     		cmp	r6, #3
 612 0074 3AD0     		beq	.L75
 613              	.L58:
 614              		.loc 1 363 0
 615 0076 5249     		ldr	r1, .L77+16
 616 0078 2846     		mov	r0, r5
 617 007a FFF7FEFF 		bl	tc_printf
 618              	.LVL75:
 619              		.loc 1 364 0
 620 007e 5149     		ldr	r1, .L77+20
 621 0080 2846     		mov	r0, r5
 622 0082 FFF7FEFF 		bl	tc_printf
 623              	.LVL76:
 624              	.L55:
 625              	.LBB16:
 626              	.LBB17:
 627              		.loc 1 307 0 discriminator 3
ARM GAS  /tmp/ccr16YEU.s 			page 12


 628 0086 504C     		ldr	r4, .L77+24
 629              	.LBE17:
 630              	.LBE16:
 631              	.LBB28:
 632              		.loc 1 379 0 discriminator 3
 633 0088 504F     		ldr	r7, .L77+28
 634              		.loc 1 376 0 discriminator 3
 635 008a DFF85081 		ldr	r8, .L77+44
 636              	.L66:
 637              	.LVL77:
 638              		.loc 1 378 0 discriminator 3
 639 008e 2146     		mov	r1, r4
 640 0090 2846     		mov	r0, r5
 641 0092 FFF7FEFF 		bl	target_mem_read32
 642              	.LVL78:
 643              		.loc 1 379 0 discriminator 3
 644 0096 2246     		mov	r2, r4
 645 0098 83B2     		uxth	r3, r0
 646              		.loc 1 378 0 discriminator 3
 647 009a 0646     		mov	r6, r0
 648              	.LVL79:
 649              		.loc 1 379 0 discriminator 3
 650 009c 3946     		mov	r1, r7
 651 009e 2846     		mov	r0, r5
 652              	.LVL80:
 653 00a0 FFF7FEFF 		bl	tc_printf
 654              	.LVL81:
 655              		.loc 1 380 0 discriminator 3
 656 00a4 A21C     		adds	r2, r4, #2
 657 00a6 330C     		lsrs	r3, r6, #16
 658 00a8 3946     		mov	r1, r7
 659 00aa 0434     		adds	r4, r4, #4
 660              	.LVL82:
 661 00ac 2846     		mov	r0, r5
 662 00ae FFF7FEFF 		bl	tc_printf
 663              	.LVL83:
 664              		.loc 1 376 0 discriminator 3
 665 00b2 4445     		cmp	r4, r8
 666 00b4 EBD1     		bne	.L66
 667              	.LBE28:
 668              		.loc 1 383 0
 669 00b6 0120     		movs	r0, #1
 670 00b8 05B0     		add	sp, sp, #20
 671              		.cfi_remember_state
 672              		.cfi_def_cfa_offset 28
 673              		@ sp needed
 674 00ba BDE8F083 		pop	{r4, r5, r6, r7, r8, r9, pc}
 675              	.LVL84:
 676              	.L50:
 677              		.cfi_restore_state
 678              		.loc 1 344 0
 679 00be 45F6A528 		movw	r8, #23205
 680 00c2 C0E7     		b	.L51
 681              	.LVL85:
 682              	.L74:
 683              		.loc 1 351 0 discriminator 1
 684 00c4 7868     		ldr	r0, [r7, #4]
ARM GAS  /tmp/ccr16YEU.s 			page 13


 685 00c6 4249     		ldr	r1, .L77+32
 686 00c8 FFF7FEFF 		bl	strcmp
 687              	.LVL86:
 688 00cc 0028     		cmp	r0, #0
 689 00ce 60D0     		beq	.L76
 690              		.loc 1 354 0
 691 00d0 002C     		cmp	r4, #0
 692 00d2 D0D0     		beq	.L58
 693              	.L67:
 694              		.loc 1 355 0
 695 00d4 2846     		mov	r0, r5
 696 00d6 3F49     		ldr	r1, .L77+36
 697 00d8 FFF7FEFF 		bl	tc_printf
 698              	.LVL87:
 699              		.loc 1 356 0
 700 00dc 2846     		mov	r0, r5
 701 00de 3E49     		ldr	r1, .L77+40
 702 00e0 FFF7FEFF 		bl	tc_printf
 703              	.LVL88:
 704              		.loc 1 383 0
 705 00e4 0120     		movs	r0, #1
 706 00e6 05B0     		add	sp, sp, #20
 707              		.cfi_remember_state
 708              		.cfi_def_cfa_offset 28
 709              		@ sp needed
 710 00e8 BDE8F083 		pop	{r4, r5, r6, r7, r8, r9, pc}
 711              	.LVL89:
 712              	.L75:
 713              		.cfi_restore_state
 714              		.loc 1 359 0
 715 00ec 2246     		mov	r2, r4
 716 00ee 2146     		mov	r1, r4
 717 00f0 7868     		ldr	r0, [r7, #4]
 718 00f2 FFF7FEFF 		bl	strtol
 719              	.LVL90:
 720              		.loc 1 360 0
 721 00f6 2246     		mov	r2, r4
 722              		.loc 1 359 0
 723 00f8 8046     		mov	r8, r0
 724              	.LVL91:
 725              		.loc 1 360 0
 726 00fa 2146     		mov	r1, r4
 727 00fc B868     		ldr	r0, [r7, #8]
 728              	.LVL92:
 729 00fe FFF7FEFF 		bl	strtol
 730              	.LVL93:
 731 0102 0646     		mov	r6, r0
 732              	.LVL94:
 733              	.LBB29:
 734              	.LBB25:
 735              		.loc 1 303 0
 736 0104 08F16040 		add	r0, r8, #-536870912
 737              	.LVL95:
 738 0108 00F50060 		add	r0, r0, #2048
 739 010c 4708     		lsrs	r7, r0, #1
 740              	.LVL96:
 741              		.loc 1 304 0
ARM GAS  /tmp/ccr16YEU.s 			page 14


 742 010e 072F     		cmp	r7, #7
 743 0110 B9D8     		bhi	.L55
 744              	.LVL97:
 745              	.L60:
 746              	.LBB18:
 747              		.loc 1 308 0
 748 0112 04F10051 		add	r1, r4, #536870912
 749 0116 A1F50061 		sub	r1, r1, #2048
 750 011a 2846     		mov	r0, r5
 751 011c FFF7FEFF 		bl	target_mem_read32
 752              	.LVL98:
 753              		.loc 1 309 0
 754 0120 6310     		asrs	r3, r4, #1
 755 0122 04AA     		add	r2, sp, #16
 756 0124 02EB4301 		add	r1, r2, r3, lsl #1
 757              	.LBE18:
 758              		.loc 1 307 0
 759 0128 0434     		adds	r4, r4, #4
 760              	.LVL99:
 761              	.LBB19:
 762              		.loc 1 310 0
 763 012a 020C     		lsrs	r2, r0, #16
 764              	.LBE19:
 765              		.loc 1 307 0
 766 012c 102C     		cmp	r4, #16
 767              	.LBB20:
 768              		.loc 1 309 0
 769 012e 21F8100C 		strh	r0, [r1, #-16]	@ movhi
 770              		.loc 1 310 0
 771 0132 21F80E2C 		strh	r2, [r1, #-14]	@ movhi
 772              	.LBE20:
 773              		.loc 1 307 0
 774 0136 ECD1     		bne	.L60
 775              		.loc 1 312 0
 776 0138 7F00     		lsls	r7, r7, #1
 777              	.LVL100:
 778 013a 04AB     		add	r3, sp, #16
 779 013c 3B44     		add	r3, r3, r7
 780              	.LBE25:
 781              	.LBE29:
 782              		.loc 1 361 0
 783 013e B6B2     		uxth	r6, r6
 784              	.LVL101:
 785              	.LBB30:
 786              	.LBB26:
 787              		.loc 1 312 0
 788 0140 33F8103C 		ldrh	r3, [r3, #-16]
 789 0144 9E42     		cmp	r6, r3
 790 0146 9ED0     		beq	.L55
 791              		.loc 1 315 0
 792 0148 4FF6FF72 		movw	r2, #65535
 793 014c 9342     		cmp	r3, r2
 794 014e 29D1     		bne	.L61
 795              	.LVL102:
 796              	.L63:
 797              		.loc 1 318 0
 798 0150 04AB     		add	r3, sp, #16
ARM GAS  /tmp/ccr16YEU.s 			page 15


 799 0152 1F44     		add	r7, r7, r3
 800 0154 E846     		mov	r8, sp
 801              	.LVL103:
 802 0156 27F8106C 		strh	r6, [r7, #-16]	@ movhi
 803              	.LVL104:
 804 015a ADF10203 		sub	r3, sp, #2
 805 015e 0DF10E09 		add	r9, sp, #14
 806              	.LBB21:
 807              	.LBB22:
 808              		.loc 1 286 0
 809 0162 4FF6FF77 		movw	r7, #65535
 810              	.LVL105:
 811              	.L62:
 812              	.LBE22:
 813              	.LBE21:
 814              		.loc 1 321 0
 815 0166 5E88     		ldrh	r6, [r3, #2]
 816              	.LVL106:
 817              	.LBB24:
 818              	.LBB23:
 819 0168 03F10051 		add	r1, r3, #536870912
 820 016c A1F2FE71 		subw	r1, r1, #2046
 821              		.loc 1 286 0
 822 0170 BE42     		cmp	r6, r7
 823 0172 A1EB0801 		sub	r1, r1, r8
 824 0176 2846     		mov	r0, r5
 825 0178 3246     		mov	r2, r6
 826 017a 03F10204 		add	r4, r3, #2
 827 017e 04D0     		beq	.L65
 828              	.LVL107:
 829 0180 FFF7FEFF 		bl	stm32f1_option_write_erased.part.0
 830              	.LVL108:
 831              	.LBE23:
 832              	.LBE24:
 833              		.loc 1 321 0
 834 0184 0028     		cmp	r0, #0
 835 0186 3FF47EAF 		beq	.L55
 836              	.L65:
 837              		.loc 1 320 0
 838 018a A145     		cmp	r9, r4
 839 018c 2346     		mov	r3, r4
 840 018e EAD1     		bne	.L62
 841 0190 79E7     		b	.L55
 842              	.LVL109:
 843              	.L76:
 844              	.LBE26:
 845              	.LBE30:
 846              		.loc 1 352 0
 847 0192 2846     		mov	r0, r5
 848 0194 FFF7FEFF 		bl	stm32f1_option_erase
 849              	.LVL110:
 850              	.LBB31:
 851              	.LBB32:
 852 0198 4246     		mov	r2, r8
 853 019a 0B49     		ldr	r1, .L77+24
 854 019c 2846     		mov	r0, r5
 855 019e FFF7FEFF 		bl	stm32f1_option_write_erased.part.0
ARM GAS  /tmp/ccr16YEU.s 			page 16


 856              	.LVL111:
 857 01a2 70E7     		b	.L55
 858              	.LVL112:
 859              	.L61:
 860              	.LBE32:
 861              	.LBE31:
 862              	.LBB33:
 863              	.LBB27:
 864              		.loc 1 316 0
 865 01a4 2846     		mov	r0, r5
 866              	.LVL113:
 867 01a6 FFF7FEFF 		bl	stm32f1_option_erase
 868              	.LVL114:
 869 01aa 0028     		cmp	r0, #0
 870 01ac D0D1     		bne	.L63
 871 01ae 6AE7     		b	.L55
 872              	.L78:
 873              		.align	2
 874              	.L77:
 875 01b0 1C200240 		.word	1073881116
 876 01b4 23016745 		.word	1164378403
 877 01b8 08200240 		.word	1073881096
 878 01bc AB89EFCD 		.word	-839939669
 879 01c0 60000000 		.word	.LC7
 880 01c4 80000000 		.word	.LC8
 881 01c8 00F8FF1F 		.word	536868864
 882 01cc A8000000 		.word	.LC9
 883 01d0 00000000 		.word	.LC4
 884 01d4 08000000 		.word	.LC5
 885 01d8 24000000 		.word	.LC6
 886 01dc 10F8FF1F 		.word	536868880
 887              	.LBE27:
 888              	.LBE33:
 889              		.cfi_endproc
 890              	.LFE272:
 891              		.size	stm32f1_cmd_option, .-stm32f1_cmd_option
 892              		.section	.text.stm32f1_cmd_erase_mass,"ax",%progbits
 893              		.align	1
 894              		.p2align 4,,15
 895              		.syntax unified
 896              		.thumb
 897              		.thumb_func
 898              		.fpu fpv4-sp-d16
 899              		.type	stm32f1_cmd_erase_mass, %function
 900              	stm32f1_cmd_erase_mass:
 901              	.LFB268:
 902              		.loc 1 248 0
 903              		.cfi_startproc
 904              		@ args = 0, pretend = 0, frame = 0
 905              		@ frame_needed = 0, uses_anonymous_args = 0
 906              	.LVL115:
 907 0000 10B5     		push	{r4, lr}
 908              		.cfi_def_cfa_offset 8
 909              		.cfi_offset 4, -8
 910              		.cfi_offset 14, -4
 911              		.loc 1 248 0
 912 0002 0446     		mov	r4, r0
ARM GAS  /tmp/ccr16YEU.s 			page 17


 913              		.loc 1 249 0
 914 0004 FFF7FEFF 		bl	stm32f1_flash_unlock
 915              	.LVL116:
 916              		.loc 1 252 0
 917 0008 2046     		mov	r0, r4
 918 000a 0422     		movs	r2, #4
 919 000c 1149     		ldr	r1, .L85
 920 000e FFF7FEFF 		bl	target_mem_write32
 921              	.LVL117:
 922              		.loc 1 253 0
 923 0012 2046     		mov	r0, r4
 924 0014 4422     		movs	r2, #68
 925 0016 0F49     		ldr	r1, .L85
 926 0018 FFF7FEFF 		bl	target_mem_write32
 927              	.LVL118:
 928              		.loc 1 256 0
 929 001c 05E0     		b	.L80
 930              	.LVL119:
 931              	.L82:
 932              		.loc 1 257 0
 933 001e FFF7FEFF 		bl	target_check_error
 934              	.LVL120:
 935 0022 A8B9     		cbnz	r0, .L83
 936              		.loc 1 260 0
 937 0024 0120     		movs	r0, #1
 938 0026 FFF7FEFF 		bl	platform_delay
 939              	.LVL121:
 940              	.L80:
 941              		.loc 1 256 0
 942 002a 0B49     		ldr	r1, .L85+4
 943 002c 2046     		mov	r0, r4
 944 002e FFF7FEFF 		bl	target_mem_read32
 945              	.LVL122:
 946 0032 10F0010F 		tst	r0, #1
 947              		.loc 1 257 0
 948 0036 2046     		mov	r0, r4
 949              		.loc 1 256 0
 950 0038 F1D1     		bne	.L82
 951              	.LVL123:
 952              	.LBB36:
 953              	.LBB37:
 954              		.loc 1 264 0
 955 003a 0749     		ldr	r1, .L85+4
 956 003c FFF7FEFF 		bl	target_mem_read32
 957              	.LVL124:
 958              		.loc 1 265 0
 959 0040 00F03400 		and	r0, r0, #52
 960              	.LVL125:
 961 0044 A0F12000 		sub	r0, #32
 962 0048 B0FA80F0 		clz	r0, r0
 963 004c 4009     		lsrs	r0, r0, #5
 964              	.LBE37:
 965              	.LBE36:
 966              		.loc 1 269 0
 967 004e 10BD     		pop	{r4, pc}
 968              	.LVL126:
 969              	.L83:
ARM GAS  /tmp/ccr16YEU.s 			page 18


 970              		.loc 1 258 0
 971 0050 0020     		movs	r0, #0
 972              		.loc 1 269 0
 973 0052 10BD     		pop	{r4, pc}
 974              	.LVL127:
 975              	.L86:
 976              		.align	2
 977              	.L85:
 978 0054 10200240 		.word	1073881104
 979 0058 0C200240 		.word	1073881100
 980              		.cfi_endproc
 981              	.LFE268:
 982              		.size	stm32f1_cmd_erase_mass, .-stm32f1_cmd_erase_mass
 983              		.section	.text.stm32f1_add_flash.constprop.2,"ax",%progbits
 984              		.align	1
 985              		.p2align 4,,15
 986              		.syntax unified
 987              		.thumb
 988              		.thumb_func
 989              		.fpu fpv4-sp-d16
 990              		.type	stm32f1_add_flash.constprop.2, %function
 991              	stm32f1_add_flash.constprop.2:
 992              	.LFB275:
 993              		.loc 1 97 0
 994              		.cfi_startproc
 995              		@ args = 0, pretend = 0, frame = 0
 996              		@ frame_needed = 0, uses_anonymous_args = 0
 997              	.LVL128:
 998 0000 70B5     		push	{r4, r5, r6, lr}
 999              		.cfi_def_cfa_offset 16
 1000              		.cfi_offset 4, -16
 1001              		.cfi_offset 5, -12
 1002              		.cfi_offset 6, -8
 1003              		.cfi_offset 14, -4
 1004              		.loc 1 97 0
 1005 0002 0646     		mov	r6, r0
 1006 0004 0D46     		mov	r5, r1
 1007              		.loc 1 100 0
 1008 0006 0120     		movs	r0, #1
 1009              	.LVL129:
 1010 0008 3021     		movs	r1, #48
 1011              	.LVL130:
 1012              		.loc 1 97 0
 1013 000a 1446     		mov	r4, r2
 1014              		.loc 1 100 0
 1015 000c FFF7FEFF 		bl	calloc
 1016              	.LVL131:
 1017 0010 0346     		mov	r3, r0
 1018              	.LVL132:
 1019              		.loc 1 107 0
 1020 0012 FF22     		movs	r2, #255
 1021              		.loc 1 108 0
 1022 0014 3046     		mov	r0, r6
 1023              	.LVL133:
 1024              		.loc 1 102 0
 1025 0016 5D60     		str	r5, [r3, #4]
 1026              		.loc 1 104 0
ARM GAS  /tmp/ccr16YEU.s 			page 19


 1027 0018 074E     		ldr	r6, .L89
 1028              	.LVL134:
 1029              		.loc 1 105 0
 1030 001a 084D     		ldr	r5, .L89+4
 1031              	.LVL135:
 1032              		.loc 1 107 0
 1033 001c 1A77     		strb	r2, [r3, #28]
 1034              		.loc 1 101 0
 1035 001e 4FF00061 		mov	r1, #134217728
 1036              		.loc 1 103 0
 1037 0022 9C60     		str	r4, [r3, #8]
 1038              		.loc 1 106 0
 1039 0024 1C62     		str	r4, [r3, #32]
 1040              		.loc 1 101 0
 1041 0026 1960     		str	r1, [r3]
 1042              		.loc 1 105 0
 1043 0028 C3E90365 		strd	r6, r5, [r3, #12]
 1044              		.loc 1 108 0
 1045 002c 1946     		mov	r1, r3
 1046              		.loc 1 109 0
 1047 002e BDE87040 		pop	{r4, r5, r6, lr}
 1048              		.cfi_restore 14
 1049              		.cfi_restore 6
 1050              		.cfi_restore 5
 1051              		.cfi_restore 4
 1052              		.cfi_def_cfa_offset 0
 1053              	.LVL136:
 1054              		.loc 1 108 0
 1055 0032 FFF7FEBF 		b	target_add_flash
 1056              	.LVL137:
 1057              	.L90:
 1058 0036 00BF     		.align	2
 1059              	.L89:
 1060 0038 00000000 		.word	stm32f1_flash_erase
 1061 003c 00000000 		.word	stm32f1_flash_write
 1062              		.cfi_endproc
 1063              	.LFE275:
 1064              		.size	stm32f1_add_flash.constprop.2, .-stm32f1_add_flash.constprop.2
 1065              		.section	.text.stm32f1_probe,"ax",%progbits
 1066              		.align	1
 1067              		.p2align 4,,15
 1068              		.global	stm32f1_probe
 1069              		.syntax unified
 1070              		.thumb
 1071              		.thumb_func
 1072              		.fpu fpv4-sp-d16
 1073              		.type	stm32f1_probe, %function
 1074              	stm32f1_probe:
 1075              	.LFB264:
 1076              		.loc 1 112 0
 1077              		.cfi_startproc
 1078              		@ args = 0, pretend = 0, frame = 0
 1079              		@ frame_needed = 0, uses_anonymous_args = 0
 1080              	.LVL138:
 1081 0000 70B5     		push	{r4, r5, r6, lr}
 1082              		.cfi_def_cfa_offset 16
 1083              		.cfi_offset 4, -16
ARM GAS  /tmp/ccr16YEU.s 			page 20


 1084              		.cfi_offset 5, -12
 1085              		.cfi_offset 6, -8
 1086              		.cfi_offset 14, -4
 1087              		.loc 1 115 0
 1088 0002 5F49     		ldr	r1, .L108
 1089              		.loc 1 112 0
 1090 0004 0446     		mov	r4, r0
 1091              		.loc 1 115 0
 1092 0006 FFF7FEFF 		bl	target_mem_read32
 1093              	.LVL139:
 1094 000a C0F30B00 		ubfx	r0, r0, #0, #12
 1095              		.loc 1 116 0
 1096 000e A0F58263 		sub	r3, r0, #1040
 1097              		.loc 1 115 0
 1098 0012 2065     		str	r0, [r4, #80]
 1099              		.loc 1 116 0
 1100 0014 362B     		cmp	r3, #54
 1101 0016 69D8     		bhi	.L92
 1102 0018 DFE803F0 		tbb	[pc, r3]
 1103              	.L94:
 1104 001c 51       		.byte	(.L93-.L94)/2
 1105 001d 68       		.byte	(.L92-.L94)/2
 1106 001e 51       		.byte	(.L93-.L94)/2
 1107 001f 68       		.byte	(.L92-.L94)/2
 1108 0020 3A       		.byte	(.L95-.L94)/2
 1109 0021 68       		.byte	(.L92-.L94)/2
 1110 0022 68       		.byte	(.L92-.L94)/2
 1111 0023 68       		.byte	(.L92-.L94)/2
 1112 0024 3A       		.byte	(.L95-.L94)/2
 1113 0025 68       		.byte	(.L92-.L94)/2
 1114 0026 68       		.byte	(.L92-.L94)/2
 1115 0027 68       		.byte	(.L92-.L94)/2
 1116 0028 68       		.byte	(.L92-.L94)/2
 1117 0029 68       		.byte	(.L92-.L94)/2
 1118 002a 68       		.byte	(.L92-.L94)/2
 1119 002b 68       		.byte	(.L92-.L94)/2
 1120 002c 51       		.byte	(.L93-.L94)/2
 1121 002d 68       		.byte	(.L92-.L94)/2
 1122 002e 1C       		.byte	(.L96-.L94)/2
 1123 002f 68       		.byte	(.L92-.L94)/2
 1124 0030 68       		.byte	(.L92-.L94)/2
 1125 0031 68       		.byte	(.L92-.L94)/2
 1126 0032 68       		.byte	(.L92-.L94)/2
 1127 0033 68       		.byte	(.L92-.L94)/2
 1128 0034 3A       		.byte	(.L95-.L94)/2
 1129 0035 68       		.byte	(.L92-.L94)/2
 1130 0036 68       		.byte	(.L92-.L94)/2
 1131 0037 68       		.byte	(.L92-.L94)/2
 1132 0038 68       		.byte	(.L92-.L94)/2
 1133 0039 68       		.byte	(.L92-.L94)/2
 1134 003a 68       		.byte	(.L92-.L94)/2
 1135 003b 68       		.byte	(.L92-.L94)/2
 1136 003c 68       		.byte	(.L92-.L94)/2
 1137 003d 68       		.byte	(.L92-.L94)/2
 1138 003e 23       		.byte	(.L97-.L94)/2
 1139 003f 68       		.byte	(.L92-.L94)/2
 1140 0040 68       		.byte	(.L92-.L94)/2
ARM GAS  /tmp/ccr16YEU.s 			page 21


 1141 0041 68       		.byte	(.L92-.L94)/2
 1142 0042 68       		.byte	(.L92-.L94)/2
 1143 0043 68       		.byte	(.L92-.L94)/2
 1144 0044 1C       		.byte	(.L96-.L94)/2
 1145 0045 23       		.byte	(.L97-.L94)/2
 1146 0046 68       		.byte	(.L92-.L94)/2
 1147 0047 68       		.byte	(.L92-.L94)/2
 1148 0048 68       		.byte	(.L92-.L94)/2
 1149 0049 68       		.byte	(.L92-.L94)/2
 1150 004a 68       		.byte	(.L92-.L94)/2
 1151 004b 68       		.byte	(.L92-.L94)/2
 1152 004c 68       		.byte	(.L92-.L94)/2
 1153 004d 68       		.byte	(.L92-.L94)/2
 1154 004e 68       		.byte	(.L92-.L94)/2
 1155 004f 68       		.byte	(.L92-.L94)/2
 1156 0050 68       		.byte	(.L92-.L94)/2
 1157 0051 68       		.byte	(.L92-.L94)/2
 1158 0052 1C       		.byte	(.L96-.L94)/2
 1159 0053 00       		.p2align 1
 1160              	.L96:
 1161              		.loc 1 136 0
 1162 0054 4FF48042 		mov	r2, #16384
 1163 0058 4FF08051 		mov	r1, #268435456
 1164 005c 2046     		mov	r0, r4
 1165 005e FFF7FEFF 		bl	target_add_ram
 1166              	.LVL140:
 1167              	.L97:
 1168              		.loc 1 140 0
 1169 0062 484D     		ldr	r5, .L108+4
 1170 0064 2566     		str	r5, [r4, #96]
 1171              		.loc 1 141 0
 1172 0066 2046     		mov	r0, r4
 1173 0068 4FF48032 		mov	r2, #65536
 1174 006c 4FF00051 		mov	r1, #536870912
 1175 0070 FFF7FEFF 		bl	target_add_ram
 1176              	.LVL141:
 1177              		.loc 1 142 0
 1178 0074 2046     		mov	r0, r4
 1179 0076 4FF40062 		mov	r2, #2048
 1180 007a 4FF40021 		mov	r1, #524288
 1181 007e FFF7FEFF 		bl	stm32f1_add_flash.constprop.2
 1182              	.LVL142:
 1183              		.loc 1 143 0
 1184 0082 2046     		mov	r0, r4
 1185 0084 2A46     		mov	r2, r5
 1186 0086 4049     		ldr	r1, .L108+8
 1187 0088 FFF7FEFF 		bl	target_add_commands
 1188              	.LVL143:
 1189              		.loc 1 144 0
 1190 008c 0120     		movs	r0, #1
 1191              		.loc 1 179 0
 1192 008e 70BD     		pop	{r4, r5, r6, pc}
 1193              	.LVL144:
 1194              	.L95:
 1195              		.loc 1 128 0
 1196 0090 3E4B     		ldr	r3, .L108+12
 1197 0092 2366     		str	r3, [r4, #96]
ARM GAS  /tmp/ccr16YEU.s 			page 22


 1198              		.loc 1 129 0
 1199 0094 2046     		mov	r0, r4
 1200 0096 4FF48032 		mov	r2, #65536
 1201 009a 4FF00051 		mov	r1, #536870912
 1202 009e FFF7FEFF 		bl	target_add_ram
 1203              	.LVL145:
 1204              		.loc 1 130 0
 1205 00a2 2046     		mov	r0, r4
 1206 00a4 4FF40062 		mov	r2, #2048
 1207 00a8 4FF40021 		mov	r1, #524288
 1208 00ac FFF7FEFF 		bl	stm32f1_add_flash.constprop.2
 1209              	.LVL146:
 1210              		.loc 1 131 0
 1211 00b0 2046     		mov	r0, r4
 1212 00b2 374A     		ldr	r2, .L108+16
 1213 00b4 3449     		ldr	r1, .L108+8
 1214 00b6 FFF7FEFF 		bl	target_add_commands
 1215              	.LVL147:
 1216              		.loc 1 132 0
 1217 00ba 0120     		movs	r0, #1
 1218              		.loc 1 179 0
 1219 00bc 70BD     		pop	{r4, r5, r6, pc}
 1220              	.LVL148:
 1221              	.L93:
 1222              		.loc 1 120 0
 1223 00be 354B     		ldr	r3, .L108+20
 1224 00c0 2366     		str	r3, [r4, #96]
 1225              		.loc 1 121 0
 1226 00c2 2046     		mov	r0, r4
 1227 00c4 4FF4A042 		mov	r2, #20480
 1228 00c8 4FF00051 		mov	r1, #536870912
 1229 00cc FFF7FEFF 		bl	target_add_ram
 1230              	.LVL149:
 1231              		.loc 1 122 0
 1232 00d0 2046     		mov	r0, r4
 1233 00d2 4FF48062 		mov	r2, #1024
 1234 00d6 4FF40031 		mov	r1, #131072
 1235 00da FFF7FEFF 		bl	stm32f1_add_flash.constprop.2
 1236              	.LVL150:
 1237              		.loc 1 123 0
 1238 00de 2046     		mov	r0, r4
 1239 00e0 2D4A     		ldr	r2, .L108+24
 1240 00e2 2949     		ldr	r1, .L108+8
 1241 00e4 FFF7FEFF 		bl	target_add_commands
 1242              	.LVL151:
 1243              		.loc 1 124 0
 1244 00e8 0120     		movs	r0, #1
 1245              		.loc 1 179 0
 1246 00ea 70BD     		pop	{r4, r5, r6, pc}
 1247              	.LVL152:
 1248              	.L92:
 1249              		.loc 1 147 0
 1250 00ec 2B49     		ldr	r1, .L108+28
 1251 00ee 2046     		mov	r0, r4
 1252 00f0 FFF7FEFF 		bl	target_mem_read32
 1253              	.LVL153:
 1254 00f4 C0F30B00 		ubfx	r0, r0, #0, #12
ARM GAS  /tmp/ccr16YEU.s 			page 23


 1255              		.loc 1 148 0
 1256 00f8 A0F58863 		sub	r3, r0, #1088
 1257              		.loc 1 147 0
 1258 00fc 2065     		str	r0, [r4, #80]
 1259              		.loc 1 148 0
 1260 00fe 082B     		cmp	r3, #8
 1261 0100 3BD8     		bhi	.L106
 1262 0102 DFE803F0 		tbb	[pc, r3]
 1263              	.L100:
 1264 0106 1E       		.byte	(.L99-.L100)/2
 1265 0107 3A       		.byte	(.L106-.L100)/2
 1266 0108 25       		.byte	(.L101-.L100)/2
 1267 0109 3A       		.byte	(.L106-.L100)/2
 1268 010a 2C       		.byte	(.L102-.L100)/2
 1269 010b 33       		.byte	(.L103-.L100)/2
 1270 010c 3A       		.byte	(.L106-.L100)/2
 1271 010d 3A       		.byte	(.L106-.L100)/2
 1272 010e 05       		.byte	(.L104-.L100)/2
 1273 010f 00       		.p2align 1
 1274              	.L104:
 1275              		.loc 1 162 0
 1276 0110 234B     		ldr	r3, .L108+32
 1277 0112 2366     		str	r3, [r4, #96]
 1278              	.LVL154:
 1279              		.loc 1 164 0
 1280 0114 4FF40066 		mov	r6, #2048
 1281              		.loc 1 163 0
 1282 0118 4FF40035 		mov	r5, #131072
 1283              	.LVL155:
 1284              	.L105:
 1285              		.loc 1 175 0
 1286 011c 2046     		mov	r0, r4
 1287 011e 4FF4A042 		mov	r2, #20480
 1288 0122 4FF00051 		mov	r1, #536870912
 1289 0126 FFF7FEFF 		bl	target_add_ram
 1290              	.LVL156:
 1291              		.loc 1 176 0
 1292 012a 3246     		mov	r2, r6
 1293 012c 2946     		mov	r1, r5
 1294 012e 2046     		mov	r0, r4
 1295 0130 FFF7FEFF 		bl	stm32f1_add_flash.constprop.2
 1296              	.LVL157:
 1297              		.loc 1 177 0
 1298 0134 2046     		mov	r0, r4
 1299 0136 1B4A     		ldr	r2, .L108+36
 1300 0138 1349     		ldr	r1, .L108+8
 1301 013a FFF7FEFF 		bl	target_add_commands
 1302              	.LVL158:
 1303              		.loc 1 178 0
 1304 013e 0120     		movs	r0, #1
 1305              		.loc 1 179 0
 1306 0140 70BD     		pop	{r4, r5, r6, pc}
 1307              	.LVL159:
 1308              	.L99:
 1309              		.loc 1 158 0
 1310 0142 194B     		ldr	r3, .L108+40
 1311 0144 2366     		str	r3, [r4, #96]
ARM GAS  /tmp/ccr16YEU.s 			page 24


 1312              	.LVL160:
 1313              		.loc 1 114 0
 1314 0146 4FF48066 		mov	r6, #1024
 1315              		.loc 1 159 0
 1316 014a 4FF48035 		mov	r5, #65536
 1317              		.loc 1 160 0
 1318 014e E5E7     		b	.L105
 1319              	.LVL161:
 1320              	.L101:
 1321              		.loc 1 167 0
 1322 0150 164B     		ldr	r3, .L108+44
 1323 0152 2366     		str	r3, [r4, #96]
 1324              	.LVL162:
 1325              		.loc 1 169 0
 1326 0154 4FF40066 		mov	r6, #2048
 1327              		.loc 1 168 0
 1328 0158 4FF48025 		mov	r5, #262144
 1329              		.loc 1 170 0
 1330 015c DEE7     		b	.L105
 1331              	.LVL163:
 1332              	.L102:
 1333              		.loc 1 150 0
 1334 015e 144B     		ldr	r3, .L108+48
 1335 0160 2366     		str	r3, [r4, #96]
 1336              	.LVL164:
 1337              		.loc 1 114 0
 1338 0162 4FF48066 		mov	r6, #1024
 1339              		.loc 1 151 0
 1340 0166 4FF40045 		mov	r5, #32768
 1341              		.loc 1 152 0
 1342 016a D7E7     		b	.L105
 1343              	.LVL165:
 1344              	.L103:
 1345              		.loc 1 154 0
 1346 016c 114B     		ldr	r3, .L108+52
 1347 016e 2366     		str	r3, [r4, #96]
 1348              	.LVL166:
 1349              		.loc 1 114 0
 1350 0170 4FF48066 		mov	r6, #1024
 1351              		.loc 1 155 0
 1352 0174 4FF40045 		mov	r5, #32768
 1353              		.loc 1 156 0
 1354 0178 D0E7     		b	.L105
 1355              	.LVL167:
 1356              	.L106:
 1357              		.loc 1 172 0
 1358 017a 0020     		movs	r0, #0
 1359              		.loc 1 179 0
 1360 017c 70BD     		pop	{r4, r5, r6, pc}
 1361              	.LVL168:
 1362              	.L109:
 1363 017e 00BF     		.align	2
 1364              	.L108:
 1365 0180 002004E0 		.word	-536600576
 1366 0184 48000000 		.word	.LC14
 1367 0188 00000000 		.word	.LANCHOR0
 1368 018c 24000000 		.word	.LC12
ARM GAS  /tmp/ccr16YEU.s 			page 25


 1369 0190 3C000000 		.word	.LC13
 1370 0194 00000000 		.word	.LC10
 1371 0198 18000000 		.word	.LC11
 1372 019c 00580140 		.word	1073829888
 1373 01a0 7C000000 		.word	.LC18
 1374 01a4 98000000 		.word	.LC20
 1375 01a8 6C000000 		.word	.LC17
 1376 01ac 88000000 		.word	.LC19
 1377 01b0 50000000 		.word	.LC15
 1378 01b4 5C000000 		.word	.LC16
 1379              		.cfi_endproc
 1380              	.LFE264:
 1381              		.size	stm32f1_probe, .-stm32f1_probe
 1382              		.global	stm32f1_cmd_list
 1383              		.section	.rodata.stm32f1_cmd_list,"a",%progbits
 1384              		.align	2
 1385              		.set	.LANCHOR0,. + 0
 1386              		.type	stm32f1_cmd_list, %object
 1387              		.size	stm32f1_cmd_list, 36
 1388              	stm32f1_cmd_list:
 1389 0000 00000000 		.word	.LC21
 1390 0004 00000000 		.word	stm32f1_cmd_erase_mass
 1391 0008 0C000000 		.word	.LC22
 1392 000c 28000000 		.word	.LC23
 1393 0010 00000000 		.word	stm32f1_cmd_option
 1394 0014 30000000 		.word	.LC24
 1395 0018 00000000 		.word	0
 1396 001c 00000000 		.word	0
 1397 0020 00000000 		.word	0
 1398              		.section	.rodata.stm32f1_cmd_option.str1.4,"aMS",%progbits,1
 1399              		.align	2
 1400              	.LC4:
 1401 0000 65726173 		.ascii	"erase\000"
 1401      6500
 1402 0006 0000     		.space	2
 1403              	.LC5:
 1404 0008 44657669 		.ascii	"Device is Read Protected\012\000"
 1404      63652069 
 1404      73205265 
 1404      61642050 
 1404      726F7465 
 1405 0022 0000     		.space	2
 1406              	.LC6:
 1407 0024 55736520 		.ascii	"Use \"monitor option erase\" to unprotect, erasing "
 1407      226D6F6E 
 1407      69746F72 
 1407      206F7074 
 1407      696F6E20 
 1408 0055 64657669 		.ascii	"device\012\000"
 1408      63650A00 
 1409 005d 000000   		.space	3
 1410              	.LC7:
 1411 0060 75736167 		.ascii	"usage: monitor option erase\012\000"
 1411      653A206D 
 1411      6F6E6974 
 1411      6F72206F 
 1411      7074696F 
ARM GAS  /tmp/ccr16YEU.s 			page 26


 1412 007d 000000   		.space	3
 1413              	.LC8:
 1414 0080 75736167 		.ascii	"usage: monitor option <addr> <value>\012\000"
 1414      653A206D 
 1414      6F6E6974 
 1414      6F72206F 
 1414      7074696F 
 1415 00a6 0000     		.space	2
 1416              	.LC9:
 1417 00a8 30782530 		.ascii	"0x%08X: 0x%04X\012\000"
 1417      38583A20 
 1417      30782530 
 1417      34580A00 
 1418              		.section	.rodata.stm32f1_flash_erase.str1.4,"aMS",%progbits,1
 1419              		.align	2
 1420              	.LC2:
 1421 0000 73746D33 		.ascii	"stm32f1 flash erase: comm error\012\000"
 1421      32663120 
 1421      666C6173 
 1421      68206572 
 1421      6173653A 
 1422 0021 000000   		.space	3
 1423              	.LC3:
 1424 0024 73746D33 		.ascii	"stm32f1 flash erase error 0x%lx\012\000"
 1424      32663120 
 1424      666C6173 
 1424      68206572 
 1424      61736520 
 1425              		.section	.rodata.stm32f1_flash_write.str1.4,"aMS",%progbits,1
 1426              		.align	2
 1427              	.LC0:
 1428 0000 73746D33 		.ascii	"stm32f1 flash write: comm error\012\000"
 1428      32663120 
 1428      666C6173 
 1428      68207772 
 1428      6974653A 
 1429 0021 000000   		.space	3
 1430              	.LC1:
 1431 0024 73746D33 		.ascii	"stm32f1 flash write error 0x%lx\012\000"
 1431      32663120 
 1431      666C6173 
 1431      68207772 
 1431      69746520 
 1432              		.section	.rodata.stm32f1_probe.str1.4,"aMS",%progbits,1
 1433              		.align	2
 1434              	.LC10:
 1435 0000 53544D33 		.ascii	"STM32F1 medium density\000"
 1435      32463120 
 1435      6D656469 
 1435      756D2064 
 1435      656E7369 
 1436 0017 00       		.space	1
 1437              	.LC11:
 1438 0018 53544D33 		.ascii	"STM32 LD/MD\000"
 1438      32204C44 
 1438      2F4D4400 
 1439              	.LC12:
ARM GAS  /tmp/ccr16YEU.s 			page 27


 1440 0024 53544D33 		.ascii	"STM32F1 high density\000"
 1440      32463120 
 1440      68696768 
 1440      2064656E 
 1440      73697479 
 1441 0039 000000   		.space	3
 1442              	.LC13:
 1443 003c 53544D33 		.ascii	"STM32 HD/CL\000"
 1443      32204844 
 1443      2F434C00 
 1444              	.LC14:
 1445 0048 53544D33 		.ascii	"STM32F3\000"
 1445      32463300 
 1446              	.LC15:
 1447 0050 53544D33 		.ascii	"STM32F03\000"
 1447      32463033 
 1447      00
 1448 0059 000000   		.space	3
 1449              	.LC16:
 1450 005c 53544D33 		.ascii	"STM32F04/F070x6\000"
 1450      32463034 
 1450      2F463037 
 1450      30783600 
 1451              	.LC17:
 1452 006c 53544D33 		.ascii	"STM32F05/F030x8\000"
 1452      32463035 
 1452      2F463033 
 1452      30783800 
 1453              	.LC18:
 1454 007c 53544D33 		.ascii	"STM32F07\000"
 1454      32463037 
 1454      00
 1455 0085 000000   		.space	3
 1456              	.LC19:
 1457 0088 53544D33 		.ascii	"STM32F09/F030xC\000"
 1457      32463039 
 1457      2F463033 
 1457      30784300 
 1458              	.LC20:
 1459 0098 53544D33 		.ascii	"STM32F0\000"
 1459      32463000 
 1460              		.section	.rodata.str1.4,"aMS",%progbits,1
 1461              		.align	2
 1462              	.LC21:
 1463 0000 65726173 		.ascii	"erase_mass\000"
 1463      655F6D61 
 1463      737300
 1464 000b 00       		.space	1
 1465              	.LC22:
 1466 000c 45726173 		.ascii	"Erase entire flash memory\000"
 1466      6520656E 
 1466      74697265 
 1466      20666C61 
 1466      7368206D 
 1467 0026 0000     		.space	2
 1468              	.LC23:
 1469 0028 6F707469 		.ascii	"option\000"
ARM GAS  /tmp/ccr16YEU.s 			page 28


 1469      6F6E00
 1470 002f 00       		.space	1
 1471              	.LC24:
 1472 0030 4D616E69 		.ascii	"Manipulate option bytes\000"
 1472      70756C61 
 1472      7465206F 
 1472      7074696F 
 1472      6E206279 
 1473              		.text
 1474              	.Letext0:
 1475              		.file 2 "/usr/arm-none-eabi/include/machine/_default_types.h"
 1476              		.file 3 "/usr/arm-none-eabi/include/sys/_stdint.h"
 1477              		.file 4 "/usr/lib/gcc/arm-none-eabi/7.3.1/include/stddef.h"
 1478              		.file 5 "/usr/arm-none-eabi/include/sys/lock.h"
 1479              		.file 6 "/usr/arm-none-eabi/include/sys/_types.h"
 1480              		.file 7 "/usr/arm-none-eabi/include/sys/reent.h"
 1481              		.file 8 "/usr/arm-none-eabi/include/stdlib.h"
 1482              		.file 9 "/usr/lib/gcc/arm-none-eabi/7.3.1/include/stdarg.h"
 1483              		.file 10 "<built-in>"
 1484              		.file 11 "/usr/arm-none-eabi/include/stdio.h"
 1485              		.file 12 "/usr/arm-none-eabi/include/sys/types.h"
 1486              		.file 13 "ChibiOS_3.0.2/os/rt/ports/ARMCMx/compilers/GCC/chtypes.h"
 1487              		.file 14 "ChibiOS_3.0.2/os/rt/include/chsystypes.h"
 1488              		.file 15 "ChibiOS_3.0.2/os/rt/include/chschd.h"
 1489              		.file 16 "ChibiOS_3.0.2/os/ext/CMSIS/include/core_cm4.h"
 1490              		.file 17 "ChibiOS_3.0.2/os/ext/CMSIS/ST/system_stm32f4xx.h"
 1491              		.file 18 "ChibiOS_3.0.2/os/ext/CMSIS/ST/stm32f407xx.h"
 1492              		.file 19 "ChibiOS_3.0.2/os/rt/ports/ARMCMx/chcore.h"
 1493              		.file 20 "ChibiOS_3.0.2/os/rt/ports/ARMCMx/chcore_v7m.h"
 1494              		.file 21 "ChibiOS_3.0.2/os/rt/include/chtm.h"
 1495              		.file 22 "ChibiOS_3.0.2/os/rt/include/chsem.h"
 1496              		.file 23 "ChibiOS_3.0.2/os/rt/include/chmtx.h"
 1497              		.file 24 "ChibiOS_3.0.2/os/rt/include/chregistry.h"
 1498              		.file 25 "ChibiOS_3.0.2/os/rt/include/chevents.h"
 1499              		.file 26 "ChibiOS_3.0.2/os/rt/include/chqueues.h"
 1500              		.file 27 "./conf_general.h"
 1501              		.file 28 "ChibiOS_3.0.2/os/hal/ports/STM32/STM32F4xx/stm32_dma.h"
 1502              		.file 29 "ChibiOS_3.0.2/os/hal/ports/STM32/LLD/GPIOv2/pal_lld.h"
 1503              		.file 30 "ChibiOS_3.0.2/os/hal/include/can.h"
 1504              		.file 31 "ChibiOS_3.0.2/os/hal/ports/STM32/LLD/can_lld.h"
 1505              		.file 32 "ChibiOS_3.0.2/os/hal/include/i2c.h"
 1506              		.file 33 "ChibiOS_3.0.2/os/hal/ports/STM32/LLD/I2Cv1/i2c_lld.h"
 1507              		.file 34 "ChibiOS_3.0.2/os/hal/include/icu.h"
 1508              		.file 35 "ChibiOS_3.0.2/os/hal/ports/STM32/LLD/TIMv1/icu_lld.h"
 1509              		.file 36 "ChibiOS_3.0.2/os/hal/ports/STM32/LLD/TIMv1/stm32_tim.h"
 1510              		.file 37 "ChibiOS_3.0.2/os/hal/include/serial.h"
 1511              		.file 38 "ChibiOS_3.0.2/os/hal/ports/STM32/LLD/USARTv1/serial_lld.h"
 1512              		.file 39 "ChibiOS_3.0.2/os/hal/include/spi.h"
 1513              		.file 40 "ChibiOS_3.0.2/os/hal/ports/STM32/LLD/SPIv1/spi_lld.h"
 1514              		.file 41 "ChibiOS_3.0.2/os/hal/include/usb.h"
 1515              		.file 42 "ChibiOS_3.0.2/os/hal/ports/STM32/LLD/OTGv1/usb_lld.h"
 1516              		.file 43 "ChibiOS_3.0.2/os/hal/ports/STM32/LLD/OTGv1/stm32_otg.h"
 1517              		.file 44 "blackmagic/platform.h"
 1518              		.file 45 "blackmagic/target.h"
 1519              		.file 46 "blackmagic/target/target_internal.h"
 1520              		.file 47 "blackmagic/target/jtag_scan.h"
 1521              		.file 48 "blackmagic/target/adiv5.h"
ARM GAS  /tmp/ccr16YEU.s 			page 29


 1522              		.file 49 "blackmagic/target/cortexm.h"
 1523              		.file 50 "/usr/arm-none-eabi/include/string.h"
 1524              		.file 51 "./commands.h"
 1525              		.file 52 "blackmagic/platform_support.h"