ARM GAS  /tmp/ccaSruDD.s 			page 1


   1              		.cpu cortex-m4
   2              		.eabi_attribute 27, 1
   3              		.eabi_attribute 28, 1
   4              		.eabi_attribute 20, 1
   5              		.eabi_attribute 21, 1
   6              		.eabi_attribute 23, 3
   7              		.eabi_attribute 24, 1
   8              		.eabi_attribute 25, 1
   9              		.eabi_attribute 26, 1
  10              		.eabi_attribute 30, 2
  11              		.eabi_attribute 34, 1
  12              		.eabi_attribute 18, 4
  13              		.file	"stm32h7.c"
  14              		.text
  15              	.Ltext0:
  16              		.cfi_sections	.debug_frame
  17              		.section	.text.stm32h7_uid,"ax",%progbits
  18              		.align	1
  19              		.p2align 4,,15
  20              		.syntax unified
  21              		.thumb
  22              		.thumb_func
  23              		.fpu fpv4-sp-d16
  24              		.type	stm32h7_uid, %function
  25              	stm32h7_uid:
  26              	.LFB272:
  27              		.file 1 "blackmagic/target/stm32h7.c"
  28              		.loc 1 426 0
  29              		.cfi_startproc
  30              		@ args = 0, pretend = 0, frame = 0
  31              		@ frame_needed = 0, uses_anonymous_args = 0
  32              	.LVL0:
  33 0000 2DE9F041 		push	{r4, r5, r6, r7, r8, lr}
  34              		.cfi_def_cfa_offset 24
  35              		.cfi_offset 4, -24
  36              		.cfi_offset 5, -20
  37              		.cfi_offset 6, -16
  38              		.cfi_offset 7, -12
  39              		.cfi_offset 8, -8
  40              		.cfi_offset 14, -4
  41              		.loc 1 429 0
  42 0004 1649     		ldr	r1, .L6
  43 0006 174F     		ldr	r7, .L6+4
  44              	.LBB13:
  45              		.loc 1 432 0
  46 0008 174E     		ldr	r6, .L6+8
  47              	.LBE13:
  48              		.loc 1 430 0
  49 000a DFF86480 		ldr	r8, .L6+16
  50              		.loc 1 426 0
  51 000e 0446     		mov	r4, r0
  52              		.loc 1 429 0
  53 0010 FFF7FEFF 		bl	tc_printf
  54              	.LVL1:
  55              	.L2:
  56              	.LBB14:
  57              		.loc 1 431 0 discriminator 3
ARM GAS  /tmp/ccaSruDD.s 			page 2


  58 0014 3946     		mov	r1, r7
  59 0016 2046     		mov	r0, r4
  60 0018 FFF7FEFF 		bl	target_mem_read32
  61              	.LVL2:
  62              		.loc 1 432 0 discriminator 3
  63 001c 3146     		mov	r1, r6
  64              		.loc 1 431 0 discriminator 3
  65 001e 0546     		mov	r5, r0
  66              	.LVL3:
  67              		.loc 1 432 0 discriminator 3
  68 0020 020E     		lsrs	r2, r0, #24
  69 0022 2046     		mov	r0, r4
  70              	.LVL4:
  71 0024 FFF7FEFF 		bl	tc_printf
  72              	.LVL5:
  73              		.loc 1 433 0 discriminator 3
  74 0028 C5F30742 		ubfx	r2, r5, #16, #8
  75 002c 3146     		mov	r1, r6
  76 002e 2046     		mov	r0, r4
  77 0030 FFF7FEFF 		bl	tc_printf
  78              	.LVL6:
  79              		.loc 1 434 0 discriminator 3
  80 0034 C5F30722 		ubfx	r2, r5, #8, #8
  81 0038 3146     		mov	r1, r6
  82 003a 2046     		mov	r0, r4
  83 003c FFF7FEFF 		bl	tc_printf
  84              	.LVL7:
  85 0040 0437     		adds	r7, r7, #4
  86              	.LVL8:
  87              		.loc 1 435 0 discriminator 3
  88 0042 EAB2     		uxtb	r2, r5
  89 0044 3146     		mov	r1, r6
  90 0046 2046     		mov	r0, r4
  91 0048 FFF7FEFF 		bl	tc_printf
  92              	.LVL9:
  93              	.LBE14:
  94              		.loc 1 430 0 discriminator 3
  95 004c 4745     		cmp	r7, r8
  96 004e E1D1     		bne	.L2
  97              		.loc 1 437 0
  98 0050 2046     		mov	r0, r4
  99 0052 0649     		ldr	r1, .L6+12
 100 0054 FFF7FEFF 		bl	tc_printf
 101              	.LVL10:
 102              		.loc 1 439 0
 103 0058 0120     		movs	r0, #1
 104 005a BDE8F081 		pop	{r4, r5, r6, r7, r8, pc}
 105              	.LVL11:
 106              	.L7:
 107 005e 00BF     		.align	2
 108              	.L6:
 109 0060 00000000 		.word	.LC0
 110 0064 00E8F11F 		.word	535947264
 111 0068 04000000 		.word	.LC1
 112 006c 0C000000 		.word	.LC2
 113 0070 0CE8F11F 		.word	535947276
 114              		.cfi_endproc
ARM GAS  /tmp/ccaSruDD.s 			page 3


 115              	.LFE272:
 116              		.size	stm32h7_uid, .-stm32h7_uid
 117              		.section	.text.stm32h7_flash_unlock,"ax",%progbits
 118              		.align	1
 119              		.p2align 4,,15
 120              		.syntax unified
 121              		.thumb
 122              		.thumb_func
 123              		.fpu fpv4-sp-d16
 124              		.type	stm32h7_flash_unlock, %function
 125              	stm32h7_flash_unlock:
 126              	.LFB267:
 127              		.loc 1 230 0
 128              		.cfi_startproc
 129              		@ args = 0, pretend = 0, frame = 0
 130              		@ frame_needed = 0, uses_anonymous_args = 0
 131              	.LVL12:
 132 0000 F8B5     		push	{r3, r4, r5, r6, r7, lr}
 133              		.cfi_def_cfa_offset 24
 134              		.cfi_offset 3, -24
 135              		.cfi_offset 4, -20
 136              		.cfi_offset 5, -16
 137              		.cfi_offset 6, -12
 138              		.cfi_offset 7, -8
 139              		.cfi_offset 14, -4
 140              		.loc 1 232 0
 141 0002 244C     		ldr	r4, .L24
 142 0004 244A     		ldr	r2, .L24+4
 143 0006 254B     		ldr	r3, .L24+8
 144 0008 254D     		ldr	r5, .L24+12
 145 000a 264F     		ldr	r7, .L24+16
 146 000c A142     		cmp	r1, r4
 147 000e 98BF     		it	ls
 148 0010 1546     		movls	r5, r2
 149              		.loc 1 230 0
 150 0012 0446     		mov	r4, r0
 151              		.loc 1 232 0
 152 0014 88BF     		it	hi
 153 0016 1F46     		movhi	r7, r3
 154 0018 02E0     		b	.L12
 155              	.LVL13:
 156              	.L13:
 157              		.loc 1 237 0
 158 001a FFF7FEFF 		bl	target_check_error
 159              	.LVL14:
 160 001e 50BB     		cbnz	r0, .L17
 161              	.L12:
 162              		.loc 1 236 0
 163 0020 2946     		mov	r1, r5
 164 0022 2046     		mov	r0, r4
 165 0024 FFF7FEFF 		bl	target_mem_read32
 166              	.LVL15:
 167 0028 10F00106 		ands	r6, r0, #1
 168              		.loc 1 237 0
 169 002c 2046     		mov	r0, r4
 170              		.loc 1 236 0
 171 002e F4D1     		bne	.L13
ARM GAS  /tmp/ccaSruDD.s 			page 4


 172              	.LVL16:
 173              		.loc 1 240 0
 174 0030 2946     		mov	r1, r5
 175 0032 FFF7FEFF 		bl	target_mem_read32
 176              	.LVL17:
 177              		.loc 1 241 0
 178 0036 1C4D     		ldr	r5, .L24+20
 179 0038 0540     		ands	r5, r0, r5
 180 003a 0FD1     		bne	.L22
 181              		.loc 1 246 0
 182 003c 07F10C05 		add	r5, r7, #12
 183 0040 2946     		mov	r1, r5
 184 0042 2046     		mov	r0, r4
 185              	.LVL18:
 186 0044 FFF7FEFF 		bl	target_mem_read32
 187              	.LVL19:
 188 0048 C307     		lsls	r3, r0, #31
 189 004a 16D4     		bmi	.L23
 190              	.L15:
 191              		.loc 1 251 0
 192 004c 2946     		mov	r1, r5
 193 004e 2046     		mov	r0, r4
 194 0050 FFF7FEFF 		bl	target_mem_read32
 195              	.LVL20:
 196 0054 C043     		mvns	r0, r0
 197 0056 00F00100 		and	r0, r0, #1
 198              		.loc 1 255 0
 199 005a F8BD     		pop	{r3, r4, r5, r6, r7, pc}
 200              	.LVL21:
 201              	.L22:
 202              		.loc 1 242 0
 203 005c 2A46     		mov	r2, r5
 204 005e 2046     		mov	r0, r4
 205              	.LVL22:
 206 0060 1249     		ldr	r1, .L24+24
 207 0062 FFF7FEFF 		bl	tc_printf
 208              	.LVL23:
 209              		.loc 1 243 0
 210 0066 2046     		mov	r0, r4
 211 0068 2A46     		mov	r2, r5
 212 006a 07F11401 		add	r1, r7, #20
 213 006e FFF7FEFF 		bl	target_mem_write32
 214              	.LVL24:
 215              		.loc 1 244 0
 216 0072 3046     		mov	r0, r6
 217              		.loc 1 255 0
 218 0074 F8BD     		pop	{r3, r4, r5, r6, r7, pc}
 219              	.LVL25:
 220              	.L17:
 221              		.loc 1 238 0
 222 0076 0020     		movs	r0, #0
 223              		.loc 1 255 0
 224 0078 F8BD     		pop	{r3, r4, r5, r6, r7, pc}
 225              	.LVL26:
 226              	.L23:
 227              		.loc 1 248 0
 228 007a 0437     		adds	r7, r7, #4
ARM GAS  /tmp/ccaSruDD.s 			page 5


 229 007c 3946     		mov	r1, r7
 230 007e 2046     		mov	r0, r4
 231 0080 0B4A     		ldr	r2, .L24+28
 232 0082 FFF7FEFF 		bl	target_mem_write32
 233              	.LVL27:
 234              		.loc 1 249 0
 235 0086 3946     		mov	r1, r7
 236 0088 0A4A     		ldr	r2, .L24+32
 237 008a 2046     		mov	r0, r4
 238 008c FFF7FEFF 		bl	target_mem_write32
 239              	.LVL28:
 240 0090 DCE7     		b	.L15
 241              	.L25:
 242 0092 00BF     		.align	2
 243              	.L24:
 244 0094 FFFF0F08 		.word	135266303
 245 0098 10200052 		.word	1375739920
 246 009c 00210052 		.word	1375740160
 247 00a0 10210052 		.word	1375740176
 248 00a4 00200052 		.word	1375739904
 249 00a8 0000EE07 		.word	133038080
 250 00ac 00000000 		.word	.LC3
 251 00b0 23016745 		.word	1164378403
 252 00b4 AB89EFCD 		.word	-839939669
 253              		.cfi_endproc
 254              	.LFE267:
 255              		.size	stm32h7_flash_unlock, .-stm32h7_flash_unlock
 256              		.section	.text.stm32h7_crc_bank,"ax",%progbits
 257              		.align	1
 258              		.p2align 4,,15
 259              		.syntax unified
 260              		.thumb
 261              		.thumb_func
 262              		.fpu fpv4-sp-d16
 263              		.type	stm32h7_crc_bank, %function
 264              	stm32h7_crc_bank:
 265              	.LFB273:
 266              		.loc 1 441 0
 267              		.cfi_startproc
 268              		@ args = 0, pretend = 0, frame = 0
 269              		@ frame_needed = 0, uses_anonymous_args = 0
 270              	.LVL29:
 271 0000 F8B5     		push	{r3, r4, r5, r6, r7, lr}
 272              		.cfi_def_cfa_offset 24
 273              		.cfi_offset 3, -24
 274              		.cfi_offset 4, -20
 275              		.cfi_offset 5, -16
 276              		.cfi_offset 6, -12
 277              		.cfi_offset 7, -8
 278              		.cfi_offset 14, -4
 279              		.loc 1 442 0
 280 0002 264E     		ldr	r6, .L43
 281 0004 264B     		ldr	r3, .L43+4
 282              		.loc 1 441 0
 283 0006 0F46     		mov	r7, r1
 284              		.loc 1 442 0
 285 0008 B1F1016F 		cmp	r1, #135266304
ARM GAS  /tmp/ccaSruDD.s 			page 6


 286 000c 18BF     		it	ne
 287 000e 1E46     		movne	r6, r3
 288              	.LVL30:
 289              		.loc 1 441 0
 290 0010 0546     		mov	r5, r0
 291              		.loc 1 446 0
 292 0012 FFF7FEFF 		bl	stm32h7_flash_unlock
 293              	.LVL31:
 294 0016 0028     		cmp	r0, #0
 295 0018 3CD0     		beq	.L35
 296              	.LVL32:
 297              		.loc 1 452 0
 298 001a 06F15004 		add	r4, r6, #80
 299              		.loc 1 449 0
 300 001e 06F10C01 		add	r1, r6, #12
 301 0022 2846     		mov	r0, r5
 302 0024 4FF40042 		mov	r2, #32768
 303 0028 FFF7FEFF 		bl	target_mem_write32
 304              	.LVL33:
 305              		.loc 1 452 0
 306 002c 2146     		mov	r1, r4
 307 002e 2846     		mov	r0, r5
 308 0030 1C4A     		ldr	r2, .L43+8
 309 0032 FFF7FEFF 		bl	target_mem_write32
 310              	.LVL34:
 311              		.loc 1 453 0
 312 0036 2146     		mov	r1, r4
 313 0038 1B4A     		ldr	r2, .L43+12
 314 003a 2846     		mov	r0, r5
 315 003c 1036     		adds	r6, r6, #16
 316              	.LVL35:
 317 003e FFF7FEFF 		bl	target_mem_write32
 318              	.LVL36:
 319              		.loc 1 455 0
 320 0042 05E0     		b	.L29
 321              	.LVL37:
 322              	.L33:
 323              		.loc 1 456 0
 324 0044 FFF7FEFF 		bl	target_check_error
 325              	.LVL38:
 326 0048 68B9     		cbnz	r0, .L41
 327              		.loc 1 460 0
 328 004a 14F0F06F 		tst	r4, #125829120
 329 004e 15D1     		bne	.L42
 330              	.LVL39:
 331              	.L29:
 332              		.loc 1 455 0
 333 0050 3146     		mov	r1, r6
 334 0052 2846     		mov	r0, r5
 335 0054 FFF7FEFF 		bl	target_mem_read32
 336              	.LVL40:
 337 0058 0446     		mov	r4, r0
 338              	.LVL41:
 339 005a 14F00803 		ands	r3, r4, #8
 340              		.loc 1 456 0
 341 005e 2846     		mov	r0, r5
 342              	.LVL42:
ARM GAS  /tmp/ccaSruDD.s 			page 7


 343              		.loc 1 455 0
 344 0060 F0D1     		bne	.L33
 345              	.LVL43:
 346              		.loc 1 466 0
 347 0062 1846     		mov	r0, r3
 348              	.LVL44:
 349              		.loc 1 467 0
 350 0064 F8BD     		pop	{r3, r4, r5, r6, r7, pc}
 351              	.LVL45:
 352              	.L41:
 353              		.loc 1 457 0
 354 0066 B7F1016F 		cmp	r7, #135266304
 355 006a 0CBF     		ite	eq
 356 006c 0221     		moveq	r1, #2
 357 006e 0121     		movne	r1, #1
 358 0070 0E48     		ldr	r0, .L43+16
 359 0072 FFF7FEFF 		bl	commands_printf
 360              	.LVL46:
 361              		.loc 1 458 0
 362 0076 4FF0FF30 		mov	r0, #-1
 363              		.loc 1 467 0
 364 007a F8BD     		pop	{r3, r4, r5, r6, r7, pc}
 365              	.LVL47:
 366              	.L42:
 367              		.loc 1 461 0
 368 007c B7F1016F 		cmp	r7, #135266304
 369 0080 2246     		mov	r2, r4
 370 0082 0CBF     		ite	eq
 371 0084 0221     		moveq	r1, #2
 372 0086 0121     		movne	r1, #1
 373 0088 0948     		ldr	r0, .L43+20
 374 008a FFF7FEFF 		bl	commands_printf
 375              	.LVL48:
 376              		.loc 1 463 0
 377 008e 4FF0FF30 		mov	r0, #-1
 378              		.loc 1 467 0
 379 0092 F8BD     		pop	{r3, r4, r5, r6, r7, pc}
 380              	.LVL49:
 381              	.L35:
 382              		.loc 1 447 0
 383 0094 4FF0FF30 		mov	r0, #-1
 384              		.loc 1 467 0
 385 0098 F8BD     		pop	{r3, r4, r5, r6, r7, pc}
 386              	.LVL50:
 387              	.L44:
 388 009a 00BF     		.align	2
 389              	.L43:
 390 009c 00210052 		.word	1375740160
 391 00a0 00200052 		.word	1375739904
 392 00a4 80003200 		.word	3276928
 393 00a8 80003300 		.word	3342464
 394 00ac 00000000 		.word	.LC4
 395 00b0 1C000000 		.word	.LC5
 396              		.cfi_endproc
 397              	.LFE273:
 398              		.size	stm32h7_crc_bank, .-stm32h7_crc_bank
 399              		.section	.text.stm32h7_flash_erase,"ax",%progbits
ARM GAS  /tmp/ccaSruDD.s 			page 8


 400              		.align	1
 401              		.p2align 4,,15
 402              		.syntax unified
 403              		.thumb
 404              		.thumb_func
 405              		.fpu fpv4-sp-d16
 406              		.type	stm32h7_flash_erase, %function
 407              	stm32h7_flash_erase:
 408              	.LFB268:
 409              		.loc 1 259 0
 410              		.cfi_startproc
 411              		@ args = 0, pretend = 0, frame = 0
 412              		@ frame_needed = 0, uses_anonymous_args = 0
 413              	.LVL51:
 414 0000 2DE9F84F 		push	{r3, r4, r5, r6, r7, r8, r9, r10, fp, lr}
 415              		.cfi_def_cfa_offset 40
 416              		.cfi_offset 3, -40
 417              		.cfi_offset 4, -36
 418              		.cfi_offset 5, -32
 419              		.cfi_offset 6, -28
 420              		.cfi_offset 7, -24
 421              		.cfi_offset 8, -20
 422              		.cfi_offset 9, -16
 423              		.cfi_offset 10, -12
 424              		.cfi_offset 11, -8
 425              		.cfi_offset 14, -4
 426              		.loc 1 260 0
 427 0004 8469     		ldr	r4, [r0, #24]
 428              	.LVL52:
 429              		.loc 1 259 0
 430 0006 8346     		mov	fp, r0
 431              	.LVL53:
 432              		.loc 1 262 0
 433 0008 2046     		mov	r0, r4
 434              	.LVL54:
 435              		.loc 1 259 0
 436 000a 1646     		mov	r6, r2
 437 000c 0F46     		mov	r7, r1
 438              		.loc 1 262 0
 439 000e FFF7FEFF 		bl	stm32h7_flash_unlock
 440              	.LVL55:
 441 0012 0028     		cmp	r0, #0
 442 0014 5DD0     		beq	.L53
 443              		.loc 1 266 0
 444 0016 C7F31307 		ubfx	r7, r7, #0, #20
 445              	.LVL56:
 446              		.loc 1 268 0
 447 001a 013E     		subs	r6, r6, #1
 448              	.LVL57:
 449 001c 3E44     		add	r6, r6, r7
 450              	.LVL58:
 451              		.loc 1 265 0
 452 001e 0022     		movs	r2, #0
 453 0020 DBF83410 		ldr	r1, [fp, #52]
 454 0024 2046     		mov	r0, r4
 455              		.loc 1 268 0
 456 0026 760C     		lsrs	r6, r6, #17
ARM GAS  /tmp/ccaSruDD.s 			page 9


 457              		.loc 1 267 0
 458 0028 7F0C     		lsrs	r7, r7, #17
 459              		.loc 1 265 0
 460 002a FFF7FEFF 		bl	target_mem_write32
 461              	.LVL59:
 462              		.loc 1 272 0
 463 002e B742     		cmp	r7, r6
 464              		.loc 1 270 0
 465 0030 9BF83080 		ldrb	r8, [fp, #48]	@ zero_extendqisi2
 466              	.LVL60:
 467              		.loc 1 272 0
 468 0034 4BDC     		bgt	.L52
 469              	.LBB15:
 470              		.loc 1 273 0
 471 0036 4FEA0818 		lsl	r8, r8, #4
 472              	.LVL61:
 473              		.loc 1 278 0
 474 003a DFF8B8A0 		ldr	r10, .L59+12
 475              		.loc 1 273 0
 476 003e 48F00408 		orr	r8, r8, #4
 477 0042 4FF00009 		mov	r9, #0
 478 0046 3D46     		mov	r5, r7
 479              	.LVL62:
 480              	.L51:
 481              		.loc 1 275 0
 482 0048 DBF83410 		ldr	r1, [fp, #52]
 483              		.loc 1 273 0
 484 004c 48EA0525 		orr	r5, r8, r5, lsl #8
 485              	.LVL63:
 486              		.loc 1 275 0
 487 0050 2A46     		mov	r2, r5
 488 0052 2046     		mov	r0, r4
 489 0054 0C31     		adds	r1, r1, #12
 490 0056 FFF7FEFF 		bl	target_mem_write32
 491              	.LVL64:
 492              		.loc 1 277 0
 493 005a DBF83410 		ldr	r1, [fp, #52]
 494 005e 45F08002 		orr	r2, r5, #128
 495              	.LVL65:
 496 0062 2046     		mov	r0, r4
 497 0064 0C31     		adds	r1, r1, #12
 498 0066 FFF7FEFF 		bl	target_mem_write32
 499              	.LVL66:
 500              		.loc 1 278 0
 501 006a DBF83410 		ldr	r1, [fp, #52]
 502 006e 2046     		mov	r0, r4
 503 0070 0C31     		adds	r1, r1, #12
 504 0072 FFF7FEFF 		bl	target_mem_read32
 505              	.LVL67:
 506 0076 DBF83410 		ldr	r1, [fp, #52]
 507 007a 0546     		mov	r5, r0
 508              	.LVL68:
 509 007c 1031     		adds	r1, r1, #16
 510 007e 2046     		mov	r0, r4
 511 0080 FFF7FEFF 		bl	target_mem_read32
 512              	.LVL69:
 513 0084 2946     		mov	r1, r5
ARM GAS  /tmp/ccaSruDD.s 			page 10


 514 0086 0246     		mov	r2, r0
 515 0088 5046     		mov	r0, r10
 516 008a FFF7FEFF 		bl	commands_printf
 517              	.LVL70:
 518 008e 02E0     		b	.L49
 519              	.LVL71:
 520              	.L48:
 521              		.loc 1 288 0
 522 0090 15F0050F 		tst	r5, #5
 523 0094 12D0     		beq	.L57
 524              	.LVL72:
 525              	.L49:
 526              		.loc 1 282 0
 527 0096 DBF83410 		ldr	r1, [fp, #52]
 528 009a 2046     		mov	r0, r4
 529 009c 1031     		adds	r1, r1, #16
 530 009e FFF7FEFF 		bl	target_mem_read32
 531              	.LVL73:
 532 00a2 0546     		mov	r5, r0
 533              	.LVL74:
 534              		.loc 1 283 0
 535 00a4 2046     		mov	r0, r4
 536              	.LVL75:
 537 00a6 FFF7FEFF 		bl	target_check_error
 538              	.LVL76:
 539 00aa 0028     		cmp	r0, #0
 540 00ac F0D0     		beq	.L48
 541              		.loc 1 284 0
 542 00ae 0E48     		ldr	r0, .L59
 543 00b0 FFF7FEFF 		bl	commands_printf
 544              	.LVL77:
 545              		.loc 1 285 0
 546 00b4 4FF0FF30 		mov	r0, #-1
 547              	.LVL78:
 548              	.L45:
 549              	.LBE15:
 550              		.loc 1 296 0
 551 00b8 BDE8F88F 		pop	{r3, r4, r5, r6, r7, r8, r9, r10, fp, pc}
 552              	.LVL79:
 553              	.L57:
 554              	.LBB16:
 555              		.loc 1 289 0
 556 00bc 0B4B     		ldr	r3, .L59+4
 557 00be 1D42     		tst	r5, r3
 558 00c0 0AD1     		bne	.L58
 559              	.LVL80:
 560 00c2 09F10109 		add	r9, r9, #1
 561              	.LVL81:
 562              	.LBE16:
 563              		.loc 1 272 0
 564 00c6 07EB0905 		add	r5, r7, r9
 565              	.LVL82:
 566 00ca B542     		cmp	r5, r6
 567 00cc BCDD     		ble	.L51
 568              	.LVL83:
 569              	.L52:
 570              		.loc 1 295 0
ARM GAS  /tmp/ccaSruDD.s 			page 11


 571 00ce 0020     		movs	r0, #0
 572 00d0 F2E7     		b	.L45
 573              	.LVL84:
 574              	.L53:
 575              		.loc 1 263 0
 576 00d2 4FF0FF30 		mov	r0, #-1
 577 00d6 EFE7     		b	.L45
 578              	.LVL85:
 579              	.L58:
 580              	.LBB17:
 581              		.loc 1 290 0
 582 00d8 0548     		ldr	r0, .L59+8
 583 00da 2946     		mov	r1, r5
 584 00dc FFF7FEFF 		bl	commands_printf
 585              	.LVL86:
 586              		.loc 1 291 0
 587 00e0 4FF0FF30 		mov	r0, #-1
 588 00e4 E8E7     		b	.L45
 589              	.L60:
 590 00e6 00BF     		.align	2
 591              	.L59:
 592 00e8 1C000000 		.word	.LC7
 593 00ec 0000EE07 		.word	133038080
 594 00f0 40000000 		.word	.LC8
 595 00f4 00000000 		.word	.LC6
 596              	.LBE17:
 597              		.cfi_endproc
 598              	.LFE268:
 599              		.size	stm32h7_flash_erase, .-stm32h7_flash_erase
 600              		.section	.text.stm32h7_flash_write,"ax",%progbits
 601              		.align	1
 602              		.p2align 4,,15
 603              		.syntax unified
 604              		.thumb
 605              		.thumb_func
 606              		.fpu fpv4-sp-d16
 607              		.type	stm32h7_flash_write, %function
 608              	stm32h7_flash_write:
 609              	.LFB269:
 610              		.loc 1 300 0
 611              		.cfi_startproc
 612              		@ args = 0, pretend = 0, frame = 0
 613              		@ frame_needed = 0, uses_anonymous_args = 0
 614              	.LVL87:
 615 0000 2DE9F843 		push	{r3, r4, r5, r6, r7, r8, r9, lr}
 616              		.cfi_def_cfa_offset 32
 617              		.cfi_offset 3, -32
 618              		.cfi_offset 4, -28
 619              		.cfi_offset 5, -24
 620              		.cfi_offset 6, -20
 621              		.cfi_offset 7, -16
 622              		.cfi_offset 8, -12
 623              		.cfi_offset 9, -8
 624              		.cfi_offset 14, -4
 625              		.loc 1 301 0
 626 0004 8469     		ldr	r4, [r0, #24]
 627              	.LVL88:
ARM GAS  /tmp/ccaSruDD.s 			page 12


 628              		.loc 1 303 0
 629 0006 90F83050 		ldrb	r5, [r0, #48]	@ zero_extendqisi2
 630              	.LVL89:
 631              		.loc 1 300 0
 632 000a 0646     		mov	r6, r0
 633              		.loc 1 304 0
 634 000c 2046     		mov	r0, r4
 635              	.LVL90:
 636              		.loc 1 300 0
 637 000e 9046     		mov	r8, r2
 638 0010 9946     		mov	r9, r3
 639 0012 0F46     		mov	r7, r1
 640              		.loc 1 304 0
 641 0014 FFF7FEFF 		bl	stm32h7_flash_unlock
 642              	.LVL91:
 643 0018 98B3     		cbz	r0, .L66
 644              		.loc 1 307 0
 645 001a 716B     		ldr	r1, [r6, #52]
 646              		.loc 1 306 0
 647 001c 2D01     		lsls	r5, r5, #4
 648              	.LVL92:
 649              		.loc 1 307 0
 650 001e 2A46     		mov	r2, r5
 651 0020 2046     		mov	r0, r4
 652 0022 0C31     		adds	r1, r1, #12
 653 0024 FFF7FEFF 		bl	target_mem_write32
 654              	.LVL93:
 655              		.loc 1 309 0
 656 0028 716B     		ldr	r1, [r6, #52]
 657 002a 45F00202 		orr	r2, r5, #2
 658              	.LVL94:
 659 002e 2046     		mov	r0, r4
 660 0030 0C31     		adds	r1, r1, #12
 661 0032 FFF7FEFF 		bl	target_mem_write32
 662              	.LVL95:
 663              		.loc 1 311 0
 664 0036 756B     		ldr	r5, [r6, #52]
 665              	.LVL96:
 666              		.loc 1 313 0
 667 0038 4B46     		mov	r3, r9
 668 003a 4246     		mov	r2, r8
 669 003c 3946     		mov	r1, r7
 670 003e 2046     		mov	r0, r4
 671              		.loc 1 311 0
 672 0040 1035     		adds	r5, r5, #16
 673              	.LVL97:
 674              		.loc 1 313 0
 675 0042 FFF7FEFF 		bl	target_mem_write
 676              	.LVL98:
 677              		.loc 1 314 0
 678 0046 02E0     		b	.L63
 679              	.LVL99:
 680              	.L64:
 681              		.loc 1 315 0
 682 0048 FFF7FEFF 		bl	target_check_error
 683              	.LVL100:
 684 004c 90B9     		cbnz	r0, .L70
ARM GAS  /tmp/ccaSruDD.s 			page 13


 685              	.L63:
 686              		.loc 1 314 0
 687 004e 2946     		mov	r1, r5
 688 0050 2046     		mov	r0, r4
 689 0052 FFF7FEFF 		bl	target_mem_read32
 690              	.LVL101:
 691 0056 0146     		mov	r1, r0
 692              	.LVL102:
 693 0058 CB07     		lsls	r3, r1, #31
 694              		.loc 1 315 0
 695 005a 2046     		mov	r0, r4
 696              	.LVL103:
 697              		.loc 1 314 0
 698 005c F4D4     		bmi	.L64
 699              	.LVL104:
 700              		.loc 1 320 0
 701 005e 0D4D     		ldr	r5, .L72
 702              	.LVL105:
 703 0060 0D40     		ands	r5, r1, r5
 704 0062 11D1     		bne	.L71
 705              		.loc 1 325 0
 706 0064 716B     		ldr	r1, [r6, #52]
 707              	.LVL106:
 708 0066 2A46     		mov	r2, r5
 709 0068 0C31     		adds	r1, r1, #12
 710 006a FFF7FEFF 		bl	target_mem_write32
 711              	.LVL107:
 712              		.loc 1 326 0
 713 006e 2846     		mov	r0, r5
 714              	.L61:
 715              		.loc 1 327 0
 716 0070 BDE8F883 		pop	{r3, r4, r5, r6, r7, r8, r9, pc}
 717              	.LVL108:
 718              	.L70:
 719              		.loc 1 316 0
 720 0074 0848     		ldr	r0, .L72+4
 721 0076 FFF7FEFF 		bl	commands_printf
 722              	.LVL109:
 723              		.loc 1 317 0
 724 007a 4FF0FF30 		mov	r0, #-1
 725              		.loc 1 327 0
 726 007e BDE8F883 		pop	{r3, r4, r5, r6, r7, r8, r9, pc}
 727              	.LVL110:
 728              	.L66:
 729              		.loc 1 305 0
 730 0082 4FF0FF30 		mov	r0, #-1
 731 0086 F3E7     		b	.L61
 732              	.LVL111:
 733              	.L71:
 734              		.loc 1 321 0
 735 0088 0448     		ldr	r0, .L72+8
 736              	.LVL112:
 737 008a FFF7FEFF 		bl	commands_printf
 738              	.LVL113:
 739              		.loc 1 322 0
 740 008e 4FF0FF30 		mov	r0, #-1
 741 0092 EDE7     		b	.L61
ARM GAS  /tmp/ccaSruDD.s 			page 14


 742              	.L73:
 743              		.align	2
 744              	.L72:
 745 0094 0000EE07 		.word	133038080
 746 0098 00000000 		.word	.LC9
 747 009c 28000000 		.word	.LC10
 748              		.cfi_endproc
 749              	.LFE269:
 750              		.size	stm32h7_flash_write, .-stm32h7_flash_write
 751              		.section	.text.stm32h7_detach,"ax",%progbits
 752              		.align	1
 753              		.p2align 4,,15
 754              		.syntax unified
 755              		.thumb
 756              		.thumb_func
 757              		.fpu fpv4-sp-d16
 758              		.type	stm32h7_detach, %function
 759              	stm32h7_detach:
 760              	.LFB265:
 761              		.loc 1 202 0
 762              		.cfi_startproc
 763              		@ args = 0, pretend = 0, frame = 0
 764              		@ frame_needed = 0, uses_anonymous_args = 0
 765              	.LVL114:
 766 0000 10B5     		push	{r4, lr}
 767              		.cfi_def_cfa_offset 8
 768              		.cfi_offset 4, -8
 769              		.cfi_offset 14, -4
 770              		.loc 1 203 0
 771 0002 426D     		ldr	r2, [r0, #84]
 772 0004 0449     		ldr	r1, .L76
 773              		.loc 1 202 0
 774 0006 0446     		mov	r4, r0
 775              		.loc 1 203 0
 776 0008 FFF7FEFF 		bl	target_mem_write32
 777              	.LVL115:
 778              		.loc 1 204 0
 779 000c 2046     		mov	r0, r4
 780              		.loc 1 205 0
 781 000e BDE81040 		pop	{r4, lr}
 782              		.cfi_restore 14
 783              		.cfi_restore 4
 784              		.cfi_def_cfa_offset 0
 785              	.LVL116:
 786              		.loc 1 204 0
 787 0012 FFF7FEBF 		b	cortexm_detach
 788              	.LVL117:
 789              	.L77:
 790 0016 00BF     		.align	2
 791              	.L76:
 792 0018 0410005C 		.word	1543507972
 793              		.cfi_endproc
 794              	.LFE265:
 795              		.size	stm32h7_detach, .-stm32h7_detach
 796              		.section	.text.stm32h7_crc,"ax",%progbits
 797              		.align	1
 798              		.p2align 4,,15
ARM GAS  /tmp/ccaSruDD.s 			page 15


 799              		.syntax unified
 800              		.thumb
 801              		.thumb_func
 802              		.fpu fpv4-sp-d16
 803              		.type	stm32h7_crc, %function
 804              	stm32h7_crc:
 805              	.LFB274:
 806              		.loc 1 470 0
 807              		.cfi_startproc
 808              		@ args = 0, pretend = 0, frame = 0
 809              		@ frame_needed = 0, uses_anonymous_args = 0
 810              	.LVL118:
 811 0000 38B5     		push	{r3, r4, r5, lr}
 812              		.cfi_def_cfa_offset 16
 813              		.cfi_offset 3, -16
 814              		.cfi_offset 4, -12
 815              		.cfi_offset 5, -8
 816              		.cfi_offset 14, -4
 817              		.loc 1 471 0
 818 0002 4FF00061 		mov	r1, #134217728
 819              		.loc 1 470 0
 820 0006 0446     		mov	r4, r0
 821              		.loc 1 471 0
 822 0008 FFF7FEFF 		bl	stm32h7_crc_bank
 823              	.LVL119:
 824 000c 08B1     		cbz	r0, .L79
 825              	.L81:
 826 000e 0020     		movs	r0, #0
 827              		.loc 1 477 0
 828 0010 38BD     		pop	{r3, r4, r5, pc}
 829              	.LVL120:
 830              	.L79:
 831              	.LBB20:
 832              	.LBB21:
 833              		.loc 1 472 0
 834 0012 0C49     		ldr	r1, .L83
 835 0014 2046     		mov	r0, r4
 836 0016 FFF7FEFF 		bl	target_mem_read32
 837              	.LVL121:
 838              		.loc 1 473 0
 839 001a 4FF00161 		mov	r1, #135266304
 840              		.loc 1 472 0
 841 001e 0546     		mov	r5, r0
 842              	.LVL122:
 843              		.loc 1 473 0
 844 0020 2046     		mov	r0, r4
 845              	.LVL123:
 846 0022 FFF7FEFF 		bl	stm32h7_crc_bank
 847              	.LVL124:
 848 0026 0028     		cmp	r0, #0
 849 0028 F1D1     		bne	.L81
 850              		.loc 1 474 0
 851 002a 0649     		ldr	r1, .L83
 852 002c 2046     		mov	r0, r4
 853 002e FFF7FEFF 		bl	target_mem_read32
 854              	.LVL125:
 855              		.loc 1 475 0
ARM GAS  /tmp/ccaSruDD.s 			page 16


 856 0032 2A46     		mov	r2, r5
 857 0034 0346     		mov	r3, r0
 858 0036 0449     		ldr	r1, .L83+4
 859 0038 2046     		mov	r0, r4
 860              	.LVL126:
 861 003a FFF7FEFF 		bl	tc_printf
 862              	.LVL127:
 863              		.loc 1 476 0
 864 003e 0120     		movs	r0, #1
 865              	.LBE21:
 866              	.LBE20:
 867              		.loc 1 477 0
 868 0040 38BD     		pop	{r3, r4, r5, pc}
 869              	.LVL128:
 870              	.L84:
 871 0042 00BF     		.align	2
 872              	.L83:
 873 0044 5C200052 		.word	1375739996
 874 0048 00000000 		.word	.LC11
 875              		.cfi_endproc
 876              	.LFE274:
 877              		.size	stm32h7_crc, .-stm32h7_crc
 878              		.section	.text.stm32h7_cmd_psize,"ax",%progbits
 879              		.align	1
 880              		.p2align 4,,15
 881              		.syntax unified
 882              		.thumb
 883              		.thumb_func
 884              		.fpu fpv4-sp-d16
 885              		.type	stm32h7_cmd_psize, %function
 886              	stm32h7_cmd_psize:
 887              	.LFB275:
 888              		.loc 1 479 0
 889              		.cfi_startproc
 890              		@ args = 0, pretend = 0, frame = 0
 891              		@ frame_needed = 0, uses_anonymous_args = 0
 892              	.LVL129:
 893              		.loc 1 480 0
 894 0000 0129     		cmp	r1, #1
 895              		.loc 1 479 0
 896 0002 38B5     		push	{r3, r4, r5, lr}
 897              		.cfi_def_cfa_offset 16
 898              		.cfi_offset 3, -16
 899              		.cfi_offset 4, -12
 900              		.cfi_offset 5, -8
 901              		.cfi_offset 14, -4
 902              		.loc 1 479 0
 903 0004 0446     		mov	r4, r0
 904              		.loc 1 480 0
 905 0006 23D0     		beq	.L109
 906              	.LVL130:
 907              	.LBB30:
 908              	.LBB31:
 909              	.LBB32:
 910              		.loc 1 493 0
 911 0008 5568     		ldr	r5, [r2, #4]
 912 000a 2649     		ldr	r1, .L112
ARM GAS  /tmp/ccaSruDD.s 			page 17


 913              	.LVL131:
 914 000c 2846     		mov	r0, r5
 915              	.LVL132:
 916 000e FFF7FEFF 		bl	strcmp
 917              	.LVL133:
 918 0012 60B9     		cbnz	r0, .L110
 919              	.L91:
 920              	.LVL134:
 921              	.LBB33:
 922              		.loc 1 505 0
 923 0014 E36D     		ldr	r3, [r4, #92]
 924              	.LVL135:
 925 0016 43B1     		cbz	r3, .L92
 926 0018 2349     		ldr	r1, .L112+4
 927              	.L94:
 928              		.loc 1 506 0
 929 001a 1A69     		ldr	r2, [r3, #16]
 930 001c 8A42     		cmp	r2, r1
 931              		.loc 1 507 0
 932 001e 08BF     		it	eq
 933 0020 83F83000 		strbeq	r0, [r3, #48]
 934              		.loc 1 505 0
 935 0024 5B6A     		ldr	r3, [r3, #36]
 936              	.LVL136:
 937 0026 002B     		cmp	r3, #0
 938 0028 F7D1     		bne	.L94
 939              	.L92:
 940              	.LBE33:
 941              	.LBE32:
 942              		.loc 1 511 0
 943 002a 0120     		movs	r0, #1
 944              	.LVL137:
 945              	.LBE31:
 946              	.LBE30:
 947              		.loc 1 512 0
 948 002c 38BD     		pop	{r3, r4, r5, pc}
 949              	.LVL138:
 950              	.L110:
 951              	.LBB40:
 952              	.LBB37:
 953              	.LBB34:
 954              		.loc 1 495 0
 955 002e 1F49     		ldr	r1, .L112+8
 956 0030 2846     		mov	r0, r5
 957 0032 FFF7FEFF 		bl	strcmp
 958              	.LVL139:
 959 0036 38B3     		cbz	r0, .L100
 960              		.loc 1 497 0
 961 0038 1D49     		ldr	r1, .L112+12
 962 003a 2846     		mov	r0, r5
 963 003c FFF7FEFF 		bl	strcmp
 964              	.LVL140:
 965 0040 40B3     		cbz	r0, .L101
 966              		.loc 1 499 0
 967 0042 2846     		mov	r0, r5
 968 0044 1B49     		ldr	r1, .L112+16
 969 0046 FFF7FEFF 		bl	strcmp
ARM GAS  /tmp/ccaSruDD.s 			page 18


 970              	.LVL141:
 971 004a 28BB     		cbnz	r0, .L111
 972              		.loc 1 500 0
 973 004c 0320     		movs	r0, #3
 974 004e E1E7     		b	.L91
 975              	.LVL142:
 976              	.L109:
 977              	.LBE34:
 978              	.LBE37:
 979              	.LBE40:
 980              	.LBB41:
 981              	.LBB42:
 982              		.loc 1 482 0
 983 0050 C36D     		ldr	r3, [r0, #92]
 984              	.LVL143:
 985 0052 EBB1     		cbz	r3, .L96
 986 0054 1449     		ldr	r1, .L112+4
 987              	.LVL144:
 988              	.LBE42:
 989              		.loc 1 481 0
 990 0056 0322     		movs	r2, #3
 991              	.LVL145:
 992              	.L89:
 993              	.LBB43:
 994              		.loc 1 483 0
 995 0058 1869     		ldr	r0, [r3, #16]
 996 005a 8842     		cmp	r0, r1
 997              		.loc 1 484 0
 998 005c 08BF     		it	eq
 999 005e 93F83020 		ldrbeq	r2, [r3, #48]	@ zero_extendqisi2
 1000              	.LVL146:
 1001              		.loc 1 482 0
 1002 0062 5B6A     		ldr	r3, [r3, #36]
 1003              	.LVL147:
 1004 0064 002B     		cmp	r3, #0
 1005 0066 F7D1     		bne	.L89
 1006              	.LBE43:
 1007              		.loc 1 487 0
 1008 0068 032A     		cmp	r2, #3
 1009 006a 11D0     		beq	.L96
 1010              		.loc 1 489 0
 1011 006c 022A     		cmp	r2, #2
 1012 006e 0DD0     		beq	.L97
 1013              		.loc 1 490 0
 1014 0070 0E4B     		ldr	r3, .L112+8
 1015              	.LVL148:
 1016 0072 0C49     		ldr	r1, .L112
 1017 0074 012A     		cmp	r2, #1
 1018 0076 0CBF     		ite	eq
 1019 0078 1A46     		moveq	r2, r3
 1020 007a 0A46     		movne	r2, r1
 1021              	.L87:
 1022              		.loc 1 487 0 discriminator 3
 1023 007c 2046     		mov	r0, r4
 1024 007e 0E49     		ldr	r1, .L112+20
 1025 0080 FFF7FEFF 		bl	tc_printf
 1026              	.LVL149:
ARM GAS  /tmp/ccaSruDD.s 			page 19


 1027              	.LBE41:
 1028              		.loc 1 511 0 discriminator 3
 1029 0084 0120     		movs	r0, #1
 1030              		.loc 1 512 0 discriminator 3
 1031 0086 38BD     		pop	{r3, r4, r5, pc}
 1032              	.LVL150:
 1033              	.L100:
 1034              	.LBB44:
 1035              	.LBB38:
 1036              	.LBB35:
 1037              		.loc 1 496 0
 1038 0088 0120     		movs	r0, #1
 1039 008a C3E7     		b	.L91
 1040              	.LVL151:
 1041              	.L97:
 1042              	.LBE35:
 1043              	.LBE38:
 1044              	.LBE44:
 1045              	.LBB45:
 1046              		.loc 1 489 0
 1047 008c 084A     		ldr	r2, .L112+12
 1048 008e F5E7     		b	.L87
 1049              	.L96:
 1050              		.loc 1 487 0
 1051 0090 084A     		ldr	r2, .L112+16
 1052 0092 F3E7     		b	.L87
 1053              	.LVL152:
 1054              	.L101:
 1055              	.LBE45:
 1056              	.LBB46:
 1057              	.LBB39:
 1058              	.LBB36:
 1059              		.loc 1 498 0
 1060 0094 0220     		movs	r0, #2
 1061 0096 BDE7     		b	.L91
 1062              	.L111:
 1063              		.loc 1 502 0
 1064 0098 2046     		mov	r0, r4
 1065 009a 0849     		ldr	r1, .L112+24
 1066 009c FFF7FEFF 		bl	tc_printf
 1067              	.LVL153:
 1068              		.loc 1 503 0
 1069 00a0 0020     		movs	r0, #0
 1070              	.LBE36:
 1071              	.LBE39:
 1072              	.LBE46:
 1073              		.loc 1 512 0
 1074 00a2 38BD     		pop	{r3, r4, r5, pc}
 1075              	.LVL154:
 1076              	.L113:
 1077              		.align	2
 1078              	.L112:
 1079 00a4 08000000 		.word	.LC14
 1080 00a8 00000000 		.word	stm32h7_flash_write
 1081 00ac 0C000000 		.word	.LC15
 1082 00b0 00000000 		.word	.LC12
 1083 00b4 04000000 		.word	.LC13
ARM GAS  /tmp/ccaSruDD.s 			page 20


 1084 00b8 10000000 		.word	.LC16
 1085 00bc 30000000 		.word	.LC17
 1086              		.cfi_endproc
 1087              	.LFE275:
 1088              		.size	stm32h7_cmd_psize, .-stm32h7_cmd_psize
 1089              		.section	.text.stm32h7_cmd_erase_mass,"ax",%progbits
 1090              		.align	1
 1091              		.p2align 4,,15
 1092              		.syntax unified
 1093              		.thumb
 1094              		.thumb_func
 1095              		.fpu fpv4-sp-d16
 1096              		.type	stm32h7_cmd_erase_mass, %function
 1097              	stm32h7_cmd_erase_mass:
 1098              	.LFB271:
 1099              		.loc 1 417 0
 1100              		.cfi_startproc
 1101              		@ args = 0, pretend = 0, frame = 0
 1102              		@ frame_needed = 0, uses_anonymous_args = 0
 1103              	.LVL155:
 1104 0000 2DE9F041 		push	{r4, r5, r6, r7, r8, lr}
 1105              		.cfi_def_cfa_offset 24
 1106              		.cfi_offset 4, -24
 1107              		.cfi_offset 5, -20
 1108              		.cfi_offset 6, -16
 1109              		.cfi_offset 7, -12
 1110              		.cfi_offset 8, -8
 1111              		.cfi_offset 14, -4
 1112              		.loc 1 417 0
 1113 0004 0446     		mov	r4, r0
 1114              		.loc 1 418 0
 1115 0006 4D49     		ldr	r1, .L139
 1116 0008 FFF7FEFF 		bl	tc_printf
 1117              	.LVL156:
 1118              	.LBB56:
 1119              	.LBB57:
 1120              	.LBB58:
 1121              		.loc 1 338 0
 1122 000c E36D     		ldr	r3, [r4, #92]
 1123              	.LVL157:
 1124 000e 002B     		cmp	r3, #0
 1125 0010 00F08180 		beq	.L128
 1126 0014 4A48     		ldr	r0, .L139+4
 1127              	.LBE58:
 1128              		.loc 1 337 0
 1129 0016 0322     		movs	r2, #3
 1130              	.LVL158:
 1131              	.L117:
 1132              	.LBB59:
 1133              		.loc 1 339 0
 1134 0018 1969     		ldr	r1, [r3, #16]
 1135 001a 8142     		cmp	r1, r0
 1136              		.loc 1 340 0
 1137 001c 08BF     		it	eq
 1138 001e 93F83020 		ldrbeq	r2, [r3, #48]	@ zero_extendqisi2
 1139              	.LVL159:
 1140              		.loc 1 338 0
ARM GAS  /tmp/ccaSruDD.s 			page 21


 1141 0022 5B6A     		ldr	r3, [r3, #36]
 1142              	.LVL160:
 1143 0024 002B     		cmp	r3, #0
 1144 0026 F7D1     		bne	.L117
 1145 0028 1201     		lsls	r2, r2, #4
 1146 002a 42F08805 		orr	r5, r2, #136
 1147              	.L115:
 1148              	.LVL161:
 1149              	.LBE59:
 1150              	.LBB60:
 1151              		.loc 1 346 0
 1152 002e 4FF00061 		mov	r1, #134217728
 1153 0032 2046     		mov	r0, r4
 1154 0034 FFF7FEFF 		bl	stm32h7_flash_unlock
 1155              	.LVL162:
 1156 0038 0646     		mov	r6, r0
 1157 003a 0028     		cmp	r0, #0
 1158 003c 61D0     		beq	.L134
 1159              	.LVL163:
 1160              		.loc 1 352 0
 1161 003e 2A46     		mov	r2, r5
 1162 0040 4049     		ldr	r1, .L139+8
 1163 0042 2046     		mov	r0, r4
 1164 0044 FFF7FEFF 		bl	target_mem_write32
 1165              	.LVL164:
 1166              		.loc 1 353 0
 1167 0048 3F48     		ldr	r0, .L139+12
 1168 004a FFF7FEFF 		bl	commands_printf
 1169              	.LVL165:
 1170              	.LBE60:
 1171              	.LBB61:
 1172              		.loc 1 356 0
 1173 004e 4FF00161 		mov	r1, #135266304
 1174 0052 2046     		mov	r0, r4
 1175 0054 FFF7FEFF 		bl	stm32h7_flash_unlock
 1176              	.LVL166:
 1177 0058 0646     		mov	r6, r0
 1178 005a 0028     		cmp	r0, #0
 1179 005c 3CD0     		beq	.L135
 1180              	.LVL167:
 1181              		.loc 1 362 0
 1182 005e 2A46     		mov	r2, r5
 1183 0060 2046     		mov	r0, r4
 1184 0062 3A49     		ldr	r1, .L139+16
 1185              	.LBE61:
 1186              	.LBB62:
 1187              		.loc 1 369 0
 1188 0064 3A4D     		ldr	r5, .L139+20
 1189              	.LBE62:
 1190              	.LBB63:
 1191              		.loc 1 362 0
 1192 0066 FFF7FEFF 		bl	target_mem_write32
 1193              	.LVL168:
 1194              		.loc 1 363 0
 1195 006a 3A48     		ldr	r0, .L139+24
 1196 006c FFF7FEFF 		bl	commands_printf
 1197              	.LVL169:
ARM GAS  /tmp/ccaSruDD.s 			page 22


 1198 0070 06E0     		b	.L121
 1199              	.LVL170:
 1200              	.L123:
 1201              	.LBE63:
 1202              	.LBB64:
 1203              		.loc 1 372 0
 1204 0072 FFF7FEFF 		bl	target_check_error
 1205              	.LVL171:
 1206 0076 0028     		cmp	r0, #0
 1207 0078 38D1     		bne	.L136
 1208              		.loc 1 376 0
 1209 007a 0120     		movs	r0, #1
 1210 007c FFF7FEFF 		bl	platform_delay
 1211              	.LVL172:
 1212              	.L121:
 1213              		.loc 1 369 0
 1214 0080 2946     		mov	r1, r5
 1215 0082 2046     		mov	r0, r4
 1216 0084 FFF7FEFF 		bl	target_mem_read32
 1217              	.LVL173:
 1218 0088 10F0040F 		tst	r0, #4
 1219              		.loc 1 372 0
 1220 008c 2046     		mov	r0, r4
 1221              		.loc 1 369 0
 1222 008e F0D1     		bne	.L123
 1223              	.LVL174:
 1224              	.LBE64:
 1225              	.LBB65:
 1226              		.loc 1 381 0
 1227 0090 314D     		ldr	r5, .L139+28
 1228 0092 06E0     		b	.L124
 1229              	.L126:
 1230              		.loc 1 384 0
 1231 0094 FFF7FEFF 		bl	target_check_error
 1232              	.LVL175:
 1233 0098 0028     		cmp	r0, #0
 1234 009a 3ED1     		bne	.L137
 1235              		.loc 1 388 0
 1236 009c 0120     		movs	r0, #1
 1237 009e FFF7FEFF 		bl	platform_delay
 1238              	.LVL176:
 1239              	.L124:
 1240              		.loc 1 381 0
 1241 00a2 2946     		mov	r1, r5
 1242 00a4 2046     		mov	r0, r4
 1243 00a6 FFF7FEFF 		bl	target_mem_read32
 1244              	.LVL177:
 1245 00aa 10F00407 		ands	r7, r0, #4
 1246              		.loc 1 384 0
 1247 00ae 2046     		mov	r0, r4
 1248              		.loc 1 381 0
 1249 00b0 F0D1     		bne	.L126
 1250              	.LVL178:
 1251              	.LBE65:
 1252              	.LBB66:
 1253              		.loc 1 395 0
 1254 00b2 2749     		ldr	r1, .L139+20
ARM GAS  /tmp/ccaSruDD.s 			page 23


 1255              		.loc 1 396 0
 1256 00b4 294D     		ldr	r5, .L139+32
 1257              		.loc 1 395 0
 1258 00b6 FFF7FEFF 		bl	target_mem_read32
 1259              	.LVL179:
 1260              		.loc 1 396 0
 1261 00ba 10EA0508 		ands	r8, r0, r5
 1262 00be 37D1     		bne	.L138
 1263              	.LVL180:
 1264              	.LBE66:
 1265              	.LBB67:
 1266              		.loc 1 404 0
 1267 00c0 2549     		ldr	r1, .L139+28
 1268 00c2 2046     		mov	r0, r4
 1269              	.LVL181:
 1270 00c4 FFF7FEFF 		bl	target_mem_read32
 1271              	.LVL182:
 1272              		.loc 1 405 0
 1273 00c8 2842     		tst	r0, r5
 1274 00ca 08D0     		beq	.L119
 1275              		.loc 1 406 0
 1276 00cc 0146     		mov	r1, r0
 1277 00ce 2448     		ldr	r0, .L139+36
 1278              	.LVL183:
 1279 00d0 FFF7FEFF 		bl	commands_printf
 1280              	.LVL184:
 1281              	.LBE67:
 1282              		.loc 1 336 0
 1283 00d4 4646     		mov	r6, r8
 1284 00d6 02E0     		b	.L119
 1285              	.LVL185:
 1286              	.L135:
 1287              	.LBB68:
 1288              		.loc 1 357 0
 1289 00d8 2248     		ldr	r0, .L139+40
 1290 00da FFF7FEFF 		bl	commands_printf
 1291              	.LVL186:
 1292              	.L119:
 1293              	.LBE68:
 1294              		.loc 1 412 0
 1295 00de 2046     		mov	r0, r4
 1296 00e0 2149     		ldr	r1, .L139+44
 1297 00e2 FFF7FEFF 		bl	tc_printf
 1298              	.LVL187:
 1299              	.LBE57:
 1300              	.LBE56:
 1301              		.loc 1 420 0
 1302 00e6 3046     		mov	r0, r6
 1303 00e8 BDE8F081 		pop	{r4, r5, r6, r7, r8, pc}
 1304              	.LVL188:
 1305              	.L136:
 1306              	.LBB79:
 1307              	.LBB75:
 1308              	.LBB69:
 1309              		.loc 1 373 0
 1310 00ec 1F48     		ldr	r0, .L139+48
 1311 00ee FFF7FEFF 		bl	commands_printf
ARM GAS  /tmp/ccaSruDD.s 			page 24


 1312              	.LVL189:
 1313              	.LBE69:
 1314              		.loc 1 336 0
 1315 00f2 0026     		movs	r6, #0
 1316              	.LVL190:
 1317              		.loc 1 412 0
 1318 00f4 2046     		mov	r0, r4
 1319 00f6 1C49     		ldr	r1, .L139+44
 1320 00f8 FFF7FEFF 		bl	tc_printf
 1321              	.LVL191:
 1322              	.LBE75:
 1323              	.LBE79:
 1324              		.loc 1 420 0
 1325 00fc 3046     		mov	r0, r6
 1326 00fe BDE8F081 		pop	{r4, r5, r6, r7, r8, pc}
 1327              	.LVL192:
 1328              	.L134:
 1329              	.LBB80:
 1330              	.LBB76:
 1331              	.LBB70:
 1332              		.loc 1 347 0
 1333 0102 1B48     		ldr	r0, .L139+52
 1334 0104 FFF7FEFF 		bl	commands_printf
 1335              	.LVL193:
 1336              	.LBE70:
 1337              		.loc 1 412 0
 1338 0108 2046     		mov	r0, r4
 1339 010a 1749     		ldr	r1, .L139+44
 1340 010c FFF7FEFF 		bl	tc_printf
 1341              	.LVL194:
 1342              	.LBE76:
 1343              	.LBE80:
 1344              		.loc 1 420 0
 1345 0110 3046     		mov	r0, r6
 1346 0112 BDE8F081 		pop	{r4, r5, r6, r7, r8, pc}
 1347              	.LVL195:
 1348              	.L128:
 1349              	.LBB81:
 1350              	.LBB77:
 1351              	.LBB71:
 1352              		.loc 1 338 0
 1353 0116 B825     		movs	r5, #184
 1354 0118 89E7     		b	.L115
 1355              	.LVL196:
 1356              	.L137:
 1357              	.LBE71:
 1358              	.LBB72:
 1359              		.loc 1 385 0
 1360 011a 1648     		ldr	r0, .L139+56
 1361 011c FFF7FEFF 		bl	commands_printf
 1362              	.LVL197:
 1363              	.LBE72:
 1364              		.loc 1 336 0
 1365 0120 0026     		movs	r6, #0
 1366              	.LVL198:
 1367              		.loc 1 412 0
 1368 0122 2046     		mov	r0, r4
ARM GAS  /tmp/ccaSruDD.s 			page 25


 1369 0124 1049     		ldr	r1, .L139+44
 1370 0126 FFF7FEFF 		bl	tc_printf
 1371              	.LVL199:
 1372              	.LBE77:
 1373              	.LBE81:
 1374              		.loc 1 420 0
 1375 012a 3046     		mov	r0, r6
 1376 012c BDE8F081 		pop	{r4, r5, r6, r7, r8, pc}
 1377              	.LVL200:
 1378              	.L138:
 1379              	.LBB82:
 1380              	.LBB78:
 1381              	.LBB73:
 1382              		.loc 1 397 0
 1383 0130 0146     		mov	r1, r0
 1384 0132 1148     		ldr	r0, .L139+60
 1385              	.LVL201:
 1386              	.LBE73:
 1387              		.loc 1 336 0
 1388 0134 3E46     		mov	r6, r7
 1389              	.LBB74:
 1390              		.loc 1 397 0
 1391 0136 FFF7FEFF 		bl	commands_printf
 1392              	.LVL202:
 1393 013a D0E7     		b	.L119
 1394              	.L140:
 1395              		.align	2
 1396              	.L139:
 1397 013c 00000000 		.word	.LC18
 1398 0140 00000000 		.word	stm32h7_flash_write
 1399 0144 0C200052 		.word	1375739916
 1400 0148 4C000000 		.word	.LC20
 1401 014c 0C210052 		.word	1375740172
 1402 0150 10200052 		.word	1375739920
 1403 0154 7C000000 		.word	.LC22
 1404 0158 10210052 		.word	1375740176
 1405 015c 0000EE07 		.word	133038080
 1406 0160 D4000000 		.word	.LC26
 1407 0164 60000000 		.word	.LC21
 1408 0168 0C000000 		.word	.LC2
 1409 016c 90000000 		.word	.LC23
 1410 0170 30000000 		.word	.LC19
 1411 0174 A8000000 		.word	.LC24
 1412 0178 C0000000 		.word	.LC25
 1413              	.LBE74:
 1414              	.LBE78:
 1415              	.LBE82:
 1416              		.cfi_endproc
 1417              	.LFE271:
 1418              		.size	stm32h7_cmd_erase_mass, .-stm32h7_cmd_erase_mass
 1419              		.section	.text.stm32h7_add_flash.constprop.4,"ax",%progbits
 1420              		.align	1
 1421              		.p2align 4,,15
 1422              		.syntax unified
 1423              		.thumb
 1424              		.thumb_func
 1425              		.fpu fpv4-sp-d16
ARM GAS  /tmp/ccaSruDD.s 			page 26


 1426              		.type	stm32h7_add_flash.constprop.4, %function
 1427              	stm32h7_add_flash.constprop.4:
 1428              	.LFB279:
 1429              		.loc 1 156 0
 1430              		.cfi_startproc
 1431              		@ args = 0, pretend = 0, frame = 0
 1432              		@ frame_needed = 0, uses_anonymous_args = 0
 1433              	.LVL203:
 1434 0000 F8B5     		push	{r3, r4, r5, r6, r7, lr}
 1435              		.cfi_def_cfa_offset 24
 1436              		.cfi_offset 3, -24
 1437              		.cfi_offset 4, -20
 1438              		.cfi_offset 5, -16
 1439              		.cfi_offset 6, -12
 1440              		.cfi_offset 7, -8
 1441              		.cfi_offset 14, -4
 1442              		.loc 1 156 0
 1443 0002 0C46     		mov	r4, r1
 1444 0004 0546     		mov	r5, r0
 1445              		.loc 1 159 0
 1446 0006 3821     		movs	r1, #56
 1447              	.LVL204:
 1448 0008 0120     		movs	r0, #1
 1449              	.LVL205:
 1450              		.loc 1 156 0
 1451 000a 1746     		mov	r7, r2
 1452              		.loc 1 159 0
 1453 000c FFF7FEFF 		bl	calloc
 1454              	.LVL206:
 1455 0010 0346     		mov	r3, r0
 1456              	.LVL207:
 1457              		.loc 1 167 0
 1458 0012 FF22     		movs	r2, #255
 1459              		.loc 1 169 0
 1460 0014 B4F1016F 		cmp	r4, #135266304
 1461              		.loc 1 162 0
 1462 0018 4760     		str	r7, [r0, #4]
 1463              		.loc 1 163 0
 1464 001a 4FF40031 		mov	r1, #131072
 1465              		.loc 1 167 0
 1466 001e 1A77     		strb	r2, [r3, #28]
 1467              		.loc 1 168 0
 1468 0020 14BF     		ite	ne
 1469 0022 0A4A     		ldrne	r2, .L145
 1470              		.loc 1 170 0
 1471 0024 0A4A     		ldreq	r2, .L145+4
 1472              		.loc 1 164 0
 1473 0026 0B4E     		ldr	r6, .L145+8
 1474              		.loc 1 165 0
 1475 0028 0B48     		ldr	r0, .L145+12
 1476              	.LVL208:
 1477              		.loc 1 163 0
 1478 002a 9960     		str	r1, [r3, #8]
 1479              		.loc 1 170 0
 1480 002c 5A63     		str	r2, [r3, #52]
 1481              		.loc 1 166 0
 1482 002e 4FF40061 		mov	r1, #2048
ARM GAS  /tmp/ccaSruDD.s 			page 27


 1483              		.loc 1 171 0
 1484 0032 0322     		movs	r2, #3
 1485              		.loc 1 165 0
 1486 0034 1861     		str	r0, [r3, #16]
 1487              		.loc 1 166 0
 1488 0036 1962     		str	r1, [r3, #32]
 1489              		.loc 1 161 0
 1490 0038 1C60     		str	r4, [r3]
 1491              		.loc 1 164 0
 1492 003a DE60     		str	r6, [r3, #12]
 1493              		.loc 1 172 0
 1494 003c 2846     		mov	r0, r5
 1495 003e 1946     		mov	r1, r3
 1496              		.loc 1 171 0
 1497 0040 83F83020 		strb	r2, [r3, #48]
 1498              		.loc 1 173 0
 1499 0044 BDE8F840 		pop	{r3, r4, r5, r6, r7, lr}
 1500              		.cfi_restore 14
 1501              		.cfi_restore 7
 1502              		.cfi_restore 6
 1503              		.cfi_restore 5
 1504              		.cfi_restore 4
 1505              		.cfi_restore 3
 1506              		.cfi_def_cfa_offset 0
 1507              	.LVL209:
 1508              		.loc 1 172 0
 1509 0048 FFF7FEBF 		b	target_add_flash
 1510              	.LVL210:
 1511              	.L146:
 1512              		.align	2
 1513              	.L145:
 1514 004c 00200052 		.word	1375739904
 1515 0050 00210052 		.word	1375740160
 1516 0054 00000000 		.word	stm32h7_flash_erase
 1517 0058 00000000 		.word	stm32h7_flash_write
 1518              		.cfi_endproc
 1519              	.LFE279:
 1520              		.size	stm32h7_add_flash.constprop.4, .-stm32h7_add_flash.constprop.4
 1521              		.section	.text.stm32h7_attach,"ax",%progbits
 1522              		.align	1
 1523              		.p2align 4,,15
 1524              		.syntax unified
 1525              		.thumb
 1526              		.thumb_func
 1527              		.fpu fpv4-sp-d16
 1528              		.type	stm32h7_attach, %function
 1529              	stm32h7_attach:
 1530              	.LFB264:
 1531              		.loc 1 176 0
 1532              		.cfi_startproc
 1533              		@ args = 0, pretend = 0, frame = 0
 1534              		@ frame_needed = 0, uses_anonymous_args = 0
 1535              	.LVL211:
 1536 0000 38B5     		push	{r3, r4, r5, lr}
 1537              		.cfi_def_cfa_offset 16
 1538              		.cfi_offset 3, -16
 1539              		.cfi_offset 4, -12
ARM GAS  /tmp/ccaSruDD.s 			page 28


 1540              		.cfi_offset 5, -8
 1541              		.cfi_offset 14, -4
 1542              		.loc 1 176 0
 1543 0002 0446     		mov	r4, r0
 1544              		.loc 1 177 0
 1545 0004 FFF7FEFF 		bl	cortexm_attach
 1546              	.LVL212:
 1547 0008 0546     		mov	r5, r0
 1548 000a 08B9     		cbnz	r0, .L155
 1549              		.loc 1 199 0
 1550 000c 2846     		mov	r0, r5
 1551 000e 38BD     		pop	{r3, r4, r5, pc}
 1552              	.LVL213:
 1553              	.L155:
 1554              	.LBB85:
 1555              	.LBB86:
 1556              		.loc 1 181 0
 1557 0010 1A49     		ldr	r1, .L158
 1558 0012 2046     		mov	r0, r4
 1559 0014 FFF7FEFF 		bl	target_mem_read32
 1560              	.LVL214:
 1561              		.loc 1 183 0
 1562 0018 194A     		ldr	r2, .L158+4
 1563              		.loc 1 182 0
 1564 001a 6065     		str	r0, [r4, #84]
 1565              		.loc 1 183 0
 1566 001c 1749     		ldr	r1, .L158
 1567 001e 2046     		mov	r0, r4
 1568              	.LVL215:
 1569 0020 FFF7FEFF 		bl	target_mem_write32
 1570              	.LVL216:
 1571              		.loc 1 187 0
 1572 0024 1749     		ldr	r1, .L158+8
 1573 0026 2046     		mov	r0, r4
 1574 0028 FFF7FEFF 		bl	target_mem_read32
 1575              	.LVL217:
 1576              		.loc 1 188 0
 1577 002c C306     		lsls	r3, r0, #27
 1578 002e 16D5     		bpl	.L156
 1579              	.LVL218:
 1580              	.L149:
 1581              		.loc 1 190 0
 1582 0030 1549     		ldr	r1, .L158+12
 1583 0032 2046     		mov	r0, r4
 1584 0034 FFF7FEFF 		bl	target_mem_read32
 1585              	.LVL219:
 1586              		.loc 1 191 0
 1587 0038 80B2     		uxth	r0, r0
 1588              	.LVL220:
 1589              		.loc 1 192 0
 1590 003a 8028     		cmp	r0, #128
 1591 003c 14D0     		beq	.L157
 1592              		.loc 1 195 0
 1593 003e 2046     		mov	r0, r4
 1594 0040 4FF48012 		mov	r2, #1048576
 1595 0044 4FF00061 		mov	r1, #134217728
 1596 0048 FFF7FEFF 		bl	stm32h7_add_flash.constprop.4
ARM GAS  /tmp/ccaSruDD.s 			page 29


 1597              	.LVL221:
 1598              		.loc 1 196 0
 1599 004c 2046     		mov	r0, r4
 1600 004e 4FF48012 		mov	r2, #1048576
 1601 0052 4FF00161 		mov	r1, #135266304
 1602 0056 FFF7FEFF 		bl	stm32h7_add_flash.constprop.4
 1603              	.LVL222:
 1604              	.LBE86:
 1605              	.LBE85:
 1606              		.loc 1 199 0
 1607 005a 2846     		mov	r0, r5
 1608 005c 38BD     		pop	{r3, r4, r5, pc}
 1609              	.LVL223:
 1610              	.L156:
 1611              	.LBB88:
 1612              	.LBB87:
 1613              		.loc 1 189 0
 1614 005e 0B49     		ldr	r1, .L158+16
 1615 0060 2046     		mov	r0, r4
 1616              	.LVL224:
 1617 0062 FFF7FEFF 		bl	tc_printf
 1618              	.LVL225:
 1619 0066 E3E7     		b	.L149
 1620              	.L157:
 1621              		.loc 1 193 0
 1622 0068 2046     		mov	r0, r4
 1623 006a 4FF40032 		mov	r2, #131072
 1624 006e 4FF00061 		mov	r1, #134217728
 1625 0072 FFF7FEFF 		bl	stm32h7_add_flash.constprop.4
 1626              	.LVL226:
 1627              	.LBE87:
 1628              	.LBE88:
 1629              		.loc 1 199 0
 1630 0076 2846     		mov	r0, r5
 1631 0078 38BD     		pop	{r3, r4, r5, pc}
 1632              	.LVL227:
 1633              	.L159:
 1634 007a 00BF     		.align	2
 1635              	.L158:
 1636 007c 0410005C 		.word	1543507972
 1637 0080 01002000 		.word	2097153
 1638 0084 20200052 		.word	1375739936
 1639 0088 80E8F11F 		.word	535947392
 1640 008c 00000000 		.word	.LC27
 1641              		.cfi_endproc
 1642              	.LFE264:
 1643              		.size	stm32h7_attach, .-stm32h7_attach
 1644              		.section	.text.stm32h7_probe,"ax",%progbits
 1645              		.align	1
 1646              		.p2align 4,,15
 1647              		.global	stm32h7_probe
 1648              		.syntax unified
 1649              		.thumb
 1650              		.thumb_func
 1651              		.fpu fpv4-sp-d16
 1652              		.type	stm32h7_probe, %function
 1653              	stm32h7_probe:
ARM GAS  /tmp/ccaSruDD.s 			page 30


 1654              	.LFB266:
 1655              		.loc 1 208 0
 1656              		.cfi_startproc
 1657              		@ args = 0, pretend = 0, frame = 0
 1658              		@ frame_needed = 0, uses_anonymous_args = 0
 1659              	.LVL228:
 1660 0000 10B5     		push	{r4, lr}
 1661              		.cfi_def_cfa_offset 8
 1662              		.cfi_offset 4, -8
 1663              		.cfi_offset 14, -4
 1664              		.loc 1 208 0
 1665 0002 0446     		mov	r4, r0
 1666              		.loc 1 209 0
 1667 0004 FFF7FEFF 		bl	cortexm_ap
 1668              	.LVL229:
 1669              		.loc 1 210 0
 1670 0008 4368     		ldr	r3, [r0, #4]
 1671 000a DB89     		ldrh	r3, [r3, #14]
 1672 000c C3F30B03 		ubfx	r3, r3, #0, #12
 1673              		.loc 1 211 0
 1674 0010 B3F58A6F 		cmp	r3, #1104
 1675 0014 01D0     		beq	.L164
 1676              		.loc 1 226 0
 1677 0016 0020     		movs	r0, #0
 1678              	.LVL230:
 1679              		.loc 1 227 0
 1680 0018 10BD     		pop	{r4, pc}
 1681              	.LVL231:
 1682              	.L164:
 1683              		.loc 1 214 0
 1684 001a 1E48     		ldr	r0, .L165
 1685              	.LVL232:
 1686              		.loc 1 215 0
 1687 001c 1E49     		ldr	r1, .L165+4
 1688              		.loc 1 213 0
 1689 001e 1F4A     		ldr	r2, .L165+8
 1690              		.loc 1 212 0
 1691 0020 2365     		str	r3, [r4, #80]
 1692              		.loc 1 215 0
 1693 0022 C4E90201 		strd	r0, r1, [r4, #8]
 1694              		.loc 1 213 0
 1695 0026 2266     		str	r2, [r4, #96]
 1696              		.loc 1 216 0
 1697 0028 2046     		mov	r0, r4
 1698 002a 1D49     		ldr	r1, .L165+12
 1699 002c FFF7FEFF 		bl	target_add_commands
 1700              	.LVL233:
 1701              		.loc 1 217 0
 1702 0030 2046     		mov	r0, r4
 1703 0032 4FF48032 		mov	r2, #65536
 1704 0036 0021     		movs	r1, #0
 1705 0038 FFF7FEFF 		bl	target_add_ram
 1706              	.LVL234:
 1707              		.loc 1 218 0
 1708 003c 2046     		mov	r0, r4
 1709 003e 4FF40032 		mov	r2, #131072
 1710 0042 4FF00051 		mov	r1, #536870912
ARM GAS  /tmp/ccaSruDD.s 			page 31


 1711 0046 FFF7FEFF 		bl	target_add_ram
 1712              	.LVL235:
 1713              		.loc 1 219 0
 1714 004a 2046     		mov	r0, r4
 1715 004c 4FF40022 		mov	r2, #524288
 1716 0050 4FF01051 		mov	r1, #603979776
 1717 0054 FFF7FEFF 		bl	target_add_ram
 1718              	.LVL236:
 1719              		.loc 1 220 0
 1720 0058 2046     		mov	r0, r4
 1721 005a 4FF40032 		mov	r2, #131072
 1722 005e 4FF04051 		mov	r1, #805306368
 1723 0062 FFF7FEFF 		bl	target_add_ram
 1724              	.LVL237:
 1725              		.loc 1 221 0
 1726 0066 2046     		mov	r0, r4
 1727 0068 4FF40032 		mov	r2, #131072
 1728 006c 4FF04851 		mov	r1, #838860800
 1729 0070 FFF7FEFF 		bl	target_add_ram
 1730              	.LVL238:
 1731              		.loc 1 222 0
 1732 0074 2046     		mov	r0, r4
 1733 0076 4FF40042 		mov	r2, #32768
 1734 007a 4FF05051 		mov	r1, #872415232
 1735 007e FFF7FEFF 		bl	target_add_ram
 1736              	.LVL239:
 1737              		.loc 1 223 0
 1738 0082 2046     		mov	r0, r4
 1739 0084 4FF48052 		mov	r2, #4096
 1740 0088 4FF06051 		mov	r1, #939524096
 1741 008c FFF7FEFF 		bl	target_add_ram
 1742              	.LVL240:
 1743              		.loc 1 224 0
 1744 0090 0120     		movs	r0, #1
 1745              		.loc 1 227 0
 1746 0092 10BD     		pop	{r4, pc}
 1747              	.LVL241:
 1748              	.L166:
 1749              		.align	2
 1750              	.L165:
 1751 0094 00000000 		.word	stm32h7_attach
 1752 0098 00000000 		.word	stm32h7_detach
 1753 009c 00000000 		.word	.LANCHOR0
 1754 00a0 00000000 		.word	.LANCHOR1
 1755              		.cfi_endproc
 1756              	.LFE266:
 1757              		.size	stm32h7_probe, .-stm32h7_probe
 1758              		.global	stm32h7_cmd_list
 1759              		.section	.rodata.stm32h74_driver_str,"a",%progbits
 1760              		.align	2
 1761              		.set	.LANCHOR0,. + 0
 1762              		.type	stm32h74_driver_str, %object
 1763              		.size	stm32h74_driver_str, 10
 1764              	stm32h74_driver_str:
 1765 0000 53544D33 		.ascii	"STM32H74x\000"
 1765      32483734 
 1765      7800
ARM GAS  /tmp/ccaSruDD.s 			page 32


 1766              		.section	.rodata.stm32h7_attach.str1.4,"aMS",%progbits,1
 1767              		.align	2
 1768              	.LC27:
 1769 0000 48617264 		.ascii	"Hardware IWDG running. Expect failure. Set IWDG1_SW"
 1769      77617265 
 1769      20495744 
 1769      47207275 
 1769      6E6E696E 
 1770 0033 2100     		.ascii	"!\000"
 1771              		.section	.rodata.stm32h7_cmd_erase_mass.str1.4,"aMS",%progbits,1
 1772              		.align	2
 1773              	.LC18:
 1774 0000 45726173 		.ascii	"Erasing flash... This may take a few seconds.  \000"
 1774      696E6720 
 1774      666C6173 
 1774      682E2E2E 
 1774      20546869 
 1775              	.LC19:
 1776 0030 4D453A20 		.ascii	"ME: Unlock bank1 failed\012\000"
 1776      556E6C6F 
 1776      636B2062 
 1776      616E6B31 
 1776      20666169 
 1777 0049 000000   		.space	3
 1778              	.LC20:
 1779 004c 4D452062 		.ascii	"ME bank1 started\012\000"
 1779      616E6B31 
 1779      20737461 
 1779      72746564 
 1779      0A00
 1780 005e 0000     		.space	2
 1781              	.LC21:
 1782 0060 4D453A20 		.ascii	"ME: Unlock bank2 failed\012\000"
 1782      556E6C6F 
 1782      636B2062 
 1782      616E6B32 
 1782      20666169 
 1783 0079 000000   		.space	3
 1784              	.LC22:
 1785 007c 4D452062 		.ascii	"ME bank2 started\012\000"
 1785      616E6B32 
 1785      20737461 
 1785      72746564 
 1785      0A00
 1786 008e 0000     		.space	2
 1787              	.LC23:
 1788 0090 4D452062 		.ascii	"ME bank1: comm failed\012\000"
 1788      616E6B31 
 1788      3A20636F 
 1788      6D6D2066 
 1788      61696C65 
 1789 00a7 00       		.space	1
 1790              	.LC24:
 1791 00a8 4D452062 		.ascii	"ME bank2: comm failed\012\000"
 1791      616E6B32 
 1791      3A20636F 
 1791      6D6D2066 
ARM GAS  /tmp/ccaSruDD.s 			page 33


 1791      61696C65 
 1792 00bf 00       		.space	1
 1793              	.LC25:
 1794 00c0 4D452062 		.ascii	"ME bank1: sr %lx\012\000"
 1794      616E6B31 
 1794      3A207372 
 1794      20256C78 
 1794      0A00
 1795 00d2 0000     		.space	2
 1796              	.LC26:
 1797 00d4 4D452062 		.ascii	"ME bank2: sr %lx\012\000"
 1797      616E6B32 
 1797      3A207372 
 1797      20256C78 
 1797      0A00
 1798              		.section	.rodata.stm32h7_cmd_list,"a",%progbits
 1799              		.align	2
 1800              		.set	.LANCHOR1,. + 0
 1801              		.type	stm32h7_cmd_list, %object
 1802              		.size	stm32h7_cmd_list, 60
 1803              	stm32h7_cmd_list:
 1804 0000 00000000 		.word	.LC28
 1805 0004 00000000 		.word	stm32h7_cmd_erase_mass
 1806 0008 0C000000 		.word	.LC29
 1807 000c 28000000 		.word	.LC30
 1808 0010 00000000 		.word	stm32h7_cmd_psize
 1809 0014 30000000 		.word	.LC31
 1810 0018 70000000 		.word	.LC32
 1811 001c 00000000 		.word	stm32h7_uid
 1812 0020 74000000 		.word	.LC33
 1813 0024 8C000000 		.word	.LC34
 1814 0028 00000000 		.word	stm32h7_crc
 1815 002c 90000000 		.word	.LC35
 1816 0030 00000000 		.word	0
 1817 0034 00000000 		.word	0
 1818 0038 00000000 		.word	0
 1819              		.section	.rodata.stm32h7_cmd_psize.str1.4,"aMS",%progbits,1
 1820              		.align	2
 1821              	.LC12:
 1822 0000 78333200 		.ascii	"x32\000"
 1823              	.LC13:
 1824 0004 78363400 		.ascii	"x64\000"
 1825              	.LC14:
 1826 0008 783800   		.ascii	"x8\000"
 1827 000b 00       		.space	1
 1828              	.LC15:
 1829 000c 78313600 		.ascii	"x16\000"
 1830              	.LC16:
 1831 0010 466C6173 		.ascii	"Flash write parallelism: %s\012\000"
 1831      68207772 
 1831      69746520 
 1831      70617261 
 1831      6C6C656C 
 1832 002d 000000   		.space	3
 1833              	.LC17:
 1834 0030 75736167 		.ascii	"usage: monitor psize (x8|x16|x32|x64)\012\000"
 1834      653A206D 
ARM GAS  /tmp/ccaSruDD.s 			page 34


 1834      6F6E6974 
 1834      6F722070 
 1834      73697A65 
 1835              		.section	.rodata.stm32h7_crc.str1.4,"aMS",%progbits,1
 1836              		.align	2
 1837              	.LC11:
 1838 0000 4352433A 		.ascii	"CRC: bank1 0x%08lx, bank2 0x%08lx\012\000"
 1838      2062616E 
 1838      6B312030 
 1838      78253038 
 1838      6C782C20 
 1839              		.section	.rodata.stm32h7_crc_bank.str1.4,"aMS",%progbits,1
 1840              		.align	2
 1841              	.LC4:
 1842 0000 43524320 		.ascii	"CRC bank %d: comm failed\012\000"
 1842      62616E6B 
 1842      2025643A 
 1842      20636F6D 
 1842      6D206661 
 1843 001a 0000     		.space	2
 1844              	.LC5:
 1845 001c 43524320 		.ascii	"CRC bank %d: error sr %08lx\012\000"
 1845      62616E6B 
 1845      2025643A 
 1845      20657272 
 1845      6F722073 
 1846              		.section	.rodata.stm32h7_flash_erase.str1.4,"aMS",%progbits,1
 1847              		.align	2
 1848              	.LC6:
 1849 0000 20737461 		.ascii	" started cr %08lx sr %08lx\012\000"
 1849      72746564 
 1849      20637220 
 1849      2530386C 
 1849      78207372 
 1850              	.LC7:
 1851 001c 73746D33 		.ascii	"stm32h7_flash_erase: comm failed\012\000"
 1851      3268375F 
 1851      666C6173 
 1851      685F6572 
 1851      6173653A 
 1852 003e 0000     		.space	2
 1853              	.LC8:
 1854 0040 73746D33 		.ascii	"stm32h7_flash_erase: error, sr: %08lx\012\000"
 1854      3268375F 
 1854      666C6173 
 1854      685F6572 
 1854      6173653A 
 1855              		.section	.rodata.stm32h7_flash_unlock.str1.4,"aMS",%progbits,1
 1856              		.align	2
 1857              	.LC3:
 1858 0000 4572726F 		.ascii	"Error 0x%08lx\000"
 1858      72203078 
 1858      2530386C 
 1858      7800
 1859              		.section	.rodata.stm32h7_flash_write.str1.4,"aMS",%progbits,1
 1860              		.align	2
 1861              	.LC9:
ARM GAS  /tmp/ccaSruDD.s 			page 35


 1862 0000 73746D33 		.ascii	"stm32h7_flash_write: BSY comm failed\012\000"
 1862      3268375F 
 1862      666C6173 
 1862      685F7772 
 1862      6974653A 
 1863 0026 0000     		.space	2
 1864              	.LC10:
 1865 0028 73746D33 		.ascii	"stm32h7_flash_write: error sr %08lx\012\000"
 1865      3268375F 
 1865      666C6173 
 1865      685F7772 
 1865      6974653A 
 1866              		.section	.rodata.stm32h7_uid.str1.4,"aMS",%progbits,1
 1867              		.align	2
 1868              	.LC0:
 1869 0000 307800   		.ascii	"0x\000"
 1870 0003 00       		.space	1
 1871              	.LC1:
 1872 0004 25303258 		.ascii	"%02X\000"
 1872      00
 1873 0009 000000   		.space	3
 1874              	.LC2:
 1875 000c 0A00     		.ascii	"\012\000"
 1876              		.section	.rodata.str1.4,"aMS",%progbits,1
 1877              		.align	2
 1878              	.LC28:
 1879 0000 65726173 		.ascii	"erase_mass\000"
 1879      655F6D61 
 1879      737300
 1880 000b 00       		.space	1
 1881              	.LC29:
 1882 000c 45726173 		.ascii	"Erase entire flash memory\000"
 1882      6520656E 
 1882      74697265 
 1882      20666C61 
 1882      7368206D 
 1883 0026 0000     		.space	2
 1884              	.LC30:
 1885 0028 7073697A 		.ascii	"psize\000"
 1885      6500
 1886 002e 0000     		.space	2
 1887              	.LC31:
 1888 0030 436F6E66 		.ascii	"Configure flash write parallelism: (x8|x16|x32|x64("
 1888      69677572 
 1888      6520666C 
 1888      61736820 
 1888      77726974 
 1889 0063 64656661 		.ascii	"default))\000"
 1889      756C7429 
 1889      2900
 1890 006d 000000   		.space	3
 1891              	.LC32:
 1892 0070 75696400 		.ascii	"uid\000"
 1893              	.LC33:
 1894 0074 5072696E 		.ascii	"Print unique device ID\000"
 1894      7420756E 
 1894      69717565 
ARM GAS  /tmp/ccaSruDD.s 			page 36


 1894      20646576 
 1894      69636520 
 1895 008b 00       		.space	1
 1896              	.LC34:
 1897 008c 63726300 		.ascii	"crc\000"
 1898              	.LC35:
 1899 0090 5072696E 		.ascii	"Print CRC of both banks\000"
 1899      74204352 
 1899      43206F66 
 1899      20626F74 
 1899      68206261 
 1900              		.text
 1901              	.Letext0:
 1902              		.file 2 "/usr/arm-none-eabi/include/machine/_default_types.h"
 1903              		.file 3 "/usr/arm-none-eabi/include/sys/_stdint.h"
 1904              		.file 4 "/usr/lib/gcc/arm-none-eabi/7.3.1/include/stddef.h"
 1905              		.file 5 "/usr/arm-none-eabi/include/sys/lock.h"
 1906              		.file 6 "/usr/arm-none-eabi/include/sys/_types.h"
 1907              		.file 7 "/usr/arm-none-eabi/include/sys/reent.h"
 1908              		.file 8 "/usr/arm-none-eabi/include/stdlib.h"
 1909              		.file 9 "/usr/lib/gcc/arm-none-eabi/7.3.1/include/stdarg.h"
 1910              		.file 10 "<built-in>"
 1911              		.file 11 "/usr/arm-none-eabi/include/stdio.h"
 1912              		.file 12 "/usr/arm-none-eabi/include/sys/types.h"
 1913              		.file 13 "ChibiOS_3.0.2/os/rt/ports/ARMCMx/compilers/GCC/chtypes.h"
 1914              		.file 14 "ChibiOS_3.0.2/os/rt/include/chsystypes.h"
 1915              		.file 15 "ChibiOS_3.0.2/os/rt/include/chschd.h"
 1916              		.file 16 "ChibiOS_3.0.2/os/ext/CMSIS/include/core_cm4.h"
 1917              		.file 17 "ChibiOS_3.0.2/os/ext/CMSIS/ST/system_stm32f4xx.h"
 1918              		.file 18 "ChibiOS_3.0.2/os/ext/CMSIS/ST/stm32f407xx.h"
 1919              		.file 19 "ChibiOS_3.0.2/os/rt/ports/ARMCMx/chcore.h"
 1920              		.file 20 "ChibiOS_3.0.2/os/rt/ports/ARMCMx/chcore_v7m.h"
 1921              		.file 21 "ChibiOS_3.0.2/os/rt/include/chtm.h"
 1922              		.file 22 "ChibiOS_3.0.2/os/rt/include/chsem.h"
 1923              		.file 23 "ChibiOS_3.0.2/os/rt/include/chmtx.h"
 1924              		.file 24 "ChibiOS_3.0.2/os/rt/include/chregistry.h"
 1925              		.file 25 "ChibiOS_3.0.2/os/rt/include/chevents.h"
 1926              		.file 26 "ChibiOS_3.0.2/os/rt/include/chqueues.h"
 1927              		.file 27 "./conf_general.h"
 1928              		.file 28 "ChibiOS_3.0.2/os/hal/ports/STM32/STM32F4xx/stm32_dma.h"
 1929              		.file 29 "ChibiOS_3.0.2/os/hal/ports/STM32/LLD/GPIOv2/pal_lld.h"
 1930              		.file 30 "ChibiOS_3.0.2/os/hal/include/can.h"
 1931              		.file 31 "ChibiOS_3.0.2/os/hal/ports/STM32/LLD/can_lld.h"
 1932              		.file 32 "ChibiOS_3.0.2/os/hal/include/i2c.h"
 1933              		.file 33 "ChibiOS_3.0.2/os/hal/ports/STM32/LLD/I2Cv1/i2c_lld.h"
 1934              		.file 34 "ChibiOS_3.0.2/os/hal/include/icu.h"
 1935              		.file 35 "ChibiOS_3.0.2/os/hal/ports/STM32/LLD/TIMv1/icu_lld.h"
 1936              		.file 36 "ChibiOS_3.0.2/os/hal/ports/STM32/LLD/TIMv1/stm32_tim.h"
 1937              		.file 37 "ChibiOS_3.0.2/os/hal/include/serial.h"
 1938              		.file 38 "ChibiOS_3.0.2/os/hal/ports/STM32/LLD/USARTv1/serial_lld.h"
 1939              		.file 39 "ChibiOS_3.0.2/os/hal/include/spi.h"
 1940              		.file 40 "ChibiOS_3.0.2/os/hal/ports/STM32/LLD/SPIv1/spi_lld.h"
 1941              		.file 41 "ChibiOS_3.0.2/os/hal/include/usb.h"
 1942              		.file 42 "ChibiOS_3.0.2/os/hal/ports/STM32/LLD/OTGv1/usb_lld.h"
 1943              		.file 43 "ChibiOS_3.0.2/os/hal/ports/STM32/LLD/OTGv1/stm32_otg.h"
 1944              		.file 44 "blackmagic/platform.h"
 1945              		.file 45 "blackmagic/target.h"
ARM GAS  /tmp/ccaSruDD.s 			page 37


 1946              		.file 46 "blackmagic/target/target_internal.h"
 1947              		.file 47 "blackmagic/target/jtag_scan.h"
 1948              		.file 48 "blackmagic/target/adiv5.h"
 1949              		.file 49 "blackmagic/target/cortexm.h"
 1950              		.file 50 "./commands.h"
 1951              		.file 51 "blackmagic/platform_support.h"
 1952              		.file 52 "/usr/arm-none-eabi/include/string.h"