ARM GAS  /tmp/cchTXGQu.s 			page 1


   1              		.cpu cortex-m4
   2              		.eabi_attribute 27, 1
   3              		.eabi_attribute 28, 1
   4              		.eabi_attribute 20, 1
   5              		.eabi_attribute 21, 1
   6              		.eabi_attribute 23, 3
   7              		.eabi_attribute 24, 1
   8              		.eabi_attribute 25, 1
   9              		.eabi_attribute 26, 1
  10              		.eabi_attribute 30, 2
  11              		.eabi_attribute 34, 1
  12              		.eabi_attribute 18, 4
  13              		.file	"target.c"
  14              		.text
  15              	.Ltext0:
  16              		.cfi_sections	.debug_frame
  17              		.section	.text.target_new,"ax",%progbits
  18              		.align	1
  19              		.p2align 4,,15
  20              		.global	target_new
  21              		.syntax unified
  22              		.thumb
  23              		.thumb_func
  24              		.fpu fpv4-sp-d16
  25              		.type	target_new, %function
  26              	target_new:
  27              	.LFB259:
  28              		.file 1 "blackmagic/target/target.c"
  29              		.loc 1 34 0
  30              		.cfi_startproc
  31              		@ args = 0, pretend = 0, frame = 0
  32              		@ frame_needed = 0, uses_anonymous_args = 0
  33 0000 08B5     		push	{r3, lr}
  34              		.cfi_def_cfa_offset 8
  35              		.cfi_offset 3, -8
  36              		.cfi_offset 14, -4
  37              		.loc 1 35 0
  38 0002 7421     		movs	r1, #116
  39 0004 0120     		movs	r0, #1
  40 0006 FFF7FEFF 		bl	calloc
  41              	.LVL0:
  42              		.loc 1 36 0
  43 000a 064B     		ldr	r3, .L9
  44 000c 1A68     		ldr	r2, [r3]
  45 000e 0AB9     		cbnz	r2, .L3
  46 0010 05E0     		b	.L8
  47              	.LVL1:
  48              	.L5:
  49              	.LBB21:
  50 0012 1A46     		mov	r2, r3
  51              	.LVL2:
  52              	.L3:
  53              		.loc 1 38 0
  54 0014 936E     		ldr	r3, [r2, #104]
  55 0016 002B     		cmp	r3, #0
  56 0018 FBD1     		bne	.L5
  57              		.loc 1 40 0
ARM GAS  /tmp/cchTXGQu.s 			page 2


  58 001a 9066     		str	r0, [r2, #104]
  59              	.LBE21:
  60              		.loc 1 46 0
  61 001c 08BD     		pop	{r3, pc}
  62              	.LVL3:
  63              	.L8:
  64              		.loc 1 42 0
  65 001e 1860     		str	r0, [r3]
  66              		.loc 1 46 0
  67 0020 08BD     		pop	{r3, pc}
  68              	.L10:
  69 0022 00BF     		.align	2
  70              	.L9:
  71 0024 00000000 		.word	.LANCHOR0
  72              		.cfi_endproc
  73              	.LFE259:
  74              		.size	target_new, .-target_new
  75              		.section	.text.target_foreach,"ax",%progbits
  76              		.align	1
  77              		.p2align 4,,15
  78              		.global	target_foreach
  79              		.syntax unified
  80              		.thumb
  81              		.thumb_func
  82              		.fpu fpv4-sp-d16
  83              		.type	target_foreach, %function
  84              	target_foreach:
  85              	.LFB260:
  86              		.loc 1 49 0
  87              		.cfi_startproc
  88              		@ args = 0, pretend = 0, frame = 0
  89              		@ frame_needed = 0, uses_anonymous_args = 0
  90              	.LVL4:
  91 0000 2DE9F041 		push	{r4, r5, r6, r7, r8, lr}
  92              		.cfi_def_cfa_offset 24
  93              		.cfi_offset 4, -24
  94              		.cfi_offset 5, -20
  95              		.cfi_offset 6, -16
  96              		.cfi_offset 7, -12
  97              		.cfi_offset 8, -8
  98              		.cfi_offset 14, -4
  99              		.loc 1 51 0
 100 0004 DFF82C80 		ldr	r8, .L19
 101 0008 D8F80040 		ldr	r4, [r8]
 102              	.LVL5:
 103              		.loc 1 52 0
 104 000c 64B1     		cbz	r4, .L12
 105 000e 0F46     		mov	r7, r1
 106 0010 0646     		mov	r6, r0
 107              		.loc 1 50 0
 108 0012 0125     		movs	r5, #1
 109              	.LVL6:
 110              	.L13:
 111              		.loc 1 53 0 discriminator 2
 112 0014 2146     		mov	r1, r4
 113 0016 2846     		mov	r0, r5
 114 0018 3A46     		mov	r2, r7
ARM GAS  /tmp/cchTXGQu.s 			page 3


 115 001a B047     		blx	r6
 116              	.LVL7:
 117              		.loc 1 52 0 discriminator 2
 118 001c A46E     		ldr	r4, [r4, #104]
 119              	.LVL8:
 120 001e 0135     		adds	r5, r5, #1
 121              	.LVL9:
 122 0020 002C     		cmp	r4, #0
 123 0022 F7D1     		bne	.L13
 124 0024 D8F80040 		ldr	r4, [r8]
 125              	.LVL10:
 126              	.L12:
 127              		.loc 1 55 0
 128 0028 201C     		adds	r0, r4, #0
 129 002a 18BF     		it	ne
 130 002c 0120     		movne	r0, #1
 131 002e BDE8F081 		pop	{r4, r5, r6, r7, r8, pc}
 132              	.L20:
 133 0032 00BF     		.align	2
 134              	.L19:
 135 0034 00000000 		.word	.LANCHOR0
 136              		.cfi_endproc
 137              	.LFE260:
 138              		.size	target_foreach, .-target_foreach
 139              		.section	.text.target_mem_map_free,"ax",%progbits
 140              		.align	1
 141              		.p2align 4,,15
 142              		.global	target_mem_map_free
 143              		.syntax unified
 144              		.thumb
 145              		.thumb_func
 146              		.fpu fpv4-sp-d16
 147              		.type	target_mem_map_free, %function
 148              	target_mem_map_free:
 149              	.LFB261:
 150              		.loc 1 58 0
 151              		.cfi_startproc
 152              		@ args = 0, pretend = 0, frame = 0
 153              		@ frame_needed = 0, uses_anonymous_args = 0
 154              	.LVL11:
 155 0000 38B5     		push	{r3, r4, r5, lr}
 156              		.cfi_def_cfa_offset 16
 157              		.cfi_offset 3, -16
 158              		.cfi_offset 4, -12
 159              		.cfi_offset 5, -8
 160              		.cfi_offset 14, -4
 161              		.loc 1 58 0
 162 0002 0546     		mov	r5, r0
 163              		.loc 1 59 0
 164 0004 806D     		ldr	r0, [r0, #88]
 165              	.LVL12:
 166 0006 30B1     		cbz	r0, .L22
 167              	.L23:
 168              	.LBB22:
 169              		.loc 1 60 0
 170 0008 8468     		ldr	r4, [r0, #8]
 171              	.LVL13:
ARM GAS  /tmp/cchTXGQu.s 			page 4


 172              		.loc 1 61 0
 173 000a FFF7FEFF 		bl	free
 174              	.LVL14:
 175              		.loc 1 62 0
 176 000e AC65     		str	r4, [r5, #88]
 177              	.LBE22:
 178              		.loc 1 59 0
 179 0010 2046     		mov	r0, r4
 180 0012 002C     		cmp	r4, #0
 181 0014 F8D1     		bne	.L23
 182              	.LVL15:
 183              	.L22:
 184              		.loc 1 64 0
 185 0016 EC6D     		ldr	r4, [r5, #92]
 186 0018 5CB1     		cbz	r4, .L21
 187              	.L26:
 188              	.LBB23:
 189              		.loc 1 66 0
 190 001a E26A     		ldr	r2, [r4, #44]
 191              		.loc 1 65 0
 192 001c 646A     		ldr	r4, [r4, #36]
 193              	.LVL16:
 194              		.loc 1 67 0
 195 001e 1046     		mov	r0, r2
 196              		.loc 1 66 0
 197 0020 0AB1     		cbz	r2, .L25
 198              		.loc 1 67 0
 199 0022 FFF7FEFF 		bl	free
 200              	.LVL17:
 201              	.L25:
 202              		.loc 1 68 0
 203 0026 E86D     		ldr	r0, [r5, #92]
 204 0028 FFF7FEFF 		bl	free
 205              	.LVL18:
 206              		.loc 1 69 0
 207 002c EC65     		str	r4, [r5, #92]
 208              	.LBE23:
 209              		.loc 1 64 0
 210 002e 002C     		cmp	r4, #0
 211 0030 F3D1     		bne	.L26
 212              	.LVL19:
 213              	.L21:
 214              		.loc 1 71 0
 215 0032 38BD     		pop	{r3, r4, r5, pc}
 216              		.cfi_endproc
 217              	.LFE261:
 218              		.size	target_mem_map_free, .-target_mem_map_free
 219              		.section	.text.target_list_free,"ax",%progbits
 220              		.align	1
 221              		.p2align 4,,15
 222              		.global	target_list_free
 223              		.syntax unified
 224              		.thumb
 225              		.thumb_func
 226              		.fpu fpv4-sp-d16
 227              		.type	target_list_free, %function
 228              	target_list_free:
ARM GAS  /tmp/cchTXGQu.s 			page 5


 229              	.LFB262:
 230              		.loc 1 74 0
 231              		.cfi_startproc
 232              		@ args = 0, pretend = 0, frame = 0
 233              		@ frame_needed = 0, uses_anonymous_args = 0
 234 0000 70B5     		push	{r4, r5, r6, lr}
 235              		.cfi_def_cfa_offset 16
 236              		.cfi_offset 4, -16
 237              		.cfi_offset 5, -12
 238              		.cfi_offset 6, -8
 239              		.cfi_offset 14, -4
 240              		.loc 1 77 0
 241 0002 174D     		ldr	r5, .L67
 242 0004 2968     		ldr	r1, [r5]
 243 0006 0029     		cmp	r1, #0
 244 0008 28D0     		beq	.L39
 245              	.L47:
 246              	.LBB24:
 247              		.loc 1 79 0
 248 000a 4868     		ldr	r0, [r1, #4]
 249              		.loc 1 78 0
 250 000c 8E6E     		ldr	r6, [r1, #104]
 251              	.LVL20:
 252              		.loc 1 79 0
 253 000e 08B1     		cbz	r0, .L41
 254              		.loc 1 80 0
 255 0010 0368     		ldr	r3, [r0]
 256 0012 9847     		blx	r3
 257              	.LVL21:
 258              	.L41:
 259              		.loc 1 81 0
 260 0014 2868     		ldr	r0, [r5]
 261 0016 C36E     		ldr	r3, [r0, #108]
 262 0018 1BB1     		cbz	r3, .L42
 263              		.loc 1 82 0
 264 001a 026F     		ldr	r2, [r0, #112]
 265 001c 1846     		mov	r0, r3
 266 001e 9047     		blx	r2
 267              	.LVL22:
 268 0020 2868     		ldr	r0, [r5]
 269              	.L42:
 270              		.loc 1 83 0
 271 0022 446E     		ldr	r4, [r0, #100]
 272 0024 3CB1     		cbz	r4, .L43
 273              	.L44:
 274              		.loc 1 85 0
 275 0026 2046     		mov	r0, r4
 276              		.loc 1 84 0
 277 0028 A468     		ldr	r4, [r4, #8]
 278              	.LVL23:
 279              		.loc 1 85 0
 280 002a FFF7FEFF 		bl	free
 281              	.LVL24:
 282              		.loc 1 86 0
 283 002e 2868     		ldr	r0, [r5]
 284 0030 4466     		str	r4, [r0, #100]
 285              		.loc 1 83 0
ARM GAS  /tmp/cchTXGQu.s 			page 6


 286 0032 002C     		cmp	r4, #0
 287 0034 F7D1     		bne	.L44
 288              	.LVL25:
 289              	.L43:
 290              		.loc 1 88 0
 291 0036 FFF7FEFF 		bl	target_mem_map_free
 292              	.LVL26:
 293              		.loc 1 89 0
 294 003a 2868     		ldr	r0, [r5]
 295 003c 846C     		ldr	r4, [r0, #72]
 296 003e 3CB1     		cbz	r4, .L45
 297              	.L46:
 298              	.LBB25:
 299              		.loc 1 91 0
 300 0040 2046     		mov	r0, r4
 301              		.loc 1 90 0
 302 0042 2468     		ldr	r4, [r4]
 303              	.LVL27:
 304              		.loc 1 91 0
 305 0044 FFF7FEFF 		bl	free
 306              	.LVL28:
 307              		.loc 1 92 0
 308 0048 2868     		ldr	r0, [r5]
 309 004a 8464     		str	r4, [r0, #72]
 310              	.LBE25:
 311              		.loc 1 89 0
 312 004c 002C     		cmp	r4, #0
 313 004e F7D1     		bne	.L46
 314              	.LVL29:
 315              	.L45:
 316              		.loc 1 94 0
 317 0050 FFF7FEFF 		bl	free
 318              	.LVL30:
 319              		.loc 1 95 0
 320 0054 2E60     		str	r6, [r5]
 321              	.LBE24:
 322              		.loc 1 77 0
 323 0056 3146     		mov	r1, r6
 324 0058 002E     		cmp	r6, #0
 325 005a D6D1     		bne	.L47
 326              	.LVL31:
 327              	.L39:
 328              		.loc 1 97 0
 329 005c 70BD     		pop	{r4, r5, r6, pc}
 330              	.L68:
 331 005e 00BF     		.align	2
 332              	.L67:
 333 0060 00000000 		.word	.LANCHOR0
 334              		.cfi_endproc
 335              	.LFE262:
 336              		.size	target_list_free, .-target_list_free
 337              		.section	.text.target_add_commands,"ax",%progbits
 338              		.align	1
 339              		.p2align 4,,15
 340              		.global	target_add_commands
 341              		.syntax unified
 342              		.thumb
ARM GAS  /tmp/cchTXGQu.s 			page 7


 343              		.thumb_func
 344              		.fpu fpv4-sp-d16
 345              		.type	target_add_commands, %function
 346              	target_add_commands:
 347              	.LFB263:
 348              		.loc 1 100 0
 349              		.cfi_startproc
 350              		@ args = 0, pretend = 0, frame = 0
 351              		@ frame_needed = 0, uses_anonymous_args = 0
 352              	.LVL32:
 353 0000 F8B5     		push	{r3, r4, r5, r6, r7, lr}
 354              		.cfi_def_cfa_offset 24
 355              		.cfi_offset 3, -24
 356              		.cfi_offset 4, -20
 357              		.cfi_offset 5, -16
 358              		.cfi_offset 6, -12
 359              		.cfi_offset 7, -8
 360              		.cfi_offset 14, -4
 361              		.loc 1 102 0
 362 0002 446E     		ldr	r4, [r0, #100]
 363              		.loc 1 100 0
 364 0004 0E46     		mov	r6, r1
 365 0006 1746     		mov	r7, r2
 366              		.loc 1 102 0
 367 0008 0CB9     		cbnz	r4, .L71
 368 000a 0CE0     		b	.L75
 369              	.LVL33:
 370              	.L73:
 371 000c 1C46     		mov	r4, r3
 372              	.LVL34:
 373              	.L71:
 374              		.loc 1 103 0 discriminator 1
 375 000e A368     		ldr	r3, [r4, #8]
 376 0010 002B     		cmp	r3, #0
 377 0012 FBD1     		bne	.L73
 378              		.loc 1 104 0
 379 0014 0C20     		movs	r0, #12
 380              	.LVL35:
 381 0016 FFF7FEFF 		bl	malloc
 382              	.LVL36:
 383              		.loc 1 110 0
 384 001a 0023     		movs	r3, #0
 385              		.loc 1 104 0
 386 001c A060     		str	r0, [r4, #8]
 387              	.LVL37:
 388              		.loc 1 109 0
 389 001e C0E90076 		strd	r7, r6, [r0]
 390              		.loc 1 110 0
 391 0022 8360     		str	r3, [r0, #8]
 392              		.loc 1 111 0
 393 0024 F8BD     		pop	{r3, r4, r5, r6, r7, pc}
 394              	.LVL38:
 395              	.L75:
 396 0026 0546     		mov	r5, r0
 397              		.loc 1 106 0
 398 0028 0C20     		movs	r0, #12
 399              	.LVL39:
ARM GAS  /tmp/cchTXGQu.s 			page 8


 400 002a FFF7FEFF 		bl	malloc
 401              	.LVL40:
 402              		.loc 1 110 0
 403 002e 0023     		movs	r3, #0
 404              		.loc 1 106 0
 405 0030 6866     		str	r0, [r5, #100]
 406              		.loc 1 109 0
 407 0032 C0E90076 		strd	r7, r6, [r0]
 408              		.loc 1 110 0
 409 0036 8360     		str	r3, [r0, #8]
 410              		.loc 1 111 0
 411 0038 F8BD     		pop	{r3, r4, r5, r6, r7, pc}
 412              		.cfi_endproc
 413              	.LFE263:
 414              		.size	target_add_commands, .-target_add_commands
 415 003a 00BF     		.section	.text.target_attach_n,"ax",%progbits
 416              		.align	1
 417              		.p2align 4,,15
 418              		.global	target_attach_n
 419              		.syntax unified
 420              		.thumb
 421              		.thumb_func
 422              		.fpu fpv4-sp-d16
 423              		.type	target_attach_n, %function
 424              	target_attach_n:
 425              	.LFB264:
 426              		.loc 1 114 0
 427              		.cfi_startproc
 428              		@ args = 0, pretend = 0, frame = 0
 429              		@ frame_needed = 0, uses_anonymous_args = 0
 430              	.LVL41:
 431 0000 38B5     		push	{r3, r4, r5, lr}
 432              		.cfi_def_cfa_offset 16
 433              		.cfi_offset 3, -16
 434              		.cfi_offset 4, -12
 435              		.cfi_offset 5, -8
 436              		.cfi_offset 14, -4
 437              		.loc 1 117 0
 438 0002 104B     		ldr	r3, .L95
 439 0004 1C68     		ldr	r4, [r3]
 440              	.LVL42:
 441 0006 4CB1     		cbz	r4, .L82
 442              		.loc 1 118 0
 443 0008 0128     		cmp	r0, #1
 444 000a 0AD0     		beq	.L79
 445              		.loc 1 117 0
 446 000c 0123     		movs	r3, #1
 447 000e 01E0     		b	.L80
 448              	.LVL43:
 449              	.L83:
 450              		.loc 1 118 0
 451 0010 9842     		cmp	r0, r3
 452 0012 06D0     		beq	.L79
 453              	.LVL44:
 454              	.L80:
 455              		.loc 1 117 0 discriminator 2
 456 0014 A46E     		ldr	r4, [r4, #104]
ARM GAS  /tmp/cchTXGQu.s 			page 9


 457              	.LVL45:
 458 0016 0133     		adds	r3, r3, #1
 459              	.LVL46:
 460 0018 002C     		cmp	r4, #0
 461 001a F9D1     		bne	.L83
 462              	.LVL47:
 463              	.L82:
 464              		.loc 1 120 0
 465 001c 0024     		movs	r4, #0
 466              	.LVL48:
 467              		.loc 1 121 0
 468 001e 2046     		mov	r0, r4
 469 0020 38BD     		pop	{r3, r4, r5, pc}
 470              	.LVL49:
 471              	.L79:
 472              	.LBB26:
 473              	.LBB27:
 474              		.loc 1 125 0
 475 0022 6068     		ldr	r0, [r4, #4]
 476              	.LVL50:
 477 0024 0D46     		mov	r5, r1
 478              	.LVL51:
 479 0026 10B1     		cbz	r0, .L81
 480              	.LVL52:
 481              		.loc 1 126 0
 482 0028 0368     		ldr	r3, [r0]
 483 002a 2146     		mov	r1, r4
 484              	.LVL53:
 485 002c 9847     		blx	r3
 486              	.LVL54:
 487              	.L81:
 488              		.loc 1 128 0
 489 002e 6560     		str	r5, [r4, #4]
 490              		.loc 1 130 0
 491 0030 A368     		ldr	r3, [r4, #8]
 492 0032 2046     		mov	r0, r4
 493 0034 9847     		blx	r3
 494              	.LVL55:
 495 0036 0028     		cmp	r0, #0
 496 0038 F0D0     		beq	.L82
 497              		.loc 1 133 0
 498 003a 0123     		movs	r3, #1
 499 003c 2370     		strb	r3, [r4]
 500              	.LBE27:
 501              	.LBE26:
 502              		.loc 1 121 0
 503 003e 2046     		mov	r0, r4
 504 0040 38BD     		pop	{r3, r4, r5, pc}
 505              	.LVL56:
 506              	.L96:
 507 0042 00BF     		.align	2
 508              	.L95:
 509 0044 00000000 		.word	.LANCHOR0
 510              		.cfi_endproc
 511              	.LFE264:
 512              		.size	target_attach_n, .-target_attach_n
 513              		.section	.text.target_attach,"ax",%progbits
ARM GAS  /tmp/cchTXGQu.s 			page 10


 514              		.align	1
 515              		.p2align 4,,15
 516              		.global	target_attach
 517              		.syntax unified
 518              		.thumb
 519              		.thumb_func
 520              		.fpu fpv4-sp-d16
 521              		.type	target_attach, %function
 522              	target_attach:
 523              	.LFB265:
 524              		.loc 1 124 0
 525              		.cfi_startproc
 526              		@ args = 0, pretend = 0, frame = 0
 527              		@ frame_needed = 0, uses_anonymous_args = 0
 528              	.LVL57:
 529 0000 38B5     		push	{r3, r4, r5, lr}
 530              		.cfi_def_cfa_offset 16
 531              		.cfi_offset 3, -16
 532              		.cfi_offset 4, -12
 533              		.cfi_offset 5, -8
 534              		.cfi_offset 14, -4
 535              		.loc 1 124 0
 536 0002 0446     		mov	r4, r0
 537              		.loc 1 125 0
 538 0004 4068     		ldr	r0, [r0, #4]
 539              	.LVL58:
 540              		.loc 1 124 0
 541 0006 0D46     		mov	r5, r1
 542              		.loc 1 125 0
 543 0008 10B1     		cbz	r0, .L98
 544              		.loc 1 126 0
 545 000a 0368     		ldr	r3, [r0]
 546 000c 2146     		mov	r1, r4
 547              	.LVL59:
 548 000e 9847     		blx	r3
 549              	.LVL60:
 550              	.L98:
 551              		.loc 1 128 0
 552 0010 6560     		str	r5, [r4, #4]
 553              		.loc 1 130 0
 554 0012 A368     		ldr	r3, [r4, #8]
 555 0014 2046     		mov	r0, r4
 556 0016 9847     		blx	r3
 557              	.LVL61:
 558 0018 10B1     		cbz	r0, .L97
 559              		.loc 1 133 0
 560 001a 0123     		movs	r3, #1
 561 001c 2370     		strb	r3, [r4]
 562              		.loc 1 134 0
 563 001e 2046     		mov	r0, r4
 564              	.L97:
 565              		.loc 1 135 0
 566 0020 38BD     		pop	{r3, r4, r5, pc}
 567              		.cfi_endproc
 568              	.LFE265:
 569              		.size	target_attach, .-target_attach
 570 0022 00BF     		.section	.text.target_add_ram,"ax",%progbits
ARM GAS  /tmp/cchTXGQu.s 			page 11


 571              		.align	1
 572              		.p2align 4,,15
 573              		.global	target_add_ram
 574              		.syntax unified
 575              		.thumb
 576              		.thumb_func
 577              		.fpu fpv4-sp-d16
 578              		.type	target_add_ram, %function
 579              	target_add_ram:
 580              	.LFB266:
 581              		.loc 1 138 0
 582              		.cfi_startproc
 583              		@ args = 0, pretend = 0, frame = 0
 584              		@ frame_needed = 0, uses_anonymous_args = 0
 585              	.LVL62:
 586 0000 70B5     		push	{r4, r5, r6, lr}
 587              		.cfi_def_cfa_offset 16
 588              		.cfi_offset 4, -16
 589              		.cfi_offset 5, -12
 590              		.cfi_offset 6, -8
 591              		.cfi_offset 14, -4
 592              		.loc 1 138 0
 593 0002 0446     		mov	r4, r0
 594              		.loc 1 139 0
 595 0004 0C20     		movs	r0, #12
 596              	.LVL63:
 597              		.loc 1 138 0
 598 0006 0E46     		mov	r6, r1
 599 0008 1546     		mov	r5, r2
 600              		.loc 1 139 0
 601 000a FFF7FEFF 		bl	malloc
 602              	.LVL64:
 603              		.loc 1 142 0
 604 000e A36D     		ldr	r3, [r4, #88]
 605 0010 8360     		str	r3, [r0, #8]
 606              		.loc 1 141 0
 607 0012 C0E90065 		strd	r6, r5, [r0]
 608              		.loc 1 143 0
 609 0016 A065     		str	r0, [r4, #88]
 610              		.loc 1 144 0
 611 0018 70BD     		pop	{r4, r5, r6, pc}
 612              		.cfi_endproc
 613              	.LFE266:
 614              		.size	target_add_ram, .-target_add_ram
 615 001a 00BF     		.section	.text.target_add_flash,"ax",%progbits
 616              		.align	1
 617              		.p2align 4,,15
 618              		.global	target_add_flash
 619              		.syntax unified
 620              		.thumb
 621              		.thumb_func
 622              		.fpu fpv4-sp-d16
 623              		.type	target_add_flash, %function
 624              	target_add_flash:
 625              	.LFB267:
 626              		.loc 1 147 0
 627              		.cfi_startproc
ARM GAS  /tmp/cchTXGQu.s 			page 12


 628              		@ args = 0, pretend = 0, frame = 0
 629              		@ frame_needed = 0, uses_anonymous_args = 0
 630              		@ link register save eliminated.
 631              	.LVL65:
 632              		.loc 1 148 0
 633 0000 0B6A     		ldr	r3, [r1, #32]
 634 0002 33B9     		cbnz	r3, .L108
 635              		.loc 1 149 0
 636 0004 8B68     		ldr	r3, [r1, #8]
 637 0006 B3F5806F 		cmp	r3, #1024
 638 000a 28BF     		it	cs
 639 000c 4FF48063 		movcs	r3, #1024
 640 0010 0B62     		str	r3, [r1, #32]
 641              	.L108:
 642              		.loc 1 151 0
 643 0012 C36D     		ldr	r3, [r0, #92]
 644 0014 4B62     		str	r3, [r1, #36]
 645              		.loc 1 150 0
 646 0016 8861     		str	r0, [r1, #24]
 647              		.loc 1 152 0
 648 0018 C165     		str	r1, [r0, #92]
 649              		.loc 1 153 0
 650 001a 7047     		bx	lr
 651              		.cfi_endproc
 652              	.LFE267:
 653              		.size	target_add_flash, .-target_add_flash
 654              		.section	.text.target_mem_map,"ax",%progbits
 655              		.align	1
 656              		.p2align 4,,15
 657              		.global	target_mem_map
 658              		.syntax unified
 659              		.thumb
 660              		.thumb_func
 661              		.fpu fpv4-sp-d16
 662              		.type	target_mem_map, %function
 663              	target_mem_map:
 664              	.LFB270:
 665              		.loc 1 175 0
 666              		.cfi_startproc
 667              		@ args = 0, pretend = 0, frame = 0
 668              		@ frame_needed = 0, uses_anonymous_args = 0
 669              	.LVL66:
 670 0000 2DE9F04F 		push	{r4, r5, r6, r7, r8, r9, r10, fp, lr}
 671              		.cfi_def_cfa_offset 36
 672              		.cfi_offset 4, -36
 673              		.cfi_offset 5, -32
 674              		.cfi_offset 6, -28
 675              		.cfi_offset 7, -24
 676              		.cfi_offset 8, -20
 677              		.cfi_offset 9, -16
 678              		.cfi_offset 10, -12
 679              		.cfi_offset 11, -8
 680              		.cfi_offset 14, -4
 681 0004 8046     		mov	r8, r0
 682 0006 8A46     		mov	r10, r1
 683 0008 83B0     		sub	sp, sp, #12
 684              		.cfi_def_cfa_offset 48
ARM GAS  /tmp/cchTXGQu.s 			page 13


 685              		.loc 1 177 0
 686 000a 1146     		mov	r1, r2
 687              	.LVL67:
 688              		.loc 1 175 0
 689 000c 1746     		mov	r7, r2
 690              		.loc 1 177 0
 691 000e 5046     		mov	r0, r10
 692              	.LVL68:
 693 0010 224A     		ldr	r2, .L121
 694              	.LVL69:
 695 0012 FFF7FEFF 		bl	snprintf
 696              	.LVL70:
 697              	.LBB34:
 698              		.loc 1 179 0
 699 0016 D8F85850 		ldr	r5, [r8, #88]
 700              	.LVL71:
 701 001a 002D     		cmp	r5, #0
 702 001c 3BD0     		beq	.L114
 703              	.LBB35:
 704              	.LBB36:
 705              		.loc 1 157 0
 706 001e 204E     		ldr	r6, .L121+4
 707              	.LBE36:
 708              	.LBE35:
 709              	.LBE34:
 710              		.loc 1 177 0
 711 0020 0C24     		movs	r4, #12
 712              	.LVL72:
 713              	.L111:
 714              	.LBB39:
 715              	.LBB38:
 716              	.LBB37:
 717              		.loc 1 157 0 discriminator 3
 718 0022 D5E90032 		ldrd	r3, r2, [r5]
 719 0026 391B     		subs	r1, r7, r4
 720              	.LVL73:
 721 0028 0092     		str	r2, [sp]
 722 002a 0AEB0400 		add	r0, r10, r4
 723              	.LVL74:
 724 002e 3246     		mov	r2, r6
 725 0030 FFF7FEFF 		bl	snprintf
 726              	.LVL75:
 727              	.LBE37:
 728              	.LBE38:
 729              		.loc 1 179 0 discriminator 3
 730 0034 AD68     		ldr	r5, [r5, #8]
 731              	.LVL76:
 732              		.loc 1 180 0 discriminator 3
 733 0036 0444     		add	r4, r4, r0
 734              	.LVL77:
 735              		.loc 1 179 0 discriminator 3
 736 0038 002D     		cmp	r5, #0
 737 003a F2D1     		bne	.L111
 738              	.LVL78:
 739              	.L110:
 740              	.LBE39:
 741              	.LBB40:
ARM GAS  /tmp/cchTXGQu.s 			page 14


 742              		.loc 1 182 0
 743 003c D8F85C50 		ldr	r5, [r8, #92]
 744              	.LVL79:
 745 0040 D5B1     		cbz	r5, .L112
 746              	.LBB41:
 747              	.LBB42:
 748              		.loc 1 165 0
 749 0042 DFF868B0 		ldr	fp, .L121+16
 750              	.LVL80:
 751              	.L113:
 752              		.loc 1 165 0 is_stmt 0 discriminator 3
 753 0046 D5E90032 		ldrd	r3, r2, [r5]
 754              	.LBE42:
 755              	.LBE41:
 756              		.loc 1 183 0 is_stmt 1 discriminator 3
 757 004a 0AEB0408 		add	r8, r10, r4
 758 004e A7EB0409 		sub	r9, r7, r4
 759              	.LVL81:
 760              	.LBB45:
 761              	.LBB43:
 762              		.loc 1 165 0 discriminator 3
 763 0052 0092     		str	r2, [sp]
 764 0054 4946     		mov	r1, r9
 765 0056 5A46     		mov	r2, fp
 766 0058 4046     		mov	r0, r8
 767 005a FFF7FEFF 		bl	snprintf
 768              	.LVL82:
 769              		.loc 1 168 0 discriminator 3
 770 005e AB68     		ldr	r3, [r5, #8]
 771 0060 104A     		ldr	r2, .L121+8
 772              		.loc 1 165 0 discriminator 3
 773 0062 0646     		mov	r6, r0
 774              	.LVL83:
 775              		.loc 1 168 0 discriminator 3
 776 0064 A9EB0001 		sub	r1, r9, r0
 777 0068 4044     		add	r0, r8, r0
 778              	.LVL84:
 779 006a FFF7FEFF 		bl	snprintf
 780              	.LVL85:
 781              	.LBE43:
 782              	.LBE45:
 783              		.loc 1 182 0 discriminator 3
 784 006e 6D6A     		ldr	r5, [r5, #36]
 785              	.LVL86:
 786              	.LBB46:
 787              	.LBB44:
 788              		.loc 1 168 0 discriminator 3
 789 0070 3044     		add	r0, r0, r6
 790              	.LBE44:
 791              	.LBE46:
 792              		.loc 1 183 0 discriminator 3
 793 0072 0444     		add	r4, r4, r0
 794              	.LVL87:
 795              		.loc 1 182 0 discriminator 3
 796 0074 002D     		cmp	r5, #0
 797 0076 E6D1     		bne	.L113
 798              	.L112:
ARM GAS  /tmp/cchTXGQu.s 			page 15


 799              	.LBE40:
 800              		.loc 1 184 0
 801 0078 0AEB0400 		add	r0, r10, r4
 802 007c 391B     		subs	r1, r7, r4
 803 007e 0A4A     		ldr	r2, .L121+12
 804 0080 FFF7FEFF 		bl	snprintf
 805              	.LVL88:
 806 0084 0D34     		adds	r4, r4, #13
 807              	.LVL89:
 808              		.loc 1 186 0
 809 0086 B81E     		subs	r0, r7, #2
 810              		.loc 1 189 0
 811 0088 A042     		cmp	r0, r4
 812 008a 34BF     		ite	cc
 813 008c 0020     		movcc	r0, #0
 814 008e 0120     		movcs	r0, #1
 815 0090 03B0     		add	sp, sp, #12
 816              		.cfi_remember_state
 817              		.cfi_def_cfa_offset 36
 818              		@ sp needed
 819 0092 BDE8F08F 		pop	{r4, r5, r6, r7, r8, r9, r10, fp, pc}
 820              	.LVL90:
 821              	.L114:
 822              		.cfi_restore_state
 823              		.loc 1 177 0
 824 0096 0C24     		movs	r4, #12
 825 0098 D0E7     		b	.L110
 826              	.L122:
 827 009a 00BF     		.align	2
 828              	.L121:
 829 009c 00000000 		.word	.LC0
 830 00a0 10000000 		.word	.LC1
 831 00a4 7C000000 		.word	.LC3
 832 00a8 B4000000 		.word	.LC4
 833 00ac 44000000 		.word	.LC2
 834              		.cfi_endproc
 835              	.LFE270:
 836              		.size	target_mem_map, .-target_mem_map
 837              		.section	.text.target_flash_erase,"ax",%progbits
 838              		.align	1
 839              		.p2align 4,,15
 840              		.global	target_flash_erase
 841              		.syntax unified
 842              		.thumb
 843              		.thumb_func
 844              		.fpu fpv4-sp-d16
 845              		.type	target_flash_erase, %function
 846              	target_flash_erase:
 847              	.LFB272:
 848              		.loc 1 201 0
 849              		.cfi_startproc
 850              		@ args = 0, pretend = 0, frame = 0
 851              		@ frame_needed = 0, uses_anonymous_args = 0
 852              	.LVL91:
 853 0000 2DE9F041 		push	{r4, r5, r6, r7, r8, lr}
 854              		.cfi_def_cfa_offset 24
 855              		.cfi_offset 4, -24
ARM GAS  /tmp/cchTXGQu.s 			page 16


 856              		.cfi_offset 5, -20
 857              		.cfi_offset 6, -16
 858              		.cfi_offset 7, -12
 859              		.cfi_offset 8, -8
 860              		.cfi_offset 14, -4
 861              		.loc 1 203 0
 862 0004 1546     		mov	r5, r2
 863 0006 12B3     		cbz	r2, .L130
 864 0008 0646     		mov	r6, r0
 865              		.loc 1 202 0
 866 000a 0027     		movs	r7, #0
 867              	.LVL92:
 868              	.L129:
 869              	.LBB47:
 870              		.loc 1 204 0
 871 000c F06D     		ldr	r0, [r6, #92]
 872              	.LVL93:
 873              	.LBB48:
 874              	.LBB49:
 875              		.loc 1 193 0
 876 000e 48B1     		cbz	r0, .L125
 877              	.L128:
 878              		.loc 1 194 0
 879 0010 0368     		ldr	r3, [r0]
 880 0012 8B42     		cmp	r3, r1
 881 0014 03D8     		bhi	.L126
 882              		.loc 1 195 0
 883 0016 4268     		ldr	r2, [r0, #4]
 884 0018 1344     		add	r3, r3, r2
 885              		.loc 1 194 0
 886 001a 8B42     		cmp	r3, r1
 887 001c 05D8     		bhi	.L127
 888              	.L126:
 889              		.loc 1 193 0
 890 001e 406A     		ldr	r0, [r0, #36]
 891              	.LVL94:
 892 0020 0028     		cmp	r0, #0
 893 0022 F5D1     		bne	.L128
 894              	.L125:
 895              	.LVL95:
 896              	.LBE49:
 897              	.LBE48:
 898              		.loc 1 205 0
 899 0024 0023     		movs	r3, #0
 900 0026 1B68     		ldr	r3, [r3]
 901 0028 FFDE     		.inst	0xdeff
 902              	.LVL96:
 903              	.L127:
 904 002a 4C19     		adds	r4, r1, r5
 905 002c 9C42     		cmp	r4, r3
 906 002e 28BF     		it	cs
 907 0030 1C46     		movcs	r4, r3
 908              	.LVL97:
 909              		.loc 1 206 0
 910 0032 A4EB0108 		sub	r8, r4, r1
 911              	.LVL98:
 912              		.loc 1 207 0
ARM GAS  /tmp/cchTXGQu.s 			page 17


 913 0036 4246     		mov	r2, r8
 914 0038 C368     		ldr	r3, [r0, #12]
 915 003a 9847     		blx	r3
 916              	.LVL99:
 917              	.LBE47:
 918              		.loc 1 203 0
 919 003c B5EB0805 		subs	r5, r5, r8
 920              	.LVL100:
 921              	.LBB50:
 922              		.loc 1 205 0
 923 0040 2146     		mov	r1, r4
 924              		.loc 1 207 0
 925 0042 47EA0007 		orr	r7, r7, r0
 926              	.LVL101:
 927              	.LBE50:
 928              		.loc 1 203 0
 929 0046 E1D1     		bne	.L129
 930              		.loc 1 212 0
 931 0048 3846     		mov	r0, r7
 932 004a BDE8F081 		pop	{r4, r5, r6, r7, r8, pc}
 933              	.LVL102:
 934              	.L130:
 935              		.loc 1 202 0
 936 004e 1746     		mov	r7, r2
 937              		.loc 1 212 0
 938 0050 3846     		mov	r0, r7
 939              	.LVL103:
 940 0052 BDE8F081 		pop	{r4, r5, r6, r7, r8, pc}
 941              		.cfi_endproc
 942              	.LFE272:
 943              		.size	target_flash_erase, .-target_flash_erase
 944 0056 00BF     		.section	.text.target_flash_write,"ax",%progbits
 945              		.align	1
 946              		.p2align 4,,15
 947              		.global	target_flash_write
 948              		.syntax unified
 949              		.thumb
 950              		.thumb_func
 951              		.fpu fpv4-sp-d16
 952              		.type	target_flash_write, %function
 953              	target_flash_write:
 954              	.LFB273:
 955              		.loc 1 216 0
 956              		.cfi_startproc
 957              		@ args = 0, pretend = 0, frame = 24
 958              		@ frame_needed = 0, uses_anonymous_args = 0
 959              	.LVL104:
 960 0000 2DE9F04F 		push	{r4, r5, r6, r7, r8, r9, r10, fp, lr}
 961              		.cfi_def_cfa_offset 36
 962              		.cfi_offset 4, -36
 963              		.cfi_offset 5, -32
 964              		.cfi_offset 6, -28
 965              		.cfi_offset 7, -24
 966              		.cfi_offset 8, -20
 967              		.cfi_offset 9, -16
 968              		.cfi_offset 10, -12
 969              		.cfi_offset 11, -8
ARM GAS  /tmp/cchTXGQu.s 			page 18


 970              		.cfi_offset 14, -4
 971 0004 87B0     		sub	sp, sp, #28
 972              		.cfi_def_cfa_offset 64
 973              		.loc 1 218 0
 974 0006 CDE90032 		strd	r3, r2, [sp]
 975              		.loc 1 216 0
 976 000a 0590     		str	r0, [sp, #20]
 977              		.loc 1 218 0
 978 000c 002B     		cmp	r3, #0
 979 000e 6DD0     		beq	.L149
 980              		.loc 1 217 0
 981 0010 0023     		movs	r3, #0
 982              	.LVL105:
 983 0012 8B46     		mov	fp, r1
 984 0014 0393     		str	r3, [sp, #12]
 985              	.LVL106:
 986              	.L148:
 987              	.LBB58:
 988              		.loc 1 219 0
 989 0016 059B     		ldr	r3, [sp, #20]
 990 0018 DC6D     		ldr	r4, [r3, #92]
 991              	.LVL107:
 992              	.LBB59:
 993              	.LBB60:
 994              		.loc 1 193 0
 995 001a 4CB1     		cbz	r4, .L139
 996              	.LVL108:
 997              	.L142:
 998              		.loc 1 194 0
 999 001c 2368     		ldr	r3, [r4]
 1000 001e 5B45     		cmp	r3, fp
 1001 0020 03D8     		bhi	.L140
 1002              		.loc 1 195 0
 1003 0022 6268     		ldr	r2, [r4, #4]
 1004 0024 1344     		add	r3, r3, r2
 1005              		.loc 1 194 0
 1006 0026 5B45     		cmp	r3, fp
 1007 0028 05D8     		bhi	.L141
 1008              	.L140:
 1009              		.loc 1 193 0
 1010 002a 646A     		ldr	r4, [r4, #36]
 1011              	.LVL109:
 1012 002c 002C     		cmp	r4, #0
 1013 002e F5D1     		bne	.L142
 1014              	.L139:
 1015              	.LVL110:
 1016              	.LBE60:
 1017              	.LBE59:
 1018              		.loc 1 220 0
 1019 0030 0023     		movs	r3, #0
 1020 0032 1B68     		ldr	r3, [r3]
 1021 0034 FFDE     		.inst	0xdeff
 1022              	.LVL111:
 1023              	.L141:
 1024 0036 009A     		ldr	r2, [sp]
 1025              	.LBB61:
 1026              	.LBB62:
ARM GAS  /tmp/cchTXGQu.s 			page 19


 1027              		.loc 1 250 0
 1028 0038 E16A     		ldr	r1, [r4, #44]
 1029              	.LBE62:
 1030              	.LBE61:
 1031              		.loc 1 220 0
 1032 003a 5A44     		add	r2, r2, fp
 1033 003c 9A42     		cmp	r2, r3
 1034 003e 28BF     		it	cs
 1035 0040 1A46     		movcs	r2, r3
 1036              		.loc 1 221 0
 1037 0042 A2EB0B03 		sub	r3, r2, fp
 1038              		.loc 1 220 0
 1039 0046 0492     		str	r2, [sp, #16]
 1040              	.LVL112:
 1041              		.loc 1 221 0
 1042 0048 0293     		str	r3, [sp, #8]
 1043              	.LVL113:
 1044              	.LBB67:
 1045              	.LBB65:
 1046              		.loc 1 250 0
 1047 004a 0029     		cmp	r1, #0
 1048 004c 46D0     		beq	.L163
 1049              	.LVL114:
 1050              	.L143:
 1051              		.loc 1 255 0
 1052 004e 029F     		ldr	r7, [sp, #8]
 1053 0050 002F     		cmp	r7, #0
 1054 0052 34D0     		beq	.L144
 1055 0054 DDF80480 		ldr	r8, [sp, #4]
 1056 0058 4FF0000A 		mov	r10, #0
 1057 005c B946     		mov	r9, r7
 1058              	.LVL115:
 1059              	.L147:
 1060              	.LBB63:
 1061              		.loc 1 256 0
 1062 005e 226A     		ldr	r2, [r4, #32]
 1063              		.loc 1 258 0
 1064 0060 A06A     		ldr	r0, [r4, #40]
 1065              		.loc 1 256 0
 1066 0062 BBFBF2F5 		udiv	r5, fp, r2
 1067 0066 02FB15B5 		mls	r5, r2, r5, fp
 1068              	.LVL116:
 1069              		.loc 1 257 0
 1070 006a ABEB0506 		sub	r6, fp, r5
 1071              	.LVL117:
 1072              		.loc 1 258 0
 1073 006e 8642     		cmp	r6, r0
 1074 0070 E16A     		ldr	r1, [r4, #44]
 1075 0072 12D0     		beq	.L145
 1076              		.loc 1 259 0
 1077 0074 431C     		adds	r3, r0, #1
 1078 0076 09D0     		beq	.L146
 1079              		.loc 1 261 0
 1080 0078 1346     		mov	r3, r2
 1081 007a 2769     		ldr	r7, [r4, #16]
 1082 007c 0A46     		mov	r2, r1
 1083 007e 0146     		mov	r1, r0
ARM GAS  /tmp/cchTXGQu.s 			page 20


 1084 0080 2046     		mov	r0, r4
 1085 0082 B847     		blx	r7
 1086              	.LVL118:
 1087 0084 E16A     		ldr	r1, [r4, #44]
 1088 0086 226A     		ldr	r2, [r4, #32]
 1089 0088 4AEA000A 		orr	r10, r10, r0
 1090              	.LVL119:
 1091              	.L146:
 1092              		.loc 1 266 0
 1093 008c 0846     		mov	r0, r1
 1094              		.loc 1 265 0
 1095 008e A662     		str	r6, [r4, #40]
 1096              		.loc 1 266 0
 1097 0090 217F     		ldrb	r1, [r4, #28]	@ zero_extendqisi2
 1098 0092 FFF7FEFF 		bl	memset
 1099              	.LVL120:
 1100 0096 226A     		ldr	r2, [r4, #32]
 1101 0098 E16A     		ldr	r1, [r4, #44]
 1102              	.L145:
 1103              		.loc 1 269 0
 1104 009a 561B     		subs	r6, r2, r5
 1105              	.LVL121:
 1106 009c 4E45     		cmp	r6, r9
 1107 009e 28BF     		it	cs
 1108 00a0 4E46     		movcs	r6, r9
 1109              	.LVL122:
 1110              		.loc 1 270 0
 1111 00a2 4819     		adds	r0, r1, r5
 1112 00a4 3246     		mov	r2, r6
 1113 00a6 4146     		mov	r1, r8
 1114 00a8 FFF7FEFF 		bl	memcpy
 1115              	.LVL123:
 1116              	.LBE63:
 1117              		.loc 1 255 0
 1118 00ac B9EB0609 		subs	r9, r9, r6
 1119              	.LVL124:
 1120              	.LBB64:
 1121              		.loc 1 271 0
 1122 00b0 B344     		add	fp, fp, r6
 1123              	.LVL125:
 1124              		.loc 1 272 0
 1125 00b2 B044     		add	r8, r8, r6
 1126              	.LVL126:
 1127              	.LBE64:
 1128              		.loc 1 255 0
 1129 00b4 D3D1     		bne	.L147
 1130 00b6 039B     		ldr	r3, [sp, #12]
 1131 00b8 43EA0A03 		orr	r3, r3, r10
 1132 00bc 0393     		str	r3, [sp, #12]
 1133              	.LVL127:
 1134              	.L144:
 1135              	.LBE65:
 1136              	.LBE67:
 1137              		.loc 1 224 0
 1138 00be 019A     		ldr	r2, [sp, #4]
 1139 00c0 029B     		ldr	r3, [sp, #8]
 1140              		.loc 1 220 0
ARM GAS  /tmp/cchTXGQu.s 			page 21


 1141 00c2 DDF810B0 		ldr	fp, [sp, #16]
 1142              		.loc 1 224 0
 1143 00c6 1146     		mov	r1, r2
 1144              	.LBE58:
 1145              		.loc 1 218 0
 1146 00c8 009A     		ldr	r2, [sp]
 1147              	.LBB69:
 1148              		.loc 1 224 0
 1149 00ca 1944     		add	r1, r1, r3
 1150              	.LBE69:
 1151              		.loc 1 218 0
 1152 00cc D31A     		subs	r3, r2, r3
 1153              	.LBB70:
 1154              		.loc 1 224 0
 1155 00ce 0191     		str	r1, [sp, #4]
 1156              	.LVL128:
 1157              	.LBE70:
 1158              		.loc 1 218 0
 1159 00d0 0093     		str	r3, [sp]
 1160 00d2 A0D1     		bne	.L148
 1161              		.loc 1 228 0
 1162 00d4 0398     		ldr	r0, [sp, #12]
 1163 00d6 07B0     		add	sp, sp, #28
 1164              		.cfi_remember_state
 1165              		.cfi_def_cfa_offset 36
 1166              		@ sp needed
 1167 00d8 BDE8F08F 		pop	{r4, r5, r6, r7, r8, r9, r10, fp, pc}
 1168              	.LVL129:
 1169              	.L163:
 1170              		.cfi_restore_state
 1171              	.LBB71:
 1172              	.LBB68:
 1173              	.LBB66:
 1174              		.loc 1 252 0
 1175 00dc 206A     		ldr	r0, [r4, #32]
 1176 00de FFF7FEFF 		bl	malloc
 1177              	.LVL130:
 1178              		.loc 1 253 0
 1179 00e2 4FF0FF33 		mov	r3, #-1
 1180              		.loc 1 252 0
 1181 00e6 C4E90A30 		strd	r3, r0, [r4, #40]
 1182 00ea B0E7     		b	.L143
 1183              	.LVL131:
 1184              	.L149:
 1185              	.LBE66:
 1186              	.LBE68:
 1187              	.LBE71:
 1188              		.loc 1 217 0
 1189 00ec 009B     		ldr	r3, [sp]
 1190              	.LVL132:
 1191 00ee 0393     		str	r3, [sp, #12]
 1192              		.loc 1 228 0
 1193 00f0 0398     		ldr	r0, [sp, #12]
 1194              	.LVL133:
 1195 00f2 07B0     		add	sp, sp, #28
 1196              		.cfi_def_cfa_offset 36
 1197              	.LVL134:
ARM GAS  /tmp/cchTXGQu.s 			page 22


 1198              		@ sp needed
 1199 00f4 BDE8F08F 		pop	{r4, r5, r6, r7, r8, r9, r10, fp, pc}
 1200              		.cfi_endproc
 1201              	.LFE273:
 1202              		.size	target_flash_write, .-target_flash_write
 1203              		.section	.text.target_flash_done,"ax",%progbits
 1204              		.align	1
 1205              		.p2align 4,,15
 1206              		.global	target_flash_done
 1207              		.syntax unified
 1208              		.thumb
 1209              		.thumb_func
 1210              		.fpu fpv4-sp-d16
 1211              		.type	target_flash_done, %function
 1212              	target_flash_done:
 1213              	.LFB274:
 1214              		.loc 1 231 0
 1215              		.cfi_startproc
 1216              		@ args = 0, pretend = 0, frame = 0
 1217              		@ frame_needed = 0, uses_anonymous_args = 0
 1218              	.LVL135:
 1219 0000 F8B5     		push	{r3, r4, r5, r6, r7, lr}
 1220              		.cfi_def_cfa_offset 24
 1221              		.cfi_offset 3, -24
 1222              		.cfi_offset 4, -20
 1223              		.cfi_offset 5, -16
 1224              		.cfi_offset 6, -12
 1225              		.cfi_offset 7, -8
 1226              		.cfi_offset 14, -4
 1227              	.LBB77:
 1228              		.loc 1 232 0
 1229 0002 C46D     		ldr	r4, [r0, #92]
 1230              	.LVL136:
 1231 0004 04B3     		cbz	r4, .L165
 1232              	.LBB78:
 1233              	.LBB79:
 1234              	.LBB80:
 1235              		.loc 1 284 0
 1236 0006 4FF0FF37 		mov	r7, #-1
 1237              		.loc 1 286 0
 1238 000a 0026     		movs	r6, #0
 1239 000c 06E0     		b	.L171
 1240              	.LVL137:
 1241              	.L169:
 1242              	.LBE80:
 1243              	.LBE79:
 1244              		.loc 1 236 0
 1245 000e 6369     		ldr	r3, [r4, #20]
 1246              	.LBB82:
 1247              		.loc 1 237 0
 1248 0010 2046     		mov	r0, r4
 1249              	.LBE82:
 1250              		.loc 1 236 0
 1251 0012 0BB1     		cbz	r3, .L168
 1252              	.LVL138:
 1253              	.LBB83:
 1254              		.loc 1 237 0
ARM GAS  /tmp/cchTXGQu.s 			page 23


 1255 0014 9847     		blx	r3
 1256              	.LVL139:
 1257              		.loc 1 238 0
 1258 0016 B8B9     		cbnz	r0, .L165
 1259              	.LVL140:
 1260              	.L168:
 1261              	.LBE83:
 1262              	.LBE78:
 1263              		.loc 1 232 0
 1264 0018 646A     		ldr	r4, [r4, #36]
 1265              	.LVL141:
 1266 001a ACB1     		cbz	r4, .L165
 1267              	.L171:
 1268              	.LVL142:
 1269              	.LBB85:
 1270              	.LBB84:
 1271              	.LBB81:
 1272              		.loc 1 281 0
 1273 001c E36A     		ldr	r3, [r4, #44]
 1274              		.loc 1 283 0
 1275 001e 2046     		mov	r0, r4
 1276 0020 1A46     		mov	r2, r3
 1277              		.loc 1 281 0
 1278 0022 002B     		cmp	r3, #0
 1279 0024 F3D0     		beq	.L169
 1280              	.LVL143:
 1281 0026 A36A     		ldr	r3, [r4, #40]
 1282              		.loc 1 283 0
 1283 0028 1946     		mov	r1, r3
 1284              		.loc 1 281 0
 1285 002a 0133     		adds	r3, r3, #1
 1286 002c EFD0     		beq	.L169
 1287              		.loc 1 283 0
 1288 002e 2569     		ldr	r5, [r4, #16]
 1289 0030 236A     		ldr	r3, [r4, #32]
 1290 0032 A847     		blx	r5
 1291              	.LVL144:
 1292              		.loc 1 284 0
 1293 0034 A762     		str	r7, [r4, #40]
 1294              		.loc 1 283 0
 1295 0036 0546     		mov	r5, r0
 1296              	.LVL145:
 1297              		.loc 1 285 0
 1298 0038 E06A     		ldr	r0, [r4, #44]
 1299              	.LVL146:
 1300 003a FFF7FEFF 		bl	free
 1301              	.LVL147:
 1302              		.loc 1 286 0
 1303 003e E662     		str	r6, [r4, #44]
 1304              	.LVL148:
 1305              	.LBE81:
 1306              	.LBE84:
 1307              		.loc 1 234 0
 1308 0040 002D     		cmp	r5, #0
 1309 0042 E4D0     		beq	.L169
 1310              	.LBE85:
 1311              	.LBE77:
ARM GAS  /tmp/cchTXGQu.s 			page 24


 1312              		.loc 1 243 0
 1313 0044 2846     		mov	r0, r5
 1314 0046 F8BD     		pop	{r3, r4, r5, r6, r7, pc}
 1315              	.LVL149:
 1316              	.L165:
 1317              		.loc 1 242 0
 1318 0048 0025     		movs	r5, #0
 1319              		.loc 1 243 0
 1320 004a 2846     		mov	r0, r5
 1321 004c F8BD     		pop	{r3, r4, r5, r6, r7, pc}
 1322              		.cfi_endproc
 1323              	.LFE274:
 1324              		.size	target_flash_done, .-target_flash_done
 1325 004e 00BF     		.section	.text.target_detach,"ax",%progbits
 1326              		.align	1
 1327              		.p2align 4,,15
 1328              		.global	target_detach
 1329              		.syntax unified
 1330              		.thumb
 1331              		.thumb_func
 1332              		.fpu fpv4-sp-d16
 1333              		.type	target_detach, %function
 1334              	target_detach:
 1335              	.LFB277:
 1336              		.loc 1 294 0
 1337              		.cfi_startproc
 1338              		@ args = 0, pretend = 0, frame = 0
 1339              		@ frame_needed = 0, uses_anonymous_args = 0
 1340              	.LVL150:
 1341 0000 10B5     		push	{r4, lr}
 1342              		.cfi_def_cfa_offset 8
 1343              		.cfi_offset 4, -8
 1344              		.cfi_offset 14, -4
 1345              		.loc 1 295 0
 1346 0002 C368     		ldr	r3, [r0, #12]
 1347              		.loc 1 294 0
 1348 0004 0446     		mov	r4, r0
 1349              		.loc 1 295 0
 1350 0006 9847     		blx	r3
 1351              	.LVL151:
 1352              		.loc 1 296 0
 1353 0008 0023     		movs	r3, #0
 1354 000a 2370     		strb	r3, [r4]
 1355              		.loc 1 301 0
 1356 000c 10BD     		pop	{r4, pc}
 1357              		.cfi_endproc
 1358              	.LFE277:
 1359              		.size	target_detach, .-target_detach
 1360 000e 00BF     		.section	.text.target_check_error,"ax",%progbits
 1361              		.align	1
 1362              		.p2align 4,,15
 1363              		.global	target_check_error
 1364              		.syntax unified
 1365              		.thumb
 1366              		.thumb_func
 1367              		.fpu fpv4-sp-d16
 1368              		.type	target_check_error, %function
ARM GAS  /tmp/cchTXGQu.s 			page 25


 1369              	target_check_error:
 1370              	.LFB278:
 1371              		.loc 1 303 0
 1372              		.cfi_startproc
 1373              		@ args = 0, pretend = 0, frame = 0
 1374              		@ frame_needed = 0, uses_anonymous_args = 0
 1375              		@ link register save eliminated.
 1376              	.LVL152:
 1377              		.loc 1 303 0
 1378 0000 0369     		ldr	r3, [r0, #16]
 1379 0002 1847     		bx	r3
 1380              	.LVL153:
 1381              		.cfi_endproc
 1382              	.LFE278:
 1383              		.size	target_check_error, .-target_check_error
 1384              		.section	.text.target_attached,"ax",%progbits
 1385              		.align	1
 1386              		.p2align 4,,15
 1387              		.global	target_attached
 1388              		.syntax unified
 1389              		.thumb
 1390              		.thumb_func
 1391              		.fpu fpv4-sp-d16
 1392              		.type	target_attached, %function
 1393              	target_attached:
 1394              	.LFB279:
 1395              		.loc 1 304 0
 1396              		.cfi_startproc
 1397              		@ args = 0, pretend = 0, frame = 0
 1398              		@ frame_needed = 0, uses_anonymous_args = 0
 1399              		@ link register save eliminated.
 1400              	.LVL154:
 1401              		.loc 1 304 0
 1402 0000 0078     		ldrb	r0, [r0]	@ zero_extendqisi2
 1403              	.LVL155:
 1404 0002 7047     		bx	lr
 1405              		.cfi_endproc
 1406              	.LFE279:
 1407              		.size	target_attached, .-target_attached
 1408              		.section	.text.target_mem_read,"ax",%progbits
 1409              		.align	1
 1410              		.p2align 4,,15
 1411              		.global	target_mem_read
 1412              		.syntax unified
 1413              		.thumb
 1414              		.thumb_func
 1415              		.fpu fpv4-sp-d16
 1416              		.type	target_mem_read, %function
 1417              	target_mem_read:
 1418              	.LFB280:
 1419              		.loc 1 308 0
 1420              		.cfi_startproc
 1421              		@ args = 0, pretend = 0, frame = 0
 1422              		@ frame_needed = 0, uses_anonymous_args = 0
 1423              	.LVL156:
 1424 0000 38B5     		push	{r3, r4, r5, lr}
 1425              		.cfi_def_cfa_offset 16
ARM GAS  /tmp/cchTXGQu.s 			page 26


 1426              		.cfi_offset 3, -16
 1427              		.cfi_offset 4, -12
 1428              		.cfi_offset 5, -8
 1429              		.cfi_offset 14, -4
 1430              		.loc 1 308 0
 1431 0002 0446     		mov	r4, r0
 1432              		.loc 1 309 0
 1433 0004 4569     		ldr	r5, [r0, #20]
 1434 0006 A847     		blx	r5
 1435              	.LVL157:
 1436              	.LBB86:
 1437              	.LBB87:
 1438              		.loc 1 303 0
 1439 0008 2369     		ldr	r3, [r4, #16]
 1440 000a 2046     		mov	r0, r4
 1441 000c 9847     		blx	r3
 1442              	.LVL158:
 1443              	.LBE87:
 1444              	.LBE86:
 1445              		.loc 1 311 0
 1446 000e 38BD     		pop	{r3, r4, r5, pc}
 1447              		.cfi_endproc
 1448              	.LFE280:
 1449              		.size	target_mem_read, .-target_mem_read
 1450              		.section	.text.target_mem_write,"ax",%progbits
 1451              		.align	1
 1452              		.p2align 4,,15
 1453              		.global	target_mem_write
 1454              		.syntax unified
 1455              		.thumb
 1456              		.thumb_func
 1457              		.fpu fpv4-sp-d16
 1458              		.type	target_mem_write, %function
 1459              	target_mem_write:
 1460              	.LFB281:
 1461              		.loc 1 314 0
 1462              		.cfi_startproc
 1463              		@ args = 0, pretend = 0, frame = 0
 1464              		@ frame_needed = 0, uses_anonymous_args = 0
 1465              	.LVL159:
 1466 0000 38B5     		push	{r3, r4, r5, lr}
 1467              		.cfi_def_cfa_offset 16
 1468              		.cfi_offset 3, -16
 1469              		.cfi_offset 4, -12
 1470              		.cfi_offset 5, -8
 1471              		.cfi_offset 14, -4
 1472              		.loc 1 314 0
 1473 0002 0446     		mov	r4, r0
 1474              		.loc 1 315 0
 1475 0004 8569     		ldr	r5, [r0, #24]
 1476 0006 A847     		blx	r5
 1477              	.LVL160:
 1478              	.LBB88:
 1479              	.LBB89:
 1480              		.loc 1 303 0
 1481 0008 2369     		ldr	r3, [r4, #16]
 1482 000a 2046     		mov	r0, r4
ARM GAS  /tmp/cchTXGQu.s 			page 27


 1483 000c 9847     		blx	r3
 1484              	.LVL161:
 1485              	.LBE89:
 1486              	.LBE88:
 1487              		.loc 1 317 0
 1488 000e 38BD     		pop	{r3, r4, r5, pc}
 1489              		.cfi_endproc
 1490              	.LFE281:
 1491              		.size	target_mem_write, .-target_mem_write
 1492              		.section	.text.target_regs_read,"ax",%progbits
 1493              		.align	1
 1494              		.p2align 4,,15
 1495              		.global	target_regs_read
 1496              		.syntax unified
 1497              		.thumb
 1498              		.thumb_func
 1499              		.fpu fpv4-sp-d16
 1500              		.type	target_regs_read, %function
 1501              	target_regs_read:
 1502              	.LFB282:
 1503              		.loc 1 320 0
 1504              		.cfi_startproc
 1505              		@ args = 0, pretend = 0, frame = 0
 1506              		@ frame_needed = 0, uses_anonymous_args = 0
 1507              		@ link register save eliminated.
 1508              	.LVL162:
 1509              		.loc 1 320 0
 1510 0000 436A     		ldr	r3, [r0, #36]
 1511 0002 1847     		bx	r3	@ indirect register sibling call
 1512              	.LVL163:
 1513              		.cfi_endproc
 1514              	.LFE282:
 1515              		.size	target_regs_read, .-target_regs_read
 1516              		.section	.text.target_regs_write,"ax",%progbits
 1517              		.align	1
 1518              		.p2align 4,,15
 1519              		.global	target_regs_write
 1520              		.syntax unified
 1521              		.thumb
 1522              		.thumb_func
 1523              		.fpu fpv4-sp-d16
 1524              		.type	target_regs_write, %function
 1525              	target_regs_write:
 1526              	.LFB283:
 1527              		.loc 1 321 0
 1528              		.cfi_startproc
 1529              		@ args = 0, pretend = 0, frame = 0
 1530              		@ frame_needed = 0, uses_anonymous_args = 0
 1531              		@ link register save eliminated.
 1532              	.LVL164:
 1533              		.loc 1 321 0
 1534 0000 836A     		ldr	r3, [r0, #40]
 1535 0002 1847     		bx	r3	@ indirect register sibling call
 1536              	.LVL165:
 1537              		.cfi_endproc
 1538              	.LFE283:
 1539              		.size	target_regs_write, .-target_regs_write
ARM GAS  /tmp/cchTXGQu.s 			page 28


 1540              		.section	.text.target_idcode,"ax",%progbits
 1541              		.align	1
 1542              		.p2align 4,,15
 1543              		.global	target_idcode
 1544              		.syntax unified
 1545              		.thumb
 1546              		.thumb_func
 1547              		.fpu fpv4-sp-d16
 1548              		.type	target_idcode, %function
 1549              	target_idcode:
 1550              	.LFB284:
 1551              		.loc 1 323 0
 1552              		.cfi_startproc
 1553              		@ args = 0, pretend = 0, frame = 0
 1554              		@ frame_needed = 0, uses_anonymous_args = 0
 1555              		@ link register save eliminated.
 1556              	.LVL166:
 1557              		.loc 1 323 0
 1558 0000 006D     		ldr	r0, [r0, #80]
 1559              	.LVL167:
 1560 0002 7047     		bx	lr
 1561              		.cfi_endproc
 1562              	.LFE284:
 1563              		.size	target_idcode, .-target_idcode
 1564              		.section	.text.target_reset,"ax",%progbits
 1565              		.align	1
 1566              		.p2align 4,,15
 1567              		.global	target_reset
 1568              		.syntax unified
 1569              		.thumb
 1570              		.thumb_func
 1571              		.fpu fpv4-sp-d16
 1572              		.type	target_reset, %function
 1573              	target_reset:
 1574              	.LFB285:
 1575              		.loc 1 326 0
 1576              		.cfi_startproc
 1577              		@ args = 0, pretend = 0, frame = 0
 1578              		@ frame_needed = 0, uses_anonymous_args = 0
 1579              		@ link register save eliminated.
 1580              	.LVL168:
 1581              		.loc 1 326 0
 1582 0000 C36A     		ldr	r3, [r0, #44]
 1583 0002 1847     		bx	r3	@ indirect register sibling call
 1584              	.LVL169:
 1585              		.cfi_endproc
 1586              	.LFE285:
 1587              		.size	target_reset, .-target_reset
 1588              		.section	.text.target_halt_request,"ax",%progbits
 1589              		.align	1
 1590              		.p2align 4,,15
 1591              		.global	target_halt_request
 1592              		.syntax unified
 1593              		.thumb
 1594              		.thumb_func
 1595              		.fpu fpv4-sp-d16
 1596              		.type	target_halt_request, %function
ARM GAS  /tmp/cchTXGQu.s 			page 29


 1597              	target_halt_request:
 1598              	.LFB286:
 1599              		.loc 1 327 0
 1600              		.cfi_startproc
 1601              		@ args = 0, pretend = 0, frame = 0
 1602              		@ frame_needed = 0, uses_anonymous_args = 0
 1603              		@ link register save eliminated.
 1604              	.LVL170:
 1605              		.loc 1 327 0
 1606 0000 436B     		ldr	r3, [r0, #52]
 1607 0002 1847     		bx	r3	@ indirect register sibling call
 1608              	.LVL171:
 1609              		.cfi_endproc
 1610              	.LFE286:
 1611              		.size	target_halt_request, .-target_halt_request
 1612              		.section	.text.target_halt_poll,"ax",%progbits
 1613              		.align	1
 1614              		.p2align 4,,15
 1615              		.global	target_halt_poll
 1616              		.syntax unified
 1617              		.thumb
 1618              		.thumb_func
 1619              		.fpu fpv4-sp-d16
 1620              		.type	target_halt_poll, %function
 1621              	target_halt_poll:
 1622              	.LFB287:
 1623              		.loc 1 329 0
 1624              		.cfi_startproc
 1625              		@ args = 0, pretend = 0, frame = 0
 1626              		@ frame_needed = 0, uses_anonymous_args = 0
 1627              		@ link register save eliminated.
 1628              	.LVL172:
 1629              		.loc 1 330 0
 1630 0000 836B     		ldr	r3, [r0, #56]
 1631 0002 1847     		bx	r3
 1632              	.LVL173:
 1633              		.cfi_endproc
 1634              	.LFE287:
 1635              		.size	target_halt_poll, .-target_halt_poll
 1636              		.section	.text.target_halt_resume,"ax",%progbits
 1637              		.align	1
 1638              		.p2align 4,,15
 1639              		.global	target_halt_resume
 1640              		.syntax unified
 1641              		.thumb
 1642              		.thumb_func
 1643              		.fpu fpv4-sp-d16
 1644              		.type	target_halt_resume, %function
 1645              	target_halt_resume:
 1646              	.LFB288:
 1647              		.loc 1 333 0
 1648              		.cfi_startproc
 1649              		@ args = 0, pretend = 0, frame = 0
 1650              		@ frame_needed = 0, uses_anonymous_args = 0
 1651              		@ link register save eliminated.
 1652              	.LVL174:
 1653              		.loc 1 333 0
ARM GAS  /tmp/cchTXGQu.s 			page 30


 1654 0000 C36B     		ldr	r3, [r0, #60]
 1655 0002 1847     		bx	r3	@ indirect register sibling call
 1656              	.LVL175:
 1657              		.cfi_endproc
 1658              	.LFE288:
 1659              		.size	target_halt_resume, .-target_halt_resume
 1660              		.section	.text.target_breakwatch_set,"ax",%progbits
 1661              		.align	1
 1662              		.p2align 4,,15
 1663              		.global	target_breakwatch_set
 1664              		.syntax unified
 1665              		.thumb
 1666              		.thumb_func
 1667              		.fpu fpv4-sp-d16
 1668              		.type	target_breakwatch_set, %function
 1669              	target_breakwatch_set:
 1670              	.LFB289:
 1671              		.loc 1 338 0
 1672              		.cfi_startproc
 1673              		@ args = 0, pretend = 0, frame = 32
 1674              		@ frame_needed = 0, uses_anonymous_args = 0
 1675              	.LVL176:
 1676 0000 F0B5     		push	{r4, r5, r6, r7, lr}
 1677              		.cfi_def_cfa_offset 20
 1678              		.cfi_offset 4, -20
 1679              		.cfi_offset 5, -16
 1680              		.cfi_offset 6, -12
 1681              		.cfi_offset 7, -8
 1682              		.cfi_offset 14, -4
 1683 0002 0646     		mov	r6, r0
 1684 0004 89B0     		sub	sp, sp, #36
 1685              		.cfi_def_cfa_offset 56
 1686              		.loc 1 338 0
 1687 0006 0F46     		mov	r7, r1
 1688 0008 1546     		mov	r5, r2
 1689              		.loc 1 339 0
 1690 000a 6846     		mov	r0, sp
 1691              	.LVL177:
 1692 000c 2022     		movs	r2, #32
 1693              	.LVL178:
 1694 000e 0021     		movs	r1, #0
 1695              	.LVL179:
 1696              		.loc 1 338 0
 1697 0010 1C46     		mov	r4, r3
 1698              		.loc 1 339 0
 1699 0012 FFF7FEFF 		bl	memset
 1700              	.LVL180:
 1701              		.loc 1 346 0
 1702 0016 326C     		ldr	r2, [r6, #64]
 1703              		.loc 1 339 0
 1704 0018 8DF80470 		strb	r7, [sp, #4]
 1705 001c CDE90254 		strd	r5, r4, [sp, #8]
 1706              	.LVL181:
 1707              		.loc 1 346 0
 1708 0020 C2B1     		cbz	r2, .L200
 1709              		.loc 1 347 0
 1710 0022 6946     		mov	r1, sp
ARM GAS  /tmp/cchTXGQu.s 			page 31


 1711 0024 3046     		mov	r0, r6
 1712 0026 9047     		blx	r2
 1713              	.LVL182:
 1714              		.loc 1 349 0
 1715 0028 0746     		mov	r7, r0
 1716 002a 80B9     		cbnz	r0, .L198
 1717              	.LBB90:
 1718              		.loc 1 351 0
 1719 002c 2020     		movs	r0, #32
 1720              	.LVL183:
 1721 002e FFF7FEFF 		bl	malloc
 1722              	.LVL184:
 1723              		.loc 1 352 0
 1724 0032 6C46     		mov	r4, sp
 1725              	.LVL185:
 1726              		.loc 1 351 0
 1727 0034 8446     		mov	ip, r0
 1728              	.LVL186:
 1729              		.loc 1 352 0
 1730 0036 0FCC     		ldmia	r4!, {r0, r1, r2, r3}
 1731              	.LVL187:
 1732 0038 6546     		mov	r5, ip
 1733              	.LVL188:
 1734 003a 0FC5     		stmia	r5!, {r0, r1, r2, r3}
 1735 003c 94E80F00 		ldm	r4, {r0, r1, r2, r3}
 1736              		.loc 1 353 0
 1737 0040 B46C     		ldr	r4, [r6, #72]
 1738              		.loc 1 354 0
 1739 0042 C6F848C0 		str	ip, [r6, #72]
 1740              		.loc 1 352 0
 1741 0046 85E80F00 		stm	r5, {r0, r1, r2, r3}
 1742              		.loc 1 353 0
 1743 004a CCF80040 		str	r4, [ip]
 1744              	.LVL189:
 1745              	.L198:
 1746              	.LBE90:
 1747              		.loc 1 358 0
 1748 004e 3846     		mov	r0, r7
 1749 0050 09B0     		add	sp, sp, #36
 1750              		.cfi_remember_state
 1751              		.cfi_def_cfa_offset 20
 1752              		@ sp needed
 1753 0052 F0BD     		pop	{r4, r5, r6, r7, pc}
 1754              	.LVL190:
 1755              	.L200:
 1756              		.cfi_restore_state
 1757              		.loc 1 344 0
 1758 0054 0127     		movs	r7, #1
 1759              		.loc 1 357 0
 1760 0056 FAE7     		b	.L198
 1761              		.cfi_endproc
 1762              	.LFE289:
 1763              		.size	target_breakwatch_set, .-target_breakwatch_set
 1764              		.section	.text.target_breakwatch_clear,"ax",%progbits
 1765              		.align	1
 1766              		.p2align 4,,15
 1767              		.global	target_breakwatch_clear
ARM GAS  /tmp/cchTXGQu.s 			page 32


 1768              		.syntax unified
 1769              		.thumb
 1770              		.thumb_func
 1771              		.fpu fpv4-sp-d16
 1772              		.type	target_breakwatch_clear, %function
 1773              	target_breakwatch_clear:
 1774              	.LFB290:
 1775              		.loc 1 362 0
 1776              		.cfi_startproc
 1777              		@ args = 0, pretend = 0, frame = 0
 1778              		@ frame_needed = 0, uses_anonymous_args = 0
 1779              	.LVL191:
 1780 0000 F8B5     		push	{r3, r4, r5, r6, r7, lr}
 1781              		.cfi_def_cfa_offset 24
 1782              		.cfi_offset 3, -24
 1783              		.cfi_offset 4, -20
 1784              		.cfi_offset 5, -16
 1785              		.cfi_offset 6, -12
 1786              		.cfi_offset 7, -8
 1787              		.cfi_offset 14, -4
 1788              		.loc 1 365 0
 1789 0002 846C     		ldr	r4, [r0, #72]
 1790              	.LVL192:
 1791 0004 ECB1     		cbz	r4, .L210
 1792              		.loc 1 363 0
 1793 0006 0026     		movs	r6, #0
 1794 0008 03E0     		b	.L206
 1795              	.LVL193:
 1796              	.L204:
 1797              		.loc 1 365 0 discriminator 2
 1798 000a 2568     		ldr	r5, [r4]
 1799              	.LVL194:
 1800 000c 2646     		mov	r6, r4
 1801 000e C5B1     		cbz	r5, .L210
 1802 0010 2C46     		mov	r4, r5
 1803              	.LVL195:
 1804              	.L206:
 1805              		.loc 1 366 0
 1806 0012 2579     		ldrb	r5, [r4, #4]	@ zero_extendqisi2
 1807 0014 8D42     		cmp	r5, r1
 1808 0016 F8D1     		bne	.L204
 1809              		.loc 1 366 0 is_stmt 0 discriminator 1
 1810 0018 A568     		ldr	r5, [r4, #8]
 1811 001a 9542     		cmp	r5, r2
 1812 001c F5D1     		bne	.L204
 1813              		.loc 1 367 0 is_stmt 1
 1814 001e E568     		ldr	r5, [r4, #12]
 1815 0020 9D42     		cmp	r5, r3
 1816 0022 F2D1     		bne	.L204
 1817              		.loc 1 374 0
 1818 0024 436C     		ldr	r3, [r0, #68]
 1819              	.LVL196:
 1820 0026 93B1     		cbz	r3, .L213
 1821              		.loc 1 375 0
 1822 0028 2146     		mov	r1, r4
 1823              	.LVL197:
 1824 002a 0546     		mov	r5, r0
ARM GAS  /tmp/cchTXGQu.s 			page 33


 1825 002c 9847     		blx	r3
 1826              	.LVL198:
 1827              		.loc 1 377 0
 1828 002e 0746     		mov	r7, r0
 1829 0030 28B9     		cbnz	r0, .L202
 1830 0032 2368     		ldr	r3, [r4]
 1831              		.loc 1 378 0
 1832 0034 4EB1     		cbz	r6, .L214
 1833              		.loc 1 381 0
 1834 0036 3360     		str	r3, [r6]
 1835              	.L208:
 1836              		.loc 1 383 0
 1837 0038 2046     		mov	r0, r4
 1838              	.LVL199:
 1839 003a FFF7FEFF 		bl	free
 1840              	.LVL200:
 1841              	.L202:
 1842              		.loc 1 386 0
 1843 003e 3846     		mov	r0, r7
 1844 0040 F8BD     		pop	{r3, r4, r5, r6, r7, pc}
 1845              	.LVL201:
 1846              	.L210:
 1847              		.loc 1 372 0
 1848 0042 4FF0FF37 		mov	r7, #-1
 1849              		.loc 1 386 0
 1850 0046 3846     		mov	r0, r7
 1851              	.LVL202:
 1852 0048 F8BD     		pop	{r3, r4, r5, r6, r7, pc}
 1853              	.LVL203:
 1854              	.L214:
 1855              		.loc 1 379 0
 1856 004a AB64     		str	r3, [r5, #72]
 1857 004c F4E7     		b	.L208
 1858              	.LVL204:
 1859              	.L213:
 1860              		.loc 1 364 0
 1861 004e 0127     		movs	r7, #1
 1862 0050 F5E7     		b	.L202
 1863              		.cfi_endproc
 1864              	.LFE290:
 1865              		.size	target_breakwatch_clear, .-target_breakwatch_clear
 1866 0052 00BF     		.section	.text.target_regs_size,"ax",%progbits
 1867              		.align	1
 1868              		.p2align 4,,15
 1869              		.global	target_regs_size
 1870              		.syntax unified
 1871              		.thumb
 1872              		.thumb_func
 1873              		.fpu fpv4-sp-d16
 1874              		.type	target_regs_size, %function
 1875              	target_regs_size:
 1876              	.LFB291:
 1877              		.loc 1 390 0
 1878              		.cfi_startproc
 1879              		@ args = 0, pretend = 0, frame = 0
 1880              		@ frame_needed = 0, uses_anonymous_args = 0
 1881              		@ link register save eliminated.
ARM GAS  /tmp/cchTXGQu.s 			page 34


 1882              	.LVL205:
 1883              		.loc 1 392 0
 1884 0000 C069     		ldr	r0, [r0, #28]
 1885              	.LVL206:
 1886 0002 7047     		bx	lr
 1887              		.cfi_endproc
 1888              	.LFE291:
 1889              		.size	target_regs_size, .-target_regs_size
 1890              		.section	.text.target_tdesc,"ax",%progbits
 1891              		.align	1
 1892              		.p2align 4,,15
 1893              		.global	target_tdesc
 1894              		.syntax unified
 1895              		.thumb
 1896              		.thumb_func
 1897              		.fpu fpv4-sp-d16
 1898              		.type	target_tdesc, %function
 1899              	target_tdesc:
 1900              	.LFB292:
 1901              		.loc 1 395 0
 1902              		.cfi_startproc
 1903              		@ args = 0, pretend = 0, frame = 0
 1904              		@ frame_needed = 0, uses_anonymous_args = 0
 1905              		@ link register save eliminated.
 1906              	.LVL207:
 1907              		.loc 1 396 0
 1908 0000 006A     		ldr	r0, [r0, #32]
 1909              	.LVL208:
 1910 0002 024B     		ldr	r3, .L219
 1911              		.loc 1 397 0
 1912 0004 0028     		cmp	r0, #0
 1913 0006 08BF     		it	eq
 1914 0008 1846     		moveq	r0, r3
 1915 000a 7047     		bx	lr
 1916              	.L220:
 1917              		.align	2
 1918              	.L219:
 1919 000c 00000000 		.word	.LC5
 1920              		.cfi_endproc
 1921              	.LFE292:
 1922              		.size	target_tdesc, .-target_tdesc
 1923              		.section	.text.target_driver_name,"ax",%progbits
 1924              		.align	1
 1925              		.p2align 4,,15
 1926              		.global	target_driver_name
 1927              		.syntax unified
 1928              		.thumb
 1929              		.thumb_func
 1930              		.fpu fpv4-sp-d16
 1931              		.type	target_driver_name, %function
 1932              	target_driver_name:
 1933              	.LFB293:
 1934              		.loc 1 400 0
 1935              		.cfi_startproc
 1936              		@ args = 0, pretend = 0, frame = 0
 1937              		@ frame_needed = 0, uses_anonymous_args = 0
 1938              		@ link register save eliminated.
ARM GAS  /tmp/cchTXGQu.s 			page 35


 1939              	.LVL209:
 1940              		.loc 1 402 0
 1941 0000 006E     		ldr	r0, [r0, #96]
 1942              	.LVL210:
 1943 0002 7047     		bx	lr
 1944              		.cfi_endproc
 1945              	.LFE293:
 1946              		.size	target_driver_name, .-target_driver_name
 1947              		.section	.text.target_mem_read32,"ax",%progbits
 1948              		.align	1
 1949              		.p2align 4,,15
 1950              		.global	target_mem_read32
 1951              		.syntax unified
 1952              		.thumb
 1953              		.thumb_func
 1954              		.fpu fpv4-sp-d16
 1955              		.type	target_mem_read32, %function
 1956              	target_mem_read32:
 1957              	.LFB294:
 1958              		.loc 1 405 0
 1959              		.cfi_startproc
 1960              		@ args = 0, pretend = 0, frame = 8
 1961              		@ frame_needed = 0, uses_anonymous_args = 0
 1962              	.LVL211:
 1963 0000 10B5     		push	{r4, lr}
 1964              		.cfi_def_cfa_offset 8
 1965              		.cfi_offset 4, -8
 1966              		.cfi_offset 14, -4
 1967              		.loc 1 407 0
 1968 0002 0423     		movs	r3, #4
 1969              		.loc 1 405 0
 1970 0004 82B0     		sub	sp, sp, #8
 1971              		.cfi_def_cfa_offset 16
 1972              		.loc 1 407 0
 1973 0006 0A46     		mov	r2, r1
 1974 0008 4469     		ldr	r4, [r0, #20]
 1975 000a 0DEB0301 		add	r1, sp, r3
 1976              	.LVL212:
 1977 000e A047     		blx	r4
 1978              	.LVL213:
 1979              		.loc 1 409 0
 1980 0010 0198     		ldr	r0, [sp, #4]
 1981 0012 02B0     		add	sp, sp, #8
 1982              		.cfi_def_cfa_offset 8
 1983              		@ sp needed
 1984 0014 10BD     		pop	{r4, pc}
 1985              		.cfi_endproc
 1986              	.LFE294:
 1987              		.size	target_mem_read32, .-target_mem_read32
 1988 0016 00BF     		.section	.text.target_mem_write32,"ax",%progbits
 1989              		.align	1
 1990              		.p2align 4,,15
 1991              		.global	target_mem_write32
 1992              		.syntax unified
 1993              		.thumb
 1994              		.thumb_func
 1995              		.fpu fpv4-sp-d16
ARM GAS  /tmp/cchTXGQu.s 			page 36


 1996              		.type	target_mem_write32, %function
 1997              	target_mem_write32:
 1998              	.LFB295:
 1999              		.loc 1 412 0
 2000              		.cfi_startproc
 2001              		@ args = 0, pretend = 0, frame = 8
 2002              		@ frame_needed = 0, uses_anonymous_args = 0
 2003              	.LVL214:
 2004 0000 30B5     		push	{r4, r5, lr}
 2005              		.cfi_def_cfa_offset 12
 2006              		.cfi_offset 4, -12
 2007              		.cfi_offset 5, -8
 2008              		.cfi_offset 14, -4
 2009 0002 83B0     		sub	sp, sp, #12
 2010              		.cfi_def_cfa_offset 24
 2011              		.loc 1 412 0
 2012 0004 02AC     		add	r4, sp, #8
 2013              		.loc 1 413 0
 2014 0006 8569     		ldr	r5, [r0, #24]
 2015              		.loc 1 412 0
 2016 0008 44F8042D 		str	r2, [r4, #-4]!
 2017              		.loc 1 413 0
 2018 000c 0423     		movs	r3, #4
 2019 000e 2246     		mov	r2, r4
 2020              	.LVL215:
 2021 0010 A847     		blx	r5
 2022              	.LVL216:
 2023              		.loc 1 414 0
 2024 0012 03B0     		add	sp, sp, #12
 2025              		.cfi_def_cfa_offset 12
 2026              		@ sp needed
 2027 0014 30BD     		pop	{r4, r5, pc}
 2028              		.cfi_endproc
 2029              	.LFE295:
 2030              		.size	target_mem_write32, .-target_mem_write32
 2031 0016 00BF     		.section	.text.target_mem_read16,"ax",%progbits
 2032              		.align	1
 2033              		.p2align 4,,15
 2034              		.global	target_mem_read16
 2035              		.syntax unified
 2036              		.thumb
 2037              		.thumb_func
 2038              		.fpu fpv4-sp-d16
 2039              		.type	target_mem_read16, %function
 2040              	target_mem_read16:
 2041              	.LFB296:
 2042              		.loc 1 417 0
 2043              		.cfi_startproc
 2044              		@ args = 0, pretend = 0, frame = 8
 2045              		@ frame_needed = 0, uses_anonymous_args = 0
 2046              	.LVL217:
 2047 0000 10B5     		push	{r4, lr}
 2048              		.cfi_def_cfa_offset 8
 2049              		.cfi_offset 4, -8
 2050              		.cfi_offset 14, -4
 2051 0002 82B0     		sub	sp, sp, #8
 2052              		.cfi_def_cfa_offset 16
ARM GAS  /tmp/cchTXGQu.s 			page 37


 2053              		.loc 1 419 0
 2054 0004 0A46     		mov	r2, r1
 2055 0006 4469     		ldr	r4, [r0, #20]
 2056 0008 0223     		movs	r3, #2
 2057 000a 0DF10601 		add	r1, sp, #6
 2058              	.LVL218:
 2059 000e A047     		blx	r4
 2060              	.LVL219:
 2061              		.loc 1 421 0
 2062 0010 BDF80600 		ldrh	r0, [sp, #6]
 2063 0014 02B0     		add	sp, sp, #8
 2064              		.cfi_def_cfa_offset 8
 2065              		@ sp needed
 2066 0016 10BD     		pop	{r4, pc}
 2067              		.cfi_endproc
 2068              	.LFE296:
 2069              		.size	target_mem_read16, .-target_mem_read16
 2070              		.section	.text.target_mem_write16,"ax",%progbits
 2071              		.align	1
 2072              		.p2align 4,,15
 2073              		.global	target_mem_write16
 2074              		.syntax unified
 2075              		.thumb
 2076              		.thumb_func
 2077              		.fpu fpv4-sp-d16
 2078              		.type	target_mem_write16, %function
 2079              	target_mem_write16:
 2080              	.LFB297:
 2081              		.loc 1 424 0
 2082              		.cfi_startproc
 2083              		@ args = 0, pretend = 0, frame = 8
 2084              		@ frame_needed = 0, uses_anonymous_args = 0
 2085              	.LVL220:
 2086 0000 30B5     		push	{r4, r5, lr}
 2087              		.cfi_def_cfa_offset 12
 2088              		.cfi_offset 4, -12
 2089              		.cfi_offset 5, -8
 2090              		.cfi_offset 14, -4
 2091 0002 83B0     		sub	sp, sp, #12
 2092              		.cfi_def_cfa_offset 24
 2093              		.loc 1 424 0
 2094 0004 02AC     		add	r4, sp, #8
 2095              		.loc 1 425 0
 2096 0006 8569     		ldr	r5, [r0, #24]
 2097              		.loc 1 424 0
 2098 0008 24F8022D 		strh	r2, [r4, #-2]!	@ movhi
 2099              		.loc 1 425 0
 2100 000c 0223     		movs	r3, #2
 2101 000e 2246     		mov	r2, r4
 2102              	.LVL221:
 2103 0010 A847     		blx	r5
 2104              	.LVL222:
 2105              		.loc 1 426 0
 2106 0012 03B0     		add	sp, sp, #12
 2107              		.cfi_def_cfa_offset 12
 2108              		@ sp needed
 2109 0014 30BD     		pop	{r4, r5, pc}
ARM GAS  /tmp/cchTXGQu.s 			page 38


 2110              		.cfi_endproc
 2111              	.LFE297:
 2112              		.size	target_mem_write16, .-target_mem_write16
 2113 0016 00BF     		.section	.text.target_mem_read8,"ax",%progbits
 2114              		.align	1
 2115              		.p2align 4,,15
 2116              		.global	target_mem_read8
 2117              		.syntax unified
 2118              		.thumb
 2119              		.thumb_func
 2120              		.fpu fpv4-sp-d16
 2121              		.type	target_mem_read8, %function
 2122              	target_mem_read8:
 2123              	.LFB298:
 2124              		.loc 1 429 0
 2125              		.cfi_startproc
 2126              		@ args = 0, pretend = 0, frame = 8
 2127              		@ frame_needed = 0, uses_anonymous_args = 0
 2128              	.LVL223:
 2129 0000 10B5     		push	{r4, lr}
 2130              		.cfi_def_cfa_offset 8
 2131              		.cfi_offset 4, -8
 2132              		.cfi_offset 14, -4
 2133 0002 82B0     		sub	sp, sp, #8
 2134              		.cfi_def_cfa_offset 16
 2135              		.loc 1 431 0
 2136 0004 0A46     		mov	r2, r1
 2137 0006 4469     		ldr	r4, [r0, #20]
 2138 0008 0123     		movs	r3, #1
 2139 000a 0DF10701 		add	r1, sp, #7
 2140              	.LVL224:
 2141 000e A047     		blx	r4
 2142              	.LVL225:
 2143              		.loc 1 433 0
 2144 0010 9DF80700 		ldrb	r0, [sp, #7]	@ zero_extendqisi2
 2145 0014 02B0     		add	sp, sp, #8
 2146              		.cfi_def_cfa_offset 8
 2147              		@ sp needed
 2148 0016 10BD     		pop	{r4, pc}
 2149              		.cfi_endproc
 2150              	.LFE298:
 2151              		.size	target_mem_read8, .-target_mem_read8
 2152              		.section	.text.target_mem_write8,"ax",%progbits
 2153              		.align	1
 2154              		.p2align 4,,15
 2155              		.global	target_mem_write8
 2156              		.syntax unified
 2157              		.thumb
 2158              		.thumb_func
 2159              		.fpu fpv4-sp-d16
 2160              		.type	target_mem_write8, %function
 2161              	target_mem_write8:
 2162              	.LFB299:
 2163              		.loc 1 436 0
 2164              		.cfi_startproc
 2165              		@ args = 0, pretend = 0, frame = 8
 2166              		@ frame_needed = 0, uses_anonymous_args = 0
ARM GAS  /tmp/cchTXGQu.s 			page 39


 2167              	.LVL226:
 2168 0000 30B5     		push	{r4, r5, lr}
 2169              		.cfi_def_cfa_offset 12
 2170              		.cfi_offset 4, -12
 2171              		.cfi_offset 5, -8
 2172              		.cfi_offset 14, -4
 2173 0002 83B0     		sub	sp, sp, #12
 2174              		.cfi_def_cfa_offset 24
 2175              		.loc 1 436 0
 2176 0004 02AC     		add	r4, sp, #8
 2177              		.loc 1 437 0
 2178 0006 8569     		ldr	r5, [r0, #24]
 2179              		.loc 1 436 0
 2180 0008 04F8012D 		strb	r2, [r4, #-1]!
 2181              		.loc 1 437 0
 2182 000c 0123     		movs	r3, #1
 2183 000e 2246     		mov	r2, r4
 2184              	.LVL227:
 2185 0010 A847     		blx	r5
 2186              	.LVL228:
 2187              		.loc 1 438 0
 2188 0012 03B0     		add	sp, sp, #12
 2189              		.cfi_def_cfa_offset 12
 2190              		@ sp needed
 2191 0014 30BD     		pop	{r4, r5, pc}
 2192              		.cfi_endproc
 2193              	.LFE299:
 2194              		.size	target_mem_write8, .-target_mem_write8
 2195 0016 00BF     		.section	.text.target_command,"ax",%progbits
 2196              		.align	1
 2197              		.p2align 4,,15
 2198              		.global	target_command
 2199              		.syntax unified
 2200              		.thumb
 2201              		.thumb_func
 2202              		.fpu fpv4-sp-d16
 2203              		.type	target_command, %function
 2204              	target_command:
 2205              	.LFB301:
 2206              		.loc 1 450 0
 2207              		.cfi_startproc
 2208              		@ args = 0, pretend = 0, frame = 8
 2209              		@ frame_needed = 0, uses_anonymous_args = 0
 2210              	.LVL229:
 2211 0000 2DE9F047 		push	{r4, r5, r6, r7, r8, r9, r10, lr}
 2212              		.cfi_def_cfa_offset 32
 2213              		.cfi_offset 4, -32
 2214              		.cfi_offset 5, -28
 2215              		.cfi_offset 6, -24
 2216              		.cfi_offset 7, -20
 2217              		.cfi_offset 8, -16
 2218              		.cfi_offset 9, -12
 2219              		.cfi_offset 10, -8
 2220              		.cfi_offset 14, -4
 2221              	.LBB91:
 2222              		.loc 1 451 0
 2223 0004 466E     		ldr	r6, [r0, #100]
ARM GAS  /tmp/cchTXGQu.s 			page 40


 2224              	.LVL230:
 2225              	.LBE91:
 2226              		.loc 1 450 0
 2227 0006 82B0     		sub	sp, sp, #8
 2228              		.cfi_def_cfa_offset 40
 2229              	.LBB93:
 2230              		.loc 1 451 0
 2231 0008 26B3     		cbz	r6, .L240
 2232 000a 8046     		mov	r8, r0
 2233 000c 8946     		mov	r9, r1
 2234 000e 1746     		mov	r7, r2
 2235              	.LVL231:
 2236              	.L239:
 2237              	.LBB92:
 2238              		.loc 1 452 0
 2239 0010 7468     		ldr	r4, [r6, #4]
 2240              	.LVL232:
 2241 0012 2168     		ldr	r1, [r4]
 2242 0014 0191     		str	r1, [sp, #4]
 2243 0016 D1B1     		cbz	r1, .L236
 2244              		.loc 1 453 0
 2245 0018 3D68     		ldr	r5, [r7]
 2246 001a 2846     		mov	r0, r5
 2247 001c FFF7FEFF 		bl	strlen
 2248              	.LVL233:
 2249 0020 0199     		ldr	r1, [sp, #4]
 2250 0022 8246     		mov	r10, r0
 2251 0024 02E0     		b	.L238
 2252              	.LVL234:
 2253              	.L237:
 2254              		.loc 1 452 0 discriminator 2
 2255 0026 54F80C1F 		ldr	r1, [r4, #12]!
 2256              	.LVL235:
 2257 002a 81B1     		cbz	r1, .L236
 2258              	.LVL236:
 2259              	.L238:
 2260              		.loc 1 453 0
 2261 002c 5246     		mov	r2, r10
 2262 002e 2846     		mov	r0, r5
 2263 0030 FFF7FEFF 		bl	strncmp
 2264              	.LVL237:
 2265 0034 0028     		cmp	r0, #0
 2266 0036 F6D1     		bne	.L237
 2267              		.loc 1 454 0
 2268 0038 6368     		ldr	r3, [r4, #4]
 2269 003a 3A46     		mov	r2, r7
 2270 003c 4946     		mov	r1, r9
 2271 003e 4046     		mov	r0, r8
 2272 0040 9847     		blx	r3
 2273              	.LVL238:
 2274 0042 80F00100 		eor	r0, r0, #1
 2275 0046 C0B2     		uxtb	r0, r0
 2276              	.LBE92:
 2277              	.LBE93:
 2278              		.loc 1 456 0
 2279 0048 02B0     		add	sp, sp, #8
 2280              		.cfi_remember_state
ARM GAS  /tmp/cchTXGQu.s 			page 41


 2281              		.cfi_def_cfa_offset 32
 2282              		@ sp needed
 2283 004a BDE8F087 		pop	{r4, r5, r6, r7, r8, r9, r10, pc}
 2284              	.LVL239:
 2285              	.L236:
 2286              		.cfi_restore_state
 2287              	.LBB94:
 2288              		.loc 1 451 0 discriminator 2
 2289 004e B668     		ldr	r6, [r6, #8]
 2290              	.LVL240:
 2291 0050 002E     		cmp	r6, #0
 2292 0052 DDD1     		bne	.L239
 2293              	.LVL241:
 2294              	.L240:
 2295              	.LBE94:
 2296              		.loc 1 455 0
 2297 0054 4FF0FF30 		mov	r0, #-1
 2298              		.loc 1 456 0
 2299 0058 02B0     		add	sp, sp, #8
 2300              		.cfi_def_cfa_offset 32
 2301              		@ sp needed
 2302 005a BDE8F087 		pop	{r4, r5, r6, r7, r8, r9, r10, pc}
 2303              		.cfi_endproc
 2304              	.LFE301:
 2305              		.size	target_command, .-target_command
 2306 005e 00BF     		.section	.text.tc_printf,"ax",%progbits
 2307              		.align	1
 2308              		.p2align 4,,15
 2309              		.global	tc_printf
 2310              		.syntax unified
 2311              		.thumb
 2312              		.thumb_func
 2313              		.fpu fpv4-sp-d16
 2314              		.type	tc_printf, %function
 2315              	tc_printf:
 2316              	.LFB302:
 2317              		.loc 1 459 0
 2318              		.cfi_startproc
 2319              		@ args = 4, pretend = 12, frame = 8
 2320              		@ frame_needed = 0, uses_anonymous_args = 1
 2321              	.LVL242:
 2322              		.loc 1 463 0
 2323 0000 4068     		ldr	r0, [r0, #4]
 2324              	.LVL243:
 2325 0002 00B9     		cbnz	r0, .L257
 2326 0004 7047     		bx	lr
 2327              	.L257:
 2328              		.loc 1 459 0
 2329 0006 0EB4     		push	{r1, r2, r3}
 2330              		.cfi_def_cfa_offset 12
 2331              		.cfi_offset 1, -12
 2332              		.cfi_offset 2, -8
 2333              		.cfi_offset 3, -4
 2334 0008 10B5     		push	{r4, lr}
 2335              		.cfi_def_cfa_offset 20
 2336              		.cfi_offset 4, -20
 2337              		.cfi_offset 14, -16
ARM GAS  /tmp/cchTXGQu.s 			page 42


 2338 000a 83B0     		sub	sp, sp, #12
 2339              		.cfi_def_cfa_offset 32
 2340              		.loc 1 466 0
 2341 000c 06AB     		add	r3, sp, #24
 2342              		.loc 1 467 0
 2343 000e 1A46     		mov	r2, r3
 2344 0010 4468     		ldr	r4, [r0, #4]
 2345 0012 0599     		ldr	r1, [sp, #20]
 2346              		.loc 1 466 0
 2347 0014 0193     		str	r3, [sp, #4]
 2348              		.loc 1 467 0
 2349 0016 A047     		blx	r4
 2350              	.LVL244:
 2351              		.loc 1 469 0
 2352 0018 03B0     		add	sp, sp, #12
 2353              		.cfi_def_cfa_offset 20
 2354              		@ sp needed
 2355 001a BDE81040 		pop	{r4, lr}
 2356              		.cfi_restore 14
 2357              		.cfi_restore 4
 2358              		.cfi_def_cfa_offset 12
 2359 001e 03B0     		add	sp, sp, #12
 2360              		.cfi_restore 3
 2361              		.cfi_restore 2
 2362              		.cfi_restore 1
 2363              		.cfi_def_cfa_offset 0
 2364 0020 7047     		bx	lr
 2365              		.cfi_endproc
 2366              	.LFE302:
 2367              		.size	tc_printf, .-tc_printf
 2368 0022 00BF     		.section	.text.target_command_help,"ax",%progbits
 2369              		.align	1
 2370              		.p2align 4,,15
 2371              		.global	target_command_help
 2372              		.syntax unified
 2373              		.thumb
 2374              		.thumb_func
 2375              		.fpu fpv4-sp-d16
 2376              		.type	target_command_help, %function
 2377              	target_command_help:
 2378              	.LFB300:
 2379              		.loc 1 441 0
 2380              		.cfi_startproc
 2381              		@ args = 0, pretend = 0, frame = 0
 2382              		@ frame_needed = 0, uses_anonymous_args = 0
 2383              	.LVL245:
 2384 0000 2DE9F041 		push	{r4, r5, r6, r7, r8, lr}
 2385              		.cfi_def_cfa_offset 24
 2386              		.cfi_offset 4, -24
 2387              		.cfi_offset 5, -20
 2388              		.cfi_offset 6, -16
 2389              		.cfi_offset 7, -12
 2390              		.cfi_offset 8, -8
 2391              		.cfi_offset 14, -4
 2392              	.LBB95:
 2393              		.loc 1 442 0
 2394 0004 476E     		ldr	r7, [r0, #100]
ARM GAS  /tmp/cchTXGQu.s 			page 43


 2395              	.LVL246:
 2396 0006 BFB1     		cbz	r7, .L258
 2397              		.loc 1 443 0
 2398 0008 DFF83480 		ldr	r8, .L272+4
 2399              	.LBB96:
 2400              		.loc 1 445 0
 2401 000c 0B4E     		ldr	r6, .L272
 2402 000e 0546     		mov	r5, r0
 2403              	.LVL247:
 2404              	.L262:
 2405              	.LBE96:
 2406              		.loc 1 443 0
 2407 0010 3A68     		ldr	r2, [r7]
 2408 0012 4146     		mov	r1, r8
 2409 0014 2846     		mov	r0, r5
 2410 0016 FFF7FEFF 		bl	tc_printf
 2411              	.LVL248:
 2412              	.LBB97:
 2413              		.loc 1 444 0
 2414 001a 7C68     		ldr	r4, [r7, #4]
 2415              	.LVL249:
 2416 001c 2268     		ldr	r2, [r4]
 2417 001e 42B1     		cbz	r2, .L260
 2418              	.LVL250:
 2419              	.L261:
 2420              		.loc 1 445 0 discriminator 3
 2421 0020 A368     		ldr	r3, [r4, #8]
 2422 0022 3146     		mov	r1, r6
 2423 0024 2846     		mov	r0, r5
 2424 0026 FFF7FEFF 		bl	tc_printf
 2425              	.LVL251:
 2426              		.loc 1 444 0 discriminator 3
 2427 002a 54F80C2F 		ldr	r2, [r4, #12]!
 2428              	.LVL252:
 2429 002e 002A     		cmp	r2, #0
 2430 0030 F6D1     		bne	.L261
 2431              	.LVL253:
 2432              	.L260:
 2433              	.LBE97:
 2434              		.loc 1 442 0
 2435 0032 BF68     		ldr	r7, [r7, #8]
 2436              	.LVL254:
 2437 0034 002F     		cmp	r7, #0
 2438 0036 EBD1     		bne	.L262
 2439              	.LVL255:
 2440              	.L258:
 2441              	.LBE95:
 2442              		.loc 1 447 0
 2443 0038 BDE8F081 		pop	{r4, r5, r6, r7, r8, pc}
 2444              	.LVL256:
 2445              	.L273:
 2446              		.align	2
 2447              	.L272:
 2448 003c 18000000 		.word	.LC7
 2449 0040 00000000 		.word	.LC6
 2450              		.cfi_endproc
 2451              	.LFE300:
ARM GAS  /tmp/cchTXGQu.s 			page 44


 2452              		.size	target_command_help, .-target_command_help
 2453              		.section	.text.tc_open,"ax",%progbits
 2454              		.align	1
 2455              		.p2align 4,,15
 2456              		.global	tc_open
 2457              		.syntax unified
 2458              		.thumb
 2459              		.thumb_func
 2460              		.fpu fpv4-sp-d16
 2461              		.type	tc_open, %function
 2462              	tc_open:
 2463              	.LFB303:
 2464              		.loc 1 474 0
 2465              		.cfi_startproc
 2466              		@ args = 4, pretend = 0, frame = 0
 2467              		@ frame_needed = 0, uses_anonymous_args = 0
 2468              		@ link register save eliminated.
 2469              	.LVL257:
 2470              		.loc 1 475 0
 2471 0000 4068     		ldr	r0, [r0, #4]
 2472              	.LVL258:
 2473              		.loc 1 474 0
 2474 0002 10B4     		push	{r4}
 2475              		.cfi_def_cfa_offset 4
 2476              		.cfi_offset 4, -4
 2477              		.loc 1 475 0
 2478 0004 8468     		ldr	r4, [r0, #8]
 2479 0006 1CB1     		cbz	r4, .L278
 2480              		.loc 1 479 0
 2481 0008 A446     		mov	ip, r4
 2482              		.loc 1 480 0
 2483 000a 5DF8044B 		ldr	r4, [sp], #4
 2484              		.cfi_remember_state
 2485              		.cfi_restore 4
 2486              		.cfi_def_cfa_offset 0
 2487              	.LVL259:
 2488              		.loc 1 479 0
 2489 000e 6047     		bx	ip
 2490              	.LVL260:
 2491              	.L278:
 2492              		.cfi_restore_state
 2493              		.loc 1 476 0
 2494 0010 1723     		movs	r3, #23
 2495              	.LVL261:
 2496 0012 80F83830 		strb	r3, [r0, #56]
 2497              		.loc 1 480 0
 2498 0016 5DF8044B 		ldr	r4, [sp], #4
 2499              		.cfi_restore 4
 2500              		.cfi_def_cfa_offset 0
 2501              	.LVL262:
 2502 001a 4FF0FF30 		mov	r0, #-1
 2503 001e 7047     		bx	lr
 2504              		.cfi_endproc
 2505              	.LFE303:
 2506              		.size	tc_open, .-tc_open
 2507              		.section	.text.tc_close,"ax",%progbits
 2508              		.align	1
ARM GAS  /tmp/cchTXGQu.s 			page 45


 2509              		.p2align 4,,15
 2510              		.global	tc_close
 2511              		.syntax unified
 2512              		.thumb
 2513              		.thumb_func
 2514              		.fpu fpv4-sp-d16
 2515              		.type	tc_close, %function
 2516              	tc_close:
 2517              	.LFB304:
 2518              		.loc 1 483 0
 2519              		.cfi_startproc
 2520              		@ args = 0, pretend = 0, frame = 0
 2521              		@ frame_needed = 0, uses_anonymous_args = 0
 2522              		@ link register save eliminated.
 2523              	.LVL263:
 2524              		.loc 1 484 0
 2525 0000 4068     		ldr	r0, [r0, #4]
 2526              	.LVL264:
 2527 0002 C368     		ldr	r3, [r0, #12]
 2528 0004 03B1     		cbz	r3, .L284
 2529              		.loc 1 488 0
 2530 0006 1847     		bx	r3
 2531              	.LVL265:
 2532              	.L284:
 2533              		.loc 1 485 0
 2534 0008 0923     		movs	r3, #9
 2535 000a 80F83830 		strb	r3, [r0, #56]
 2536              		.loc 1 489 0
 2537 000e 4FF0FF30 		mov	r0, #-1
 2538 0012 7047     		bx	lr
 2539              		.cfi_endproc
 2540              	.LFE304:
 2541              		.size	tc_close, .-tc_close
 2542              		.section	.text.tc_read,"ax",%progbits
 2543              		.align	1
 2544              		.p2align 4,,15
 2545              		.global	tc_read
 2546              		.syntax unified
 2547              		.thumb
 2548              		.thumb_func
 2549              		.fpu fpv4-sp-d16
 2550              		.type	tc_read, %function
 2551              	tc_read:
 2552              	.LFB305:
 2553              		.loc 1 492 0
 2554              		.cfi_startproc
 2555              		@ args = 0, pretend = 0, frame = 0
 2556              		@ frame_needed = 0, uses_anonymous_args = 0
 2557              		@ link register save eliminated.
 2558              	.LVL266:
 2559              		.loc 1 493 0
 2560 0000 4068     		ldr	r0, [r0, #4]
 2561              	.LVL267:
 2562              		.loc 1 492 0
 2563 0002 10B4     		push	{r4}
 2564              		.cfi_def_cfa_offset 4
 2565              		.cfi_offset 4, -4
ARM GAS  /tmp/cchTXGQu.s 			page 46


 2566              		.loc 1 493 0
 2567 0004 0469     		ldr	r4, [r0, #16]
 2568 0006 1CB1     		cbz	r4, .L286
 2569              		.loc 1 495 0
 2570 0008 A446     		mov	ip, r4
 2571              		.loc 1 496 0
 2572 000a 5DF8044B 		ldr	r4, [sp], #4
 2573              		.cfi_remember_state
 2574              		.cfi_restore 4
 2575              		.cfi_def_cfa_offset 0
 2576              		.loc 1 495 0
 2577 000e 6047     		bx	ip
 2578              	.LVL268:
 2579              	.L286:
 2580              		.cfi_restore_state
 2581              		.loc 1 496 0
 2582 0010 2046     		mov	r0, r4
 2583 0012 5DF8044B 		ldr	r4, [sp], #4
 2584              		.cfi_restore 4
 2585              		.cfi_def_cfa_offset 0
 2586 0016 7047     		bx	lr
 2587              		.cfi_endproc
 2588              	.LFE305:
 2589              		.size	tc_read, .-tc_read
 2590              		.section	.text.tc_write,"ax",%progbits
 2591              		.align	1
 2592              		.p2align 4,,15
 2593              		.global	tc_write
 2594              		.syntax unified
 2595              		.thumb
 2596              		.thumb_func
 2597              		.fpu fpv4-sp-d16
 2598              		.type	tc_write, %function
 2599              	tc_write:
 2600              	.LFB306:
 2601              		.loc 1 499 0
 2602              		.cfi_startproc
 2603              		@ args = 0, pretend = 0, frame = 0
 2604              		@ frame_needed = 0, uses_anonymous_args = 0
 2605              		@ link register save eliminated.
 2606              	.LVL269:
 2607              		.loc 1 500 0
 2608 0000 4068     		ldr	r0, [r0, #4]
 2609              	.LVL270:
 2610              		.loc 1 499 0
 2611 0002 10B4     		push	{r4}
 2612              		.cfi_def_cfa_offset 4
 2613              		.cfi_offset 4, -4
 2614              		.loc 1 500 0
 2615 0004 4469     		ldr	r4, [r0, #20]
 2616 0006 1CB1     		cbz	r4, .L289
 2617              		.loc 1 502 0
 2618 0008 A446     		mov	ip, r4
 2619              		.loc 1 503 0
 2620 000a 5DF8044B 		ldr	r4, [sp], #4
 2621              		.cfi_remember_state
 2622              		.cfi_restore 4
ARM GAS  /tmp/cchTXGQu.s 			page 47


 2623              		.cfi_def_cfa_offset 0
 2624              		.loc 1 502 0
 2625 000e 6047     		bx	ip
 2626              	.LVL271:
 2627              	.L289:
 2628              		.cfi_restore_state
 2629              		.loc 1 503 0
 2630 0010 2046     		mov	r0, r4
 2631 0012 5DF8044B 		ldr	r4, [sp], #4
 2632              		.cfi_restore 4
 2633              		.cfi_def_cfa_offset 0
 2634 0016 7047     		bx	lr
 2635              		.cfi_endproc
 2636              	.LFE306:
 2637              		.size	tc_write, .-tc_write
 2638              		.section	.text.tc_lseek,"ax",%progbits
 2639              		.align	1
 2640              		.p2align 4,,15
 2641              		.global	tc_lseek
 2642              		.syntax unified
 2643              		.thumb
 2644              		.thumb_func
 2645              		.fpu fpv4-sp-d16
 2646              		.type	tc_lseek, %function
 2647              	tc_lseek:
 2648              	.LFB307:
 2649              		.loc 1 506 0
 2650              		.cfi_startproc
 2651              		@ args = 0, pretend = 0, frame = 0
 2652              		@ frame_needed = 0, uses_anonymous_args = 0
 2653              		@ link register save eliminated.
 2654              	.LVL272:
 2655              		.loc 1 507 0
 2656 0000 4068     		ldr	r0, [r0, #4]
 2657              	.LVL273:
 2658              		.loc 1 506 0
 2659 0002 10B4     		push	{r4}
 2660              		.cfi_def_cfa_offset 4
 2661              		.cfi_offset 4, -4
 2662              		.loc 1 507 0
 2663 0004 8469     		ldr	r4, [r0, #24]
 2664 0006 1CB1     		cbz	r4, .L292
 2665              		.loc 1 509 0
 2666 0008 A446     		mov	ip, r4
 2667              		.loc 1 510 0
 2668 000a 5DF8044B 		ldr	r4, [sp], #4
 2669              		.cfi_remember_state
 2670              		.cfi_restore 4
 2671              		.cfi_def_cfa_offset 0
 2672              		.loc 1 509 0
 2673 000e 6047     		bx	ip
 2674              	.LVL274:
 2675              	.L292:
 2676              		.cfi_restore_state
 2677              		.loc 1 510 0
 2678 0010 2046     		mov	r0, r4
 2679 0012 5DF8044B 		ldr	r4, [sp], #4
ARM GAS  /tmp/cchTXGQu.s 			page 48


 2680              		.cfi_restore 4
 2681              		.cfi_def_cfa_offset 0
 2682 0016 7047     		bx	lr
 2683              		.cfi_endproc
 2684              	.LFE307:
 2685              		.size	tc_lseek, .-tc_lseek
 2686              		.section	.text.tc_rename,"ax",%progbits
 2687              		.align	1
 2688              		.p2align 4,,15
 2689              		.global	tc_rename
 2690              		.syntax unified
 2691              		.thumb
 2692              		.thumb_func
 2693              		.fpu fpv4-sp-d16
 2694              		.type	tc_rename, %function
 2695              	tc_rename:
 2696              	.LFB308:
 2697              		.loc 1 514 0
 2698              		.cfi_startproc
 2699              		@ args = 4, pretend = 0, frame = 0
 2700              		@ frame_needed = 0, uses_anonymous_args = 0
 2701              		@ link register save eliminated.
 2702              	.LVL275:
 2703              		.loc 1 515 0
 2704 0000 4068     		ldr	r0, [r0, #4]
 2705              	.LVL276:
 2706              		.loc 1 514 0
 2707 0002 10B4     		push	{r4}
 2708              		.cfi_def_cfa_offset 4
 2709              		.cfi_offset 4, -4
 2710              		.loc 1 515 0
 2711 0004 C469     		ldr	r4, [r0, #28]
 2712 0006 1CB1     		cbz	r4, .L298
 2713              		.loc 1 519 0
 2714 0008 A446     		mov	ip, r4
 2715              		.loc 1 520 0
 2716 000a 5DF8044B 		ldr	r4, [sp], #4
 2717              		.cfi_remember_state
 2718              		.cfi_restore 4
 2719              		.cfi_def_cfa_offset 0
 2720              	.LVL277:
 2721              		.loc 1 519 0
 2722 000e 6047     		bx	ip
 2723              	.LVL278:
 2724              	.L298:
 2725              		.cfi_restore_state
 2726              		.loc 1 516 0
 2727 0010 0223     		movs	r3, #2
 2728              	.LVL279:
 2729 0012 80F83830 		strb	r3, [r0, #56]
 2730              		.loc 1 520 0
 2731 0016 5DF8044B 		ldr	r4, [sp], #4
 2732              		.cfi_restore 4
 2733              		.cfi_def_cfa_offset 0
 2734              	.LVL280:
 2735 001a 4FF0FF30 		mov	r0, #-1
 2736 001e 7047     		bx	lr
ARM GAS  /tmp/cchTXGQu.s 			page 49


 2737              		.cfi_endproc
 2738              	.LFE308:
 2739              		.size	tc_rename, .-tc_rename
 2740              		.section	.text.tc_unlink,"ax",%progbits
 2741              		.align	1
 2742              		.p2align 4,,15
 2743              		.global	tc_unlink
 2744              		.syntax unified
 2745              		.thumb
 2746              		.thumb_func
 2747              		.fpu fpv4-sp-d16
 2748              		.type	tc_unlink, %function
 2749              	tc_unlink:
 2750              	.LFB309:
 2751              		.loc 1 523 0
 2752              		.cfi_startproc
 2753              		@ args = 0, pretend = 0, frame = 0
 2754              		@ frame_needed = 0, uses_anonymous_args = 0
 2755              		@ link register save eliminated.
 2756              	.LVL281:
 2757              		.loc 1 524 0
 2758 0000 4068     		ldr	r0, [r0, #4]
 2759              	.LVL282:
 2760 0002 036A     		ldr	r3, [r0, #32]
 2761 0004 03B1     		cbz	r3, .L304
 2762              		.loc 1 528 0
 2763 0006 1847     		bx	r3
 2764              	.LVL283:
 2765              	.L304:
 2766              		.loc 1 525 0
 2767 0008 0223     		movs	r3, #2
 2768 000a 80F83830 		strb	r3, [r0, #56]
 2769              		.loc 1 529 0
 2770 000e 4FF0FF30 		mov	r0, #-1
 2771 0012 7047     		bx	lr
 2772              		.cfi_endproc
 2773              	.LFE309:
 2774              		.size	tc_unlink, .-tc_unlink
 2775              		.section	.text.tc_stat,"ax",%progbits
 2776              		.align	1
 2777              		.p2align 4,,15
 2778              		.global	tc_stat
 2779              		.syntax unified
 2780              		.thumb
 2781              		.thumb_func
 2782              		.fpu fpv4-sp-d16
 2783              		.type	tc_stat, %function
 2784              	tc_stat:
 2785              	.LFB310:
 2786              		.loc 1 532 0
 2787              		.cfi_startproc
 2788              		@ args = 0, pretend = 0, frame = 0
 2789              		@ frame_needed = 0, uses_anonymous_args = 0
 2790              		@ link register save eliminated.
 2791              	.LVL284:
 2792              		.loc 1 533 0
 2793 0000 4068     		ldr	r0, [r0, #4]
ARM GAS  /tmp/cchTXGQu.s 			page 50


 2794              	.LVL285:
 2795              		.loc 1 532 0
 2796 0002 10B4     		push	{r4}
 2797              		.cfi_def_cfa_offset 4
 2798              		.cfi_offset 4, -4
 2799              		.loc 1 533 0
 2800 0004 446A     		ldr	r4, [r0, #36]
 2801 0006 1CB1     		cbz	r4, .L309
 2802              		.loc 1 537 0
 2803 0008 A446     		mov	ip, r4
 2804              		.loc 1 538 0
 2805 000a 5DF8044B 		ldr	r4, [sp], #4
 2806              		.cfi_remember_state
 2807              		.cfi_restore 4
 2808              		.cfi_def_cfa_offset 0
 2809              		.loc 1 537 0
 2810 000e 6047     		bx	ip
 2811              	.LVL286:
 2812              	.L309:
 2813              		.cfi_restore_state
 2814              		.loc 1 534 0
 2815 0010 0223     		movs	r3, #2
 2816              	.LVL287:
 2817 0012 80F83830 		strb	r3, [r0, #56]
 2818              		.loc 1 538 0
 2819 0016 5DF8044B 		ldr	r4, [sp], #4
 2820              		.cfi_restore 4
 2821              		.cfi_def_cfa_offset 0
 2822 001a 4FF0FF30 		mov	r0, #-1
 2823 001e 7047     		bx	lr
 2824              		.cfi_endproc
 2825              	.LFE310:
 2826              		.size	tc_stat, .-tc_stat
 2827              		.section	.text.tc_fstat,"ax",%progbits
 2828              		.align	1
 2829              		.p2align 4,,15
 2830              		.global	tc_fstat
 2831              		.syntax unified
 2832              		.thumb
 2833              		.thumb_func
 2834              		.fpu fpv4-sp-d16
 2835              		.type	tc_fstat, %function
 2836              	tc_fstat:
 2837              	.LFB311:
 2838              		.loc 1 541 0
 2839              		.cfi_startproc
 2840              		@ args = 0, pretend = 0, frame = 0
 2841              		@ frame_needed = 0, uses_anonymous_args = 0
 2842              		@ link register save eliminated.
 2843              	.LVL288:
 2844              		.loc 1 542 0
 2845 0000 4068     		ldr	r0, [r0, #4]
 2846              	.LVL289:
 2847 0002 836A     		ldr	r3, [r0, #40]
 2848 0004 03B1     		cbz	r3, .L312
 2849              		.loc 1 545 0
 2850 0006 1847     		bx	r3
ARM GAS  /tmp/cchTXGQu.s 			page 51


 2851              	.LVL290:
 2852              	.L312:
 2853              		.loc 1 546 0
 2854 0008 1846     		mov	r0, r3
 2855 000a 7047     		bx	lr
 2856              		.cfi_endproc
 2857              	.LFE311:
 2858              		.size	tc_fstat, .-tc_fstat
 2859              		.section	.text.tc_gettimeofday,"ax",%progbits
 2860              		.align	1
 2861              		.p2align 4,,15
 2862              		.global	tc_gettimeofday
 2863              		.syntax unified
 2864              		.thumb
 2865              		.thumb_func
 2866              		.fpu fpv4-sp-d16
 2867              		.type	tc_gettimeofday, %function
 2868              	tc_gettimeofday:
 2869              	.LFB312:
 2870              		.loc 1 549 0
 2871              		.cfi_startproc
 2872              		@ args = 0, pretend = 0, frame = 0
 2873              		@ frame_needed = 0, uses_anonymous_args = 0
 2874              		@ link register save eliminated.
 2875              	.LVL291:
 2876              		.loc 1 550 0
 2877 0000 4068     		ldr	r0, [r0, #4]
 2878              	.LVL292:
 2879 0002 C36A     		ldr	r3, [r0, #44]
 2880 0004 03B1     		cbz	r3, .L314
 2881              		.loc 1 553 0
 2882 0006 1847     		bx	r3
 2883              	.LVL293:
 2884              	.L314:
 2885              		.loc 1 554 0
 2886 0008 4FF0FF30 		mov	r0, #-1
 2887 000c 7047     		bx	lr
 2888              		.cfi_endproc
 2889              	.LFE312:
 2890              		.size	tc_gettimeofday, .-tc_gettimeofday
 2891 000e 00BF     		.section	.text.tc_isatty,"ax",%progbits
 2892              		.align	1
 2893              		.p2align 4,,15
 2894              		.global	tc_isatty
 2895              		.syntax unified
 2896              		.thumb
 2897              		.thumb_func
 2898              		.fpu fpv4-sp-d16
 2899              		.type	tc_isatty, %function
 2900              	tc_isatty:
 2901              	.LFB313:
 2902              		.loc 1 557 0
 2903              		.cfi_startproc
 2904              		@ args = 0, pretend = 0, frame = 0
 2905              		@ frame_needed = 0, uses_anonymous_args = 0
 2906              		@ link register save eliminated.
 2907              	.LVL294:
ARM GAS  /tmp/cchTXGQu.s 			page 52


 2908              		.loc 1 558 0
 2909 0000 4068     		ldr	r0, [r0, #4]
 2910              	.LVL295:
 2911 0002 036B     		ldr	r3, [r0, #48]
 2912 0004 03B1     		cbz	r3, .L316
 2913              		.loc 1 561 0
 2914 0006 1847     		bx	r3
 2915              	.LVL296:
 2916              	.L316:
 2917              		.loc 1 562 0
 2918 0008 0120     		movs	r0, #1
 2919 000a 7047     		bx	lr
 2920              		.cfi_endproc
 2921              	.LFE313:
 2922              		.size	tc_isatty, .-tc_isatty
 2923              		.section	.text.tc_system,"ax",%progbits
 2924              		.align	1
 2925              		.p2align 4,,15
 2926              		.global	tc_system
 2927              		.syntax unified
 2928              		.thumb
 2929              		.thumb_func
 2930              		.fpu fpv4-sp-d16
 2931              		.type	tc_system, %function
 2932              	tc_system:
 2933              	.LFB314:
 2934              		.loc 1 565 0
 2935              		.cfi_startproc
 2936              		@ args = 0, pretend = 0, frame = 0
 2937              		@ frame_needed = 0, uses_anonymous_args = 0
 2938              		@ link register save eliminated.
 2939              	.LVL297:
 2940              		.loc 1 566 0
 2941 0000 4068     		ldr	r0, [r0, #4]
 2942              	.LVL298:
 2943 0002 436B     		ldr	r3, [r0, #52]
 2944 0004 03B1     		cbz	r3, .L318
 2945              		.loc 1 569 0
 2946 0006 1847     		bx	r3
 2947              	.LVL299:
 2948              	.L318:
 2949              		.loc 1 570 0
 2950 0008 4FF0FF30 		mov	r0, #-1
 2951 000c 7047     		bx	lr
 2952              		.cfi_endproc
 2953              	.LFE314:
 2954              		.size	tc_system, .-tc_system
 2955              		.global	target_list
 2956 000e 00BF     		.section	.bss.target_list,"aw",%nobits
 2957              		.align	2
 2958              		.set	.LANCHOR0,. + 0
 2959              		.type	target_list, %object
 2960              		.size	target_list, 4
 2961              	target_list:
 2962 0000 00000000 		.space	4
 2963              		.section	.rodata.target_command_help.str1.4,"aMS",%progbits,1
 2964              		.align	2
ARM GAS  /tmp/cchTXGQu.s 			page 53


 2965              	.LC6:
 2966 0000 25732073 		.ascii	"%s specific commands:\012\000"
 2966      70656369 
 2966      66696320 
 2966      636F6D6D 
 2966      616E6473 
 2967 0017 00       		.space	1
 2968              	.LC7:
 2969 0018 09257320 		.ascii	"\011%s -- %s\012\000"
 2969      2D2D2025 
 2969      730A00
 2970              		.section	.rodata.target_mem_map.str1.4,"aMS",%progbits,1
 2971              		.align	2
 2972              	.LC0:
 2973 0000 3C6D656D 		.ascii	"<memory-map>\000"
 2973      6F72792D 
 2973      6D61703E 
 2973      00
 2974 000d 000000   		.space	3
 2975              	.LC1:
 2976 0010 3C6D656D 		.ascii	"<memory type=\"ram\" start=\"0x%08lx\" length=\"0x%"
 2976      6F727920 
 2976      74797065 
 2976      3D227261 
 2976      6D222073 
 2977 003e 6C78222F 		.ascii	"lx\"/>\000"
 2977      3E00
 2978              	.LC2:
 2979 0044 3C6D656D 		.ascii	"<memory type=\"flash\" start=\"0x%08lx\" length=\"0"
 2979      6F727920 
 2979      74797065 
 2979      3D22666C 
 2979      61736822 
 2980 0072 78256C78 		.ascii	"x%lx\">\000"
 2980      223E00
 2981 0079 000000   		.space	3
 2982              	.LC3:
 2983 007c 3C70726F 		.ascii	"<property name=\"blocksize\">0x%lx</property></memo"
 2983      70657274 
 2983      79206E61 
 2983      6D653D22 
 2983      626C6F63 
 2984 00ad 72793E00 		.ascii	"ry>\000"
 2985 00b1 000000   		.space	3
 2986              	.LC4:
 2987 00b4 3C2F6D65 		.ascii	"</memory-map>\000"
 2987      6D6F7279 
 2987      2D6D6170 
 2987      3E00
 2988              		.section	.rodata.target_tdesc.str1.4,"aMS",%progbits,1
 2989              		.align	2
 2990              	.LC5:
 2991 0000 00       		.ascii	"\000"
 2992              		.text
 2993              	.Letext0:
 2994              		.file 2 "/usr/arm-none-eabi/include/machine/_default_types.h"
 2995              		.file 3 "/usr/arm-none-eabi/include/sys/_stdint.h"
ARM GAS  /tmp/cchTXGQu.s 			page 54


 2996              		.file 4 "/usr/lib/gcc/arm-none-eabi/7.3.1/include/stddef.h"
 2997              		.file 5 "/usr/arm-none-eabi/include/sys/lock.h"
 2998              		.file 6 "/usr/arm-none-eabi/include/sys/_types.h"
 2999              		.file 7 "/usr/arm-none-eabi/include/sys/reent.h"
 3000              		.file 8 "/usr/arm-none-eabi/include/stdlib.h"
 3001              		.file 9 "/usr/lib/gcc/arm-none-eabi/7.3.1/include/stdarg.h"
 3002              		.file 10 "<built-in>"
 3003              		.file 11 "/usr/arm-none-eabi/include/stdio.h"
 3004              		.file 12 "/usr/arm-none-eabi/include/sys/types.h"
 3005              		.file 13 "ChibiOS_3.0.2/os/rt/ports/ARMCMx/compilers/GCC/chtypes.h"
 3006              		.file 14 "ChibiOS_3.0.2/os/rt/include/chsystypes.h"
 3007              		.file 15 "ChibiOS_3.0.2/os/rt/include/chschd.h"
 3008              		.file 16 "ChibiOS_3.0.2/os/ext/CMSIS/include/core_cm4.h"
 3009              		.file 17 "ChibiOS_3.0.2/os/ext/CMSIS/ST/system_stm32f4xx.h"
 3010              		.file 18 "ChibiOS_3.0.2/os/ext/CMSIS/ST/stm32f407xx.h"
 3011              		.file 19 "ChibiOS_3.0.2/os/rt/ports/ARMCMx/chcore.h"
 3012              		.file 20 "ChibiOS_3.0.2/os/rt/ports/ARMCMx/chcore_v7m.h"
 3013              		.file 21 "ChibiOS_3.0.2/os/rt/include/chtm.h"
 3014              		.file 22 "ChibiOS_3.0.2/os/rt/include/chsem.h"
 3015              		.file 23 "ChibiOS_3.0.2/os/rt/include/chmtx.h"
 3016              		.file 24 "ChibiOS_3.0.2/os/rt/include/chregistry.h"
 3017              		.file 25 "ChibiOS_3.0.2/os/rt/include/chevents.h"
 3018              		.file 26 "ChibiOS_3.0.2/os/rt/include/chqueues.h"
 3019              		.file 27 "./conf_general.h"
 3020              		.file 28 "ChibiOS_3.0.2/os/hal/ports/STM32/STM32F4xx/stm32_dma.h"
 3021              		.file 29 "ChibiOS_3.0.2/os/hal/ports/STM32/LLD/GPIOv2/pal_lld.h"
 3022              		.file 30 "ChibiOS_3.0.2/os/hal/include/can.h"
 3023              		.file 31 "ChibiOS_3.0.2/os/hal/ports/STM32/LLD/can_lld.h"
 3024              		.file 32 "ChibiOS_3.0.2/os/hal/include/i2c.h"
 3025              		.file 33 "ChibiOS_3.0.2/os/hal/ports/STM32/LLD/I2Cv1/i2c_lld.h"
 3026              		.file 34 "ChibiOS_3.0.2/os/hal/include/icu.h"
 3027              		.file 35 "ChibiOS_3.0.2/os/hal/ports/STM32/LLD/TIMv1/icu_lld.h"
 3028              		.file 36 "ChibiOS_3.0.2/os/hal/ports/STM32/LLD/TIMv1/stm32_tim.h"
 3029              		.file 37 "ChibiOS_3.0.2/os/hal/include/serial.h"
 3030              		.file 38 "ChibiOS_3.0.2/os/hal/ports/STM32/LLD/USARTv1/serial_lld.h"
 3031              		.file 39 "ChibiOS_3.0.2/os/hal/include/spi.h"
 3032              		.file 40 "ChibiOS_3.0.2/os/hal/ports/STM32/LLD/SPIv1/spi_lld.h"
 3033              		.file 41 "ChibiOS_3.0.2/os/hal/include/usb.h"
 3034              		.file 42 "ChibiOS_3.0.2/os/hal/ports/STM32/LLD/OTGv1/usb_lld.h"
 3035              		.file 43 "ChibiOS_3.0.2/os/hal/ports/STM32/LLD/OTGv1/stm32_otg.h"
 3036              		.file 44 "blackmagic/platform.h"
 3037              		.file 45 "blackmagic/target.h"
 3038              		.file 46 "blackmagic/target/target_internal.h"
 3039              		.file 47 "/usr/arm-none-eabi/include/string.h"