ARM GAS  /tmp/ccKqffqy.s 			page 1


   1              		.cpu cortex-m4
   2              		.eabi_attribute 27, 1
   3              		.eabi_attribute 28, 1
   4              		.eabi_attribute 20, 1
   5              		.eabi_attribute 21, 1
   6              		.eabi_attribute 23, 3
   7              		.eabi_attribute 24, 1
   8              		.eabi_attribute 25, 1
   9              		.eabi_attribute 26, 1
  10              		.eabi_attribute 30, 2
  11              		.eabi_attribute 34, 1
  12              		.eabi_attribute 18, 4
  13              		.file	"terminal.c"
  14              		.text
  15              	.Ltext0:
  16              		.cfi_sections	.debug_frame
  17              		.global	__aeabi_f2d
  18              		.global	__aeabi_dmul
  19              		.section	.text.terminal_process_string,"ax",%progbits
  20              		.align	1
  21              		.p2align 4,,15
  22              		.global	terminal_process_string
  23              		.syntax unified
  24              		.thumb
  25              		.thumb_func
  26              		.fpu fpv4-sp-d16
  27              		.type	terminal_process_string, %function
  28              	terminal_process_string:
  29              	.LFB259:
  30              		.file 1 "terminal.c"
  31              		.loc 1 60 0
  32              		.cfi_startproc
  33              		@ args = 0, pretend = 0, frame = 312
  34              		@ frame_needed = 0, uses_anonymous_args = 0
  35              	.LVL0:
  36 0000 2DE9F047 		push	{r4, r5, r6, r7, r8, r9, r10, lr}
  37              		.cfi_def_cfa_offset 32
  38              		.cfi_offset 4, -32
  39              		.cfi_offset 5, -28
  40              		.cfi_offset 6, -24
  41              		.cfi_offset 7, -20
  42              		.cfi_offset 8, -16
  43              		.cfi_offset 9, -12
  44              		.cfi_offset 10, -8
  45              		.cfi_offset 14, -4
  46 0004 2DED088B 		vpush.64	{d8, d9, d10, d11}
  47              		.cfi_def_cfa_offset 64
  48              		.cfi_offset 80, -64
  49              		.cfi_offset 81, -60
  50              		.cfi_offset 82, -56
  51              		.cfi_offset 83, -52
  52              		.cfi_offset 84, -48
  53              		.cfi_offset 85, -44
  54              		.cfi_offset 86, -40
  55              		.cfi_offset 87, -36
  56              		.loc 1 65 0
  57 0008 9C49     		ldr	r1, .L280
ARM GAS  /tmp/ccKqffqy.s 			page 2


  58              		.loc 1 60 0
  59 000a D8B0     		sub	sp, sp, #352
  60              		.cfi_def_cfa_offset 416
  61              		.loc 1 65 0
  62 000c FFF7FEFF 		bl	strtok
  63              	.LVL1:
  64              		.loc 1 66 0
  65 0010 0028     		cmp	r0, #0
  66 0012 5BD0     		beq	.L248
  67 0014 0346     		mov	r3, r0
  68              		.loc 1 68 0
  69 0016 994E     		ldr	r6, .L280
  70 0018 18AD     		add	r5, sp, #96
  71              		.loc 1 62 0
  72 001a 0024     		movs	r4, #0
  73 001c 01E0     		b	.L5
  74              	.LVL2:
  75              	.L249:
  76              		.loc 1 66 0 discriminator 1
  77 001e 402C     		cmp	r4, #64
  78 0020 09D0     		beq	.L4
  79              	.LVL3:
  80              	.L5:
  81              		.loc 1 67 0
  82 0022 45F8043B 		str	r3, [r5], #4
  83              		.loc 1 68 0
  84 0026 3146     		mov	r1, r6
  85 0028 0020     		movs	r0, #0
  86              	.LVL4:
  87 002a FFF7FEFF 		bl	strtok
  88              	.LVL5:
  89              		.loc 1 67 0
  90 002e 0134     		adds	r4, r4, #1
  91              	.LVL6:
  92              		.loc 1 66 0
  93 0030 0346     		mov	r3, r0
  94 0032 0028     		cmp	r0, #0
  95 0034 F3D1     		bne	.L249
  96              	.L4:
  97              		.loc 1 78 0
  98 0036 FFF7FEFF 		bl	mc_interface_get_configuration
  99              	.LVL7:
 100 003a 4FF4E472 		mov	r2, #456
 101 003e 0146     		mov	r1, r0
 102 0040 8F48     		ldr	r0, .L280+4
 103 0042 FFF7FEFF 		bl	memcpy
 104              	.LVL8:
 105              		.loc 1 79 0
 106 0046 8E49     		ldr	r1, .L280+4
 107 0048 8E48     		ldr	r0, .L280+8
 108 004a 4FF4E472 		mov	r2, #456
 109 004e FFF7FEFF 		bl	memcpy
 110              	.LVL9:
 111              		.loc 1 81 0
 112 0052 189D     		ldr	r5, [sp, #96]
 113 0054 8C49     		ldr	r1, .L280+12
 114 0056 2846     		mov	r0, r5
ARM GAS  /tmp/ccKqffqy.s 			page 3


 115 0058 FFF7FEFF 		bl	strcmp
 116              	.LVL10:
 117 005c 0028     		cmp	r0, #0
 118 005e 3DD0     		beq	.L250
 119              		.loc 1 83 0
 120 0060 8A49     		ldr	r1, .L280+16
 121 0062 2846     		mov	r0, r5
 122 0064 FFF7FEFF 		bl	strcmp
 123              	.LVL11:
 124 0068 0028     		cmp	r0, #0
 125 006a 69D0     		beq	.L251
 126              		.loc 1 86 0
 127 006c 8849     		ldr	r1, .L280+20
 128 006e 2846     		mov	r0, r5
 129 0070 FFF7FEFF 		bl	strcmp
 130              	.LVL12:
 131 0074 0028     		cmp	r0, #0
 132 0076 39D0     		beq	.L252
 133              		.loc 1 90 0
 134 0078 8649     		ldr	r1, .L280+24
 135 007a 2846     		mov	r0, r5
 136 007c FFF7FEFF 		bl	strcmp
 137              	.LVL13:
 138 0080 0028     		cmp	r0, #0
 139 0082 69D0     		beq	.L253
 140              		.loc 1 92 0
 141 0084 8449     		ldr	r1, .L280+28
 142 0086 2846     		mov	r0, r5
 143 0088 FFF7FEFF 		bl	strcmp
 144              	.LVL14:
 145 008c 0028     		cmp	r0, #0
 146 008e 78D0     		beq	.L254
 147              		.loc 1 98 0
 148 0090 8249     		ldr	r1, .L280+32
 149 0092 2846     		mov	r0, r5
 150 0094 FFF7FEFF 		bl	strcmp
 151              	.LVL15:
 152 0098 0028     		cmp	r0, #0
 153 009a 00F08580 		beq	.L255
 154              		.loc 1 113 0
 155 009e 8049     		ldr	r1, .L280+36
 156 00a0 2846     		mov	r0, r5
 157 00a2 FFF7FEFF 		bl	strcmp
 158              	.LVL16:
 159 00a6 0028     		cmp	r0, #0
 160 00a8 62D0     		beq	.L256
 161              		.loc 1 115 0
 162 00aa 7E49     		ldr	r1, .L280+40
 163 00ac 2846     		mov	r0, r5
 164 00ae FFF7FEFF 		bl	strcmp
 165              	.LVL17:
 166 00b2 0646     		mov	r6, r0
 167 00b4 0028     		cmp	r0, #0
 168 00b6 40F0B680 		bne	.L15
 169              		.loc 1 116 0
 170 00ba 7B4F     		ldr	r7, .L280+44
 171 00bc 3B68     		ldr	r3, [r7]
ARM GAS  /tmp/ccKqffqy.s 			page 4


 172 00be 002B     		cmp	r3, #0
 173 00c0 40F02A81 		bne	.L16
 174              		.loc 1 117 0
 175 00c4 7948     		ldr	r0, .L280+48
 176 00c6 FFF7FEFF 		bl	commands_printf
 177              	.LVL18:
 178 00ca 02E0     		b	.L1
 179              	.LVL19:
 180              	.L248:
 181              		.loc 1 72 0
 182 00cc 7848     		ldr	r0, .L280+52
 183              	.LVL20:
 184 00ce FFF7FEFF 		bl	commands_printf
 185              	.LVL21:
 186              	.L1:
 187              		.loc 1 821 0
 188 00d2 58B0     		add	sp, sp, #352
 189              		.cfi_remember_state
 190              		.cfi_def_cfa_offset 64
 191              		@ sp needed
 192 00d4 BDEC088B 		vldm	sp!, {d8-d11}
 193              		.cfi_restore 86
 194              		.cfi_restore 87
 195              		.cfi_restore 84
 196              		.cfi_restore 85
 197              		.cfi_restore 82
 198              		.cfi_restore 83
 199              		.cfi_restore 80
 200              		.cfi_restore 81
 201              		.cfi_def_cfa_offset 32
 202 00d8 BDE8F087 		pop	{r4, r5, r6, r7, r8, r9, r10, pc}
 203              	.LVL22:
 204              	.L250:
 205              		.cfi_restore_state
 206              		.loc 1 82 0
 207 00dc 7548     		ldr	r0, .L280+56
 208 00de FFF7FEFF 		bl	commands_printf
 209              	.LVL23:
 210              		.loc 1 821 0
 211 00e2 58B0     		add	sp, sp, #352
 212              		.cfi_remember_state
 213              		.cfi_def_cfa_offset 64
 214              		@ sp needed
 215 00e4 BDEC088B 		vldm	sp!, {d8-d11}
 216              		.cfi_restore 86
 217              		.cfi_restore 87
 218              		.cfi_restore 84
 219              		.cfi_restore 85
 220              		.cfi_restore 82
 221              		.cfi_restore 83
 222              		.cfi_restore 80
 223              		.cfi_restore 81
 224              		.cfi_def_cfa_offset 32
 225 00e8 BDE8F087 		pop	{r4, r5, r6, r7, r8, r9, r10, pc}
 226              	.LVL24:
 227              	.L252:
 228              		.cfi_restore_state
ARM GAS  /tmp/ccKqffqy.s 			page 5


 229              		.loc 1 87 0
 230 00ec FFF7FEFF 		bl	mcpwm_get_last_adc_isr_duration
 231              	.LVL25:
 232 00f0 9FED718A 		vldr.32	s16, .L280+60
 233 00f4 60EE087A 		vmul.f32	s15, s0, s16
 234 00f8 17EE900A 		vmov	r0, s15
 235 00fc FFF7FEFF 		bl	__aeabi_f2d
 236              	.LVL26:
 237 0100 0246     		mov	r2, r0
 238 0102 0B46     		mov	r3, r1
 239 0104 6D48     		ldr	r0, .L280+64
 240 0106 FFF7FEFF 		bl	commands_printf
 241              	.LVL27:
 242              		.loc 1 88 0
 243 010a FFF7FEFF 		bl	mc_interface_get_last_inj_adc_isr_duration
 244              	.LVL28:
 245 010e 60EE087A 		vmul.f32	s15, s0, s16
 246 0112 17EE900A 		vmov	r0, s15
 247 0116 FFF7FEFF 		bl	__aeabi_f2d
 248              	.LVL29:
 249 011a 0246     		mov	r2, r0
 250 011c 0B46     		mov	r3, r1
 251 011e 6848     		ldr	r0, .L280+68
 252 0120 FFF7FEFF 		bl	commands_printf
 253              	.LVL30:
 254              		.loc 1 89 0
 255 0124 FFF7FEFF 		bl	mc_interface_get_last_sample_adc_isr_duration
 256              	.LVL31:
 257 0128 60EE087A 		vmul.f32	s15, s0, s16
 258 012c 17EE900A 		vmov	r0, s15
 259 0130 FFF7FEFF 		bl	__aeabi_f2d
 260              	.LVL32:
 261 0134 0246     		mov	r2, r0
 262 0136 0B46     		mov	r3, r1
 263 0138 6248     		ldr	r0, .L280+72
 264 013a FFF7FEFF 		bl	commands_printf
 265              	.LVL33:
 266 013e C8E7     		b	.L1
 267              	.L251:
 268              		.loc 1 84 0
 269 0140 9FED610A 		vldr.32	s0, .L280+76
 270 0144 FFF7FEFF 		bl	mc_interface_set_duty
 271              	.LVL34:
 272              		.loc 1 85 0
 273 0148 6048     		ldr	r0, .L280+80
 274 014a FFF7FEFF 		bl	commands_printf
 275              	.LVL35:
 276              		.loc 1 821 0
 277 014e 58B0     		add	sp, sp, #352
 278              		.cfi_remember_state
 279              		.cfi_def_cfa_offset 64
 280              		@ sp needed
 281 0150 BDEC088B 		vldm	sp!, {d8-d11}
 282              		.cfi_restore 86
 283              		.cfi_restore 87
 284              		.cfi_restore 84
 285              		.cfi_restore 85
ARM GAS  /tmp/ccKqffqy.s 			page 6


 286              		.cfi_restore 82
 287              		.cfi_restore 83
 288              		.cfi_restore 80
 289              		.cfi_restore 81
 290              		.cfi_def_cfa_offset 32
 291 0154 BDE8F087 		pop	{r4, r5, r6, r7, r8, r9, r10, pc}
 292              	.LVL36:
 293              	.L253:
 294              		.cfi_restore_state
 295              		.loc 1 91 0
 296 0158 FFF7FEFF 		bl	mcpwm_get_kv_filtered
 297              	.LVL37:
 298 015c 10EE100A 		vmov	r0, s0
 299 0160 FFF7FEFF 		bl	__aeabi_f2d
 300              	.LVL38:
 301 0164 0246     		mov	r2, r0
 302 0166 0B46     		mov	r3, r1
 303 0168 5948     		ldr	r0, .L280+84
 304 016a FFF7FEFF 		bl	commands_printf
 305              	.LVL39:
 306 016e B0E7     		b	.L1
 307              	.L256:
 308              		.loc 1 114 0
 309 0170 FFF7FEFF 		bl	mc_interface_get_fault
 310              	.LVL40:
 311 0174 FFF7FEFF 		bl	mc_interface_fault_to_string
 312              	.LVL41:
 313 0178 0146     		mov	r1, r0
 314 017a 5648     		ldr	r0, .L280+88
 315 017c FFF7FEFF 		bl	commands_printf
 316              	.LVL42:
 317 0180 A7E7     		b	.L1
 318              	.L254:
 319              	.LBB77:
 320              		.loc 1 94 0
 321 0182 11A9     		add	r1, sp, #68
 322 0184 FFF7FEFF 		bl	chHeapStatus
 323              	.LVL43:
 324 0188 0446     		mov	r4, r0
 325              	.LVL44:
 326              		.loc 1 95 0
 327 018a FFF7FEFF 		bl	chCoreGetStatusX
 328              	.LVL45:
 329 018e 0146     		mov	r1, r0
 330 0190 5148     		ldr	r0, .L280+92
 331 0192 FFF7FEFF 		bl	commands_printf
 332              	.LVL46:
 333              		.loc 1 96 0
 334 0196 2146     		mov	r1, r4
 335 0198 5048     		ldr	r0, .L280+96
 336 019a FFF7FEFF 		bl	commands_printf
 337              	.LVL47:
 338              		.loc 1 97 0
 339 019e 1199     		ldr	r1, [sp, #68]
 340 01a0 4F48     		ldr	r0, .L280+100
 341 01a2 FFF7FEFF 		bl	commands_printf
 342              	.LVL48:
ARM GAS  /tmp/ccKqffqy.s 			page 7


 343              	.LBE77:
 344 01a6 94E7     		b	.L1
 345              	.LVL49:
 346              	.L255:
 347              	.LBB78:
 348              		.loc 1 101 0
 349 01a8 4E48     		ldr	r0, .L280+104
 350 01aa 4F4F     		ldr	r7, .L280+108
 351 01ac 4F4E     		ldr	r6, .L280+112
 352              		.loc 1 109 0
 353 01ae 9FED508A 		vldr.32	s16, .L280+116
 354              		.loc 1 105 0
 355 01b2 504D     		ldr	r5, .L280+120
 356              		.loc 1 101 0
 357 01b4 FFF7FEFF 		bl	commands_printf
 358              	.LVL50:
 359              		.loc 1 102 0
 360 01b8 4F48     		ldr	r0, .L280+124
 361 01ba FFF7FEFF 		bl	commands_printf
 362              	.LVL51:
 363              		.loc 1 103 0
 364 01be FFF7FEFF 		bl	chRegFirstThread
 365              	.LVL52:
 366 01c2 0446     		mov	r4, r0
 367              	.LVL53:
 368              	.L13:
 369              		.loc 1 108 0 discriminator 1
 370 01c4 D4F820A0 		ldr	r10, [r4, #32]
 371              		.loc 1 109 0 discriminator 1
 372 01c8 D4ED087A 		vldr.32	s15, [r4, #32]	@ int
 373              	.LBB79:
 374              	.LBB80:
 375              		.file 2 "ChibiOS_3.0.2/os/rt/include/chvt.h"
 376              		.loc 2 231 0 discriminator 1
 377 01cc 97ED0A7A 		vldr.32	s14, [r7, #40]	@ int
 378              	.LBE80:
 379              	.LBE79:
 380              		.loc 1 109 0 discriminator 1
 381 01d0 F8EE677A 		vcvt.f32.u32	s15, s15
 382 01d4 B8EE477A 		vcvt.f32.u32	s14, s14
 383 01d8 67EE887A 		vmul.f32	s15, s15, s16
 384              		.loc 1 105 0 discriminator 1
 385 01dc D4E90298 		ldrd	r9, r8, [r4, #8]
 386 01e0 C7EE877A 		vdiv.f32	s15, s15, s14
 387 01e4 17EE900A 		vmov	r0, s15
 388              	.LVL54:
 389 01e8 FFF7FEFF 		bl	__aeabi_f2d
 390              	.LVL55:
 391 01ec CDE90401 		strd	r0, [sp, #16]
 392 01f0 CDF80CA0 		str	r10, [sp, #12]
 393 01f4 A369     		ldr	r3, [r4, #24]
 394 01f6 0293     		str	r3, [sp, #8]
 395              		.loc 1 108 0 discriminator 1
 396 01f8 237F     		ldrb	r3, [r4, #28]	@ zero_extendqisi2
 397              		.loc 1 105 0 discriminator 1
 398 01fa 56F82330 		ldr	r3, [r6, r3, lsl #2]
 399 01fe 0193     		str	r3, [sp, #4]
ARM GAS  /tmp/ccKqffqy.s 			page 8


 400              		.loc 1 107 0 discriminator 1
 401 0200 A17F     		ldrb	r1, [r4, #30]	@ zero_extendqisi2
 402 0202 0139     		subs	r1, r1, #1
 403              		.loc 1 105 0 discriminator 1
 404 0204 4B46     		mov	r3, r9
 405 0206 4246     		mov	r2, r8
 406 0208 0091     		str	r1, [sp]
 407 020a 2846     		mov	r0, r5
 408 020c 2146     		mov	r1, r4
 409 020e FFF7FEFF 		bl	commands_printf
 410              	.LVL56:
 411              		.loc 1 110 0 discriminator 1
 412 0212 2046     		mov	r0, r4
 413 0214 FFF7FEFF 		bl	chRegNextThread
 414              	.LVL57:
 415              		.loc 1 111 0 discriminator 1
 416 0218 0446     		mov	r4, r0
 417 021a 0028     		cmp	r0, #0
 418 021c D2D1     		bne	.L13
 419              		.loc 1 112 0
 420 021e 3748     		ldr	r0, .L280+128
 421              	.LVL58:
 422 0220 FFF7FEFF 		bl	commands_printf
 423              	.LVL59:
 424              	.LBE78:
 425 0224 55E7     		b	.L1
 426              	.LVL60:
 427              	.L15:
 428              		.loc 1 154 0
 429 0226 3649     		ldr	r1, .L280+132
 430 0228 2846     		mov	r0, r5
 431 022a FFF7FEFF 		bl	strcmp
 432              	.LVL61:
 433 022e 0028     		cmp	r0, #0
 434 0230 00F0EB80 		beq	.L257
 435              		.loc 1 156 0
 436 0234 3349     		ldr	r1, .L280+136
 437 0236 2846     		mov	r0, r5
 438 0238 FFF7FEFF 		bl	strcmp
 439              	.LVL62:
 440 023c 0028     		cmp	r0, #0
 441 023e 00F0F080 		beq	.L258
 442              		.loc 1 158 0
 443 0242 3149     		ldr	r1, .L280+140
 444 0244 2846     		mov	r0, r5
 445 0246 FFF7FEFF 		bl	strcmp
 446              	.LVL63:
 447 024a 0028     		cmp	r0, #0
 448 024c 00F0F080 		beq	.L259
 449              		.loc 1 183 0
 450 0250 2E49     		ldr	r1, .L280+144
 451 0252 2846     		mov	r0, r5
 452 0254 FFF7FEFF 		bl	strcmp
 453              	.LVL64:
 454 0258 0028     		cmp	r0, #0
 455 025a 00F03381 		beq	.L260
 456              		.loc 1 188 0
ARM GAS  /tmp/ccKqffqy.s 			page 9


 457 025e 2C49     		ldr	r1, .L280+148
 458 0260 2846     		mov	r0, r5
 459 0262 FFF7FEFF 		bl	strcmp
 460              	.LVL65:
 461 0266 0028     		cmp	r0, #0
 462 0268 40F08A81 		bne	.L23
 463              		.loc 1 190 0
 464 026c 042C     		cmp	r4, #4
 465 026e 00F04181 		beq	.L261
 466              	.L24:
 467              		.loc 1 232 0
 468 0272 2848     		ldr	r0, .L280+152
 469 0274 FFF7FEFF 		bl	commands_printf
 470              	.LVL66:
 471 0278 2BE7     		b	.L1
 472              	.L281:
 473 027a 00BF     		.align	2
 474              	.L280:
 475 027c 18000000 		.word	.LC4
 476 0280 00000000 		.word	.LANCHOR0
 477 0284 00000000 		.word	.LANCHOR1
 478 0288 34000000 		.word	.LC6
 479 028c 44000000 		.word	.LC8
 480 0290 5C000000 		.word	.LC10
 481 0294 E0000000 		.word	.LC14
 482 0298 04010000 		.word	.LC16
 483 029c 5C010000 		.word	.LC20
 484 02a0 18020000 		.word	.LC25
 485 02a4 24020000 		.word	.LC27
 486 02a8 00000000 		.word	.LANCHOR3
 487 02ac 2C020000 		.word	.LC28
 488 02b0 1C000000 		.word	.LC5
 489 02b4 3C000000 		.word	.LC7
 490 02b8 00007A44 		.word	1148846080
 491 02bc 70000000 		.word	.LC11
 492 02c0 90000000 		.word	.LC12
 493 02c4 B8000000 		.word	.LC13
 494 02c8 00000000 		.word	0
 495 02cc 4C000000 		.word	.LC9
 496 02d0 E4000000 		.word	.LC15
 497 02d4 20020000 		.word	.LC26
 498 02d8 08010000 		.word	.LC17
 499 02dc 24010000 		.word	.LC18
 500 02e0 3C010000 		.word	.LC19
 501 02e4 64010000 		.word	.LC21
 502 02e8 00000000 		.word	ch
 503 02ec 00000000 		.word	.LANCHOR2
 504 02f0 0000C842 		.word	1120403456
 505 02f4 E4010000 		.word	.LC23
 506 02f8 A4010000 		.word	.LC22
 507 02fc 14020000 		.word	.LC24
 508 0300 D4030000 		.word	.LC44
 509 0304 F4030000 		.word	.LC46
 510 0308 14040000 		.word	.LC48
 511 030c CC040000 		.word	.LC60
 512 0310 EC040000 		.word	.LC62
 513 0314 44060000 		.word	.LC73
ARM GAS  /tmp/ccKqffqy.s 			page 10


 514              	.L16:
 515              		.loc 1 119 0
 516 0318 BD48     		ldr	r0, .L282
 517 031a FFF7FEFF 		bl	commands_printf
 518              	.LVL67:
 519              	.LBB81:
 520              		.loc 1 120 0
 521 031e 3B68     		ldr	r3, [r7]
 522 0320 002B     		cmp	r3, #0
 523 0322 7FF7D6AE 		ble	.L1
 524 0326 BB4D     		ldr	r5, .L282+4
 525              		.loc 1 121 0
 526 0328 DFF8A0A3 		ldr	r10, .L282+188
 527              		.loc 1 122 0
 528 032c DFF8A093 		ldr	r9, .L282+192
 529              		.loc 1 123 0
 530 0330 DFF8A083 		ldr	r8, .L282+196
 531              	.LVL68:
 532              	.L17:
 533              		.loc 1 121 0 discriminator 3
 534 0334 C6EB0613 		rsb	r3, r6, r6, lsl #4
 535 0338 05EB8304 		add	r4, r5, r3, lsl #2
 536 033c 15F82300 		ldrb	r0, [r5, r3, lsl #2]	@ zero_extendqisi2
 537 0340 FFF7FEFF 		bl	mc_interface_fault_to_string
 538              	.LVL69:
 539 0344 0146     		mov	r1, r0
 540 0346 5046     		mov	r0, r10
 541 0348 FFF7FEFF 		bl	commands_printf
 542              	.LVL70:
 543              		.loc 1 122 0 discriminator 3
 544 034c 6068     		ldr	r0, [r4, #4]	@ float
 545 034e FFF7FEFF 		bl	__aeabi_f2d
 546              	.LVL71:
 547 0352 0246     		mov	r2, r0
 548 0354 0B46     		mov	r3, r1
 549 0356 4846     		mov	r0, r9
 550 0358 FFF7FEFF 		bl	commands_printf
 551              	.LVL72:
 552              		.loc 1 123 0 discriminator 3
 553 035c A068     		ldr	r0, [r4, #8]	@ float
 554 035e FFF7FEFF 		bl	__aeabi_f2d
 555              	.LVL73:
 556 0362 0246     		mov	r2, r0
 557 0364 0B46     		mov	r3, r1
 558 0366 4046     		mov	r0, r8
 559 0368 FFF7FEFF 		bl	commands_printf
 560              	.LVL74:
 561              		.loc 1 124 0 discriminator 3
 562 036c E068     		ldr	r0, [r4, #12]	@ float
 563 036e FFF7FEFF 		bl	__aeabi_f2d
 564              	.LVL75:
 565 0372 0246     		mov	r2, r0
 566 0374 0B46     		mov	r3, r1
 567 0376 A848     		ldr	r0, .L282+8
 568 0378 FFF7FEFF 		bl	commands_printf
 569              	.LVL76:
 570              		.loc 1 128 0 discriminator 3
ARM GAS  /tmp/ccKqffqy.s 			page 11


 571 037c 6069     		ldr	r0, [r4, #20]	@ float
 572 037e FFF7FEFF 		bl	__aeabi_f2d
 573              	.LVL77:
 574 0382 0246     		mov	r2, r0
 575 0384 0B46     		mov	r3, r1
 576 0386 A548     		ldr	r0, .L282+12
 577 0388 FFF7FEFF 		bl	commands_printf
 578              	.LVL78:
 579              		.loc 1 129 0 discriminator 3
 580 038c A069     		ldr	r0, [r4, #24]	@ float
 581 038e FFF7FEFF 		bl	__aeabi_f2d
 582              	.LVL79:
 583 0392 0246     		mov	r2, r0
 584 0394 0B46     		mov	r3, r1
 585 0396 A248     		ldr	r0, .L282+16
 586 0398 FFF7FEFF 		bl	commands_printf
 587              	.LVL80:
 588              		.loc 1 130 0 discriminator 3
 589 039c E169     		ldr	r1, [r4, #28]
 590 039e A148     		ldr	r0, .L282+20
 591 03a0 FFF7FEFF 		bl	commands_printf
 592              	.LVL81:
 593              		.loc 1 131 0 discriminator 3
 594 03a4 216A     		ldr	r1, [r4, #32]
 595 03a6 A048     		ldr	r0, .L282+24
 596 03a8 FFF7FEFF 		bl	commands_printf
 597              	.LVL82:
 598              		.loc 1 132 0 discriminator 3
 599 03ac D4ED0B7A 		vldr.32	s15, [r4, #44]	@ int
 600 03b0 94ED057A 		vldr.32	s14, [r4, #20]
 601 03b4 9D48     		ldr	r0, .L282+28
 602 03b6 F8EEE77A 		vcvt.f32.s32	s15, s15
 603              		.loc 1 120 0 discriminator 3
 604 03ba 0136     		adds	r6, r6, #1
 605              	.LVL83:
 606              		.loc 1 132 0 discriminator 3
 607 03bc 67EE877A 		vmul.f32	s15, s15, s14
 608 03c0 FDEEE77A 		vcvt.s32.f32	s15, s15
 609 03c4 17EE901A 		vmov	r1, s15	@ int
 610 03c8 FFF7FEFF 		bl	commands_printf
 611              	.LVL84:
 612              		.loc 1 133 0 discriminator 3
 613 03cc 616A     		ldr	r1, [r4, #36]
 614 03ce 9848     		ldr	r0, .L282+32
 615 03d0 FFF7FEFF 		bl	commands_printf
 616              	.LVL85:
 617              		.loc 1 134 0 discriminator 3
 618 03d4 A16A     		ldr	r1, [r4, #40]
 619 03d6 9748     		ldr	r0, .L282+36
 620 03d8 FFF7FEFF 		bl	commands_printf
 621              	.LVL86:
 622              		.loc 1 135 0 discriminator 3
 623 03dc E16A     		ldr	r1, [r4, #44]
 624 03de 9648     		ldr	r0, .L282+40
 625 03e0 FFF7FEFF 		bl	commands_printf
 626              	.LVL87:
 627              		.loc 1 136 0 discriminator 3
ARM GAS  /tmp/ccKqffqy.s 			page 12


 628 03e4 216B     		ldr	r1, [r4, #48]
 629 03e6 9548     		ldr	r0, .L282+44
 630 03e8 FFF7FEFF 		bl	commands_printf
 631              	.LVL88:
 632              		.loc 1 137 0 discriminator 3
 633 03ec 606B     		ldr	r0, [r4, #52]	@ float
 634 03ee FFF7FEFF 		bl	__aeabi_f2d
 635              	.LVL89:
 636 03f2 0246     		mov	r2, r0
 637 03f4 0B46     		mov	r3, r1
 638 03f6 9248     		ldr	r0, .L282+48
 639 03f8 FFF7FEFF 		bl	commands_printf
 640              	.LVL90:
 641              		.loc 1 151 0 discriminator 3
 642 03fc 9148     		ldr	r0, .L282+52
 643 03fe FFF7FEFF 		bl	commands_printf
 644              	.LVL91:
 645              		.loc 1 120 0 discriminator 3
 646 0402 3B68     		ldr	r3, [r7]
 647 0404 B342     		cmp	r3, r6
 648 0406 95DC     		bgt	.L17
 649 0408 63E6     		b	.L1
 650              	.LVL92:
 651              	.L257:
 652              	.LBE81:
 653              		.loc 1 155 0
 654 040a FFF7FEFF 		bl	mc_interface_get_rpm
 655              	.LVL93:
 656 040e 10EE100A 		vmov	r0, s0
 657 0412 FFF7FEFF 		bl	__aeabi_f2d
 658              	.LVL94:
 659 0416 0246     		mov	r2, r0
 660 0418 0B46     		mov	r3, r1
 661 041a 8B48     		ldr	r0, .L282+56
 662 041c FFF7FEFF 		bl	commands_printf
 663              	.LVL95:
 664 0420 57E6     		b	.L1
 665              	.L258:
 666              		.loc 1 157 0
 667 0422 FFF7FEFF 		bl	mc_interface_get_tachometer_value
 668              	.LVL96:
 669 0426 0146     		mov	r1, r0
 670 0428 8848     		ldr	r0, .L282+60
 671 042a FFF7FEFF 		bl	commands_printf
 672              	.LVL97:
 673 042e 50E6     		b	.L1
 674              	.L259:
 675              	.LVL98:
 676              	.LBB82:
 677              	.LBB83:
 678              	.LBB84:
 679              	.LBB85:
 680              	.LBB86:
 681              		.file 3 "ChibiOS_3.0.2/os/ext/CMSIS/include/core_cmFunc.h"
 682              		.loc 3 546 0
 683 0430 2023     		movs	r3, #32
 684              		.syntax unified
ARM GAS  /tmp/ccKqffqy.s 			page 13


 685              	@ 546 "ChibiOS_3.0.2/os/ext/CMSIS/include/core_cmFunc.h" 1
 686 0432 83F31188 		MSR basepri, r3
 687              	@ 0 "" 2
 688              	.LVL99:
 689              		.thumb
 690              		.syntax unified
 691              	.LBE86:
 692              	.LBE85:
 693              	.LBE84:
 694              	.LBE83:
 695              		.loc 1 160 0
 696 0436 864B     		ldr	r3, .L282+64
 697              		.loc 1 161 0
 698 0438 864A     		ldr	r2, .L282+68
 699              		.loc 1 160 0
 700 043a 596A     		ldr	r1, [r3, #36]
 701 043c 0E91     		str	r1, [sp, #56]
 702              		.loc 1 161 0
 703 043e 516A     		ldr	r1, [r2, #36]
 704 0440 0F91     		str	r1, [sp, #60]
 705              		.loc 1 162 0
 706 0442 1968     		ldr	r1, [r3]
 707 0444 C1F30011 		ubfx	r1, r1, #4, #1
 708 0448 1091     		str	r1, [sp, #64]
 709              		.loc 1 163 0
 710 044a 1168     		ldr	r1, [r2]
 711 044c C1F30011 		ubfx	r1, r1, #4, #1
 712 0450 1191     		str	r1, [sp, #68]
 713              	.LVL100:
 714              	.LBB87:
 715              	.LBB88:
 716              	.LBB89:
 717              	.LBB90:
 718              	.LBB91:
 719              		.loc 3 546 0
 720              		.syntax unified
 721              	@ 546 "ChibiOS_3.0.2/os/ext/CMSIS/include/core_cmFunc.h" 1
 722 0452 80F31188 		MSR basepri, r0
 723              	@ 0 "" 2
 724              	.LVL101:
 725              		.thumb
 726              		.syntax unified
 727              	.LBE91:
 728              	.LBE90:
 729              	.LBE89:
 730              	.LBE88:
 731              	.LBE87:
 732              		.loc 1 172 0
 733 0456 8048     		ldr	r0, .L282+72
 734              		.loc 1 165 0
 735 0458 D3F834A0 		ldr	r10, [r3, #52]
 736              	.LVL102:
 737              		.loc 1 166 0
 738 045c D3F83890 		ldr	r9, [r3, #56]
 739              	.LVL103:
 740              		.loc 1 167 0
 741 0460 D3F83C80 		ldr	r8, [r3, #60]
ARM GAS  /tmp/ccKqffqy.s 			page 14


 742              	.LVL104:
 743              		.loc 1 168 0
 744 0464 DF6A     		ldr	r7, [r3, #44]
 745              	.LVL105:
 746              		.loc 1 169 0
 747 0466 566B     		ldr	r6, [r2, #52]
 748              	.LVL106:
 749              		.loc 1 170 0
 750 0468 1D6C     		ldr	r5, [r3, #64]
 751              	.LVL107:
 752              		.loc 1 171 0
 753 046a 946B     		ldr	r4, [r2, #56]
 754              	.LVL108:
 755              		.loc 1 172 0
 756 046c 0E99     		ldr	r1, [sp, #56]
 757 046e FFF7FEFF 		bl	commands_printf
 758              	.LVL109:
 759              		.loc 1 173 0
 760 0472 0F99     		ldr	r1, [sp, #60]
 761 0474 7948     		ldr	r0, .L282+76
 762 0476 FFF7FEFF 		bl	commands_printf
 763              	.LVL110:
 764              		.loc 1 174 0
 765 047a 5146     		mov	r1, r10
 766 047c 7848     		ldr	r0, .L282+80
 767 047e FFF7FEFF 		bl	commands_printf
 768              	.LVL111:
 769              		.loc 1 175 0
 770 0482 4946     		mov	r1, r9
 771 0484 7748     		ldr	r0, .L282+84
 772 0486 FFF7FEFF 		bl	commands_printf
 773              	.LVL112:
 774              		.loc 1 176 0
 775 048a 4146     		mov	r1, r8
 776 048c 7648     		ldr	r0, .L282+88
 777 048e FFF7FEFF 		bl	commands_printf
 778              	.LVL113:
 779              		.loc 1 177 0
 780 0492 3946     		mov	r1, r7
 781 0494 7548     		ldr	r0, .L282+92
 782 0496 FFF7FEFF 		bl	commands_printf
 783              	.LVL114:
 784              		.loc 1 178 0
 785 049a 1099     		ldr	r1, [sp, #64]
 786 049c 7448     		ldr	r0, .L282+96
 787 049e FFF7FEFF 		bl	commands_printf
 788              	.LVL115:
 789              		.loc 1 179 0
 790 04a2 1199     		ldr	r1, [sp, #68]
 791 04a4 7348     		ldr	r0, .L282+100
 792 04a6 FFF7FEFF 		bl	commands_printf
 793              	.LVL116:
 794              		.loc 1 180 0
 795 04aa 3146     		mov	r1, r6
 796 04ac 7248     		ldr	r0, .L282+104
 797 04ae FFF7FEFF 		bl	commands_printf
 798              	.LVL117:
ARM GAS  /tmp/ccKqffqy.s 			page 15


 799              		.loc 1 181 0
 800 04b2 2946     		mov	r1, r5
 801 04b4 7148     		ldr	r0, .L282+108
 802 04b6 FFF7FEFF 		bl	commands_printf
 803              	.LVL118:
 804              		.loc 1 182 0
 805 04ba 2146     		mov	r1, r4
 806 04bc 7048     		ldr	r0, .L282+112
 807 04be FFF7FEFF 		bl	commands_printf
 808              	.LVL119:
 809              	.LBE82:
 810 04c2 06E6     		b	.L1
 811              	.LVL120:
 812              	.L260:
 813              		.loc 1 184 0
 814 04c4 6F4B     		ldr	r3, .L282+116
 815 04c6 DFED706A 		vldr.32	s13, .L282+120
 816 04ca DB8A     		ldrh	r3, [r3, #22]
 817 04cc 9FED6F7A 		vldr.32	s14, .L282+124
 818 04d0 07EE903A 		vmov	s15, r3	@ int
 819 04d4 F8EE677A 		vcvt.f32.u32	s15, s15
 820 04d8 67EEA67A 		vmul.f32	s15, s15, s13
 821 04dc 67EE877A 		vmul.f32	s15, s15, s14
 822 04e0 17EE900A 		vmov	r0, s15
 823 04e4 FFF7FEFF 		bl	__aeabi_f2d
 824              	.LVL121:
 825 04e8 0246     		mov	r2, r0
 826 04ea 0B46     		mov	r3, r1
 827 04ec 6848     		ldr	r0, .L282+128
 828 04ee FFF7FEFF 		bl	commands_printf
 829              	.LVL122:
 830 04f2 EEE5     		b	.L1
 831              	.L261:
 832              	.LBB92:
 833              		.loc 1 191 0
 834 04f4 674B     		ldr	r3, .L282+132
 835              		.loc 1 194 0
 836 04f6 6849     		ldr	r1, .L282+136
 837 04f8 1998     		ldr	r0, [sp, #100]
 838              		.loc 1 191 0
 839 04fa 0B93     		str	r3, [sp, #44]	@ float
 840              		.loc 1 194 0
 841 04fc 0BAA     		add	r2, sp, #44
 842              		.loc 1 192 0
 843 04fe 0C93     		str	r3, [sp, #48]	@ float
 844              		.loc 1 193 0
 845 0500 0D93     		str	r3, [sp, #52]	@ float
 846              		.loc 1 194 0
 847 0502 FFF7FEFF 		bl	sscanf
 848              	.LVL123:
 849              		.loc 1 195 0
 850 0506 0CAA     		add	r2, sp, #48
 851 0508 6349     		ldr	r1, .L282+136
 852 050a 1A98     		ldr	r0, [sp, #104]
 853 050c FFF7FEFF 		bl	sscanf
 854              	.LVL124:
 855              		.loc 1 196 0
ARM GAS  /tmp/ccKqffqy.s 			page 16


 856 0510 0DAA     		add	r2, sp, #52
 857 0512 1B98     		ldr	r0, [sp, #108]
 858 0514 6049     		ldr	r1, .L282+136
 859 0516 FFF7FEFF 		bl	sscanf
 860              	.LVL125:
 861              		.loc 1 198 0
 862 051a 9DED0B0A 		vldr.32	s0, [sp, #44]
 863 051e B5EEC00A 		vcmpe.f32	s0, #0
 864 0522 F1EE10FA 		vmrs	APSR_nzcv, FPSCR
 865 0526 27DD     		ble	.L226
 866              		.loc 1 198 0 is_stmt 0 discriminator 1
 867 0528 5C4B     		ldr	r3, .L282+140
 868 052a D3ED017A 		vldr.32	s15, [r3, #4]
 869 052e B4EEE70A 		vcmpe.f32	s0, s15
 870 0532 F1EE10FA 		vmrs	APSR_nzcv, FPSCR
 871 0536 1FD5     		bpl	.L226
 872              		.loc 1 199 0 is_stmt 1 discriminator 2
 873 0538 DDED0C0A 		vldr.32	s1, [sp, #48]
 874              		.loc 1 198 0 discriminator 2
 875 053c F2EE047A 		vmov.f32	s15, #1.0e+1
 876 0540 F4EEE70A 		vcmpe.f32	s1, s15
 877 0544 F1EE10FA 		vmrs	APSR_nzcv, FPSCR
 878 0548 16DD     		ble	.L226
 879              		.loc 1 199 0
 880 054a DFED557A 		vldr.32	s15, .L282+144
 881 054e F4EEE70A 		vcmpe.f32	s1, s15
 882 0552 F1EE10FA 		vmrs	APSR_nzcv, FPSCR
 883 0556 0FD5     		bpl	.L226
 884              		.loc 1 200 0 discriminator 1
 885 0558 9DED0D1A 		vldr.32	s2, [sp, #52]
 886              		.loc 1 199 0 discriminator 1
 887 055c DFED517A 		vldr.32	s15, .L282+148
 888 0560 B4EEE71A 		vcmpe.f32	s2, s15
 889 0564 F1EE10FA 		vmrs	APSR_nzcv, FPSCR
 890 0568 06DD     		ble	.L226
 891              		.loc 1 200 0
 892 056a DFED4F7A 		vldr.32	s15, .L282+152
 893 056e B4EEE71A 		vcmpe.f32	s2, s15
 894 0572 F1EE10FA 		vmrs	APSR_nzcv, FPSCR
 895 0576 20D4     		bmi	.L262
 896              	.LVL126:
 897              	.L226:
 898              	.LBE92:
 899              	.LBB95:
 900              		.loc 1 653 0
 901 0578 4C48     		ldr	r0, .L282+156
 902 057a FFF7FEFF 		bl	commands_printf
 903              	.LVL127:
 904 057e A8E5     		b	.L1
 905              	.LVL128:
 906              	.L23:
 907              	.LBE95:
 908              		.loc 1 234 0
 909 0580 4B49     		ldr	r1, .L282+160
 910 0582 2846     		mov	r0, r5
 911 0584 FFF7FEFF 		bl	strcmp
 912              	.LVL129:
ARM GAS  /tmp/ccKqffqy.s 			page 17


 913 0588 0028     		cmp	r0, #0
 914 058a 00F0D381 		beq	.L263
 915              		.loc 1 239 0
 916 058e 4949     		ldr	r1, .L282+164
 917 0590 2846     		mov	r0, r5
 918 0592 FFF7FEFF 		bl	strcmp
 919              	.LVL130:
 920 0596 0646     		mov	r6, r0
 921 0598 0028     		cmp	r0, #0
 922 059a 00F07181 		beq	.L264
 923              		.loc 1 253 0
 924 059e 4649     		ldr	r1, .L282+168
 925 05a0 2846     		mov	r0, r5
 926 05a2 FFF7FEFF 		bl	strcmp
 927              	.LVL131:
 928 05a6 0028     		cmp	r0, #0
 929 05a8 40F0E780 		bne	.L43
 930              		.loc 1 254 0
 931 05ac 022C     		cmp	r4, #2
 932 05ae 00F09380 		beq	.L265
 933              	.L44:
 934              		.loc 1 282 0
 935 05b2 4248     		ldr	r0, .L282+172
 936 05b4 FFF7FEFF 		bl	commands_printf
 937              	.LVL132:
 938 05b8 8BE5     		b	.L1
 939              	.L262:
 940              	.LBB99:
 941              	.LBB93:
 942              		.loc 1 206 0
 943 05ba 10AB     		add	r3, sp, #64
 944 05bc 11AA     		add	r2, sp, #68
 945 05be 0FA9     		add	r1, sp, #60
 946 05c0 0EA8     		add	r0, sp, #56
 947 05c2 FFF7FEFF 		bl	conf_general_detect_motor_param
 948              	.LVL133:
 949 05c6 0028     		cmp	r0, #0
 950 05c8 00F00382 		beq	.L32
 951              		.loc 1 207 0
 952 05cc 0E98     		ldr	r0, [sp, #56]	@ float
 953 05ce FFF7FEFF 		bl	__aeabi_f2d
 954              	.LVL134:
 955 05d2 0246     		mov	r2, r0
 956 05d4 0B46     		mov	r3, r1
 957 05d6 3A48     		ldr	r0, .L282+176
 958 05d8 FFF7FEFF 		bl	commands_printf
 959              	.LVL135:
 960              		.loc 1 208 0
 961 05dc 0F98     		ldr	r0, [sp, #60]	@ float
 962 05de FFF7FEFF 		bl	__aeabi_f2d
 963              	.LVL136:
 964 05e2 0246     		mov	r2, r0
 965 05e4 0B46     		mov	r3, r1
 966 05e6 3748     		ldr	r0, .L282+180
 967 05e8 FFF7FEFF 		bl	commands_printf
 968              	.LVL137:
 969              		.loc 1 210 0
ARM GAS  /tmp/ccKqffqy.s 			page 18


 970 05ec 109B     		ldr	r3, [sp, #64]
 971 05ee 002B     		cmp	r3, #0
 972 05f0 00F0ED81 		beq	.L266
 973              		.loc 1 215 0
 974 05f4 591C     		adds	r1, r3, #1
 975 05f6 00F0CD81 		beq	.L267
 976              		.loc 1 220 0
 977 05fa 9A1C     		adds	r2, r3, #2
 978 05fc 00F0C581 		beq	.L268
 979              		.loc 1 222 0
 980 0600 0333     		adds	r3, r3, #3
 981 0602 7FF466AD 		bne	.L1
 982              		.loc 1 223 0
 983 0606 3048     		ldr	r0, .L282+184
 984 0608 FFF7FEFF 		bl	commands_printf
 985              	.LVL138:
 986 060c 61E5     		b	.L1
 987              	.L283:
 988 060e 00BF     		.align	2
 989              	.L282:
 990 0610 50020000 		.word	.LC29
 991 0614 00000000 		.word	.LANCHOR4
 992 0618 CC020000 		.word	.LC33
 993 061c E4020000 		.word	.LC34
 994 0620 FC020000 		.word	.LC35
 995 0624 14030000 		.word	.LC36
 996 0628 2C030000 		.word	.LC37
 997 062c 44030000 		.word	.LC38
 998 0630 5C030000 		.word	.LC39
 999 0634 74030000 		.word	.LC40
 1000 0638 8C030000 		.word	.LC41
 1001 063c A4030000 		.word	.LC42
 1002 0640 BC030000 		.word	.LC43
 1003 0644 18000000 		.word	.LC4
 1004 0648 D8030000 		.word	.LC45
 1005 064c FC030000 		.word	.LC47
 1006 0650 00000140 		.word	1073807360
 1007 0654 00040140 		.word	1073808384
 1008 0658 18040000 		.word	.LC49
 1009 065c 28040000 		.word	.LC50
 1010 0660 38040000 		.word	.LC51
 1011 0664 48040000 		.word	.LC52
 1012 0668 58040000 		.word	.LC53
 1013 066c 68040000 		.word	.LC54
 1014 0670 70040000 		.word	.LC55
 1015 0674 7C040000 		.word	.LC56
 1016 0678 88040000 		.word	.LC57
 1017 067c 9C040000 		.word	.LC58
 1018 0680 B4040000 		.word	.LC59
 1019 0684 00000000 		.word	ADC_Value
 1020 0688 6740533A 		.word	978534503
 1021 068c 00004943 		.word	1128857600
 1022 0690 D4040000 		.word	.LC61
 1023 0694 000080BF 		.word	-1082130432
 1024 0698 FC040000 		.word	.LC63
 1025 069c 00000000 		.word	.LANCHOR0
 1026 06a0 00803B45 		.word	1161527296
ARM GAS  /tmp/ccKqffqy.s 			page 19


 1027 06a4 0AD7A33C 		.word	1017370378
 1028 06a8 CDCC4C3F 		.word	1061997773
 1029 06ac 2C060000 		.word	.LC72
 1030 06b0 6C060000 		.word	.LC74
 1031 06b4 C8060000 		.word	.LC78
 1032 06b8 A4070000 		.word	.LC86
 1033 06bc 00080000 		.word	.LC91
 1034 06c0 00050000 		.word	.LC64
 1035 06c4 20050000 		.word	.LC65
 1036 06c8 C4050000 		.word	.LC70
 1037 06cc 84020000 		.word	.LC30
 1038 06d0 9C020000 		.word	.LC31
 1039 06d4 B4020000 		.word	.LC32
 1040              	.L265:
 1041              	.LBE93:
 1042              	.LBE99:
 1043              	.LBB100:
 1044              		.loc 1 255 0
 1045 06d8 0FAE     		add	r6, sp, #60
 1046 06da C04B     		ldr	r3, .L284
 1047              		.loc 1 256 0
 1048 06dc 1998     		ldr	r0, [sp, #100]
 1049 06de C049     		ldr	r1, .L284+4
 1050              		.loc 1 255 0
 1051 06e0 0F93     		str	r3, [sp, #60]	@ float
 1052              		.loc 1 256 0
 1053 06e2 3246     		mov	r2, r6
 1054 06e4 FFF7FEFF 		bl	sscanf
 1055              	.LVL139:
 1056              		.loc 1 258 0
 1057 06e8 D6ED007A 		vldr.32	s15, [r6]
 1058 06ec F5EEC07A 		vcmpe.f32	s15, #0
 1059 06f0 F1EE10FA 		vmrs	APSR_nzcv, FPSCR
 1060 06f4 7FF740AF 		ble	.L226
 1061              		.loc 1 258 0 is_stmt 0 discriminator 1
 1062 06f8 BA4C     		ldr	r4, .L284+8
 1063              	.LVL140:
 1064 06fa 94ED017A 		vldr.32	s14, [r4, #4]
 1065 06fe F4EEC77A 		vcmpe.f32	s15, s14
 1066 0702 F1EE10FA 		vmrs	APSR_nzcv, FPSCR
 1067 0706 3FF637AF 		bhi	.L226
 1068              		.loc 1 259 0 is_stmt 1
 1069 070a FFF7FEFF 		bl	encoder_is_configured
 1070              	.LVL141:
 1071 070e 0028     		cmp	r0, #0
 1072 0710 6DD0     		beq	.L48
 1073              	.LBB101:
 1074              		.loc 1 261 0
 1075 0712 0223     		movs	r3, #2
 1076              		.loc 1 262 0
 1077 0714 2046     		mov	r0, r4
 1078              		.loc 1 260 0
 1079 0716 A778     		ldrb	r7, [r4, #2]	@ zero_extendqisi2
 1080              	.LVL142:
 1081              		.loc 1 261 0
 1082 0718 A370     		strb	r3, [r4, #2]
 1083              		.loc 1 264 0
ARM GAS  /tmp/ccKqffqy.s 			page 20


 1084 071a 0025     		movs	r5, #0
 1085              		.loc 1 262 0
 1086 071c FFF7FEFF 		bl	mc_interface_set_configuration
 1087              	.LVL143:
 1088              		.loc 1 267 0
 1089 0720 96ED000A 		vldr.32	s0, [r6]
 1090              		.loc 1 264 0
 1091 0724 1095     		str	r5, [sp, #64]	@ float
 1092              		.loc 1 267 0
 1093 0726 11AA     		add	r2, sp, #68
 1094 0728 0EAB     		add	r3, sp, #56
 1095 072a 10A9     		add	r1, sp, #64
 1096              		.loc 1 266 0
 1097 072c 0026     		movs	r6, #0
 1098              		.loc 1 267 0
 1099 072e 0120     		movs	r0, #1
 1100              		.loc 1 265 0
 1101 0730 1195     		str	r5, [sp, #68]	@ float
 1102              		.loc 1 266 0
 1103 0732 8DF83860 		strb	r6, [sp, #56]
 1104              		.loc 1 267 0
 1105 0736 FFF7FEFF 		bl	mcpwm_foc_encoder_detect
 1106              	.LVL144:
 1107              		.loc 1 270 0
 1108 073a 2046     		mov	r0, r4
 1109              		.loc 1 269 0
 1110 073c A770     		strb	r7, [r4, #2]
 1111              		.loc 1 270 0
 1112 073e FFF7FEFF 		bl	mc_interface_set_configuration
 1113              	.LVL145:
 1114              		.loc 1 272 0
 1115 0742 1098     		ldr	r0, [sp, #64]	@ float
 1116 0744 FFF7FEFF 		bl	__aeabi_f2d
 1117              	.LVL146:
 1118 0748 0246     		mov	r2, r0
 1119 074a 0B46     		mov	r3, r1
 1120 074c A648     		ldr	r0, .L284+12
 1121 074e FFF7FEFF 		bl	commands_printf
 1122              	.LVL147:
 1123              		.loc 1 273 0
 1124 0752 1198     		ldr	r0, [sp, #68]	@ float
 1125 0754 FFF7FEFF 		bl	__aeabi_f2d
 1126              	.LVL148:
 1127 0758 0246     		mov	r2, r0
 1128 075a 0B46     		mov	r3, r1
 1129 075c A348     		ldr	r0, .L284+16
 1130 075e FFF7FEFF 		bl	commands_printf
 1131              	.LVL149:
 1132              		.loc 1 274 0
 1133 0762 9DF83810 		ldrb	r1, [sp, #56]	@ zero_extendqisi2
 1134 0766 A24A     		ldr	r2, .L284+20
 1135 0768 A24B     		ldr	r3, .L284+24
 1136 076a A348     		ldr	r0, .L284+28
 1137 076c B142     		cmp	r1, r6
 1138 076e 0CBF     		ite	eq
 1139 0770 1146     		moveq	r1, r2
 1140 0772 1946     		movne	r1, r3
ARM GAS  /tmp/ccKqffqy.s 			page 21


 1141 0774 FFF7FEFF 		bl	commands_printf
 1142              	.LVL150:
 1143              	.LBE101:
 1144 0778 ABE4     		b	.L1
 1145              	.LVL151:
 1146              	.L43:
 1147              	.LBE100:
 1148              		.loc 1 284 0
 1149 077a A049     		ldr	r1, .L284+32
 1150 077c 2846     		mov	r0, r5
 1151 077e FFF7FEFF 		bl	strcmp
 1152              	.LVL152:
 1153 0782 0028     		cmp	r0, #0
 1154 0784 37D1     		bne	.L51
 1155              		.loc 1 285 0
 1156 0786 022C     		cmp	r4, #2
 1157 0788 7FF413AF 		bne	.L44
 1158              	.LBB102:
 1159              		.loc 1 286 0
 1160 078c 11AD     		add	r5, sp, #68
 1161 078e 934B     		ldr	r3, .L284
 1162              		.loc 1 287 0
 1163 0790 1998     		ldr	r0, [sp, #100]
 1164 0792 9349     		ldr	r1, .L284+4
 1165              		.loc 1 286 0
 1166 0794 1193     		str	r3, [sp, #68]	@ float
 1167              		.loc 1 287 0
 1168 0796 2A46     		mov	r2, r5
 1169 0798 FFF7FEFF 		bl	sscanf
 1170              	.LVL153:
 1171              		.loc 1 289 0
 1172 079c D5ED007A 		vldr.32	s15, [r5]
 1173 07a0 F5EEC07A 		vcmpe.f32	s15, #0
 1174 07a4 F1EE10FA 		vmrs	APSR_nzcv, FPSCR
 1175 07a8 7FF7E6AE 		ble	.L226
 1176              		.loc 1 289 0 is_stmt 0 discriminator 1
 1177 07ac 8D4C     		ldr	r4, .L284+8
 1178              	.LVL154:
 1179 07ae 94ED017A 		vldr.32	s14, [r4, #4]
 1180 07b2 F4EEC77A 		vcmpe.f32	s15, s14
 1181 07b6 F1EE10FA 		vmrs	APSR_nzcv, FPSCR
 1182 07ba 3FF6DDAE 		bhi	.L226
 1183              		.loc 1 290 0 is_stmt 1
 1184 07be 0223     		movs	r3, #2
 1185              		.loc 1 291 0
 1186 07c0 2046     		mov	r0, r4
 1187              		.loc 1 290 0
 1188 07c2 A370     		strb	r3, [r4, #2]
 1189              		.loc 1 291 0
 1190 07c4 FFF7FEFF 		bl	mc_interface_set_configuration
 1191              	.LVL155:
 1192              		.loc 1 293 0
 1193 07c8 4FF4FA60 		mov	r0, #2000
 1194 07cc 95ED000A 		vldr.32	s0, [r5]
 1195 07d0 FFF7FEFF 		bl	mcpwm_foc_measure_resistance
 1196              	.LVL156:
 1197 07d4 10EE100A 		vmov	r0, s0
ARM GAS  /tmp/ccKqffqy.s 			page 22


 1198 07d8 FFF7FEFF 		bl	__aeabi_f2d
 1199              	.LVL157:
 1200 07dc 0246     		mov	r2, r0
 1201 07de 0B46     		mov	r3, r1
 1202 07e0 8748     		ldr	r0, .L284+36
 1203 07e2 FFF7FEFF 		bl	commands_printf
 1204              	.LVL158:
 1205              		.loc 1 295 0
 1206 07e6 8748     		ldr	r0, .L284+40
 1207 07e8 FFF7FEFF 		bl	mc_interface_set_configuration
 1208              	.LVL159:
 1209 07ec 71E4     		b	.L1
 1210              	.L48:
 1211              	.LBE102:
 1212              	.LBB103:
 1213              		.loc 1 276 0
 1214 07ee 8648     		ldr	r0, .L284+44
 1215 07f0 FFF7FEFF 		bl	commands_printf
 1216              	.LVL160:
 1217 07f4 6DE4     		b	.L1
 1218              	.LVL161:
 1219              	.L51:
 1220              	.LBE103:
 1221              		.loc 1 302 0
 1222 07f6 8549     		ldr	r1, .L284+48
 1223 07f8 2846     		mov	r0, r5
 1224 07fa FFF7FEFF 		bl	strcmp
 1225              	.LVL162:
 1226 07fe 0028     		cmp	r0, #0
 1227 0800 40F0B580 		bne	.L56
 1228              		.loc 1 303 0
 1229 0804 022C     		cmp	r4, #2
 1230 0806 7FF4D4AE 		bne	.L44
 1231              	.LBB104:
 1232              		.loc 1 304 0
 1233 080a 10AC     		add	r4, sp, #64
 1234              	.LVL163:
 1235 080c 734B     		ldr	r3, .L284
 1236              		.loc 1 305 0
 1237 080e 1998     		ldr	r0, [sp, #100]
 1238 0810 7349     		ldr	r1, .L284+4
 1239              		.loc 1 304 0
 1240 0812 1093     		str	r3, [sp, #64]	@ float
 1241              		.loc 1 305 0
 1242 0814 2246     		mov	r2, r4
 1243 0816 FFF7FEFF 		bl	sscanf
 1244              	.LVL164:
 1245              		.loc 1 307 0
 1246 081a D4ED007A 		vldr.32	s15, [r4]
 1247 081e F5EEC07A 		vcmpe.f32	s15, #0
 1248 0822 F1EE10FA 		vmrs	APSR_nzcv, FPSCR
 1249 0826 7FF7A7AE 		ble	.L226
 1250              		.loc 1 307 0 is_stmt 0 discriminator 1
 1251 082a 9FED797A 		vldr.32	s14, .L284+52
 1252 082e F4EEC77A 		vcmpe.f32	s15, s14
 1253 0832 F1EE10FA 		vmrs	APSR_nzcv, FPSCR
 1254 0836 7FF59FAE 		bpl	.L226
ARM GAS  /tmp/ccKqffqy.s 			page 23


 1255              	.LBB105:
 1256              		.loc 1 308 0 is_stmt 1
 1257 083a 6A4B     		ldr	r3, .L284+8
 1258              		.loc 1 309 0
 1259 083c 754A     		ldr	r2, .L284+56
 1260 083e C3F8B420 		str	r2, [r3, #180]	@ float
 1261              		.loc 1 310 0
 1262 0842 1846     		mov	r0, r3
 1263              		.loc 1 308 0
 1264 0844 0221     		movs	r1, #2
 1265 0846 9970     		strb	r1, [r3, #2]
 1266              		.loc 1 310 0
 1267 0848 FFF7FEFF 		bl	mc_interface_set_configuration
 1268              	.LVL165:
 1269              		.loc 1 313 0
 1270 084c 11A9     		add	r1, sp, #68
 1271 084e C820     		movs	r0, #200
 1272 0850 94ED000A 		vldr.32	s0, [r4]
 1273 0854 FFF7FEFF 		bl	mcpwm_foc_measure_inductance
 1274              	.LVL166:
 1275              		.loc 1 314 0
 1276 0858 10EE100A 		vmov	r0, s0
 1277 085c FFF7FEFF 		bl	__aeabi_f2d
 1278              	.LVL167:
 1279 0860 0446     		mov	r4, r0
 1280 0862 1198     		ldr	r0, [sp, #68]	@ float
 1281 0864 0D46     		mov	r5, r1
 1282 0866 FFF7FEFF 		bl	__aeabi_f2d
 1283              	.LVL168:
 1284 086a 2246     		mov	r2, r4
 1285 086c CDE90001 		strd	r0, [sp]
 1286 0870 2B46     		mov	r3, r5
 1287 0872 6948     		ldr	r0, .L284+60
 1288 0874 FFF7FEFF 		bl	commands_printf
 1289              	.LVL169:
 1290              		.loc 1 316 0
 1291 0878 6248     		ldr	r0, .L284+40
 1292 087a FFF7FEFF 		bl	mc_interface_set_configuration
 1293              	.LVL170:
 1294              	.LBE105:
 1295              		.loc 1 307 0
 1296 087e 28E4     		b	.L1
 1297              	.LVL171:
 1298              	.L264:
 1299              	.LBE104:
 1300              		.loc 1 240 0
 1301 0880 6648     		ldr	r0, .L284+64
 1302              	.LBB106:
 1303              	.LBB107:
 1304              	.LBB108:
 1305              	.LBB109:
 1306              	.LBB110:
 1307              	.LBB111:
 1308              		.loc 2 231 0
 1309 0882 674D     		ldr	r5, .L284+68
 1310              	.LBE111:
 1311              	.LBE110:
ARM GAS  /tmp/ccKqffqy.s 			page 24


 1312              	.LBE109:
 1313              	.LBE108:
 1314              		.loc 1 244 0
 1315 0884 9FED678A 		vldr.32	s16, .L284+72
 1316              		.loc 1 245 0
 1317 0888 674F     		ldr	r7, .L284+76
 1318              	.LBE107:
 1319              	.LBE106:
 1320              		.loc 1 240 0
 1321 088a FFF7FEFF 		bl	commands_printf
 1322              	.LVL172:
 1323 088e 02E0     		b	.L42
 1324              	.LVL173:
 1325              	.L40:
 1326              	.LBB124:
 1327              		.loc 1 241 0 discriminator 2
 1328 0890 0A2E     		cmp	r6, #10
 1329 0892 3FF41EAC 		beq	.L1
 1330              	.LVL174:
 1331              	.L42:
 1332              	.LBB122:
 1333              		.loc 1 242 0
 1334 0896 3046     		mov	r0, r6
 1335 0898 FFF7FEFF 		bl	comm_can_get_status_msg_index
 1336              	.LVL175:
 1337              		.loc 1 244 0
 1338 089c 0168     		ldr	r1, [r0]
 1339 089e 0029     		cmp	r1, #0
 1340              		.loc 1 242 0
 1341 08a0 0446     		mov	r4, r0
 1342              	.LVL176:
 1343              		.loc 1 244 0
 1344 08a2 B7EE007A 		vmov.f32	s14, #1.0e+0
 1345              	.LBE122:
 1346              		.loc 1 241 0
 1347 08a6 06F10106 		add	r6, r6, #1
 1348              	.LVL177:
 1349              	.LBB123:
 1350              		.loc 1 244 0
 1351 08aa F1DB     		blt	.L40
 1352              	.LBB115:
 1353              	.LBB114:
 1354              	.LBB113:
 1355              	.LBB112:
 1356              		.loc 2 231 0 discriminator 1
 1357 08ac AB6A     		ldr	r3, [r5, #40]
 1358              	.LVL178:
 1359              	.LBE112:
 1360              	.LBE113:
 1361              		.loc 2 267 0 discriminator 1
 1362 08ae 4268     		ldr	r2, [r0, #4]
 1363 08b0 9B1A     		subs	r3, r3, r2
 1364              	.LBE114:
 1365              	.LBE115:
 1366              		.loc 1 244 0 discriminator 1
 1367 08b2 07EE903A 		vmov	s15, r3	@ int
 1368 08b6 F8EE677A 		vcvt.f32.u32	s15, s15
ARM GAS  /tmp/ccKqffqy.s 			page 25


 1369 08ba C7EE886A 		vdiv.f32	s13, s15, s16
 1370 08be F4EEC76A 		vcmpe.f32	s13, s14
 1371 08c2 F1EE10FA 		vmrs	APSR_nzcv, FPSCR
 1372 08c6 E3D5     		bpl	.L40
 1373              		.loc 1 245 0
 1374 08c8 3846     		mov	r0, r7
 1375              	.LVL179:
 1376 08ca FFF7FEFF 		bl	commands_printf
 1377              	.LVL180:
 1378              		.loc 1 246 0
 1379 08ce 6168     		ldr	r1, [r4, #4]
 1380 08d0 5648     		ldr	r0, .L284+80
 1381 08d2 FFF7FEFF 		bl	commands_printf
 1382              	.LVL181:
 1383              	.LBB116:
 1384              	.LBB117:
 1385              		.loc 2 267 0
 1386 08d6 6268     		ldr	r2, [r4, #4]
 1387              	.LBB118:
 1388              	.LBB119:
 1389              		.loc 2 231 0
 1390 08d8 AB6A     		ldr	r3, [r5, #40]
 1391              	.LVL182:
 1392              	.LBE119:
 1393              	.LBE118:
 1394              	.LBE117:
 1395              	.LBE116:
 1396              		.loc 1 247 0
 1397 08da 9FED557A 		vldr.32	s14, .L284+84
 1398              	.LBB121:
 1399              	.LBB120:
 1400              		.loc 2 267 0
 1401 08de 9B1A     		subs	r3, r3, r2
 1402              	.LBE120:
 1403              	.LBE121:
 1404              		.loc 1 247 0
 1405 08e0 07EE903A 		vmov	s15, r3	@ int
 1406 08e4 F8EE677A 		vcvt.f32.u32	s15, s15
 1407 08e8 C7EE886A 		vdiv.f32	s13, s15, s16
 1408 08ec 66EE877A 		vmul.f32	s15, s13, s14
 1409 08f0 17EE900A 		vmov	r0, s15
 1410 08f4 FFF7FEFF 		bl	__aeabi_f2d
 1411              	.LVL183:
 1412 08f8 0246     		mov	r2, r0
 1413 08fa 0B46     		mov	r3, r1
 1414 08fc 4D48     		ldr	r0, .L284+88
 1415 08fe FFF7FEFF 		bl	commands_printf
 1416              	.LVL184:
 1417              		.loc 1 248 0
 1418 0902 A068     		ldr	r0, [r4, #8]	@ float
 1419 0904 FFF7FEFF 		bl	__aeabi_f2d
 1420              	.LVL185:
 1421 0908 0246     		mov	r2, r0
 1422 090a 0B46     		mov	r3, r1
 1423 090c 4A48     		ldr	r0, .L284+92
 1424 090e FFF7FEFF 		bl	commands_printf
 1425              	.LVL186:
ARM GAS  /tmp/ccKqffqy.s 			page 26


 1426              		.loc 1 249 0
 1427 0912 E068     		ldr	r0, [r4, #12]	@ float
 1428 0914 FFF7FEFF 		bl	__aeabi_f2d
 1429              	.LVL187:
 1430 0918 0246     		mov	r2, r0
 1431 091a 0B46     		mov	r3, r1
 1432 091c 4748     		ldr	r0, .L284+96
 1433 091e FFF7FEFF 		bl	commands_printf
 1434              	.LVL188:
 1435              		.loc 1 250 0
 1436 0922 2069     		ldr	r0, [r4, #16]	@ float
 1437 0924 FFF7FEFF 		bl	__aeabi_f2d
 1438              	.LVL189:
 1439 0928 0246     		mov	r2, r0
 1440 092a 0B46     		mov	r3, r1
 1441 092c 4448     		ldr	r0, .L284+100
 1442 092e FFF7FEFF 		bl	commands_printf
 1443              	.LVL190:
 1444 0932 ADE7     		b	.L40
 1445              	.LVL191:
 1446              	.L263:
 1447              	.LBE123:
 1448              	.LBE124:
 1449              	.LBB125:
 1450              		.loc 1 235 0 discriminator 7
 1451 0934 11A8     		add	r0, sp, #68
 1452 0936 FFF7FEFF 		bl	mcpwm_get_rpm_dep
 1453              	.LVL192:
 1454              		.loc 1 236 0 discriminator 7
 1455 093a 1198     		ldr	r0, [sp, #68]	@ float
 1456 093c FFF7FEFF 		bl	__aeabi_f2d
 1457              	.LVL193:
 1458 0940 0246     		mov	r2, r0
 1459 0942 0B46     		mov	r3, r1
 1460 0944 3F48     		ldr	r0, .L284+104
 1461 0946 FFF7FEFF 		bl	commands_printf
 1462              	.LVL194:
 1463              		.loc 1 237 0 discriminator 7
 1464 094a 1298     		ldr	r0, [sp, #72]	@ float
 1465 094c FFF7FEFF 		bl	__aeabi_f2d
 1466              	.LVL195:
 1467 0950 0246     		mov	r2, r0
 1468 0952 0B46     		mov	r3, r1
 1469 0954 3C48     		ldr	r0, .L284+108
 1470 0956 FFF7FEFF 		bl	commands_printf
 1471              	.LVL196:
 1472              		.loc 1 238 0 discriminator 7
 1473 095a 1398     		ldr	r0, [sp, #76]	@ float
 1474 095c FFF7FEFF 		bl	__aeabi_f2d
 1475              	.LVL197:
 1476 0960 0246     		mov	r2, r0
 1477 0962 0B46     		mov	r3, r1
 1478 0964 3948     		ldr	r0, .L284+112
 1479 0966 FFF7FEFF 		bl	commands_printf
 1480              	.LVL198:
 1481              	.LBE125:
 1482 096a FFF7B2BB 		b	.L1
ARM GAS  /tmp/ccKqffqy.s 			page 27


 1483              	.L56:
 1484              		.loc 1 323 0
 1485 096e 3849     		ldr	r1, .L284+116
 1486 0970 2846     		mov	r0, r5
 1487 0972 FFF7FEFF 		bl	strcmp
 1488              	.LVL199:
 1489 0976 0028     		cmp	r0, #0
 1490 0978 40F0C980 		bne	.L61
 1491              		.loc 1 324 0
 1492 097c 052C     		cmp	r4, #5
 1493 097e 75D0     		beq	.L269
 1494              	.L62:
 1495              		.loc 1 342 0
 1496 0980 3448     		ldr	r0, .L284+120
 1497 0982 FFF7FEFF 		bl	commands_printf
 1498              	.LVL200:
 1499 0986 FFF7A4BB 		b	.L1
 1500              	.L268:
 1501              	.LBB126:
 1502              	.LBB94:
 1503              		.loc 1 221 0
 1504 098a 3348     		ldr	r0, .L284+124
 1505 098c FFF7FEFF 		bl	commands_printf
 1506              	.LVL201:
 1507 0990 FFF79FBB 		b	.L1
 1508              	.L267:
 1509              		.loc 1 216 0
 1510 0994 3148     		ldr	r0, .L284+128
 1511              	.L228:
 1512 0996 FFF7FEFF 		bl	commands_printf
 1513              	.LVL202:
 1514              		.loc 1 217 0
 1515 099a 9DF94B40 		ldrsb	r4, [sp, #75]
 1516              	.LVL203:
 1517 099e 9DF94A00 		ldrsb	r0, [sp, #74]
 1518 09a2 0494     		str	r4, [sp, #16]
 1519 09a4 9DF94950 		ldrsb	r5, [sp, #73]
 1520 09a8 9DF94840 		ldrsb	r4, [sp, #72]
 1521 09ac 0390     		str	r0, [sp, #12]
 1522 09ae 9DF94700 		ldrsb	r0, [sp, #71]
 1523 09b2 0090     		str	r0, [sp]
 1524 09b4 9DF94630 		ldrsb	r3, [sp, #70]
 1525 09b8 9DF94520 		ldrsb	r2, [sp, #69]
 1526 09bc 9DF94410 		ldrsb	r1, [sp, #68]
 1527 09c0 2748     		ldr	r0, .L284+132
 1528 09c2 CDE90145 		strd	r4, r5, [sp, #4]
 1529 09c6 FFF7FEFF 		bl	commands_printf
 1530              	.LVL204:
 1531 09ca FFF782BB 		b	.L1
 1532              	.LVL205:
 1533              	.L266:
 1534              		.loc 1 211 0
 1535 09ce 2548     		ldr	r0, .L284+136
 1536 09d0 E1E7     		b	.L228
 1537              	.L32:
 1538              		.loc 1 226 0
 1539 09d2 2548     		ldr	r0, .L284+140
ARM GAS  /tmp/ccKqffqy.s 			page 28


 1540 09d4 FFF7FEFF 		bl	commands_printf
 1541              	.LVL206:
 1542              	.LBE94:
 1543              		.loc 1 200 0
 1544 09d8 FFF77BBB 		b	.L1
 1545              	.L285:
 1546              		.align	2
 1547              	.L284:
 1548 09dc 000080BF 		.word	-1082130432
 1549 09e0 FC040000 		.word	.LC63
 1550 09e4 00000000 		.word	.LANCHOR0
 1551 09e8 B8070000 		.word	.LC87
 1552 09ec C8070000 		.word	.LC88
 1553 09f0 08000000 		.word	.LC1
 1554 09f4 00000000 		.word	.LC0
 1555 09f8 D8070000 		.word	.LC89
 1556 09fc 28080000 		.word	.LC92
 1557 0a00 34080000 		.word	.LC93
 1558 0a04 00000000 		.word	.LANCHOR1
 1559 0a08 E8070000 		.word	.LC90
 1560 0a0c 4C080000 		.word	.LC94
 1561 0a10 6666663F 		.word	1063675494
 1562 0a14 00803B45 		.word	1161527296
 1563 0a18 58080000 		.word	.LC95
 1564 0a1c D4060000 		.word	.LC79
 1565 0a20 00000000 		.word	ch
 1566 0a24 00401C46 		.word	1176256512
 1567 0a28 04070000 		.word	.LC80
 1568 0a2c 1C070000 		.word	.LC81
 1569 0a30 00007A44 		.word	1148846080
 1570 0a34 34070000 		.word	.LC82
 1571 0a38 50070000 		.word	.LC83
 1572 0a3c 6C070000 		.word	.LC84
 1573 0a40 88070000 		.word	.LC85
 1574 0a44 74060000 		.word	.LC75
 1575 0a48 8C060000 		.word	.LC76
 1576 0a4c AC060000 		.word	.LC77
 1577 0a50 80080000 		.word	.LC96
 1578 0a54 A4080000 		.word	.LC98
 1579 0a58 94050000 		.word	.LC69
 1580 0a5c 74050000 		.word	.LC68
 1581 0a60 54050000 		.word	.LC67
 1582 0a64 38050000 		.word	.LC66
 1583 0a68 F4050000 		.word	.LC71
 1584              	.L269:
 1585              	.LBE126:
 1586              	.LBB127:
 1587              		.loc 1 325 0
 1588 0a6c CA4B     		ldr	r3, .L286
 1589              		.loc 1 329 0
 1590 0a6e CB49     		ldr	r1, .L286+4
 1591 0a70 1998     		ldr	r0, [sp, #100]
 1592              		.loc 1 325 0
 1593 0a72 0D93     		str	r3, [sp, #52]	@ float
 1594              		.loc 1 329 0
 1595 0a74 0DAA     		add	r2, sp, #52
 1596              		.loc 1 326 0
ARM GAS  /tmp/ccKqffqy.s 			page 29


 1597 0a76 0E93     		str	r3, [sp, #56]	@ float
 1598              		.loc 1 327 0
 1599 0a78 0F93     		str	r3, [sp, #60]	@ float
 1600              		.loc 1 328 0
 1601 0a7a 1093     		str	r3, [sp, #64]	@ float
 1602              		.loc 1 329 0
 1603 0a7c FFF7FEFF 		bl	sscanf
 1604              	.LVL207:
 1605              		.loc 1 330 0
 1606 0a80 0EAA     		add	r2, sp, #56
 1607 0a82 C649     		ldr	r1, .L286+4
 1608 0a84 1A98     		ldr	r0, [sp, #104]
 1609 0a86 FFF7FEFF 		bl	sscanf
 1610              	.LVL208:
 1611              		.loc 1 331 0
 1612 0a8a 0FAA     		add	r2, sp, #60
 1613 0a8c C349     		ldr	r1, .L286+4
 1614 0a8e 1B98     		ldr	r0, [sp, #108]
 1615 0a90 FFF7FEFF 		bl	sscanf
 1616              	.LVL209:
 1617              		.loc 1 332 0
 1618 0a94 10AA     		add	r2, sp, #64
 1619 0a96 1C98     		ldr	r0, [sp, #112]
 1620 0a98 C049     		ldr	r1, .L286+4
 1621 0a9a FFF7FEFF 		bl	sscanf
 1622              	.LVL210:
 1623              		.loc 1 334 0
 1624 0a9e 9DED0D0A 		vldr.32	s0, [sp, #52]
 1625 0aa2 B5EEC00A 		vcmpe.f32	s0, #0
 1626 0aa6 F1EE10FA 		vmrs	APSR_nzcv, FPSCR
 1627 0aaa 7FF765AD 		ble	.L226
 1628              		.loc 1 334 0 is_stmt 0 discriminator 1
 1629 0aae BC4B     		ldr	r3, .L286+8
 1630 0ab0 D3ED017A 		vldr.32	s15, [r3, #4]
 1631 0ab4 B4EEE70A 		vcmpe.f32	s0, s15
 1632 0ab8 F1EE10FA 		vmrs	APSR_nzcv, FPSCR
 1633 0abc 3FF65CAD 		bhi	.L226
 1634              		.loc 1 334 0 discriminator 2
 1635 0ac0 9DED0F1A 		vldr.32	s2, [sp, #60]
 1636 0ac4 B5EEC01A 		vcmpe.f32	s2, #0
 1637 0ac8 F1EE10FA 		vmrs	APSR_nzcv, FPSCR
 1638 0acc 7FF754AD 		ble	.L226
 1639              		.loc 1 334 0 discriminator 3
 1640 0ad0 DDED0E0A 		vldr.32	s1, [sp, #56]
 1641 0ad4 DFEDB37A 		vldr.32	s15, .L286+12
 1642 0ad8 F4EEE70A 		vcmpe.f32	s1, s15
 1643 0adc F1EE10FA 		vmrs	APSR_nzcv, FPSCR
 1644 0ae0 7FF74AAD 		ble	.L226
 1645              		.loc 1 334 0 discriminator 4
 1646 0ae4 DDED101A 		vldr.32	s3, [sp, #64]
 1647 0ae8 F5EEC01A 		vcmpe.f32	s3, #0
 1648 0aec F1EE10FA 		vmrs	APSR_nzcv, FPSCR
 1649 0af0 FFF642AD 		blt	.L226
 1650              	.LBB128:
 1651              		.loc 1 336 0 is_stmt 1
 1652 0af4 11A8     		add	r0, sp, #68
 1653 0af6 FFF7FEFF 		bl	conf_general_measure_flux_linkage
ARM GAS  /tmp/ccKqffqy.s 			page 30


 1654              	.LVL211:
 1655              		.loc 1 337 0
 1656 0afa 1198     		ldr	r0, [sp, #68]	@ float
 1657              	.LVL212:
 1658              	.L229:
 1659              	.LBE128:
 1660              	.LBE127:
 1661              	.LBB129:
 1662              	.LBB130:
 1663              		.loc 1 400 0
 1664 0afc FFF7FEFF 		bl	__aeabi_f2d
 1665              	.LVL213:
 1666 0b00 0246     		mov	r2, r0
 1667 0b02 0B46     		mov	r3, r1
 1668 0b04 A848     		ldr	r0, .L286+16
 1669 0b06 FFF7FEFF 		bl	commands_printf
 1670              	.LVL214:
 1671              	.LBE130:
 1672 0b0a FFF7E2BA 		b	.L1
 1673              	.LVL215:
 1674              	.L61:
 1675              	.LBE129:
 1676              		.loc 1 344 0
 1677 0b0e A749     		ldr	r1, .L286+20
 1678 0b10 2846     		mov	r0, r5
 1679 0b12 FFF7FEFF 		bl	strcmp
 1680              	.LVL216:
 1681 0b16 0028     		cmp	r0, #0
 1682 0b18 00F08380 		beq	.L270
 1683              		.loc 1 355 0
 1684 0b1c A449     		ldr	r1, .L286+24
 1685 0b1e 2846     		mov	r0, r5
 1686 0b20 FFF7FEFF 		bl	strcmp
 1687              	.LVL217:
 1688 0b24 0646     		mov	r6, r0
 1689 0b26 0028     		cmp	r0, #0
 1690 0b28 40F09D80 		bne	.L71
 1691              		.loc 1 356 0
 1692 0b2c 022C     		cmp	r4, #2
 1693 0b2e 7FF440AD 		bne	.L44
 1694              	.LBB136:
 1695              		.loc 1 357 0
 1696 0b32 11AD     		add	r5, sp, #68
 1697 0b34 984B     		ldr	r3, .L286
 1698              		.loc 1 358 0
 1699 0b36 1998     		ldr	r0, [sp, #100]
 1700 0b38 9849     		ldr	r1, .L286+4
 1701              		.loc 1 357 0
 1702 0b3a 2B60     		str	r3, [r5]	@ float
 1703              		.loc 1 358 0
 1704 0b3c 2A46     		mov	r2, r5
 1705 0b3e FFF7FEFF 		bl	sscanf
 1706              	.LVL218:
 1707              		.loc 1 360 0
 1708 0b42 D5ED007A 		vldr.32	s15, [r5]
 1709 0b46 F5EEC07A 		vcmpe.f32	s15, #0
 1710 0b4a F1EE10FA 		vmrs	APSR_nzcv, FPSCR
ARM GAS  /tmp/ccKqffqy.s 			page 31


 1711 0b4e 7FF713AD 		ble	.L226
 1712              	.LBB135:
 1713              		.loc 1 361 0
 1714 0b52 934F     		ldr	r7, .L286+8
 1715              	.LBB131:
 1716              		.loc 1 372 0
 1717 0b54 9FED978A 		vldr.32	s16, .L286+28
 1718              	.LBE131:
 1719              		.loc 1 361 0
 1720 0b58 BC70     		strb	r4, [r7, #2]
 1721              		.loc 1 362 0
 1722 0b5a 3846     		mov	r0, r7
 1723 0b5c FFF7FEFF 		bl	mc_interface_set_configuration
 1724              	.LVL219:
 1725              		.loc 1 363 0
 1726 0b60 97ED389A 		vldr.32	s18, [r7, #224]
 1727 0b64 F7EE087A 		vmov.f32	s15, #1.5e+0
 1728 0b68 29EE279A 		vmul.f32	s18, s18, s15
 1729              	.LVL220:
 1730              		.loc 1 366 0
 1731 0b6c FFF7FEFF 		bl	timeout_get_timeout_msec
 1732              	.LVL221:
 1733 0b70 0746     		mov	r7, r0
 1734              	.LVL222:
 1735              		.loc 1 367 0
 1736 0b72 FFF7FEFF 		bl	timeout_get_brake_current
 1737              	.LVL223:
 1738 0b76 F0EE40AA 		vmov.f32	s21, s0
 1739              	.LVL224:
 1740              		.loc 1 368 0
 1741 0b7a FFF7FEFF 		bl	timeout_reset
 1742              	.LVL225:
 1743              		.loc 1 369 0
 1744 0b7e 9FED8E0A 		vldr.32	s0, .L286+32
 1745 0b82 4EF66020 		movw	r0, #60000
 1746 0b86 FFF7FEFF 		bl	timeout_configure
 1747              	.LVL226:
 1748              	.L74:
 1749              	.LBB132:
 1750              		.loc 1 372 0 discriminator 3
 1751 0b8a 07EE906A 		vmov	s15, r6	@ int
 1752 0b8e B8EEE77A 		vcvt.f32.s32	s14, s15
 1753 0b92 D5ED007A 		vldr.32	s15, [r5]
 1754 0b96 87EE080A 		vdiv.f32	s0, s14, s16
 1755              		.loc 1 371 0 discriminator 3
 1756 0b9a 0136     		adds	r6, r6, #1
 1757              	.LVL227:
 1758              		.loc 1 372 0 discriminator 3
 1759 0b9c 20EE270A 		vmul.f32	s0, s0, s15
 1760 0ba0 FFF7FEFF 		bl	mc_interface_set_duty
 1761              	.LVL228:
 1762              		.loc 1 373 0 discriminator 3
 1763 0ba4 C820     		movs	r0, #200
 1764 0ba6 FFF7FEFF 		bl	chThdSleep
 1765              	.LVL229:
 1766              		.loc 1 371 0 discriminator 3
 1767 0baa 642E     		cmp	r6, #100
ARM GAS  /tmp/ccKqffqy.s 			page 32


 1768 0bac EDD1     		bne	.L74
 1769              	.LBE132:
 1770              		.loc 1 379 0
 1771 0bae 9FED828A 		vldr.32	s16, .L286+32
 1772              	.LBB133:
 1773 0bb2 4FF47A74 		mov	r4, #1000
 1774              	.LVL230:
 1775              	.LBE133:
 1776              		.loc 1 378 0
 1777 0bb6 F0EE488A 		vmov.f32	s17, s16
 1778              		.loc 1 377 0
 1779 0bba F0EE489A 		vmov.f32	s19, s16
 1780              		.loc 1 376 0
 1781 0bbe B0EE48AA 		vmov.f32	s20, s16
 1782              	.LBB134:
 1783              		.loc 1 384 0
 1784 0bc2 B7EE00BA 		vmov.f32	s22, #1.0e+0
 1785              	.L75:
 1786              	.LVL231:
 1787              		.loc 1 381 0 discriminator 3
 1788 0bc6 FFF7FEFF 		bl	mcpwm_foc_get_vq
 1789              	.LVL232:
 1790 0bca 3AEE00AA 		vadd.f32	s20, s20, s0
 1791              	.LVL233:
 1792              		.loc 1 382 0 discriminator 3
 1793 0bce FFF7FEFF 		bl	mc_interface_get_rpm
 1794              	.LVL234:
 1795 0bd2 79EE809A 		vadd.f32	s19, s19, s0
 1796              	.LVL235:
 1797              		.loc 1 383 0 discriminator 3
 1798 0bd6 FFF7FEFF 		bl	mc_interface_get_tot_current_directional
 1799              	.LVL236:
 1800              		.loc 1 385 0 discriminator 3
 1801 0bda 0A20     		movs	r0, #10
 1802              		.loc 1 383 0 discriminator 3
 1803 0bdc 38EE008A 		vadd.f32	s16, s16, s0
 1804              	.LVL237:
 1805              		.loc 1 385 0 discriminator 3
 1806 0be0 FFF7FEFF 		bl	chThdSleep
 1807              	.LVL238:
 1808              		.loc 1 380 0 discriminator 3
 1809 0be4 013C     		subs	r4, r4, #1
 1810              	.LVL239:
 1811              		.loc 1 384 0 discriminator 3
 1812 0be6 78EE8B8A 		vadd.f32	s17, s17, s22
 1813              	.LVL240:
 1814              		.loc 1 380 0 discriminator 3
 1815 0bea ECD1     		bne	.L75
 1816              	.LBE134:
 1817              		.loc 1 388 0
 1818 0bec FFF7FEFF 		bl	mc_interface_release_motor
 1819              	.LVL241:
 1820              		.loc 1 389 0
 1821 0bf0 7248     		ldr	r0, .L286+36
 1822 0bf2 FFF7FEFF 		bl	mc_interface_set_configuration
 1823              	.LVL242:
 1824              		.loc 1 392 0
ARM GAS  /tmp/ccKqffqy.s 			page 33


 1825 0bf6 3846     		mov	r0, r7
 1826 0bf8 B0EE6A0A 		vmov.f32	s0, s21
 1827 0bfc FFF7FEFF 		bl	timeout_configure
 1828              	.LVL243:
 1829              		.loc 1 396 0
 1830 0c00 C8EE286A 		vdiv.f32	s13, s16, s17
 1831              	.LVL244:
 1832              		.loc 1 394 0
 1833 0c04 8AEE287A 		vdiv.f32	s14, s20, s17
 1834              	.LVL245:
 1835              		.loc 1 395 0
 1836 0c08 C9EEA87A 		vdiv.f32	s15, s19, s17
 1837              	.LVL246:
 1838              		.loc 1 398 0
 1839 0c0c A9EE667A 		vfms.f32	s14, s18, s13
 1840              	.LVL247:
 1841 0c10 DFED6B6A 		vldr.32	s13, .L286+40
 1842              	.LVL248:
 1843 0c14 67EEA67A 		vmul.f32	s15, s15, s13
 1844              	.LVL249:
 1845              		.loc 1 400 0
 1846 0c18 C7EE277A 		vdiv.f32	s15, s14, s15
 1847 0c1c 17EE900A 		vmov	r0, s15
 1848 0c20 6CE7     		b	.L229
 1849              	.LVL250:
 1850              	.L270:
 1851              	.LBE135:
 1852              	.LBE136:
 1853              	.LBB137:
 1854              		.loc 1 345 0 discriminator 21
 1855 0c22 5F4B     		ldr	r3, .L286+8
 1856 0c24 0222     		movs	r2, #2
 1857              		.loc 1 346 0 discriminator 21
 1858 0c26 1846     		mov	r0, r3
 1859              		.loc 1 345 0 discriminator 21
 1860 0c28 9A70     		strb	r2, [r3, #2]
 1861              		.loc 1 346 0 discriminator 21
 1862 0c2a FFF7FEFF 		bl	mc_interface_set_configuration
 1863              	.LVL251:
 1864              		.loc 1 348 0 discriminator 21
 1865 0c2e 0023     		movs	r3, #0
 1866              		.loc 1 350 0 discriminator 21
 1867 0c30 11A9     		add	r1, sp, #68
 1868 0c32 10A8     		add	r0, sp, #64
 1869              		.loc 1 348 0 discriminator 21
 1870 0c34 1093     		str	r3, [sp, #64]	@ float
 1871              		.loc 1 349 0 discriminator 21
 1872 0c36 1193     		str	r3, [sp, #68]	@ float
 1873              		.loc 1 350 0 discriminator 21
 1874 0c38 FFF7FEFF 		bl	mcpwm_foc_measure_res_ind
 1875              	.LVL252:
 1876              		.loc 1 351 0 discriminator 21
 1877 0c3c 1098     		ldr	r0, [sp, #64]	@ float
 1878 0c3e FFF7FEFF 		bl	__aeabi_f2d
 1879              	.LVL253:
 1880 0c42 0246     		mov	r2, r0
 1881 0c44 0B46     		mov	r3, r1
ARM GAS  /tmp/ccKqffqy.s 			page 34


 1882 0c46 5F48     		ldr	r0, .L286+44
 1883 0c48 FFF7FEFF 		bl	commands_printf
 1884              	.LVL254:
 1885              		.loc 1 352 0 discriminator 21
 1886 0c4c 1198     		ldr	r0, [sp, #68]	@ float
 1887 0c4e FFF7FEFF 		bl	__aeabi_f2d
 1888              	.LVL255:
 1889 0c52 0246     		mov	r2, r0
 1890 0c54 0B46     		mov	r3, r1
 1891 0c56 5C48     		ldr	r0, .L286+48
 1892 0c58 FFF7FEFF 		bl	commands_printf
 1893              	.LVL256:
 1894              		.loc 1 354 0 discriminator 21
 1895 0c5c 5748     		ldr	r0, .L286+36
 1896 0c5e FFF7FEFF 		bl	mc_interface_set_configuration
 1897              	.LVL257:
 1898              	.LBE137:
 1899 0c62 FFF736BA 		b	.L1
 1900              	.L71:
 1901              		.loc 1 407 0
 1902 0c66 5949     		ldr	r1, .L286+52
 1903 0c68 2846     		mov	r0, r5
 1904 0c6a FFF7FEFF 		bl	strcmp
 1905              	.LVL258:
 1906 0c6e 0028     		cmp	r0, #0
 1907 0c70 4BD1     		bne	.L77
 1908              		.loc 1 408 0
 1909 0c72 052C     		cmp	r4, #5
 1910 0c74 7FF484AE 		bne	.L62
 1911              	.LBB138:
 1912              		.loc 1 409 0
 1913 0c78 474B     		ldr	r3, .L286
 1914              		.loc 1 413 0
 1915 0c7a 4849     		ldr	r1, .L286+4
 1916 0c7c 1998     		ldr	r0, [sp, #100]
 1917              		.loc 1 409 0
 1918 0c7e 0D93     		str	r3, [sp, #52]	@ float
 1919              		.loc 1 413 0
 1920 0c80 0DAA     		add	r2, sp, #52
 1921              		.loc 1 410 0
 1922 0c82 0E93     		str	r3, [sp, #56]	@ float
 1923              		.loc 1 411 0
 1924 0c84 0F93     		str	r3, [sp, #60]	@ float
 1925              		.loc 1 412 0
 1926 0c86 1093     		str	r3, [sp, #64]	@ float
 1927              		.loc 1 413 0
 1928 0c88 FFF7FEFF 		bl	sscanf
 1929              	.LVL259:
 1930              		.loc 1 414 0
 1931 0c8c 0EAA     		add	r2, sp, #56
 1932 0c8e 4349     		ldr	r1, .L286+4
 1933 0c90 1A98     		ldr	r0, [sp, #104]
 1934 0c92 FFF7FEFF 		bl	sscanf
 1935              	.LVL260:
 1936              		.loc 1 415 0
 1937 0c96 0FAA     		add	r2, sp, #60
 1938 0c98 4049     		ldr	r1, .L286+4
ARM GAS  /tmp/ccKqffqy.s 			page 35


 1939 0c9a 1B98     		ldr	r0, [sp, #108]
 1940 0c9c FFF7FEFF 		bl	sscanf
 1941              	.LVL261:
 1942              		.loc 1 416 0
 1943 0ca0 10AA     		add	r2, sp, #64
 1944 0ca2 1C98     		ldr	r0, [sp, #112]
 1945 0ca4 3D49     		ldr	r1, .L286+4
 1946 0ca6 FFF7FEFF 		bl	sscanf
 1947              	.LVL262:
 1948              		.loc 1 418 0
 1949 0caa 9DED0D0A 		vldr.32	s0, [sp, #52]
 1950 0cae B5EEC00A 		vcmpe.f32	s0, #0
 1951 0cb2 F1EE10FA 		vmrs	APSR_nzcv, FPSCR
 1952 0cb6 7FF75FAC 		ble	.L226
 1953              		.loc 1 418 0 is_stmt 0 discriminator 1
 1954 0cba 394B     		ldr	r3, .L286+8
 1955 0cbc D3ED017A 		vldr.32	s15, [r3, #4]
 1956 0cc0 B4EEE70A 		vcmpe.f32	s0, s15
 1957 0cc4 F1EE10FA 		vmrs	APSR_nzcv, FPSCR
 1958 0cc8 3FF656AC 		bhi	.L226
 1959              		.loc 1 418 0 discriminator 2
 1960 0ccc 9DED0F1A 		vldr.32	s2, [sp, #60]
 1961 0cd0 B5EEC01A 		vcmpe.f32	s2, #0
 1962 0cd4 F1EE10FA 		vmrs	APSR_nzcv, FPSCR
 1963 0cd8 7FF74EAC 		ble	.L226
 1964              		.loc 1 418 0 discriminator 3
 1965 0cdc DDED0E0A 		vldr.32	s1, [sp, #56]
 1966 0ce0 DFED307A 		vldr.32	s15, .L286+12
 1967 0ce4 F4EEE70A 		vcmpe.f32	s1, s15
 1968 0ce8 F1EE10FA 		vmrs	APSR_nzcv, FPSCR
 1969 0cec 7FF744AC 		ble	.L226
 1970              		.loc 1 418 0 discriminator 4
 1971 0cf0 DDED101A 		vldr.32	s3, [sp, #64]
 1972 0cf4 F5EEC01A 		vcmpe.f32	s3, #0
 1973 0cf8 F1EE10FA 		vmrs	APSR_nzcv, FPSCR
 1974 0cfc FFF63CAC 		blt	.L226
 1975              	.LBB139:
 1976              		.loc 1 420 0 is_stmt 1
 1977 0d00 11A8     		add	r0, sp, #68
 1978 0d02 FFF7FEFF 		bl	conf_general_measure_flux_linkage_openloop
 1979              	.LVL263:
 1980              		.loc 1 421 0
 1981 0d06 1198     		ldr	r0, [sp, #68]	@ float
 1982 0d08 F8E6     		b	.L229
 1983              	.L77:
 1984              	.LBE139:
 1985              	.LBE138:
 1986              		.loc 1 428 0
 1987 0d0a 3149     		ldr	r1, .L286+56
 1988 0d0c 2846     		mov	r0, r5
 1989 0d0e FFF7FEFF 		bl	strcmp
 1990              	.LVL264:
 1991 0d12 98B1     		cbz	r0, .L271
 1992              		.loc 1 431 0
 1993 0d14 2F49     		ldr	r1, .L286+60
 1994 0d16 2846     		mov	r0, r5
 1995 0d18 FFF7FEFF 		bl	strcmp
ARM GAS  /tmp/ccKqffqy.s 			page 36


 1996              	.LVL265:
 1997 0d1c 0028     		cmp	r0, #0
 1998 0d1e 00F09080 		beq	.L272
 1999              		.loc 1 442 0
 2000 0d22 2D49     		ldr	r1, .L286+64
 2001 0d24 2846     		mov	r0, r5
 2002 0d26 FFF7FEFF 		bl	strcmp
 2003              	.LVL266:
 2004 0d2a 0028     		cmp	r0, #0
 2005 0d2c 5AD1     		bne	.L88
 2006              		.loc 1 443 0
 2007 0d2e 032C     		cmp	r4, #3
 2008 0d30 0BD0     		beq	.L273
 2009              	.L89:
 2010              		.loc 1 456 0
 2011 0d32 2A48     		ldr	r0, .L286+68
 2012 0d34 FFF7FEFF 		bl	commands_printf
 2013              	.LVL267:
 2014 0d38 FFF7CBB9 		b	.L1
 2015              	.L271:
 2016              		.loc 1 429 0
 2017 0d3c FFF7FEFF 		bl	mcpwm_foc_print_state
 2018              	.LVL268:
 2019              		.loc 1 430 0
 2020 0d40 2748     		ldr	r0, .L286+72
 2021 0d42 FFF7FEFF 		bl	commands_printf
 2022              	.LVL269:
 2023 0d46 FFF7C4B9 		b	.L1
 2024              	.L273:
 2025              	.LBB140:
 2026              		.loc 1 444 0
 2027 0d4a 134B     		ldr	r3, .L286
 2028              		.loc 1 446 0
 2029 0d4c 1349     		ldr	r1, .L286+4
 2030 0d4e 1998     		ldr	r0, [sp, #100]
 2031              		.loc 1 444 0
 2032 0d50 1093     		str	r3, [sp, #64]	@ float
 2033              		.loc 1 446 0
 2034 0d52 10AA     		add	r2, sp, #64
 2035              		.loc 1 445 0
 2036 0d54 1193     		str	r3, [sp, #68]	@ float
 2037              		.loc 1 446 0
 2038 0d56 FFF7FEFF 		bl	sscanf
 2039              	.LVL270:
 2040              		.loc 1 447 0
 2041 0d5a 11AA     		add	r2, sp, #68
 2042 0d5c 1A98     		ldr	r0, [sp, #104]
 2043 0d5e 0F49     		ldr	r1, .L286+4
 2044 0d60 FFF7FEFF 		bl	sscanf
 2045              	.LVL271:
 2046              		.loc 1 449 0
 2047 0d64 DDED107A 		vldr.32	s15, [sp, #64]
 2048 0d68 F5EEC07A 		vcmpe.f32	s15, #0
 2049 0d6c F1EE10FA 		vmrs	APSR_nzcv, FPSCR
 2050 0d70 FFF602AC 		blt	.L226
 2051              		.loc 1 449 0 is_stmt 0 discriminator 1
 2052 0d74 DDED117A 		vldr.32	s15, [sp, #68]
ARM GAS  /tmp/ccKqffqy.s 			page 37


 2053 0d78 F5EEC07A 		vcmpe.f32	s15, #0
 2054 0d7c F1EE10FA 		vmrs	APSR_nzcv, FPSCR
 2055 0d80 FFF6FAAB 		blt	.L226
 2056              		.loc 1 450 0 is_stmt 1
 2057 0d84 FFF7FEFF 		bl	timeout_reset
 2058              	.LVL272:
 2059              		.loc 1 451 0
 2060 0d88 DDED110A 		vldr.32	s1, [sp, #68]
 2061 0d8c 9DED100A 		vldr.32	s0, [sp, #64]
 2062 0d90 FFF7FEFF 		bl	mcpwm_foc_set_openloop
 2063              	.LVL273:
 2064 0d94 FFF79DB9 		b	.L1
 2065              	.L287:
 2066              		.align	2
 2067              	.L286:
 2068 0d98 000080BF 		.word	-1082130432
 2069 0d9c FC040000 		.word	.LC63
 2070 0da0 00000000 		.word	.LANCHOR0
 2071 0da4 0AD7A33C 		.word	1017370378
 2072 0da8 90080000 		.word	.LC97
 2073 0dac CC080000 		.word	.LC99
 2074 0db0 14090000 		.word	.LC102
 2075 0db4 0000C842 		.word	1120403456
 2076 0db8 00000000 		.word	0
 2077 0dbc 00000000 		.word	.LANCHOR1
 2078 0dc0 5077D63D 		.word	1037465424
 2079 0dc4 DC080000 		.word	.LC100
 2080 0dc8 F4080000 		.word	.LC101
 2081 0dcc 28090000 		.word	.LC103
 2082 0dd0 44090000 		.word	.LC104
 2083 0dd4 50090000 		.word	.LC105
 2084 0dd8 E0090000 		.word	.LC111
 2085 0ddc F0090000 		.word	.LC112
 2086 0de0 18000000 		.word	.LC4
 2087              	.L88:
 2088              	.LBE140:
 2089              		.loc 1 458 0
 2090 0de4 C049     		ldr	r1, .L288
 2091 0de6 2846     		mov	r0, r5
 2092 0de8 FFF7FEFF 		bl	strcmp
 2093              	.LVL274:
 2094 0dec 0028     		cmp	r0, #0
 2095 0dee 65D1     		bne	.L94
 2096              		.loc 1 459 0
 2097 0df0 032C     		cmp	r4, #3
 2098 0df2 9ED1     		bne	.L89
 2099              	.LBB141:
 2100              		.loc 1 460 0
 2101 0df4 BD4B     		ldr	r3, .L288+4
 2102              		.loc 1 462 0
 2103 0df6 BE49     		ldr	r1, .L288+8
 2104 0df8 1998     		ldr	r0, [sp, #100]
 2105              		.loc 1 460 0
 2106 0dfa 1093     		str	r3, [sp, #64]	@ float
 2107              		.loc 1 462 0
 2108 0dfc 10AA     		add	r2, sp, #64
 2109              		.loc 1 461 0
ARM GAS  /tmp/ccKqffqy.s 			page 38


 2110 0dfe 1193     		str	r3, [sp, #68]	@ float
 2111              		.loc 1 462 0
 2112 0e00 FFF7FEFF 		bl	sscanf
 2113              	.LVL275:
 2114              		.loc 1 463 0
 2115 0e04 11AA     		add	r2, sp, #68
 2116 0e06 1A98     		ldr	r0, [sp, #104]
 2117 0e08 B949     		ldr	r1, .L288+8
 2118 0e0a FFF7FEFF 		bl	sscanf
 2119              	.LVL276:
 2120              		.loc 1 465 0
 2121 0e0e DDED107A 		vldr.32	s15, [sp, #64]
 2122 0e12 F5EEC07A 		vcmpe.f32	s15, #0
 2123 0e16 F1EE10FA 		vmrs	APSR_nzcv, FPSCR
 2124 0e1a FFF6ADAB 		blt	.L226
 2125              		.loc 1 465 0 is_stmt 0 discriminator 1
 2126 0e1e DDED117A 		vldr.32	s15, [sp, #68]
 2127 0e22 F5EEC07A 		vcmpe.f32	s15, #0
 2128 0e26 F1EE10FA 		vmrs	APSR_nzcv, FPSCR
 2129 0e2a FFF6A5AB 		blt	.L226
 2130              		.loc 1 466 0 is_stmt 1
 2131 0e2e FFF7FEFF 		bl	timeout_reset
 2132              	.LVL277:
 2133              		.loc 1 467 0
 2134 0e32 DDED110A 		vldr.32	s1, [sp, #68]
 2135 0e36 9DED100A 		vldr.32	s0, [sp, #64]
 2136 0e3a FFF7FEFF 		bl	mcpwm_foc_set_openloop_duty
 2137              	.LVL278:
 2138 0e3e FFF748B9 		b	.L1
 2139              	.L272:
 2140              	.LBE141:
 2141              		.loc 1 432 0
 2142 0e42 3722     		movs	r2, #55
 2143 0e44 0321     		movs	r1, #3
 2144 0e46 AB48     		ldr	r0, .L288+12
 2145 0e48 FFF7FEFF 		bl	commands_printf
 2146              	.LVL279:
 2147              		.loc 1 434 0
 2148 0e4c AA49     		ldr	r1, .L288+16
 2149 0e4e AB48     		ldr	r0, .L288+20
 2150 0e50 FFF7FEFF 		bl	commands_printf
 2151              	.LVL280:
 2152              		.loc 1 439 0
 2153 0e54 AA48     		ldr	r0, .L288+24
 2154              		.loc 1 437 0
 2155 0e56 AB4B     		ldr	r3, .L288+28
 2156 0e58 AB4A     		ldr	r2, .L288+32
 2157 0e5a AC49     		ldr	r1, .L288+36
 2158              		.loc 1 436 0
 2159 0e5c 0478     		ldrb	r4, [r0]	@ zero_extendqisi2
 2160              	.LVL281:
 2161 0e5e 1B78     		ldrb	r3, [r3]	@ zero_extendqisi2
 2162 0e60 1278     		ldrb	r2, [r2]	@ zero_extendqisi2
 2163 0e62 0978     		ldrb	r1, [r1]	@ zero_extendqisi2
 2164 0e64 0894     		str	r4, [sp, #32]
 2165 0e66 10F8014C 		ldrb	r4, [r0, #-1]	@ zero_extendqisi2
 2166 0e6a 0794     		str	r4, [sp, #28]
ARM GAS  /tmp/ccKqffqy.s 			page 39


 2167 0e6c 10F8024C 		ldrb	r4, [r0, #-2]	@ zero_extendqisi2
 2168 0e70 0694     		str	r4, [sp, #24]
 2169 0e72 10F8034C 		ldrb	r4, [r0, #-3]	@ zero_extendqisi2
 2170 0e76 0594     		str	r4, [sp, #20]
 2171 0e78 10F8044C 		ldrb	r4, [r0, #-4]	@ zero_extendqisi2
 2172 0e7c 0494     		str	r4, [sp, #16]
 2173 0e7e 10F8054C 		ldrb	r4, [r0, #-5]	@ zero_extendqisi2
 2174 0e82 0394     		str	r4, [sp, #12]
 2175 0e84 10F8064C 		ldrb	r4, [r0, #-6]	@ zero_extendqisi2
 2176 0e88 0294     		str	r4, [sp, #8]
 2177 0e8a 10F8074C 		ldrb	r4, [r0, #-7]	@ zero_extendqisi2
 2178 0e8e 0194     		str	r4, [sp, #4]
 2179              		.loc 1 437 0
 2180 0e90 0838     		subs	r0, r0, #8
 2181              		.loc 1 436 0
 2182 0e92 0078     		ldrb	r0, [r0]	@ zero_extendqisi2
 2183 0e94 0090     		str	r0, [sp]
 2184 0e96 9E48     		ldr	r0, .L288+40
 2185 0e98 FFF7FEFF 		bl	commands_printf
 2186              	.LVL282:
 2187              		.loc 1 440 0
 2188 0e9c 9D4B     		ldr	r3, .L288+44
 2189 0e9e 9E4A     		ldr	r2, .L288+48
 2190 0ea0 1978     		ldrb	r1, [r3]	@ zero_extendqisi2
 2191 0ea2 9E4B     		ldr	r3, .L288+52
 2192 0ea4 9E48     		ldr	r0, .L288+56
 2193 0ea6 0029     		cmp	r1, #0
 2194 0ea8 0CBF     		ite	eq
 2195 0eaa 1146     		moveq	r1, r2
 2196 0eac 1946     		movne	r1, r3
 2197 0eae FFF7FEFF 		bl	commands_printf
 2198              	.LVL283:
 2199              		.loc 1 441 0
 2200 0eb2 9C48     		ldr	r0, .L288+60
 2201 0eb4 FFF7FEFF 		bl	commands_printf
 2202              	.LVL284:
 2203 0eb8 FFF70BB9 		b	.L1
 2204              	.LVL285:
 2205              	.L94:
 2206              		.loc 1 474 0
 2207 0ebc 9A49     		ldr	r1, .L288+64
 2208 0ebe 2846     		mov	r0, r5
 2209 0ec0 FFF7FEFF 		bl	strcmp
 2210              	.LVL286:
 2211 0ec4 C8B9     		cbnz	r0, .L99
 2212              		.loc 1 475 0
 2213 0ec6 022C     		cmp	r4, #2
 2214 0ec8 7FF473AB 		bne	.L44
 2215              	.LBB142:
 2216              		.loc 1 476 0
 2217 0ecc 4FF0FF33 		mov	r3, #-1
 2218              		.loc 1 477 0
 2219 0ed0 1998     		ldr	r0, [sp, #100]
 2220 0ed2 9649     		ldr	r1, .L288+68
 2221              		.loc 1 476 0
 2222 0ed4 1193     		str	r3, [sp, #68]
 2223              		.loc 1 477 0
ARM GAS  /tmp/ccKqffqy.s 			page 40


 2224 0ed6 11AA     		add	r2, sp, #68
 2225 0ed8 FFF7FEFF 		bl	sscanf
 2226              	.LVL287:
 2227              		.loc 1 479 0
 2228 0edc 119B     		ldr	r3, [sp, #68]
 2229 0ede 002B     		cmp	r3, #0
 2230 0ee0 FFF64AAB 		blt	.L226
 2231              	.LBB143:
 2232              		.loc 1 481 0
 2233 0ee4 3822     		movs	r2, #56
 2234              		.loc 1 483 0
 2235 0ee6 2146     		mov	r1, r4
 2236 0ee8 10A8     		add	r0, sp, #64
 2237              		.loc 1 482 0
 2238 0eea 8DF84130 		strb	r3, [sp, #65]
 2239              		.loc 1 481 0
 2240 0eee 8DF84020 		strb	r2, [sp, #64]
 2241              		.loc 1 483 0
 2242 0ef2 FFF7FEFF 		bl	commands_send_packet_nrf
 2243              	.LVL288:
 2244              	.LBE143:
 2245 0ef6 FFF7ECB8 		b	.L1
 2246              	.L99:
 2247              	.LBE142:
 2248              		.loc 1 490 0
 2249 0efa 8D49     		ldr	r1, .L288+72
 2250 0efc 2846     		mov	r0, r5
 2251 0efe FFF7FEFF 		bl	strcmp
 2252              	.LVL289:
 2253 0f02 68BB     		cbnz	r0, .L102
 2254              		.loc 1 491 0
 2255 0f04 022C     		cmp	r4, #2
 2256 0f06 7FF454AB 		bne	.L44
 2257              	.LBB144:
 2258              		.loc 1 492 0
 2259 0f0a 784B     		ldr	r3, .L288+4
 2260              		.loc 1 493 0
 2261 0f0c 1998     		ldr	r0, [sp, #100]
 2262 0f0e 7849     		ldr	r1, .L288+8
 2263              		.loc 1 492 0
 2264 0f10 1193     		str	r3, [sp, #68]	@ float
 2265              		.loc 1 493 0
 2266 0f12 11AA     		add	r2, sp, #68
 2267 0f14 FFF7FEFF 		bl	sscanf
 2268              	.LVL290:
 2269              		.loc 1 495 0
 2270 0f18 9DED110A 		vldr.32	s0, [sp, #68]
 2271 0f1c B5EEC00A 		vcmpe.f32	s0, #0
 2272 0f20 F1EE10FA 		vmrs	APSR_nzcv, FPSCR
 2273 0f24 7FF728AB 		ble	.L226
 2274              		.loc 1 495 0 is_stmt 0 discriminator 1
 2275 0f28 824B     		ldr	r3, .L288+76
 2276 0f2a D3ED017A 		vldr.32	s15, [r3, #4]
 2277 0f2e B4EEE70A 		vcmpe.f32	s0, s15
 2278 0f32 F1EE10FA 		vmrs	APSR_nzcv, FPSCR
 2279 0f36 3FF61FAB 		bhi	.L226
 2280              	.LBB145:
ARM GAS  /tmp/ccKqffqy.s 			page 41


 2281              		.loc 1 496 0 is_stmt 1
 2282 0f3a 0121     		movs	r1, #1
 2283 0f3c 0846     		mov	r0, r1
 2284 0f3e FFF7FEFF 		bl	conf_general_autodetect_apply_sensors_foc
 2285              	.LVL291:
 2286              		.loc 1 498 0
 2287 0f42 0146     		mov	r1, r0
 2288 0f44 0028     		cmp	r0, #0
 2289 0f46 00F0C281 		beq	.L232
 2290              		.loc 1 500 0
 2291 0f4a 0128     		cmp	r0, #1
 2292 0f4c 00F0B581 		beq	.L231
 2293              		.loc 1 502 0
 2294 0f50 0228     		cmp	r0, #2
 2295 0f52 00F0B781 		beq	.L230
 2296              	.LVL292:
 2297              	.L234:
 2298              	.LBE145:
 2299              	.LBE144:
 2300              	.LBB146:
 2301              	.LBB96:
 2302              		.loc 1 641 0
 2303 0f56 7848     		ldr	r0, .L288+80
 2304 0f58 FFF7FEFF 		bl	commands_printf
 2305              	.LVL293:
 2306 0f5c FFF7B9B8 		b	.L1
 2307              	.LVL294:
 2308              	.L102:
 2309              	.LBE96:
 2310              	.LBE146:
 2311              		.loc 1 513 0
 2312 0f60 7649     		ldr	r1, .L288+84
 2313 0f62 2846     		mov	r0, r5
 2314 0f64 FFF7FEFF 		bl	strcmp
 2315              	.LVL295:
 2316 0f68 0028     		cmp	r0, #0
 2317 0f6a 40F08380 		bne	.L110
 2318              		.loc 1 514 0
 2319 0f6e 042C     		cmp	r4, #4
 2320 0f70 7FF47FA9 		bne	.L24
 2321              	.LBB147:
 2322              		.loc 1 515 0
 2323 0f74 0FAE     		add	r6, sp, #60
 2324              		.loc 1 516 0
 2325 0f76 10AC     		add	r4, sp, #64
 2326              	.LVL296:
 2327              		.loc 1 517 0
 2328 0f78 11AD     		add	r5, sp, #68
 2329              		.loc 1 515 0
 2330 0f7a 5C4B     		ldr	r3, .L288+4
 2331              		.loc 1 518 0
 2332 0f7c 5C49     		ldr	r1, .L288+8
 2333 0f7e 1998     		ldr	r0, [sp, #100]
 2334              		.loc 1 515 0
 2335 0f80 3360     		str	r3, [r6]	@ float
 2336              		.loc 1 518 0
 2337 0f82 3246     		mov	r2, r6
ARM GAS  /tmp/ccKqffqy.s 			page 42


 2338              		.loc 1 516 0
 2339 0f84 2360     		str	r3, [r4]	@ float
 2340              		.loc 1 517 0
 2341 0f86 2B60     		str	r3, [r5]	@ float
 2342              		.loc 1 518 0
 2343 0f88 FFF7FEFF 		bl	sscanf
 2344              	.LVL297:
 2345              		.loc 1 519 0
 2346 0f8c 2246     		mov	r2, r4
 2347 0f8e 5849     		ldr	r1, .L288+8
 2348 0f90 1A98     		ldr	r0, [sp, #104]
 2349 0f92 FFF7FEFF 		bl	sscanf
 2350              	.LVL298:
 2351              		.loc 1 520 0
 2352 0f96 2A46     		mov	r2, r5
 2353 0f98 1B98     		ldr	r0, [sp, #108]
 2354 0f9a 5549     		ldr	r1, .L288+8
 2355 0f9c FFF7FEFF 		bl	sscanf
 2356              	.LVL299:
 2357              		.loc 1 522 0
 2358 0fa0 D6ED007A 		vldr.32	s15, [r6]
 2359 0fa4 F5EEC07A 		vcmpe.f32	s15, #0
 2360 0fa8 F1EE10FA 		vmrs	APSR_nzcv, FPSCR
 2361 0fac 7FF7E4AA 		ble	.L226
 2362              		.loc 1 522 0 is_stmt 0 discriminator 1
 2363 0fb0 604B     		ldr	r3, .L288+76
 2364 0fb2 93ED017A 		vldr.32	s14, [r3, #4]
 2365 0fb6 F4EEC77A 		vcmpe.f32	s15, s14
 2366 0fba F1EE10FA 		vmrs	APSR_nzcv, FPSCR
 2367 0fbe 3FF6DBAA 		bhi	.L226
 2368              		.loc 1 523 0 is_stmt 1 discriminator 2
 2369 0fc2 D5ED007A 		vldr.32	s15, [r5]
 2370              		.loc 1 522 0 discriminator 2
 2371 0fc6 F5EEC07A 		vcmpe.f32	s15, #0
 2372 0fca F1EE10FA 		vmrs	APSR_nzcv, FPSCR
 2373 0fce FFF6D3AA 		blt	.L226
 2374              		.loc 1 523 0
 2375 0fd2 9FED5B7A 		vldr.32	s14, .L288+88
 2376 0fd6 F4EEC77A 		vcmpe.f32	s15, s14
 2377 0fda F1EE10FA 		vmrs	APSR_nzcv, FPSCR
 2378 0fde 3FF6CBAA 		bhi	.L226
 2379              		.loc 1 524 0
 2380 0fe2 DFED587A 		vldr.32	s15, .L288+92
 2381 0fe6 94ED007A 		vldr.32	s14, [r4]
 2382 0fea B4EEE77A 		vcmpe.f32	s14, s15
 2383 0fee F1EE10FA 		vmrs	APSR_nzcv, FPSCR
 2384 0ff2 32D9     		bls	.L274
 2385              	.LBB148:
 2386              	.LBB149:
 2387              		.loc 1 530 0
 2388 0ff4 9FED548A 		vldr.32	s16, .L288+96
 2389              		.loc 1 538 0
 2390 0ff8 DFF87481 		ldr	r8, .L288+136
 2391              		.loc 1 530 0
 2392 0ffc DFED538A 		vldr.32	s17, .L288+100
 2393              	.LBE149:
 2394              		.loc 1 529 0
ARM GAS  /tmp/ccKqffqy.s 			page 43


 2395 1000 0027     		movs	r7, #0
 2396              	.L116:
 2397              	.LVL300:
 2398              	.LBB150:
 2399              		.loc 1 530 0 discriminator 1
 2400 1002 D4ED007A 		vldr.32	s15, [r4]
 2401 1006 F4EEC87A 		vcmpe.f32	s15, s16
 2402 100a F1EE10FA 		vmrs	APSR_nzcv, FPSCR
 2403              		.loc 1 535 0 discriminator 1
 2404 100e 07F10107 		add	r7, r7, #1
 2405              	.LVL301:
 2406              		.loc 1 530 0 discriminator 1
 2407 1012 1DDD     		ble	.L233
 2408              		.loc 1 531 0
 2409 1014 FFF7FEFF 		bl	timeout_reset
 2410              	.LVL302:
 2411              		.loc 1 532 0
 2412 1018 D5ED000A 		vldr.32	s1, [r5]
 2413 101c 96ED000A 		vldr.32	s0, [r6]
 2414 1020 FFF7FEFF 		bl	mcpwm_foc_set_openloop_phase
 2415              	.LVL303:
 2416              		.loc 1 533 0
 2417 1024 1420     		movs	r0, #20
 2418 1026 FFF7FEFF 		bl	chThdSleep
 2419              	.LVL304:
 2420              		.loc 1 536 0
 2421 102a C72F     		cmp	r7, #199
 2422 102c 0DDD     		ble	.L119
 2423              	.LVL305:
 2424              		.loc 1 538 0
 2425 102e D4ED007A 		vldr.32	s15, [r4]
 2426 1032 77EEC87A 		vsub.f32	s15, s15, s16
 2427              		.loc 1 537 0
 2428 1036 0027     		movs	r7, #0
 2429              		.loc 1 538 0
 2430 1038 17EE900A 		vmov	r0, s15
 2431 103c FFF7FEFF 		bl	__aeabi_f2d
 2432              	.LVL306:
 2433 1040 0246     		mov	r2, r0
 2434 1042 0B46     		mov	r3, r1
 2435 1044 4046     		mov	r0, r8
 2436 1046 FFF7FEFF 		bl	commands_printf
 2437              	.LVL307:
 2438              	.L119:
 2439              		.loc 1 530 0 discriminator 2
 2440 104a 38EE288A 		vadd.f32	s16, s16, s17
 2441              	.LVL308:
 2442 104e D8E7     		b	.L116
 2443              	.LVL309:
 2444              	.L233:
 2445              	.LBE150:
 2446              	.LBE148:
 2447              	.LBE147:
 2448              	.LBB151:
 2449              		.loc 1 607 0
 2450 1050 3F48     		ldr	r0, .L288+104
 2451 1052 FFF7FEFF 		bl	commands_printf
ARM GAS  /tmp/ccKqffqy.s 			page 44


 2452              	.LVL310:
 2453 1056 FFF73CB8 		b	.L1
 2454              	.L274:
 2455              	.LBE151:
 2456              	.LBB154:
 2457              		.loc 1 525 0
 2458 105a FFF7FEFF 		bl	timeout_reset
 2459              	.LVL311:
 2460              		.loc 1 526 0
 2461 105e D5ED000A 		vldr.32	s1, [r5]
 2462 1062 96ED000A 		vldr.32	s0, [r6]
 2463 1066 FFF7FEFF 		bl	mcpwm_foc_set_openloop_phase
 2464              	.LVL312:
 2465              		.loc 1 527 0
 2466 106a 3A48     		ldr	r0, .L288+108
 2467 106c FFF7FEFF 		bl	commands_printf
 2468              	.LVL313:
 2469 1070 FFF72FB8 		b	.L1
 2470              	.LVL314:
 2471              	.L110:
 2472              	.LBE154:
 2473              		.loc 1 550 0
 2474 1074 3849     		ldr	r1, .L288+112
 2475 1076 2846     		mov	r0, r5
 2476 1078 FFF7FEFF 		bl	strcmp
 2477              	.LVL315:
 2478 107c 0028     		cmp	r0, #0
 2479 107e 40F0D780 		bne	.L121
 2480              		.loc 1 551 0
 2481 1082 022C     		cmp	r4, #2
 2482 1084 7FF495AA 		bne	.L44
 2483              	.LBB155:
 2484              		.loc 1 552 0
 2485 1088 184B     		ldr	r3, .L288+4
 2486              		.loc 1 553 0
 2487 108a 1998     		ldr	r0, [sp, #100]
 2488 108c 1849     		ldr	r1, .L288+8
 2489              		.loc 1 552 0
 2490 108e 1193     		str	r3, [sp, #68]	@ float
 2491              		.loc 1 553 0
 2492 1090 11AA     		add	r2, sp, #68
 2493 1092 FFF7FEFF 		bl	sscanf
 2494              	.LVL316:
 2495              		.loc 1 555 0
 2496 1096 DDED117A 		vldr.32	s15, [sp, #68]
 2497 109a F5EEC07A 		vcmpe.f32	s15, #0
 2498 109e F1EE10FA 		vmrs	APSR_nzcv, FPSCR
 2499 10a2 7FF769AA 		ble	.L226
 2500              	.LBB156:
 2501              		.loc 1 556 0
 2502 10a6 2D48     		ldr	r0, .L288+116
 2503 10a8 FFF7FEFF 		bl	commands_printf
 2504              	.LVL317:
 2505              		.loc 1 557 0
 2506 10ac 0121     		movs	r1, #1
 2507 10ae 0846     		mov	r0, r1
 2508 10b0 9DED110A 		vldr.32	s0, [sp, #68]
ARM GAS  /tmp/ccKqffqy.s 			page 45


 2509 10b4 FFF7FEFF 		bl	conf_general_detect_apply_all_foc
 2510              	.LVL318:
 2511              	.L246:
 2512              	.LBE156:
 2513              	.LBE155:
 2514              	.LBB157:
 2515              	.LBB97:
 2516              		.loc 1 618 0
 2517 10b8 0546     		mov	r5, r0
 2518              	.LVL319:
 2519              		.loc 1 620 0
 2520 10ba 0146     		mov	r1, r0
 2521 10bc 2848     		ldr	r0, .L288+120
 2522              	.LVL320:
 2523 10be FFF7FEFF 		bl	commands_printf
 2524              	.LVL321:
 2525              		.loc 1 622 0
 2526 10c2 002D     		cmp	r5, #0
 2527 10c4 56DA     		bge	.L275
 2528              		.loc 1 644 0
 2529 10c6 15F10A0F 		cmn	r5, #10
 2530 10ca 09D0     		beq	.L276
 2531              		.loc 1 646 0
 2532 10cc 0B35     		adds	r5, r5, #11
 2533              	.LVL322:
 2534 10ce 02D1     		bne	.L148
 2535              		.loc 1 647 0
 2536 10d0 2448     		ldr	r0, .L288+124
 2537 10d2 FFF7FEFF 		bl	commands_printf
 2538              	.LVL323:
 2539              	.L148:
 2540              		.loc 1 650 0
 2541 10d6 2448     		ldr	r0, .L288+128
 2542 10d8 FFF7FEFF 		bl	commands_printf
 2543              	.LVL324:
 2544 10dc FEF7F9BF 		b	.L1
 2545              	.LVL325:
 2546              	.L276:
 2547              		.loc 1 645 0
 2548 10e0 2248     		ldr	r0, .L288+132
 2549 10e2 FFF7FEFF 		bl	commands_printf
 2550              	.LVL326:
 2551 10e6 F6E7     		b	.L148
 2552              	.L289:
 2553              		.align	2
 2554              	.L288:
 2555 10e8 180A0000 		.word	.LC113
 2556 10ec 000080BF 		.word	-1082130432
 2557 10f0 FC040000 		.word	.LC63
 2558 10f4 5C090000 		.word	.LC106
 2559 10f8 6C090000 		.word	.LC107
 2560 10fc 74090000 		.word	.LC108
 2561 1100 1B7AFF1F 		.word	536836635
 2562 1104 127AFF1F 		.word	536836626
 2563 1108 117AFF1F 		.word	536836625
 2564 110c 107AFF1F 		.word	536836624
 2565 1110 84090000 		.word	.LC109
ARM GAS  /tmp/ccKqffqy.s 			page 46


 2566 1114 00000000 		.word	conf_general_permanent_nrf_found
 2567 1118 14000000 		.word	.LC3
 2568 111c 10000000 		.word	.LC2
 2569 1120 C8090000 		.word	.LC110
 2570 1124 18000000 		.word	.LC4
 2571 1128 2C0A0000 		.word	.LC114
 2572 112c 400A0000 		.word	.LC115
 2573 1130 440A0000 		.word	.LC116
 2574 1134 00000000 		.word	.LANCHOR0
 2575 1138 D40A0000 		.word	.LC120
 2576 113c EC0A0000 		.word	.LC121
 2577 1140 0000B443 		.word	1135869952
 2578 1144 BD378635 		.word	897988541
 2579 1148 00000000 		.word	0
 2580 114c 6F12033B 		.word	990057071
 2581 1150 140B0000 		.word	.LC124
 2582 1154 000B0000 		.word	.LC122
 2583 1158 1C0B0000 		.word	.LC125
 2584 115c 340B0000 		.word	.LC126
 2585 1160 4C0B0000 		.word	.LC127
 2586 1164 600C0000 		.word	.LC136
 2587 1168 880C0000 		.word	.LC137
 2588 116c 400C0000 		.word	.LC135
 2589 1170 040B0000 		.word	.LC123
 2590              	.L275:
 2591              		.loc 1 623 0
 2592 1174 8E48     		ldr	r0, .L290
 2593              		.loc 1 624 0
 2594 1176 8F4C     		ldr	r4, .L290+4
 2595              	.LVL327:
 2596              		.loc 1 626 0
 2597 1178 9FED8F8A 		vldr.32	s16, .L290+8
 2598              		.loc 1 623 0
 2599 117c FFF7FEFF 		bl	commands_printf
 2600              	.LVL328:
 2601              		.loc 1 624 0
 2602 1180 FFF7FEFF 		bl	mc_interface_get_configuration
 2603              	.LVL329:
 2604 1184 4FF4E472 		mov	r2, #456
 2605 1188 0146     		mov	r1, r0
 2606 118a 2046     		mov	r0, r4
 2607 118c FFF7FEFF 		bl	memcpy
 2608              	.LVL330:
 2609              		.loc 1 625 0
 2610 1190 6068     		ldr	r0, [r4, #4]	@ float
 2611 1192 FFF7FEFF 		bl	__aeabi_f2d
 2612              	.LVL331:
 2613 1196 0246     		mov	r2, r0
 2614 1198 0B46     		mov	r3, r1
 2615 119a 8848     		ldr	r0, .L290+12
 2616 119c FFF7FEFF 		bl	commands_printf
 2617              	.LVL332:
 2618              		.loc 1 626 0
 2619 11a0 D4ED387A 		vldr.32	s15, [r4, #224]
 2620 11a4 67EE887A 		vmul.f32	s15, s15, s16
 2621 11a8 17EE900A 		vmov	r0, s15
 2622 11ac FFF7FEFF 		bl	__aeabi_f2d
ARM GAS  /tmp/ccKqffqy.s 			page 47


 2623              	.LVL333:
 2624 11b0 0246     		mov	r2, r0
 2625 11b2 0B46     		mov	r3, r1
 2626 11b4 8248     		ldr	r0, .L290+16
 2627 11b6 FFF7FEFF 		bl	commands_printf
 2628              	.LVL334:
 2629              		.loc 1 627 0
 2630 11ba 94ED377A 		vldr.32	s14, [r4, #220]
 2631 11be DFED817A 		vldr.32	s15, .L290+20
 2632 11c2 67EE277A 		vmul.f32	s15, s14, s15
 2633 11c6 17EE900A 		vmov	r0, s15
 2634 11ca FFF7FEFF 		bl	__aeabi_f2d
 2635              	.LVL335:
 2636 11ce 0246     		mov	r2, r0
 2637 11d0 0B46     		mov	r3, r1
 2638 11d2 7D48     		ldr	r0, .L290+24
 2639 11d4 FFF7FEFF 		bl	commands_printf
 2640              	.LVL336:
 2641              		.loc 1 628 0
 2642 11d8 D4ED397A 		vldr.32	s15, [r4, #228]
 2643 11dc 67EE887A 		vmul.f32	s15, s15, s16
 2644 11e0 17EE900A 		vmov	r0, s15
 2645 11e4 FFF7FEFF 		bl	__aeabi_f2d
 2646              	.LVL337:
 2647 11e8 0246     		mov	r2, r0
 2648 11ea 0B46     		mov	r3, r1
 2649 11ec 7748     		ldr	r0, .L290+28
 2650 11ee FFF7FEFF 		bl	commands_printf
 2651              	.LVL338:
 2652              		.loc 1 629 0
 2653 11f2 774B     		ldr	r3, .L290+32
 2654 11f4 94F82C11 		ldrb	r1, [r4, #300]	@ zero_extendqisi2
 2655 11f8 764A     		ldr	r2, .L290+36
 2656 11fa 7748     		ldr	r0, .L290+40
 2657 11fc 0029     		cmp	r1, #0
 2658 11fe 0CBF     		ite	eq
 2659 1200 1146     		moveq	r1, r2
 2660 1202 1946     		movne	r1, r3
 2661 1204 FFF7FEFF 		bl	commands_printf
 2662              	.LVL339:
 2663              		.loc 1 630 0
 2664 1208 94F82C31 		ldrb	r3, [r4, #300]	@ zero_extendqisi2
 2665 120c 43B1     		cbz	r3, .L142
 2666              		.loc 1 631 0
 2667 120e D4F83001 		ldr	r0, [r4, #304]	@ float
 2668 1212 FFF7FEFF 		bl	__aeabi_f2d
 2669              	.LVL340:
 2670 1216 0246     		mov	r2, r0
 2671 1218 0B46     		mov	r3, r1
 2672 121a 7048     		ldr	r0, .L290+44
 2673 121c FFF7FEFF 		bl	commands_printf
 2674              	.LVL341:
 2675              	.L142:
 2676              		.loc 1 634 0
 2677 1220 002D     		cmp	r5, #0
 2678 1222 54D0     		beq	.L232
 2679              		.loc 1 636 0
ARM GAS  /tmp/ccKqffqy.s 			page 48


 2680 1224 012D     		cmp	r5, #1
 2681 1226 48D0     		beq	.L231
 2682              		.loc 1 638 0
 2683 1228 022D     		cmp	r5, #2
 2684 122a 4BD0     		beq	.L230
 2685              		.loc 1 641 0
 2686 122c 2946     		mov	r1, r5
 2687 122e 92E6     		b	.L234
 2688              	.LVL342:
 2689              	.L121:
 2690              	.LBE97:
 2691              	.LBE157:
 2692              		.loc 1 597 0
 2693 1230 6B49     		ldr	r1, .L290+48
 2694 1232 2846     		mov	r0, r5
 2695 1234 FFF7FEFF 		bl	strcmp
 2696              	.LVL343:
 2697 1238 0646     		mov	r6, r0
 2698 123a B0B9     		cbnz	r0, .L133
 2699              	.LBB158:
 2700              	.LBB152:
 2701              		.loc 1 601 0
 2702 123c 694F     		ldr	r7, .L290+52
 2703              	.LBE152:
 2704              		.loc 1 598 0
 2705 123e 0446     		mov	r4, r0
 2706              	.LVL344:
 2707              	.L135:
 2708              	.LBB153:
 2709              		.loc 1 600 0
 2710 1240 F0B2     		uxtb	r0, r6
 2711 1242 FFF7FEFF 		bl	comm_can_ping
 2712              	.LVL345:
 2713 1246 0546     		mov	r5, r0
 2714 1248 20B1     		cbz	r0, .L134
 2715              		.loc 1 601 0
 2716 124a 3146     		mov	r1, r6
 2717 124c 3846     		mov	r0, r7
 2718 124e FFF7FEFF 		bl	commands_printf
 2719              	.LVL346:
 2720              		.loc 1 602 0
 2721 1252 2C46     		mov	r4, r5
 2722              	.LVL347:
 2723              	.L134:
 2724              		.loc 1 599 0 discriminator 2
 2725 1254 0136     		adds	r6, r6, #1
 2726              	.LVL348:
 2727 1256 FE2E     		cmp	r6, #254
 2728 1258 F2D1     		bne	.L135
 2729              	.LBE153:
 2730              		.loc 1 606 0
 2731 125a 002C     		cmp	r4, #0
 2732 125c 7FF4F8AE 		bne	.L233
 2733              		.loc 1 609 0
 2734 1260 6148     		ldr	r0, .L290+56
 2735 1262 FFF7FEFF 		bl	commands_printf
 2736              	.LVL349:
ARM GAS  /tmp/ccKqffqy.s 			page 49


 2737 1266 FEF734BF 		b	.L1
 2738              	.LVL350:
 2739              	.L133:
 2740              	.LBE158:
 2741              		.loc 1 611 0
 2742 126a 6049     		ldr	r1, .L290+60
 2743 126c 2846     		mov	r0, r5
 2744 126e FFF7FEFF 		bl	strcmp
 2745              	.LVL351:
 2746 1272 88BB     		cbnz	r0, .L137
 2747              		.loc 1 612 0
 2748 1274 022C     		cmp	r4, #2
 2749 1276 7FF49CA9 		bne	.L44
 2750              	.LBB159:
 2751              		.loc 1 613 0
 2752 127a 5D4B     		ldr	r3, .L290+64
 2753              		.loc 1 614 0
 2754 127c 1998     		ldr	r0, [sp, #100]
 2755 127e 5D49     		ldr	r1, .L290+68
 2756              		.loc 1 613 0
 2757 1280 1193     		str	r3, [sp, #68]	@ float
 2758              		.loc 1 614 0
 2759 1282 11AA     		add	r2, sp, #68
 2760 1284 FFF7FEFF 		bl	sscanf
 2761              	.LVL352:
 2762              		.loc 1 616 0
 2763 1288 DDED117A 		vldr.32	s15, [sp, #68]
 2764 128c F5EEC07A 		vcmpe.f32	s15, #0
 2765 1290 F1EE10FA 		vmrs	APSR_nzcv, FPSCR
 2766 1294 7FF770A9 		ble	.L226
 2767              	.LBB98:
 2768              		.loc 1 617 0
 2769 1298 5748     		ldr	r0, .L290+72
 2770 129a FFF7FEFF 		bl	commands_printf
 2771              	.LVL353:
 2772              		.loc 1 618 0
 2773 129e 9FED572A 		vldr.32	s4, .L290+76
 2774 12a2 9DED110A 		vldr.32	s0, [sp, #68]
 2775 12a6 F0EE421A 		vmov.f32	s3, s4
 2776 12aa B0EE421A 		vmov.f32	s2, s4
 2777 12ae F0EE420A 		vmov.f32	s1, s4
 2778 12b2 0120     		movs	r0, #1
 2779 12b4 FFF7FEFF 		bl	conf_general_detect_apply_all_foc_can
 2780              	.LVL354:
 2781 12b8 FEE6     		b	.L246
 2782              	.LVL355:
 2783              	.L231:
 2784              		.loc 1 637 0
 2785 12ba 5148     		ldr	r0, .L290+80
 2786 12bc FFF7FEFF 		bl	commands_printf
 2787              	.LVL356:
 2788 12c0 FEF707BF 		b	.L1
 2789              	.L230:
 2790              		.loc 1 639 0
 2791 12c4 4F48     		ldr	r0, .L290+84
 2792 12c6 FFF7FEFF 		bl	commands_printf
 2793              	.LVL357:
ARM GAS  /tmp/ccKqffqy.s 			page 50


 2794 12ca FEF702BF 		b	.L1
 2795              	.L232:
 2796              		.loc 1 635 0
 2797 12ce 4E48     		ldr	r0, .L290+88
 2798 12d0 FFF7FEFF 		bl	commands_printf
 2799              	.LVL358:
 2800 12d4 FEF7FDBE 		b	.L1
 2801              	.LVL359:
 2802              	.L137:
 2803              	.LBE98:
 2804              	.LBE159:
 2805              		.loc 1 658 0
 2806 12d8 4C49     		ldr	r1, .L290+92
 2807 12da 2846     		mov	r0, r5
 2808 12dc FFF7FEFF 		bl	strcmp
 2809              	.LVL360:
 2810 12e0 0028     		cmp	r0, #0
 2811 12e2 49D1     		bne	.L149
 2812              		.loc 1 659 0
 2813 12e4 334C     		ldr	r4, .L290+4
 2814              	.LVL361:
 2815 12e6 94F89831 		ldrb	r3, [r4, #408]	@ zero_extendqisi2
 2816 12ea 023B     		subs	r3, r3, #2
 2817 12ec 012B     		cmp	r3, #1
 2818 12ee 16D8     		bhi	.L150
 2819              		.loc 1 662 0
 2820 12f0 FFF7FEFF 		bl	encoder_spi_get_val
 2821              	.LVL362:
 2822 12f4 0546     		mov	r5, r0
 2823              		.loc 1 661 0
 2824 12f6 FFF7FEFF 		bl	encoder_spi_get_error_cnt
 2825              	.LVL363:
 2826 12fa 0646     		mov	r6, r0
 2827              		.loc 1 664 0
 2828 12fc FFF7FEFF 		bl	encoder_spi_get_error_rate
 2829              	.LVL364:
 2830 1300 10EE100A 		vmov	r0, s0
 2831 1304 FFF7FEFF 		bl	__aeabi_f2d
 2832              	.LVL365:
 2833              		.loc 1 661 0
 2834 1308 0022     		movs	r2, #0
 2835 130a 414B     		ldr	r3, .L290+96
 2836 130c FFF7FEFF 		bl	__aeabi_dmul
 2837              	.LVL366:
 2838 1310 3246     		mov	r2, r6
 2839 1312 CDE90001 		strd	r0, [sp]
 2840 1316 2946     		mov	r1, r5
 2841 1318 3E48     		ldr	r0, .L290+100
 2842 131a FFF7FEFF 		bl	commands_printf
 2843              	.LVL367:
 2844              	.L150:
 2845              		.loc 1 667 0
 2846 131e 94F89831 		ldrb	r3, [r4, #408]	@ zero_extendqisi2
 2847 1322 042B     		cmp	r3, #4
 2848 1324 7EF4D5AE 		bne	.L1
 2849              		.loc 1 668 0
 2850 1328 FFF7FEFF 		bl	encoder_sincos_get_signal_below_min_error_cnt
ARM GAS  /tmp/ccKqffqy.s 			page 51


 2851              	.LVL368:
 2852 132c 0446     		mov	r4, r0
 2853              		.loc 1 670 0
 2854 132e FFF7FEFF 		bl	encoder_sincos_get_signal_below_min_error_rate
 2855              	.LVL369:
 2856 1332 10EE100A 		vmov	r0, s0
 2857 1336 FFF7FEFF 		bl	__aeabi_f2d
 2858              	.LVL370:
 2859              		.loc 1 668 0
 2860 133a 0022     		movs	r2, #0
 2861 133c 344B     		ldr	r3, .L290+96
 2862 133e FFF7FEFF 		bl	__aeabi_dmul
 2863              	.LVL371:
 2864 1342 0246     		mov	r2, r0
 2865 1344 0B46     		mov	r3, r1
 2866 1346 3448     		ldr	r0, .L290+104
 2867 1348 2146     		mov	r1, r4
 2868 134a FFF7FEFF 		bl	commands_printf
 2869              	.LVL372:
 2870              		.loc 1 672 0
 2871 134e FFF7FEFF 		bl	encoder_sincos_get_signal_above_max_error_cnt
 2872              	.LVL373:
 2873 1352 0446     		mov	r4, r0
 2874              		.loc 1 674 0
 2875 1354 FFF7FEFF 		bl	encoder_sincos_get_signal_above_max_error_rate
 2876              	.LVL374:
 2877 1358 10EE100A 		vmov	r0, s0
 2878 135c FFF7FEFF 		bl	__aeabi_f2d
 2879              	.LVL375:
 2880              		.loc 1 672 0
 2881 1360 0022     		movs	r2, #0
 2882 1362 2B4B     		ldr	r3, .L290+96
 2883 1364 FFF7FEFF 		bl	__aeabi_dmul
 2884              	.LVL376:
 2885 1368 0246     		mov	r2, r0
 2886 136a 0B46     		mov	r3, r1
 2887 136c 2B48     		ldr	r0, .L290+108
 2888 136e 2146     		mov	r1, r4
 2889 1370 FFF7FEFF 		bl	commands_printf
 2890              	.LVL377:
 2891 1374 FEF7ADBE 		b	.L1
 2892              	.LVL378:
 2893              	.L149:
 2894              		.loc 1 679 0
 2895 1378 2949     		ldr	r1, .L290+112
 2896 137a 2846     		mov	r0, r5
 2897 137c FFF7FEFF 		bl	strcmp
 2898              	.LVL379:
 2899 1380 0646     		mov	r6, r0
 2900 1382 0028     		cmp	r0, #0
 2901 1384 52D0     		beq	.L151
 2902              	.LBB160:
 2903              	.LBB161:
 2904              		.loc 1 808 0
 2905 1386 274B     		ldr	r3, .L290+116
 2906              		.loc 1 809 0
 2907 1388 274E     		ldr	r6, .L290+120
ARM GAS  /tmp/ccKqffqy.s 			page 52


 2908              		.loc 1 808 0
 2909 138a D3F80090 		ldr	r9, [r3]
 2910 138e 0027     		movs	r7, #0
 2911              	.L152:
 2912              	.LVL380:
 2913              		.loc 1 808 0 is_stmt 0 discriminator 1
 2914 1390 B945     		cmp	r9, r7
 2915              		.loc 1 809 0 is_stmt 1 discriminator 1
 2916 1392 4FEA0718 		lsl	r8, r7, #4
 2917 1396 2846     		mov	r0, r5
 2918              		.loc 1 808 0 discriminator 1
 2919 1398 40F35581 		ble	.L277
 2920              		.loc 1 809 0
 2921 139c 58F80610 		ldr	r1, [r8, r6]
 2922 13a0 FFF7FEFF 		bl	strcmp
 2923              	.LVL381:
 2924 13a4 0028     		cmp	r0, #0
 2925 13a6 00F04781 		beq	.L278
 2926              		.loc 1 808 0 discriminator 2
 2927 13aa 0137     		adds	r7, r7, #1
 2928              	.LVL382:
 2929 13ac F0E7     		b	.L152
 2930              	.L291:
 2931 13ae 00BF     		.align	2
 2932              	.L290:
 2933 13b0 540B0000 		.word	.LC128
 2934 13b4 00000000 		.word	.LANCHOR0
 2935 13b8 00007A44 		.word	1148846080
 2936 13bc 800B0000 		.word	.LC129
 2937 13c0 A00B0000 		.word	.LC130
 2938 13c4 00247449 		.word	1232348160
 2939 13c8 C00B0000 		.word	.LC131
 2940 13cc E40B0000 		.word	.LC132
 2941 13d0 00000000 		.word	.LC0
 2942 13d4 08000000 		.word	.LC1
 2943 13d8 040C0000 		.word	.LC133
 2944 13dc 200C0000 		.word	.LC134
 2945 13e0 9C0C0000 		.word	.LC138
 2946 13e4 A80C0000 		.word	.LC139
 2947 13e8 C00C0000 		.word	.LC140
 2948 13ec D80C0000 		.word	.LC141
 2949 13f0 000080BF 		.word	-1082130432
 2950 13f4 FC040000 		.word	.LC63
 2951 13f8 340B0000 		.word	.LC126
 2952 13fc 00000000 		.word	0
 2953 1400 8C0A0000 		.word	.LC118
 2954 1404 B00A0000 		.word	.LC119
 2955 1408 600A0000 		.word	.LC117
 2956 140c F40C0000 		.word	.LC142
 2957 1410 00005940 		.word	1079574528
 2958 1414 FC0C0000 		.word	.LC143
 2959 1418 340D0000 		.word	.LC144
 2960 141c 840D0000 		.word	.LC145
 2961 1420 D40D0000 		.word	.LC146
 2962 1424 00000000 		.word	.LANCHOR5
 2963 1428 00000000 		.word	.LANCHOR6
 2964              	.LVL383:
ARM GAS  /tmp/ccKqffqy.s 			page 53


 2965              	.L151:
 2966              	.LBE161:
 2967              	.LBE160:
 2968              		.loc 1 680 0
 2969 142c 8F48     		ldr	r0, .L292
 2970 142e 904C     		ldr	r4, .L292+4
 2971              	.LVL384:
 2972 1430 DFF87C93 		ldr	r9, .L292+324
 2973              	.LBB163:
 2974              		.loc 1 793 0
 2975 1434 DFF87C83 		ldr	r8, .L292+328
 2976              		.loc 1 801 0
 2977 1438 8E4F     		ldr	r7, .L292+8
 2978              		.loc 1 799 0
 2979 143a 8F4D     		ldr	r5, .L292+12
 2980              	.LBE163:
 2981              		.loc 1 680 0
 2982 143c FFF7FEFF 		bl	commands_printf
 2983              	.LVL385:
 2984              		.loc 1 681 0
 2985 1440 8E48     		ldr	r0, .L292+16
 2986 1442 FFF7FEFF 		bl	commands_printf
 2987              	.LVL386:
 2988              		.loc 1 682 0
 2989 1446 8E48     		ldr	r0, .L292+20
 2990 1448 FFF7FEFF 		bl	commands_printf
 2991              	.LVL387:
 2992              		.loc 1 684 0
 2993 144c 8D48     		ldr	r0, .L292+24
 2994 144e FFF7FEFF 		bl	commands_printf
 2995              	.LVL388:
 2996              		.loc 1 685 0
 2997 1452 8D48     		ldr	r0, .L292+28
 2998 1454 FFF7FEFF 		bl	commands_printf
 2999              	.LVL389:
 3000              		.loc 1 687 0
 3001 1458 8C48     		ldr	r0, .L292+32
 3002 145a FFF7FEFF 		bl	commands_printf
 3003              	.LVL390:
 3004              		.loc 1 688 0
 3005 145e 8C48     		ldr	r0, .L292+36
 3006 1460 FFF7FEFF 		bl	commands_printf
 3007              	.LVL391:
 3008              		.loc 1 690 0
 3009 1464 8B48     		ldr	r0, .L292+40
 3010 1466 FFF7FEFF 		bl	commands_printf
 3011              	.LVL392:
 3012              		.loc 1 691 0
 3013 146a 8B48     		ldr	r0, .L292+44
 3014 146c FFF7FEFF 		bl	commands_printf
 3015              	.LVL393:
 3016              		.loc 1 693 0
 3017 1470 8A48     		ldr	r0, .L292+48
 3018 1472 FFF7FEFF 		bl	commands_printf
 3019              	.LVL394:
 3020              		.loc 1 694 0
 3021 1476 8A48     		ldr	r0, .L292+52
ARM GAS  /tmp/ccKqffqy.s 			page 54


 3022 1478 FFF7FEFF 		bl	commands_printf
 3023              	.LVL395:
 3024              		.loc 1 696 0
 3025 147c 8948     		ldr	r0, .L292+56
 3026 147e FFF7FEFF 		bl	commands_printf
 3027              	.LVL396:
 3028              		.loc 1 697 0
 3029 1482 8948     		ldr	r0, .L292+60
 3030 1484 FFF7FEFF 		bl	commands_printf
 3031              	.LVL397:
 3032              		.loc 1 699 0
 3033 1488 8848     		ldr	r0, .L292+64
 3034 148a FFF7FEFF 		bl	commands_printf
 3035              	.LVL398:
 3036              		.loc 1 700 0
 3037 148e 8848     		ldr	r0, .L292+68
 3038 1490 FFF7FEFF 		bl	commands_printf
 3039              	.LVL399:
 3040              		.loc 1 702 0
 3041 1494 8748     		ldr	r0, .L292+72
 3042 1496 FFF7FEFF 		bl	commands_printf
 3043              	.LVL400:
 3044              		.loc 1 703 0
 3045 149a 8748     		ldr	r0, .L292+76
 3046 149c FFF7FEFF 		bl	commands_printf
 3047              	.LVL401:
 3048              		.loc 1 705 0
 3049 14a0 8648     		ldr	r0, .L292+80
 3050 14a2 FFF7FEFF 		bl	commands_printf
 3051              	.LVL402:
 3052              		.loc 1 706 0
 3053 14a6 8648     		ldr	r0, .L292+84
 3054 14a8 FFF7FEFF 		bl	commands_printf
 3055              	.LVL403:
 3056              		.loc 1 708 0
 3057 14ac 8548     		ldr	r0, .L292+88
 3058 14ae FFF7FEFF 		bl	commands_printf
 3059              	.LVL404:
 3060              		.loc 1 709 0
 3061 14b2 8548     		ldr	r0, .L292+92
 3062 14b4 FFF7FEFF 		bl	commands_printf
 3063              	.LVL405:
 3064              		.loc 1 711 0
 3065 14b8 8448     		ldr	r0, .L292+96
 3066 14ba FFF7FEFF 		bl	commands_printf
 3067              	.LVL406:
 3068              		.loc 1 712 0
 3069 14be 8448     		ldr	r0, .L292+100
 3070 14c0 FFF7FEFF 		bl	commands_printf
 3071              	.LVL407:
 3072              		.loc 1 714 0
 3073 14c4 8348     		ldr	r0, .L292+104
 3074 14c6 FFF7FEFF 		bl	commands_printf
 3075              	.LVL408:
 3076              		.loc 1 715 0
 3077 14ca 8348     		ldr	r0, .L292+108
 3078 14cc FFF7FEFF 		bl	commands_printf
ARM GAS  /tmp/ccKqffqy.s 			page 55


 3079              	.LVL409:
 3080              		.loc 1 717 0
 3081 14d0 8248     		ldr	r0, .L292+112
 3082 14d2 FFF7FEFF 		bl	commands_printf
 3083              	.LVL410:
 3084              		.loc 1 718 0
 3085 14d6 8248     		ldr	r0, .L292+116
 3086 14d8 FFF7FEFF 		bl	commands_printf
 3087              	.LVL411:
 3088              		.loc 1 720 0
 3089 14dc 8148     		ldr	r0, .L292+120
 3090 14de FFF7FEFF 		bl	commands_printf
 3091              	.LVL412:
 3092              		.loc 1 721 0
 3093 14e2 8148     		ldr	r0, .L292+124
 3094 14e4 FFF7FEFF 		bl	commands_printf
 3095              	.LVL413:
 3096              		.loc 1 722 0
 3097 14e8 8048     		ldr	r0, .L292+128
 3098 14ea FFF7FEFF 		bl	commands_printf
 3099              	.LVL414:
 3100              		.loc 1 723 0
 3101 14ee 8048     		ldr	r0, .L292+132
 3102 14f0 FFF7FEFF 		bl	commands_printf
 3103              	.LVL415:
 3104              		.loc 1 725 0
 3105 14f4 7F48     		ldr	r0, .L292+136
 3106 14f6 FFF7FEFF 		bl	commands_printf
 3107              	.LVL416:
 3108              		.loc 1 726 0
 3109 14fa 7F48     		ldr	r0, .L292+140
 3110 14fc FFF7FEFF 		bl	commands_printf
 3111              	.LVL417:
 3112              		.loc 1 728 0
 3113 1500 7E48     		ldr	r0, .L292+144
 3114 1502 FFF7FEFF 		bl	commands_printf
 3115              	.LVL418:
 3116              		.loc 1 729 0
 3117 1506 7E48     		ldr	r0, .L292+148
 3118 1508 FFF7FEFF 		bl	commands_printf
 3119              	.LVL419:
 3120              		.loc 1 731 0
 3121 150c 7D48     		ldr	r0, .L292+152
 3122 150e FFF7FEFF 		bl	commands_printf
 3123              	.LVL420:
 3124              		.loc 1 732 0
 3125 1512 7D48     		ldr	r0, .L292+156
 3126 1514 FFF7FEFF 		bl	commands_printf
 3127              	.LVL421:
 3128              		.loc 1 734 0
 3129 1518 7C48     		ldr	r0, .L292+160
 3130 151a FFF7FEFF 		bl	commands_printf
 3131              	.LVL422:
 3132              		.loc 1 735 0
 3133 151e 7C48     		ldr	r0, .L292+164
 3134 1520 FFF7FEFF 		bl	commands_printf
 3135              	.LVL423:
ARM GAS  /tmp/ccKqffqy.s 			page 56


 3136              		.loc 1 737 0
 3137 1524 7B48     		ldr	r0, .L292+168
 3138 1526 FFF7FEFF 		bl	commands_printf
 3139              	.LVL424:
 3140              		.loc 1 738 0
 3141 152a 7B48     		ldr	r0, .L292+172
 3142 152c FFF7FEFF 		bl	commands_printf
 3143              	.LVL425:
 3144              		.loc 1 740 0
 3145 1530 7A48     		ldr	r0, .L292+176
 3146 1532 FFF7FEFF 		bl	commands_printf
 3147              	.LVL426:
 3148              		.loc 1 741 0
 3149 1536 7A48     		ldr	r0, .L292+180
 3150 1538 FFF7FEFF 		bl	commands_printf
 3151              	.LVL427:
 3152              		.loc 1 742 0
 3153 153c 7948     		ldr	r0, .L292+184
 3154 153e FFF7FEFF 		bl	commands_printf
 3155              	.LVL428:
 3156              		.loc 1 743 0
 3157 1542 7948     		ldr	r0, .L292+188
 3158 1544 FFF7FEFF 		bl	commands_printf
 3159              	.LVL429:
 3160              		.loc 1 745 0
 3161 1548 7848     		ldr	r0, .L292+192
 3162 154a FFF7FEFF 		bl	commands_printf
 3163              	.LVL430:
 3164              		.loc 1 746 0
 3165 154e 7848     		ldr	r0, .L292+196
 3166 1550 FFF7FEFF 		bl	commands_printf
 3167              	.LVL431:
 3168              		.loc 1 748 0
 3169 1554 7748     		ldr	r0, .L292+200
 3170 1556 FFF7FEFF 		bl	commands_printf
 3171              	.LVL432:
 3172              		.loc 1 749 0
 3173 155a 7748     		ldr	r0, .L292+204
 3174 155c FFF7FEFF 		bl	commands_printf
 3175              	.LVL433:
 3176              		.loc 1 751 0
 3177 1560 7648     		ldr	r0, .L292+208
 3178 1562 FFF7FEFF 		bl	commands_printf
 3179              	.LVL434:
 3180              		.loc 1 752 0
 3181 1566 7648     		ldr	r0, .L292+212
 3182 1568 FFF7FEFF 		bl	commands_printf
 3183              	.LVL435:
 3184              		.loc 1 753 0
 3185 156c 7548     		ldr	r0, .L292+216
 3186 156e FFF7FEFF 		bl	commands_printf
 3187              	.LVL436:
 3188              		.loc 1 754 0
 3189 1572 6D48     		ldr	r0, .L292+188
 3190 1574 FFF7FEFF 		bl	commands_printf
 3191              	.LVL437:
 3192              		.loc 1 756 0
ARM GAS  /tmp/ccKqffqy.s 			page 57


 3193 1578 7348     		ldr	r0, .L292+220
 3194 157a FFF7FEFF 		bl	commands_printf
 3195              	.LVL438:
 3196              		.loc 1 757 0
 3197 157e 7348     		ldr	r0, .L292+224
 3198 1580 FFF7FEFF 		bl	commands_printf
 3199              	.LVL439:
 3200              		.loc 1 759 0
 3201 1584 7248     		ldr	r0, .L292+228
 3202 1586 FFF7FEFF 		bl	commands_printf
 3203              	.LVL440:
 3204              		.loc 1 760 0
 3205 158a 7248     		ldr	r0, .L292+232
 3206 158c FFF7FEFF 		bl	commands_printf
 3207              	.LVL441:
 3208              		.loc 1 762 0
 3209 1590 7148     		ldr	r0, .L292+236
 3210 1592 FFF7FEFF 		bl	commands_printf
 3211              	.LVL442:
 3212              		.loc 1 763 0
 3213 1596 7148     		ldr	r0, .L292+240
 3214 1598 FFF7FEFF 		bl	commands_printf
 3215              	.LVL443:
 3216              		.loc 1 765 0
 3217 159c 7048     		ldr	r0, .L292+244
 3218 159e FFF7FEFF 		bl	commands_printf
 3219              	.LVL444:
 3220              		.loc 1 766 0
 3221 15a2 7048     		ldr	r0, .L292+248
 3222 15a4 FFF7FEFF 		bl	commands_printf
 3223              	.LVL445:
 3224              		.loc 1 768 0
 3225 15a8 6F48     		ldr	r0, .L292+252
 3226 15aa FFF7FEFF 		bl	commands_printf
 3227              	.LVL446:
 3228              		.loc 1 769 0
 3229 15ae 6F48     		ldr	r0, .L292+256
 3230 15b0 FFF7FEFF 		bl	commands_printf
 3231              	.LVL447:
 3232              		.loc 1 771 0
 3233 15b4 6E48     		ldr	r0, .L292+260
 3234 15b6 FFF7FEFF 		bl	commands_printf
 3235              	.LVL448:
 3236              		.loc 1 772 0
 3237 15ba 6E48     		ldr	r0, .L292+264
 3238 15bc FFF7FEFF 		bl	commands_printf
 3239              	.LVL449:
 3240              		.loc 1 774 0
 3241 15c0 6D48     		ldr	r0, .L292+268
 3242 15c2 FFF7FEFF 		bl	commands_printf
 3243              	.LVL450:
 3244              		.loc 1 775 0
 3245 15c6 6D48     		ldr	r0, .L292+272
 3246 15c8 FFF7FEFF 		bl	commands_printf
 3247              	.LVL451:
 3248              		.loc 1 776 0
 3249 15cc 6C48     		ldr	r0, .L292+276
ARM GAS  /tmp/ccKqffqy.s 			page 58


 3250 15ce FFF7FEFF 		bl	commands_printf
 3251              	.LVL452:
 3252              		.loc 1 778 0
 3253 15d2 6C48     		ldr	r0, .L292+280
 3254 15d4 FFF7FEFF 		bl	commands_printf
 3255              	.LVL453:
 3256              		.loc 1 779 0
 3257 15d8 6B48     		ldr	r0, .L292+284
 3258 15da FFF7FEFF 		bl	commands_printf
 3259              	.LVL454:
 3260              		.loc 1 781 0
 3261 15de 6B48     		ldr	r0, .L292+288
 3262 15e0 FFF7FEFF 		bl	commands_printf
 3263              	.LVL455:
 3264              		.loc 1 782 0
 3265 15e4 6A48     		ldr	r0, .L292+292
 3266 15e6 FFF7FEFF 		bl	commands_printf
 3267              	.LVL456:
 3268              		.loc 1 784 0
 3269 15ea 6A48     		ldr	r0, .L292+296
 3270 15ec FFF7FEFF 		bl	commands_printf
 3271              	.LVL457:
 3272              		.loc 1 785 0
 3273 15f0 6948     		ldr	r0, .L292+300
 3274 15f2 FFF7FEFF 		bl	commands_printf
 3275              	.LVL458:
 3276              		.loc 1 786 0
 3277 15f6 6948     		ldr	r0, .L292+304
 3278 15f8 FFF7FEFF 		bl	commands_printf
 3279              	.LVL459:
 3280              		.loc 1 788 0
 3281 15fc 6848     		ldr	r0, .L292+308
 3282 15fe FFF7FEFF 		bl	commands_printf
 3283              	.LVL460:
 3284              		.loc 1 789 0
 3285 1602 6848     		ldr	r0, .L292+312
 3286 1604 FFF7FEFF 		bl	commands_printf
 3287              	.LVL461:
 3288              	.L153:
 3289              	.LBB164:
 3290              		.loc 1 791 0 discriminator 1
 3291 1608 D9F80030 		ldr	r3, [r9]
 3292 160c B342     		cmp	r3, r6
 3293              		.loc 1 793 0 discriminator 1
 3294 160e 4046     		mov	r0, r8
 3295              		.loc 1 791 0 discriminator 1
 3296 1610 27DD     		ble	.L279
 3297              		.loc 1 792 0
 3298 1612 D4F808C0 		ldr	ip, [r4, #8]
 3299 1616 2368     		ldr	r3, [r4]
 3300              		.loc 1 793 0
 3301 1618 6246     		mov	r2, ip
 3302 161a 1946     		mov	r1, r3
 3303              		.loc 1 792 0
 3304 161c BCF1000F 		cmp	ip, #0
 3305 1620 1BD0     		beq	.L154
 3306              		.loc 1 793 0
ARM GAS  /tmp/ccKqffqy.s 			page 59


 3307 1622 FFF7FEFF 		bl	commands_printf
 3308              	.LVL462:
 3309              	.L155:
 3310              		.loc 1 798 0
 3311 1626 6368     		ldr	r3, [r4, #4]
 3312              		.loc 1 799 0
 3313 1628 2846     		mov	r0, r5
 3314 162a 1946     		mov	r1, r3
 3315              		.loc 1 798 0
 3316 162c 8BB1     		cbz	r3, .L156
 3317              		.loc 1 799 0
 3318 162e FFF7FEFF 		bl	commands_printf
 3319              	.LVL463:
 3320              	.L157:
 3321              		.loc 1 791 0 discriminator 2
 3322 1632 0136     		adds	r6, r6, #1
 3323              	.LVL464:
 3324 1634 1034     		adds	r4, r4, #16
 3325 1636 E7E7     		b	.L153
 3326              	.LVL465:
 3327              	.L278:
 3328              	.LBE164:
 3329              	.LBB165:
 3330              	.LBB162:
 3331              		.loc 1 810 0
 3332 1638 4644     		add	r6, r6, r8
 3333 163a 18A9     		add	r1, sp, #96
 3334 163c F368     		ldr	r3, [r6, #12]
 3335 163e 2046     		mov	r0, r4
 3336 1640 9847     		blx	r3
 3337              	.LVL466:
 3338 1642 FEF746BD 		b	.L1
 3339              	.LVL467:
 3340              	.L277:
 3341              	.LBE162:
 3342              		.loc 1 817 0
 3343 1646 2946     		mov	r1, r5
 3344 1648 5748     		ldr	r0, .L292+316
 3345 164a FFF7FEFF 		bl	commands_printf
 3346              	.LVL468:
 3347 164e FEF740BD 		b	.L1
 3348              	.LVL469:
 3349              	.L156:
 3350              	.LBE165:
 3351              	.LBB166:
 3352              		.loc 1 801 0
 3353 1652 3846     		mov	r0, r7
 3354 1654 FFF7FEFF 		bl	commands_printf
 3355              	.LVL470:
 3356 1658 EBE7     		b	.L157
 3357              	.L154:
 3358              		.loc 1 795 0
 3359 165a 1846     		mov	r0, r3
 3360 165c FFF7FEFF 		bl	commands_printf
 3361              	.LVL471:
 3362 1660 E1E7     		b	.L155
 3363              	.L279:
ARM GAS  /tmp/ccKqffqy.s 			page 60


 3364              	.LBE166:
 3365              		.loc 1 805 0
 3366 1662 5248     		ldr	r0, .L292+320
 3367 1664 FFF7FEFF 		bl	commands_printf
 3368              	.LVL472:
 3369 1668 FEF733BD 		b	.L1
 3370              	.L293:
 3371              		.align	2
 3372              	.L292:
 3373 166c DC0D0000 		.word	.LC147
 3374 1670 00000000 		.word	.LANCHOR6
 3375 1674 60180000 		.word	.LC205
 3376 1678 58180000 		.word	.LC204
 3377 167c D40D0000 		.word	.LC146
 3378 1680 F00D0000 		.word	.LC148
 3379 1684 34000000 		.word	.LC6
 3380 1688 040E0000 		.word	.LC149
 3381 168c 44000000 		.word	.LC8
 3382 1690 300E0000 		.word	.LC150
 3383 1694 5C000000 		.word	.LC10
 3384 1698 440E0000 		.word	.LC151
 3385 169c E0000000 		.word	.LC14
 3386 16a0 740E0000 		.word	.LC152
 3387 16a4 04010000 		.word	.LC16
 3388 16a8 980E0000 		.word	.LC153
 3389 16ac 5C010000 		.word	.LC20
 3390 16b0 AC0E0000 		.word	.LC154
 3391 16b4 18020000 		.word	.LC25
 3392 16b8 C00E0000 		.word	.LC155
 3393 16bc 24020000 		.word	.LC27
 3394 16c0 E00E0000 		.word	.LC156
 3395 16c4 D4030000 		.word	.LC44
 3396 16c8 240F0000 		.word	.LC157
 3397 16cc F4030000 		.word	.LC46
 3398 16d0 480F0000 		.word	.LC158
 3399 16d4 14040000 		.word	.LC48
 3400 16d8 640F0000 		.word	.LC159
 3401 16dc CC040000 		.word	.LC60
 3402 16e0 840F0000 		.word	.LC160
 3403 16e4 A00F0000 		.word	.LC161
 3404 16e8 CC0F0000 		.word	.LC162
 3405 16ec 10100000 		.word	.LC163
 3406 16f0 4C100000 		.word	.LC164
 3407 16f4 6C060000 		.word	.LC74
 3408 16f8 74100000 		.word	.LC165
 3409 16fc C8060000 		.word	.LC78
 3410 1700 94100000 		.word	.LC166
 3411 1704 D0100000 		.word	.LC167
 3412 1708 F0100000 		.word	.LC168
 3413 170c 34110000 		.word	.LC169
 3414 1710 4C110000 		.word	.LC170
 3415 1714 8C110000 		.word	.LC171
 3416 1718 A0110000 		.word	.LC172
 3417 171c F4110000 		.word	.LC173
 3418 1720 2C120000 		.word	.LC174
 3419 1724 6C120000 		.word	.LC175
 3420 1728 98120000 		.word	.LC176
ARM GAS  /tmp/ccKqffqy.s 			page 61


 3421 172c CC080000 		.word	.LC99
 3422 1730 D0120000 		.word	.LC177
 3423 1734 28130000 		.word	.LC178
 3424 1738 44130000 		.word	.LC179
 3425 173c 7C130000 		.word	.LC180
 3426 1740 C4130000 		.word	.LC181
 3427 1744 04140000 		.word	.LC182
 3428 1748 44090000 		.word	.LC104
 3429 174c 30140000 		.word	.LC183
 3430 1750 50090000 		.word	.LC105
 3431 1754 54140000 		.word	.LC184
 3432 1758 80140000 		.word	.LC185
 3433 175c A0140000 		.word	.LC186
 3434 1760 D0140000 		.word	.LC187
 3435 1764 F0140000 		.word	.LC188
 3436 1768 20150000 		.word	.LC189
 3437 176c 40150000 		.word	.LC190
 3438 1770 68150000 		.word	.LC191
 3439 1774 8C150000 		.word	.LC192
 3440 1778 D0150000 		.word	.LC193
 3441 177c 08160000 		.word	.LC194
 3442 1780 54160000 		.word	.LC195
 3443 1784 7C160000 		.word	.LC196
 3444 1788 A4160000 		.word	.LC197
 3445 178c 9C0C0000 		.word	.LC138
 3446 1790 FC160000 		.word	.LC198
 3447 1794 48170000 		.word	.LC199
 3448 1798 74170000 		.word	.LC200
 3449 179c D0170000 		.word	.LC201
 3450 17a0 F40C0000 		.word	.LC142
 3451 17a4 0C180000 		.word	.LC202
 3452 17a8 90180000 		.word	.LC206
 3453 17ac 18000000 		.word	.LC4
 3454 17b0 00000000 		.word	.LANCHOR5
 3455 17b4 50180000 		.word	.LC203
 3456              		.cfi_endproc
 3457              	.LFE259:
 3458              		.size	terminal_process_string, .-terminal_process_string
 3459              		.section	.text.terminal_add_fault_data,"ax",%progbits
 3460              		.align	1
 3461              		.p2align 4,,15
 3462              		.global	terminal_add_fault_data
 3463              		.syntax unified
 3464              		.thumb
 3465              		.thumb_func
 3466              		.fpu fpv4-sp-d16
 3467              		.type	terminal_add_fault_data, %function
 3468              	terminal_add_fault_data:
 3469              	.LFB260:
 3470              		.loc 1 823 0
 3471              		.cfi_startproc
 3472              		@ args = 0, pretend = 0, frame = 0
 3473              		@ frame_needed = 0, uses_anonymous_args = 0
 3474              		@ link register save eliminated.
 3475              	.LVL473:
 3476 0000 F0B4     		push	{r4, r5, r6, r7}
 3477              		.cfi_def_cfa_offset 16
ARM GAS  /tmp/ccKqffqy.s 			page 62


 3478              		.cfi_offset 4, -16
 3479              		.cfi_offset 5, -12
 3480              		.cfi_offset 6, -8
 3481              		.cfi_offset 7, -4
 3482              		.loc 1 824 0
 3483 0002 0E4F     		ldr	r7, .L297
 3484 0004 0E4C     		ldr	r4, .L297+4
 3485 0006 3E68     		ldr	r6, [r7]
 3486 0008 0546     		mov	r5, r0
 3487 000a 0FCD     		ldmia	r5!, {r0, r1, r2, r3}
 3488              	.LVL474:
 3489 000c 06F1010C 		add	ip, r6, #1
 3490 0010 C6EB0616 		rsb	r6, r6, r6, lsl #4
 3491 0014 04EB8604 		add	r4, r4, r6, lsl #2
 3492 0018 C7F800C0 		str	ip, [r7]
 3493 001c 0FC4     		stmia	r4!, {r0, r1, r2, r3}
 3494 001e 0FCD     		ldmia	r5!, {r0, r1, r2, r3}
 3495              	.LVL475:
 3496 0020 0FC4     		stmia	r4!, {r0, r1, r2, r3}
 3497 0022 0FCD     		ldmia	r5!, {r0, r1, r2, r3}
 3498              	.LVL476:
 3499 0024 0FC4     		stmia	r4!, {r0, r1, r2, r3}
 3500 0026 95E80700 		ldm	r5, {r0, r1, r2}
 3501 002a 84E80700 		stm	r4, {r0, r1, r2}
 3502              		.loc 1 825 0
 3503 002e 3B68     		ldr	r3, [r7]
 3504 0030 182B     		cmp	r3, #24
 3505              		.loc 1 826 0
 3506 0032 C4BF     		itt	gt
 3507 0034 0023     		movgt	r3, #0
 3508 0036 3B60     		strgt	r3, [r7]
 3509              		.loc 1 828 0
 3510 0038 F0BC     		pop	{r4, r5, r6, r7}
 3511              		.cfi_restore 7
 3512              		.cfi_restore 6
 3513              		.cfi_restore 5
 3514              		.cfi_restore 4
 3515              		.cfi_def_cfa_offset 0
 3516              	.LVL477:
 3517 003a 7047     		bx	lr
 3518              	.L298:
 3519              		.align	2
 3520              	.L297:
 3521 003c 00000000 		.word	.LANCHOR3
 3522 0040 00000000 		.word	.LANCHOR4
 3523              		.cfi_endproc
 3524              	.LFE260:
 3525              		.size	terminal_add_fault_data, .-terminal_add_fault_data
 3526              		.section	.text.terminal_register_command_callback,"ax",%progbits
 3527              		.align	1
 3528              		.p2align 4,,15
 3529              		.global	terminal_register_command_callback
 3530              		.syntax unified
 3531              		.thumb
 3532              		.thumb_func
 3533              		.fpu fpv4-sp-d16
 3534              		.type	terminal_register_command_callback, %function
ARM GAS  /tmp/ccKqffqy.s 			page 63


 3535              	terminal_register_command_callback:
 3536              	.LFB261:
 3537              		.loc 1 851 0
 3538              		.cfi_startproc
 3539              		@ args = 0, pretend = 0, frame = 0
 3540              		@ frame_needed = 0, uses_anonymous_args = 0
 3541              	.LVL478:
 3542 0000 2DE9F84F 		push	{r3, r4, r5, r6, r7, r8, r9, r10, fp, lr}
 3543              		.cfi_def_cfa_offset 40
 3544              		.cfi_offset 3, -40
 3545              		.cfi_offset 4, -36
 3546              		.cfi_offset 5, -32
 3547              		.cfi_offset 6, -28
 3548              		.cfi_offset 7, -24
 3549              		.cfi_offset 8, -20
 3550              		.cfi_offset 9, -16
 3551              		.cfi_offset 10, -12
 3552              		.cfi_offset 11, -8
 3553              		.cfi_offset 14, -4
 3554              		.loc 1 853 0
 3555 0004 DFF87880 		ldr	r8, .L314+4
 3556              	.LBB167:
 3557              		.loc 1 857 0
 3558 0008 1C4E     		ldr	r6, .L314
 3559              	.LBE167:
 3560              		.loc 1 853 0
 3561 000a D8F80070 		ldr	r7, [r8]
 3562              	.LVL479:
 3563              	.LBB168:
 3564              		.loc 1 855 0
 3565 000e 002F     		cmp	r7, #0
 3566              	.LBE168:
 3567              		.loc 1 851 0
 3568 0010 0546     		mov	r5, r0
 3569 0012 8B46     		mov	fp, r1
 3570 0014 9246     		mov	r10, r2
 3571 0016 9946     		mov	r9, r3
 3572              	.LBB169:
 3573              		.loc 1 855 0
 3574 0018 1ADD     		ble	.L300
 3575              		.loc 1 857 0
 3576 001a 3068     		ldr	r0, [r6]
 3577              	.LVL480:
 3578 001c 8542     		cmp	r5, r0
 3579 001e 2AD0     		beq	.L306
 3580              		.loc 1 855 0
 3581 0020 0024     		movs	r4, #0
 3582 0022 07E0     		b	.L302
 3583              	.LVL481:
 3584              	.L311:
 3585              		.loc 1 855 0 is_stmt 0 discriminator 2
 3586 0024 0134     		adds	r4, r4, #1
 3587              	.LVL482:
 3588 0026 A742     		cmp	r7, r4
 3589              		.loc 1 857 0 is_stmt 1 discriminator 2
 3590 0028 4FEA0413 		lsl	r3, r4, #4
 3591              		.loc 1 855 0 discriminator 2
ARM GAS  /tmp/ccKqffqy.s 			page 64


 3592 002c 10D0     		beq	.L300
 3593              		.loc 1 857 0
 3594 002e F058     		ldr	r0, [r6, r3]
 3595 0030 A842     		cmp	r0, r5
 3596 0032 05D0     		beq	.L301
 3597              	.LVL483:
 3598              	.L302:
 3599              		.loc 1 863 0
 3600 0034 2946     		mov	r1, r5
 3601 0036 FFF7FEFF 		bl	strcmp
 3602              	.LVL484:
 3603 003a 0028     		cmp	r0, #0
 3604 003c F2D1     		bne	.L311
 3605 003e 2301     		lsls	r3, r4, #4
 3606              	.LVL485:
 3607              	.L301:
 3608              	.LBE169:
 3609              		.loc 1 869 0
 3610 0040 F218     		adds	r2, r6, r3
 3611 0042 F550     		str	r5, [r6, r3]
 3612              		.loc 1 871 0
 3613 0044 C2E901BA 		strd	fp, r10, [r2, #4]
 3614              		.loc 1 872 0
 3615 0048 C2F80C90 		str	r9, [r2, #12]
 3616              		.loc 1 880 0
 3617 004c BDE8F88F 		pop	{r3, r4, r5, r6, r7, r8, r9, r10, fp, pc}
 3618              	.LVL486:
 3619              	.L300:
 3620              		.loc 1 869 0
 3621 0050 3A01     		lsls	r2, r7, #4
 3622 0052 B318     		adds	r3, r6, r2
 3623              		.loc 1 875 0
 3624 0054 0137     		adds	r7, r7, #1
 3625              	.LVL487:
 3626              		.loc 1 876 0
 3627 0056 272F     		cmp	r7, #39
 3628              		.loc 1 869 0
 3629 0058 B550     		str	r5, [r6, r2]
 3630              		.loc 1 871 0
 3631 005a C3E901BA 		strd	fp, r10, [r3, #4]
 3632              		.loc 1 872 0
 3633 005e C3F80C90 		str	r9, [r3, #12]
 3634              		.loc 1 876 0
 3635 0062 04DD     		ble	.L313
 3636              		.loc 1 877 0
 3637 0064 0023     		movs	r3, #0
 3638 0066 C8F80030 		str	r3, [r8]
 3639              		.loc 1 880 0
 3640 006a BDE8F88F 		pop	{r3, r4, r5, r6, r7, r8, r9, r10, fp, pc}
 3641              	.LVL488:
 3642              	.L313:
 3643              		.loc 1 875 0
 3644 006e C8F80070 		str	r7, [r8]
 3645              		.loc 1 880 0
 3646 0072 BDE8F88F 		pop	{r3, r4, r5, r6, r7, r8, r9, r10, fp, pc}
 3647              	.LVL489:
 3648              	.L306:
ARM GAS  /tmp/ccKqffqy.s 			page 65


 3649 0076 0023     		movs	r3, #0
 3650              	.LVL490:
 3651 0078 E2E7     		b	.L301
 3652              	.L315:
 3653 007a 00BF     		.align	2
 3654              	.L314:
 3655 007c 00000000 		.word	.LANCHOR6
 3656 0080 00000000 		.word	.LANCHOR5
 3657              		.cfi_endproc
 3658              	.LFE261:
 3659              		.size	terminal_register_command_callback, .-terminal_register_command_callback
 3660              		.section	.bss.callback_write,"aw",%nobits
 3661              		.align	2
 3662              		.set	.LANCHOR5,. + 0
 3663              		.type	callback_write, %object
 3664              		.size	callback_write, 4
 3665              	callback_write:
 3666 0000 00000000 		.space	4
 3667              		.section	.bss.callbacks,"aw",%nobits
 3668              		.align	2
 3669              		.set	.LANCHOR6,. + 0
 3670              		.type	callbacks, %object
 3671              		.size	callbacks, 640
 3672              	callbacks:
 3673 0000 00000000 		.space	640
 3673      00000000 
 3673      00000000 
 3673      00000000 
 3673      00000000 
 3674              		.section	.bss.fault_vec,"aw",%nobits
 3675              		.align	2
 3676              		.set	.LANCHOR4,. + 0
 3677              		.type	fault_vec, %object
 3678              		.size	fault_vec, 1500
 3679              	fault_vec:
 3680 0000 00000000 		.space	1500
 3680      00000000 
 3680      00000000 
 3680      00000000 
 3680      00000000 
 3681              		.section	.bss.fault_vec_write,"aw",%nobits
 3682              		.align	2
 3683              		.set	.LANCHOR3,. + 0
 3684              		.type	fault_vec_write, %object
 3685              		.size	fault_vec_write, 4
 3686              	fault_vec_write:
 3687 0000 00000000 		.space	4
 3688              		.section	.bss.mcconf.13222,"aw",%nobits
 3689              		.align	2
 3690              		.set	.LANCHOR0,. + 0
 3691              		.type	mcconf.13222, %object
 3692              		.size	mcconf.13222, 456
 3693              	mcconf.13222:
 3694 0000 00000000 		.space	456
 3694      00000000 
 3694      00000000 
 3694      00000000 
ARM GAS  /tmp/ccKqffqy.s 			page 66


 3694      00000000 
 3695              		.section	.bss.mcconf_old.13223,"aw",%nobits
 3696              		.align	2
 3697              		.set	.LANCHOR1,. + 0
 3698              		.type	mcconf_old.13223, %object
 3699              		.size	mcconf_old.13223, 456
 3700              	mcconf_old.13223:
 3701 0000 00000000 		.space	456
 3701      00000000 
 3701      00000000 
 3701      00000000 
 3701      00000000 
 3702              		.section	.rodata.states.13227,"a",%progbits
 3703              		.align	2
 3704              		.set	.LANCHOR2,. + 0
 3705              		.type	states.13227, %object
 3706              		.size	states.13227, 64
 3707              	states.13227:
 3708 0000 00000000 		.word	.LC207
 3709 0004 08000000 		.word	.LC208
 3710 0008 10000000 		.word	.LC209
 3711 000c 18000000 		.word	.LC210
 3712 0010 24000000 		.word	.LC211
 3713 0014 2C000000 		.word	.LC212
 3714 0018 34000000 		.word	.LC213
 3715 001c 3C000000 		.word	.LC214
 3716 0020 44000000 		.word	.LC215
 3717 0024 50000000 		.word	.LC216
 3718 0028 58000000 		.word	.LC217
 3719 002c 60000000 		.word	.LC218
 3720 0030 6C000000 		.word	.LC219
 3721 0034 74000000 		.word	.LC220
 3722 0038 7C000000 		.word	.LC221
 3723 003c 84000000 		.word	.LC222
 3724              		.section	.rodata.str1.4,"aMS",%progbits,1
 3725              		.align	2
 3726              	.LC207:
 3727 0000 52454144 		.ascii	"READY\000"
 3727      5900
 3728 0006 0000     		.space	2
 3729              	.LC208:
 3730 0008 43555252 		.ascii	"CURRENT\000"
 3730      454E5400 
 3731              	.LC209:
 3732 0010 57545354 		.ascii	"WTSTART\000"
 3732      41525400 
 3733              	.LC210:
 3734 0018 53555350 		.ascii	"SUSPENDED\000"
 3734      454E4445 
 3734      4400
 3735 0022 0000     		.space	2
 3736              	.LC211:
 3737 0024 51554555 		.ascii	"QUEUED\000"
 3737      454400
 3738 002b 00       		.space	1
 3739              	.LC212:
 3740 002c 57545345 		.ascii	"WTSEM\000"
ARM GAS  /tmp/ccKqffqy.s 			page 67


 3740      4D00
 3741 0032 0000     		.space	2
 3742              	.LC213:
 3743 0034 57544D54 		.ascii	"WTMTX\000"
 3743      5800
 3744 003a 0000     		.space	2
 3745              	.LC214:
 3746 003c 5754434F 		.ascii	"WTCOND\000"
 3746      4E4400
 3747 0043 00       		.space	1
 3748              	.LC215:
 3749 0044 534C4545 		.ascii	"SLEEPING\000"
 3749      50494E47 
 3749      00
 3750 004d 000000   		.space	3
 3751              	.LC216:
 3752 0050 57544558 		.ascii	"WTEXIT\000"
 3752      495400
 3753 0057 00       		.space	1
 3754              	.LC217:
 3755 0058 57544F52 		.ascii	"WTOREVT\000"
 3755      45565400 
 3756              	.LC218:
 3757 0060 5754414E 		.ascii	"WTANDEVT\000"
 3757      44455654 
 3757      00
 3758 0069 000000   		.space	3
 3759              	.LC219:
 3760 006c 534E444D 		.ascii	"SNDMSGQ\000"
 3760      53475100 
 3761              	.LC220:
 3762 0074 534E444D 		.ascii	"SNDMSG\000"
 3762      534700
 3763 007b 00       		.space	1
 3764              	.LC221:
 3765 007c 57544D53 		.ascii	"WTMSG\000"
 3765      4700
 3766 0082 0000     		.space	2
 3767              	.LC222:
 3768 0084 46494E41 		.ascii	"FINAL\000"
 3768      4C00
 3769              		.section	.rodata.terminal_process_string.str1.4,"aMS",%progbits,1
 3770              		.align	2
 3771              	.LC0:
 3772 0000 74727565 		.ascii	"true\000"
 3772      00
 3773 0005 000000   		.space	3
 3774              	.LC1:
 3775 0008 66616C73 		.ascii	"false\000"
 3775      6500
 3776 000e 0000     		.space	2
 3777              	.LC2:
 3778 0010 59657300 		.ascii	"Yes\000"
 3779              	.LC3:
 3780 0014 4E6F00   		.ascii	"No\000"
 3781 0017 00       		.space	1
 3782              	.LC4:
ARM GAS  /tmp/ccKqffqy.s 			page 68


 3783 0018 2000     		.ascii	" \000"
 3784 001a 0000     		.space	2
 3785              	.LC5:
 3786 001c 4E6F2063 		.ascii	"No command received\012\000"
 3786      6F6D6D61 
 3786      6E642072 
 3786      65636569 
 3786      7665640A 
 3787 0031 000000   		.space	3
 3788              	.LC6:
 3789 0034 70696E67 		.ascii	"ping\000"
 3789      00
 3790 0039 000000   		.space	3
 3791              	.LC7:
 3792 003c 706F6E67 		.ascii	"pong\012\000"
 3792      0A00
 3793 0042 0000     		.space	2
 3794              	.LC8:
 3795 0044 73746F70 		.ascii	"stop\000"
 3795      00
 3796 0049 000000   		.space	3
 3797              	.LC9:
 3798 004c 4D6F746F 		.ascii	"Motor stopped\012\000"
 3798      72207374 
 3798      6F707065 
 3798      640A00
 3799 005b 00       		.space	1
 3800              	.LC10:
 3801 005c 6C617374 		.ascii	"last_adc_duration\000"
 3801      5F616463 
 3801      5F647572 
 3801      6174696F 
 3801      6E00
 3802 006e 0000     		.space	2
 3803              	.LC11:
 3804 0070 4C617465 		.ascii	"Latest ADC duration: %.4f ms\000"
 3804      73742041 
 3804      44432064 
 3804      75726174 
 3804      696F6E3A 
 3805 008d 000000   		.space	3
 3806              	.LC12:
 3807 0090 4C617465 		.ascii	"Latest injected ADC duration: %.4f ms\000"
 3807      73742069 
 3807      6E6A6563 
 3807      74656420 
 3807      41444320 
 3808 00b6 0000     		.space	2
 3809              	.LC13:
 3810 00b8 4C617465 		.ascii	"Latest sample ADC duration: %.4f ms\012\000"
 3810      73742073 
 3810      616D706C 
 3810      65204144 
 3810      43206475 
 3811 00dd 000000   		.space	3
 3812              	.LC14:
 3813 00e0 6B7600   		.ascii	"kv\000"
ARM GAS  /tmp/ccKqffqy.s 			page 69


 3814 00e3 00       		.space	1
 3815              	.LC15:
 3816 00e4 43616C63 		.ascii	"Calculated KV: %.2f rpm/volt\012\000"
 3816      756C6174 
 3816      6564204B 
 3816      563A2025 
 3816      2E326620 
 3817 0102 0000     		.space	2
 3818              	.LC16:
 3819 0104 6D656D00 		.ascii	"mem\000"
 3820              	.LC17:
 3821 0108 636F7265 		.ascii	"core free memory : %u bytes\000"
 3821      20667265 
 3821      65206D65 
 3821      6D6F7279 
 3821      203A2025 
 3822              	.LC18:
 3823 0124 68656170 		.ascii	"heap fragments   : %u\000"
 3823      20667261 
 3823      676D656E 
 3823      74732020 
 3823      203A2025 
 3824 013a 0000     		.space	2
 3825              	.LC19:
 3826 013c 68656170 		.ascii	"heap free total  : %u bytes\012\000"
 3826      20667265 
 3826      6520746F 
 3826      74616C20 
 3826      203A2025 
 3827 0159 000000   		.space	3
 3828              	.LC20:
 3829 015c 74687265 		.ascii	"threads\000"
 3829      61647300 
 3830              	.LC21:
 3831 0164 20202020 		.ascii	"    addr    stack prio refs     state           nam"
 3831      61646472 
 3831      20202020 
 3831      73746163 
 3831      6B207072 
 3832 0197 65207469 		.ascii	"e time    \000"
 3832      6D652020 
 3832      202000
 3833 01a2 0000     		.space	2
 3834              	.LC22:
 3835 01a4 2D2D2D2D 		.ascii	"---------------------------------------------------"
 3835      2D2D2D2D 
 3835      2D2D2D2D 
 3835      2D2D2D2D 
 3835      2D2D2D2D 
 3836 01d7 2D2D2D2D 		.ascii	"----------\000"
 3836      2D2D2D2D 
 3836      2D2D00
 3837 01e2 0000     		.space	2
 3838              	.LC23:
 3839 01e4 252E386C 		.ascii	"%.8lx %.8lx %4lu %4lu %9s %14s %lu (%.1f %%)\000"
 3839      7820252E 
 3839      386C7820 
ARM GAS  /tmp/ccKqffqy.s 			page 70


 3839      25346C75 
 3839      2025346C 
 3840 0211 000000   		.space	3
 3841              	.LC24:
 3842 0214 00       		.ascii	"\000"
 3843 0215 000000   		.space	3
 3844              	.LC25:
 3845 0218 6661756C 		.ascii	"fault\000"
 3845      7400
 3846 021e 0000     		.space	2
 3847              	.LC26:
 3848 0220 25730A00 		.ascii	"%s\012\000"
 3849              	.LC27:
 3850 0224 6661756C 		.ascii	"faults\000"
 3850      747300
 3851 022b 00       		.space	1
 3852              	.LC28:
 3853 022c 4E6F2066 		.ascii	"No faults registered since startup\012\000"
 3853      61756C74 
 3853      73207265 
 3853      67697374 
 3853      65726564 
 3854              	.LC29:
 3855 0250 54686520 		.ascii	"The following faults were registered since start:\012"
 3855      666F6C6C 
 3855      6F77696E 
 3855      67206661 
 3855      756C7473 
 3856 0282 00       		.ascii	"\000"
 3857 0283 00       		.space	1
 3858              	.LC30:
 3859 0284 4661756C 		.ascii	"Fault            : %s\000"
 3859      74202020 
 3859      20202020 
 3859      20202020 
 3859      203A2025 
 3860 029a 0000     		.space	2
 3861              	.LC31:
 3862 029c 43757272 		.ascii	"Current          : %.1f\000"
 3862      656E7420 
 3862      20202020 
 3862      20202020 
 3862      203A2025 
 3863              	.LC32:
 3864 02b4 43757272 		.ascii	"Current filtered : %.1f\000"
 3864      656E7420 
 3864      66696C74 
 3864      65726564 
 3864      203A2025 
 3865              	.LC33:
 3866 02cc 566F6C74 		.ascii	"Voltage          : %.2f\000"
 3866      61676520 
 3866      20202020 
 3866      20202020 
 3866      203A2025 
 3867              	.LC34:
 3868 02e4 44757479 		.ascii	"Duty             : %.3f\000"
ARM GAS  /tmp/ccKqffqy.s 			page 71


 3868      20202020 
 3868      20202020 
 3868      20202020 
 3868      203A2025 
 3869              	.LC35:
 3870 02fc 52504D20 		.ascii	"RPM              : %.1f\000"
 3870      20202020 
 3870      20202020 
 3870      20202020 
 3870      203A2025 
 3871              	.LC36:
 3872 0314 54616368 		.ascii	"Tacho            : %d\000"
 3872      6F202020 
 3872      20202020 
 3872      20202020 
 3872      203A2025 
 3873 032a 0000     		.space	2
 3874              	.LC37:
 3875 032c 4379636C 		.ascii	"Cycles running   : %d\000"
 3875      65732072 
 3875      756E6E69 
 3875      6E672020 
 3875      203A2025 
 3876 0342 0000     		.space	2
 3877              	.LC38:
 3878 0344 54494D20 		.ascii	"TIM duty         : %d\000"
 3878      64757479 
 3878      20202020 
 3878      20202020 
 3878      203A2025 
 3879 035a 0000     		.space	2
 3880              	.LC39:
 3881 035c 54494D20 		.ascii	"TIM val samp     : %d\000"
 3881      76616C20 
 3881      73616D70 
 3881      20202020 
 3881      203A2025 
 3882 0372 0000     		.space	2
 3883              	.LC40:
 3884 0374 54494D20 		.ascii	"TIM current samp : %d\000"
 3884      63757272 
 3884      656E7420 
 3884      73616D70 
 3884      203A2025 
 3885 038a 0000     		.space	2
 3886              	.LC41:
 3887 038c 54494D20 		.ascii	"TIM top          : %d\000"
 3887      746F7020 
 3887      20202020 
 3887      20202020 
 3887      203A2025 
 3888 03a2 0000     		.space	2
 3889              	.LC42:
 3890 03a4 436F6D6D 		.ascii	"Comm step        : %d\000"
 3890      20737465 
 3890      70202020 
 3890      20202020 
ARM GAS  /tmp/ccKqffqy.s 			page 72


 3890      203A2025 
 3891 03ba 0000     		.space	2
 3892              	.LC43:
 3893 03bc 54656D70 		.ascii	"Temperature      : %.2f\000"
 3893      65726174 
 3893      75726520 
 3893      20202020 
 3893      203A2025 
 3894              	.LC44:
 3895 03d4 72706D00 		.ascii	"rpm\000"
 3896              	.LC45:
 3897 03d8 456C6563 		.ascii	"Electrical RPM: %.2f rpm\012\000"
 3897      74726963 
 3897      616C2052 
 3897      504D3A20 
 3897      252E3266 
 3898 03f2 0000     		.space	2
 3899              	.LC46:
 3900 03f4 74616368 		.ascii	"tacho\000"
 3900      6F00
 3901 03fa 0000     		.space	2
 3902              	.LC47:
 3903 03fc 54616368 		.ascii	"Tachometer counts: %i\012\000"
 3903      6F6D6574 
 3903      65722063 
 3903      6F756E74 
 3903      733A2025 
 3904 0413 00       		.space	1
 3905              	.LC48:
 3906 0414 74696D00 		.ascii	"tim\000"
 3907              	.LC49:
 3908 0418 54696D31 		.ascii	"Tim1 CNT: %i\000"
 3908      20434E54 
 3908      3A202569 
 3908      00
 3909 0425 000000   		.space	3
 3910              	.LC50:
 3911 0428 54696D38 		.ascii	"Tim8 CNT: %u\000"
 3911      20434E54 
 3911      3A202575 
 3911      00
 3912 0435 000000   		.space	3
 3913              	.LC51:
 3914 0438 44757479 		.ascii	"Duty cycle1: %u\000"
 3914      20637963 
 3914      6C65313A 
 3914      20257500 
 3915              	.LC52:
 3916 0448 44757479 		.ascii	"Duty cycle2: %u\000"
 3916      20637963 
 3916      6C65323A 
 3916      20257500 
 3917              	.LC53:
 3918 0458 44757479 		.ascii	"Duty cycle3: %u\000"
 3918      20637963 
 3918      6C65333A 
 3918      20257500 
ARM GAS  /tmp/ccKqffqy.s 			page 73


 3919              	.LC54:
 3920 0468 546F703A 		.ascii	"Top: %u\000"
 3920      20257500 
 3921              	.LC55:
 3922 0470 44697231 		.ascii	"Dir1: %u\000"
 3922      3A202575 
 3922      00
 3923 0479 000000   		.space	3
 3924              	.LC56:
 3925 047c 44697238 		.ascii	"Dir8: %u\000"
 3925      3A202575 
 3925      00
 3926 0485 000000   		.space	3
 3927              	.LC57:
 3928 0488 566F6C74 		.ascii	"Voltage sample: %u\000"
 3928      61676520 
 3928      73616D70 
 3928      6C653A20 
 3928      257500
 3929 049b 00       		.space	1
 3930              	.LC58:
 3931 049c 43757272 		.ascii	"Current 1 sample: %u\000"
 3931      656E7420 
 3931      31207361 
 3931      6D706C65 
 3931      3A202575 
 3932 04b1 000000   		.space	3
 3933              	.LC59:
 3934 04b4 43757272 		.ascii	"Current 2 sample: %u\012\000"
 3934      656E7420 
 3934      32207361 
 3934      6D706C65 
 3934      3A202575 
 3935 04ca 0000     		.space	2
 3936              	.LC60:
 3937 04cc 766F6C74 		.ascii	"volt\000"
 3937      00
 3938 04d1 000000   		.space	3
 3939              	.LC61:
 3940 04d4 496E7075 		.ascii	"Input voltage: %.2f\012\000"
 3940      7420766F 
 3940      6C746167 
 3940      653A2025 
 3940      2E32660A 
 3941 04e9 000000   		.space	3
 3942              	.LC62:
 3943 04ec 70617261 		.ascii	"param_detect\000"
 3943      6D5F6465 
 3943      74656374 
 3943      00
 3944 04f9 000000   		.space	3
 3945              	.LC63:
 3946 04fc 256600   		.ascii	"%f\000"
 3947 04ff 00       		.space	1
 3948              	.LC64:
 3949 0500 4379636C 		.ascii	"Cycle integrator limit: %.2f\000"
 3949      6520696E 
ARM GAS  /tmp/ccKqffqy.s 			page 74


 3949      74656772 
 3949      61746F72 
 3949      206C696D 
 3950 051d 000000   		.space	3
 3951              	.LC65:
 3952 0520 436F7570 		.ascii	"Coupling factor: %.2f\000"
 3952      6C696E67 
 3952      20666163 
 3952      746F723A 
 3952      20252E32 
 3953 0536 0000     		.space	2
 3954              	.LC66:
 3955 0538 44657465 		.ascii	"Detected hall sensor table:\000"
 3955      63746564 
 3955      2068616C 
 3955      6C207365 
 3955      6E736F72 
 3956              	.LC67:
 3957 0554 25692C20 		.ascii	"%i, %i, %i, %i, %i, %i, %i, %i\012\000"
 3957      25692C20 
 3957      25692C20 
 3957      25692C20 
 3957      25692C20 
 3958              	.LC68:
 3959 0574 48616C6C 		.ascii	"Hall sensor detection failed:\000"
 3959      2073656E 
 3959      736F7220 
 3959      64657465 
 3959      6374696F 
 3960 0592 0000     		.space	2
 3961              	.LC69:
 3962 0594 57533238 		.ascii	"WS2811 enabled. Hall sensors cannot be used.\012\000"
 3962      31312065 
 3962      6E61626C 
 3962      65642E20 
 3962      48616C6C 
 3963 05c2 0000     		.space	2
 3964              	.LC70:
 3965 05c4 456E636F 		.ascii	"Encoder enabled. Hall sensors cannot be used.\012\000"
 3965      64657220 
 3965      656E6162 
 3965      6C65642E 
 3965      2048616C 
 3966 05f3 00       		.space	1
 3967              	.LC71:
 3968 05f4 44657465 		.ascii	"Detection failed. Try again with different paramete"
 3968      6374696F 
 3968      6E206661 
 3968      696C6564 
 3968      2E205472 
 3969 0627 72732E0A 		.ascii	"rs.\012\000"
 3969      00
 3970              	.LC72:
 3971 062c 496E7661 		.ascii	"Invalid argument(s).\012\000"
 3971      6C696420 
 3971      61726775 
 3971      6D656E74 
ARM GAS  /tmp/ccKqffqy.s 			page 75


 3971      2873292E 
 3972 0642 0000     		.space	2
 3973              	.LC73:
 3974 0644 54686973 		.ascii	"This command requires three arguments.\012\000"
 3974      20636F6D 
 3974      6D616E64 
 3974      20726571 
 3974      75697265 
 3975              	.LC74:
 3976 066c 72706D5F 		.ascii	"rpm_dep\000"
 3976      64657000 
 3977              	.LC75:
 3978 0674 4379636C 		.ascii	"Cycle int limit: %.2f\000"
 3978      6520696E 
 3978      74206C69 
 3978      6D69743A 
 3978      20252E32 
 3979 068a 0000     		.space	2
 3980              	.LC76:
 3981 068c 4379636C 		.ascii	"Cycle int limit running: %.2f\000"
 3981      6520696E 
 3981      74206C69 
 3981      6D697420 
 3981      72756E6E 
 3982 06aa 0000     		.space	2
 3983              	.LC77:
 3984 06ac 4379636C 		.ascii	"Cycle int limit max: %.2f\012\000"
 3984      6520696E 
 3984      74206C69 
 3984      6D697420 
 3984      6D61783A 
 3985 06c7 00       		.space	1
 3986              	.LC78:
 3987 06c8 63616E5F 		.ascii	"can_devs\000"
 3987      64657673 
 3987      00
 3988 06d1 000000   		.space	3
 3989              	.LC79:
 3990 06d4 43414E20 		.ascii	"CAN devices seen on the bus the past second:\012\000"
 3990      64657669 
 3990      63657320 
 3990      7365656E 
 3990      206F6E20 
 3991 0702 0000     		.space	2
 3992              	.LC80:
 3993 0704 49442020 		.ascii	"ID                 : %i\000"
 3993      20202020 
 3993      20202020 
 3993      20202020 
 3993      2020203A 
 3994              	.LC81:
 3995 071c 52582054 		.ascii	"RX Time            : %i\000"
 3995      696D6520 
 3995      20202020 
 3995      20202020 
 3995      2020203A 
 3996              	.LC82:
ARM GAS  /tmp/ccKqffqy.s 			page 76


 3997 0734 41676520 		.ascii	"Age (milliseconds) : %.2f\000"
 3997      286D696C 
 3997      6C697365 
 3997      636F6E64 
 3997      7329203A 
 3998 074e 0000     		.space	2
 3999              	.LC83:
 4000 0750 52504D20 		.ascii	"RPM                : %.2f\000"
 4000      20202020 
 4000      20202020 
 4000      20202020 
 4000      2020203A 
 4001 076a 0000     		.space	2
 4002              	.LC84:
 4003 076c 43757272 		.ascii	"Current            : %.2f\000"
 4003      656E7420 
 4003      20202020 
 4003      20202020 
 4003      2020203A 
 4004 0786 0000     		.space	2
 4005              	.LC85:
 4006 0788 44757479 		.ascii	"Duty               : %.2f\012\000"
 4006      20202020 
 4006      20202020 
 4006      20202020 
 4006      2020203A 
 4007 07a3 00       		.space	1
 4008              	.LC86:
 4009 07a4 666F635F 		.ascii	"foc_encoder_detect\000"
 4009      656E636F 
 4009      6465725F 
 4009      64657465 
 4009      637400
 4010 07b7 00       		.space	1
 4011              	.LC87:
 4012 07b8 4F666673 		.ascii	"Offset   : %.2f\000"
 4012      65742020 
 4012      203A2025 
 4012      2E326600 
 4013              	.LC88:
 4014 07c8 52617469 		.ascii	"Ratio    : %.2f\000"
 4014      6F202020 
 4014      203A2025 
 4014      2E326600 
 4015              	.LC89:
 4016 07d8 496E7665 		.ascii	"Inverted : %s\012\000"
 4016      72746564 
 4016      203A2025 
 4016      730A00
 4017 07e7 00       		.space	1
 4018              	.LC90:
 4019 07e8 456E636F 		.ascii	"Encoder not enabled.\012\000"
 4019      64657220 
 4019      6E6F7420 
 4019      656E6162 
 4019      6C65642E 
 4020 07fe 0000     		.space	2
ARM GAS  /tmp/ccKqffqy.s 			page 77


 4021              	.LC91:
 4022 0800 54686973 		.ascii	"This command requires one argument.\012\000"
 4022      20636F6D 
 4022      6D616E64 
 4022      20726571 
 4022      75697265 
 4023 0825 000000   		.space	3
 4024              	.LC92:
 4025 0828 6D656173 		.ascii	"measure_res\000"
 4025      7572655F 
 4025      72657300 
 4026              	.LC93:
 4027 0834 52657369 		.ascii	"Resistance: %.6f ohm\012\000"
 4027      7374616E 
 4027      63653A20 
 4027      252E3666 
 4027      206F686D 
 4028 084a 0000     		.space	2
 4029              	.LC94:
 4030 084c 6D656173 		.ascii	"measure_ind\000"
 4030      7572655F 
 4030      696E6400 
 4031              	.LC95:
 4032 0858 496E6475 		.ascii	"Inductance: %.2f microhenry (%.2f A)\012\000"
 4032      6374616E 
 4032      63653A20 
 4032      252E3266 
 4032      206D6963 
 4033 087e 0000     		.space	2
 4034              	.LC96:
 4035 0880 6D656173 		.ascii	"measure_linkage\000"
 4035      7572655F 
 4035      6C696E6B 
 4035      61676500 
 4036              	.LC97:
 4037 0890 466C7578 		.ascii	"Flux linkage: %.7f\012\000"
 4037      206C696E 
 4037      6B616765 
 4037      3A20252E 
 4037      37660A00 
 4038              	.LC98:
 4039 08a4 54686973 		.ascii	"This command requires four arguments.\012\000"
 4039      20636F6D 
 4039      6D616E64 
 4039      20726571 
 4039      75697265 
 4040 08cb 00       		.space	1
 4041              	.LC99:
 4042 08cc 6D656173 		.ascii	"measure_res_ind\000"
 4042      7572655F 
 4042      7265735F 
 4042      696E6400 
 4043              	.LC100:
 4044 08dc 52657369 		.ascii	"Resistance: %.6f ohm\000"
 4044      7374616E 
 4044      63653A20 
 4044      252E3666 
ARM GAS  /tmp/ccKqffqy.s 			page 78


 4044      206F686D 
 4045 08f1 000000   		.space	3
 4046              	.LC101:
 4047 08f4 496E6475 		.ascii	"Inductance: %.2f microhenry\012\000"
 4047      6374616E 
 4047      63653A20 
 4047      252E3266 
 4047      206D6963 
 4048 0911 000000   		.space	3
 4049              	.LC102:
 4050 0914 6D656173 		.ascii	"measure_linkage_foc\000"
 4050      7572655F 
 4050      6C696E6B 
 4050      6167655F 
 4050      666F6300 
 4051              	.LC103:
 4052 0928 6D656173 		.ascii	"measure_linkage_openloop\000"
 4052      7572655F 
 4052      6C696E6B 
 4052      6167655F 
 4052      6F70656E 
 4053 0941 000000   		.space	3
 4054              	.LC104:
 4055 0944 666F635F 		.ascii	"foc_state\000"
 4055      73746174 
 4055      6500
 4056 094e 0000     		.space	2
 4057              	.LC105:
 4058 0950 68775F73 		.ascii	"hw_status\000"
 4058      74617475 
 4058      7300
 4059 095a 0000     		.space	2
 4060              	.LC106:
 4061 095c 4669726D 		.ascii	"Firmware: %d.%d\000"
 4061      77617265 
 4061      3A202564 
 4061      2E256400 
 4062              	.LC107:
 4063 096c 4B415254 		.ascii	"KART_01\000"
 4063      5F303100 
 4064              	.LC108:
 4065 0974 48617264 		.ascii	"Hardware: %s\000"
 4065      77617265 
 4065      3A202573 
 4065      00
 4066 0981 000000   		.space	3
 4067              	.LC109:
 4068 0984 55554944 		.ascii	"UUID: %02X %02X %02X %02X %02X %02X %02X %02X %02X "
 4068      3A202530 
 4068      32582025 
 4068      30325820 
 4068      25303258 
 4069 09b7 25303258 		.ascii	"%02X %02X %02X\000"
 4069      20253032 
 4069      58202530 
 4069      325800
 4070 09c6 0000     		.space	2
ARM GAS  /tmp/ccKqffqy.s 			page 79


 4071              	.LC110:
 4072 09c8 5065726D 		.ascii	"Permanent NRF found: %s\000"
 4072      616E656E 
 4072      74204E52 
 4072      4620666F 
 4072      756E643A 
 4073              	.LC111:
 4074 09e0 666F635F 		.ascii	"foc_openloop\000"
 4074      6F70656E 
 4074      6C6F6F70 
 4074      00
 4075 09ed 000000   		.space	3
 4076              	.LC112:
 4077 09f0 54686973 		.ascii	"This command requires two arguments.\012\000"
 4077      20636F6D 
 4077      6D616E64 
 4077      20726571 
 4077      75697265 
 4078 0a16 0000     		.space	2
 4079              	.LC113:
 4080 0a18 666F635F 		.ascii	"foc_openloop_duty\000"
 4080      6F70656E 
 4080      6C6F6F70 
 4080      5F647574 
 4080      7900
 4081 0a2a 0000     		.space	2
 4082              	.LC114:
 4083 0a2c 6E72665F 		.ascii	"nrf_ext_set_enabled\000"
 4083      6578745F 
 4083      7365745F 
 4083      656E6162 
 4083      6C656400 
 4084              	.LC115:
 4085 0a40 256400   		.ascii	"%d\000"
 4086 0a43 00       		.space	1
 4087              	.LC116:
 4088 0a44 666F635F 		.ascii	"foc_sensors_detect_apply\000"
 4088      73656E73 
 4088      6F72735F 
 4088      64657465 
 4088      63745F61 
 4089 0a5d 000000   		.space	3
 4090              	.LC117:
 4091 0a60 4E6F2073 		.ascii	"No sensors found, using sensorless mode.\012\000"
 4091      656E736F 
 4091      72732066 
 4091      6F756E64 
 4091      2C207573 
 4092 0a8a 0000     		.space	2
 4093              	.LC118:
 4094 0a8c 466F756E 		.ascii	"Found hall sensors, using them.\012\000"
 4094      64206861 
 4094      6C6C2073 
 4094      656E736F 
 4094      72732C20 
 4095 0aad 000000   		.space	3
 4096              	.LC119:
ARM GAS  /tmp/ccKqffqy.s 			page 80


 4097 0ab0 466F756E 		.ascii	"Found AS5047 encoder, using it.\012\000"
 4097      64204153 
 4097      35303437 
 4097      20656E63 
 4097      6F646572 
 4098 0ad1 000000   		.space	3
 4099              	.LC120:
 4100 0ad4 44657465 		.ascii	"Detection error: %d\012\000"
 4100      6374696F 
 4100      6E206572 
 4100      726F723A 
 4100      2025640A 
 4101 0ae9 000000   		.space	3
 4102              	.LC121:
 4103 0aec 726F746F 		.ascii	"rotor_lock_openloop\000"
 4103      725F6C6F 
 4103      636B5F6F 
 4103      70656E6C 
 4103      6F6F7000 
 4104              	.LC122:
 4105 0b00 4F4B0A00 		.ascii	"OK\012\000"
 4106              	.LC123:
 4107 0b04 54206C65 		.ascii	"T left: %.2f s\000"
 4107      66743A20 
 4107      252E3266 
 4107      207300
 4108 0b13 00       		.space	1
 4109              	.LC124:
 4110 0b14 446F6E65 		.ascii	"Done\012\000"
 4110      0A00
 4111 0b1a 0000     		.space	2
 4112              	.LC125:
 4113 0b1c 666F635F 		.ascii	"foc_detect_apply_all\000"
 4113      64657465 
 4113      63745F61 
 4113      70706C79 
 4113      5F616C6C 
 4114 0b31 000000   		.space	3
 4115              	.LC126:
 4116 0b34 52756E6E 		.ascii	"Running detection...\000"
 4116      696E6720 
 4116      64657465 
 4116      6374696F 
 4116      6E2E2E2E 
 4117 0b49 000000   		.space	3
 4118              	.LC127:
 4119 0b4c 5265733A 		.ascii	"Res: %d\000"
 4119      20256400 
 4120              	.LC128:
 4121 0b54 44657465 		.ascii	"Detection finished and applied. Results:\000"
 4121      6374696F 
 4121      6E206669 
 4121      6E697368 
 4121      65642061 
 4122 0b7d 000000   		.space	3
 4123              	.LC129:
 4124 0b80 4D6F746F 		.ascii	"Motor Current       : %.1f A\000"
ARM GAS  /tmp/ccKqffqy.s 			page 81


 4124      72204375 
 4124      7272656E 
 4124      74202020 
 4124      20202020 
 4125 0b9d 000000   		.space	3
 4126              	.LC130:
 4127 0ba0 4D6F746F 		.ascii	"Motor R             : %.2f mOhm\000"
 4127      72205220 
 4127      20202020 
 4127      20202020 
 4127      20202020 
 4128              	.LC131:
 4129 0bc0 4D6F746F 		.ascii	"Motor L             : %.2f microH\000"
 4129      72204C20 
 4129      20202020 
 4129      20202020 
 4129      20202020 
 4130 0be2 0000     		.space	2
 4131              	.LC132:
 4132 0be4 4D6F746F 		.ascii	"Motor Flux Linkage  : %.3f mWb\000"
 4132      7220466C 
 4132      7578204C 
 4132      696E6B61 
 4132      67652020 
 4133 0c03 00       		.space	1
 4134              	.LC133:
 4135 0c04 54656D70 		.ascii	"Temp Comp           : %s\000"
 4135      20436F6D 
 4135      70202020 
 4135      20202020 
 4135      20202020 
 4136 0c1d 000000   		.space	3
 4137              	.LC134:
 4138 0c20 54656D70 		.ascii	"Temp Comp Base Temp : %.1f degC\000"
 4138      20436F6D 
 4138      70204261 
 4138      73652054 
 4138      656D7020 
 4139              	.LC135:
 4140 0c40 436F756C 		.ascii	"Could not measure flux linkage.\000"
 4140      64206E6F 
 4140      74206D65 
 4140      61737572 
 4140      6520666C 
 4141              	.LC136:
 4142 0c60 4661756C 		.ascii	"Fault code occured during detection.\000"
 4142      7420636F 
 4142      6465206F 
 4142      63637572 
 4142      65642064 
 4143 0c85 000000   		.space	3
 4144              	.LC137:
 4145 0c88 44657465 		.ascii	"Detection failed.\012\000"
 4145      6374696F 
 4145      6E206661 
 4145      696C6564 
 4145      2E0A00
ARM GAS  /tmp/ccKqffqy.s 			page 82


 4146 0c9b 00       		.space	1
 4147              	.LC138:
 4148 0c9c 63616E5F 		.ascii	"can_scan\000"
 4148      7363616E 
 4148      00
 4149 0ca5 000000   		.space	3
 4150              	.LC139:
 4151 0ca8 466F756E 		.ascii	"Found VESC with ID: %d\000"
 4151      64205645 
 4151      53432077 
 4151      69746820 
 4151      49443A20 
 4152 0cbf 00       		.space	1
 4153              	.LC140:
 4154 0cc0 4E6F2043 		.ascii	"No CAN devices found\012\000"
 4154      414E2064 
 4154      65766963 
 4154      65732066 
 4154      6F756E64 
 4155 0cd6 0000     		.space	2
 4156              	.LC141:
 4157 0cd8 666F635F 		.ascii	"foc_detect_apply_all_can\000"
 4157      64657465 
 4157      63745F61 
 4157      70706C79 
 4157      5F616C6C 
 4158 0cf1 000000   		.space	3
 4159              	.LC142:
 4160 0cf4 656E636F 		.ascii	"encoder\000"
 4160      64657200 
 4161              	.LC143:
 4162 0cfc 53504920 		.ascii	"SPI encoder value: %x, errors: %d, error rate: %.3f"
 4162      656E636F 
 4162      64657220 
 4162      76616C75 
 4162      653A2025 
 4163 0d2f 20252500 		.ascii	" %%\000"
 4164 0d33 00       		.space	1
 4165              	.LC144:
 4166 0d34 53696E2F 		.ascii	"Sin/Cos encoder signal below minimum amplitude: err"
 4166      436F7320 
 4166      656E636F 
 4166      64657220 
 4166      7369676E 
 4167 0d67 6F72733A 		.ascii	"ors: %d, error rate: %.3f %%\000"
 4167      2025642C 
 4167      20657272 
 4167      6F722072 
 4167      6174653A 
 4168              	.LC145:
 4169 0d84 53696E2F 		.ascii	"Sin/Cos encoder signal above maximum amplitude: err"
 4169      436F7320 
 4169      656E636F 
 4169      64657220 
 4169      7369676E 
 4170 0db7 6F72733A 		.ascii	"ors: %d, error rate: %.3f %%\000"
 4170      2025642C 
ARM GAS  /tmp/ccKqffqy.s 			page 83


 4170      20657272 
 4170      6F722072 
 4170      6174653A 
 4171              	.LC146:
 4172 0dd4 68656C70 		.ascii	"help\000"
 4172      00
 4173 0dd9 000000   		.space	3
 4174              	.LC147:
 4175 0ddc 56616C69 		.ascii	"Valid commands are:\000"
 4175      6420636F 
 4175      6D6D616E 
 4175      64732061 
 4175      72653A00 
 4176              	.LC148:
 4177 0df0 20205368 		.ascii	"  Show this help\000"
 4177      6F772074 
 4177      68697320 
 4177      68656C70 
 4177      00
 4178 0e01 000000   		.space	3
 4179              	.LC149:
 4180 0e04 20205072 		.ascii	"  Print pong here to see if the reply works\000"
 4180      696E7420 
 4180      706F6E67 
 4180      20686572 
 4180      6520746F 
 4181              	.LC150:
 4182 0e30 20205374 		.ascii	"  Stop the motor\000"
 4182      6F702074 
 4182      6865206D 
 4182      6F746F72 
 4182      00
 4183 0e41 000000   		.space	3
 4184              	.LC151:
 4185 0e44 20205468 		.ascii	"  The time the latest ADC interrupt consumed\000"
 4185      65207469 
 4185      6D652074 
 4185      6865206C 
 4185      61746573 
 4186 0e71 000000   		.space	3
 4187              	.LC152:
 4188 0e74 20205468 		.ascii	"  The calculated kv of the motor\000"
 4188      65206361 
 4188      6C63756C 
 4188      61746564 
 4188      206B7620 
 4189 0e95 000000   		.space	3
 4190              	.LC153:
 4191 0e98 20205368 		.ascii	"  Show memory usage\000"
 4191      6F77206D 
 4191      656D6F72 
 4191      79207573 
 4191      61676500 
 4192              	.LC154:
 4193 0eac 20204C69 		.ascii	"  List all threads\000"
 4193      73742061 
 4193      6C6C2074 
ARM GAS  /tmp/ccKqffqy.s 			page 84


 4193      68726561 
 4193      647300
 4194 0ebf 00       		.space	1
 4195              	.LC155:
 4196 0ec0 20205072 		.ascii	"  Prints the current fault code\000"
 4196      696E7473 
 4196      20746865 
 4196      20637572 
 4196      72656E74 
 4197              	.LC156:
 4198 0ee0 20205072 		.ascii	"  Prints all stored fault codes and conditions when"
 4198      696E7473 
 4198      20616C6C 
 4198      2073746F 
 4198      72656420 
 4199 0f13 20746865 		.ascii	" they arrived\000"
 4199      79206172 
 4199      72697665 
 4199      6400
 4200 0f21 000000   		.space	3
 4201              	.LC157:
 4202 0f24 20205072 		.ascii	"  Prints the current electrical RPM\000"
 4202      696E7473 
 4202      20746865 
 4202      20637572 
 4202      72656E74 
 4203              	.LC158:
 4204 0f48 20205072 		.ascii	"  Prints tachometer value\000"
 4204      696E7473 
 4204      20746163 
 4204      686F6D65 
 4204      74657220 
 4205 0f62 0000     		.space	2
 4206              	.LC159:
 4207 0f64 20205072 		.ascii	"  Prints tim1 and tim8 settings\000"
 4207      696E7473 
 4207      2074696D 
 4207      3120616E 
 4207      64207469 
 4208              	.LC160:
 4209 0f84 20205072 		.ascii	"  Prints different voltages\000"
 4209      696E7473 
 4209      20646966 
 4209      66657265 
 4209      6E742076 
 4210              	.LC161:
 4211 0fa0 70617261 		.ascii	"param_detect [current] [min_rpm] [low_duty]\000"
 4211      6D5F6465 
 4211      74656374 
 4211      205B6375 
 4211      7272656E 
 4212              	.LC162:
 4213 0fcc 20205370 		.ascii	"  Spin up the motor in COMM_MODE_DELAY and compute "
 4213      696E2075 
 4213      70207468 
 4213      65206D6F 
 4213      746F7220 
ARM GAS  /tmp/ccKqffqy.s 			page 85


 4214 0fff 69747320 		.ascii	"its parameters.\000"
 4214      70617261 
 4214      6D657465 
 4214      72732E00 
 4215 100f 00       		.space	1
 4216              	.LC163:
 4217 1010 20205468 		.ascii	"  This test should be performed without load on the"
 4217      69732074 
 4217      65737420 
 4217      73686F75 
 4217      6C642062 
 4218 1043 206D6F74 		.ascii	" motor.\000"
 4218      6F722E00 
 4219 104b 00       		.space	1
 4220              	.LC164:
 4221 104c 20204578 		.ascii	"  Example: param_detect 5.0 600 0.06\000"
 4221      616D706C 
 4221      653A2070 
 4221      6172616D 
 4221      5F646574 
 4222 1071 000000   		.space	3
 4223              	.LC165:
 4224 1074 20205072 		.ascii	"  Prints some rpm-dep values\000"
 4224      696E7473 
 4224      20736F6D 
 4224      65207270 
 4224      6D2D6465 
 4225 1091 000000   		.space	3
 4226              	.LC166:
 4227 1094 20205072 		.ascii	"  Prints all CAN devices seen on the bus the past s"
 4227      696E7473 
 4227      20616C6C 
 4227      2043414E 
 4227      20646576 
 4228 10c7 65636F6E 		.ascii	"econd\000"
 4228      6400
 4229 10cd 000000   		.space	3
 4230              	.LC167:
 4231 10d0 666F635F 		.ascii	"foc_encoder_detect [current]\000"
 4231      656E636F 
 4231      6465725F 
 4231      64657465 
 4231      6374205B 
 4232 10ed 000000   		.space	3
 4233              	.LC168:
 4234 10f0 20205275 		.ascii	"  Run the motor at 1Hz on open loop and compute enc"
 4234      6E207468 
 4234      65206D6F 
 4234      746F7220 
 4234      61742031 
 4235 1123 6F646572 		.ascii	"oder settings\000"
 4235      20736574 
 4235      74696E67 
 4235      7300
 4236 1131 000000   		.space	3
 4237              	.LC169:
 4238 1134 6D656173 		.ascii	"measure_res [current]\000"
ARM GAS  /tmp/ccKqffqy.s 			page 86


 4238      7572655F 
 4238      72657320 
 4238      5B637572 
 4238      72656E74 
 4239 114a 0000     		.space	2
 4240              	.LC170:
 4241 114c 20204C6F 		.ascii	"  Lock the motor with a current and calculate its r"
 4241      636B2074 
 4241      6865206D 
 4241      6F746F72 
 4241      20776974 
 4242 117f 65736973 		.ascii	"esistance\000"
 4242      74616E63 
 4242      6500
 4243 1189 000000   		.space	3
 4244              	.LC171:
 4245 118c 6D656173 		.ascii	"measure_ind [duty]\000"
 4245      7572655F 
 4245      696E6420 
 4245      5B647574 
 4245      795D00
 4246 119f 00       		.space	1
 4247              	.LC172:
 4248 11a0 20205365 		.ascii	"  Send short voltage pulses, measure the current an"
 4248      6E642073 
 4248      686F7274 
 4248      20766F6C 
 4248      74616765 
 4249 11d3 64206361 		.ascii	"d calculate the motor inductance\000"
 4249      6C63756C 
 4249      61746520 
 4249      74686520 
 4249      6D6F746F 
 4250              	.LC173:
 4251 11f4 6D656173 		.ascii	"measure_linkage [current] [duty] [min_erpm] [motor_"
 4251      7572655F 
 4251      6C696E6B 
 4251      61676520 
 4251      5B637572 
 4252 1227 7265735D 		.ascii	"res]\000"
 4252      00
 4253              	.LC174:
 4254 122c 20205275 		.ascii	"  Run the motor in BLDC delay mode and measure the "
 4254      6E207468 
 4254      65206D6F 
 4254      746F7220 
 4254      696E2042 
 4255 125f 666C7578 		.ascii	"flux linkage\000"
 4255      206C696E 
 4255      6B616765 
 4255      00
 4256              	.LC175:
 4257 126c 20206578 		.ascii	"  example measure_linkage 5 0.5 700 0.076\000"
 4257      616D706C 
 4257      65206D65 
 4257      61737572 
 4257      655F6C69 
ARM GAS  /tmp/ccKqffqy.s 			page 87


 4258 1296 0000     		.space	2
 4259              	.LC176:
 4260 1298 20207469 		.ascii	"  tip: measure the resistance with measure_res firs"
 4260      703A206D 
 4260      65617375 
 4260      72652074 
 4260      68652072 
 4261 12cb 7400     		.ascii	"t\000"
 4262 12cd 000000   		.space	3
 4263              	.LC177:
 4264 12d0 20204D65 		.ascii	"  Measure the motor resistance and inductance with "
 4264      61737572 
 4264      65207468 
 4264      65206D6F 
 4264      746F7220 
 4265 1303 616E2069 		.ascii	"an incremental adaptive algorithm.\000"
 4265      6E637265 
 4265      6D656E74 
 4265      616C2061 
 4265      64617074 
 4266 1326 0000     		.space	2
 4267              	.LC178:
 4268 1328 6D656173 		.ascii	"measure_linkage_foc [duty]\000"
 4268      7572655F 
 4268      6C696E6B 
 4268      6167655F 
 4268      666F6320 
 4269 1343 00       		.space	1
 4270              	.LC179:
 4271 1344 20205275 		.ascii	"  Run the motor with FOC and measure the flux linka"
 4271      6E207468 
 4271      65206D6F 
 4271      746F7220 
 4271      77697468 
 4272 1377 67652E00 		.ascii	"ge.\000"
 4273 137b 00       		.space	1
 4274              	.LC180:
 4275 137c 6D656173 		.ascii	"measure_linkage_openloop [current] [duty] [erpm_per"
 4275      7572655F 
 4275      6C696E6B 
 4275      6167655F 
 4275      6F70656E 
 4276 13af 5F736563 		.ascii	"_sec] [motor_res]\000"
 4276      5D205B6D 
 4276      6F746F72 
 4276      5F726573 
 4276      5D00
 4277 13c1 000000   		.space	3
 4278              	.LC181:
 4279 13c4 20205275 		.ascii	"  Run the motor in openloop FOC and measure the flu"
 4279      6E207468 
 4279      65206D6F 
 4279      746F7220 
 4279      696E206F 
 4280 13f7 78206C69 		.ascii	"x linkage\000"
 4280      6E6B6167 
 4280      6500
ARM GAS  /tmp/ccKqffqy.s 			page 88


 4281 1401 000000   		.space	3
 4282              	.LC182:
 4283 1404 20206578 		.ascii	"  example measure_linkage 5 0.5 1000 0.076\000"
 4283      616D706C 
 4283      65206D65 
 4283      61737572 
 4283      655F6C69 
 4284 142f 00       		.space	1
 4285              	.LC183:
 4286 1430 20205072 		.ascii	"  Print some FOC state variables.\000"
 4286      696E7420 
 4286      736F6D65 
 4286      20464F43 
 4286      20737461 
 4287 1452 0000     		.space	2
 4288              	.LC184:
 4289 1454 20205072 		.ascii	"  Print some hardware status information.\000"
 4289      696E7420 
 4289      736F6D65 
 4289      20686172 
 4289      64776172 
 4290 147e 0000     		.space	2
 4291              	.LC185:
 4292 1480 666F635F 		.ascii	"foc_openloop [current] [erpm]\000"
 4292      6F70656E 
 4292      6C6F6F70 
 4292      205B6375 
 4292      7272656E 
 4293 149e 0000     		.space	2
 4294              	.LC186:
 4295 14a0 20204372 		.ascii	"  Create an open loop rotating current vector.\000"
 4295      65617465 
 4295      20616E20 
 4295      6F70656E 
 4295      206C6F6F 
 4296 14cf 00       		.space	1
 4297              	.LC187:
 4298 14d0 666F635F 		.ascii	"foc_openloop_duty [duty] [erpm]\000"
 4298      6F70656E 
 4298      6C6F6F70 
 4298      5F647574 
 4298      79205B64 
 4299              	.LC188:
 4300 14f0 20204372 		.ascii	"  Create an open loop rotating voltage vector.\000"
 4300      65617465 
 4300      20616E20 
 4300      6F70656E 
 4300      206C6F6F 
 4301 151f 00       		.space	1
 4302              	.LC189:
 4303 1520 6E72665F 		.ascii	"nrf_ext_set_enabled [enabled]\000"
 4303      6578745F 
 4303      7365745F 
 4303      656E6162 
 4303      6C656420 
 4304 153e 0000     		.space	2
 4305              	.LC190:
ARM GAS  /tmp/ccKqffqy.s 			page 89


 4306 1540 2020456E 		.ascii	"  Enable or disable external NRF51822.\000"
 4306      61626C65 
 4306      206F7220 
 4306      64697361 
 4306      626C6520 
 4307 1567 00       		.space	1
 4308              	.LC191:
 4309 1568 666F635F 		.ascii	"foc_sensors_detect_apply [current]\000"
 4309      73656E73 
 4309      6F72735F 
 4309      64657465 
 4309      63745F61 
 4310 158b 00       		.space	1
 4311              	.LC192:
 4312 158c 20204175 		.ascii	"  Automatically detect FOC sensors, and apply setti"
 4312      746F6D61 
 4312      74696361 
 4312      6C6C7920 
 4312      64657465 
 4313 15bf 6E677320 		.ascii	"ngs on success.\000"
 4313      6F6E2073 
 4313      75636365 
 4313      73732E00 
 4314 15cf 00       		.space	1
 4315              	.LC193:
 4316 15d0 726F746F 		.ascii	"rotor_lock_openloop [current_A] [time_S] [angle_DEG"
 4316      725F6C6F 
 4316      636B5F6F 
 4316      70656E6C 
 4316      6F6F7020 
 4317 1603 5D00     		.ascii	"]\000"
 4318 1605 000000   		.space	3
 4319              	.LC194:
 4320 1608 20204C6F 		.ascii	"  Lock the motor with a current for a given time. T"
 4320      636B2074 
 4320      6865206D 
 4320      6F746F72 
 4320      20776974 
 4321 163b 696D6520 		.ascii	"ime 0 means forever, or\000"
 4321      30206D65 
 4321      616E7320 
 4321      666F7265 
 4321      7665722C 
 4322 1653 00       		.space	1
 4323              	.LC195:
 4324 1654 20206F72 		.ascii	"  or until the heartbeat packets stop.\000"
 4324      20756E74 
 4324      696C2074 
 4324      68652068 
 4324      65617274 
 4325 167b 00       		.space	1
 4326              	.LC196:
 4327 167c 666F635F 		.ascii	"foc_detect_apply_all [max_power_loss_W]\000"
 4327      64657465 
 4327      63745F61 
 4327      70706C79 
 4327      5F616C6C 
ARM GAS  /tmp/ccKqffqy.s 			page 90


 4328              	.LC197:
 4329 16a4 20204465 		.ascii	"  Detect and apply all motor settings, based on max"
 4329      74656374 
 4329      20616E64 
 4329      20617070 
 4329      6C792061 
 4330 16d7 696D756D 		.ascii	"imum resistive motor power losses.\000"
 4330      20726573 
 4330      69737469 
 4330      7665206D 
 4330      6F746F72 
 4331 16fa 0000     		.space	2
 4332              	.LC198:
 4333 16fc 20205363 		.ascii	"  Scan CAN-bus using ping commands, and print all d"
 4333      616E2043 
 4333      414E2D62 
 4333      75732075 
 4333      73696E67 
 4334 172f 65766963 		.ascii	"evices that are found.\000"
 4334      65732074 
 4334      68617420 
 4334      61726520 
 4334      666F756E 
 4335 1746 0000     		.space	2
 4336              	.LC199:
 4337 1748 666F635F 		.ascii	"foc_detect_apply_all_can [max_power_loss_W]\000"
 4337      64657465 
 4337      63745F61 
 4337      70706C79 
 4337      5F616C6C 
 4338              	.LC200:
 4339 1774 20204465 		.ascii	"  Detect and apply all motor settings, based on max"
 4339      74656374 
 4339      20616E64 
 4339      20617070 
 4339      6C792061 
 4340 17a7 696D756D 		.ascii	"imum resistive motor power losses. Also\000"
 4340      20726573 
 4340      69737469 
 4340      7665206D 
 4340      6F746F72 
 4341 17cf 00       		.space	1
 4342              	.LC201:
 4343 17d0 2020696E 		.ascii	"  initiates detection in all VESCs found on the CAN"
 4343      69746961 
 4343      74657320 
 4343      64657465 
 4343      6374696F 
 4344 1803 2D627573 		.ascii	"-bus.\000"
 4344      2E00
 4345 1809 000000   		.space	3
 4346              	.LC202:
 4347 180c 20205072 		.ascii	"  Prints the status of the AS5047, AD2S1205, or Sin"
 4347      696E7473 
 4347      20746865 
 4347      20737461 
 4347      74757320 
ARM GAS  /tmp/ccKqffqy.s 			page 91


 4348 183f 2F436F73 		.ascii	"/Cos encoder.\000"
 4348      20656E63 
 4348      6F646572 
 4348      2E00
 4349 184d 000000   		.space	3
 4350              	.LC203:
 4351 1850 25732025 		.ascii	"%s %s\000"
 4351      7300
 4352 1856 0000     		.space	2
 4353              	.LC204:
 4354 1858 20202573 		.ascii	"  %s\000"
 4354      00
 4355 185d 000000   		.space	3
 4356              	.LC205:
 4357 1860 20205468 		.ascii	"  There is no help available for this command.\000"
 4357      65726520 
 4357      6973206E 
 4357      6F206865 
 4357      6C702061 
 4358 188f 00       		.space	1
 4359              	.LC206:
 4360 1890 496E7661 		.ascii	"Invalid command: %s\012type help to list all availa"
 4360      6C696420 
 4360      636F6D6D 
 4360      616E643A 
 4360      2025730A 
 4361 18c0 626C6520 		.ascii	"ble commands\012\000"
 4361      636F6D6D 
 4361      616E6473 
 4361      0A00
 4362              		.text
 4363              	.Letext0:
 4364              		.file 4 "/usr/lib/gcc/arm-none-eabi/7.3.1/include/stddef.h"
 4365              		.file 5 "/usr/arm-none-eabi/include/machine/_default_types.h"
 4366              		.file 6 "/usr/arm-none-eabi/include/sys/_stdint.h"
 4367              		.file 7 "ChibiOS_3.0.2/os/rt/ports/ARMCMx/compilers/GCC/chtypes.h"
 4368              		.file 8 "ChibiOS_3.0.2/os/rt/include/chsystypes.h"
 4369              		.file 9 "ChibiOS_3.0.2/os/rt/include/chschd.h"
 4370              		.file 10 "ChibiOS_3.0.2/os/ext/CMSIS/include/core_cm4.h"
 4371              		.file 11 "ChibiOS_3.0.2/os/ext/CMSIS/ST/system_stm32f4xx.h"
 4372              		.file 12 "ChibiOS_3.0.2/os/ext/CMSIS/ST/stm32f407xx.h"
 4373              		.file 13 "ChibiOS_3.0.2/os/rt/ports/ARMCMx/chcore.h"
 4374              		.file 14 "ChibiOS_3.0.2/os/rt/ports/ARMCMx/chcore_v7m.h"
 4375              		.file 15 "ChibiOS_3.0.2/os/rt/include/chtm.h"
 4376              		.file 16 "ChibiOS_3.0.2/os/rt/include/chsem.h"
 4377              		.file 17 "ChibiOS_3.0.2/os/rt/include/chmtx.h"
 4378              		.file 18 "ChibiOS_3.0.2/os/rt/include/chregistry.h"
 4379              		.file 19 "ChibiOS_3.0.2/os/rt/include/chevents.h"
 4380              		.file 20 "ChibiOS_3.0.2/os/rt/include/chqueues.h"
 4381              		.file 21 "./datatypes.h"
 4382              		.file 22 "./conf_general.h"
 4383              		.file 23 "ChibiOS_3.0.2/os/hal/ports/STM32/STM32F4xx/stm32_dma.h"
 4384              		.file 24 "ChibiOS_3.0.2/os/hal/ports/STM32/LLD/GPIOv2/pal_lld.h"
 4385              		.file 25 "ChibiOS_3.0.2/os/hal/include/can.h"
 4386              		.file 26 "ChibiOS_3.0.2/os/hal/ports/STM32/LLD/can_lld.h"
 4387              		.file 27 "ChibiOS_3.0.2/os/hal/include/i2c.h"
 4388              		.file 28 "ChibiOS_3.0.2/os/hal/ports/STM32/LLD/I2Cv1/i2c_lld.h"
ARM GAS  /tmp/ccKqffqy.s 			page 92


 4389              		.file 29 "ChibiOS_3.0.2/os/hal/include/icu.h"
 4390              		.file 30 "ChibiOS_3.0.2/os/hal/ports/STM32/LLD/TIMv1/icu_lld.h"
 4391              		.file 31 "ChibiOS_3.0.2/os/hal/ports/STM32/LLD/TIMv1/stm32_tim.h"
 4392              		.file 32 "ChibiOS_3.0.2/os/hal/include/serial.h"
 4393              		.file 33 "ChibiOS_3.0.2/os/hal/ports/STM32/LLD/USARTv1/serial_lld.h"
 4394              		.file 34 "ChibiOS_3.0.2/os/hal/include/spi.h"
 4395              		.file 35 "ChibiOS_3.0.2/os/hal/ports/STM32/LLD/SPIv1/spi_lld.h"
 4396              		.file 36 "ChibiOS_3.0.2/os/hal/include/usb.h"
 4397              		.file 37 "ChibiOS_3.0.2/os/hal/ports/STM32/LLD/OTGv1/usb_lld.h"
 4398              		.file 38 "ChibiOS_3.0.2/os/hal/ports/STM32/LLD/OTGv1/stm32_otg.h"
 4399              		.file 39 "mcpwm.h"
 4400              		.file 40 "mc_interface.h"
 4401              		.file 41 "/usr/arm-none-eabi/include/sys/lock.h"
 4402              		.file 42 "/usr/arm-none-eabi/include/sys/_types.h"
 4403              		.file 43 "/usr/arm-none-eabi/include/sys/reent.h"
 4404              		.file 44 "/usr/arm-none-eabi/include/math.h"
 4405              		.file 45 "ChibiOS_3.0.2/os/rt/include/chsys.h"
 4406              		.file 46 "/usr/arm-none-eabi/include/string.h"
 4407              		.file 47 "ChibiOS_3.0.2/os/rt/include/chheap.h"
 4408              		.file 48 "ChibiOS_3.0.2/os/rt/include/chmemcore.h"
 4409              		.file 49 "commands.h"
 4410              		.file 50 "/usr/arm-none-eabi/include/stdio.h"
 4411              		.file 51 "comm_can.h"
 4412              		.file 52 "mcpwm_foc.h"
 4413              		.file 53 "encoder.h"
 4414              		.file 54 "ChibiOS_3.0.2/os/rt/include/chthreads.h"
 4415              		.file 55 "timeout.h"
 4416              		.file 56 "<built-in>"