ARM GAS  /tmp/ccU5UnMV.s 			page 1


   1              		.cpu cortex-m4
   2              		.eabi_attribute 27, 1
   3              		.eabi_attribute 28, 1
   4              		.eabi_attribute 20, 1
   5              		.eabi_attribute 21, 1
   6              		.eabi_attribute 23, 3
   7              		.eabi_attribute 24, 1
   8              		.eabi_attribute 25, 1
   9              		.eabi_attribute 26, 1
  10              		.eabi_attribute 30, 2
  11              		.eabi_attribute 34, 1
  12              		.eabi_attribute 18, 4
  13              		.file	"terminal.c"
  14              		.text
  15              	.Ltext0:
  16              		.cfi_sections	.debug_frame
  17              		.global	__aeabi_f2d
  18              		.global	__aeabi_dmul
  19              		.section	.text.terminal_process_string,"ax",%progbits
  20              		.align	1
  21              		.p2align 4,,15
  22              		.global	terminal_process_string
  23              		.syntax unified
  24              		.thumb
  25              		.thumb_func
  26              		.fpu fpv4-sp-d16
  27              		.type	terminal_process_string, %function
  28              	terminal_process_string:
  29              	.LFB259:
  30              		.file 1 "terminal.c"
  31              		.loc 1 60 0
  32              		.cfi_startproc
  33              		@ args = 0, pretend = 0, frame = 312
  34              		@ frame_needed = 0, uses_anonymous_args = 0
  35              	.LVL0:
  36 0000 2DE9F04F 		push	{r4, r5, r6, r7, r8, r9, r10, fp, lr}
  37              		.cfi_def_cfa_offset 36
  38              		.cfi_offset 4, -36
  39              		.cfi_offset 5, -32
  40              		.cfi_offset 6, -28
  41              		.cfi_offset 7, -24
  42              		.cfi_offset 8, -20
  43              		.cfi_offset 9, -16
  44              		.cfi_offset 10, -12
  45              		.cfi_offset 11, -8
  46              		.cfi_offset 14, -4
  47 0004 2DED088B 		vpush.64	{d8, d9, d10, d11}
  48              		.cfi_def_cfa_offset 68
  49              		.cfi_offset 80, -68
  50              		.cfi_offset 81, -64
  51              		.cfi_offset 82, -60
  52              		.cfi_offset 83, -56
  53              		.cfi_offset 84, -52
  54              		.cfi_offset 85, -48
  55              		.cfi_offset 86, -44
  56              		.cfi_offset 87, -40
  57              		.loc 1 65 0
ARM GAS  /tmp/ccU5UnMV.s 			page 2


  58 0008 A549     		ldr	r1, .L281
  59              		.loc 1 60 0
  60 000a D9B0     		sub	sp, sp, #356
  61              		.cfi_def_cfa_offset 424
  62              		.loc 1 65 0
  63 000c FFF7FEFF 		bl	strtok
  64              	.LVL1:
  65              		.loc 1 66 0
  66 0010 0028     		cmp	r0, #0
  67 0012 5DD0     		beq	.L249
  68 0014 0346     		mov	r3, r0
  69              		.loc 1 68 0
  70 0016 A24E     		ldr	r6, .L281
  71 0018 18AD     		add	r5, sp, #96
  72              		.loc 1 62 0
  73 001a 0024     		movs	r4, #0
  74 001c 01E0     		b	.L5
  75              	.LVL2:
  76              	.L250:
  77              		.loc 1 66 0 discriminator 1
  78 001e 402C     		cmp	r4, #64
  79 0020 09D0     		beq	.L4
  80              	.LVL3:
  81              	.L5:
  82              		.loc 1 67 0
  83 0022 45F8043B 		str	r3, [r5], #4
  84              		.loc 1 68 0
  85 0026 3146     		mov	r1, r6
  86 0028 0020     		movs	r0, #0
  87              	.LVL4:
  88 002a FFF7FEFF 		bl	strtok
  89              	.LVL5:
  90              		.loc 1 67 0
  91 002e 0134     		adds	r4, r4, #1
  92              	.LVL6:
  93              		.loc 1 66 0
  94 0030 0346     		mov	r3, r0
  95 0032 0028     		cmp	r0, #0
  96 0034 F3D1     		bne	.L250
  97              	.L4:
  98              		.loc 1 78 0
  99 0036 FFF7FEFF 		bl	mc_interface_get_configuration
 100              	.LVL7:
 101 003a 4FF4E472 		mov	r2, #456
 102 003e 0146     		mov	r1, r0
 103 0040 9848     		ldr	r0, .L281+4
 104 0042 FFF7FEFF 		bl	memcpy
 105              	.LVL8:
 106              		.loc 1 79 0
 107 0046 9749     		ldr	r1, .L281+4
 108 0048 9748     		ldr	r0, .L281+8
 109 004a 4FF4E472 		mov	r2, #456
 110 004e FFF7FEFF 		bl	memcpy
 111              	.LVL9:
 112              		.loc 1 81 0
 113 0052 189D     		ldr	r5, [sp, #96]
 114 0054 9549     		ldr	r1, .L281+12
ARM GAS  /tmp/ccU5UnMV.s 			page 3


 115 0056 2846     		mov	r0, r5
 116 0058 FFF7FEFF 		bl	strcmp
 117              	.LVL10:
 118 005c 0028     		cmp	r0, #0
 119 005e 3FD0     		beq	.L251
 120              		.loc 1 83 0
 121 0060 9349     		ldr	r1, .L281+16
 122 0062 2846     		mov	r0, r5
 123 0064 FFF7FEFF 		bl	strcmp
 124              	.LVL11:
 125 0068 0028     		cmp	r0, #0
 126 006a 6BD0     		beq	.L252
 127              		.loc 1 86 0
 128 006c 9149     		ldr	r1, .L281+20
 129 006e 2846     		mov	r0, r5
 130 0070 FFF7FEFF 		bl	strcmp
 131              	.LVL12:
 132 0074 0028     		cmp	r0, #0
 133 0076 3BD0     		beq	.L253
 134              		.loc 1 90 0
 135 0078 8F49     		ldr	r1, .L281+24
 136 007a 2846     		mov	r0, r5
 137 007c FFF7FEFF 		bl	strcmp
 138              	.LVL13:
 139 0080 0028     		cmp	r0, #0
 140 0082 6BD0     		beq	.L254
 141              		.loc 1 92 0
 142 0084 8D49     		ldr	r1, .L281+28
 143 0086 2846     		mov	r0, r5
 144 0088 FFF7FEFF 		bl	strcmp
 145              	.LVL14:
 146 008c 0028     		cmp	r0, #0
 147 008e 7AD0     		beq	.L255
 148              		.loc 1 98 0
 149 0090 8B49     		ldr	r1, .L281+32
 150 0092 2846     		mov	r0, r5
 151 0094 FFF7FEFF 		bl	strcmp
 152              	.LVL15:
 153 0098 0028     		cmp	r0, #0
 154 009a 00F08780 		beq	.L256
 155              		.loc 1 113 0
 156 009e 8949     		ldr	r1, .L281+36
 157 00a0 2846     		mov	r0, r5
 158 00a2 FFF7FEFF 		bl	strcmp
 159              	.LVL16:
 160 00a6 0028     		cmp	r0, #0
 161 00a8 64D0     		beq	.L257
 162              		.loc 1 115 0
 163 00aa 8749     		ldr	r1, .L281+40
 164 00ac 2846     		mov	r0, r5
 165 00ae FFF7FEFF 		bl	strcmp
 166              	.LVL17:
 167 00b2 0646     		mov	r6, r0
 168 00b4 0028     		cmp	r0, #0
 169 00b6 40F0B880 		bne	.L15
 170              		.loc 1 116 0
 171 00ba DFF88482 		ldr	r8, .L281+160
ARM GAS  /tmp/ccU5UnMV.s 			page 4


 172 00be D8F80030 		ldr	r3, [r8]
 173 00c2 002B     		cmp	r3, #0
 174 00c4 40F0DB80 		bne	.L16
 175              		.loc 1 117 0
 176 00c8 8048     		ldr	r0, .L281+44
 177 00ca FFF7FEFF 		bl	commands_printf
 178              	.LVL18:
 179 00ce 02E0     		b	.L1
 180              	.LVL19:
 181              	.L249:
 182              		.loc 1 72 0
 183 00d0 7F48     		ldr	r0, .L281+48
 184              	.LVL20:
 185 00d2 FFF7FEFF 		bl	commands_printf
 186              	.LVL21:
 187              	.L1:
 188              		.loc 1 821 0
 189 00d6 59B0     		add	sp, sp, #356
 190              		.cfi_remember_state
 191              		.cfi_def_cfa_offset 68
 192              		@ sp needed
 193 00d8 BDEC088B 		vldm	sp!, {d8-d11}
 194              		.cfi_restore 86
 195              		.cfi_restore 87
 196              		.cfi_restore 84
 197              		.cfi_restore 85
 198              		.cfi_restore 82
 199              		.cfi_restore 83
 200              		.cfi_restore 80
 201              		.cfi_restore 81
 202              		.cfi_def_cfa_offset 36
 203 00dc BDE8F08F 		pop	{r4, r5, r6, r7, r8, r9, r10, fp, pc}
 204              	.LVL22:
 205              	.L251:
 206              		.cfi_restore_state
 207              		.loc 1 82 0
 208 00e0 7C48     		ldr	r0, .L281+52
 209 00e2 FFF7FEFF 		bl	commands_printf
 210              	.LVL23:
 211              		.loc 1 821 0
 212 00e6 59B0     		add	sp, sp, #356
 213              		.cfi_remember_state
 214              		.cfi_def_cfa_offset 68
 215              		@ sp needed
 216 00e8 BDEC088B 		vldm	sp!, {d8-d11}
 217              		.cfi_restore 86
 218              		.cfi_restore 87
 219              		.cfi_restore 84
 220              		.cfi_restore 85
 221              		.cfi_restore 82
 222              		.cfi_restore 83
 223              		.cfi_restore 80
 224              		.cfi_restore 81
 225              		.cfi_def_cfa_offset 36
 226 00ec BDE8F08F 		pop	{r4, r5, r6, r7, r8, r9, r10, fp, pc}
 227              	.LVL24:
 228              	.L253:
ARM GAS  /tmp/ccU5UnMV.s 			page 5


 229              		.cfi_restore_state
 230              		.loc 1 87 0
 231 00f0 FFF7FEFF 		bl	mcpwm_get_last_adc_isr_duration
 232              	.LVL25:
 233 00f4 9FED788A 		vldr.32	s16, .L281+56
 234 00f8 60EE087A 		vmul.f32	s15, s0, s16
 235 00fc 17EE900A 		vmov	r0, s15
 236 0100 FFF7FEFF 		bl	__aeabi_f2d
 237              	.LVL26:
 238 0104 0246     		mov	r2, r0
 239 0106 0B46     		mov	r3, r1
 240 0108 7448     		ldr	r0, .L281+60
 241 010a FFF7FEFF 		bl	commands_printf
 242              	.LVL27:
 243              		.loc 1 88 0
 244 010e FFF7FEFF 		bl	mc_interface_get_last_inj_adc_isr_duration
 245              	.LVL28:
 246 0112 60EE087A 		vmul.f32	s15, s0, s16
 247 0116 17EE900A 		vmov	r0, s15
 248 011a FFF7FEFF 		bl	__aeabi_f2d
 249              	.LVL29:
 250 011e 0246     		mov	r2, r0
 251 0120 0B46     		mov	r3, r1
 252 0122 6F48     		ldr	r0, .L281+64
 253 0124 FFF7FEFF 		bl	commands_printf
 254              	.LVL30:
 255              		.loc 1 89 0
 256 0128 FFF7FEFF 		bl	mc_interface_get_last_sample_adc_isr_duration
 257              	.LVL31:
 258 012c 60EE087A 		vmul.f32	s15, s0, s16
 259 0130 17EE900A 		vmov	r0, s15
 260 0134 FFF7FEFF 		bl	__aeabi_f2d
 261              	.LVL32:
 262 0138 0246     		mov	r2, r0
 263 013a 0B46     		mov	r3, r1
 264 013c 6948     		ldr	r0, .L281+68
 265 013e FFF7FEFF 		bl	commands_printf
 266              	.LVL33:
 267 0142 C8E7     		b	.L1
 268              	.L252:
 269              		.loc 1 84 0
 270 0144 9FED680A 		vldr.32	s0, .L281+72
 271 0148 FFF7FEFF 		bl	mc_interface_set_duty
 272              	.LVL34:
 273              		.loc 1 85 0
 274 014c 6748     		ldr	r0, .L281+76
 275 014e FFF7FEFF 		bl	commands_printf
 276              	.LVL35:
 277              		.loc 1 821 0
 278 0152 59B0     		add	sp, sp, #356
 279              		.cfi_remember_state
 280              		.cfi_def_cfa_offset 68
 281              		@ sp needed
 282 0154 BDEC088B 		vldm	sp!, {d8-d11}
 283              		.cfi_restore 86
 284              		.cfi_restore 87
 285              		.cfi_restore 84
ARM GAS  /tmp/ccU5UnMV.s 			page 6


 286              		.cfi_restore 85
 287              		.cfi_restore 82
 288              		.cfi_restore 83
 289              		.cfi_restore 80
 290              		.cfi_restore 81
 291              		.cfi_def_cfa_offset 36
 292 0158 BDE8F08F 		pop	{r4, r5, r6, r7, r8, r9, r10, fp, pc}
 293              	.LVL36:
 294              	.L254:
 295              		.cfi_restore_state
 296              		.loc 1 91 0
 297 015c FFF7FEFF 		bl	mcpwm_get_kv_filtered
 298              	.LVL37:
 299 0160 10EE100A 		vmov	r0, s0
 300 0164 FFF7FEFF 		bl	__aeabi_f2d
 301              	.LVL38:
 302 0168 0246     		mov	r2, r0
 303 016a 0B46     		mov	r3, r1
 304 016c 6048     		ldr	r0, .L281+80
 305 016e FFF7FEFF 		bl	commands_printf
 306              	.LVL39:
 307 0172 B0E7     		b	.L1
 308              	.L257:
 309              		.loc 1 114 0
 310 0174 FFF7FEFF 		bl	mc_interface_get_fault
 311              	.LVL40:
 312 0178 FFF7FEFF 		bl	mc_interface_fault_to_string
 313              	.LVL41:
 314 017c 0146     		mov	r1, r0
 315 017e 5D48     		ldr	r0, .L281+84
 316 0180 FFF7FEFF 		bl	commands_printf
 317              	.LVL42:
 318 0184 A7E7     		b	.L1
 319              	.L255:
 320              	.LBB77:
 321              		.loc 1 94 0
 322 0186 11A9     		add	r1, sp, #68
 323 0188 FFF7FEFF 		bl	chHeapStatus
 324              	.LVL43:
 325 018c 0446     		mov	r4, r0
 326              	.LVL44:
 327              		.loc 1 95 0
 328 018e FFF7FEFF 		bl	chCoreGetStatusX
 329              	.LVL45:
 330 0192 0146     		mov	r1, r0
 331 0194 5848     		ldr	r0, .L281+88
 332 0196 FFF7FEFF 		bl	commands_printf
 333              	.LVL46:
 334              		.loc 1 96 0
 335 019a 2146     		mov	r1, r4
 336 019c 5748     		ldr	r0, .L281+92
 337 019e FFF7FEFF 		bl	commands_printf
 338              	.LVL47:
 339              		.loc 1 97 0
 340 01a2 1199     		ldr	r1, [sp, #68]
 341 01a4 5648     		ldr	r0, .L281+96
 342 01a6 FFF7FEFF 		bl	commands_printf
ARM GAS  /tmp/ccU5UnMV.s 			page 7


 343              	.LVL48:
 344              	.LBE77:
 345 01aa 94E7     		b	.L1
 346              	.LVL49:
 347              	.L256:
 348              	.LBB78:
 349              		.loc 1 101 0
 350 01ac 5548     		ldr	r0, .L281+100
 351 01ae 564F     		ldr	r7, .L281+104
 352 01b0 564E     		ldr	r6, .L281+108
 353              		.loc 1 109 0
 354 01b2 9FED578A 		vldr.32	s16, .L281+112
 355              		.loc 1 105 0
 356 01b6 574D     		ldr	r5, .L281+116
 357              		.loc 1 101 0
 358 01b8 FFF7FEFF 		bl	commands_printf
 359              	.LVL50:
 360              		.loc 1 102 0
 361 01bc 5648     		ldr	r0, .L281+120
 362 01be FFF7FEFF 		bl	commands_printf
 363              	.LVL51:
 364              		.loc 1 103 0
 365 01c2 FFF7FEFF 		bl	chRegFirstThread
 366              	.LVL52:
 367 01c6 0446     		mov	r4, r0
 368              	.LVL53:
 369              	.L13:
 370              		.loc 1 108 0 discriminator 1
 371 01c8 D4F820A0 		ldr	r10, [r4, #32]
 372              		.loc 1 109 0 discriminator 1
 373 01cc D4ED087A 		vldr.32	s15, [r4, #32]	@ int
 374              	.LBB79:
 375              	.LBB80:
 376              		.file 2 "ChibiOS_3.0.2/os/rt/include/chvt.h"
 377              		.loc 2 231 0 discriminator 1
 378 01d0 97ED0A7A 		vldr.32	s14, [r7, #40]	@ int
 379              	.LBE80:
 380              	.LBE79:
 381              		.loc 1 109 0 discriminator 1
 382 01d4 F8EE677A 		vcvt.f32.u32	s15, s15
 383 01d8 B8EE477A 		vcvt.f32.u32	s14, s14
 384 01dc 67EE887A 		vmul.f32	s15, s15, s16
 385              		.loc 1 105 0 discriminator 1
 386 01e0 D4E90298 		ldrd	r9, r8, [r4, #8]
 387 01e4 C7EE877A 		vdiv.f32	s15, s15, s14
 388 01e8 17EE900A 		vmov	r0, s15
 389              	.LVL54:
 390 01ec FFF7FEFF 		bl	__aeabi_f2d
 391              	.LVL55:
 392 01f0 CDE90401 		strd	r0, [sp, #16]
 393 01f4 CDF80CA0 		str	r10, [sp, #12]
 394 01f8 A369     		ldr	r3, [r4, #24]
 395 01fa 0293     		str	r3, [sp, #8]
 396              		.loc 1 108 0 discriminator 1
 397 01fc 237F     		ldrb	r3, [r4, #28]	@ zero_extendqisi2
 398              		.loc 1 105 0 discriminator 1
 399 01fe 56F82330 		ldr	r3, [r6, r3, lsl #2]
ARM GAS  /tmp/ccU5UnMV.s 			page 8


 400 0202 0193     		str	r3, [sp, #4]
 401              		.loc 1 107 0 discriminator 1
 402 0204 A17F     		ldrb	r1, [r4, #30]	@ zero_extendqisi2
 403 0206 0139     		subs	r1, r1, #1
 404              		.loc 1 105 0 discriminator 1
 405 0208 4B46     		mov	r3, r9
 406 020a 4246     		mov	r2, r8
 407 020c 0091     		str	r1, [sp]
 408 020e 2846     		mov	r0, r5
 409 0210 2146     		mov	r1, r4
 410 0212 FFF7FEFF 		bl	commands_printf
 411              	.LVL56:
 412              		.loc 1 110 0 discriminator 1
 413 0216 2046     		mov	r0, r4
 414 0218 FFF7FEFF 		bl	chRegNextThread
 415              	.LVL57:
 416              		.loc 1 111 0 discriminator 1
 417 021c 0446     		mov	r4, r0
 418 021e 0028     		cmp	r0, #0
 419 0220 D2D1     		bne	.L13
 420              		.loc 1 112 0
 421 0222 3E48     		ldr	r0, .L281+124
 422              	.LVL58:
 423 0224 FFF7FEFF 		bl	commands_printf
 424              	.LVL59:
 425              	.LBE78:
 426 0228 55E7     		b	.L1
 427              	.LVL60:
 428              	.L15:
 429              		.loc 1 154 0
 430 022a 3D49     		ldr	r1, .L281+128
 431 022c 2846     		mov	r0, r5
 432 022e FFF7FEFF 		bl	strcmp
 433              	.LVL61:
 434 0232 0028     		cmp	r0, #0
 435 0234 00F00481 		beq	.L258
 436              		.loc 1 156 0
 437 0238 3A49     		ldr	r1, .L281+132
 438 023a 2846     		mov	r0, r5
 439 023c FFF7FEFF 		bl	strcmp
 440              	.LVL62:
 441 0240 0028     		cmp	r0, #0
 442 0242 00F00981 		beq	.L259
 443              		.loc 1 158 0
 444 0246 3849     		ldr	r1, .L281+136
 445 0248 2846     		mov	r0, r5
 446 024a FFF7FEFF 		bl	strcmp
 447              	.LVL63:
 448 024e 0028     		cmp	r0, #0
 449 0250 00F00981 		beq	.L260
 450              		.loc 1 183 0
 451 0254 3549     		ldr	r1, .L281+140
 452 0256 2846     		mov	r0, r5
 453 0258 FFF7FEFF 		bl	strcmp
 454              	.LVL64:
 455 025c 0028     		cmp	r0, #0
 456 025e 00F04C81 		beq	.L261
ARM GAS  /tmp/ccU5UnMV.s 			page 9


 457              		.loc 1 188 0
 458 0262 3349     		ldr	r1, .L281+144
 459 0264 2846     		mov	r0, r5
 460 0266 FFF7FEFF 		bl	strcmp
 461              	.LVL65:
 462 026a 0028     		cmp	r0, #0
 463 026c 40F0A381 		bne	.L24
 464              		.loc 1 190 0
 465 0270 042C     		cmp	r4, #4
 466 0272 00F05A81 		beq	.L262
 467              	.L25:
 468              		.loc 1 232 0
 469 0276 2F48     		ldr	r0, .L281+148
 470 0278 FFF7FEFF 		bl	commands_printf
 471              	.LVL66:
 472 027c 2BE7     		b	.L1
 473              	.L16:
 474              		.loc 1 119 0
 475 027e 2E48     		ldr	r0, .L281+152
 476 0280 FFF7FEFF 		bl	commands_printf
 477              	.LVL67:
 478              	.LBB81:
 479              		.loc 1 120 0
 480 0284 D8F80030 		ldr	r3, [r8]
 481 0288 002B     		cmp	r3, #0
 482 028a 7FF724AF 		ble	.L1
 483 028e 2B4F     		ldr	r7, .L281+156
 484              		.loc 1 121 0
 485 0290 DFF8B0B0 		ldr	fp, .L281+164
 486              		.loc 1 122 0
 487 0294 DFF8B0A0 		ldr	r10, .L281+168
 488              		.loc 1 123 0
 489 0298 DFF8B090 		ldr	r9, .L281+172
 490 029c 60E0     		b	.L17
 491              	.L282:
 492 029e 00BF     		.align	2
 493              	.L281:
 494 02a0 18000000 		.word	.LC4
 495 02a4 00000000 		.word	.LANCHOR0
 496 02a8 00000000 		.word	.LANCHOR1
 497 02ac 34000000 		.word	.LC6
 498 02b0 44000000 		.word	.LC8
 499 02b4 5C000000 		.word	.LC10
 500 02b8 E0000000 		.word	.LC14
 501 02bc 04010000 		.word	.LC16
 502 02c0 5C010000 		.word	.LC20
 503 02c4 18020000 		.word	.LC25
 504 02c8 24020000 		.word	.LC27
 505 02cc 2C020000 		.word	.LC28
 506 02d0 1C000000 		.word	.LC5
 507 02d4 3C000000 		.word	.LC7
 508 02d8 00007A44 		.word	1148846080
 509 02dc 70000000 		.word	.LC11
 510 02e0 90000000 		.word	.LC12
 511 02e4 B8000000 		.word	.LC13
 512 02e8 00000000 		.word	0
 513 02ec 4C000000 		.word	.LC9
ARM GAS  /tmp/ccU5UnMV.s 			page 10


 514 02f0 E4000000 		.word	.LC15
 515 02f4 20020000 		.word	.LC26
 516 02f8 08010000 		.word	.LC17
 517 02fc 24010000 		.word	.LC18
 518 0300 3C010000 		.word	.LC19
 519 0304 64010000 		.word	.LC21
 520 0308 00000000 		.word	ch
 521 030c 00000000 		.word	.LANCHOR2
 522 0310 0000C842 		.word	1120403456
 523 0314 E4010000 		.word	.LC23
 524 0318 A4010000 		.word	.LC22
 525 031c 14020000 		.word	.LC24
 526 0320 EC030000 		.word	.LC45
 527 0324 0C040000 		.word	.LC47
 528 0328 2C040000 		.word	.LC49
 529 032c E4040000 		.word	.LC61
 530 0330 04050000 		.word	.LC63
 531 0334 5C060000 		.word	.LC74
 532 0338 50020000 		.word	.LC29
 533 033c 00000000 		.word	.LANCHOR4
 534 0340 00000000 		.word	.LANCHOR3
 535 0344 84020000 		.word	.LC30
 536 0348 9C020000 		.word	.LC31
 537 034c B4020000 		.word	.LC32
 538              	.LVL68:
 539              	.L18:
 540              		.loc 1 151 0 discriminator 2
 541 0350 BC48     		ldr	r0, .L283
 542 0352 FFF7FEFF 		bl	commands_printf
 543              	.LVL69:
 544              		.loc 1 120 0 discriminator 2
 545 0356 D8F80030 		ldr	r3, [r8]
 546 035a B342     		cmp	r3, r6
 547 035c 7FF7BBAE 		ble	.L1
 548              	.LVL70:
 549              	.L17:
 550              		.loc 1 121 0
 551 0360 C6EB0615 		rsb	r5, r6, r6, lsl #4
 552 0364 07EB8504 		add	r4, r7, r5, lsl #2
 553 0368 17F82500 		ldrb	r0, [r7, r5, lsl #2]	@ zero_extendqisi2
 554 036c FFF7FEFF 		bl	mc_interface_fault_to_string
 555              	.LVL71:
 556 0370 0146     		mov	r1, r0
 557 0372 5846     		mov	r0, fp
 558 0374 FFF7FEFF 		bl	commands_printf
 559              	.LVL72:
 560              		.loc 1 122 0
 561 0378 6068     		ldr	r0, [r4, #4]	@ float
 562 037a FFF7FEFF 		bl	__aeabi_f2d
 563              	.LVL73:
 564 037e 0246     		mov	r2, r0
 565 0380 0B46     		mov	r3, r1
 566 0382 5046     		mov	r0, r10
 567 0384 FFF7FEFF 		bl	commands_printf
 568              	.LVL74:
 569              		.loc 1 123 0
 570 0388 A068     		ldr	r0, [r4, #8]	@ float
ARM GAS  /tmp/ccU5UnMV.s 			page 11


 571 038a FFF7FEFF 		bl	__aeabi_f2d
 572              	.LVL75:
 573 038e 0246     		mov	r2, r0
 574 0390 0B46     		mov	r3, r1
 575 0392 4846     		mov	r0, r9
 576 0394 FFF7FEFF 		bl	commands_printf
 577              	.LVL76:
 578              		.loc 1 124 0
 579 0398 E068     		ldr	r0, [r4, #12]	@ float
 580 039a FFF7FEFF 		bl	__aeabi_f2d
 581              	.LVL77:
 582 039e 0246     		mov	r2, r0
 583 03a0 0B46     		mov	r3, r1
 584 03a2 A948     		ldr	r0, .L283+4
 585 03a4 FFF7FEFF 		bl	commands_printf
 586              	.LVL78:
 587              		.loc 1 128 0
 588 03a8 6069     		ldr	r0, [r4, #20]	@ float
 589 03aa FFF7FEFF 		bl	__aeabi_f2d
 590              	.LVL79:
 591 03ae 0246     		mov	r2, r0
 592 03b0 0B46     		mov	r3, r1
 593 03b2 A648     		ldr	r0, .L283+8
 594 03b4 FFF7FEFF 		bl	commands_printf
 595              	.LVL80:
 596              		.loc 1 129 0
 597 03b8 A069     		ldr	r0, [r4, #24]	@ float
 598 03ba FFF7FEFF 		bl	__aeabi_f2d
 599              	.LVL81:
 600 03be 0246     		mov	r2, r0
 601 03c0 0B46     		mov	r3, r1
 602 03c2 A348     		ldr	r0, .L283+12
 603 03c4 FFF7FEFF 		bl	commands_printf
 604              	.LVL82:
 605              		.loc 1 130 0
 606 03c8 E169     		ldr	r1, [r4, #28]
 607 03ca A248     		ldr	r0, .L283+16
 608 03cc FFF7FEFF 		bl	commands_printf
 609              	.LVL83:
 610              		.loc 1 131 0
 611 03d0 216A     		ldr	r1, [r4, #32]
 612 03d2 A148     		ldr	r0, .L283+20
 613 03d4 FFF7FEFF 		bl	commands_printf
 614              	.LVL84:
 615              		.loc 1 132 0
 616 03d8 D4ED0B7A 		vldr.32	s15, [r4, #44]	@ int
 617 03dc 94ED057A 		vldr.32	s14, [r4, #20]
 618 03e0 9E48     		ldr	r0, .L283+24
 619 03e2 F8EEE77A 		vcvt.f32.s32	s15, s15
 620              		.loc 1 120 0
 621 03e6 0136     		adds	r6, r6, #1
 622              	.LVL85:
 623              		.loc 1 132 0
 624 03e8 67EE877A 		vmul.f32	s15, s15, s14
 625 03ec FDEEE77A 		vcvt.s32.f32	s15, s15
 626 03f0 17EE901A 		vmov	r1, s15	@ int
 627 03f4 FFF7FEFF 		bl	commands_printf
ARM GAS  /tmp/ccU5UnMV.s 			page 12


 628              	.LVL86:
 629              		.loc 1 133 0
 630 03f8 616A     		ldr	r1, [r4, #36]
 631 03fa 9948     		ldr	r0, .L283+28
 632 03fc FFF7FEFF 		bl	commands_printf
 633              	.LVL87:
 634              		.loc 1 134 0
 635 0400 A16A     		ldr	r1, [r4, #40]
 636 0402 9848     		ldr	r0, .L283+32
 637 0404 FFF7FEFF 		bl	commands_printf
 638              	.LVL88:
 639              		.loc 1 135 0
 640 0408 E16A     		ldr	r1, [r4, #44]
 641 040a 9748     		ldr	r0, .L283+36
 642 040c FFF7FEFF 		bl	commands_printf
 643              	.LVL89:
 644              		.loc 1 136 0
 645 0410 216B     		ldr	r1, [r4, #48]
 646 0412 9648     		ldr	r0, .L283+40
 647 0414 FFF7FEFF 		bl	commands_printf
 648              	.LVL90:
 649              		.loc 1 137 0
 650 0418 606B     		ldr	r0, [r4, #52]	@ float
 651 041a FFF7FEFF 		bl	__aeabi_f2d
 652              	.LVL91:
 653 041e 0246     		mov	r2, r0
 654 0420 0B46     		mov	r3, r1
 655 0422 9348     		ldr	r0, .L283+44
 656 0424 FFF7FEFF 		bl	commands_printf
 657              	.LVL92:
 658              		.loc 1 139 0
 659 0428 17F82530 		ldrb	r3, [r7, r5, lsl #2]	@ zero_extendqisi2
 660 042c 032B     		cmp	r3, #3
 661 042e 8FD1     		bne	.L18
 662              		.loc 1 140 0
 663 0430 A06B     		ldr	r0, [r4, #56]
 664 0432 FFF7FEFF 		bl	drv8301_faults_to_string
 665              	.LVL93:
 666 0436 0146     		mov	r1, r0
 667 0438 8E48     		ldr	r0, .L283+48
 668 043a FFF7FEFF 		bl	commands_printf
 669              	.LVL94:
 670 043e 87E7     		b	.L18
 671              	.LVL95:
 672              	.L258:
 673              	.LBE81:
 674              		.loc 1 155 0
 675 0440 FFF7FEFF 		bl	mc_interface_get_rpm
 676              	.LVL96:
 677 0444 10EE100A 		vmov	r0, s0
 678 0448 FFF7FEFF 		bl	__aeabi_f2d
 679              	.LVL97:
 680 044c 0246     		mov	r2, r0
 681 044e 0B46     		mov	r3, r1
 682 0450 8948     		ldr	r0, .L283+52
 683 0452 FFF7FEFF 		bl	commands_printf
 684              	.LVL98:
ARM GAS  /tmp/ccU5UnMV.s 			page 13


 685 0456 3EE6     		b	.L1
 686              	.L259:
 687              		.loc 1 157 0
 688 0458 FFF7FEFF 		bl	mc_interface_get_tachometer_value
 689              	.LVL99:
 690 045c 0146     		mov	r1, r0
 691 045e 8748     		ldr	r0, .L283+56
 692 0460 FFF7FEFF 		bl	commands_printf
 693              	.LVL100:
 694 0464 37E6     		b	.L1
 695              	.L260:
 696              	.LVL101:
 697              	.LBB82:
 698              	.LBB83:
 699              	.LBB84:
 700              	.LBB85:
 701              	.LBB86:
 702              		.file 3 "ChibiOS_3.0.2/os/ext/CMSIS/include/core_cmFunc.h"
 703              		.loc 3 546 0
 704 0466 2023     		movs	r3, #32
 705              		.syntax unified
 706              	@ 546 "ChibiOS_3.0.2/os/ext/CMSIS/include/core_cmFunc.h" 1
 707 0468 83F31188 		MSR basepri, r3
 708              	@ 0 "" 2
 709              	.LVL102:
 710              		.thumb
 711              		.syntax unified
 712              	.LBE86:
 713              	.LBE85:
 714              	.LBE84:
 715              	.LBE83:
 716              		.loc 1 160 0
 717 046c 844B     		ldr	r3, .L283+60
 718              		.loc 1 161 0
 719 046e 854A     		ldr	r2, .L283+64
 720              		.loc 1 160 0
 721 0470 596A     		ldr	r1, [r3, #36]
 722 0472 0E91     		str	r1, [sp, #56]
 723              		.loc 1 161 0
 724 0474 516A     		ldr	r1, [r2, #36]
 725 0476 0F91     		str	r1, [sp, #60]
 726              		.loc 1 162 0
 727 0478 1968     		ldr	r1, [r3]
 728 047a C1F30011 		ubfx	r1, r1, #4, #1
 729 047e 1091     		str	r1, [sp, #64]
 730              		.loc 1 163 0
 731 0480 1168     		ldr	r1, [r2]
 732 0482 C1F30011 		ubfx	r1, r1, #4, #1
 733 0486 1191     		str	r1, [sp, #68]
 734              	.LVL103:
 735              	.LBB87:
 736              	.LBB88:
 737              	.LBB89:
 738              	.LBB90:
 739              	.LBB91:
 740              		.loc 3 546 0
 741              		.syntax unified
ARM GAS  /tmp/ccU5UnMV.s 			page 14


 742              	@ 546 "ChibiOS_3.0.2/os/ext/CMSIS/include/core_cmFunc.h" 1
 743 0488 80F31188 		MSR basepri, r0
 744              	@ 0 "" 2
 745              	.LVL104:
 746              		.thumb
 747              		.syntax unified
 748              	.LBE91:
 749              	.LBE90:
 750              	.LBE89:
 751              	.LBE88:
 752              	.LBE87:
 753              		.loc 1 172 0
 754 048c 7E48     		ldr	r0, .L283+68
 755              		.loc 1 165 0
 756 048e D3F834A0 		ldr	r10, [r3, #52]
 757              	.LVL105:
 758              		.loc 1 166 0
 759 0492 D3F83890 		ldr	r9, [r3, #56]
 760              	.LVL106:
 761              		.loc 1 167 0
 762 0496 D3F83C80 		ldr	r8, [r3, #60]
 763              	.LVL107:
 764              		.loc 1 168 0
 765 049a DF6A     		ldr	r7, [r3, #44]
 766              	.LVL108:
 767              		.loc 1 169 0
 768 049c 566B     		ldr	r6, [r2, #52]
 769              	.LVL109:
 770              		.loc 1 170 0
 771 049e 1D6C     		ldr	r5, [r3, #64]
 772              	.LVL110:
 773              		.loc 1 171 0
 774 04a0 946B     		ldr	r4, [r2, #56]
 775              	.LVL111:
 776              		.loc 1 172 0
 777 04a2 0E99     		ldr	r1, [sp, #56]
 778 04a4 FFF7FEFF 		bl	commands_printf
 779              	.LVL112:
 780              		.loc 1 173 0
 781 04a8 0F99     		ldr	r1, [sp, #60]
 782 04aa 7848     		ldr	r0, .L283+72
 783 04ac FFF7FEFF 		bl	commands_printf
 784              	.LVL113:
 785              		.loc 1 174 0
 786 04b0 5146     		mov	r1, r10
 787 04b2 7748     		ldr	r0, .L283+76
 788 04b4 FFF7FEFF 		bl	commands_printf
 789              	.LVL114:
 790              		.loc 1 175 0
 791 04b8 4946     		mov	r1, r9
 792 04ba 7648     		ldr	r0, .L283+80
 793 04bc FFF7FEFF 		bl	commands_printf
 794              	.LVL115:
 795              		.loc 1 176 0
 796 04c0 4146     		mov	r1, r8
 797 04c2 7548     		ldr	r0, .L283+84
 798 04c4 FFF7FEFF 		bl	commands_printf
ARM GAS  /tmp/ccU5UnMV.s 			page 15


 799              	.LVL116:
 800              		.loc 1 177 0
 801 04c8 3946     		mov	r1, r7
 802 04ca 7448     		ldr	r0, .L283+88
 803 04cc FFF7FEFF 		bl	commands_printf
 804              	.LVL117:
 805              		.loc 1 178 0
 806 04d0 1099     		ldr	r1, [sp, #64]
 807 04d2 7348     		ldr	r0, .L283+92
 808 04d4 FFF7FEFF 		bl	commands_printf
 809              	.LVL118:
 810              		.loc 1 179 0
 811 04d8 1199     		ldr	r1, [sp, #68]
 812 04da 7248     		ldr	r0, .L283+96
 813 04dc FFF7FEFF 		bl	commands_printf
 814              	.LVL119:
 815              		.loc 1 180 0
 816 04e0 3146     		mov	r1, r6
 817 04e2 7148     		ldr	r0, .L283+100
 818 04e4 FFF7FEFF 		bl	commands_printf
 819              	.LVL120:
 820              		.loc 1 181 0
 821 04e8 2946     		mov	r1, r5
 822 04ea 7048     		ldr	r0, .L283+104
 823 04ec FFF7FEFF 		bl	commands_printf
 824              	.LVL121:
 825              		.loc 1 182 0
 826 04f0 2146     		mov	r1, r4
 827 04f2 6F48     		ldr	r0, .L283+108
 828 04f4 FFF7FEFF 		bl	commands_printf
 829              	.LVL122:
 830              	.LBE82:
 831 04f8 EDE5     		b	.L1
 832              	.LVL123:
 833              	.L261:
 834              		.loc 1 184 0
 835 04fa 6E4B     		ldr	r3, .L283+112
 836 04fc DFED6E6A 		vldr.32	s13, .L283+116
 837 0500 DB8A     		ldrh	r3, [r3, #22]
 838 0502 9FED6E7A 		vldr.32	s14, .L283+120
 839 0506 07EE903A 		vmov	s15, r3	@ int
 840 050a F8EE677A 		vcvt.f32.u32	s15, s15
 841 050e 67EEA67A 		vmul.f32	s15, s15, s13
 842 0512 67EE877A 		vmul.f32	s15, s15, s14
 843 0516 17EE900A 		vmov	r0, s15
 844 051a FFF7FEFF 		bl	__aeabi_f2d
 845              	.LVL124:
 846 051e 0246     		mov	r2, r0
 847 0520 0B46     		mov	r3, r1
 848 0522 6748     		ldr	r0, .L283+124
 849 0524 FFF7FEFF 		bl	commands_printf
 850              	.LVL125:
 851 0528 D5E5     		b	.L1
 852              	.L262:
 853              	.LBB92:
 854              		.loc 1 191 0
 855 052a 664B     		ldr	r3, .L283+128
ARM GAS  /tmp/ccU5UnMV.s 			page 16


 856              		.loc 1 194 0
 857 052c 6649     		ldr	r1, .L283+132
 858 052e 1998     		ldr	r0, [sp, #100]
 859              		.loc 1 191 0
 860 0530 0B93     		str	r3, [sp, #44]	@ float
 861              		.loc 1 194 0
 862 0532 0BAA     		add	r2, sp, #44
 863              		.loc 1 192 0
 864 0534 0C93     		str	r3, [sp, #48]	@ float
 865              		.loc 1 193 0
 866 0536 0D93     		str	r3, [sp, #52]	@ float
 867              		.loc 1 194 0
 868 0538 FFF7FEFF 		bl	sscanf
 869              	.LVL126:
 870              		.loc 1 195 0
 871 053c 0CAA     		add	r2, sp, #48
 872 053e 6249     		ldr	r1, .L283+132
 873 0540 1A98     		ldr	r0, [sp, #104]
 874 0542 FFF7FEFF 		bl	sscanf
 875              	.LVL127:
 876              		.loc 1 196 0
 877 0546 0DAA     		add	r2, sp, #52
 878 0548 1B98     		ldr	r0, [sp, #108]
 879 054a 5F49     		ldr	r1, .L283+132
 880 054c FFF7FEFF 		bl	sscanf
 881              	.LVL128:
 882              		.loc 1 198 0
 883 0550 9DED0B0A 		vldr.32	s0, [sp, #44]
 884 0554 B5EEC00A 		vcmpe.f32	s0, #0
 885 0558 F1EE10FA 		vmrs	APSR_nzcv, FPSCR
 886 055c 27DD     		ble	.L227
 887              		.loc 1 198 0 is_stmt 0 discriminator 1
 888 055e 5B4B     		ldr	r3, .L283+136
 889 0560 D3ED017A 		vldr.32	s15, [r3, #4]
 890 0564 B4EEE70A 		vcmpe.f32	s0, s15
 891 0568 F1EE10FA 		vmrs	APSR_nzcv, FPSCR
 892 056c 1FD5     		bpl	.L227
 893              		.loc 1 199 0 is_stmt 1 discriminator 2
 894 056e DDED0C0A 		vldr.32	s1, [sp, #48]
 895              		.loc 1 198 0 discriminator 2
 896 0572 F2EE047A 		vmov.f32	s15, #1.0e+1
 897 0576 F4EEE70A 		vcmpe.f32	s1, s15
 898 057a F1EE10FA 		vmrs	APSR_nzcv, FPSCR
 899 057e 16DD     		ble	.L227
 900              		.loc 1 199 0
 901 0580 DFED537A 		vldr.32	s15, .L283+140
 902 0584 F4EEE70A 		vcmpe.f32	s1, s15
 903 0588 F1EE10FA 		vmrs	APSR_nzcv, FPSCR
 904 058c 0FD5     		bpl	.L227
 905              		.loc 1 200 0 discriminator 1
 906 058e 9DED0D1A 		vldr.32	s2, [sp, #52]
 907              		.loc 1 199 0 discriminator 1
 908 0592 DFED507A 		vldr.32	s15, .L283+144
 909 0596 B4EEE71A 		vcmpe.f32	s2, s15
 910 059a F1EE10FA 		vmrs	APSR_nzcv, FPSCR
 911 059e 06DD     		ble	.L227
 912              		.loc 1 200 0
ARM GAS  /tmp/ccU5UnMV.s 			page 17


 913 05a0 DFED4D7A 		vldr.32	s15, .L283+148
 914 05a4 B4EEE71A 		vcmpe.f32	s2, s15
 915 05a8 F1EE10FA 		vmrs	APSR_nzcv, FPSCR
 916 05ac 20D4     		bmi	.L263
 917              	.LVL129:
 918              	.L227:
 919              	.LBE92:
 920              	.LBB95:
 921              		.loc 1 653 0
 922 05ae 4B48     		ldr	r0, .L283+152
 923 05b0 FFF7FEFF 		bl	commands_printf
 924              	.LVL130:
 925 05b4 8FE5     		b	.L1
 926              	.LVL131:
 927              	.L24:
 928              	.LBE95:
 929              		.loc 1 234 0
 930 05b6 4A49     		ldr	r1, .L283+156
 931 05b8 2846     		mov	r0, r5
 932 05ba FFF7FEFF 		bl	strcmp
 933              	.LVL132:
 934 05be 0028     		cmp	r0, #0
 935 05c0 00F0CA81 		beq	.L264
 936              		.loc 1 239 0
 937 05c4 4749     		ldr	r1, .L283+160
 938 05c6 2846     		mov	r0, r5
 939 05c8 FFF7FEFF 		bl	strcmp
 940              	.LVL133:
 941 05cc 0646     		mov	r6, r0
 942 05ce 0028     		cmp	r0, #0
 943 05d0 00F06881 		beq	.L265
 944              		.loc 1 253 0
 945 05d4 4449     		ldr	r1, .L283+164
 946 05d6 2846     		mov	r0, r5
 947 05d8 FFF7FEFF 		bl	strcmp
 948              	.LVL134:
 949 05dc 0028     		cmp	r0, #0
 950 05de 40F0DE80 		bne	.L44
 951              		.loc 1 254 0
 952 05e2 022C     		cmp	r4, #2
 953 05e4 00F08A80 		beq	.L266
 954              	.L45:
 955              		.loc 1 282 0
 956 05e8 4048     		ldr	r0, .L283+168
 957 05ea FFF7FEFF 		bl	commands_printf
 958              	.LVL135:
 959 05ee 72E5     		b	.L1
 960              	.L263:
 961              	.LBB99:
 962              	.LBB93:
 963              		.loc 1 206 0
 964 05f0 10AB     		add	r3, sp, #64
 965 05f2 11AA     		add	r2, sp, #68
 966 05f4 0FA9     		add	r1, sp, #60
 967 05f6 0EA8     		add	r0, sp, #56
 968 05f8 FFF7FEFF 		bl	conf_general_detect_motor_param
 969              	.LVL136:
ARM GAS  /tmp/ccU5UnMV.s 			page 18


 970 05fc 0028     		cmp	r0, #0
 971 05fe 00F0FA81 		beq	.L33
 972              		.loc 1 207 0
 973 0602 0E98     		ldr	r0, [sp, #56]	@ float
 974 0604 FFF7FEFF 		bl	__aeabi_f2d
 975              	.LVL137:
 976 0608 0246     		mov	r2, r0
 977 060a 0B46     		mov	r3, r1
 978 060c 3848     		ldr	r0, .L283+172
 979 060e FFF7FEFF 		bl	commands_printf
 980              	.LVL138:
 981              		.loc 1 208 0
 982 0612 0F98     		ldr	r0, [sp, #60]	@ float
 983 0614 FFF7FEFF 		bl	__aeabi_f2d
 984              	.LVL139:
 985 0618 0246     		mov	r2, r0
 986 061a 0B46     		mov	r3, r1
 987 061c 3548     		ldr	r0, .L283+176
 988 061e FFF7FEFF 		bl	commands_printf
 989              	.LVL140:
 990              		.loc 1 210 0
 991 0622 109B     		ldr	r3, [sp, #64]
 992 0624 002B     		cmp	r3, #0
 993 0626 00F0E481 		beq	.L267
 994              		.loc 1 215 0
 995 062a 591C     		adds	r1, r3, #1
 996 062c 00F0C481 		beq	.L268
 997              		.loc 1 220 0
 998 0630 9A1C     		adds	r2, r3, #2
 999 0632 00F0BC81 		beq	.L269
 1000              		.loc 1 222 0
 1001 0636 0333     		adds	r3, r3, #3
 1002 0638 7FF44DAD 		bne	.L1
 1003              		.loc 1 223 0
 1004 063c 2E48     		ldr	r0, .L283+180
 1005 063e FFF7FEFF 		bl	commands_printf
 1006              	.LVL141:
 1007 0642 48E5     		b	.L1
 1008              	.L284:
 1009              		.align	2
 1010              	.L283:
 1011 0644 18000000 		.word	.LC4
 1012 0648 CC020000 		.word	.LC33
 1013 064c E4020000 		.word	.LC34
 1014 0650 FC020000 		.word	.LC35
 1015 0654 14030000 		.word	.LC36
 1016 0658 2C030000 		.word	.LC37
 1017 065c 44030000 		.word	.LC38
 1018 0660 5C030000 		.word	.LC39
 1019 0664 74030000 		.word	.LC40
 1020 0668 8C030000 		.word	.LC41
 1021 066c A4030000 		.word	.LC42
 1022 0670 BC030000 		.word	.LC43
 1023 0674 D4030000 		.word	.LC44
 1024 0678 F0030000 		.word	.LC46
 1025 067c 14040000 		.word	.LC48
 1026 0680 00000140 		.word	1073807360
ARM GAS  /tmp/ccU5UnMV.s 			page 19


 1027 0684 00040140 		.word	1073808384
 1028 0688 30040000 		.word	.LC50
 1029 068c 40040000 		.word	.LC51
 1030 0690 50040000 		.word	.LC52
 1031 0694 60040000 		.word	.LC53
 1032 0698 70040000 		.word	.LC54
 1033 069c 80040000 		.word	.LC55
 1034 06a0 88040000 		.word	.LC56
 1035 06a4 94040000 		.word	.LC57
 1036 06a8 A0040000 		.word	.LC58
 1037 06ac B4040000 		.word	.LC59
 1038 06b0 CC040000 		.word	.LC60
 1039 06b4 00000000 		.word	ADC_Value
 1040 06b8 6740533A 		.word	978534503
 1041 06bc 74D19541 		.word	1100337524
 1042 06c0 EC040000 		.word	.LC62
 1043 06c4 000080BF 		.word	-1082130432
 1044 06c8 14050000 		.word	.LC64
 1045 06cc 00000000 		.word	.LANCHOR0
 1046 06d0 00803B45 		.word	1161527296
 1047 06d4 0AD7A33C 		.word	1017370378
 1048 06d8 CDCC4C3F 		.word	1061997773
 1049 06dc 44060000 		.word	.LC73
 1050 06e0 84060000 		.word	.LC75
 1051 06e4 E0060000 		.word	.LC79
 1052 06e8 BC070000 		.word	.LC87
 1053 06ec 18080000 		.word	.LC92
 1054 06f0 18050000 		.word	.LC65
 1055 06f4 38050000 		.word	.LC66
 1056 06f8 DC050000 		.word	.LC71
 1057              	.L266:
 1058              	.LBE93:
 1059              	.LBE99:
 1060              	.LBB100:
 1061              		.loc 1 255 0
 1062 06fc 0FAE     		add	r6, sp, #60
 1063 06fe C04B     		ldr	r3, .L285
 1064              		.loc 1 256 0
 1065 0700 1998     		ldr	r0, [sp, #100]
 1066 0702 C049     		ldr	r1, .L285+4
 1067              		.loc 1 255 0
 1068 0704 0F93     		str	r3, [sp, #60]	@ float
 1069              		.loc 1 256 0
 1070 0706 3246     		mov	r2, r6
 1071 0708 FFF7FEFF 		bl	sscanf
 1072              	.LVL142:
 1073              		.loc 1 258 0
 1074 070c D6ED007A 		vldr.32	s15, [r6]
 1075 0710 F5EEC07A 		vcmpe.f32	s15, #0
 1076 0714 F1EE10FA 		vmrs	APSR_nzcv, FPSCR
 1077 0718 7FF749AF 		ble	.L227
 1078              		.loc 1 258 0 is_stmt 0 discriminator 1
 1079 071c BA4C     		ldr	r4, .L285+8
 1080              	.LVL143:
 1081 071e 94ED017A 		vldr.32	s14, [r4, #4]
 1082 0722 F4EEC77A 		vcmpe.f32	s15, s14
 1083 0726 F1EE10FA 		vmrs	APSR_nzcv, FPSCR
ARM GAS  /tmp/ccU5UnMV.s 			page 20


 1084 072a 3FF640AF 		bhi	.L227
 1085              		.loc 1 259 0 is_stmt 1
 1086 072e FFF7FEFF 		bl	encoder_is_configured
 1087              	.LVL144:
 1088 0732 0028     		cmp	r0, #0
 1089 0734 6DD0     		beq	.L49
 1090              	.LBB101:
 1091              		.loc 1 261 0
 1092 0736 0223     		movs	r3, #2
 1093              		.loc 1 262 0
 1094 0738 2046     		mov	r0, r4
 1095              		.loc 1 260 0
 1096 073a A778     		ldrb	r7, [r4, #2]	@ zero_extendqisi2
 1097              	.LVL145:
 1098              		.loc 1 261 0
 1099 073c A370     		strb	r3, [r4, #2]
 1100              		.loc 1 264 0
 1101 073e 0025     		movs	r5, #0
 1102              		.loc 1 262 0
 1103 0740 FFF7FEFF 		bl	mc_interface_set_configuration
 1104              	.LVL146:
 1105              		.loc 1 267 0
 1106 0744 96ED000A 		vldr.32	s0, [r6]
 1107              		.loc 1 264 0
 1108 0748 1095     		str	r5, [sp, #64]	@ float
 1109              		.loc 1 267 0
 1110 074a 11AA     		add	r2, sp, #68
 1111 074c 0EAB     		add	r3, sp, #56
 1112 074e 10A9     		add	r1, sp, #64
 1113              		.loc 1 266 0
 1114 0750 0026     		movs	r6, #0
 1115              		.loc 1 267 0
 1116 0752 0120     		movs	r0, #1
 1117              		.loc 1 265 0
 1118 0754 1195     		str	r5, [sp, #68]	@ float
 1119              		.loc 1 266 0
 1120 0756 8DF83860 		strb	r6, [sp, #56]
 1121              		.loc 1 267 0
 1122 075a FFF7FEFF 		bl	mcpwm_foc_encoder_detect
 1123              	.LVL147:
 1124              		.loc 1 270 0
 1125 075e 2046     		mov	r0, r4
 1126              		.loc 1 269 0
 1127 0760 A770     		strb	r7, [r4, #2]
 1128              		.loc 1 270 0
 1129 0762 FFF7FEFF 		bl	mc_interface_set_configuration
 1130              	.LVL148:
 1131              		.loc 1 272 0
 1132 0766 1098     		ldr	r0, [sp, #64]	@ float
 1133 0768 FFF7FEFF 		bl	__aeabi_f2d
 1134              	.LVL149:
 1135 076c 0246     		mov	r2, r0
 1136 076e 0B46     		mov	r3, r1
 1137 0770 A648     		ldr	r0, .L285+12
 1138 0772 FFF7FEFF 		bl	commands_printf
 1139              	.LVL150:
 1140              		.loc 1 273 0
ARM GAS  /tmp/ccU5UnMV.s 			page 21


 1141 0776 1198     		ldr	r0, [sp, #68]	@ float
 1142 0778 FFF7FEFF 		bl	__aeabi_f2d
 1143              	.LVL151:
 1144 077c 0246     		mov	r2, r0
 1145 077e 0B46     		mov	r3, r1
 1146 0780 A348     		ldr	r0, .L285+16
 1147 0782 FFF7FEFF 		bl	commands_printf
 1148              	.LVL152:
 1149              		.loc 1 274 0
 1150 0786 9DF83810 		ldrb	r1, [sp, #56]	@ zero_extendqisi2
 1151 078a A24A     		ldr	r2, .L285+20
 1152 078c A24B     		ldr	r3, .L285+24
 1153 078e A348     		ldr	r0, .L285+28
 1154 0790 B142     		cmp	r1, r6
 1155 0792 0CBF     		ite	eq
 1156 0794 1146     		moveq	r1, r2
 1157 0796 1946     		movne	r1, r3
 1158 0798 FFF7FEFF 		bl	commands_printf
 1159              	.LVL153:
 1160              	.LBE101:
 1161 079c 9BE4     		b	.L1
 1162              	.LVL154:
 1163              	.L44:
 1164              	.LBE100:
 1165              		.loc 1 284 0
 1166 079e A049     		ldr	r1, .L285+32
 1167 07a0 2846     		mov	r0, r5
 1168 07a2 FFF7FEFF 		bl	strcmp
 1169              	.LVL155:
 1170 07a6 0028     		cmp	r0, #0
 1171 07a8 37D1     		bne	.L52
 1172              		.loc 1 285 0
 1173 07aa 022C     		cmp	r4, #2
 1174 07ac 7FF41CAF 		bne	.L45
 1175              	.LBB102:
 1176              		.loc 1 286 0
 1177 07b0 11AD     		add	r5, sp, #68
 1178 07b2 934B     		ldr	r3, .L285
 1179              		.loc 1 287 0
 1180 07b4 1998     		ldr	r0, [sp, #100]
 1181 07b6 9349     		ldr	r1, .L285+4
 1182              		.loc 1 286 0
 1183 07b8 1193     		str	r3, [sp, #68]	@ float
 1184              		.loc 1 287 0
 1185 07ba 2A46     		mov	r2, r5
 1186 07bc FFF7FEFF 		bl	sscanf
 1187              	.LVL156:
 1188              		.loc 1 289 0
 1189 07c0 D5ED007A 		vldr.32	s15, [r5]
 1190 07c4 F5EEC07A 		vcmpe.f32	s15, #0
 1191 07c8 F1EE10FA 		vmrs	APSR_nzcv, FPSCR
 1192 07cc 7FF7EFAE 		ble	.L227
 1193              		.loc 1 289 0 is_stmt 0 discriminator 1
 1194 07d0 8D4C     		ldr	r4, .L285+8
 1195              	.LVL157:
 1196 07d2 94ED017A 		vldr.32	s14, [r4, #4]
 1197 07d6 F4EEC77A 		vcmpe.f32	s15, s14
ARM GAS  /tmp/ccU5UnMV.s 			page 22


 1198 07da F1EE10FA 		vmrs	APSR_nzcv, FPSCR
 1199 07de 3FF6E6AE 		bhi	.L227
 1200              		.loc 1 290 0 is_stmt 1
 1201 07e2 0223     		movs	r3, #2
 1202              		.loc 1 291 0
 1203 07e4 2046     		mov	r0, r4
 1204              		.loc 1 290 0
 1205 07e6 A370     		strb	r3, [r4, #2]
 1206              		.loc 1 291 0
 1207 07e8 FFF7FEFF 		bl	mc_interface_set_configuration
 1208              	.LVL158:
 1209              		.loc 1 293 0
 1210 07ec 4FF4FA60 		mov	r0, #2000
 1211 07f0 95ED000A 		vldr.32	s0, [r5]
 1212 07f4 FFF7FEFF 		bl	mcpwm_foc_measure_resistance
 1213              	.LVL159:
 1214 07f8 10EE100A 		vmov	r0, s0
 1215 07fc FFF7FEFF 		bl	__aeabi_f2d
 1216              	.LVL160:
 1217 0800 0246     		mov	r2, r0
 1218 0802 0B46     		mov	r3, r1
 1219 0804 8748     		ldr	r0, .L285+36
 1220 0806 FFF7FEFF 		bl	commands_printf
 1221              	.LVL161:
 1222              		.loc 1 295 0
 1223 080a 8748     		ldr	r0, .L285+40
 1224 080c FFF7FEFF 		bl	mc_interface_set_configuration
 1225              	.LVL162:
 1226 0810 61E4     		b	.L1
 1227              	.L49:
 1228              	.LBE102:
 1229              	.LBB103:
 1230              		.loc 1 276 0
 1231 0812 8648     		ldr	r0, .L285+44
 1232 0814 FFF7FEFF 		bl	commands_printf
 1233              	.LVL163:
 1234 0818 5DE4     		b	.L1
 1235              	.LVL164:
 1236              	.L52:
 1237              	.LBE103:
 1238              		.loc 1 302 0
 1239 081a 8549     		ldr	r1, .L285+48
 1240 081c 2846     		mov	r0, r5
 1241 081e FFF7FEFF 		bl	strcmp
 1242              	.LVL165:
 1243 0822 0028     		cmp	r0, #0
 1244 0824 40F0B580 		bne	.L57
 1245              		.loc 1 303 0
 1246 0828 022C     		cmp	r4, #2
 1247 082a 7FF4DDAE 		bne	.L45
 1248              	.LBB104:
 1249              		.loc 1 304 0
 1250 082e 10AC     		add	r4, sp, #64
 1251              	.LVL166:
 1252 0830 734B     		ldr	r3, .L285
 1253              		.loc 1 305 0
 1254 0832 1998     		ldr	r0, [sp, #100]
ARM GAS  /tmp/ccU5UnMV.s 			page 23


 1255 0834 7349     		ldr	r1, .L285+4
 1256              		.loc 1 304 0
 1257 0836 1093     		str	r3, [sp, #64]	@ float
 1258              		.loc 1 305 0
 1259 0838 2246     		mov	r2, r4
 1260 083a FFF7FEFF 		bl	sscanf
 1261              	.LVL167:
 1262              		.loc 1 307 0
 1263 083e D4ED007A 		vldr.32	s15, [r4]
 1264 0842 F5EEC07A 		vcmpe.f32	s15, #0
 1265 0846 F1EE10FA 		vmrs	APSR_nzcv, FPSCR
 1266 084a 7FF7B0AE 		ble	.L227
 1267              		.loc 1 307 0 is_stmt 0 discriminator 1
 1268 084e 9FED797A 		vldr.32	s14, .L285+52
 1269 0852 F4EEC77A 		vcmpe.f32	s15, s14
 1270 0856 F1EE10FA 		vmrs	APSR_nzcv, FPSCR
 1271 085a 7FF5A8AE 		bpl	.L227
 1272              	.LBB105:
 1273              		.loc 1 308 0 is_stmt 1
 1274 085e 6A4B     		ldr	r3, .L285+8
 1275              		.loc 1 309 0
 1276 0860 754A     		ldr	r2, .L285+56
 1277 0862 C3F8B420 		str	r2, [r3, #180]	@ float
 1278              		.loc 1 310 0
 1279 0866 1846     		mov	r0, r3
 1280              		.loc 1 308 0
 1281 0868 0221     		movs	r1, #2
 1282 086a 9970     		strb	r1, [r3, #2]
 1283              		.loc 1 310 0
 1284 086c FFF7FEFF 		bl	mc_interface_set_configuration
 1285              	.LVL168:
 1286              		.loc 1 313 0
 1287 0870 11A9     		add	r1, sp, #68
 1288 0872 C820     		movs	r0, #200
 1289 0874 94ED000A 		vldr.32	s0, [r4]
 1290 0878 FFF7FEFF 		bl	mcpwm_foc_measure_inductance
 1291              	.LVL169:
 1292              		.loc 1 314 0
 1293 087c 10EE100A 		vmov	r0, s0
 1294 0880 FFF7FEFF 		bl	__aeabi_f2d
 1295              	.LVL170:
 1296 0884 0446     		mov	r4, r0
 1297 0886 1198     		ldr	r0, [sp, #68]	@ float
 1298 0888 0D46     		mov	r5, r1
 1299 088a FFF7FEFF 		bl	__aeabi_f2d
 1300              	.LVL171:
 1301 088e 2246     		mov	r2, r4
 1302 0890 CDE90001 		strd	r0, [sp]
 1303 0894 2B46     		mov	r3, r5
 1304 0896 6948     		ldr	r0, .L285+60
 1305 0898 FFF7FEFF 		bl	commands_printf
 1306              	.LVL172:
 1307              		.loc 1 316 0
 1308 089c 6248     		ldr	r0, .L285+40
 1309 089e FFF7FEFF 		bl	mc_interface_set_configuration
 1310              	.LVL173:
 1311              	.LBE105:
ARM GAS  /tmp/ccU5UnMV.s 			page 24


 1312              		.loc 1 307 0
 1313 08a2 18E4     		b	.L1
 1314              	.LVL174:
 1315              	.L265:
 1316              	.LBE104:
 1317              		.loc 1 240 0
 1318 08a4 6648     		ldr	r0, .L285+64
 1319              	.LBB106:
 1320              	.LBB107:
 1321              	.LBB108:
 1322              	.LBB109:
 1323              	.LBB110:
 1324              	.LBB111:
 1325              		.loc 2 231 0
 1326 08a6 674D     		ldr	r5, .L285+68
 1327              	.LBE111:
 1328              	.LBE110:
 1329              	.LBE109:
 1330              	.LBE108:
 1331              		.loc 1 244 0
 1332 08a8 9FED678A 		vldr.32	s16, .L285+72
 1333              		.loc 1 245 0
 1334 08ac 674F     		ldr	r7, .L285+76
 1335              	.LBE107:
 1336              	.LBE106:
 1337              		.loc 1 240 0
 1338 08ae FFF7FEFF 		bl	commands_printf
 1339              	.LVL175:
 1340 08b2 02E0     		b	.L43
 1341              	.LVL176:
 1342              	.L41:
 1343              	.LBB124:
 1344              		.loc 1 241 0 discriminator 2
 1345 08b4 0A2E     		cmp	r6, #10
 1346 08b6 3FF40EAC 		beq	.L1
 1347              	.LVL177:
 1348              	.L43:
 1349              	.LBB122:
 1350              		.loc 1 242 0
 1351 08ba 3046     		mov	r0, r6
 1352 08bc FFF7FEFF 		bl	comm_can_get_status_msg_index
 1353              	.LVL178:
 1354              		.loc 1 244 0
 1355 08c0 0168     		ldr	r1, [r0]
 1356 08c2 0029     		cmp	r1, #0
 1357              		.loc 1 242 0
 1358 08c4 0446     		mov	r4, r0
 1359              	.LVL179:
 1360              		.loc 1 244 0
 1361 08c6 B7EE007A 		vmov.f32	s14, #1.0e+0
 1362              	.LBE122:
 1363              		.loc 1 241 0
 1364 08ca 06F10106 		add	r6, r6, #1
 1365              	.LVL180:
 1366              	.LBB123:
 1367              		.loc 1 244 0
 1368 08ce F1DB     		blt	.L41
ARM GAS  /tmp/ccU5UnMV.s 			page 25


 1369              	.LBB115:
 1370              	.LBB114:
 1371              	.LBB113:
 1372              	.LBB112:
 1373              		.loc 2 231 0 discriminator 1
 1374 08d0 AB6A     		ldr	r3, [r5, #40]
 1375              	.LVL181:
 1376              	.LBE112:
 1377              	.LBE113:
 1378              		.loc 2 267 0 discriminator 1
 1379 08d2 4268     		ldr	r2, [r0, #4]
 1380 08d4 9B1A     		subs	r3, r3, r2
 1381              	.LBE114:
 1382              	.LBE115:
 1383              		.loc 1 244 0 discriminator 1
 1384 08d6 07EE903A 		vmov	s15, r3	@ int
 1385 08da F8EE677A 		vcvt.f32.u32	s15, s15
 1386 08de C7EE886A 		vdiv.f32	s13, s15, s16
 1387 08e2 F4EEC76A 		vcmpe.f32	s13, s14
 1388 08e6 F1EE10FA 		vmrs	APSR_nzcv, FPSCR
 1389 08ea E3D5     		bpl	.L41
 1390              		.loc 1 245 0
 1391 08ec 3846     		mov	r0, r7
 1392              	.LVL182:
 1393 08ee FFF7FEFF 		bl	commands_printf
 1394              	.LVL183:
 1395              		.loc 1 246 0
 1396 08f2 6168     		ldr	r1, [r4, #4]
 1397 08f4 5648     		ldr	r0, .L285+80
 1398 08f6 FFF7FEFF 		bl	commands_printf
 1399              	.LVL184:
 1400              	.LBB116:
 1401              	.LBB117:
 1402              		.loc 2 267 0
 1403 08fa 6268     		ldr	r2, [r4, #4]
 1404              	.LBB118:
 1405              	.LBB119:
 1406              		.loc 2 231 0
 1407 08fc AB6A     		ldr	r3, [r5, #40]
 1408              	.LVL185:
 1409              	.LBE119:
 1410              	.LBE118:
 1411              	.LBE117:
 1412              	.LBE116:
 1413              		.loc 1 247 0
 1414 08fe 9FED557A 		vldr.32	s14, .L285+84
 1415              	.LBB121:
 1416              	.LBB120:
 1417              		.loc 2 267 0
 1418 0902 9B1A     		subs	r3, r3, r2
 1419              	.LBE120:
 1420              	.LBE121:
 1421              		.loc 1 247 0
 1422 0904 07EE903A 		vmov	s15, r3	@ int
 1423 0908 F8EE677A 		vcvt.f32.u32	s15, s15
 1424 090c C7EE886A 		vdiv.f32	s13, s15, s16
 1425 0910 66EE877A 		vmul.f32	s15, s13, s14
ARM GAS  /tmp/ccU5UnMV.s 			page 26


 1426 0914 17EE900A 		vmov	r0, s15
 1427 0918 FFF7FEFF 		bl	__aeabi_f2d
 1428              	.LVL186:
 1429 091c 0246     		mov	r2, r0
 1430 091e 0B46     		mov	r3, r1
 1431 0920 4D48     		ldr	r0, .L285+88
 1432 0922 FFF7FEFF 		bl	commands_printf
 1433              	.LVL187:
 1434              		.loc 1 248 0
 1435 0926 A068     		ldr	r0, [r4, #8]	@ float
 1436 0928 FFF7FEFF 		bl	__aeabi_f2d
 1437              	.LVL188:
 1438 092c 0246     		mov	r2, r0
 1439 092e 0B46     		mov	r3, r1
 1440 0930 4A48     		ldr	r0, .L285+92
 1441 0932 FFF7FEFF 		bl	commands_printf
 1442              	.LVL189:
 1443              		.loc 1 249 0
 1444 0936 E068     		ldr	r0, [r4, #12]	@ float
 1445 0938 FFF7FEFF 		bl	__aeabi_f2d
 1446              	.LVL190:
 1447 093c 0246     		mov	r2, r0
 1448 093e 0B46     		mov	r3, r1
 1449 0940 4748     		ldr	r0, .L285+96
 1450 0942 FFF7FEFF 		bl	commands_printf
 1451              	.LVL191:
 1452              		.loc 1 250 0
 1453 0946 2069     		ldr	r0, [r4, #16]	@ float
 1454 0948 FFF7FEFF 		bl	__aeabi_f2d
 1455              	.LVL192:
 1456 094c 0246     		mov	r2, r0
 1457 094e 0B46     		mov	r3, r1
 1458 0950 4448     		ldr	r0, .L285+100
 1459 0952 FFF7FEFF 		bl	commands_printf
 1460              	.LVL193:
 1461 0956 ADE7     		b	.L41
 1462              	.LVL194:
 1463              	.L264:
 1464              	.LBE123:
 1465              	.LBE124:
 1466              	.LBB125:
 1467              		.loc 1 235 0 discriminator 7
 1468 0958 11A8     		add	r0, sp, #68
 1469 095a FFF7FEFF 		bl	mcpwm_get_rpm_dep
 1470              	.LVL195:
 1471              		.loc 1 236 0 discriminator 7
 1472 095e 1198     		ldr	r0, [sp, #68]	@ float
 1473 0960 FFF7FEFF 		bl	__aeabi_f2d
 1474              	.LVL196:
 1475 0964 0246     		mov	r2, r0
 1476 0966 0B46     		mov	r3, r1
 1477 0968 3F48     		ldr	r0, .L285+104
 1478 096a FFF7FEFF 		bl	commands_printf
 1479              	.LVL197:
 1480              		.loc 1 237 0 discriminator 7
 1481 096e 1298     		ldr	r0, [sp, #72]	@ float
 1482 0970 FFF7FEFF 		bl	__aeabi_f2d
ARM GAS  /tmp/ccU5UnMV.s 			page 27


 1483              	.LVL198:
 1484 0974 0246     		mov	r2, r0
 1485 0976 0B46     		mov	r3, r1
 1486 0978 3C48     		ldr	r0, .L285+108
 1487 097a FFF7FEFF 		bl	commands_printf
 1488              	.LVL199:
 1489              		.loc 1 238 0 discriminator 7
 1490 097e 1398     		ldr	r0, [sp, #76]	@ float
 1491 0980 FFF7FEFF 		bl	__aeabi_f2d
 1492              	.LVL200:
 1493 0984 0246     		mov	r2, r0
 1494 0986 0B46     		mov	r3, r1
 1495 0988 3948     		ldr	r0, .L285+112
 1496 098a FFF7FEFF 		bl	commands_printf
 1497              	.LVL201:
 1498              	.LBE125:
 1499 098e FFF7A2BB 		b	.L1
 1500              	.L57:
 1501              		.loc 1 323 0
 1502 0992 3849     		ldr	r1, .L285+116
 1503 0994 2846     		mov	r0, r5
 1504 0996 FFF7FEFF 		bl	strcmp
 1505              	.LVL202:
 1506 099a 0028     		cmp	r0, #0
 1507 099c 40F0C980 		bne	.L62
 1508              		.loc 1 324 0
 1509 09a0 052C     		cmp	r4, #5
 1510 09a2 75D0     		beq	.L270
 1511              	.L63:
 1512              		.loc 1 342 0
 1513 09a4 3448     		ldr	r0, .L285+120
 1514 09a6 FFF7FEFF 		bl	commands_printf
 1515              	.LVL203:
 1516 09aa FFF794BB 		b	.L1
 1517              	.L269:
 1518              	.LBB126:
 1519              	.LBB94:
 1520              		.loc 1 221 0
 1521 09ae 3348     		ldr	r0, .L285+124
 1522 09b0 FFF7FEFF 		bl	commands_printf
 1523              	.LVL204:
 1524 09b4 FFF78FBB 		b	.L1
 1525              	.L268:
 1526              		.loc 1 216 0
 1527 09b8 3148     		ldr	r0, .L285+128
 1528              	.L229:
 1529 09ba FFF7FEFF 		bl	commands_printf
 1530              	.LVL205:
 1531              		.loc 1 217 0
 1532 09be 9DF94B40 		ldrsb	r4, [sp, #75]
 1533              	.LVL206:
 1534 09c2 9DF94A00 		ldrsb	r0, [sp, #74]
 1535 09c6 0494     		str	r4, [sp, #16]
 1536 09c8 9DF94950 		ldrsb	r5, [sp, #73]
 1537 09cc 9DF94840 		ldrsb	r4, [sp, #72]
 1538 09d0 0390     		str	r0, [sp, #12]
 1539 09d2 9DF94700 		ldrsb	r0, [sp, #71]
ARM GAS  /tmp/ccU5UnMV.s 			page 28


 1540 09d6 0090     		str	r0, [sp]
 1541 09d8 9DF94630 		ldrsb	r3, [sp, #70]
 1542 09dc 9DF94520 		ldrsb	r2, [sp, #69]
 1543 09e0 9DF94410 		ldrsb	r1, [sp, #68]
 1544 09e4 2748     		ldr	r0, .L285+132
 1545 09e6 CDE90145 		strd	r4, r5, [sp, #4]
 1546 09ea FFF7FEFF 		bl	commands_printf
 1547              	.LVL207:
 1548 09ee FFF772BB 		b	.L1
 1549              	.LVL208:
 1550              	.L267:
 1551              		.loc 1 211 0
 1552 09f2 2548     		ldr	r0, .L285+136
 1553 09f4 E1E7     		b	.L229
 1554              	.L33:
 1555              		.loc 1 226 0
 1556 09f6 2548     		ldr	r0, .L285+140
 1557 09f8 FFF7FEFF 		bl	commands_printf
 1558              	.LVL209:
 1559              	.LBE94:
 1560              		.loc 1 200 0
 1561 09fc FFF76BBB 		b	.L1
 1562              	.L286:
 1563              		.align	2
 1564              	.L285:
 1565 0a00 000080BF 		.word	-1082130432
 1566 0a04 14050000 		.word	.LC64
 1567 0a08 00000000 		.word	.LANCHOR0
 1568 0a0c D0070000 		.word	.LC88
 1569 0a10 E0070000 		.word	.LC89
 1570 0a14 08000000 		.word	.LC1
 1571 0a18 00000000 		.word	.LC0
 1572 0a1c F0070000 		.word	.LC90
 1573 0a20 40080000 		.word	.LC93
 1574 0a24 4C080000 		.word	.LC94
 1575 0a28 00000000 		.word	.LANCHOR1
 1576 0a2c 00080000 		.word	.LC91
 1577 0a30 64080000 		.word	.LC95
 1578 0a34 6666663F 		.word	1063675494
 1579 0a38 00803B45 		.word	1161527296
 1580 0a3c 70080000 		.word	.LC96
 1581 0a40 EC060000 		.word	.LC80
 1582 0a44 00000000 		.word	ch
 1583 0a48 00401C46 		.word	1176256512
 1584 0a4c 1C070000 		.word	.LC81
 1585 0a50 34070000 		.word	.LC82
 1586 0a54 00007A44 		.word	1148846080
 1587 0a58 4C070000 		.word	.LC83
 1588 0a5c 68070000 		.word	.LC84
 1589 0a60 84070000 		.word	.LC85
 1590 0a64 A0070000 		.word	.LC86
 1591 0a68 8C060000 		.word	.LC76
 1592 0a6c A4060000 		.word	.LC77
 1593 0a70 C4060000 		.word	.LC78
 1594 0a74 98080000 		.word	.LC97
 1595 0a78 BC080000 		.word	.LC99
 1596 0a7c AC050000 		.word	.LC70
ARM GAS  /tmp/ccU5UnMV.s 			page 29


 1597 0a80 8C050000 		.word	.LC69
 1598 0a84 6C050000 		.word	.LC68
 1599 0a88 50050000 		.word	.LC67
 1600 0a8c 0C060000 		.word	.LC72
 1601              	.L270:
 1602              	.LBE126:
 1603              	.LBB127:
 1604              		.loc 1 325 0
 1605 0a90 CA4B     		ldr	r3, .L287
 1606              		.loc 1 329 0
 1607 0a92 CB49     		ldr	r1, .L287+4
 1608 0a94 1998     		ldr	r0, [sp, #100]
 1609              		.loc 1 325 0
 1610 0a96 0D93     		str	r3, [sp, #52]	@ float
 1611              		.loc 1 329 0
 1612 0a98 0DAA     		add	r2, sp, #52
 1613              		.loc 1 326 0
 1614 0a9a 0E93     		str	r3, [sp, #56]	@ float
 1615              		.loc 1 327 0
 1616 0a9c 0F93     		str	r3, [sp, #60]	@ float
 1617              		.loc 1 328 0
 1618 0a9e 1093     		str	r3, [sp, #64]	@ float
 1619              		.loc 1 329 0
 1620 0aa0 FFF7FEFF 		bl	sscanf
 1621              	.LVL210:
 1622              		.loc 1 330 0
 1623 0aa4 0EAA     		add	r2, sp, #56
 1624 0aa6 C649     		ldr	r1, .L287+4
 1625 0aa8 1A98     		ldr	r0, [sp, #104]
 1626 0aaa FFF7FEFF 		bl	sscanf
 1627              	.LVL211:
 1628              		.loc 1 331 0
 1629 0aae 0FAA     		add	r2, sp, #60
 1630 0ab0 C349     		ldr	r1, .L287+4
 1631 0ab2 1B98     		ldr	r0, [sp, #108]
 1632 0ab4 FFF7FEFF 		bl	sscanf
 1633              	.LVL212:
 1634              		.loc 1 332 0
 1635 0ab8 10AA     		add	r2, sp, #64
 1636 0aba 1C98     		ldr	r0, [sp, #112]
 1637 0abc C049     		ldr	r1, .L287+4
 1638 0abe FFF7FEFF 		bl	sscanf
 1639              	.LVL213:
 1640              		.loc 1 334 0
 1641 0ac2 9DED0D0A 		vldr.32	s0, [sp, #52]
 1642 0ac6 B5EEC00A 		vcmpe.f32	s0, #0
 1643 0aca F1EE10FA 		vmrs	APSR_nzcv, FPSCR
 1644 0ace 7FF76EAD 		ble	.L227
 1645              		.loc 1 334 0 is_stmt 0 discriminator 1
 1646 0ad2 BC4B     		ldr	r3, .L287+8
 1647 0ad4 D3ED017A 		vldr.32	s15, [r3, #4]
 1648 0ad8 B4EEE70A 		vcmpe.f32	s0, s15
 1649 0adc F1EE10FA 		vmrs	APSR_nzcv, FPSCR
 1650 0ae0 3FF665AD 		bhi	.L227
 1651              		.loc 1 334 0 discriminator 2
 1652 0ae4 9DED0F1A 		vldr.32	s2, [sp, #60]
 1653 0ae8 B5EEC01A 		vcmpe.f32	s2, #0
ARM GAS  /tmp/ccU5UnMV.s 			page 30


 1654 0aec F1EE10FA 		vmrs	APSR_nzcv, FPSCR
 1655 0af0 7FF75DAD 		ble	.L227
 1656              		.loc 1 334 0 discriminator 3
 1657 0af4 DDED0E0A 		vldr.32	s1, [sp, #56]
 1658 0af8 DFEDB37A 		vldr.32	s15, .L287+12
 1659 0afc F4EEE70A 		vcmpe.f32	s1, s15
 1660 0b00 F1EE10FA 		vmrs	APSR_nzcv, FPSCR
 1661 0b04 7FF753AD 		ble	.L227
 1662              		.loc 1 334 0 discriminator 4
 1663 0b08 DDED101A 		vldr.32	s3, [sp, #64]
 1664 0b0c F5EEC01A 		vcmpe.f32	s3, #0
 1665 0b10 F1EE10FA 		vmrs	APSR_nzcv, FPSCR
 1666 0b14 FFF64BAD 		blt	.L227
 1667              	.LBB128:
 1668              		.loc 1 336 0 is_stmt 1
 1669 0b18 11A8     		add	r0, sp, #68
 1670 0b1a FFF7FEFF 		bl	conf_general_measure_flux_linkage
 1671              	.LVL214:
 1672              		.loc 1 337 0
 1673 0b1e 1198     		ldr	r0, [sp, #68]	@ float
 1674              	.LVL215:
 1675              	.L230:
 1676              	.LBE128:
 1677              	.LBE127:
 1678              	.LBB129:
 1679              	.LBB130:
 1680              		.loc 1 400 0
 1681 0b20 FFF7FEFF 		bl	__aeabi_f2d
 1682              	.LVL216:
 1683 0b24 0246     		mov	r2, r0
 1684 0b26 0B46     		mov	r3, r1
 1685 0b28 A848     		ldr	r0, .L287+16
 1686 0b2a FFF7FEFF 		bl	commands_printf
 1687              	.LVL217:
 1688              	.LBE130:
 1689 0b2e FFF7D2BA 		b	.L1
 1690              	.LVL218:
 1691              	.L62:
 1692              	.LBE129:
 1693              		.loc 1 344 0
 1694 0b32 A749     		ldr	r1, .L287+20
 1695 0b34 2846     		mov	r0, r5
 1696 0b36 FFF7FEFF 		bl	strcmp
 1697              	.LVL219:
 1698 0b3a 0028     		cmp	r0, #0
 1699 0b3c 00F08380 		beq	.L271
 1700              		.loc 1 355 0
 1701 0b40 A449     		ldr	r1, .L287+24
 1702 0b42 2846     		mov	r0, r5
 1703 0b44 FFF7FEFF 		bl	strcmp
 1704              	.LVL220:
 1705 0b48 0646     		mov	r6, r0
 1706 0b4a 0028     		cmp	r0, #0
 1707 0b4c 40F09D80 		bne	.L72
 1708              		.loc 1 356 0
 1709 0b50 022C     		cmp	r4, #2
 1710 0b52 7FF449AD 		bne	.L45
ARM GAS  /tmp/ccU5UnMV.s 			page 31


 1711              	.LBB136:
 1712              		.loc 1 357 0
 1713 0b56 11AD     		add	r5, sp, #68
 1714 0b58 984B     		ldr	r3, .L287
 1715              		.loc 1 358 0
 1716 0b5a 1998     		ldr	r0, [sp, #100]
 1717 0b5c 9849     		ldr	r1, .L287+4
 1718              		.loc 1 357 0
 1719 0b5e 2B60     		str	r3, [r5]	@ float
 1720              		.loc 1 358 0
 1721 0b60 2A46     		mov	r2, r5
 1722 0b62 FFF7FEFF 		bl	sscanf
 1723              	.LVL221:
 1724              		.loc 1 360 0
 1725 0b66 D5ED007A 		vldr.32	s15, [r5]
 1726 0b6a F5EEC07A 		vcmpe.f32	s15, #0
 1727 0b6e F1EE10FA 		vmrs	APSR_nzcv, FPSCR
 1728 0b72 7FF71CAD 		ble	.L227
 1729              	.LBB135:
 1730              		.loc 1 361 0
 1731 0b76 934F     		ldr	r7, .L287+8
 1732              	.LBB131:
 1733              		.loc 1 372 0
 1734 0b78 9FED978A 		vldr.32	s16, .L287+28
 1735              	.LBE131:
 1736              		.loc 1 361 0
 1737 0b7c BC70     		strb	r4, [r7, #2]
 1738              		.loc 1 362 0
 1739 0b7e 3846     		mov	r0, r7
 1740 0b80 FFF7FEFF 		bl	mc_interface_set_configuration
 1741              	.LVL222:
 1742              		.loc 1 363 0
 1743 0b84 97ED389A 		vldr.32	s18, [r7, #224]
 1744 0b88 F7EE087A 		vmov.f32	s15, #1.5e+0
 1745 0b8c 29EE279A 		vmul.f32	s18, s18, s15
 1746              	.LVL223:
 1747              		.loc 1 366 0
 1748 0b90 FFF7FEFF 		bl	timeout_get_timeout_msec
 1749              	.LVL224:
 1750 0b94 0746     		mov	r7, r0
 1751              	.LVL225:
 1752              		.loc 1 367 0
 1753 0b96 FFF7FEFF 		bl	timeout_get_brake_current
 1754              	.LVL226:
 1755 0b9a F0EE40AA 		vmov.f32	s21, s0
 1756              	.LVL227:
 1757              		.loc 1 368 0
 1758 0b9e FFF7FEFF 		bl	timeout_reset
 1759              	.LVL228:
 1760              		.loc 1 369 0
 1761 0ba2 9FED8E0A 		vldr.32	s0, .L287+32
 1762 0ba6 4EF66020 		movw	r0, #60000
 1763 0baa FFF7FEFF 		bl	timeout_configure
 1764              	.LVL229:
 1765              	.L75:
 1766              	.LBB132:
 1767              		.loc 1 372 0 discriminator 3
ARM GAS  /tmp/ccU5UnMV.s 			page 32


 1768 0bae 07EE906A 		vmov	s15, r6	@ int
 1769 0bb2 B8EEE77A 		vcvt.f32.s32	s14, s15
 1770 0bb6 D5ED007A 		vldr.32	s15, [r5]
 1771 0bba 87EE080A 		vdiv.f32	s0, s14, s16
 1772              		.loc 1 371 0 discriminator 3
 1773 0bbe 0136     		adds	r6, r6, #1
 1774              	.LVL230:
 1775              		.loc 1 372 0 discriminator 3
 1776 0bc0 20EE270A 		vmul.f32	s0, s0, s15
 1777 0bc4 FFF7FEFF 		bl	mc_interface_set_duty
 1778              	.LVL231:
 1779              		.loc 1 373 0 discriminator 3
 1780 0bc8 C820     		movs	r0, #200
 1781 0bca FFF7FEFF 		bl	chThdSleep
 1782              	.LVL232:
 1783              		.loc 1 371 0 discriminator 3
 1784 0bce 642E     		cmp	r6, #100
 1785 0bd0 EDD1     		bne	.L75
 1786              	.LBE132:
 1787              		.loc 1 379 0
 1788 0bd2 9FED828A 		vldr.32	s16, .L287+32
 1789              	.LBB133:
 1790 0bd6 4FF47A74 		mov	r4, #1000
 1791              	.LVL233:
 1792              	.LBE133:
 1793              		.loc 1 378 0
 1794 0bda F0EE488A 		vmov.f32	s17, s16
 1795              		.loc 1 377 0
 1796 0bde F0EE489A 		vmov.f32	s19, s16
 1797              		.loc 1 376 0
 1798 0be2 B0EE48AA 		vmov.f32	s20, s16
 1799              	.LBB134:
 1800              		.loc 1 384 0
 1801 0be6 B7EE00BA 		vmov.f32	s22, #1.0e+0
 1802              	.L76:
 1803              	.LVL234:
 1804              		.loc 1 381 0 discriminator 3
 1805 0bea FFF7FEFF 		bl	mcpwm_foc_get_vq
 1806              	.LVL235:
 1807 0bee 3AEE00AA 		vadd.f32	s20, s20, s0
 1808              	.LVL236:
 1809              		.loc 1 382 0 discriminator 3
 1810 0bf2 FFF7FEFF 		bl	mc_interface_get_rpm
 1811              	.LVL237:
 1812 0bf6 79EE809A 		vadd.f32	s19, s19, s0
 1813              	.LVL238:
 1814              		.loc 1 383 0 discriminator 3
 1815 0bfa FFF7FEFF 		bl	mc_interface_get_tot_current_directional
 1816              	.LVL239:
 1817              		.loc 1 385 0 discriminator 3
 1818 0bfe 0A20     		movs	r0, #10
 1819              		.loc 1 383 0 discriminator 3
 1820 0c00 38EE008A 		vadd.f32	s16, s16, s0
 1821              	.LVL240:
 1822              		.loc 1 385 0 discriminator 3
 1823 0c04 FFF7FEFF 		bl	chThdSleep
 1824              	.LVL241:
ARM GAS  /tmp/ccU5UnMV.s 			page 33


 1825              		.loc 1 380 0 discriminator 3
 1826 0c08 013C     		subs	r4, r4, #1
 1827              	.LVL242:
 1828              		.loc 1 384 0 discriminator 3
 1829 0c0a 78EE8B8A 		vadd.f32	s17, s17, s22
 1830              	.LVL243:
 1831              		.loc 1 380 0 discriminator 3
 1832 0c0e ECD1     		bne	.L76
 1833              	.LBE134:
 1834              		.loc 1 388 0
 1835 0c10 FFF7FEFF 		bl	mc_interface_release_motor
 1836              	.LVL244:
 1837              		.loc 1 389 0
 1838 0c14 7248     		ldr	r0, .L287+36
 1839 0c16 FFF7FEFF 		bl	mc_interface_set_configuration
 1840              	.LVL245:
 1841              		.loc 1 392 0
 1842 0c1a 3846     		mov	r0, r7
 1843 0c1c B0EE6A0A 		vmov.f32	s0, s21
 1844 0c20 FFF7FEFF 		bl	timeout_configure
 1845              	.LVL246:
 1846              		.loc 1 396 0
 1847 0c24 C8EE286A 		vdiv.f32	s13, s16, s17
 1848              	.LVL247:
 1849              		.loc 1 394 0
 1850 0c28 8AEE287A 		vdiv.f32	s14, s20, s17
 1851              	.LVL248:
 1852              		.loc 1 395 0
 1853 0c2c C9EEA87A 		vdiv.f32	s15, s19, s17
 1854              	.LVL249:
 1855              		.loc 1 398 0
 1856 0c30 A9EE667A 		vfms.f32	s14, s18, s13
 1857              	.LVL250:
 1858 0c34 DFED6B6A 		vldr.32	s13, .L287+40
 1859              	.LVL251:
 1860 0c38 67EEA67A 		vmul.f32	s15, s15, s13
 1861              	.LVL252:
 1862              		.loc 1 400 0
 1863 0c3c C7EE277A 		vdiv.f32	s15, s14, s15
 1864 0c40 17EE900A 		vmov	r0, s15
 1865 0c44 6CE7     		b	.L230
 1866              	.LVL253:
 1867              	.L271:
 1868              	.LBE135:
 1869              	.LBE136:
 1870              	.LBB137:
 1871              		.loc 1 345 0 discriminator 21
 1872 0c46 5F4B     		ldr	r3, .L287+8
 1873 0c48 0222     		movs	r2, #2
 1874              		.loc 1 346 0 discriminator 21
 1875 0c4a 1846     		mov	r0, r3
 1876              		.loc 1 345 0 discriminator 21
 1877 0c4c 9A70     		strb	r2, [r3, #2]
 1878              		.loc 1 346 0 discriminator 21
 1879 0c4e FFF7FEFF 		bl	mc_interface_set_configuration
 1880              	.LVL254:
 1881              		.loc 1 348 0 discriminator 21
ARM GAS  /tmp/ccU5UnMV.s 			page 34


 1882 0c52 0023     		movs	r3, #0
 1883              		.loc 1 350 0 discriminator 21
 1884 0c54 11A9     		add	r1, sp, #68
 1885 0c56 10A8     		add	r0, sp, #64
 1886              		.loc 1 348 0 discriminator 21
 1887 0c58 1093     		str	r3, [sp, #64]	@ float
 1888              		.loc 1 349 0 discriminator 21
 1889 0c5a 1193     		str	r3, [sp, #68]	@ float
 1890              		.loc 1 350 0 discriminator 21
 1891 0c5c FFF7FEFF 		bl	mcpwm_foc_measure_res_ind
 1892              	.LVL255:
 1893              		.loc 1 351 0 discriminator 21
 1894 0c60 1098     		ldr	r0, [sp, #64]	@ float
 1895 0c62 FFF7FEFF 		bl	__aeabi_f2d
 1896              	.LVL256:
 1897 0c66 0246     		mov	r2, r0
 1898 0c68 0B46     		mov	r3, r1
 1899 0c6a 5F48     		ldr	r0, .L287+44
 1900 0c6c FFF7FEFF 		bl	commands_printf
 1901              	.LVL257:
 1902              		.loc 1 352 0 discriminator 21
 1903 0c70 1198     		ldr	r0, [sp, #68]	@ float
 1904 0c72 FFF7FEFF 		bl	__aeabi_f2d
 1905              	.LVL258:
 1906 0c76 0246     		mov	r2, r0
 1907 0c78 0B46     		mov	r3, r1
 1908 0c7a 5C48     		ldr	r0, .L287+48
 1909 0c7c FFF7FEFF 		bl	commands_printf
 1910              	.LVL259:
 1911              		.loc 1 354 0 discriminator 21
 1912 0c80 5748     		ldr	r0, .L287+36
 1913 0c82 FFF7FEFF 		bl	mc_interface_set_configuration
 1914              	.LVL260:
 1915              	.LBE137:
 1916 0c86 FFF726BA 		b	.L1
 1917              	.L72:
 1918              		.loc 1 407 0
 1919 0c8a 5949     		ldr	r1, .L287+52
 1920 0c8c 2846     		mov	r0, r5
 1921 0c8e FFF7FEFF 		bl	strcmp
 1922              	.LVL261:
 1923 0c92 0028     		cmp	r0, #0
 1924 0c94 4BD1     		bne	.L78
 1925              		.loc 1 408 0
 1926 0c96 052C     		cmp	r4, #5
 1927 0c98 7FF484AE 		bne	.L63
 1928              	.LBB138:
 1929              		.loc 1 409 0
 1930 0c9c 474B     		ldr	r3, .L287
 1931              		.loc 1 413 0
 1932 0c9e 4849     		ldr	r1, .L287+4
 1933 0ca0 1998     		ldr	r0, [sp, #100]
 1934              		.loc 1 409 0
 1935 0ca2 0D93     		str	r3, [sp, #52]	@ float
 1936              		.loc 1 413 0
 1937 0ca4 0DAA     		add	r2, sp, #52
 1938              		.loc 1 410 0
ARM GAS  /tmp/ccU5UnMV.s 			page 35


 1939 0ca6 0E93     		str	r3, [sp, #56]	@ float
 1940              		.loc 1 411 0
 1941 0ca8 0F93     		str	r3, [sp, #60]	@ float
 1942              		.loc 1 412 0
 1943 0caa 1093     		str	r3, [sp, #64]	@ float
 1944              		.loc 1 413 0
 1945 0cac FFF7FEFF 		bl	sscanf
 1946              	.LVL262:
 1947              		.loc 1 414 0
 1948 0cb0 0EAA     		add	r2, sp, #56
 1949 0cb2 4349     		ldr	r1, .L287+4
 1950 0cb4 1A98     		ldr	r0, [sp, #104]
 1951 0cb6 FFF7FEFF 		bl	sscanf
 1952              	.LVL263:
 1953              		.loc 1 415 0
 1954 0cba 0FAA     		add	r2, sp, #60
 1955 0cbc 4049     		ldr	r1, .L287+4
 1956 0cbe 1B98     		ldr	r0, [sp, #108]
 1957 0cc0 FFF7FEFF 		bl	sscanf
 1958              	.LVL264:
 1959              		.loc 1 416 0
 1960 0cc4 10AA     		add	r2, sp, #64
 1961 0cc6 1C98     		ldr	r0, [sp, #112]
 1962 0cc8 3D49     		ldr	r1, .L287+4
 1963 0cca FFF7FEFF 		bl	sscanf
 1964              	.LVL265:
 1965              		.loc 1 418 0
 1966 0cce 9DED0D0A 		vldr.32	s0, [sp, #52]
 1967 0cd2 B5EEC00A 		vcmpe.f32	s0, #0
 1968 0cd6 F1EE10FA 		vmrs	APSR_nzcv, FPSCR
 1969 0cda 7FF768AC 		ble	.L227
 1970              		.loc 1 418 0 is_stmt 0 discriminator 1
 1971 0cde 394B     		ldr	r3, .L287+8
 1972 0ce0 D3ED017A 		vldr.32	s15, [r3, #4]
 1973 0ce4 B4EEE70A 		vcmpe.f32	s0, s15
 1974 0ce8 F1EE10FA 		vmrs	APSR_nzcv, FPSCR
 1975 0cec 3FF65FAC 		bhi	.L227
 1976              		.loc 1 418 0 discriminator 2
 1977 0cf0 9DED0F1A 		vldr.32	s2, [sp, #60]
 1978 0cf4 B5EEC01A 		vcmpe.f32	s2, #0
 1979 0cf8 F1EE10FA 		vmrs	APSR_nzcv, FPSCR
 1980 0cfc 7FF757AC 		ble	.L227
 1981              		.loc 1 418 0 discriminator 3
 1982 0d00 DDED0E0A 		vldr.32	s1, [sp, #56]
 1983 0d04 DFED307A 		vldr.32	s15, .L287+12
 1984 0d08 F4EEE70A 		vcmpe.f32	s1, s15
 1985 0d0c F1EE10FA 		vmrs	APSR_nzcv, FPSCR
 1986 0d10 7FF74DAC 		ble	.L227
 1987              		.loc 1 418 0 discriminator 4
 1988 0d14 DDED101A 		vldr.32	s3, [sp, #64]
 1989 0d18 F5EEC01A 		vcmpe.f32	s3, #0
 1990 0d1c F1EE10FA 		vmrs	APSR_nzcv, FPSCR
 1991 0d20 FFF645AC 		blt	.L227
 1992              	.LBB139:
 1993              		.loc 1 420 0 is_stmt 1
 1994 0d24 11A8     		add	r0, sp, #68
 1995 0d26 FFF7FEFF 		bl	conf_general_measure_flux_linkage_openloop
ARM GAS  /tmp/ccU5UnMV.s 			page 36


 1996              	.LVL266:
 1997              		.loc 1 421 0
 1998 0d2a 1198     		ldr	r0, [sp, #68]	@ float
 1999 0d2c F8E6     		b	.L230
 2000              	.L78:
 2001              	.LBE139:
 2002              	.LBE138:
 2003              		.loc 1 428 0
 2004 0d2e 3149     		ldr	r1, .L287+56
 2005 0d30 2846     		mov	r0, r5
 2006 0d32 FFF7FEFF 		bl	strcmp
 2007              	.LVL267:
 2008 0d36 98B1     		cbz	r0, .L272
 2009              		.loc 1 431 0
 2010 0d38 2F49     		ldr	r1, .L287+60
 2011 0d3a 2846     		mov	r0, r5
 2012 0d3c FFF7FEFF 		bl	strcmp
 2013              	.LVL268:
 2014 0d40 0028     		cmp	r0, #0
 2015 0d42 00F09080 		beq	.L273
 2016              		.loc 1 442 0
 2017 0d46 2D49     		ldr	r1, .L287+64
 2018 0d48 2846     		mov	r0, r5
 2019 0d4a FFF7FEFF 		bl	strcmp
 2020              	.LVL269:
 2021 0d4e 0028     		cmp	r0, #0
 2022 0d50 5AD1     		bne	.L89
 2023              		.loc 1 443 0
 2024 0d52 032C     		cmp	r4, #3
 2025 0d54 0BD0     		beq	.L274
 2026              	.L90:
 2027              		.loc 1 456 0
 2028 0d56 2A48     		ldr	r0, .L287+68
 2029 0d58 FFF7FEFF 		bl	commands_printf
 2030              	.LVL270:
 2031 0d5c FFF7BBB9 		b	.L1
 2032              	.L272:
 2033              		.loc 1 429 0
 2034 0d60 FFF7FEFF 		bl	mcpwm_foc_print_state
 2035              	.LVL271:
 2036              		.loc 1 430 0
 2037 0d64 2748     		ldr	r0, .L287+72
 2038 0d66 FFF7FEFF 		bl	commands_printf
 2039              	.LVL272:
 2040 0d6a FFF7B4B9 		b	.L1
 2041              	.L274:
 2042              	.LBB140:
 2043              		.loc 1 444 0
 2044 0d6e 134B     		ldr	r3, .L287
 2045              		.loc 1 446 0
 2046 0d70 1349     		ldr	r1, .L287+4
 2047 0d72 1998     		ldr	r0, [sp, #100]
 2048              		.loc 1 444 0
 2049 0d74 1093     		str	r3, [sp, #64]	@ float
 2050              		.loc 1 446 0
 2051 0d76 10AA     		add	r2, sp, #64
 2052              		.loc 1 445 0
ARM GAS  /tmp/ccU5UnMV.s 			page 37


 2053 0d78 1193     		str	r3, [sp, #68]	@ float
 2054              		.loc 1 446 0
 2055 0d7a FFF7FEFF 		bl	sscanf
 2056              	.LVL273:
 2057              		.loc 1 447 0
 2058 0d7e 11AA     		add	r2, sp, #68
 2059 0d80 1A98     		ldr	r0, [sp, #104]
 2060 0d82 0F49     		ldr	r1, .L287+4
 2061 0d84 FFF7FEFF 		bl	sscanf
 2062              	.LVL274:
 2063              		.loc 1 449 0
 2064 0d88 DDED107A 		vldr.32	s15, [sp, #64]
 2065 0d8c F5EEC07A 		vcmpe.f32	s15, #0
 2066 0d90 F1EE10FA 		vmrs	APSR_nzcv, FPSCR
 2067 0d94 FFF60BAC 		blt	.L227
 2068              		.loc 1 449 0 is_stmt 0 discriminator 1
 2069 0d98 DDED117A 		vldr.32	s15, [sp, #68]
 2070 0d9c F5EEC07A 		vcmpe.f32	s15, #0
 2071 0da0 F1EE10FA 		vmrs	APSR_nzcv, FPSCR
 2072 0da4 FFF603AC 		blt	.L227
 2073              		.loc 1 450 0 is_stmt 1
 2074 0da8 FFF7FEFF 		bl	timeout_reset
 2075              	.LVL275:
 2076              		.loc 1 451 0
 2077 0dac DDED110A 		vldr.32	s1, [sp, #68]
 2078 0db0 9DED100A 		vldr.32	s0, [sp, #64]
 2079 0db4 FFF7FEFF 		bl	mcpwm_foc_set_openloop
 2080              	.LVL276:
 2081 0db8 FFF78DB9 		b	.L1
 2082              	.L288:
 2083              		.align	2
 2084              	.L287:
 2085 0dbc 000080BF 		.word	-1082130432
 2086 0dc0 14050000 		.word	.LC64
 2087 0dc4 00000000 		.word	.LANCHOR0
 2088 0dc8 0AD7A33C 		.word	1017370378
 2089 0dcc A8080000 		.word	.LC98
 2090 0dd0 E4080000 		.word	.LC100
 2091 0dd4 2C090000 		.word	.LC103
 2092 0dd8 0000C842 		.word	1120403456
 2093 0ddc 00000000 		.word	0
 2094 0de0 00000000 		.word	.LANCHOR1
 2095 0de4 5077D63D 		.word	1037465424
 2096 0de8 F4080000 		.word	.LC101
 2097 0dec 0C090000 		.word	.LC102
 2098 0df0 40090000 		.word	.LC104
 2099 0df4 5C090000 		.word	.LC105
 2100 0df8 68090000 		.word	.LC106
 2101 0dfc F4090000 		.word	.LC112
 2102 0e00 040A0000 		.word	.LC113
 2103 0e04 18000000 		.word	.LC4
 2104              	.L89:
 2105              	.LBE140:
 2106              		.loc 1 458 0
 2107 0e08 C049     		ldr	r1, .L289
 2108 0e0a 2846     		mov	r0, r5
 2109 0e0c FFF7FEFF 		bl	strcmp
ARM GAS  /tmp/ccU5UnMV.s 			page 38


 2110              	.LVL277:
 2111 0e10 0028     		cmp	r0, #0
 2112 0e12 65D1     		bne	.L95
 2113              		.loc 1 459 0
 2114 0e14 032C     		cmp	r4, #3
 2115 0e16 9ED1     		bne	.L90
 2116              	.LBB141:
 2117              		.loc 1 460 0
 2118 0e18 BD4B     		ldr	r3, .L289+4
 2119              		.loc 1 462 0
 2120 0e1a BE49     		ldr	r1, .L289+8
 2121 0e1c 1998     		ldr	r0, [sp, #100]
 2122              		.loc 1 460 0
 2123 0e1e 1093     		str	r3, [sp, #64]	@ float
 2124              		.loc 1 462 0
 2125 0e20 10AA     		add	r2, sp, #64
 2126              		.loc 1 461 0
 2127 0e22 1193     		str	r3, [sp, #68]	@ float
 2128              		.loc 1 462 0
 2129 0e24 FFF7FEFF 		bl	sscanf
 2130              	.LVL278:
 2131              		.loc 1 463 0
 2132 0e28 11AA     		add	r2, sp, #68
 2133 0e2a 1A98     		ldr	r0, [sp, #104]
 2134 0e2c B949     		ldr	r1, .L289+8
 2135 0e2e FFF7FEFF 		bl	sscanf
 2136              	.LVL279:
 2137              		.loc 1 465 0
 2138 0e32 DDED107A 		vldr.32	s15, [sp, #64]
 2139 0e36 F5EEC07A 		vcmpe.f32	s15, #0
 2140 0e3a F1EE10FA 		vmrs	APSR_nzcv, FPSCR
 2141 0e3e FFF6B6AB 		blt	.L227
 2142              		.loc 1 465 0 is_stmt 0 discriminator 1
 2143 0e42 DDED117A 		vldr.32	s15, [sp, #68]
 2144 0e46 F5EEC07A 		vcmpe.f32	s15, #0
 2145 0e4a F1EE10FA 		vmrs	APSR_nzcv, FPSCR
 2146 0e4e FFF6AEAB 		blt	.L227
 2147              		.loc 1 466 0 is_stmt 1
 2148 0e52 FFF7FEFF 		bl	timeout_reset
 2149              	.LVL280:
 2150              		.loc 1 467 0
 2151 0e56 DDED110A 		vldr.32	s1, [sp, #68]
 2152 0e5a 9DED100A 		vldr.32	s0, [sp, #64]
 2153 0e5e FFF7FEFF 		bl	mcpwm_foc_set_openloop_duty
 2154              	.LVL281:
 2155 0e62 FFF738B9 		b	.L1
 2156              	.L273:
 2157              	.LBE141:
 2158              		.loc 1 432 0
 2159 0e66 3722     		movs	r2, #55
 2160 0e68 0321     		movs	r1, #3
 2161 0e6a AB48     		ldr	r0, .L289+12
 2162 0e6c FFF7FEFF 		bl	commands_printf
 2163              	.LVL282:
 2164              		.loc 1 434 0
 2165 0e70 AA49     		ldr	r1, .L289+16
 2166 0e72 AB48     		ldr	r0, .L289+20
ARM GAS  /tmp/ccU5UnMV.s 			page 39


 2167 0e74 FFF7FEFF 		bl	commands_printf
 2168              	.LVL283:
 2169              		.loc 1 439 0
 2170 0e78 AA48     		ldr	r0, .L289+24
 2171              		.loc 1 437 0
 2172 0e7a AB4B     		ldr	r3, .L289+28
 2173 0e7c AB4A     		ldr	r2, .L289+32
 2174 0e7e AC49     		ldr	r1, .L289+36
 2175              		.loc 1 436 0
 2176 0e80 0478     		ldrb	r4, [r0]	@ zero_extendqisi2
 2177              	.LVL284:
 2178 0e82 1B78     		ldrb	r3, [r3]	@ zero_extendqisi2
 2179 0e84 1278     		ldrb	r2, [r2]	@ zero_extendqisi2
 2180 0e86 0978     		ldrb	r1, [r1]	@ zero_extendqisi2
 2181 0e88 0894     		str	r4, [sp, #32]
 2182 0e8a 10F8014C 		ldrb	r4, [r0, #-1]	@ zero_extendqisi2
 2183 0e8e 0794     		str	r4, [sp, #28]
 2184 0e90 10F8024C 		ldrb	r4, [r0, #-2]	@ zero_extendqisi2
 2185 0e94 0694     		str	r4, [sp, #24]
 2186 0e96 10F8034C 		ldrb	r4, [r0, #-3]	@ zero_extendqisi2
 2187 0e9a 0594     		str	r4, [sp, #20]
 2188 0e9c 10F8044C 		ldrb	r4, [r0, #-4]	@ zero_extendqisi2
 2189 0ea0 0494     		str	r4, [sp, #16]
 2190 0ea2 10F8054C 		ldrb	r4, [r0, #-5]	@ zero_extendqisi2
 2191 0ea6 0394     		str	r4, [sp, #12]
 2192 0ea8 10F8064C 		ldrb	r4, [r0, #-6]	@ zero_extendqisi2
 2193 0eac 0294     		str	r4, [sp, #8]
 2194 0eae 10F8074C 		ldrb	r4, [r0, #-7]	@ zero_extendqisi2
 2195 0eb2 0194     		str	r4, [sp, #4]
 2196              		.loc 1 437 0
 2197 0eb4 0838     		subs	r0, r0, #8
 2198              		.loc 1 436 0
 2199 0eb6 0078     		ldrb	r0, [r0]	@ zero_extendqisi2
 2200 0eb8 0090     		str	r0, [sp]
 2201 0eba 9E48     		ldr	r0, .L289+40
 2202 0ebc FFF7FEFF 		bl	commands_printf
 2203              	.LVL285:
 2204              		.loc 1 440 0
 2205 0ec0 9D4B     		ldr	r3, .L289+44
 2206 0ec2 9E4A     		ldr	r2, .L289+48
 2207 0ec4 1978     		ldrb	r1, [r3]	@ zero_extendqisi2
 2208 0ec6 9E4B     		ldr	r3, .L289+52
 2209 0ec8 9E48     		ldr	r0, .L289+56
 2210 0eca 0029     		cmp	r1, #0
 2211 0ecc 0CBF     		ite	eq
 2212 0ece 1146     		moveq	r1, r2
 2213 0ed0 1946     		movne	r1, r3
 2214 0ed2 FFF7FEFF 		bl	commands_printf
 2215              	.LVL286:
 2216              		.loc 1 441 0
 2217 0ed6 9C48     		ldr	r0, .L289+60
 2218 0ed8 FFF7FEFF 		bl	commands_printf
 2219              	.LVL287:
 2220 0edc FFF7FBB8 		b	.L1
 2221              	.LVL288:
 2222              	.L95:
 2223              		.loc 1 474 0
ARM GAS  /tmp/ccU5UnMV.s 			page 40


 2224 0ee0 9A49     		ldr	r1, .L289+64
 2225 0ee2 2846     		mov	r0, r5
 2226 0ee4 FFF7FEFF 		bl	strcmp
 2227              	.LVL289:
 2228 0ee8 C8B9     		cbnz	r0, .L100
 2229              		.loc 1 475 0
 2230 0eea 022C     		cmp	r4, #2
 2231 0eec 7FF47CAB 		bne	.L45
 2232              	.LBB142:
 2233              		.loc 1 476 0
 2234 0ef0 4FF0FF33 		mov	r3, #-1
 2235              		.loc 1 477 0
 2236 0ef4 1998     		ldr	r0, [sp, #100]
 2237 0ef6 9649     		ldr	r1, .L289+68
 2238              		.loc 1 476 0
 2239 0ef8 1193     		str	r3, [sp, #68]
 2240              		.loc 1 477 0
 2241 0efa 11AA     		add	r2, sp, #68
 2242 0efc FFF7FEFF 		bl	sscanf
 2243              	.LVL290:
 2244              		.loc 1 479 0
 2245 0f00 119B     		ldr	r3, [sp, #68]
 2246 0f02 002B     		cmp	r3, #0
 2247 0f04 FFF653AB 		blt	.L227
 2248              	.LBB143:
 2249              		.loc 1 481 0
 2250 0f08 3822     		movs	r2, #56
 2251              		.loc 1 483 0
 2252 0f0a 2146     		mov	r1, r4
 2253 0f0c 10A8     		add	r0, sp, #64
 2254              		.loc 1 482 0
 2255 0f0e 8DF84130 		strb	r3, [sp, #65]
 2256              		.loc 1 481 0
 2257 0f12 8DF84020 		strb	r2, [sp, #64]
 2258              		.loc 1 483 0
 2259 0f16 FFF7FEFF 		bl	commands_send_packet_nrf
 2260              	.LVL291:
 2261              	.LBE143:
 2262 0f1a FFF7DCB8 		b	.L1
 2263              	.L100:
 2264              	.LBE142:
 2265              		.loc 1 490 0
 2266 0f1e 8D49     		ldr	r1, .L289+72
 2267 0f20 2846     		mov	r0, r5
 2268 0f22 FFF7FEFF 		bl	strcmp
 2269              	.LVL292:
 2270 0f26 68BB     		cbnz	r0, .L103
 2271              		.loc 1 491 0
 2272 0f28 022C     		cmp	r4, #2
 2273 0f2a 7FF45DAB 		bne	.L45
 2274              	.LBB144:
 2275              		.loc 1 492 0
 2276 0f2e 784B     		ldr	r3, .L289+4
 2277              		.loc 1 493 0
 2278 0f30 1998     		ldr	r0, [sp, #100]
 2279 0f32 7849     		ldr	r1, .L289+8
 2280              		.loc 1 492 0
ARM GAS  /tmp/ccU5UnMV.s 			page 41


 2281 0f34 1193     		str	r3, [sp, #68]	@ float
 2282              		.loc 1 493 0
 2283 0f36 11AA     		add	r2, sp, #68
 2284 0f38 FFF7FEFF 		bl	sscanf
 2285              	.LVL293:
 2286              		.loc 1 495 0
 2287 0f3c 9DED110A 		vldr.32	s0, [sp, #68]
 2288 0f40 B5EEC00A 		vcmpe.f32	s0, #0
 2289 0f44 F1EE10FA 		vmrs	APSR_nzcv, FPSCR
 2290 0f48 7FF731AB 		ble	.L227
 2291              		.loc 1 495 0 is_stmt 0 discriminator 1
 2292 0f4c 824B     		ldr	r3, .L289+76
 2293 0f4e D3ED017A 		vldr.32	s15, [r3, #4]
 2294 0f52 B4EEE70A 		vcmpe.f32	s0, s15
 2295 0f56 F1EE10FA 		vmrs	APSR_nzcv, FPSCR
 2296 0f5a 3FF628AB 		bhi	.L227
 2297              	.LBB145:
 2298              		.loc 1 496 0 is_stmt 1
 2299 0f5e 0121     		movs	r1, #1
 2300 0f60 0846     		mov	r0, r1
 2301 0f62 FFF7FEFF 		bl	conf_general_autodetect_apply_sensors_foc
 2302              	.LVL294:
 2303              		.loc 1 498 0
 2304 0f66 0146     		mov	r1, r0
 2305 0f68 0028     		cmp	r0, #0
 2306 0f6a 00F0C281 		beq	.L233
 2307              		.loc 1 500 0
 2308 0f6e 0128     		cmp	r0, #1
 2309 0f70 00F0B581 		beq	.L232
 2310              		.loc 1 502 0
 2311 0f74 0228     		cmp	r0, #2
 2312 0f76 00F0B781 		beq	.L231
 2313              	.LVL295:
 2314              	.L235:
 2315              	.LBE145:
 2316              	.LBE144:
 2317              	.LBB146:
 2318              	.LBB96:
 2319              		.loc 1 641 0
 2320 0f7a 7848     		ldr	r0, .L289+80
 2321 0f7c FFF7FEFF 		bl	commands_printf
 2322              	.LVL296:
 2323 0f80 FFF7A9B8 		b	.L1
 2324              	.LVL297:
 2325              	.L103:
 2326              	.LBE96:
 2327              	.LBE146:
 2328              		.loc 1 513 0
 2329 0f84 7649     		ldr	r1, .L289+84
 2330 0f86 2846     		mov	r0, r5
 2331 0f88 FFF7FEFF 		bl	strcmp
 2332              	.LVL298:
 2333 0f8c 0028     		cmp	r0, #0
 2334 0f8e 40F08380 		bne	.L111
 2335              		.loc 1 514 0
 2336 0f92 042C     		cmp	r4, #4
 2337 0f94 7FF46FA9 		bne	.L25
ARM GAS  /tmp/ccU5UnMV.s 			page 42


 2338              	.LBB147:
 2339              		.loc 1 515 0
 2340 0f98 0FAE     		add	r6, sp, #60
 2341              		.loc 1 516 0
 2342 0f9a 10AC     		add	r4, sp, #64
 2343              	.LVL299:
 2344              		.loc 1 517 0
 2345 0f9c 11AD     		add	r5, sp, #68
 2346              		.loc 1 515 0
 2347 0f9e 5C4B     		ldr	r3, .L289+4
 2348              		.loc 1 518 0
 2349 0fa0 5C49     		ldr	r1, .L289+8
 2350 0fa2 1998     		ldr	r0, [sp, #100]
 2351              		.loc 1 515 0
 2352 0fa4 3360     		str	r3, [r6]	@ float
 2353              		.loc 1 518 0
 2354 0fa6 3246     		mov	r2, r6
 2355              		.loc 1 516 0
 2356 0fa8 2360     		str	r3, [r4]	@ float
 2357              		.loc 1 517 0
 2358 0faa 2B60     		str	r3, [r5]	@ float
 2359              		.loc 1 518 0
 2360 0fac FFF7FEFF 		bl	sscanf
 2361              	.LVL300:
 2362              		.loc 1 519 0
 2363 0fb0 2246     		mov	r2, r4
 2364 0fb2 5849     		ldr	r1, .L289+8
 2365 0fb4 1A98     		ldr	r0, [sp, #104]
 2366 0fb6 FFF7FEFF 		bl	sscanf
 2367              	.LVL301:
 2368              		.loc 1 520 0
 2369 0fba 2A46     		mov	r2, r5
 2370 0fbc 1B98     		ldr	r0, [sp, #108]
 2371 0fbe 5549     		ldr	r1, .L289+8
 2372 0fc0 FFF7FEFF 		bl	sscanf
 2373              	.LVL302:
 2374              		.loc 1 522 0
 2375 0fc4 D6ED007A 		vldr.32	s15, [r6]
 2376 0fc8 F5EEC07A 		vcmpe.f32	s15, #0
 2377 0fcc F1EE10FA 		vmrs	APSR_nzcv, FPSCR
 2378 0fd0 7FF7EDAA 		ble	.L227
 2379              		.loc 1 522 0 is_stmt 0 discriminator 1
 2380 0fd4 604B     		ldr	r3, .L289+76
 2381 0fd6 93ED017A 		vldr.32	s14, [r3, #4]
 2382 0fda F4EEC77A 		vcmpe.f32	s15, s14
 2383 0fde F1EE10FA 		vmrs	APSR_nzcv, FPSCR
 2384 0fe2 3FF6E4AA 		bhi	.L227
 2385              		.loc 1 523 0 is_stmt 1 discriminator 2
 2386 0fe6 D5ED007A 		vldr.32	s15, [r5]
 2387              		.loc 1 522 0 discriminator 2
 2388 0fea F5EEC07A 		vcmpe.f32	s15, #0
 2389 0fee F1EE10FA 		vmrs	APSR_nzcv, FPSCR
 2390 0ff2 FFF6DCAA 		blt	.L227
 2391              		.loc 1 523 0
 2392 0ff6 9FED5B7A 		vldr.32	s14, .L289+88
 2393 0ffa F4EEC77A 		vcmpe.f32	s15, s14
 2394 0ffe F1EE10FA 		vmrs	APSR_nzcv, FPSCR
ARM GAS  /tmp/ccU5UnMV.s 			page 43


 2395 1002 3FF6D4AA 		bhi	.L227
 2396              		.loc 1 524 0
 2397 1006 DFED587A 		vldr.32	s15, .L289+92
 2398 100a 94ED007A 		vldr.32	s14, [r4]
 2399 100e B4EEE77A 		vcmpe.f32	s14, s15
 2400 1012 F1EE10FA 		vmrs	APSR_nzcv, FPSCR
 2401 1016 32D9     		bls	.L275
 2402              	.LBB148:
 2403              	.LBB149:
 2404              		.loc 1 530 0
 2405 1018 9FED548A 		vldr.32	s16, .L289+96
 2406              		.loc 1 538 0
 2407 101c DFF87481 		ldr	r8, .L289+136
 2408              		.loc 1 530 0
 2409 1020 DFED538A 		vldr.32	s17, .L289+100
 2410              	.LBE149:
 2411              		.loc 1 529 0
 2412 1024 0027     		movs	r7, #0
 2413              	.L117:
 2414              	.LVL303:
 2415              	.LBB150:
 2416              		.loc 1 530 0 discriminator 1
 2417 1026 D4ED007A 		vldr.32	s15, [r4]
 2418 102a F4EEC87A 		vcmpe.f32	s15, s16
 2419 102e F1EE10FA 		vmrs	APSR_nzcv, FPSCR
 2420              		.loc 1 535 0 discriminator 1
 2421 1032 07F10107 		add	r7, r7, #1
 2422              	.LVL304:
 2423              		.loc 1 530 0 discriminator 1
 2424 1036 1DDD     		ble	.L234
 2425              		.loc 1 531 0
 2426 1038 FFF7FEFF 		bl	timeout_reset
 2427              	.LVL305:
 2428              		.loc 1 532 0
 2429 103c D5ED000A 		vldr.32	s1, [r5]
 2430 1040 96ED000A 		vldr.32	s0, [r6]
 2431 1044 FFF7FEFF 		bl	mcpwm_foc_set_openloop_phase
 2432              	.LVL306:
 2433              		.loc 1 533 0
 2434 1048 1420     		movs	r0, #20
 2435 104a FFF7FEFF 		bl	chThdSleep
 2436              	.LVL307:
 2437              		.loc 1 536 0
 2438 104e C72F     		cmp	r7, #199
 2439 1050 0DDD     		ble	.L120
 2440              	.LVL308:
 2441              		.loc 1 538 0
 2442 1052 D4ED007A 		vldr.32	s15, [r4]
 2443 1056 77EEC87A 		vsub.f32	s15, s15, s16
 2444              		.loc 1 537 0
 2445 105a 0027     		movs	r7, #0
 2446              		.loc 1 538 0
 2447 105c 17EE900A 		vmov	r0, s15
 2448 1060 FFF7FEFF 		bl	__aeabi_f2d
 2449              	.LVL309:
 2450 1064 0246     		mov	r2, r0
 2451 1066 0B46     		mov	r3, r1
ARM GAS  /tmp/ccU5UnMV.s 			page 44


 2452 1068 4046     		mov	r0, r8
 2453 106a FFF7FEFF 		bl	commands_printf
 2454              	.LVL310:
 2455              	.L120:
 2456              		.loc 1 530 0 discriminator 2
 2457 106e 38EE288A 		vadd.f32	s16, s16, s17
 2458              	.LVL311:
 2459 1072 D8E7     		b	.L117
 2460              	.LVL312:
 2461              	.L234:
 2462              	.LBE150:
 2463              	.LBE148:
 2464              	.LBE147:
 2465              	.LBB151:
 2466              		.loc 1 607 0
 2467 1074 3F48     		ldr	r0, .L289+104
 2468 1076 FFF7FEFF 		bl	commands_printf
 2469              	.LVL313:
 2470 107a FFF72CB8 		b	.L1
 2471              	.L275:
 2472              	.LBE151:
 2473              	.LBB154:
 2474              		.loc 1 525 0
 2475 107e FFF7FEFF 		bl	timeout_reset
 2476              	.LVL314:
 2477              		.loc 1 526 0
 2478 1082 D5ED000A 		vldr.32	s1, [r5]
 2479 1086 96ED000A 		vldr.32	s0, [r6]
 2480 108a FFF7FEFF 		bl	mcpwm_foc_set_openloop_phase
 2481              	.LVL315:
 2482              		.loc 1 527 0
 2483 108e 3A48     		ldr	r0, .L289+108
 2484 1090 FFF7FEFF 		bl	commands_printf
 2485              	.LVL316:
 2486 1094 FFF71FB8 		b	.L1
 2487              	.LVL317:
 2488              	.L111:
 2489              	.LBE154:
 2490              		.loc 1 550 0
 2491 1098 3849     		ldr	r1, .L289+112
 2492 109a 2846     		mov	r0, r5
 2493 109c FFF7FEFF 		bl	strcmp
 2494              	.LVL318:
 2495 10a0 0028     		cmp	r0, #0
 2496 10a2 40F0D780 		bne	.L122
 2497              		.loc 1 551 0
 2498 10a6 022C     		cmp	r4, #2
 2499 10a8 7FF49EAA 		bne	.L45
 2500              	.LBB155:
 2501              		.loc 1 552 0
 2502 10ac 184B     		ldr	r3, .L289+4
 2503              		.loc 1 553 0
 2504 10ae 1998     		ldr	r0, [sp, #100]
 2505 10b0 1849     		ldr	r1, .L289+8
 2506              		.loc 1 552 0
 2507 10b2 1193     		str	r3, [sp, #68]	@ float
 2508              		.loc 1 553 0
ARM GAS  /tmp/ccU5UnMV.s 			page 45


 2509 10b4 11AA     		add	r2, sp, #68
 2510 10b6 FFF7FEFF 		bl	sscanf
 2511              	.LVL319:
 2512              		.loc 1 555 0
 2513 10ba DDED117A 		vldr.32	s15, [sp, #68]
 2514 10be F5EEC07A 		vcmpe.f32	s15, #0
 2515 10c2 F1EE10FA 		vmrs	APSR_nzcv, FPSCR
 2516 10c6 7FF772AA 		ble	.L227
 2517              	.LBB156:
 2518              		.loc 1 556 0
 2519 10ca 2D48     		ldr	r0, .L289+116
 2520 10cc FFF7FEFF 		bl	commands_printf
 2521              	.LVL320:
 2522              		.loc 1 557 0
 2523 10d0 0121     		movs	r1, #1
 2524 10d2 0846     		mov	r0, r1
 2525 10d4 9DED110A 		vldr.32	s0, [sp, #68]
 2526 10d8 FFF7FEFF 		bl	conf_general_detect_apply_all_foc
 2527              	.LVL321:
 2528              	.L247:
 2529              	.LBE156:
 2530              	.LBE155:
 2531              	.LBB157:
 2532              	.LBB97:
 2533              		.loc 1 618 0
 2534 10dc 0546     		mov	r5, r0
 2535              	.LVL322:
 2536              		.loc 1 620 0
 2537 10de 0146     		mov	r1, r0
 2538 10e0 2848     		ldr	r0, .L289+120
 2539              	.LVL323:
 2540 10e2 FFF7FEFF 		bl	commands_printf
 2541              	.LVL324:
 2542              		.loc 1 622 0
 2543 10e6 002D     		cmp	r5, #0
 2544 10e8 56DA     		bge	.L276
 2545              		.loc 1 644 0
 2546 10ea 15F10A0F 		cmn	r5, #10
 2547 10ee 09D0     		beq	.L277
 2548              		.loc 1 646 0
 2549 10f0 0B35     		adds	r5, r5, #11
 2550              	.LVL325:
 2551 10f2 02D1     		bne	.L149
 2552              		.loc 1 647 0
 2553 10f4 2448     		ldr	r0, .L289+124
 2554 10f6 FFF7FEFF 		bl	commands_printf
 2555              	.LVL326:
 2556              	.L149:
 2557              		.loc 1 650 0
 2558 10fa 2448     		ldr	r0, .L289+128
 2559 10fc FFF7FEFF 		bl	commands_printf
 2560              	.LVL327:
 2561 1100 FEF7E9BF 		b	.L1
 2562              	.LVL328:
 2563              	.L277:
 2564              		.loc 1 645 0
 2565 1104 2248     		ldr	r0, .L289+132
ARM GAS  /tmp/ccU5UnMV.s 			page 46


 2566 1106 FFF7FEFF 		bl	commands_printf
 2567              	.LVL329:
 2568 110a F6E7     		b	.L149
 2569              	.L290:
 2570              		.align	2
 2571              	.L289:
 2572 110c 2C0A0000 		.word	.LC114
 2573 1110 000080BF 		.word	-1082130432
 2574 1114 14050000 		.word	.LC64
 2575 1118 74090000 		.word	.LC107
 2576 111c 84090000 		.word	.LC108
 2577 1120 88090000 		.word	.LC109
 2578 1124 1B7AFF1F 		.word	536836635
 2579 1128 127AFF1F 		.word	536836626
 2580 112c 117AFF1F 		.word	536836625
 2581 1130 107AFF1F 		.word	536836624
 2582 1134 98090000 		.word	.LC110
 2583 1138 00000000 		.word	conf_general_permanent_nrf_found
 2584 113c 14000000 		.word	.LC3
 2585 1140 10000000 		.word	.LC2
 2586 1144 DC090000 		.word	.LC111
 2587 1148 18000000 		.word	.LC4
 2588 114c 400A0000 		.word	.LC115
 2589 1150 540A0000 		.word	.LC116
 2590 1154 580A0000 		.word	.LC117
 2591 1158 00000000 		.word	.LANCHOR0
 2592 115c E80A0000 		.word	.LC121
 2593 1160 000B0000 		.word	.LC122
 2594 1164 0000B443 		.word	1135869952
 2595 1168 BD378635 		.word	897988541
 2596 116c 00000000 		.word	0
 2597 1170 6F12033B 		.word	990057071
 2598 1174 280B0000 		.word	.LC125
 2599 1178 140B0000 		.word	.LC123
 2600 117c 300B0000 		.word	.LC126
 2601 1180 480B0000 		.word	.LC127
 2602 1184 600B0000 		.word	.LC128
 2603 1188 740C0000 		.word	.LC137
 2604 118c 9C0C0000 		.word	.LC138
 2605 1190 540C0000 		.word	.LC136
 2606 1194 180B0000 		.word	.LC124
 2607              	.L276:
 2608              		.loc 1 623 0
 2609 1198 8E48     		ldr	r0, .L291
 2610              		.loc 1 624 0
 2611 119a 8F4C     		ldr	r4, .L291+4
 2612              	.LVL330:
 2613              		.loc 1 626 0
 2614 119c 9FED8F8A 		vldr.32	s16, .L291+8
 2615              		.loc 1 623 0
 2616 11a0 FFF7FEFF 		bl	commands_printf
 2617              	.LVL331:
 2618              		.loc 1 624 0
 2619 11a4 FFF7FEFF 		bl	mc_interface_get_configuration
 2620              	.LVL332:
 2621 11a8 4FF4E472 		mov	r2, #456
 2622 11ac 0146     		mov	r1, r0
ARM GAS  /tmp/ccU5UnMV.s 			page 47


 2623 11ae 2046     		mov	r0, r4
 2624 11b0 FFF7FEFF 		bl	memcpy
 2625              	.LVL333:
 2626              		.loc 1 625 0
 2627 11b4 6068     		ldr	r0, [r4, #4]	@ float
 2628 11b6 FFF7FEFF 		bl	__aeabi_f2d
 2629              	.LVL334:
 2630 11ba 0246     		mov	r2, r0
 2631 11bc 0B46     		mov	r3, r1
 2632 11be 8848     		ldr	r0, .L291+12
 2633 11c0 FFF7FEFF 		bl	commands_printf
 2634              	.LVL335:
 2635              		.loc 1 626 0
 2636 11c4 D4ED387A 		vldr.32	s15, [r4, #224]
 2637 11c8 67EE887A 		vmul.f32	s15, s15, s16
 2638 11cc 17EE900A 		vmov	r0, s15
 2639 11d0 FFF7FEFF 		bl	__aeabi_f2d
 2640              	.LVL336:
 2641 11d4 0246     		mov	r2, r0
 2642 11d6 0B46     		mov	r3, r1
 2643 11d8 8248     		ldr	r0, .L291+16
 2644 11da FFF7FEFF 		bl	commands_printf
 2645              	.LVL337:
 2646              		.loc 1 627 0
 2647 11de 94ED377A 		vldr.32	s14, [r4, #220]
 2648 11e2 DFED817A 		vldr.32	s15, .L291+20
 2649 11e6 67EE277A 		vmul.f32	s15, s14, s15
 2650 11ea 17EE900A 		vmov	r0, s15
 2651 11ee FFF7FEFF 		bl	__aeabi_f2d
 2652              	.LVL338:
 2653 11f2 0246     		mov	r2, r0
 2654 11f4 0B46     		mov	r3, r1
 2655 11f6 7D48     		ldr	r0, .L291+24
 2656 11f8 FFF7FEFF 		bl	commands_printf
 2657              	.LVL339:
 2658              		.loc 1 628 0
 2659 11fc D4ED397A 		vldr.32	s15, [r4, #228]
 2660 1200 67EE887A 		vmul.f32	s15, s15, s16
 2661 1204 17EE900A 		vmov	r0, s15
 2662 1208 FFF7FEFF 		bl	__aeabi_f2d
 2663              	.LVL340:
 2664 120c 0246     		mov	r2, r0
 2665 120e 0B46     		mov	r3, r1
 2666 1210 7748     		ldr	r0, .L291+28
 2667 1212 FFF7FEFF 		bl	commands_printf
 2668              	.LVL341:
 2669              		.loc 1 629 0
 2670 1216 774B     		ldr	r3, .L291+32
 2671 1218 94F82C11 		ldrb	r1, [r4, #300]	@ zero_extendqisi2
 2672 121c 764A     		ldr	r2, .L291+36
 2673 121e 7748     		ldr	r0, .L291+40
 2674 1220 0029     		cmp	r1, #0
 2675 1222 0CBF     		ite	eq
 2676 1224 1146     		moveq	r1, r2
 2677 1226 1946     		movne	r1, r3
 2678 1228 FFF7FEFF 		bl	commands_printf
 2679              	.LVL342:
ARM GAS  /tmp/ccU5UnMV.s 			page 48


 2680              		.loc 1 630 0
 2681 122c 94F82C31 		ldrb	r3, [r4, #300]	@ zero_extendqisi2
 2682 1230 43B1     		cbz	r3, .L143
 2683              		.loc 1 631 0
 2684 1232 D4F83001 		ldr	r0, [r4, #304]	@ float
 2685 1236 FFF7FEFF 		bl	__aeabi_f2d
 2686              	.LVL343:
 2687 123a 0246     		mov	r2, r0
 2688 123c 0B46     		mov	r3, r1
 2689 123e 7048     		ldr	r0, .L291+44
 2690 1240 FFF7FEFF 		bl	commands_printf
 2691              	.LVL344:
 2692              	.L143:
 2693              		.loc 1 634 0
 2694 1244 002D     		cmp	r5, #0
 2695 1246 54D0     		beq	.L233
 2696              		.loc 1 636 0
 2697 1248 012D     		cmp	r5, #1
 2698 124a 48D0     		beq	.L232
 2699              		.loc 1 638 0
 2700 124c 022D     		cmp	r5, #2
 2701 124e 4BD0     		beq	.L231
 2702              		.loc 1 641 0
 2703 1250 2946     		mov	r1, r5
 2704 1252 92E6     		b	.L235
 2705              	.LVL345:
 2706              	.L122:
 2707              	.LBE97:
 2708              	.LBE157:
 2709              		.loc 1 597 0
 2710 1254 6B49     		ldr	r1, .L291+48
 2711 1256 2846     		mov	r0, r5
 2712 1258 FFF7FEFF 		bl	strcmp
 2713              	.LVL346:
 2714 125c 0646     		mov	r6, r0
 2715 125e B0B9     		cbnz	r0, .L134
 2716              	.LBB158:
 2717              	.LBB152:
 2718              		.loc 1 601 0
 2719 1260 694F     		ldr	r7, .L291+52
 2720              	.LBE152:
 2721              		.loc 1 598 0
 2722 1262 0446     		mov	r4, r0
 2723              	.LVL347:
 2724              	.L136:
 2725              	.LBB153:
 2726              		.loc 1 600 0
 2727 1264 F0B2     		uxtb	r0, r6
 2728 1266 FFF7FEFF 		bl	comm_can_ping
 2729              	.LVL348:
 2730 126a 0546     		mov	r5, r0
 2731 126c 20B1     		cbz	r0, .L135
 2732              		.loc 1 601 0
 2733 126e 3146     		mov	r1, r6
 2734 1270 3846     		mov	r0, r7
 2735 1272 FFF7FEFF 		bl	commands_printf
 2736              	.LVL349:
ARM GAS  /tmp/ccU5UnMV.s 			page 49


 2737              		.loc 1 602 0
 2738 1276 2C46     		mov	r4, r5
 2739              	.LVL350:
 2740              	.L135:
 2741              		.loc 1 599 0 discriminator 2
 2742 1278 0136     		adds	r6, r6, #1
 2743              	.LVL351:
 2744 127a FE2E     		cmp	r6, #254
 2745 127c F2D1     		bne	.L136
 2746              	.LBE153:
 2747              		.loc 1 606 0
 2748 127e 002C     		cmp	r4, #0
 2749 1280 7FF4F8AE 		bne	.L234
 2750              		.loc 1 609 0
 2751 1284 6148     		ldr	r0, .L291+56
 2752 1286 FFF7FEFF 		bl	commands_printf
 2753              	.LVL352:
 2754 128a FEF724BF 		b	.L1
 2755              	.LVL353:
 2756              	.L134:
 2757              	.LBE158:
 2758              		.loc 1 611 0
 2759 128e 6049     		ldr	r1, .L291+60
 2760 1290 2846     		mov	r0, r5
 2761 1292 FFF7FEFF 		bl	strcmp
 2762              	.LVL354:
 2763 1296 88BB     		cbnz	r0, .L138
 2764              		.loc 1 612 0
 2765 1298 022C     		cmp	r4, #2
 2766 129a 7FF4A5A9 		bne	.L45
 2767              	.LBB159:
 2768              		.loc 1 613 0
 2769 129e 5D4B     		ldr	r3, .L291+64
 2770              		.loc 1 614 0
 2771 12a0 1998     		ldr	r0, [sp, #100]
 2772 12a2 5D49     		ldr	r1, .L291+68
 2773              		.loc 1 613 0
 2774 12a4 1193     		str	r3, [sp, #68]	@ float
 2775              		.loc 1 614 0
 2776 12a6 11AA     		add	r2, sp, #68
 2777 12a8 FFF7FEFF 		bl	sscanf
 2778              	.LVL355:
 2779              		.loc 1 616 0
 2780 12ac DDED117A 		vldr.32	s15, [sp, #68]
 2781 12b0 F5EEC07A 		vcmpe.f32	s15, #0
 2782 12b4 F1EE10FA 		vmrs	APSR_nzcv, FPSCR
 2783 12b8 7FF779A9 		ble	.L227
 2784              	.LBB98:
 2785              		.loc 1 617 0
 2786 12bc 5748     		ldr	r0, .L291+72
 2787 12be FFF7FEFF 		bl	commands_printf
 2788              	.LVL356:
 2789              		.loc 1 618 0
 2790 12c2 9FED572A 		vldr.32	s4, .L291+76
 2791 12c6 9DED110A 		vldr.32	s0, [sp, #68]
 2792 12ca F0EE421A 		vmov.f32	s3, s4
 2793 12ce B0EE421A 		vmov.f32	s2, s4
ARM GAS  /tmp/ccU5UnMV.s 			page 50


 2794 12d2 F0EE420A 		vmov.f32	s1, s4
 2795 12d6 0120     		movs	r0, #1
 2796 12d8 FFF7FEFF 		bl	conf_general_detect_apply_all_foc_can
 2797              	.LVL357:
 2798 12dc FEE6     		b	.L247
 2799              	.LVL358:
 2800              	.L232:
 2801              		.loc 1 637 0
 2802 12de 5148     		ldr	r0, .L291+80
 2803 12e0 FFF7FEFF 		bl	commands_printf
 2804              	.LVL359:
 2805 12e4 FEF7F7BE 		b	.L1
 2806              	.L231:
 2807              		.loc 1 639 0
 2808 12e8 4F48     		ldr	r0, .L291+84
 2809 12ea FFF7FEFF 		bl	commands_printf
 2810              	.LVL360:
 2811 12ee FEF7F2BE 		b	.L1
 2812              	.L233:
 2813              		.loc 1 635 0
 2814 12f2 4E48     		ldr	r0, .L291+88
 2815 12f4 FFF7FEFF 		bl	commands_printf
 2816              	.LVL361:
 2817 12f8 FEF7EDBE 		b	.L1
 2818              	.LVL362:
 2819              	.L138:
 2820              	.LBE98:
 2821              	.LBE159:
 2822              		.loc 1 658 0
 2823 12fc 4C49     		ldr	r1, .L291+92
 2824 12fe 2846     		mov	r0, r5
 2825 1300 FFF7FEFF 		bl	strcmp
 2826              	.LVL363:
 2827 1304 0028     		cmp	r0, #0
 2828 1306 49D1     		bne	.L150
 2829              		.loc 1 659 0
 2830 1308 334C     		ldr	r4, .L291+4
 2831              	.LVL364:
 2832 130a 94F89831 		ldrb	r3, [r4, #408]	@ zero_extendqisi2
 2833 130e 023B     		subs	r3, r3, #2
 2834 1310 012B     		cmp	r3, #1
 2835 1312 16D8     		bhi	.L151
 2836              		.loc 1 662 0
 2837 1314 FFF7FEFF 		bl	encoder_spi_get_val
 2838              	.LVL365:
 2839 1318 0546     		mov	r5, r0
 2840              		.loc 1 661 0
 2841 131a FFF7FEFF 		bl	encoder_spi_get_error_cnt
 2842              	.LVL366:
 2843 131e 0646     		mov	r6, r0
 2844              		.loc 1 664 0
 2845 1320 FFF7FEFF 		bl	encoder_spi_get_error_rate
 2846              	.LVL367:
 2847 1324 10EE100A 		vmov	r0, s0
 2848 1328 FFF7FEFF 		bl	__aeabi_f2d
 2849              	.LVL368:
 2850              		.loc 1 661 0
ARM GAS  /tmp/ccU5UnMV.s 			page 51


 2851 132c 0022     		movs	r2, #0
 2852 132e 414B     		ldr	r3, .L291+96
 2853 1330 FFF7FEFF 		bl	__aeabi_dmul
 2854              	.LVL369:
 2855 1334 3246     		mov	r2, r6
 2856 1336 CDE90001 		strd	r0, [sp]
 2857 133a 2946     		mov	r1, r5
 2858 133c 3E48     		ldr	r0, .L291+100
 2859 133e FFF7FEFF 		bl	commands_printf
 2860              	.LVL370:
 2861              	.L151:
 2862              		.loc 1 667 0
 2863 1342 94F89831 		ldrb	r3, [r4, #408]	@ zero_extendqisi2
 2864 1346 042B     		cmp	r3, #4
 2865 1348 7EF4C5AE 		bne	.L1
 2866              		.loc 1 668 0
 2867 134c FFF7FEFF 		bl	encoder_sincos_get_signal_below_min_error_cnt
 2868              	.LVL371:
 2869 1350 0446     		mov	r4, r0
 2870              		.loc 1 670 0
 2871 1352 FFF7FEFF 		bl	encoder_sincos_get_signal_below_min_error_rate
 2872              	.LVL372:
 2873 1356 10EE100A 		vmov	r0, s0
 2874 135a FFF7FEFF 		bl	__aeabi_f2d
 2875              	.LVL373:
 2876              		.loc 1 668 0
 2877 135e 0022     		movs	r2, #0
 2878 1360 344B     		ldr	r3, .L291+96
 2879 1362 FFF7FEFF 		bl	__aeabi_dmul
 2880              	.LVL374:
 2881 1366 0246     		mov	r2, r0
 2882 1368 0B46     		mov	r3, r1
 2883 136a 3448     		ldr	r0, .L291+104
 2884 136c 2146     		mov	r1, r4
 2885 136e FFF7FEFF 		bl	commands_printf
 2886              	.LVL375:
 2887              		.loc 1 672 0
 2888 1372 FFF7FEFF 		bl	encoder_sincos_get_signal_above_max_error_cnt
 2889              	.LVL376:
 2890 1376 0446     		mov	r4, r0
 2891              		.loc 1 674 0
 2892 1378 FFF7FEFF 		bl	encoder_sincos_get_signal_above_max_error_rate
 2893              	.LVL377:
 2894 137c 10EE100A 		vmov	r0, s0
 2895 1380 FFF7FEFF 		bl	__aeabi_f2d
 2896              	.LVL378:
 2897              		.loc 1 672 0
 2898 1384 0022     		movs	r2, #0
 2899 1386 2B4B     		ldr	r3, .L291+96
 2900 1388 FFF7FEFF 		bl	__aeabi_dmul
 2901              	.LVL379:
 2902 138c 0246     		mov	r2, r0
 2903 138e 0B46     		mov	r3, r1
 2904 1390 2B48     		ldr	r0, .L291+108
 2905 1392 2146     		mov	r1, r4
 2906 1394 FFF7FEFF 		bl	commands_printf
 2907              	.LVL380:
ARM GAS  /tmp/ccU5UnMV.s 			page 52


 2908 1398 FEF79DBE 		b	.L1
 2909              	.LVL381:
 2910              	.L150:
 2911              		.loc 1 679 0
 2912 139c 2949     		ldr	r1, .L291+112
 2913 139e 2846     		mov	r0, r5
 2914 13a0 FFF7FEFF 		bl	strcmp
 2915              	.LVL382:
 2916 13a4 0646     		mov	r6, r0
 2917 13a6 0028     		cmp	r0, #0
 2918 13a8 52D0     		beq	.L152
 2919              	.LBB160:
 2920              	.LBB161:
 2921              		.loc 1 808 0
 2922 13aa 274B     		ldr	r3, .L291+116
 2923              		.loc 1 809 0
 2924 13ac 274E     		ldr	r6, .L291+120
 2925              		.loc 1 808 0
 2926 13ae D3F80090 		ldr	r9, [r3]
 2927 13b2 0027     		movs	r7, #0
 2928              	.L153:
 2929              	.LVL383:
 2930              		.loc 1 808 0 is_stmt 0 discriminator 1
 2931 13b4 B945     		cmp	r9, r7
 2932              		.loc 1 809 0 is_stmt 1 discriminator 1
 2933 13b6 4FEA0718 		lsl	r8, r7, #4
 2934 13ba 2846     		mov	r0, r5
 2935              		.loc 1 808 0 discriminator 1
 2936 13bc 40F35581 		ble	.L278
 2937              		.loc 1 809 0
 2938 13c0 58F80610 		ldr	r1, [r8, r6]
 2939 13c4 FFF7FEFF 		bl	strcmp
 2940              	.LVL384:
 2941 13c8 0028     		cmp	r0, #0
 2942 13ca 00F04781 		beq	.L279
 2943              		.loc 1 808 0 discriminator 2
 2944 13ce 0137     		adds	r7, r7, #1
 2945              	.LVL385:
 2946 13d0 F0E7     		b	.L153
 2947              	.L292:
 2948 13d2 00BF     		.align	2
 2949              	.L291:
 2950 13d4 680B0000 		.word	.LC129
 2951 13d8 00000000 		.word	.LANCHOR0
 2952 13dc 00007A44 		.word	1148846080
 2953 13e0 940B0000 		.word	.LC130
 2954 13e4 B40B0000 		.word	.LC131
 2955 13e8 00247449 		.word	1232348160
 2956 13ec D40B0000 		.word	.LC132
 2957 13f0 F80B0000 		.word	.LC133
 2958 13f4 00000000 		.word	.LC0
 2959 13f8 08000000 		.word	.LC1
 2960 13fc 180C0000 		.word	.LC134
 2961 1400 340C0000 		.word	.LC135
 2962 1404 B00C0000 		.word	.LC139
 2963 1408 BC0C0000 		.word	.LC140
 2964 140c D40C0000 		.word	.LC141
ARM GAS  /tmp/ccU5UnMV.s 			page 53


 2965 1410 EC0C0000 		.word	.LC142
 2966 1414 000080BF 		.word	-1082130432
 2967 1418 14050000 		.word	.LC64
 2968 141c 480B0000 		.word	.LC127
 2969 1420 00000000 		.word	0
 2970 1424 A00A0000 		.word	.LC119
 2971 1428 C40A0000 		.word	.LC120
 2972 142c 740A0000 		.word	.LC118
 2973 1430 080D0000 		.word	.LC143
 2974 1434 00005940 		.word	1079574528
 2975 1438 100D0000 		.word	.LC144
 2976 143c 480D0000 		.word	.LC145
 2977 1440 980D0000 		.word	.LC146
 2978 1444 E80D0000 		.word	.LC147
 2979 1448 00000000 		.word	.LANCHOR5
 2980 144c 00000000 		.word	.LANCHOR6
 2981              	.LVL386:
 2982              	.L152:
 2983              	.LBE161:
 2984              	.LBE160:
 2985              		.loc 1 680 0
 2986 1450 8F48     		ldr	r0, .L293
 2987 1452 904C     		ldr	r4, .L293+4
 2988              	.LVL387:
 2989 1454 DFF87C93 		ldr	r9, .L293+324
 2990              	.LBB163:
 2991              		.loc 1 793 0
 2992 1458 DFF87C83 		ldr	r8, .L293+328
 2993              		.loc 1 801 0
 2994 145c 8E4F     		ldr	r7, .L293+8
 2995              		.loc 1 799 0
 2996 145e 8F4D     		ldr	r5, .L293+12
 2997              	.LBE163:
 2998              		.loc 1 680 0
 2999 1460 FFF7FEFF 		bl	commands_printf
 3000              	.LVL388:
 3001              		.loc 1 681 0
 3002 1464 8E48     		ldr	r0, .L293+16
 3003 1466 FFF7FEFF 		bl	commands_printf
 3004              	.LVL389:
 3005              		.loc 1 682 0
 3006 146a 8E48     		ldr	r0, .L293+20
 3007 146c FFF7FEFF 		bl	commands_printf
 3008              	.LVL390:
 3009              		.loc 1 684 0
 3010 1470 8D48     		ldr	r0, .L293+24
 3011 1472 FFF7FEFF 		bl	commands_printf
 3012              	.LVL391:
 3013              		.loc 1 685 0
 3014 1476 8D48     		ldr	r0, .L293+28
 3015 1478 FFF7FEFF 		bl	commands_printf
 3016              	.LVL392:
 3017              		.loc 1 687 0
 3018 147c 8C48     		ldr	r0, .L293+32
 3019 147e FFF7FEFF 		bl	commands_printf
 3020              	.LVL393:
 3021              		.loc 1 688 0
ARM GAS  /tmp/ccU5UnMV.s 			page 54


 3022 1482 8C48     		ldr	r0, .L293+36
 3023 1484 FFF7FEFF 		bl	commands_printf
 3024              	.LVL394:
 3025              		.loc 1 690 0
 3026 1488 8B48     		ldr	r0, .L293+40
 3027 148a FFF7FEFF 		bl	commands_printf
 3028              	.LVL395:
 3029              		.loc 1 691 0
 3030 148e 8B48     		ldr	r0, .L293+44
 3031 1490 FFF7FEFF 		bl	commands_printf
 3032              	.LVL396:
 3033              		.loc 1 693 0
 3034 1494 8A48     		ldr	r0, .L293+48
 3035 1496 FFF7FEFF 		bl	commands_printf
 3036              	.LVL397:
 3037              		.loc 1 694 0
 3038 149a 8A48     		ldr	r0, .L293+52
 3039 149c FFF7FEFF 		bl	commands_printf
 3040              	.LVL398:
 3041              		.loc 1 696 0
 3042 14a0 8948     		ldr	r0, .L293+56
 3043 14a2 FFF7FEFF 		bl	commands_printf
 3044              	.LVL399:
 3045              		.loc 1 697 0
 3046 14a6 8948     		ldr	r0, .L293+60
 3047 14a8 FFF7FEFF 		bl	commands_printf
 3048              	.LVL400:
 3049              		.loc 1 699 0
 3050 14ac 8848     		ldr	r0, .L293+64
 3051 14ae FFF7FEFF 		bl	commands_printf
 3052              	.LVL401:
 3053              		.loc 1 700 0
 3054 14b2 8848     		ldr	r0, .L293+68
 3055 14b4 FFF7FEFF 		bl	commands_printf
 3056              	.LVL402:
 3057              		.loc 1 702 0
 3058 14b8 8748     		ldr	r0, .L293+72
 3059 14ba FFF7FEFF 		bl	commands_printf
 3060              	.LVL403:
 3061              		.loc 1 703 0
 3062 14be 8748     		ldr	r0, .L293+76
 3063 14c0 FFF7FEFF 		bl	commands_printf
 3064              	.LVL404:
 3065              		.loc 1 705 0
 3066 14c4 8648     		ldr	r0, .L293+80
 3067 14c6 FFF7FEFF 		bl	commands_printf
 3068              	.LVL405:
 3069              		.loc 1 706 0
 3070 14ca 8648     		ldr	r0, .L293+84
 3071 14cc FFF7FEFF 		bl	commands_printf
 3072              	.LVL406:
 3073              		.loc 1 708 0
 3074 14d0 8548     		ldr	r0, .L293+88
 3075 14d2 FFF7FEFF 		bl	commands_printf
 3076              	.LVL407:
 3077              		.loc 1 709 0
 3078 14d6 8548     		ldr	r0, .L293+92
ARM GAS  /tmp/ccU5UnMV.s 			page 55


 3079 14d8 FFF7FEFF 		bl	commands_printf
 3080              	.LVL408:
 3081              		.loc 1 711 0
 3082 14dc 8448     		ldr	r0, .L293+96
 3083 14de FFF7FEFF 		bl	commands_printf
 3084              	.LVL409:
 3085              		.loc 1 712 0
 3086 14e2 8448     		ldr	r0, .L293+100
 3087 14e4 FFF7FEFF 		bl	commands_printf
 3088              	.LVL410:
 3089              		.loc 1 714 0
 3090 14e8 8348     		ldr	r0, .L293+104
 3091 14ea FFF7FEFF 		bl	commands_printf
 3092              	.LVL411:
 3093              		.loc 1 715 0
 3094 14ee 8348     		ldr	r0, .L293+108
 3095 14f0 FFF7FEFF 		bl	commands_printf
 3096              	.LVL412:
 3097              		.loc 1 717 0
 3098 14f4 8248     		ldr	r0, .L293+112
 3099 14f6 FFF7FEFF 		bl	commands_printf
 3100              	.LVL413:
 3101              		.loc 1 718 0
 3102 14fa 8248     		ldr	r0, .L293+116
 3103 14fc FFF7FEFF 		bl	commands_printf
 3104              	.LVL414:
 3105              		.loc 1 720 0
 3106 1500 8148     		ldr	r0, .L293+120
 3107 1502 FFF7FEFF 		bl	commands_printf
 3108              	.LVL415:
 3109              		.loc 1 721 0
 3110 1506 8148     		ldr	r0, .L293+124
 3111 1508 FFF7FEFF 		bl	commands_printf
 3112              	.LVL416:
 3113              		.loc 1 722 0
 3114 150c 8048     		ldr	r0, .L293+128
 3115 150e FFF7FEFF 		bl	commands_printf
 3116              	.LVL417:
 3117              		.loc 1 723 0
 3118 1512 8048     		ldr	r0, .L293+132
 3119 1514 FFF7FEFF 		bl	commands_printf
 3120              	.LVL418:
 3121              		.loc 1 725 0
 3122 1518 7F48     		ldr	r0, .L293+136
 3123 151a FFF7FEFF 		bl	commands_printf
 3124              	.LVL419:
 3125              		.loc 1 726 0
 3126 151e 7F48     		ldr	r0, .L293+140
 3127 1520 FFF7FEFF 		bl	commands_printf
 3128              	.LVL420:
 3129              		.loc 1 728 0
 3130 1524 7E48     		ldr	r0, .L293+144
 3131 1526 FFF7FEFF 		bl	commands_printf
 3132              	.LVL421:
 3133              		.loc 1 729 0
 3134 152a 7E48     		ldr	r0, .L293+148
 3135 152c FFF7FEFF 		bl	commands_printf
ARM GAS  /tmp/ccU5UnMV.s 			page 56


 3136              	.LVL422:
 3137              		.loc 1 731 0
 3138 1530 7D48     		ldr	r0, .L293+152
 3139 1532 FFF7FEFF 		bl	commands_printf
 3140              	.LVL423:
 3141              		.loc 1 732 0
 3142 1536 7D48     		ldr	r0, .L293+156
 3143 1538 FFF7FEFF 		bl	commands_printf
 3144              	.LVL424:
 3145              		.loc 1 734 0
 3146 153c 7C48     		ldr	r0, .L293+160
 3147 153e FFF7FEFF 		bl	commands_printf
 3148              	.LVL425:
 3149              		.loc 1 735 0
 3150 1542 7C48     		ldr	r0, .L293+164
 3151 1544 FFF7FEFF 		bl	commands_printf
 3152              	.LVL426:
 3153              		.loc 1 737 0
 3154 1548 7B48     		ldr	r0, .L293+168
 3155 154a FFF7FEFF 		bl	commands_printf
 3156              	.LVL427:
 3157              		.loc 1 738 0
 3158 154e 7B48     		ldr	r0, .L293+172
 3159 1550 FFF7FEFF 		bl	commands_printf
 3160              	.LVL428:
 3161              		.loc 1 740 0
 3162 1554 7A48     		ldr	r0, .L293+176
 3163 1556 FFF7FEFF 		bl	commands_printf
 3164              	.LVL429:
 3165              		.loc 1 741 0
 3166 155a 7A48     		ldr	r0, .L293+180
 3167 155c FFF7FEFF 		bl	commands_printf
 3168              	.LVL430:
 3169              		.loc 1 742 0
 3170 1560 7948     		ldr	r0, .L293+184
 3171 1562 FFF7FEFF 		bl	commands_printf
 3172              	.LVL431:
 3173              		.loc 1 743 0
 3174 1566 7948     		ldr	r0, .L293+188
 3175 1568 FFF7FEFF 		bl	commands_printf
 3176              	.LVL432:
 3177              		.loc 1 745 0
 3178 156c 7848     		ldr	r0, .L293+192
 3179 156e FFF7FEFF 		bl	commands_printf
 3180              	.LVL433:
 3181              		.loc 1 746 0
 3182 1572 7848     		ldr	r0, .L293+196
 3183 1574 FFF7FEFF 		bl	commands_printf
 3184              	.LVL434:
 3185              		.loc 1 748 0
 3186 1578 7748     		ldr	r0, .L293+200
 3187 157a FFF7FEFF 		bl	commands_printf
 3188              	.LVL435:
 3189              		.loc 1 749 0
 3190 157e 7748     		ldr	r0, .L293+204
 3191 1580 FFF7FEFF 		bl	commands_printf
 3192              	.LVL436:
ARM GAS  /tmp/ccU5UnMV.s 			page 57


 3193              		.loc 1 751 0
 3194 1584 7648     		ldr	r0, .L293+208
 3195 1586 FFF7FEFF 		bl	commands_printf
 3196              	.LVL437:
 3197              		.loc 1 752 0
 3198 158a 7648     		ldr	r0, .L293+212
 3199 158c FFF7FEFF 		bl	commands_printf
 3200              	.LVL438:
 3201              		.loc 1 753 0
 3202 1590 7548     		ldr	r0, .L293+216
 3203 1592 FFF7FEFF 		bl	commands_printf
 3204              	.LVL439:
 3205              		.loc 1 754 0
 3206 1596 6D48     		ldr	r0, .L293+188
 3207 1598 FFF7FEFF 		bl	commands_printf
 3208              	.LVL440:
 3209              		.loc 1 756 0
 3210 159c 7348     		ldr	r0, .L293+220
 3211 159e FFF7FEFF 		bl	commands_printf
 3212              	.LVL441:
 3213              		.loc 1 757 0
 3214 15a2 7348     		ldr	r0, .L293+224
 3215 15a4 FFF7FEFF 		bl	commands_printf
 3216              	.LVL442:
 3217              		.loc 1 759 0
 3218 15a8 7248     		ldr	r0, .L293+228
 3219 15aa FFF7FEFF 		bl	commands_printf
 3220              	.LVL443:
 3221              		.loc 1 760 0
 3222 15ae 7248     		ldr	r0, .L293+232
 3223 15b0 FFF7FEFF 		bl	commands_printf
 3224              	.LVL444:
 3225              		.loc 1 762 0
 3226 15b4 7148     		ldr	r0, .L293+236
 3227 15b6 FFF7FEFF 		bl	commands_printf
 3228              	.LVL445:
 3229              		.loc 1 763 0
 3230 15ba 7148     		ldr	r0, .L293+240
 3231 15bc FFF7FEFF 		bl	commands_printf
 3232              	.LVL446:
 3233              		.loc 1 765 0
 3234 15c0 7048     		ldr	r0, .L293+244
 3235 15c2 FFF7FEFF 		bl	commands_printf
 3236              	.LVL447:
 3237              		.loc 1 766 0
 3238 15c6 7048     		ldr	r0, .L293+248
 3239 15c8 FFF7FEFF 		bl	commands_printf
 3240              	.LVL448:
 3241              		.loc 1 768 0
 3242 15cc 6F48     		ldr	r0, .L293+252
 3243 15ce FFF7FEFF 		bl	commands_printf
 3244              	.LVL449:
 3245              		.loc 1 769 0
 3246 15d2 6F48     		ldr	r0, .L293+256
 3247 15d4 FFF7FEFF 		bl	commands_printf
 3248              	.LVL450:
 3249              		.loc 1 771 0
ARM GAS  /tmp/ccU5UnMV.s 			page 58


 3250 15d8 6E48     		ldr	r0, .L293+260
 3251 15da FFF7FEFF 		bl	commands_printf
 3252              	.LVL451:
 3253              		.loc 1 772 0
 3254 15de 6E48     		ldr	r0, .L293+264
 3255 15e0 FFF7FEFF 		bl	commands_printf
 3256              	.LVL452:
 3257              		.loc 1 774 0
 3258 15e4 6D48     		ldr	r0, .L293+268
 3259 15e6 FFF7FEFF 		bl	commands_printf
 3260              	.LVL453:
 3261              		.loc 1 775 0
 3262 15ea 6D48     		ldr	r0, .L293+272
 3263 15ec FFF7FEFF 		bl	commands_printf
 3264              	.LVL454:
 3265              		.loc 1 776 0
 3266 15f0 6C48     		ldr	r0, .L293+276
 3267 15f2 FFF7FEFF 		bl	commands_printf
 3268              	.LVL455:
 3269              		.loc 1 778 0
 3270 15f6 6C48     		ldr	r0, .L293+280
 3271 15f8 FFF7FEFF 		bl	commands_printf
 3272              	.LVL456:
 3273              		.loc 1 779 0
 3274 15fc 6B48     		ldr	r0, .L293+284
 3275 15fe FFF7FEFF 		bl	commands_printf
 3276              	.LVL457:
 3277              		.loc 1 781 0
 3278 1602 6B48     		ldr	r0, .L293+288
 3279 1604 FFF7FEFF 		bl	commands_printf
 3280              	.LVL458:
 3281              		.loc 1 782 0
 3282 1608 6A48     		ldr	r0, .L293+292
 3283 160a FFF7FEFF 		bl	commands_printf
 3284              	.LVL459:
 3285              		.loc 1 784 0
 3286 160e 6A48     		ldr	r0, .L293+296
 3287 1610 FFF7FEFF 		bl	commands_printf
 3288              	.LVL460:
 3289              		.loc 1 785 0
 3290 1614 6948     		ldr	r0, .L293+300
 3291 1616 FFF7FEFF 		bl	commands_printf
 3292              	.LVL461:
 3293              		.loc 1 786 0
 3294 161a 6948     		ldr	r0, .L293+304
 3295 161c FFF7FEFF 		bl	commands_printf
 3296              	.LVL462:
 3297              		.loc 1 788 0
 3298 1620 6848     		ldr	r0, .L293+308
 3299 1622 FFF7FEFF 		bl	commands_printf
 3300              	.LVL463:
 3301              		.loc 1 789 0
 3302 1626 6848     		ldr	r0, .L293+312
 3303 1628 FFF7FEFF 		bl	commands_printf
 3304              	.LVL464:
 3305              	.L154:
 3306              	.LBB164:
ARM GAS  /tmp/ccU5UnMV.s 			page 59


 3307              		.loc 1 791 0 discriminator 1
 3308 162c D9F80030 		ldr	r3, [r9]
 3309 1630 B342     		cmp	r3, r6
 3310              		.loc 1 793 0 discriminator 1
 3311 1632 4046     		mov	r0, r8
 3312              		.loc 1 791 0 discriminator 1
 3313 1634 27DD     		ble	.L280
 3314              		.loc 1 792 0
 3315 1636 D4F808C0 		ldr	ip, [r4, #8]
 3316 163a 2368     		ldr	r3, [r4]
 3317              		.loc 1 793 0
 3318 163c 6246     		mov	r2, ip
 3319 163e 1946     		mov	r1, r3
 3320              		.loc 1 792 0
 3321 1640 BCF1000F 		cmp	ip, #0
 3322 1644 1BD0     		beq	.L155
 3323              		.loc 1 793 0
 3324 1646 FFF7FEFF 		bl	commands_printf
 3325              	.LVL465:
 3326              	.L156:
 3327              		.loc 1 798 0
 3328 164a 6368     		ldr	r3, [r4, #4]
 3329              		.loc 1 799 0
 3330 164c 2846     		mov	r0, r5
 3331 164e 1946     		mov	r1, r3
 3332              		.loc 1 798 0
 3333 1650 8BB1     		cbz	r3, .L157
 3334              		.loc 1 799 0
 3335 1652 FFF7FEFF 		bl	commands_printf
 3336              	.LVL466:
 3337              	.L158:
 3338              		.loc 1 791 0 discriminator 2
 3339 1656 0136     		adds	r6, r6, #1
 3340              	.LVL467:
 3341 1658 1034     		adds	r4, r4, #16
 3342 165a E7E7     		b	.L154
 3343              	.LVL468:
 3344              	.L279:
 3345              	.LBE164:
 3346              	.LBB165:
 3347              	.LBB162:
 3348              		.loc 1 810 0
 3349 165c 4644     		add	r6, r6, r8
 3350 165e 18A9     		add	r1, sp, #96
 3351 1660 F368     		ldr	r3, [r6, #12]
 3352 1662 2046     		mov	r0, r4
 3353 1664 9847     		blx	r3
 3354              	.LVL469:
 3355 1666 FEF736BD 		b	.L1
 3356              	.LVL470:
 3357              	.L278:
 3358              	.LBE162:
 3359              		.loc 1 817 0
 3360 166a 2946     		mov	r1, r5
 3361 166c 5748     		ldr	r0, .L293+316
 3362 166e FFF7FEFF 		bl	commands_printf
 3363              	.LVL471:
ARM GAS  /tmp/ccU5UnMV.s 			page 60


 3364 1672 FEF730BD 		b	.L1
 3365              	.LVL472:
 3366              	.L157:
 3367              	.LBE165:
 3368              	.LBB166:
 3369              		.loc 1 801 0
 3370 1676 3846     		mov	r0, r7
 3371 1678 FFF7FEFF 		bl	commands_printf
 3372              	.LVL473:
 3373 167c EBE7     		b	.L158
 3374              	.L155:
 3375              		.loc 1 795 0
 3376 167e 1846     		mov	r0, r3
 3377 1680 FFF7FEFF 		bl	commands_printf
 3378              	.LVL474:
 3379 1684 E1E7     		b	.L156
 3380              	.L280:
 3381              	.LBE166:
 3382              		.loc 1 805 0
 3383 1686 5248     		ldr	r0, .L293+320
 3384 1688 FFF7FEFF 		bl	commands_printf
 3385              	.LVL475:
 3386 168c FEF723BD 		b	.L1
 3387              	.L294:
 3388              		.align	2
 3389              	.L293:
 3390 1690 F00D0000 		.word	.LC148
 3391 1694 00000000 		.word	.LANCHOR6
 3392 1698 74180000 		.word	.LC206
 3393 169c 6C180000 		.word	.LC205
 3394 16a0 E80D0000 		.word	.LC147
 3395 16a4 040E0000 		.word	.LC149
 3396 16a8 34000000 		.word	.LC6
 3397 16ac 180E0000 		.word	.LC150
 3398 16b0 44000000 		.word	.LC8
 3399 16b4 440E0000 		.word	.LC151
 3400 16b8 5C000000 		.word	.LC10
 3401 16bc 580E0000 		.word	.LC152
 3402 16c0 E0000000 		.word	.LC14
 3403 16c4 880E0000 		.word	.LC153
 3404 16c8 04010000 		.word	.LC16
 3405 16cc AC0E0000 		.word	.LC154
 3406 16d0 5C010000 		.word	.LC20
 3407 16d4 C00E0000 		.word	.LC155
 3408 16d8 18020000 		.word	.LC25
 3409 16dc D40E0000 		.word	.LC156
 3410 16e0 24020000 		.word	.LC27
 3411 16e4 F40E0000 		.word	.LC157
 3412 16e8 EC030000 		.word	.LC45
 3413 16ec 380F0000 		.word	.LC158
 3414 16f0 0C040000 		.word	.LC47
 3415 16f4 5C0F0000 		.word	.LC159
 3416 16f8 2C040000 		.word	.LC49
 3417 16fc 780F0000 		.word	.LC160
 3418 1700 E4040000 		.word	.LC61
 3419 1704 980F0000 		.word	.LC161
 3420 1708 B40F0000 		.word	.LC162
ARM GAS  /tmp/ccU5UnMV.s 			page 61


 3421 170c E00F0000 		.word	.LC163
 3422 1710 24100000 		.word	.LC164
 3423 1714 60100000 		.word	.LC165
 3424 1718 84060000 		.word	.LC75
 3425 171c 88100000 		.word	.LC166
 3426 1720 E0060000 		.word	.LC79
 3427 1724 A8100000 		.word	.LC167
 3428 1728 E4100000 		.word	.LC168
 3429 172c 04110000 		.word	.LC169
 3430 1730 48110000 		.word	.LC170
 3431 1734 60110000 		.word	.LC171
 3432 1738 A0110000 		.word	.LC172
 3433 173c B4110000 		.word	.LC173
 3434 1740 08120000 		.word	.LC174
 3435 1744 40120000 		.word	.LC175
 3436 1748 80120000 		.word	.LC176
 3437 174c AC120000 		.word	.LC177
 3438 1750 E4080000 		.word	.LC100
 3439 1754 E4120000 		.word	.LC178
 3440 1758 3C130000 		.word	.LC179
 3441 175c 58130000 		.word	.LC180
 3442 1760 90130000 		.word	.LC181
 3443 1764 D8130000 		.word	.LC182
 3444 1768 18140000 		.word	.LC183
 3445 176c 5C090000 		.word	.LC105
 3446 1770 44140000 		.word	.LC184
 3447 1774 68090000 		.word	.LC106
 3448 1778 68140000 		.word	.LC185
 3449 177c 94140000 		.word	.LC186
 3450 1780 B4140000 		.word	.LC187
 3451 1784 E4140000 		.word	.LC188
 3452 1788 04150000 		.word	.LC189
 3453 178c 34150000 		.word	.LC190
 3454 1790 54150000 		.word	.LC191
 3455 1794 7C150000 		.word	.LC192
 3456 1798 A0150000 		.word	.LC193
 3457 179c E4150000 		.word	.LC194
 3458 17a0 1C160000 		.word	.LC195
 3459 17a4 68160000 		.word	.LC196
 3460 17a8 90160000 		.word	.LC197
 3461 17ac B8160000 		.word	.LC198
 3462 17b0 B00C0000 		.word	.LC139
 3463 17b4 10170000 		.word	.LC199
 3464 17b8 5C170000 		.word	.LC200
 3465 17bc 88170000 		.word	.LC201
 3466 17c0 E4170000 		.word	.LC202
 3467 17c4 080D0000 		.word	.LC143
 3468 17c8 20180000 		.word	.LC203
 3469 17cc A4180000 		.word	.LC207
 3470 17d0 18000000 		.word	.LC4
 3471 17d4 00000000 		.word	.LANCHOR5
 3472 17d8 64180000 		.word	.LC204
 3473              		.cfi_endproc
 3474              	.LFE259:
 3475              		.size	terminal_process_string, .-terminal_process_string
 3476              		.section	.text.terminal_add_fault_data,"ax",%progbits
 3477              		.align	1
ARM GAS  /tmp/ccU5UnMV.s 			page 62


 3478              		.p2align 4,,15
 3479              		.global	terminal_add_fault_data
 3480              		.syntax unified
 3481              		.thumb
 3482              		.thumb_func
 3483              		.fpu fpv4-sp-d16
 3484              		.type	terminal_add_fault_data, %function
 3485              	terminal_add_fault_data:
 3486              	.LFB260:
 3487              		.loc 1 823 0
 3488              		.cfi_startproc
 3489              		@ args = 0, pretend = 0, frame = 0
 3490              		@ frame_needed = 0, uses_anonymous_args = 0
 3491              		@ link register save eliminated.
 3492              	.LVL476:
 3493 0000 F0B4     		push	{r4, r5, r6, r7}
 3494              		.cfi_def_cfa_offset 16
 3495              		.cfi_offset 4, -16
 3496              		.cfi_offset 5, -12
 3497              		.cfi_offset 6, -8
 3498              		.cfi_offset 7, -4
 3499              		.loc 1 824 0
 3500 0002 0E4F     		ldr	r7, .L298
 3501 0004 0E4C     		ldr	r4, .L298+4
 3502 0006 3E68     		ldr	r6, [r7]
 3503 0008 0546     		mov	r5, r0
 3504 000a 0FCD     		ldmia	r5!, {r0, r1, r2, r3}
 3505              	.LVL477:
 3506 000c 06F1010C 		add	ip, r6, #1
 3507 0010 C6EB0616 		rsb	r6, r6, r6, lsl #4
 3508 0014 04EB8604 		add	r4, r4, r6, lsl #2
 3509 0018 C7F800C0 		str	ip, [r7]
 3510 001c 0FC4     		stmia	r4!, {r0, r1, r2, r3}
 3511 001e 0FCD     		ldmia	r5!, {r0, r1, r2, r3}
 3512              	.LVL478:
 3513 0020 0FC4     		stmia	r4!, {r0, r1, r2, r3}
 3514 0022 0FCD     		ldmia	r5!, {r0, r1, r2, r3}
 3515              	.LVL479:
 3516 0024 0FC4     		stmia	r4!, {r0, r1, r2, r3}
 3517 0026 95E80700 		ldm	r5, {r0, r1, r2}
 3518 002a 84E80700 		stm	r4, {r0, r1, r2}
 3519              		.loc 1 825 0
 3520 002e 3B68     		ldr	r3, [r7]
 3521 0030 182B     		cmp	r3, #24
 3522              		.loc 1 826 0
 3523 0032 C4BF     		itt	gt
 3524 0034 0023     		movgt	r3, #0
 3525 0036 3B60     		strgt	r3, [r7]
 3526              		.loc 1 828 0
 3527 0038 F0BC     		pop	{r4, r5, r6, r7}
 3528              		.cfi_restore 7
 3529              		.cfi_restore 6
 3530              		.cfi_restore 5
 3531              		.cfi_restore 4
 3532              		.cfi_def_cfa_offset 0
 3533              	.LVL480:
 3534 003a 7047     		bx	lr
ARM GAS  /tmp/ccU5UnMV.s 			page 63


 3535              	.L299:
 3536              		.align	2
 3537              	.L298:
 3538 003c 00000000 		.word	.LANCHOR3
 3539 0040 00000000 		.word	.LANCHOR4
 3540              		.cfi_endproc
 3541              	.LFE260:
 3542              		.size	terminal_add_fault_data, .-terminal_add_fault_data
 3543              		.section	.text.terminal_register_command_callback,"ax",%progbits
 3544              		.align	1
 3545              		.p2align 4,,15
 3546              		.global	terminal_register_command_callback
 3547              		.syntax unified
 3548              		.thumb
 3549              		.thumb_func
 3550              		.fpu fpv4-sp-d16
 3551              		.type	terminal_register_command_callback, %function
 3552              	terminal_register_command_callback:
 3553              	.LFB261:
 3554              		.loc 1 851 0
 3555              		.cfi_startproc
 3556              		@ args = 0, pretend = 0, frame = 0
 3557              		@ frame_needed = 0, uses_anonymous_args = 0
 3558              	.LVL481:
 3559 0000 2DE9F84F 		push	{r3, r4, r5, r6, r7, r8, r9, r10, fp, lr}
 3560              		.cfi_def_cfa_offset 40
 3561              		.cfi_offset 3, -40
 3562              		.cfi_offset 4, -36
 3563              		.cfi_offset 5, -32
 3564              		.cfi_offset 6, -28
 3565              		.cfi_offset 7, -24
 3566              		.cfi_offset 8, -20
 3567              		.cfi_offset 9, -16
 3568              		.cfi_offset 10, -12
 3569              		.cfi_offset 11, -8
 3570              		.cfi_offset 14, -4
 3571              		.loc 1 853 0
 3572 0004 DFF87880 		ldr	r8, .L315+4
 3573              	.LBB167:
 3574              		.loc 1 857 0
 3575 0008 1C4E     		ldr	r6, .L315
 3576              	.LBE167:
 3577              		.loc 1 853 0
 3578 000a D8F80070 		ldr	r7, [r8]
 3579              	.LVL482:
 3580              	.LBB168:
 3581              		.loc 1 855 0
 3582 000e 002F     		cmp	r7, #0
 3583              	.LBE168:
 3584              		.loc 1 851 0
 3585 0010 0546     		mov	r5, r0
 3586 0012 8B46     		mov	fp, r1
 3587 0014 9246     		mov	r10, r2
 3588 0016 9946     		mov	r9, r3
 3589              	.LBB169:
 3590              		.loc 1 855 0
 3591 0018 1ADD     		ble	.L301
ARM GAS  /tmp/ccU5UnMV.s 			page 64


 3592              		.loc 1 857 0
 3593 001a 3068     		ldr	r0, [r6]
 3594              	.LVL483:
 3595 001c 8542     		cmp	r5, r0
 3596 001e 2AD0     		beq	.L307
 3597              		.loc 1 855 0
 3598 0020 0024     		movs	r4, #0
 3599 0022 07E0     		b	.L303
 3600              	.LVL484:
 3601              	.L312:
 3602              		.loc 1 855 0 is_stmt 0 discriminator 2
 3603 0024 0134     		adds	r4, r4, #1
 3604              	.LVL485:
 3605 0026 A742     		cmp	r7, r4
 3606              		.loc 1 857 0 is_stmt 1 discriminator 2
 3607 0028 4FEA0413 		lsl	r3, r4, #4
 3608              		.loc 1 855 0 discriminator 2
 3609 002c 10D0     		beq	.L301
 3610              		.loc 1 857 0
 3611 002e F058     		ldr	r0, [r6, r3]
 3612 0030 A842     		cmp	r0, r5
 3613 0032 05D0     		beq	.L302
 3614              	.LVL486:
 3615              	.L303:
 3616              		.loc 1 863 0
 3617 0034 2946     		mov	r1, r5
 3618 0036 FFF7FEFF 		bl	strcmp
 3619              	.LVL487:
 3620 003a 0028     		cmp	r0, #0
 3621 003c F2D1     		bne	.L312
 3622 003e 2301     		lsls	r3, r4, #4
 3623              	.LVL488:
 3624              	.L302:
 3625              	.LBE169:
 3626              		.loc 1 869 0
 3627 0040 F218     		adds	r2, r6, r3
 3628 0042 F550     		str	r5, [r6, r3]
 3629              		.loc 1 871 0
 3630 0044 C2E901BA 		strd	fp, r10, [r2, #4]
 3631              		.loc 1 872 0
 3632 0048 C2F80C90 		str	r9, [r2, #12]
 3633              		.loc 1 880 0
 3634 004c BDE8F88F 		pop	{r3, r4, r5, r6, r7, r8, r9, r10, fp, pc}
 3635              	.LVL489:
 3636              	.L301:
 3637              		.loc 1 869 0
 3638 0050 3A01     		lsls	r2, r7, #4
 3639 0052 B318     		adds	r3, r6, r2
 3640              		.loc 1 875 0
 3641 0054 0137     		adds	r7, r7, #1
 3642              	.LVL490:
 3643              		.loc 1 876 0
 3644 0056 272F     		cmp	r7, #39
 3645              		.loc 1 869 0
 3646 0058 B550     		str	r5, [r6, r2]
 3647              		.loc 1 871 0
 3648 005a C3E901BA 		strd	fp, r10, [r3, #4]
ARM GAS  /tmp/ccU5UnMV.s 			page 65


 3649              		.loc 1 872 0
 3650 005e C3F80C90 		str	r9, [r3, #12]
 3651              		.loc 1 876 0
 3652 0062 04DD     		ble	.L314
 3653              		.loc 1 877 0
 3654 0064 0023     		movs	r3, #0
 3655 0066 C8F80030 		str	r3, [r8]
 3656              		.loc 1 880 0
 3657 006a BDE8F88F 		pop	{r3, r4, r5, r6, r7, r8, r9, r10, fp, pc}
 3658              	.LVL491:
 3659              	.L314:
 3660              		.loc 1 875 0
 3661 006e C8F80070 		str	r7, [r8]
 3662              		.loc 1 880 0
 3663 0072 BDE8F88F 		pop	{r3, r4, r5, r6, r7, r8, r9, r10, fp, pc}
 3664              	.LVL492:
 3665              	.L307:
 3666 0076 0023     		movs	r3, #0
 3667              	.LVL493:
 3668 0078 E2E7     		b	.L302
 3669              	.L316:
 3670 007a 00BF     		.align	2
 3671              	.L315:
 3672 007c 00000000 		.word	.LANCHOR6
 3673 0080 00000000 		.word	.LANCHOR5
 3674              		.cfi_endproc
 3675              	.LFE261:
 3676              		.size	terminal_register_command_callback, .-terminal_register_command_callback
 3677              		.section	.bss.callback_write,"aw",%nobits
 3678              		.align	2
 3679              		.set	.LANCHOR5,. + 0
 3680              		.type	callback_write, %object
 3681              		.size	callback_write, 4
 3682              	callback_write:
 3683 0000 00000000 		.space	4
 3684              		.section	.bss.callbacks,"aw",%nobits
 3685              		.align	2
 3686              		.set	.LANCHOR6,. + 0
 3687              		.type	callbacks, %object
 3688              		.size	callbacks, 640
 3689              	callbacks:
 3690 0000 00000000 		.space	640
 3690      00000000 
 3690      00000000 
 3690      00000000 
 3690      00000000 
 3691              		.section	.bss.fault_vec,"aw",%nobits
 3692              		.align	2
 3693              		.set	.LANCHOR4,. + 0
 3694              		.type	fault_vec, %object
 3695              		.size	fault_vec, 1500
 3696              	fault_vec:
 3697 0000 00000000 		.space	1500
 3697      00000000 
 3697      00000000 
 3697      00000000 
 3697      00000000 
ARM GAS  /tmp/ccU5UnMV.s 			page 66


 3698              		.section	.bss.fault_vec_write,"aw",%nobits
 3699              		.align	2
 3700              		.set	.LANCHOR3,. + 0
 3701              		.type	fault_vec_write, %object
 3702              		.size	fault_vec_write, 4
 3703              	fault_vec_write:
 3704 0000 00000000 		.space	4
 3705              		.section	.bss.mcconf.13222,"aw",%nobits
 3706              		.align	2
 3707              		.set	.LANCHOR0,. + 0
 3708              		.type	mcconf.13222, %object
 3709              		.size	mcconf.13222, 456
 3710              	mcconf.13222:
 3711 0000 00000000 		.space	456
 3711      00000000 
 3711      00000000 
 3711      00000000 
 3711      00000000 
 3712              		.section	.bss.mcconf_old.13223,"aw",%nobits
 3713              		.align	2
 3714              		.set	.LANCHOR1,. + 0
 3715              		.type	mcconf_old.13223, %object
 3716              		.size	mcconf_old.13223, 456
 3717              	mcconf_old.13223:
 3718 0000 00000000 		.space	456
 3718      00000000 
 3718      00000000 
 3718      00000000 
 3718      00000000 
 3719              		.section	.rodata.states.13227,"a",%progbits
 3720              		.align	2
 3721              		.set	.LANCHOR2,. + 0
 3722              		.type	states.13227, %object
 3723              		.size	states.13227, 64
 3724              	states.13227:
 3725 0000 00000000 		.word	.LC208
 3726 0004 08000000 		.word	.LC209
 3727 0008 10000000 		.word	.LC210
 3728 000c 18000000 		.word	.LC211
 3729 0010 24000000 		.word	.LC212
 3730 0014 2C000000 		.word	.LC213
 3731 0018 34000000 		.word	.LC214
 3732 001c 3C000000 		.word	.LC215
 3733 0020 44000000 		.word	.LC216
 3734 0024 50000000 		.word	.LC217
 3735 0028 58000000 		.word	.LC218
 3736 002c 60000000 		.word	.LC219
 3737 0030 6C000000 		.word	.LC220
 3738 0034 74000000 		.word	.LC221
 3739 0038 7C000000 		.word	.LC222
 3740 003c 84000000 		.word	.LC223
 3741              		.section	.rodata.str1.4,"aMS",%progbits,1
 3742              		.align	2
 3743              	.LC208:
 3744 0000 52454144 		.ascii	"READY\000"
 3744      5900
 3745 0006 0000     		.space	2
ARM GAS  /tmp/ccU5UnMV.s 			page 67


 3746              	.LC209:
 3747 0008 43555252 		.ascii	"CURRENT\000"
 3747      454E5400 
 3748              	.LC210:
 3749 0010 57545354 		.ascii	"WTSTART\000"
 3749      41525400 
 3750              	.LC211:
 3751 0018 53555350 		.ascii	"SUSPENDED\000"
 3751      454E4445 
 3751      4400
 3752 0022 0000     		.space	2
 3753              	.LC212:
 3754 0024 51554555 		.ascii	"QUEUED\000"
 3754      454400
 3755 002b 00       		.space	1
 3756              	.LC213:
 3757 002c 57545345 		.ascii	"WTSEM\000"
 3757      4D00
 3758 0032 0000     		.space	2
 3759              	.LC214:
 3760 0034 57544D54 		.ascii	"WTMTX\000"
 3760      5800
 3761 003a 0000     		.space	2
 3762              	.LC215:
 3763 003c 5754434F 		.ascii	"WTCOND\000"
 3763      4E4400
 3764 0043 00       		.space	1
 3765              	.LC216:
 3766 0044 534C4545 		.ascii	"SLEEPING\000"
 3766      50494E47 
 3766      00
 3767 004d 000000   		.space	3
 3768              	.LC217:
 3769 0050 57544558 		.ascii	"WTEXIT\000"
 3769      495400
 3770 0057 00       		.space	1
 3771              	.LC218:
 3772 0058 57544F52 		.ascii	"WTOREVT\000"
 3772      45565400 
 3773              	.LC219:
 3774 0060 5754414E 		.ascii	"WTANDEVT\000"
 3774      44455654 
 3774      00
 3775 0069 000000   		.space	3
 3776              	.LC220:
 3777 006c 534E444D 		.ascii	"SNDMSGQ\000"
 3777      53475100 
 3778              	.LC221:
 3779 0074 534E444D 		.ascii	"SNDMSG\000"
 3779      534700
 3780 007b 00       		.space	1
 3781              	.LC222:
 3782 007c 57544D53 		.ascii	"WTMSG\000"
 3782      4700
 3783 0082 0000     		.space	2
 3784              	.LC223:
 3785 0084 46494E41 		.ascii	"FINAL\000"
ARM GAS  /tmp/ccU5UnMV.s 			page 68


 3785      4C00
 3786              		.section	.rodata.terminal_process_string.str1.4,"aMS",%progbits,1
 3787              		.align	2
 3788              	.LC0:
 3789 0000 74727565 		.ascii	"true\000"
 3789      00
 3790 0005 000000   		.space	3
 3791              	.LC1:
 3792 0008 66616C73 		.ascii	"false\000"
 3792      6500
 3793 000e 0000     		.space	2
 3794              	.LC2:
 3795 0010 59657300 		.ascii	"Yes\000"
 3796              	.LC3:
 3797 0014 4E6F00   		.ascii	"No\000"
 3798 0017 00       		.space	1
 3799              	.LC4:
 3800 0018 2000     		.ascii	" \000"
 3801 001a 0000     		.space	2
 3802              	.LC5:
 3803 001c 4E6F2063 		.ascii	"No command received\012\000"
 3803      6F6D6D61 
 3803      6E642072 
 3803      65636569 
 3803      7665640A 
 3804 0031 000000   		.space	3
 3805              	.LC6:
 3806 0034 70696E67 		.ascii	"ping\000"
 3806      00
 3807 0039 000000   		.space	3
 3808              	.LC7:
 3809 003c 706F6E67 		.ascii	"pong\012\000"
 3809      0A00
 3810 0042 0000     		.space	2
 3811              	.LC8:
 3812 0044 73746F70 		.ascii	"stop\000"
 3812      00
 3813 0049 000000   		.space	3
 3814              	.LC9:
 3815 004c 4D6F746F 		.ascii	"Motor stopped\012\000"
 3815      72207374 
 3815      6F707065 
 3815      640A00
 3816 005b 00       		.space	1
 3817              	.LC10:
 3818 005c 6C617374 		.ascii	"last_adc_duration\000"
 3818      5F616463 
 3818      5F647572 
 3818      6174696F 
 3818      6E00
 3819 006e 0000     		.space	2
 3820              	.LC11:
 3821 0070 4C617465 		.ascii	"Latest ADC duration: %.4f ms\000"
 3821      73742041 
 3821      44432064 
 3821      75726174 
 3821      696F6E3A 
ARM GAS  /tmp/ccU5UnMV.s 			page 69


 3822 008d 000000   		.space	3
 3823              	.LC12:
 3824 0090 4C617465 		.ascii	"Latest injected ADC duration: %.4f ms\000"
 3824      73742069 
 3824      6E6A6563 
 3824      74656420 
 3824      41444320 
 3825 00b6 0000     		.space	2
 3826              	.LC13:
 3827 00b8 4C617465 		.ascii	"Latest sample ADC duration: %.4f ms\012\000"
 3827      73742073 
 3827      616D706C 
 3827      65204144 
 3827      43206475 
 3828 00dd 000000   		.space	3
 3829              	.LC14:
 3830 00e0 6B7600   		.ascii	"kv\000"
 3831 00e3 00       		.space	1
 3832              	.LC15:
 3833 00e4 43616C63 		.ascii	"Calculated KV: %.2f rpm/volt\012\000"
 3833      756C6174 
 3833      6564204B 
 3833      563A2025 
 3833      2E326620 
 3834 0102 0000     		.space	2
 3835              	.LC16:
 3836 0104 6D656D00 		.ascii	"mem\000"
 3837              	.LC17:
 3838 0108 636F7265 		.ascii	"core free memory : %u bytes\000"
 3838      20667265 
 3838      65206D65 
 3838      6D6F7279 
 3838      203A2025 
 3839              	.LC18:
 3840 0124 68656170 		.ascii	"heap fragments   : %u\000"
 3840      20667261 
 3840      676D656E 
 3840      74732020 
 3840      203A2025 
 3841 013a 0000     		.space	2
 3842              	.LC19:
 3843 013c 68656170 		.ascii	"heap free total  : %u bytes\012\000"
 3843      20667265 
 3843      6520746F 
 3843      74616C20 
 3843      203A2025 
 3844 0159 000000   		.space	3
 3845              	.LC20:
 3846 015c 74687265 		.ascii	"threads\000"
 3846      61647300 
 3847              	.LC21:
 3848 0164 20202020 		.ascii	"    addr    stack prio refs     state           nam"
 3848      61646472 
 3848      20202020 
 3848      73746163 
 3848      6B207072 
 3849 0197 65207469 		.ascii	"e time    \000"
ARM GAS  /tmp/ccU5UnMV.s 			page 70


 3849      6D652020 
 3849      202000
 3850 01a2 0000     		.space	2
 3851              	.LC22:
 3852 01a4 2D2D2D2D 		.ascii	"---------------------------------------------------"
 3852      2D2D2D2D 
 3852      2D2D2D2D 
 3852      2D2D2D2D 
 3852      2D2D2D2D 
 3853 01d7 2D2D2D2D 		.ascii	"----------\000"
 3853      2D2D2D2D 
 3853      2D2D00
 3854 01e2 0000     		.space	2
 3855              	.LC23:
 3856 01e4 252E386C 		.ascii	"%.8lx %.8lx %4lu %4lu %9s %14s %lu (%.1f %%)\000"
 3856      7820252E 
 3856      386C7820 
 3856      25346C75 
 3856      2025346C 
 3857 0211 000000   		.space	3
 3858              	.LC24:
 3859 0214 00       		.ascii	"\000"
 3860 0215 000000   		.space	3
 3861              	.LC25:
 3862 0218 6661756C 		.ascii	"fault\000"
 3862      7400
 3863 021e 0000     		.space	2
 3864              	.LC26:
 3865 0220 25730A00 		.ascii	"%s\012\000"
 3866              	.LC27:
 3867 0224 6661756C 		.ascii	"faults\000"
 3867      747300
 3868 022b 00       		.space	1
 3869              	.LC28:
 3870 022c 4E6F2066 		.ascii	"No faults registered since startup\012\000"
 3870      61756C74 
 3870      73207265 
 3870      67697374 
 3870      65726564 
 3871              	.LC29:
 3872 0250 54686520 		.ascii	"The following faults were registered since start:\012"
 3872      666F6C6C 
 3872      6F77696E 
 3872      67206661 
 3872      756C7473 
 3873 0282 00       		.ascii	"\000"
 3874 0283 00       		.space	1
 3875              	.LC30:
 3876 0284 4661756C 		.ascii	"Fault            : %s\000"
 3876      74202020 
 3876      20202020 
 3876      20202020 
 3876      203A2025 
 3877 029a 0000     		.space	2
 3878              	.LC31:
 3879 029c 43757272 		.ascii	"Current          : %.1f\000"
 3879      656E7420 
ARM GAS  /tmp/ccU5UnMV.s 			page 71


 3879      20202020 
 3879      20202020 
 3879      203A2025 
 3880              	.LC32:
 3881 02b4 43757272 		.ascii	"Current filtered : %.1f\000"
 3881      656E7420 
 3881      66696C74 
 3881      65726564 
 3881      203A2025 
 3882              	.LC33:
 3883 02cc 566F6C74 		.ascii	"Voltage          : %.2f\000"
 3883      61676520 
 3883      20202020 
 3883      20202020 
 3883      203A2025 
 3884              	.LC34:
 3885 02e4 44757479 		.ascii	"Duty             : %.3f\000"
 3885      20202020 
 3885      20202020 
 3885      20202020 
 3885      203A2025 
 3886              	.LC35:
 3887 02fc 52504D20 		.ascii	"RPM              : %.1f\000"
 3887      20202020 
 3887      20202020 
 3887      20202020 
 3887      203A2025 
 3888              	.LC36:
 3889 0314 54616368 		.ascii	"Tacho            : %d\000"
 3889      6F202020 
 3889      20202020 
 3889      20202020 
 3889      203A2025 
 3890 032a 0000     		.space	2
 3891              	.LC37:
 3892 032c 4379636C 		.ascii	"Cycles running   : %d\000"
 3892      65732072 
 3892      756E6E69 
 3892      6E672020 
 3892      203A2025 
 3893 0342 0000     		.space	2
 3894              	.LC38:
 3895 0344 54494D20 		.ascii	"TIM duty         : %d\000"
 3895      64757479 
 3895      20202020 
 3895      20202020 
 3895      203A2025 
 3896 035a 0000     		.space	2
 3897              	.LC39:
 3898 035c 54494D20 		.ascii	"TIM val samp     : %d\000"
 3898      76616C20 
 3898      73616D70 
 3898      20202020 
 3898      203A2025 
 3899 0372 0000     		.space	2
 3900              	.LC40:
 3901 0374 54494D20 		.ascii	"TIM current samp : %d\000"
ARM GAS  /tmp/ccU5UnMV.s 			page 72


 3901      63757272 
 3901      656E7420 
 3901      73616D70 
 3901      203A2025 
 3902 038a 0000     		.space	2
 3903              	.LC41:
 3904 038c 54494D20 		.ascii	"TIM top          : %d\000"
 3904      746F7020 
 3904      20202020 
 3904      20202020 
 3904      203A2025 
 3905 03a2 0000     		.space	2
 3906              	.LC42:
 3907 03a4 436F6D6D 		.ascii	"Comm step        : %d\000"
 3907      20737465 
 3907      70202020 
 3907      20202020 
 3907      203A2025 
 3908 03ba 0000     		.space	2
 3909              	.LC43:
 3910 03bc 54656D70 		.ascii	"Temperature      : %.2f\000"
 3910      65726174 
 3910      75726520 
 3910      20202020 
 3910      203A2025 
 3911              	.LC44:
 3912 03d4 44525638 		.ascii	"DRV8301_FAULTS   : %s\000"
 3912      3330315F 
 3912      4641554C 
 3912      54532020 
 3912      203A2025 
 3913 03ea 0000     		.space	2
 3914              	.LC45:
 3915 03ec 72706D00 		.ascii	"rpm\000"
 3916              	.LC46:
 3917 03f0 456C6563 		.ascii	"Electrical RPM: %.2f rpm\012\000"
 3917      74726963 
 3917      616C2052 
 3917      504D3A20 
 3917      252E3266 
 3918 040a 0000     		.space	2
 3919              	.LC47:
 3920 040c 74616368 		.ascii	"tacho\000"
 3920      6F00
 3921 0412 0000     		.space	2
 3922              	.LC48:
 3923 0414 54616368 		.ascii	"Tachometer counts: %i\012\000"
 3923      6F6D6574 
 3923      65722063 
 3923      6F756E74 
 3923      733A2025 
 3924 042b 00       		.space	1
 3925              	.LC49:
 3926 042c 74696D00 		.ascii	"tim\000"
 3927              	.LC50:
 3928 0430 54696D31 		.ascii	"Tim1 CNT: %i\000"
 3928      20434E54 
ARM GAS  /tmp/ccU5UnMV.s 			page 73


 3928      3A202569 
 3928      00
 3929 043d 000000   		.space	3
 3930              	.LC51:
 3931 0440 54696D38 		.ascii	"Tim8 CNT: %u\000"
 3931      20434E54 
 3931      3A202575 
 3931      00
 3932 044d 000000   		.space	3
 3933              	.LC52:
 3934 0450 44757479 		.ascii	"Duty cycle1: %u\000"
 3934      20637963 
 3934      6C65313A 
 3934      20257500 
 3935              	.LC53:
 3936 0460 44757479 		.ascii	"Duty cycle2: %u\000"
 3936      20637963 
 3936      6C65323A 
 3936      20257500 
 3937              	.LC54:
 3938 0470 44757479 		.ascii	"Duty cycle3: %u\000"
 3938      20637963 
 3938      6C65333A 
 3938      20257500 
 3939              	.LC55:
 3940 0480 546F703A 		.ascii	"Top: %u\000"
 3940      20257500 
 3941              	.LC56:
 3942 0488 44697231 		.ascii	"Dir1: %u\000"
 3942      3A202575 
 3942      00
 3943 0491 000000   		.space	3
 3944              	.LC57:
 3945 0494 44697238 		.ascii	"Dir8: %u\000"
 3945      3A202575 
 3945      00
 3946 049d 000000   		.space	3
 3947              	.LC58:
 3948 04a0 566F6C74 		.ascii	"Voltage sample: %u\000"
 3948      61676520 
 3948      73616D70 
 3948      6C653A20 
 3948      257500
 3949 04b3 00       		.space	1
 3950              	.LC59:
 3951 04b4 43757272 		.ascii	"Current 1 sample: %u\000"
 3951      656E7420 
 3951      31207361 
 3951      6D706C65 
 3951      3A202575 
 3952 04c9 000000   		.space	3
 3953              	.LC60:
 3954 04cc 43757272 		.ascii	"Current 2 sample: %u\012\000"
 3954      656E7420 
 3954      32207361 
 3954      6D706C65 
 3954      3A202575 
ARM GAS  /tmp/ccU5UnMV.s 			page 74


 3955 04e2 0000     		.space	2
 3956              	.LC61:
 3957 04e4 766F6C74 		.ascii	"volt\000"
 3957      00
 3958 04e9 000000   		.space	3
 3959              	.LC62:
 3960 04ec 496E7075 		.ascii	"Input voltage: %.2f\012\000"
 3960      7420766F 
 3960      6C746167 
 3960      653A2025 
 3960      2E32660A 
 3961 0501 000000   		.space	3
 3962              	.LC63:
 3963 0504 70617261 		.ascii	"param_detect\000"
 3963      6D5F6465 
 3963      74656374 
 3963      00
 3964 0511 000000   		.space	3
 3965              	.LC64:
 3966 0514 256600   		.ascii	"%f\000"
 3967 0517 00       		.space	1
 3968              	.LC65:
 3969 0518 4379636C 		.ascii	"Cycle integrator limit: %.2f\000"
 3969      6520696E 
 3969      74656772 
 3969      61746F72 
 3969      206C696D 
 3970 0535 000000   		.space	3
 3971              	.LC66:
 3972 0538 436F7570 		.ascii	"Coupling factor: %.2f\000"
 3972      6C696E67 
 3972      20666163 
 3972      746F723A 
 3972      20252E32 
 3973 054e 0000     		.space	2
 3974              	.LC67:
 3975 0550 44657465 		.ascii	"Detected hall sensor table:\000"
 3975      63746564 
 3975      2068616C 
 3975      6C207365 
 3975      6E736F72 
 3976              	.LC68:
 3977 056c 25692C20 		.ascii	"%i, %i, %i, %i, %i, %i, %i, %i\012\000"
 3977      25692C20 
 3977      25692C20 
 3977      25692C20 
 3977      25692C20 
 3978              	.LC69:
 3979 058c 48616C6C 		.ascii	"Hall sensor detection failed:\000"
 3979      2073656E 
 3979      736F7220 
 3979      64657465 
 3979      6374696F 
 3980 05aa 0000     		.space	2
 3981              	.LC70:
 3982 05ac 57533238 		.ascii	"WS2811 enabled. Hall sensors cannot be used.\012\000"
 3982      31312065 
ARM GAS  /tmp/ccU5UnMV.s 			page 75


 3982      6E61626C 
 3982      65642E20 
 3982      48616C6C 
 3983 05da 0000     		.space	2
 3984              	.LC71:
 3985 05dc 456E636F 		.ascii	"Encoder enabled. Hall sensors cannot be used.\012\000"
 3985      64657220 
 3985      656E6162 
 3985      6C65642E 
 3985      2048616C 
 3986 060b 00       		.space	1
 3987              	.LC72:
 3988 060c 44657465 		.ascii	"Detection failed. Try again with different paramete"
 3988      6374696F 
 3988      6E206661 
 3988      696C6564 
 3988      2E205472 
 3989 063f 72732E0A 		.ascii	"rs.\012\000"
 3989      00
 3990              	.LC73:
 3991 0644 496E7661 		.ascii	"Invalid argument(s).\012\000"
 3991      6C696420 
 3991      61726775 
 3991      6D656E74 
 3991      2873292E 
 3992 065a 0000     		.space	2
 3993              	.LC74:
 3994 065c 54686973 		.ascii	"This command requires three arguments.\012\000"
 3994      20636F6D 
 3994      6D616E64 
 3994      20726571 
 3994      75697265 
 3995              	.LC75:
 3996 0684 72706D5F 		.ascii	"rpm_dep\000"
 3996      64657000 
 3997              	.LC76:
 3998 068c 4379636C 		.ascii	"Cycle int limit: %.2f\000"
 3998      6520696E 
 3998      74206C69 
 3998      6D69743A 
 3998      20252E32 
 3999 06a2 0000     		.space	2
 4000              	.LC77:
 4001 06a4 4379636C 		.ascii	"Cycle int limit running: %.2f\000"
 4001      6520696E 
 4001      74206C69 
 4001      6D697420 
 4001      72756E6E 
 4002 06c2 0000     		.space	2
 4003              	.LC78:
 4004 06c4 4379636C 		.ascii	"Cycle int limit max: %.2f\012\000"
 4004      6520696E 
 4004      74206C69 
 4004      6D697420 
 4004      6D61783A 
 4005 06df 00       		.space	1
 4006              	.LC79:
ARM GAS  /tmp/ccU5UnMV.s 			page 76


 4007 06e0 63616E5F 		.ascii	"can_devs\000"
 4007      64657673 
 4007      00
 4008 06e9 000000   		.space	3
 4009              	.LC80:
 4010 06ec 43414E20 		.ascii	"CAN devices seen on the bus the past second:\012\000"
 4010      64657669 
 4010      63657320 
 4010      7365656E 
 4010      206F6E20 
 4011 071a 0000     		.space	2
 4012              	.LC81:
 4013 071c 49442020 		.ascii	"ID                 : %i\000"
 4013      20202020 
 4013      20202020 
 4013      20202020 
 4013      2020203A 
 4014              	.LC82:
 4015 0734 52582054 		.ascii	"RX Time            : %i\000"
 4015      696D6520 
 4015      20202020 
 4015      20202020 
 4015      2020203A 
 4016              	.LC83:
 4017 074c 41676520 		.ascii	"Age (milliseconds) : %.2f\000"
 4017      286D696C 
 4017      6C697365 
 4017      636F6E64 
 4017      7329203A 
 4018 0766 0000     		.space	2
 4019              	.LC84:
 4020 0768 52504D20 		.ascii	"RPM                : %.2f\000"
 4020      20202020 
 4020      20202020 
 4020      20202020 
 4020      2020203A 
 4021 0782 0000     		.space	2
 4022              	.LC85:
 4023 0784 43757272 		.ascii	"Current            : %.2f\000"
 4023      656E7420 
 4023      20202020 
 4023      20202020 
 4023      2020203A 
 4024 079e 0000     		.space	2
 4025              	.LC86:
 4026 07a0 44757479 		.ascii	"Duty               : %.2f\012\000"
 4026      20202020 
 4026      20202020 
 4026      20202020 
 4026      2020203A 
 4027 07bb 00       		.space	1
 4028              	.LC87:
 4029 07bc 666F635F 		.ascii	"foc_encoder_detect\000"
 4029      656E636F 
 4029      6465725F 
 4029      64657465 
 4029      637400
ARM GAS  /tmp/ccU5UnMV.s 			page 77


 4030 07cf 00       		.space	1
 4031              	.LC88:
 4032 07d0 4F666673 		.ascii	"Offset   : %.2f\000"
 4032      65742020 
 4032      203A2025 
 4032      2E326600 
 4033              	.LC89:
 4034 07e0 52617469 		.ascii	"Ratio    : %.2f\000"
 4034      6F202020 
 4034      203A2025 
 4034      2E326600 
 4035              	.LC90:
 4036 07f0 496E7665 		.ascii	"Inverted : %s\012\000"
 4036      72746564 
 4036      203A2025 
 4036      730A00
 4037 07ff 00       		.space	1
 4038              	.LC91:
 4039 0800 456E636F 		.ascii	"Encoder not enabled.\012\000"
 4039      64657220 
 4039      6E6F7420 
 4039      656E6162 
 4039      6C65642E 
 4040 0816 0000     		.space	2
 4041              	.LC92:
 4042 0818 54686973 		.ascii	"This command requires one argument.\012\000"
 4042      20636F6D 
 4042      6D616E64 
 4042      20726571 
 4042      75697265 
 4043 083d 000000   		.space	3
 4044              	.LC93:
 4045 0840 6D656173 		.ascii	"measure_res\000"
 4045      7572655F 
 4045      72657300 
 4046              	.LC94:
 4047 084c 52657369 		.ascii	"Resistance: %.6f ohm\012\000"
 4047      7374616E 
 4047      63653A20 
 4047      252E3666 
 4047      206F686D 
 4048 0862 0000     		.space	2
 4049              	.LC95:
 4050 0864 6D656173 		.ascii	"measure_ind\000"
 4050      7572655F 
 4050      696E6400 
 4051              	.LC96:
 4052 0870 496E6475 		.ascii	"Inductance: %.2f microhenry (%.2f A)\012\000"
 4052      6374616E 
 4052      63653A20 
 4052      252E3266 
 4052      206D6963 
 4053 0896 0000     		.space	2
 4054              	.LC97:
 4055 0898 6D656173 		.ascii	"measure_linkage\000"
 4055      7572655F 
 4055      6C696E6B 
ARM GAS  /tmp/ccU5UnMV.s 			page 78


 4055      61676500 
 4056              	.LC98:
 4057 08a8 466C7578 		.ascii	"Flux linkage: %.7f\012\000"
 4057      206C696E 
 4057      6B616765 
 4057      3A20252E 
 4057      37660A00 
 4058              	.LC99:
 4059 08bc 54686973 		.ascii	"This command requires four arguments.\012\000"
 4059      20636F6D 
 4059      6D616E64 
 4059      20726571 
 4059      75697265 
 4060 08e3 00       		.space	1
 4061              	.LC100:
 4062 08e4 6D656173 		.ascii	"measure_res_ind\000"
 4062      7572655F 
 4062      7265735F 
 4062      696E6400 
 4063              	.LC101:
 4064 08f4 52657369 		.ascii	"Resistance: %.6f ohm\000"
 4064      7374616E 
 4064      63653A20 
 4064      252E3666 
 4064      206F686D 
 4065 0909 000000   		.space	3
 4066              	.LC102:
 4067 090c 496E6475 		.ascii	"Inductance: %.2f microhenry\012\000"
 4067      6374616E 
 4067      63653A20 
 4067      252E3266 
 4067      206D6963 
 4068 0929 000000   		.space	3
 4069              	.LC103:
 4070 092c 6D656173 		.ascii	"measure_linkage_foc\000"
 4070      7572655F 
 4070      6C696E6B 
 4070      6167655F 
 4070      666F6300 
 4071              	.LC104:
 4072 0940 6D656173 		.ascii	"measure_linkage_openloop\000"
 4072      7572655F 
 4072      6C696E6B 
 4072      6167655F 
 4072      6F70656E 
 4073 0959 000000   		.space	3
 4074              	.LC105:
 4075 095c 666F635F 		.ascii	"foc_state\000"
 4075      73746174 
 4075      6500
 4076 0966 0000     		.space	2
 4077              	.LC106:
 4078 0968 68775F73 		.ascii	"hw_status\000"
 4078      74617475 
 4078      7300
 4079 0972 0000     		.space	2
 4080              	.LC107:
ARM GAS  /tmp/ccU5UnMV.s 			page 79


 4081 0974 4669726D 		.ascii	"Firmware: %d.%d\000"
 4081      77617265 
 4081      3A202564 
 4081      2E256400 
 4082              	.LC108:
 4083 0984 363000   		.ascii	"60\000"
 4084 0987 00       		.space	1
 4085              	.LC109:
 4086 0988 48617264 		.ascii	"Hardware: %s\000"
 4086      77617265 
 4086      3A202573 
 4086      00
 4087 0995 000000   		.space	3
 4088              	.LC110:
 4089 0998 55554944 		.ascii	"UUID: %02X %02X %02X %02X %02X %02X %02X %02X %02X "
 4089      3A202530 
 4089      32582025 
 4089      30325820 
 4089      25303258 
 4090 09cb 25303258 		.ascii	"%02X %02X %02X\000"
 4090      20253032 
 4090      58202530 
 4090      325800
 4091 09da 0000     		.space	2
 4092              	.LC111:
 4093 09dc 5065726D 		.ascii	"Permanent NRF found: %s\000"
 4093      616E656E 
 4093      74204E52 
 4093      4620666F 
 4093      756E643A 
 4094              	.LC112:
 4095 09f4 666F635F 		.ascii	"foc_openloop\000"
 4095      6F70656E 
 4095      6C6F6F70 
 4095      00
 4096 0a01 000000   		.space	3
 4097              	.LC113:
 4098 0a04 54686973 		.ascii	"This command requires two arguments.\012\000"
 4098      20636F6D 
 4098      6D616E64 
 4098      20726571 
 4098      75697265 
 4099 0a2a 0000     		.space	2
 4100              	.LC114:
 4101 0a2c 666F635F 		.ascii	"foc_openloop_duty\000"
 4101      6F70656E 
 4101      6C6F6F70 
 4101      5F647574 
 4101      7900
 4102 0a3e 0000     		.space	2
 4103              	.LC115:
 4104 0a40 6E72665F 		.ascii	"nrf_ext_set_enabled\000"
 4104      6578745F 
 4104      7365745F 
 4104      656E6162 
 4104      6C656400 
 4105              	.LC116:
ARM GAS  /tmp/ccU5UnMV.s 			page 80


 4106 0a54 256400   		.ascii	"%d\000"
 4107 0a57 00       		.space	1
 4108              	.LC117:
 4109 0a58 666F635F 		.ascii	"foc_sensors_detect_apply\000"
 4109      73656E73 
 4109      6F72735F 
 4109      64657465 
 4109      63745F61 
 4110 0a71 000000   		.space	3
 4111              	.LC118:
 4112 0a74 4E6F2073 		.ascii	"No sensors found, using sensorless mode.\012\000"
 4112      656E736F 
 4112      72732066 
 4112      6F756E64 
 4112      2C207573 
 4113 0a9e 0000     		.space	2
 4114              	.LC119:
 4115 0aa0 466F756E 		.ascii	"Found hall sensors, using them.\012\000"
 4115      64206861 
 4115      6C6C2073 
 4115      656E736F 
 4115      72732C20 
 4116 0ac1 000000   		.space	3
 4117              	.LC120:
 4118 0ac4 466F756E 		.ascii	"Found AS5047 encoder, using it.\012\000"
 4118      64204153 
 4118      35303437 
 4118      20656E63 
 4118      6F646572 
 4119 0ae5 000000   		.space	3
 4120              	.LC121:
 4121 0ae8 44657465 		.ascii	"Detection error: %d\012\000"
 4121      6374696F 
 4121      6E206572 
 4121      726F723A 
 4121      2025640A 
 4122 0afd 000000   		.space	3
 4123              	.LC122:
 4124 0b00 726F746F 		.ascii	"rotor_lock_openloop\000"
 4124      725F6C6F 
 4124      636B5F6F 
 4124      70656E6C 
 4124      6F6F7000 
 4125              	.LC123:
 4126 0b14 4F4B0A00 		.ascii	"OK\012\000"
 4127              	.LC124:
 4128 0b18 54206C65 		.ascii	"T left: %.2f s\000"
 4128      66743A20 
 4128      252E3266 
 4128      207300
 4129 0b27 00       		.space	1
 4130              	.LC125:
 4131 0b28 446F6E65 		.ascii	"Done\012\000"
 4131      0A00
 4132 0b2e 0000     		.space	2
 4133              	.LC126:
 4134 0b30 666F635F 		.ascii	"foc_detect_apply_all\000"
ARM GAS  /tmp/ccU5UnMV.s 			page 81


 4134      64657465 
 4134      63745F61 
 4134      70706C79 
 4134      5F616C6C 
 4135 0b45 000000   		.space	3
 4136              	.LC127:
 4137 0b48 52756E6E 		.ascii	"Running detection...\000"
 4137      696E6720 
 4137      64657465 
 4137      6374696F 
 4137      6E2E2E2E 
 4138 0b5d 000000   		.space	3
 4139              	.LC128:
 4140 0b60 5265733A 		.ascii	"Res: %d\000"
 4140      20256400 
 4141              	.LC129:
 4142 0b68 44657465 		.ascii	"Detection finished and applied. Results:\000"
 4142      6374696F 
 4142      6E206669 
 4142      6E697368 
 4142      65642061 
 4143 0b91 000000   		.space	3
 4144              	.LC130:
 4145 0b94 4D6F746F 		.ascii	"Motor Current       : %.1f A\000"
 4145      72204375 
 4145      7272656E 
 4145      74202020 
 4145      20202020 
 4146 0bb1 000000   		.space	3
 4147              	.LC131:
 4148 0bb4 4D6F746F 		.ascii	"Motor R             : %.2f mOhm\000"
 4148      72205220 
 4148      20202020 
 4148      20202020 
 4148      20202020 
 4149              	.LC132:
 4150 0bd4 4D6F746F 		.ascii	"Motor L             : %.2f microH\000"
 4150      72204C20 
 4150      20202020 
 4150      20202020 
 4150      20202020 
 4151 0bf6 0000     		.space	2
 4152              	.LC133:
 4153 0bf8 4D6F746F 		.ascii	"Motor Flux Linkage  : %.3f mWb\000"
 4153      7220466C 
 4153      7578204C 
 4153      696E6B61 
 4153      67652020 
 4154 0c17 00       		.space	1
 4155              	.LC134:
 4156 0c18 54656D70 		.ascii	"Temp Comp           : %s\000"
 4156      20436F6D 
 4156      70202020 
 4156      20202020 
 4156      20202020 
 4157 0c31 000000   		.space	3
 4158              	.LC135:
ARM GAS  /tmp/ccU5UnMV.s 			page 82


 4159 0c34 54656D70 		.ascii	"Temp Comp Base Temp : %.1f degC\000"
 4159      20436F6D 
 4159      70204261 
 4159      73652054 
 4159      656D7020 
 4160              	.LC136:
 4161 0c54 436F756C 		.ascii	"Could not measure flux linkage.\000"
 4161      64206E6F 
 4161      74206D65 
 4161      61737572 
 4161      6520666C 
 4162              	.LC137:
 4163 0c74 4661756C 		.ascii	"Fault code occured during detection.\000"
 4163      7420636F 
 4163      6465206F 
 4163      63637572 
 4163      65642064 
 4164 0c99 000000   		.space	3
 4165              	.LC138:
 4166 0c9c 44657465 		.ascii	"Detection failed.\012\000"
 4166      6374696F 
 4166      6E206661 
 4166      696C6564 
 4166      2E0A00
 4167 0caf 00       		.space	1
 4168              	.LC139:
 4169 0cb0 63616E5F 		.ascii	"can_scan\000"
 4169      7363616E 
 4169      00
 4170 0cb9 000000   		.space	3
 4171              	.LC140:
 4172 0cbc 466F756E 		.ascii	"Found VESC with ID: %d\000"
 4172      64205645 
 4172      53432077 
 4172      69746820 
 4172      49443A20 
 4173 0cd3 00       		.space	1
 4174              	.LC141:
 4175 0cd4 4E6F2043 		.ascii	"No CAN devices found\012\000"
 4175      414E2064 
 4175      65766963 
 4175      65732066 
 4175      6F756E64 
 4176 0cea 0000     		.space	2
 4177              	.LC142:
 4178 0cec 666F635F 		.ascii	"foc_detect_apply_all_can\000"
 4178      64657465 
 4178      63745F61 
 4178      70706C79 
 4178      5F616C6C 
 4179 0d05 000000   		.space	3
 4180              	.LC143:
 4181 0d08 656E636F 		.ascii	"encoder\000"
 4181      64657200 
 4182              	.LC144:
 4183 0d10 53504920 		.ascii	"SPI encoder value: %x, errors: %d, error rate: %.3f"
 4183      656E636F 
ARM GAS  /tmp/ccU5UnMV.s 			page 83


 4183      64657220 
 4183      76616C75 
 4183      653A2025 
 4184 0d43 20252500 		.ascii	" %%\000"
 4185 0d47 00       		.space	1
 4186              	.LC145:
 4187 0d48 53696E2F 		.ascii	"Sin/Cos encoder signal below minimum amplitude: err"
 4187      436F7320 
 4187      656E636F 
 4187      64657220 
 4187      7369676E 
 4188 0d7b 6F72733A 		.ascii	"ors: %d, error rate: %.3f %%\000"
 4188      2025642C 
 4188      20657272 
 4188      6F722072 
 4188      6174653A 
 4189              	.LC146:
 4190 0d98 53696E2F 		.ascii	"Sin/Cos encoder signal above maximum amplitude: err"
 4190      436F7320 
 4190      656E636F 
 4190      64657220 
 4190      7369676E 
 4191 0dcb 6F72733A 		.ascii	"ors: %d, error rate: %.3f %%\000"
 4191      2025642C 
 4191      20657272 
 4191      6F722072 
 4191      6174653A 
 4192              	.LC147:
 4193 0de8 68656C70 		.ascii	"help\000"
 4193      00
 4194 0ded 000000   		.space	3
 4195              	.LC148:
 4196 0df0 56616C69 		.ascii	"Valid commands are:\000"
 4196      6420636F 
 4196      6D6D616E 
 4196      64732061 
 4196      72653A00 
 4197              	.LC149:
 4198 0e04 20205368 		.ascii	"  Show this help\000"
 4198      6F772074 
 4198      68697320 
 4198      68656C70 
 4198      00
 4199 0e15 000000   		.space	3
 4200              	.LC150:
 4201 0e18 20205072 		.ascii	"  Print pong here to see if the reply works\000"
 4201      696E7420 
 4201      706F6E67 
 4201      20686572 
 4201      6520746F 
 4202              	.LC151:
 4203 0e44 20205374 		.ascii	"  Stop the motor\000"
 4203      6F702074 
 4203      6865206D 
 4203      6F746F72 
 4203      00
 4204 0e55 000000   		.space	3
ARM GAS  /tmp/ccU5UnMV.s 			page 84


 4205              	.LC152:
 4206 0e58 20205468 		.ascii	"  The time the latest ADC interrupt consumed\000"
 4206      65207469 
 4206      6D652074 
 4206      6865206C 
 4206      61746573 
 4207 0e85 000000   		.space	3
 4208              	.LC153:
 4209 0e88 20205468 		.ascii	"  The calculated kv of the motor\000"
 4209      65206361 
 4209      6C63756C 
 4209      61746564 
 4209      206B7620 
 4210 0ea9 000000   		.space	3
 4211              	.LC154:
 4212 0eac 20205368 		.ascii	"  Show memory usage\000"
 4212      6F77206D 
 4212      656D6F72 
 4212      79207573 
 4212      61676500 
 4213              	.LC155:
 4214 0ec0 20204C69 		.ascii	"  List all threads\000"
 4214      73742061 
 4214      6C6C2074 
 4214      68726561 
 4214      647300
 4215 0ed3 00       		.space	1
 4216              	.LC156:
 4217 0ed4 20205072 		.ascii	"  Prints the current fault code\000"
 4217      696E7473 
 4217      20746865 
 4217      20637572 
 4217      72656E74 
 4218              	.LC157:
 4219 0ef4 20205072 		.ascii	"  Prints all stored fault codes and conditions when"
 4219      696E7473 
 4219      20616C6C 
 4219      2073746F 
 4219      72656420 
 4220 0f27 20746865 		.ascii	" they arrived\000"
 4220      79206172 
 4220      72697665 
 4220      6400
 4221 0f35 000000   		.space	3
 4222              	.LC158:
 4223 0f38 20205072 		.ascii	"  Prints the current electrical RPM\000"
 4223      696E7473 
 4223      20746865 
 4223      20637572 
 4223      72656E74 
 4224              	.LC159:
 4225 0f5c 20205072 		.ascii	"  Prints tachometer value\000"
 4225      696E7473 
 4225      20746163 
 4225      686F6D65 
 4225      74657220 
 4226 0f76 0000     		.space	2
ARM GAS  /tmp/ccU5UnMV.s 			page 85


 4227              	.LC160:
 4228 0f78 20205072 		.ascii	"  Prints tim1 and tim8 settings\000"
 4228      696E7473 
 4228      2074696D 
 4228      3120616E 
 4228      64207469 
 4229              	.LC161:
 4230 0f98 20205072 		.ascii	"  Prints different voltages\000"
 4230      696E7473 
 4230      20646966 
 4230      66657265 
 4230      6E742076 
 4231              	.LC162:
 4232 0fb4 70617261 		.ascii	"param_detect [current] [min_rpm] [low_duty]\000"
 4232      6D5F6465 
 4232      74656374 
 4232      205B6375 
 4232      7272656E 
 4233              	.LC163:
 4234 0fe0 20205370 		.ascii	"  Spin up the motor in COMM_MODE_DELAY and compute "
 4234      696E2075 
 4234      70207468 
 4234      65206D6F 
 4234      746F7220 
 4235 1013 69747320 		.ascii	"its parameters.\000"
 4235      70617261 
 4235      6D657465 
 4235      72732E00 
 4236 1023 00       		.space	1
 4237              	.LC164:
 4238 1024 20205468 		.ascii	"  This test should be performed without load on the"
 4238      69732074 
 4238      65737420 
 4238      73686F75 
 4238      6C642062 
 4239 1057 206D6F74 		.ascii	" motor.\000"
 4239      6F722E00 
 4240 105f 00       		.space	1
 4241              	.LC165:
 4242 1060 20204578 		.ascii	"  Example: param_detect 5.0 600 0.06\000"
 4242      616D706C 
 4242      653A2070 
 4242      6172616D 
 4242      5F646574 
 4243 1085 000000   		.space	3
 4244              	.LC166:
 4245 1088 20205072 		.ascii	"  Prints some rpm-dep values\000"
 4245      696E7473 
 4245      20736F6D 
 4245      65207270 
 4245      6D2D6465 
 4246 10a5 000000   		.space	3
 4247              	.LC167:
 4248 10a8 20205072 		.ascii	"  Prints all CAN devices seen on the bus the past s"
 4248      696E7473 
 4248      20616C6C 
 4248      2043414E 
ARM GAS  /tmp/ccU5UnMV.s 			page 86


 4248      20646576 
 4249 10db 65636F6E 		.ascii	"econd\000"
 4249      6400
 4250 10e1 000000   		.space	3
 4251              	.LC168:
 4252 10e4 666F635F 		.ascii	"foc_encoder_detect [current]\000"
 4252      656E636F 
 4252      6465725F 
 4252      64657465 
 4252      6374205B 
 4253 1101 000000   		.space	3
 4254              	.LC169:
 4255 1104 20205275 		.ascii	"  Run the motor at 1Hz on open loop and compute enc"
 4255      6E207468 
 4255      65206D6F 
 4255      746F7220 
 4255      61742031 
 4256 1137 6F646572 		.ascii	"oder settings\000"
 4256      20736574 
 4256      74696E67 
 4256      7300
 4257 1145 000000   		.space	3
 4258              	.LC170:
 4259 1148 6D656173 		.ascii	"measure_res [current]\000"
 4259      7572655F 
 4259      72657320 
 4259      5B637572 
 4259      72656E74 
 4260 115e 0000     		.space	2
 4261              	.LC171:
 4262 1160 20204C6F 		.ascii	"  Lock the motor with a current and calculate its r"
 4262      636B2074 
 4262      6865206D 
 4262      6F746F72 
 4262      20776974 
 4263 1193 65736973 		.ascii	"esistance\000"
 4263      74616E63 
 4263      6500
 4264 119d 000000   		.space	3
 4265              	.LC172:
 4266 11a0 6D656173 		.ascii	"measure_ind [duty]\000"
 4266      7572655F 
 4266      696E6420 
 4266      5B647574 
 4266      795D00
 4267 11b3 00       		.space	1
 4268              	.LC173:
 4269 11b4 20205365 		.ascii	"  Send short voltage pulses, measure the current an"
 4269      6E642073 
 4269      686F7274 
 4269      20766F6C 
 4269      74616765 
 4270 11e7 64206361 		.ascii	"d calculate the motor inductance\000"
 4270      6C63756C 
 4270      61746520 
 4270      74686520 
 4270      6D6F746F 
ARM GAS  /tmp/ccU5UnMV.s 			page 87


 4271              	.LC174:
 4272 1208 6D656173 		.ascii	"measure_linkage [current] [duty] [min_erpm] [motor_"
 4272      7572655F 
 4272      6C696E6B 
 4272      61676520 
 4272      5B637572 
 4273 123b 7265735D 		.ascii	"res]\000"
 4273      00
 4274              	.LC175:
 4275 1240 20205275 		.ascii	"  Run the motor in BLDC delay mode and measure the "
 4275      6E207468 
 4275      65206D6F 
 4275      746F7220 
 4275      696E2042 
 4276 1273 666C7578 		.ascii	"flux linkage\000"
 4276      206C696E 
 4276      6B616765 
 4276      00
 4277              	.LC176:
 4278 1280 20206578 		.ascii	"  example measure_linkage 5 0.5 700 0.076\000"
 4278      616D706C 
 4278      65206D65 
 4278      61737572 
 4278      655F6C69 
 4279 12aa 0000     		.space	2
 4280              	.LC177:
 4281 12ac 20207469 		.ascii	"  tip: measure the resistance with measure_res firs"
 4281      703A206D 
 4281      65617375 
 4281      72652074 
 4281      68652072 
 4282 12df 7400     		.ascii	"t\000"
 4283 12e1 000000   		.space	3
 4284              	.LC178:
 4285 12e4 20204D65 		.ascii	"  Measure the motor resistance and inductance with "
 4285      61737572 
 4285      65207468 
 4285      65206D6F 
 4285      746F7220 
 4286 1317 616E2069 		.ascii	"an incremental adaptive algorithm.\000"
 4286      6E637265 
 4286      6D656E74 
 4286      616C2061 
 4286      64617074 
 4287 133a 0000     		.space	2
 4288              	.LC179:
 4289 133c 6D656173 		.ascii	"measure_linkage_foc [duty]\000"
 4289      7572655F 
 4289      6C696E6B 
 4289      6167655F 
 4289      666F6320 
 4290 1357 00       		.space	1
 4291              	.LC180:
 4292 1358 20205275 		.ascii	"  Run the motor with FOC and measure the flux linka"
 4292      6E207468 
 4292      65206D6F 
 4292      746F7220 
ARM GAS  /tmp/ccU5UnMV.s 			page 88


 4292      77697468 
 4293 138b 67652E00 		.ascii	"ge.\000"
 4294 138f 00       		.space	1
 4295              	.LC181:
 4296 1390 6D656173 		.ascii	"measure_linkage_openloop [current] [duty] [erpm_per"
 4296      7572655F 
 4296      6C696E6B 
 4296      6167655F 
 4296      6F70656E 
 4297 13c3 5F736563 		.ascii	"_sec] [motor_res]\000"
 4297      5D205B6D 
 4297      6F746F72 
 4297      5F726573 
 4297      5D00
 4298 13d5 000000   		.space	3
 4299              	.LC182:
 4300 13d8 20205275 		.ascii	"  Run the motor in openloop FOC and measure the flu"
 4300      6E207468 
 4300      65206D6F 
 4300      746F7220 
 4300      696E206F 
 4301 140b 78206C69 		.ascii	"x linkage\000"
 4301      6E6B6167 
 4301      6500
 4302 1415 000000   		.space	3
 4303              	.LC183:
 4304 1418 20206578 		.ascii	"  example measure_linkage 5 0.5 1000 0.076\000"
 4304      616D706C 
 4304      65206D65 
 4304      61737572 
 4304      655F6C69 
 4305 1443 00       		.space	1
 4306              	.LC184:
 4307 1444 20205072 		.ascii	"  Print some FOC state variables.\000"
 4307      696E7420 
 4307      736F6D65 
 4307      20464F43 
 4307      20737461 
 4308 1466 0000     		.space	2
 4309              	.LC185:
 4310 1468 20205072 		.ascii	"  Print some hardware status information.\000"
 4310      696E7420 
 4310      736F6D65 
 4310      20686172 
 4310      64776172 
 4311 1492 0000     		.space	2
 4312              	.LC186:
 4313 1494 666F635F 		.ascii	"foc_openloop [current] [erpm]\000"
 4313      6F70656E 
 4313      6C6F6F70 
 4313      205B6375 
 4313      7272656E 
 4314 14b2 0000     		.space	2
 4315              	.LC187:
 4316 14b4 20204372 		.ascii	"  Create an open loop rotating current vector.\000"
 4316      65617465 
 4316      20616E20 
ARM GAS  /tmp/ccU5UnMV.s 			page 89


 4316      6F70656E 
 4316      206C6F6F 
 4317 14e3 00       		.space	1
 4318              	.LC188:
 4319 14e4 666F635F 		.ascii	"foc_openloop_duty [duty] [erpm]\000"
 4319      6F70656E 
 4319      6C6F6F70 
 4319      5F647574 
 4319      79205B64 
 4320              	.LC189:
 4321 1504 20204372 		.ascii	"  Create an open loop rotating voltage vector.\000"
 4321      65617465 
 4321      20616E20 
 4321      6F70656E 
 4321      206C6F6F 
 4322 1533 00       		.space	1
 4323              	.LC190:
 4324 1534 6E72665F 		.ascii	"nrf_ext_set_enabled [enabled]\000"
 4324      6578745F 
 4324      7365745F 
 4324      656E6162 
 4324      6C656420 
 4325 1552 0000     		.space	2
 4326              	.LC191:
 4327 1554 2020456E 		.ascii	"  Enable or disable external NRF51822.\000"
 4327      61626C65 
 4327      206F7220 
 4327      64697361 
 4327      626C6520 
 4328 157b 00       		.space	1
 4329              	.LC192:
 4330 157c 666F635F 		.ascii	"foc_sensors_detect_apply [current]\000"
 4330      73656E73 
 4330      6F72735F 
 4330      64657465 
 4330      63745F61 
 4331 159f 00       		.space	1
 4332              	.LC193:
 4333 15a0 20204175 		.ascii	"  Automatically detect FOC sensors, and apply setti"
 4333      746F6D61 
 4333      74696361 
 4333      6C6C7920 
 4333      64657465 
 4334 15d3 6E677320 		.ascii	"ngs on success.\000"
 4334      6F6E2073 
 4334      75636365 
 4334      73732E00 
 4335 15e3 00       		.space	1
 4336              	.LC194:
 4337 15e4 726F746F 		.ascii	"rotor_lock_openloop [current_A] [time_S] [angle_DEG"
 4337      725F6C6F 
 4337      636B5F6F 
 4337      70656E6C 
 4337      6F6F7020 
 4338 1617 5D00     		.ascii	"]\000"
 4339 1619 000000   		.space	3
 4340              	.LC195:
ARM GAS  /tmp/ccU5UnMV.s 			page 90


 4341 161c 20204C6F 		.ascii	"  Lock the motor with a current for a given time. T"
 4341      636B2074 
 4341      6865206D 
 4341      6F746F72 
 4341      20776974 
 4342 164f 696D6520 		.ascii	"ime 0 means forever, or\000"
 4342      30206D65 
 4342      616E7320 
 4342      666F7265 
 4342      7665722C 
 4343 1667 00       		.space	1
 4344              	.LC196:
 4345 1668 20206F72 		.ascii	"  or until the heartbeat packets stop.\000"
 4345      20756E74 
 4345      696C2074 
 4345      68652068 
 4345      65617274 
 4346 168f 00       		.space	1
 4347              	.LC197:
 4348 1690 666F635F 		.ascii	"foc_detect_apply_all [max_power_loss_W]\000"
 4348      64657465 
 4348      63745F61 
 4348      70706C79 
 4348      5F616C6C 
 4349              	.LC198:
 4350 16b8 20204465 		.ascii	"  Detect and apply all motor settings, based on max"
 4350      74656374 
 4350      20616E64 
 4350      20617070 
 4350      6C792061 
 4351 16eb 696D756D 		.ascii	"imum resistive motor power losses.\000"
 4351      20726573 
 4351      69737469 
 4351      7665206D 
 4351      6F746F72 
 4352 170e 0000     		.space	2
 4353              	.LC199:
 4354 1710 20205363 		.ascii	"  Scan CAN-bus using ping commands, and print all d"
 4354      616E2043 
 4354      414E2D62 
 4354      75732075 
 4354      73696E67 
 4355 1743 65766963 		.ascii	"evices that are found.\000"
 4355      65732074 
 4355      68617420 
 4355      61726520 
 4355      666F756E 
 4356 175a 0000     		.space	2
 4357              	.LC200:
 4358 175c 666F635F 		.ascii	"foc_detect_apply_all_can [max_power_loss_W]\000"
 4358      64657465 
 4358      63745F61 
 4358      70706C79 
 4358      5F616C6C 
 4359              	.LC201:
 4360 1788 20204465 		.ascii	"  Detect and apply all motor settings, based on max"
 4360      74656374 
ARM GAS  /tmp/ccU5UnMV.s 			page 91


 4360      20616E64 
 4360      20617070 
 4360      6C792061 
 4361 17bb 696D756D 		.ascii	"imum resistive motor power losses. Also\000"
 4361      20726573 
 4361      69737469 
 4361      7665206D 
 4361      6F746F72 
 4362 17e3 00       		.space	1
 4363              	.LC202:
 4364 17e4 2020696E 		.ascii	"  initiates detection in all VESCs found on the CAN"
 4364      69746961 
 4364      74657320 
 4364      64657465 
 4364      6374696F 
 4365 1817 2D627573 		.ascii	"-bus.\000"
 4365      2E00
 4366 181d 000000   		.space	3
 4367              	.LC203:
 4368 1820 20205072 		.ascii	"  Prints the status of the AS5047, AD2S1205, or Sin"
 4368      696E7473 
 4368      20746865 
 4368      20737461 
 4368      74757320 
 4369 1853 2F436F73 		.ascii	"/Cos encoder.\000"
 4369      20656E63 
 4369      6F646572 
 4369      2E00
 4370 1861 000000   		.space	3
 4371              	.LC204:
 4372 1864 25732025 		.ascii	"%s %s\000"
 4372      7300
 4373 186a 0000     		.space	2
 4374              	.LC205:
 4375 186c 20202573 		.ascii	"  %s\000"
 4375      00
 4376 1871 000000   		.space	3
 4377              	.LC206:
 4378 1874 20205468 		.ascii	"  There is no help available for this command.\000"
 4378      65726520 
 4378      6973206E 
 4378      6F206865 
 4378      6C702061 
 4379 18a3 00       		.space	1
 4380              	.LC207:
 4381 18a4 496E7661 		.ascii	"Invalid command: %s\012type help to list all availa"
 4381      6C696420 
 4381      636F6D6D 
 4381      616E643A 
 4381      2025730A 
 4382 18d4 626C6520 		.ascii	"ble commands\012\000"
 4382      636F6D6D 
 4382      616E6473 
 4382      0A00
 4383              		.text
 4384              	.Letext0:
 4385              		.file 4 "/usr/lib/gcc/arm-none-eabi/7.3.1/include/stddef.h"
ARM GAS  /tmp/ccU5UnMV.s 			page 92


 4386              		.file 5 "/usr/arm-none-eabi/include/machine/_default_types.h"
 4387              		.file 6 "/usr/arm-none-eabi/include/sys/_stdint.h"
 4388              		.file 7 "ChibiOS_3.0.2/os/rt/ports/ARMCMx/compilers/GCC/chtypes.h"
 4389              		.file 8 "ChibiOS_3.0.2/os/rt/include/chsystypes.h"
 4390              		.file 9 "ChibiOS_3.0.2/os/rt/include/chschd.h"
 4391              		.file 10 "ChibiOS_3.0.2/os/ext/CMSIS/include/core_cm4.h"
 4392              		.file 11 "ChibiOS_3.0.2/os/ext/CMSIS/ST/system_stm32f4xx.h"
 4393              		.file 12 "ChibiOS_3.0.2/os/ext/CMSIS/ST/stm32f407xx.h"
 4394              		.file 13 "ChibiOS_3.0.2/os/rt/ports/ARMCMx/chcore.h"
 4395              		.file 14 "ChibiOS_3.0.2/os/rt/ports/ARMCMx/chcore_v7m.h"
 4396              		.file 15 "ChibiOS_3.0.2/os/rt/include/chtm.h"
 4397              		.file 16 "ChibiOS_3.0.2/os/rt/include/chsem.h"
 4398              		.file 17 "ChibiOS_3.0.2/os/rt/include/chmtx.h"
 4399              		.file 18 "ChibiOS_3.0.2/os/rt/include/chregistry.h"
 4400              		.file 19 "ChibiOS_3.0.2/os/rt/include/chevents.h"
 4401              		.file 20 "ChibiOS_3.0.2/os/rt/include/chqueues.h"
 4402              		.file 21 "./datatypes.h"
 4403              		.file 22 "./conf_general.h"
 4404              		.file 23 "ChibiOS_3.0.2/os/hal/ports/STM32/STM32F4xx/stm32_dma.h"
 4405              		.file 24 "ChibiOS_3.0.2/os/hal/ports/STM32/LLD/GPIOv2/pal_lld.h"
 4406              		.file 25 "ChibiOS_3.0.2/os/hal/include/can.h"
 4407              		.file 26 "ChibiOS_3.0.2/os/hal/ports/STM32/LLD/can_lld.h"
 4408              		.file 27 "ChibiOS_3.0.2/os/hal/include/i2c.h"
 4409              		.file 28 "ChibiOS_3.0.2/os/hal/ports/STM32/LLD/I2Cv1/i2c_lld.h"
 4410              		.file 29 "ChibiOS_3.0.2/os/hal/include/icu.h"
 4411              		.file 30 "ChibiOS_3.0.2/os/hal/ports/STM32/LLD/TIMv1/icu_lld.h"
 4412              		.file 31 "ChibiOS_3.0.2/os/hal/ports/STM32/LLD/TIMv1/stm32_tim.h"
 4413              		.file 32 "ChibiOS_3.0.2/os/hal/include/serial.h"
 4414              		.file 33 "ChibiOS_3.0.2/os/hal/ports/STM32/LLD/USARTv1/serial_lld.h"
 4415              		.file 34 "ChibiOS_3.0.2/os/hal/include/spi.h"
 4416              		.file 35 "ChibiOS_3.0.2/os/hal/ports/STM32/LLD/SPIv1/spi_lld.h"
 4417              		.file 36 "ChibiOS_3.0.2/os/hal/include/usb.h"
 4418              		.file 37 "ChibiOS_3.0.2/os/hal/ports/STM32/LLD/OTGv1/usb_lld.h"
 4419              		.file 38 "ChibiOS_3.0.2/os/hal/ports/STM32/LLD/OTGv1/stm32_otg.h"
 4420              		.file 39 "mcpwm.h"
 4421              		.file 40 "mc_interface.h"
 4422              		.file 41 "/usr/arm-none-eabi/include/sys/lock.h"
 4423              		.file 42 "/usr/arm-none-eabi/include/sys/_types.h"
 4424              		.file 43 "/usr/arm-none-eabi/include/sys/reent.h"
 4425              		.file 44 "/usr/arm-none-eabi/include/math.h"
 4426              		.file 45 "ChibiOS_3.0.2/os/rt/include/chsys.h"
 4427              		.file 46 "/usr/arm-none-eabi/include/string.h"
 4428              		.file 47 "ChibiOS_3.0.2/os/rt/include/chheap.h"
 4429              		.file 48 "ChibiOS_3.0.2/os/rt/include/chmemcore.h"
 4430              		.file 49 "commands.h"
 4431              		.file 50 "hwconf/drv8301.h"
 4432              		.file 51 "/usr/arm-none-eabi/include/stdio.h"
 4433              		.file 52 "comm_can.h"
 4434              		.file 53 "mcpwm_foc.h"
 4435              		.file 54 "encoder.h"
 4436              		.file 55 "ChibiOS_3.0.2/os/rt/include/chthreads.h"
 4437              		.file 56 "timeout.h"
 4438              		.file 57 "<built-in>"
 4439              		.section	.debug_info,"",%progbits
 4440              	.Ldebug_info0:
 4441 0000 63640000 		.4byte	0x6463
 4442 0004 0400     		.2byte	0x4
ARM GAS  /tmp/ccU5UnMV.s 			page 93


 4443 0006 00000000 		.4byte	.Ldebug_abbrev0
 4444 000a 04       		.byte	0x4
 4445 000b 01       		.uleb128 0x1
 4446 000c 780E0000 		.4byte	.LASF1026
 4447 0010 0C       		.byte	0xc
 4448 0011 5E0B0000 		.4byte	.LASF1027
 4449 0015 2A310000 		.4byte	.LASF1028
 4450 0019 38020000 		.4byte	.Ldebug_ranges0+0x238
 4451 001d 00000000 		.4byte	0
 4452 0021 00000000 		.4byte	.Ldebug_line0
 4453 0025 02       		.uleb128 0x2
 4454 0026 04       		.byte	0x4
 4455 0027 04       		.byte	0x4
 4456 0028 DD0B0000 		.4byte	.LASF0
 4457 002c 03       		.uleb128 0x3
 4458 002d 04       		.byte	0x4
 4459 002e 05       		.byte	0x5
 4460 002f 696E7400 		.ascii	"int\000"
 4461 0033 04       		.uleb128 0x4
 4462 0034 2C000000 		.4byte	0x2c
 4463 0038 05       		.uleb128 0x5
 4464 0039 6C120000 		.4byte	.LASF2
 4465 003d 04       		.byte	0x4
 4466 003e D8       		.byte	0xd8
 4467 003f 48000000 		.4byte	0x48
 4468 0043 04       		.uleb128 0x4
 4469 0044 38000000 		.4byte	0x38
 4470 0048 02       		.uleb128 0x2
 4471 0049 04       		.byte	0x4
 4472 004a 07       		.byte	0x7
 4473 004b 7F340000 		.4byte	.LASF1
 4474 004f 05       		.uleb128 0x5
 4475 0050 A4330000 		.4byte	.LASF3
 4476 0054 05       		.byte	0x5
 4477 0055 29       		.byte	0x29
 4478 0056 5A000000 		.4byte	0x5a
 4479 005a 02       		.uleb128 0x2
 4480 005b 01       		.byte	0x1
 4481 005c 06       		.byte	0x6
 4482 005d BF1C0000 		.4byte	.LASF4
 4483 0061 05       		.uleb128 0x5
 4484 0062 42010000 		.4byte	.LASF5
 4485 0066 05       		.byte	0x5
 4486 0067 2B       		.byte	0x2b
 4487 0068 6C000000 		.4byte	0x6c
 4488 006c 02       		.uleb128 0x2
 4489 006d 01       		.byte	0x1
 4490 006e 08       		.byte	0x8
 4491 006f 480B0000 		.4byte	.LASF6
 4492 0073 02       		.uleb128 0x2
 4493 0074 02       		.byte	0x2
 4494 0075 05       		.byte	0x5
 4495 0076 F9340000 		.4byte	.LASF7
 4496 007a 05       		.uleb128 0x5
 4497 007b 5A090000 		.4byte	.LASF8
 4498 007f 05       		.byte	0x5
 4499 0080 39       		.byte	0x39
ARM GAS  /tmp/ccU5UnMV.s 			page 94


 4500 0081 85000000 		.4byte	0x85
 4501 0085 02       		.uleb128 0x2
 4502 0086 02       		.byte	0x2
 4503 0087 07       		.byte	0x7
 4504 0088 AC1C0000 		.4byte	.LASF9
 4505 008c 05       		.uleb128 0x5
 4506 008d 8E290000 		.4byte	.LASF10
 4507 0091 05       		.byte	0x5
 4508 0092 4D       		.byte	0x4d
 4509 0093 97000000 		.4byte	0x97
 4510 0097 02       		.uleb128 0x2
 4511 0098 04       		.byte	0x4
 4512 0099 05       		.byte	0x5
 4513 009a C41F0000 		.4byte	.LASF11
 4514 009e 05       		.uleb128 0x5
 4515 009f 98290000 		.4byte	.LASF12
 4516 00a3 05       		.byte	0x5
 4517 00a4 4F       		.byte	0x4f
 4518 00a5 A9000000 		.4byte	0xa9
 4519 00a9 02       		.uleb128 0x2
 4520 00aa 04       		.byte	0x4
 4521 00ab 07       		.byte	0x7
 4522 00ac 58220000 		.4byte	.LASF13
 4523 00b0 02       		.uleb128 0x2
 4524 00b1 08       		.byte	0x8
 4525 00b2 05       		.byte	0x5
 4526 00b3 83300000 		.4byte	.LASF14
 4527 00b7 05       		.uleb128 0x5
 4528 00b8 97170000 		.4byte	.LASF15
 4529 00bc 05       		.byte	0x5
 4530 00bd 69       		.byte	0x69
 4531 00be C2000000 		.4byte	0xc2
 4532 00c2 02       		.uleb128 0x2
 4533 00c3 08       		.byte	0x8
 4534 00c4 07       		.byte	0x7
 4535 00c5 7B2C0000 		.4byte	.LASF16
 4536 00c9 05       		.uleb128 0x5
 4537 00ca F11A0000 		.4byte	.LASF17
 4538 00ce 06       		.byte	0x6
 4539 00cf 14       		.byte	0x14
 4540 00d0 4F000000 		.4byte	0x4f
 4541 00d4 05       		.uleb128 0x5
 4542 00d5 A6120000 		.4byte	.LASF18
 4543 00d9 06       		.byte	0x6
 4544 00da 18       		.byte	0x18
 4545 00db 61000000 		.4byte	0x61
 4546 00df 06       		.uleb128 0x6
 4547 00e0 D4000000 		.4byte	0xd4
 4548 00e4 05       		.uleb128 0x5
 4549 00e5 C4020000 		.4byte	.LASF19
 4550 00e9 06       		.byte	0x6
 4551 00ea 24       		.byte	0x24
 4552 00eb 7A000000 		.4byte	0x7a
 4553 00ef 04       		.uleb128 0x4
 4554 00f0 E4000000 		.4byte	0xe4
 4555 00f4 05       		.uleb128 0x5
 4556 00f5 83040000 		.4byte	.LASF20
ARM GAS  /tmp/ccU5UnMV.s 			page 95


 4557 00f9 06       		.byte	0x6
 4558 00fa 2C       		.byte	0x2c
 4559 00fb 8C000000 		.4byte	0x8c
 4560 00ff 04       		.uleb128 0x4
 4561 0100 F4000000 		.4byte	0xf4
 4562 0104 05       		.uleb128 0x5
 4563 0105 42210000 		.4byte	.LASF21
 4564 0109 06       		.byte	0x6
 4565 010a 30       		.byte	0x30
 4566 010b 9E000000 		.4byte	0x9e
 4567 010f 04       		.uleb128 0x4
 4568 0110 04010000 		.4byte	0x104
 4569 0114 05       		.uleb128 0x5
 4570 0115 430D0000 		.4byte	.LASF22
 4571 0119 06       		.byte	0x6
 4572 011a 3C       		.byte	0x3c
 4573 011b B7000000 		.4byte	0xb7
 4574 011f 05       		.uleb128 0x5
 4575 0120 63110000 		.4byte	.LASF23
 4576 0124 07       		.byte	0x7
 4577 0125 45       		.byte	0x45
 4578 0126 04010000 		.4byte	0x104
 4579 012a 05       		.uleb128 0x5
 4580 012b 86190000 		.4byte	.LASF24
 4581 012f 07       		.byte	0x7
 4582 0130 48       		.byte	0x48
 4583 0131 D4000000 		.4byte	0xd4
 4584 0135 05       		.uleb128 0x5
 4585 0136 242E0000 		.4byte	.LASF25
 4586 013a 07       		.byte	0x7
 4587 013b 49       		.byte	0x49
 4588 013c D4000000 		.4byte	0xd4
 4589 0140 05       		.uleb128 0x5
 4590 0141 FA180000 		.4byte	.LASF26
 4591 0145 07       		.byte	0x7
 4592 0146 4A       		.byte	0x4a
 4593 0147 D4000000 		.4byte	0xd4
 4594 014b 05       		.uleb128 0x5
 4595 014c E01B0000 		.4byte	.LASF27
 4596 0150 07       		.byte	0x7
 4597 0151 4B       		.byte	0x4b
 4598 0152 D4000000 		.4byte	0xd4
 4599 0156 05       		.uleb128 0x5
 4600 0157 00080000 		.4byte	.LASF28
 4601 015b 07       		.byte	0x7
 4602 015c 4C       		.byte	0x4c
 4603 015d 04010000 		.4byte	0x104
 4604 0161 05       		.uleb128 0x5
 4605 0162 94000000 		.4byte	.LASF29
 4606 0166 07       		.byte	0x7
 4607 0167 4D       		.byte	0x4d
 4608 0168 F4000000 		.4byte	0xf4
 4609 016c 05       		.uleb128 0x5
 4610 016d F4210000 		.4byte	.LASF30
 4611 0171 07       		.byte	0x7
 4612 0172 4F       		.byte	0x4f
 4613 0173 04010000 		.4byte	0x104
ARM GAS  /tmp/ccU5UnMV.s 			page 96


 4614 0177 05       		.uleb128 0x5
 4615 0178 83310000 		.4byte	.LASF31
 4616 017c 07       		.byte	0x7
 4617 017d 50       		.byte	0x50
 4618 017e 04010000 		.4byte	0x104
 4619 0182 05       		.uleb128 0x5
 4620 0183 F8250000 		.4byte	.LASF32
 4621 0187 07       		.byte	0x7
 4622 0188 51       		.byte	0x51
 4623 0189 F4000000 		.4byte	0xf4
 4624 018d 05       		.uleb128 0x5
 4625 018e A5040000 		.4byte	.LASF33
 4626 0192 08       		.byte	0x8
 4627 0193 33       		.byte	0x33
 4628 0194 04010000 		.4byte	0x104
 4629 0198 04       		.uleb128 0x4
 4630 0199 8D010000 		.4byte	0x18d
 4631 019d 05       		.uleb128 0x5
 4632 019e 32040000 		.4byte	.LASF34
 4633 01a2 08       		.byte	0x8
 4634 01a3 3F       		.byte	0x3f
 4635 01a4 A8010000 		.4byte	0x1a8
 4636 01a8 07       		.uleb128 0x7
 4637 01a9 A20B0000 		.4byte	.LASF56
 4638 01ad 48       		.byte	0x48
 4639 01ae 09       		.byte	0x9
 4640 01af C2       		.byte	0xc2
 4641 01b0 AD020000 		.4byte	0x2ad
 4642 01b4 08       		.uleb128 0x8
 4643 01b5 4C180000 		.4byte	.LASF35
 4644 01b9 09       		.byte	0x9
 4645 01ba C3       		.byte	0xc3
 4646 01bb B8020000 		.4byte	0x2b8
 4647 01bf 00       		.byte	0
 4648 01c0 08       		.uleb128 0x8
 4649 01c1 FF120000 		.4byte	.LASF36
 4650 01c5 09       		.byte	0x9
 4651 01c6 C5       		.byte	0xc5
 4652 01c7 B8020000 		.4byte	0x2b8
 4653 01cb 04       		.byte	0x4
 4654 01cc 08       		.uleb128 0x8
 4655 01cd 4E170000 		.4byte	.LASF37
 4656 01d1 09       		.byte	0x9
 4657 01d2 C7       		.byte	0xc7
 4658 01d3 56010000 		.4byte	0x156
 4659 01d7 08       		.byte	0x8
 4660 01d8 08       		.uleb128 0x8
 4661 01d9 620C0000 		.4byte	.LASF38
 4662 01dd 09       		.byte	0x9
 4663 01de C8       		.byte	0xc8
 4664 01df A80A0000 		.4byte	0xaa8
 4665 01e3 0C       		.byte	0xc
 4666 01e4 08       		.uleb128 0x8
 4667 01e5 5F030000 		.4byte	.LASF39
 4668 01e9 09       		.byte	0x9
 4669 01ea CA       		.byte	0xca
 4670 01eb B8020000 		.4byte	0x2b8
ARM GAS  /tmp/ccU5UnMV.s 			page 97


 4671 01ef 10       		.byte	0x10
 4672 01f0 08       		.uleb128 0x8
 4673 01f1 9B320000 		.4byte	.LASF40
 4674 01f5 09       		.byte	0x9
 4675 01f6 CB       		.byte	0xcb
 4676 01f7 B8020000 		.4byte	0x2b8
 4677 01fb 14       		.byte	0x14
 4678 01fc 08       		.uleb128 0x8
 4679 01fd BB2E0000 		.4byte	.LASF41
 4680 0201 09       		.byte	0x9
 4681 0202 D2       		.byte	0xd2
 4682 0203 ED0C0000 		.4byte	0xced
 4683 0207 18       		.byte	0x18
 4684 0208 08       		.uleb128 0x8
 4685 0209 CC350000 		.4byte	.LASF42
 4686 020d 09       		.byte	0x9
 4687 020e DD       		.byte	0xdd
 4688 020f 35010000 		.4byte	0x135
 4689 0213 1C       		.byte	0x1c
 4690 0214 08       		.uleb128 0x8
 4691 0215 672D0000 		.4byte	.LASF43
 4692 0219 09       		.byte	0x9
 4693 021a E1       		.byte	0xe1
 4694 021b 2A010000 		.4byte	0x12a
 4695 021f 1D       		.byte	0x1d
 4696 0220 08       		.uleb128 0x8
 4697 0221 8E1F0000 		.4byte	.LASF44
 4698 0225 09       		.byte	0x9
 4699 0226 E6       		.byte	0xe6
 4700 0227 40010000 		.4byte	0x140
 4701 022b 1E       		.byte	0x1e
 4702 022c 08       		.uleb128 0x8
 4703 022d 191D0000 		.4byte	.LASF45
 4704 0231 09       		.byte	0x9
 4705 0232 EC       		.byte	0xec
 4706 0233 4B010000 		.4byte	0x14b
 4707 0237 1F       		.byte	0x1f
 4708 0238 08       		.uleb128 0x8
 4709 0239 2E1D0000 		.4byte	.LASF46
 4710 023d 09       		.byte	0x9
 4711 023e F3       		.byte	0xf3
 4712 023f 98010000 		.4byte	0x198
 4713 0243 20       		.byte	0x20
 4714 0244 09       		.uleb128 0x9
 4715 0245 705F7500 		.ascii	"p_u\000"
 4716 0249 09       		.byte	0x9
 4717 024a 3101     		.2byte	0x131
 4718 024c 280C0000 		.4byte	0xc28
 4719 0250 24       		.byte	0x24
 4720 0251 0A       		.uleb128 0xa
 4721 0252 62060000 		.4byte	.LASF47
 4722 0256 09       		.byte	0x9
 4723 0257 3601     		.2byte	0x136
 4724 0259 BE020000 		.4byte	0x2be
 4725 025d 28       		.byte	0x28
 4726 025e 0A       		.uleb128 0xa
 4727 025f C01D0000 		.4byte	.LASF48
ARM GAS  /tmp/ccU5UnMV.s 			page 98


 4728 0263 09       		.byte	0x9
 4729 0264 3C01     		.2byte	0x13c
 4730 0266 E2020000 		.4byte	0x2e2
 4731 026a 2C       		.byte	0x2c
 4732 026b 0A       		.uleb128 0xa
 4733 026c 80090000 		.4byte	.LASF49
 4734 0270 09       		.byte	0x9
 4735 0271 4001     		.2byte	0x140
 4736 0273 61010000 		.4byte	0x161
 4737 0277 34       		.byte	0x34
 4738 0278 0A       		.uleb128 0xa
 4739 0279 7D2A0000 		.4byte	.LASF50
 4740 027d 09       		.byte	0x9
 4741 027e 4601     		.2byte	0x146
 4742 0280 6C010000 		.4byte	0x16c
 4743 0284 38       		.byte	0x38
 4744 0285 0A       		.uleb128 0xa
 4745 0286 FB2D0000 		.4byte	.LASF51
 4746 028a 09       		.byte	0x9
 4747 028b 4D01     		.2byte	0x14d
 4748 028d E70C0000 		.4byte	0xce7
 4749 0291 3C       		.byte	0x3c
 4750 0292 0A       		.uleb128 0xa
 4751 0293 1C280000 		.4byte	.LASF52
 4752 0297 09       		.byte	0x9
 4753 0298 5101     		.2byte	0x151
 4754 029a 56010000 		.4byte	0x156
 4755 029e 40       		.byte	0x40
 4756 029f 0A       		.uleb128 0xa
 4757 02a0 02190000 		.4byte	.LASF53
 4758 02a4 09       		.byte	0x9
 4759 02a5 5801     		.2byte	0x158
 4760 02a7 95030000 		.4byte	0x395
 4761 02ab 44       		.byte	0x44
 4762 02ac 00       		.byte	0
 4763 02ad 05       		.uleb128 0x5
 4764 02ae DF320000 		.4byte	.LASF54
 4765 02b2 08       		.byte	0x8
 4766 02b3 44       		.byte	0x44
 4767 02b4 B8020000 		.4byte	0x2b8
 4768 02b8 0B       		.uleb128 0xb
 4769 02b9 04       		.byte	0x4
 4770 02ba 9D010000 		.4byte	0x19d
 4771 02be 05       		.uleb128 0x5
 4772 02bf 98060000 		.4byte	.LASF55
 4773 02c3 08       		.byte	0x8
 4774 02c4 49       		.byte	0x49
 4775 02c5 C9020000 		.4byte	0x2c9
 4776 02c9 07       		.uleb128 0x7
 4777 02ca F1350000 		.4byte	.LASF57
 4778 02ce 04       		.byte	0x4
 4779 02cf 09       		.byte	0x9
 4780 02d0 B0       		.byte	0xb0
 4781 02d1 E2020000 		.4byte	0x2e2
 4782 02d5 08       		.uleb128 0x8
 4783 02d6 4C180000 		.4byte	.LASF35
 4784 02da 09       		.byte	0x9
ARM GAS  /tmp/ccU5UnMV.s 			page 99


 4785 02db B1       		.byte	0xb1
 4786 02dc B8020000 		.4byte	0x2b8
 4787 02e0 00       		.byte	0
 4788 02e1 00       		.byte	0
 4789 02e2 05       		.uleb128 0x5
 4790 02e3 321F0000 		.4byte	.LASF58
 4791 02e7 08       		.byte	0x8
 4792 02e8 50       		.byte	0x50
 4793 02e9 ED020000 		.4byte	0x2ed
 4794 02ed 07       		.uleb128 0x7
 4795 02ee 35030000 		.4byte	.LASF59
 4796 02f2 08       		.byte	0x8
 4797 02f3 09       		.byte	0x9
 4798 02f4 B7       		.byte	0xb7
 4799 02f5 12030000 		.4byte	0x312
 4800 02f9 08       		.uleb128 0x8
 4801 02fa 4C180000 		.4byte	.LASF35
 4802 02fe 09       		.byte	0x9
 4803 02ff B8       		.byte	0xb8
 4804 0300 B8020000 		.4byte	0x2b8
 4805 0304 00       		.byte	0
 4806 0305 08       		.uleb128 0x8
 4807 0306 FF120000 		.4byte	.LASF36
 4808 030a 09       		.byte	0x9
 4809 030b B9       		.byte	0xb9
 4810 030c B8020000 		.4byte	0x2b8
 4811 0310 04       		.byte	0x4
 4812 0311 00       		.byte	0
 4813 0312 05       		.uleb128 0x5
 4814 0313 950B0000 		.4byte	.LASF60
 4815 0317 08       		.byte	0x8
 4816 0318 57       		.byte	0x57
 4817 0319 1D030000 		.4byte	0x31d
 4818 031d 0C       		.uleb128 0xc
 4819 031e 64290000 		.4byte	.LASF61
 4820 0322 1C       		.byte	0x1c
 4821 0323 09       		.byte	0x9
 4822 0324 9001     		.2byte	0x190
 4823 0326 79030000 		.4byte	0x379
 4824 032a 0A       		.uleb128 0xa
 4825 032b 91230000 		.4byte	.LASF62
 4826 032f 09       		.byte	0x9
 4827 0330 9101     		.2byte	0x191
 4828 0332 E2020000 		.4byte	0x2e2
 4829 0336 00       		.byte	0
 4830 0337 0A       		.uleb128 0xa
 4831 0338 122C0000 		.4byte	.LASF63
 4832 033c 09       		.byte	0x9
 4833 033d 9201     		.2byte	0x192
 4834 033f 56010000 		.4byte	0x156
 4835 0343 08       		.byte	0x8
 4836 0344 0A       		.uleb128 0xa
 4837 0345 F2100000 		.4byte	.LASF64
 4838 0349 09       		.byte	0x9
 4839 034a 9401     		.2byte	0x194
 4840 034c A80A0000 		.4byte	0xaa8
 4841 0350 0C       		.byte	0xc
ARM GAS  /tmp/ccU5UnMV.s 			page 100


 4842 0351 0A       		.uleb128 0xa
 4843 0352 1D1B0000 		.4byte	.LASF65
 4844 0356 09       		.byte	0x9
 4845 0357 9701     		.2byte	0x197
 4846 0359 B8020000 		.4byte	0x2b8
 4847 035d 10       		.byte	0x10
 4848 035e 0A       		.uleb128 0xa
 4849 035f E8120000 		.4byte	.LASF66
 4850 0363 09       		.byte	0x9
 4851 0364 9801     		.2byte	0x198
 4852 0366 B8020000 		.4byte	0x2b8
 4853 036a 14       		.byte	0x14
 4854 036b 0A       		.uleb128 0xa
 4855 036c 7C0C0000 		.4byte	.LASF67
 4856 0370 09       		.byte	0x9
 4857 0371 9B01     		.2byte	0x19b
 4858 0373 B8020000 		.4byte	0x2b8
 4859 0377 18       		.byte	0x18
 4860 0378 00       		.byte	0
 4861 0379 05       		.uleb128 0x5
 4862 037a C6270000 		.4byte	.LASF68
 4863 037e 08       		.byte	0x8
 4864 037f 5C       		.byte	0x5c
 4865 0380 84030000 		.4byte	0x384
 4866 0384 0B       		.uleb128 0xb
 4867 0385 04       		.byte	0x4
 4868 0386 8A030000 		.4byte	0x38a
 4869 038a 0D       		.uleb128 0xd
 4870 038b 95030000 		.4byte	0x395
 4871 038f 0E       		.uleb128 0xe
 4872 0390 95030000 		.4byte	0x395
 4873 0394 00       		.byte	0
 4874 0395 0F       		.uleb128 0xf
 4875 0396 04       		.byte	0x4
 4876 0397 05       		.uleb128 0x5
 4877 0398 E2100000 		.4byte	.LASF69
 4878 039c 08       		.byte	0x8
 4879 039d 61       		.byte	0x61
 4880 039e A2030000 		.4byte	0x3a2
 4881 03a2 0C       		.uleb128 0xc
 4882 03a3 562D0000 		.4byte	.LASF70
 4883 03a7 14       		.byte	0x14
 4884 03a8 09       		.byte	0x9
 4885 03a9 6B01     		.2byte	0x16b
 4886 03ab F1030000 		.4byte	0x3f1
 4887 03af 0A       		.uleb128 0xa
 4888 03b0 F8100000 		.4byte	.LASF71
 4889 03b4 09       		.byte	0x9
 4890 03b5 6C01     		.2byte	0x16c
 4891 03b7 040D0000 		.4byte	0xd04
 4892 03bb 00       		.byte	0
 4893 03bc 0A       		.uleb128 0xa
 4894 03bd 300B0000 		.4byte	.LASF72
 4895 03c1 09       		.byte	0x9
 4896 03c2 6D01     		.2byte	0x16d
 4897 03c4 040D0000 		.4byte	0xd04
 4898 03c8 04       		.byte	0x4
ARM GAS  /tmp/ccU5UnMV.s 			page 101


 4899 03c9 0A       		.uleb128 0xa
 4900 03ca 4A1C0000 		.4byte	.LASF73
 4901 03ce 09       		.byte	0x9
 4902 03cf 6E01     		.2byte	0x16e
 4903 03d1 8D010000 		.4byte	0x18d
 4904 03d5 08       		.byte	0x8
 4905 03d6 0A       		.uleb128 0xa
 4906 03d7 1E2D0000 		.4byte	.LASF74
 4907 03db 09       		.byte	0x9
 4908 03dc 6F01     		.2byte	0x16f
 4909 03de 79030000 		.4byte	0x379
 4910 03e2 0C       		.byte	0xc
 4911 03e3 0A       		.uleb128 0xa
 4912 03e4 680C0000 		.4byte	.LASF75
 4913 03e8 09       		.byte	0x9
 4914 03e9 7101     		.2byte	0x171
 4915 03eb 95030000 		.4byte	0x395
 4916 03ef 10       		.byte	0x10
 4917 03f0 00       		.byte	0
 4918 03f1 05       		.uleb128 0x5
 4919 03f2 352F0000 		.4byte	.LASF76
 4920 03f6 08       		.byte	0x8
 4921 03f7 66       		.byte	0x66
 4922 03f8 FC030000 		.4byte	0x3fc
 4923 03fc 0C       		.uleb128 0xc
 4924 03fd 51040000 		.4byte	.LASF77
 4925 0401 10       		.byte	0x10
 4926 0402 09       		.byte	0x9
 4927 0403 7B01     		.2byte	0x17b
 4928 0405 3E040000 		.4byte	0x43e
 4929 0409 0A       		.uleb128 0xa
 4930 040a F8100000 		.4byte	.LASF71
 4931 040e 09       		.byte	0x9
 4932 040f 7C01     		.2byte	0x17c
 4933 0411 040D0000 		.4byte	0xd04
 4934 0415 00       		.byte	0
 4935 0416 0A       		.uleb128 0xa
 4936 0417 300B0000 		.4byte	.LASF72
 4937 041b 09       		.byte	0x9
 4938 041c 7E01     		.2byte	0x17e
 4939 041e 040D0000 		.4byte	0xd04
 4940 0422 04       		.byte	0x4
 4941 0423 0A       		.uleb128 0xa
 4942 0424 4A1C0000 		.4byte	.LASF73
 4943 0428 09       		.byte	0x9
 4944 0429 8001     		.2byte	0x180
 4945 042b 8D010000 		.4byte	0x18d
 4946 042f 08       		.byte	0x8
 4947 0430 0A       		.uleb128 0xa
 4948 0431 C9010000 		.4byte	.LASF78
 4949 0435 09       		.byte	0x9
 4950 0436 8201     		.2byte	0x182
 4951 0438 98010000 		.4byte	0x198
 4952 043c 0C       		.byte	0xc
 4953 043d 00       		.byte	0
 4954 043e 05       		.uleb128 0x5
 4955 043f 3D0C0000 		.4byte	.LASF79
ARM GAS  /tmp/ccU5UnMV.s 			page 102


 4956 0443 08       		.byte	0x8
 4957 0444 6B       		.byte	0x6b
 4958 0445 49040000 		.4byte	0x449
 4959 0449 0C       		.uleb128 0xc
 4960 044a A9290000 		.4byte	.LASF80
 4961 044e 04       		.byte	0x4
 4962 044f 09       		.byte	0x9
 4963 0450 A201     		.2byte	0x1a2
 4964 0452 64040000 		.4byte	0x464
 4965 0456 0A       		.uleb128 0xa
 4966 0457 001B0000 		.4byte	.LASF81
 4967 045b 09       		.byte	0x9
 4968 045c AA01     		.2byte	0x1aa
 4969 045e F30C0000 		.4byte	0xcf3
 4970 0462 00       		.byte	0
 4971 0463 00       		.byte	0
 4972 0464 05       		.uleb128 0x5
 4973 0465 36010000 		.4byte	.LASF82
 4974 0469 08       		.byte	0x8
 4975 046a 70       		.byte	0x70
 4976 046b 6F040000 		.4byte	0x46f
 4977 046f 10       		.uleb128 0x10
 4978 0470 6F1E0000 		.4byte	.LASF83
 4979 0474 5802     		.2byte	0x258
 4980 0476 09       		.byte	0x9
 4981 0477 C201     		.2byte	0x1c2
 4982 0479 CB040000 		.4byte	0x4cb
 4983 047d 0A       		.uleb128 0xa
 4984 047e 92060000 		.4byte	.LASF84
 4985 0482 09       		.byte	0x9
 4986 0483 C601     		.2byte	0x1c6
 4987 0485 12030000 		.4byte	0x312
 4988 0489 00       		.byte	0
 4989 048a 0A       		.uleb128 0xa
 4990 048b 42060000 		.4byte	.LASF85
 4991 048f 09       		.byte	0x9
 4992 0490 CA01     		.2byte	0x1ca
 4993 0492 F1030000 		.4byte	0x3f1
 4994 0496 1C       		.byte	0x1c
 4995 0497 09       		.uleb128 0x9
 4996 0498 64626700 		.ascii	"dbg\000"
 4997 049c 09       		.byte	0x9
 4998 049d CE01     		.2byte	0x1ce
 4999 049f 3E040000 		.4byte	0x43e
 5000 04a3 2C       		.byte	0x2c
 5001 04a4 0A       		.uleb128 0xa
 5002 04a5 CD1F0000 		.4byte	.LASF86
 5003 04a9 09       		.byte	0x9
 5004 04aa D201     		.2byte	0x1d2
 5005 04ac 9D010000 		.4byte	0x19d
 5006 04b0 30       		.byte	0x30
 5007 04b1 09       		.uleb128 0x9
 5008 04b2 746D00   		.ascii	"tm\000"
 5009 04b5 09       		.byte	0x9
 5010 04b6 D701     		.2byte	0x1d7
 5011 04b8 1D0C0000 		.4byte	0xc1d
 5012 04bc 78       		.byte	0x78
ARM GAS  /tmp/ccU5UnMV.s 			page 103


 5013 04bd 0A       		.uleb128 0xa
 5014 04be F02C0000 		.4byte	.LASF87
 5015 04c2 09       		.byte	0x9
 5016 04c3 E301     		.2byte	0x1e3
 5017 04c5 0A0D0000 		.4byte	0xd0a
 5018 04c9 80       		.byte	0x80
 5019 04ca 00       		.byte	0
 5020 04cb 11       		.uleb128 0x11
 5021 04cc 04010000 		.4byte	0x104
 5022 04d0 DB040000 		.4byte	0x4db
 5023 04d4 12       		.uleb128 0x12
 5024 04d5 48000000 		.4byte	0x48
 5025 04d9 07       		.byte	0x7
 5026 04da 00       		.byte	0
 5027 04db 13       		.uleb128 0x13
 5028 04dc 4B2C0000 		.4byte	.LASF88
 5029 04e0 0A       		.byte	0xa
 5030 04e1 A706     		.2byte	0x6a7
 5031 04e3 FF000000 		.4byte	0xff
 5032 04e7 14       		.uleb128 0x14
 5033 04e8 111E0000 		.4byte	.LASF89
 5034 04ec 0B       		.byte	0xb
 5035 04ed 4C       		.byte	0x4c
 5036 04ee 04010000 		.4byte	0x104
 5037 04f2 15       		.uleb128 0x15
 5038 04f3 10       		.byte	0x10
 5039 04f4 0C       		.byte	0xc
 5040 04f5 E9       		.byte	0xe9
 5041 04f6 2B050000 		.4byte	0x52b
 5042 04fa 16       		.uleb128 0x16
 5043 04fb 54495200 		.ascii	"TIR\000"
 5044 04ff 0C       		.byte	0xc
 5045 0500 EB       		.byte	0xeb
 5046 0501 0F010000 		.4byte	0x10f
 5047 0505 00       		.byte	0
 5048 0506 08       		.uleb128 0x8
 5049 0507 F1160000 		.4byte	.LASF90
 5050 050b 0C       		.byte	0xc
 5051 050c EC       		.byte	0xec
 5052 050d 0F010000 		.4byte	0x10f
 5053 0511 04       		.byte	0x4
 5054 0512 08       		.uleb128 0x8
 5055 0513 BF1F0000 		.4byte	.LASF91
 5056 0517 0C       		.byte	0xc
 5057 0518 ED       		.byte	0xed
 5058 0519 0F010000 		.4byte	0x10f
 5059 051d 08       		.byte	0x8
 5060 051e 08       		.uleb128 0x8
 5061 051f 351D0000 		.4byte	.LASF92
 5062 0523 0C       		.byte	0xc
 5063 0524 EE       		.byte	0xee
 5064 0525 0F010000 		.4byte	0x10f
 5065 0529 0C       		.byte	0xc
 5066 052a 00       		.byte	0
 5067 052b 05       		.uleb128 0x5
 5068 052c 7C060000 		.4byte	.LASF93
 5069 0530 0C       		.byte	0xc
ARM GAS  /tmp/ccU5UnMV.s 			page 104


 5070 0531 EF       		.byte	0xef
 5071 0532 F2040000 		.4byte	0x4f2
 5072 0536 15       		.uleb128 0x15
 5073 0537 10       		.byte	0x10
 5074 0538 0C       		.byte	0xc
 5075 0539 F5       		.byte	0xf5
 5076 053a 6F050000 		.4byte	0x56f
 5077 053e 16       		.uleb128 0x16
 5078 053f 52495200 		.ascii	"RIR\000"
 5079 0543 0C       		.byte	0xc
 5080 0544 F7       		.byte	0xf7
 5081 0545 0F010000 		.4byte	0x10f
 5082 0549 00       		.byte	0
 5083 054a 08       		.uleb128 0x8
 5084 054b 37290000 		.4byte	.LASF94
 5085 054f 0C       		.byte	0xc
 5086 0550 F8       		.byte	0xf8
 5087 0551 0F010000 		.4byte	0x10f
 5088 0555 04       		.byte	0x4
 5089 0556 08       		.uleb128 0x8
 5090 0557 9A210000 		.4byte	.LASF95
 5091 055b 0C       		.byte	0xc
 5092 055c F9       		.byte	0xf9
 5093 055d 0F010000 		.4byte	0x10f
 5094 0561 08       		.byte	0x8
 5095 0562 08       		.uleb128 0x8
 5096 0563 591E0000 		.4byte	.LASF96
 5097 0567 0C       		.byte	0xc
 5098 0568 FA       		.byte	0xfa
 5099 0569 0F010000 		.4byte	0x10f
 5100 056d 0C       		.byte	0xc
 5101 056e 00       		.byte	0
 5102 056f 05       		.uleb128 0x5
 5103 0570 CF270000 		.4byte	.LASF97
 5104 0574 0C       		.byte	0xc
 5105 0575 FB       		.byte	0xfb
 5106 0576 36050000 		.4byte	0x536
 5107 057a 17       		.uleb128 0x17
 5108 057b 08       		.byte	0x8
 5109 057c 0C       		.byte	0xc
 5110 057d 0101     		.2byte	0x101
 5111 057f 9E050000 		.4byte	0x59e
 5112 0583 09       		.uleb128 0x9
 5113 0584 46523100 		.ascii	"FR1\000"
 5114 0588 0C       		.byte	0xc
 5115 0589 0301     		.2byte	0x103
 5116 058b 0F010000 		.4byte	0x10f
 5117 058f 00       		.byte	0
 5118 0590 09       		.uleb128 0x9
 5119 0591 46523200 		.ascii	"FR2\000"
 5120 0595 0C       		.byte	0xc
 5121 0596 0401     		.2byte	0x104
 5122 0598 0F010000 		.4byte	0x10f
 5123 059c 04       		.byte	0x4
 5124 059d 00       		.byte	0
 5125 059e 18       		.uleb128 0x18
 5126 059f 01170000 		.4byte	.LASF98
ARM GAS  /tmp/ccU5UnMV.s 			page 105


 5127 05a3 0C       		.byte	0xc
 5128 05a4 0501     		.2byte	0x105
 5129 05a6 7A050000 		.4byte	0x57a
 5130 05aa 19       		.uleb128 0x19
 5131 05ab 2003     		.2byte	0x320
 5132 05ad 0C       		.byte	0xc
 5133 05ae 0B01     		.2byte	0x10b
 5134 05b0 E0060000 		.4byte	0x6e0
 5135 05b4 09       		.uleb128 0x9
 5136 05b5 4D435200 		.ascii	"MCR\000"
 5137 05b9 0C       		.byte	0xc
 5138 05ba 0D01     		.2byte	0x10d
 5139 05bc 0F010000 		.4byte	0x10f
 5140 05c0 00       		.byte	0
 5141 05c1 09       		.uleb128 0x9
 5142 05c2 4D535200 		.ascii	"MSR\000"
 5143 05c6 0C       		.byte	0xc
 5144 05c7 0E01     		.2byte	0x10e
 5145 05c9 0F010000 		.4byte	0x10f
 5146 05cd 04       		.byte	0x4
 5147 05ce 09       		.uleb128 0x9
 5148 05cf 54535200 		.ascii	"TSR\000"
 5149 05d3 0C       		.byte	0xc
 5150 05d4 0F01     		.2byte	0x10f
 5151 05d6 0F010000 		.4byte	0x10f
 5152 05da 08       		.byte	0x8
 5153 05db 0A       		.uleb128 0xa
 5154 05dc F6130000 		.4byte	.LASF99
 5155 05e0 0C       		.byte	0xc
 5156 05e1 1001     		.2byte	0x110
 5157 05e3 0F010000 		.4byte	0x10f
 5158 05e7 0C       		.byte	0xc
 5159 05e8 0A       		.uleb128 0xa
 5160 05e9 68150000 		.4byte	.LASF100
 5161 05ed 0C       		.byte	0xc
 5162 05ee 1101     		.2byte	0x111
 5163 05f0 0F010000 		.4byte	0x10f
 5164 05f4 10       		.byte	0x10
 5165 05f5 09       		.uleb128 0x9
 5166 05f6 49455200 		.ascii	"IER\000"
 5167 05fa 0C       		.byte	0xc
 5168 05fb 1201     		.2byte	0x112
 5169 05fd 0F010000 		.4byte	0x10f
 5170 0601 14       		.byte	0x14
 5171 0602 09       		.uleb128 0x9
 5172 0603 45535200 		.ascii	"ESR\000"
 5173 0607 0C       		.byte	0xc
 5174 0608 1301     		.2byte	0x113
 5175 060a 0F010000 		.4byte	0x10f
 5176 060e 18       		.byte	0x18
 5177 060f 09       		.uleb128 0x9
 5178 0610 42545200 		.ascii	"BTR\000"
 5179 0614 0C       		.byte	0xc
 5180 0615 1401     		.2byte	0x114
 5181 0617 0F010000 		.4byte	0x10f
 5182 061b 1C       		.byte	0x1c
 5183 061c 0A       		.uleb128 0xa
ARM GAS  /tmp/ccU5UnMV.s 			page 106


 5184 061d E82A0000 		.4byte	.LASF101
 5185 0621 0C       		.byte	0xc
 5186 0622 1501     		.2byte	0x115
 5187 0624 E0060000 		.4byte	0x6e0
 5188 0628 20       		.byte	0x20
 5189 0629 1A       		.uleb128 0x1a
 5190 062a 2D180000 		.4byte	.LASF102
 5191 062e 0C       		.byte	0xc
 5192 062f 1601     		.2byte	0x116
 5193 0631 F0060000 		.4byte	0x6f0
 5194 0635 8001     		.2byte	0x180
 5195 0637 1A       		.uleb128 0x1a
 5196 0638 E2310000 		.4byte	.LASF103
 5197 063c 0C       		.byte	0xc
 5198 063d 1701     		.2byte	0x117
 5199 063f 00070000 		.4byte	0x700
 5200 0643 B001     		.2byte	0x1b0
 5201 0645 1A       		.uleb128 0x1a
 5202 0646 F22A0000 		.4byte	.LASF104
 5203 064a 0C       		.byte	0xc
 5204 064b 1801     		.2byte	0x118
 5205 064d 10070000 		.4byte	0x710
 5206 0651 D001     		.2byte	0x1d0
 5207 0653 1B       		.uleb128 0x1b
 5208 0654 464D5200 		.ascii	"FMR\000"
 5209 0658 0C       		.byte	0xc
 5210 0659 1901     		.2byte	0x119
 5211 065b 0F010000 		.4byte	0x10f
 5212 065f 0002     		.2byte	0x200
 5213 0661 1A       		.uleb128 0x1a
 5214 0662 550D0000 		.4byte	.LASF105
 5215 0666 0C       		.byte	0xc
 5216 0667 1A01     		.2byte	0x11a
 5217 0669 0F010000 		.4byte	0x10f
 5218 066d 0402     		.2byte	0x204
 5219 066f 1A       		.uleb128 0x1a
 5220 0670 FC2A0000 		.4byte	.LASF106
 5221 0674 0C       		.byte	0xc
 5222 0675 1B01     		.2byte	0x11b
 5223 0677 04010000 		.4byte	0x104
 5224 067b 0802     		.2byte	0x208
 5225 067d 1A       		.uleb128 0x1a
 5226 067e 1F2E0000 		.4byte	.LASF107
 5227 0682 0C       		.byte	0xc
 5228 0683 1C01     		.2byte	0x11c
 5229 0685 0F010000 		.4byte	0x10f
 5230 0689 0C02     		.2byte	0x20c
 5231 068b 1A       		.uleb128 0x1a
 5232 068c 062B0000 		.4byte	.LASF108
 5233 0690 0C       		.byte	0xc
 5234 0691 1D01     		.2byte	0x11d
 5235 0693 04010000 		.4byte	0x104
 5236 0697 1002     		.2byte	0x210
 5237 0699 1A       		.uleb128 0x1a
 5238 069a 17220000 		.4byte	.LASF109
 5239 069e 0C       		.byte	0xc
 5240 069f 1E01     		.2byte	0x11e
ARM GAS  /tmp/ccU5UnMV.s 			page 107


 5241 06a1 0F010000 		.4byte	0x10f
 5242 06a5 1402     		.2byte	0x214
 5243 06a7 1A       		.uleb128 0x1a
 5244 06a8 102B0000 		.4byte	.LASF110
 5245 06ac 0C       		.byte	0xc
 5246 06ad 1F01     		.2byte	0x11f
 5247 06af 04010000 		.4byte	0x104
 5248 06b3 1802     		.2byte	0x218
 5249 06b5 1A       		.uleb128 0x1a
 5250 06b6 1E050000 		.4byte	.LASF111
 5251 06ba 0C       		.byte	0xc
 5252 06bb 2001     		.2byte	0x120
 5253 06bd 0F010000 		.4byte	0x10f
 5254 06c1 1C02     		.2byte	0x21c
 5255 06c3 1A       		.uleb128 0x1a
 5256 06c4 1A2B0000 		.4byte	.LASF112
 5257 06c8 0C       		.byte	0xc
 5258 06c9 2101     		.2byte	0x121
 5259 06cb CB040000 		.4byte	0x4cb
 5260 06cf 2002     		.2byte	0x220
 5261 06d1 1A       		.uleb128 0x1a
 5262 06d2 39070000 		.4byte	.LASF113
 5263 06d6 0C       		.byte	0xc
 5264 06d7 2201     		.2byte	0x122
 5265 06d9 20070000 		.4byte	0x720
 5266 06dd 4002     		.2byte	0x240
 5267 06df 00       		.byte	0
 5268 06e0 11       		.uleb128 0x11
 5269 06e1 04010000 		.4byte	0x104
 5270 06e5 F0060000 		.4byte	0x6f0
 5271 06e9 12       		.uleb128 0x12
 5272 06ea 48000000 		.4byte	0x48
 5273 06ee 57       		.byte	0x57
 5274 06ef 00       		.byte	0
 5275 06f0 11       		.uleb128 0x11
 5276 06f1 2B050000 		.4byte	0x52b
 5277 06f5 00070000 		.4byte	0x700
 5278 06f9 12       		.uleb128 0x12
 5279 06fa 48000000 		.4byte	0x48
 5280 06fe 02       		.byte	0x2
 5281 06ff 00       		.byte	0
 5282 0700 11       		.uleb128 0x11
 5283 0701 6F050000 		.4byte	0x56f
 5284 0705 10070000 		.4byte	0x710
 5285 0709 12       		.uleb128 0x12
 5286 070a 48000000 		.4byte	0x48
 5287 070e 01       		.byte	0x1
 5288 070f 00       		.byte	0
 5289 0710 11       		.uleb128 0x11
 5290 0711 04010000 		.4byte	0x104
 5291 0715 20070000 		.4byte	0x720
 5292 0719 12       		.uleb128 0x12
 5293 071a 48000000 		.4byte	0x48
 5294 071e 0B       		.byte	0xb
 5295 071f 00       		.byte	0
 5296 0720 11       		.uleb128 0x11
 5297 0721 9E050000 		.4byte	0x59e
ARM GAS  /tmp/ccU5UnMV.s 			page 108


 5298 0725 30070000 		.4byte	0x730
 5299 0729 12       		.uleb128 0x12
 5300 072a 48000000 		.4byte	0x48
 5301 072e 1B       		.byte	0x1b
 5302 072f 00       		.byte	0
 5303 0730 18       		.uleb128 0x18
 5304 0731 43120000 		.4byte	.LASF114
 5305 0735 0C       		.byte	0xc
 5306 0736 2301     		.2byte	0x123
 5307 0738 AA050000 		.4byte	0x5aa
 5308 073c 17       		.uleb128 0x17
 5309 073d 18       		.byte	0x18
 5310 073e 0C       		.byte	0xc
 5311 073f 6B01     		.2byte	0x16b
 5312 0741 93070000 		.4byte	0x793
 5313 0745 09       		.uleb128 0x9
 5314 0746 435200   		.ascii	"CR\000"
 5315 0749 0C       		.byte	0xc
 5316 074a 6D01     		.2byte	0x16d
 5317 074c 0F010000 		.4byte	0x10f
 5318 0750 00       		.byte	0
 5319 0751 0A       		.uleb128 0xa
 5320 0752 CC2C0000 		.4byte	.LASF115
 5321 0756 0C       		.byte	0xc
 5322 0757 6E01     		.2byte	0x16e
 5323 0759 0F010000 		.4byte	0x10f
 5324 075d 04       		.byte	0x4
 5325 075e 09       		.uleb128 0x9
 5326 075f 50415200 		.ascii	"PAR\000"
 5327 0763 0C       		.byte	0xc
 5328 0764 6F01     		.2byte	0x16f
 5329 0766 0F010000 		.4byte	0x10f
 5330 076a 08       		.byte	0x8
 5331 076b 0A       		.uleb128 0xa
 5332 076c C9040000 		.4byte	.LASF116
 5333 0770 0C       		.byte	0xc
 5334 0771 7001     		.2byte	0x170
 5335 0773 0F010000 		.4byte	0x10f
 5336 0777 0C       		.byte	0xc
 5337 0778 0A       		.uleb128 0xa
 5338 0779 C6090000 		.4byte	.LASF117
 5339 077d 0C       		.byte	0xc
 5340 077e 7101     		.2byte	0x171
 5341 0780 0F010000 		.4byte	0x10f
 5342 0784 10       		.byte	0x10
 5343 0785 09       		.uleb128 0x9
 5344 0786 46435200 		.ascii	"FCR\000"
 5345 078a 0C       		.byte	0xc
 5346 078b 7201     		.2byte	0x172
 5347 078d 0F010000 		.4byte	0x10f
 5348 0791 14       		.byte	0x14
 5349 0792 00       		.byte	0
 5350 0793 18       		.uleb128 0x18
 5351 0794 D0090000 		.4byte	.LASF118
 5352 0798 0C       		.byte	0xc
 5353 0799 7301     		.2byte	0x173
 5354 079b 3C070000 		.4byte	0x73c
ARM GAS  /tmp/ccU5UnMV.s 			page 109


 5355 079f 11       		.uleb128 0x11
 5356 07a0 0F010000 		.4byte	0x10f
 5357 07a4 AF070000 		.4byte	0x7af
 5358 07a8 12       		.uleb128 0x12
 5359 07a9 48000000 		.4byte	0x48
 5360 07ad 01       		.byte	0x1
 5361 07ae 00       		.byte	0
 5362 07af 04       		.uleb128 0x4
 5363 07b0 9F070000 		.4byte	0x79f
 5364 07b4 11       		.uleb128 0x11
 5365 07b5 0F010000 		.4byte	0x10f
 5366 07b9 C4070000 		.4byte	0x7c4
 5367 07bd 12       		.uleb128 0x12
 5368 07be 48000000 		.4byte	0x48
 5369 07c2 03       		.byte	0x3
 5370 07c3 00       		.byte	0
 5371 07c4 04       		.uleb128 0x4
 5372 07c5 B4070000 		.4byte	0x7b4
 5373 07c9 17       		.uleb128 0x17
 5374 07ca 28       		.byte	0x28
 5375 07cb 0C       		.byte	0xc
 5376 07cc 3F02     		.2byte	0x23f
 5377 07ce 54080000 		.4byte	0x854
 5378 07d2 09       		.uleb128 0x9
 5379 07d3 43523100 		.ascii	"CR1\000"
 5380 07d7 0C       		.byte	0xc
 5381 07d8 4102     		.2byte	0x241
 5382 07da 0F010000 		.4byte	0x10f
 5383 07de 00       		.byte	0
 5384 07df 09       		.uleb128 0x9
 5385 07e0 43523200 		.ascii	"CR2\000"
 5386 07e4 0C       		.byte	0xc
 5387 07e5 4202     		.2byte	0x242
 5388 07e7 0F010000 		.4byte	0x10f
 5389 07eb 04       		.byte	0x4
 5390 07ec 0A       		.uleb128 0xa
 5391 07ed 2D360000 		.4byte	.LASF119
 5392 07f1 0C       		.byte	0xc
 5393 07f2 4302     		.2byte	0x243
 5394 07f4 0F010000 		.4byte	0x10f
 5395 07f8 08       		.byte	0x8
 5396 07f9 0A       		.uleb128 0xa
 5397 07fa 32360000 		.4byte	.LASF120
 5398 07fe 0C       		.byte	0xc
 5399 07ff 4402     		.2byte	0x244
 5400 0801 0F010000 		.4byte	0x10f
 5401 0805 0C       		.byte	0xc
 5402 0806 09       		.uleb128 0x9
 5403 0807 445200   		.ascii	"DR\000"
 5404 080a 0C       		.byte	0xc
 5405 080b 4502     		.2byte	0x245
 5406 080d 0F010000 		.4byte	0x10f
 5407 0811 10       		.byte	0x10
 5408 0812 09       		.uleb128 0x9
 5409 0813 53523100 		.ascii	"SR1\000"
 5410 0817 0C       		.byte	0xc
 5411 0818 4602     		.2byte	0x246
ARM GAS  /tmp/ccU5UnMV.s 			page 110


 5412 081a 0F010000 		.4byte	0x10f
 5413 081e 14       		.byte	0x14
 5414 081f 09       		.uleb128 0x9
 5415 0820 53523200 		.ascii	"SR2\000"
 5416 0824 0C       		.byte	0xc
 5417 0825 4702     		.2byte	0x247
 5418 0827 0F010000 		.4byte	0x10f
 5419 082b 18       		.byte	0x18
 5420 082c 09       		.uleb128 0x9
 5421 082d 43435200 		.ascii	"CCR\000"
 5422 0831 0C       		.byte	0xc
 5423 0832 4802     		.2byte	0x248
 5424 0834 0F010000 		.4byte	0x10f
 5425 0838 1C       		.byte	0x1c
 5426 0839 0A       		.uleb128 0xa
 5427 083a 53060000 		.4byte	.LASF121
 5428 083e 0C       		.byte	0xc
 5429 083f 4902     		.2byte	0x249
 5430 0841 0F010000 		.4byte	0x10f
 5431 0845 20       		.byte	0x20
 5432 0846 0A       		.uleb128 0xa
 5433 0847 1A340000 		.4byte	.LASF122
 5434 084b 0C       		.byte	0xc
 5435 084c 4A02     		.2byte	0x24a
 5436 084e 0F010000 		.4byte	0x10f
 5437 0852 24       		.byte	0x24
 5438 0853 00       		.byte	0
 5439 0854 18       		.uleb128 0x18
 5440 0855 4D1E0000 		.4byte	.LASF123
 5441 0859 0C       		.byte	0xc
 5442 085a 4B02     		.2byte	0x24b
 5443 085c C9070000 		.4byte	0x7c9
 5444 0860 17       		.uleb128 0x17
 5445 0861 24       		.byte	0x24
 5446 0862 0C       		.byte	0xc
 5447 0863 DB02     		.2byte	0x2db
 5448 0865 DD080000 		.4byte	0x8dd
 5449 0869 09       		.uleb128 0x9
 5450 086a 43523100 		.ascii	"CR1\000"
 5451 086e 0C       		.byte	0xc
 5452 086f DD02     		.2byte	0x2dd
 5453 0871 0F010000 		.4byte	0x10f
 5454 0875 00       		.byte	0
 5455 0876 09       		.uleb128 0x9
 5456 0877 43523200 		.ascii	"CR2\000"
 5457 087b 0C       		.byte	0xc
 5458 087c DE02     		.2byte	0x2de
 5459 087e 0F010000 		.4byte	0x10f
 5460 0882 04       		.byte	0x4
 5461 0883 09       		.uleb128 0x9
 5462 0884 535200   		.ascii	"SR\000"
 5463 0887 0C       		.byte	0xc
 5464 0888 DF02     		.2byte	0x2df
 5465 088a 0F010000 		.4byte	0x10f
 5466 088e 08       		.byte	0x8
 5467 088f 09       		.uleb128 0x9
 5468 0890 445200   		.ascii	"DR\000"
ARM GAS  /tmp/ccU5UnMV.s 			page 111


 5469 0893 0C       		.byte	0xc
 5470 0894 E002     		.2byte	0x2e0
 5471 0896 0F010000 		.4byte	0x10f
 5472 089a 0C       		.byte	0xc
 5473 089b 0A       		.uleb128 0xa
 5474 089c 3D090000 		.4byte	.LASF124
 5475 08a0 0C       		.byte	0xc
 5476 08a1 E102     		.2byte	0x2e1
 5477 08a3 0F010000 		.4byte	0x10f
 5478 08a7 10       		.byte	0x10
 5479 08a8 0A       		.uleb128 0xa
 5480 08a9 110E0000 		.4byte	.LASF125
 5481 08ad 0C       		.byte	0xc
 5482 08ae E202     		.2byte	0x2e2
 5483 08b0 0F010000 		.4byte	0x10f
 5484 08b4 14       		.byte	0x14
 5485 08b5 0A       		.uleb128 0xa
 5486 08b6 AD0C0000 		.4byte	.LASF126
 5487 08ba 0C       		.byte	0xc
 5488 08bb E302     		.2byte	0x2e3
 5489 08bd 0F010000 		.4byte	0x10f
 5490 08c1 18       		.byte	0x18
 5491 08c2 0A       		.uleb128 0xa
 5492 08c3 15300000 		.4byte	.LASF127
 5493 08c7 0C       		.byte	0xc
 5494 08c8 E402     		.2byte	0x2e4
 5495 08ca 0F010000 		.4byte	0x10f
 5496 08ce 1C       		.byte	0x1c
 5497 08cf 0A       		.uleb128 0xa
 5498 08d0 06090000 		.4byte	.LASF128
 5499 08d4 0C       		.byte	0xc
 5500 08d5 E502     		.2byte	0x2e5
 5501 08d7 0F010000 		.4byte	0x10f
 5502 08db 20       		.byte	0x20
 5503 08dc 00       		.byte	0
 5504 08dd 18       		.uleb128 0x18
 5505 08de 122D0000 		.4byte	.LASF129
 5506 08e2 0C       		.byte	0xc
 5507 08e3 E602     		.2byte	0x2e6
 5508 08e5 60080000 		.4byte	0x860
 5509 08e9 17       		.uleb128 0x17
 5510 08ea 54       		.byte	0x54
 5511 08eb 0C       		.byte	0xc
 5512 08ec EC02     		.2byte	0x2ec
 5513 08ee 020A0000 		.4byte	0xa02
 5514 08f2 09       		.uleb128 0x9
 5515 08f3 43523100 		.ascii	"CR1\000"
 5516 08f7 0C       		.byte	0xc
 5517 08f8 EE02     		.2byte	0x2ee
 5518 08fa 0F010000 		.4byte	0x10f
 5519 08fe 00       		.byte	0
 5520 08ff 09       		.uleb128 0x9
 5521 0900 43523200 		.ascii	"CR2\000"
 5522 0904 0C       		.byte	0xc
 5523 0905 EF02     		.2byte	0x2ef
 5524 0907 0F010000 		.4byte	0x10f
 5525 090b 04       		.byte	0x4
ARM GAS  /tmp/ccU5UnMV.s 			page 112


 5526 090c 0A       		.uleb128 0xa
 5527 090d 262D0000 		.4byte	.LASF130
 5528 0911 0C       		.byte	0xc
 5529 0912 F002     		.2byte	0x2f0
 5530 0914 0F010000 		.4byte	0x10f
 5531 0918 08       		.byte	0x8
 5532 0919 0A       		.uleb128 0xa
 5533 091a 5D0C0000 		.4byte	.LASF131
 5534 091e 0C       		.byte	0xc
 5535 091f F102     		.2byte	0x2f1
 5536 0921 0F010000 		.4byte	0x10f
 5537 0925 0C       		.byte	0xc
 5538 0926 09       		.uleb128 0x9
 5539 0927 535200   		.ascii	"SR\000"
 5540 092a 0C       		.byte	0xc
 5541 092b F202     		.2byte	0x2f2
 5542 092d 0F010000 		.4byte	0x10f
 5543 0931 10       		.byte	0x10
 5544 0932 09       		.uleb128 0x9
 5545 0933 45475200 		.ascii	"EGR\000"
 5546 0937 0C       		.byte	0xc
 5547 0938 F302     		.2byte	0x2f3
 5548 093a 0F010000 		.4byte	0x10f
 5549 093e 14       		.byte	0x14
 5550 093f 0A       		.uleb128 0xa
 5551 0940 5A340000 		.4byte	.LASF132
 5552 0944 0C       		.byte	0xc
 5553 0945 F402     		.2byte	0x2f4
 5554 0947 0F010000 		.4byte	0x10f
 5555 094b 18       		.byte	0x18
 5556 094c 0A       		.uleb128 0xa
 5557 094d 60340000 		.4byte	.LASF133
 5558 0951 0C       		.byte	0xc
 5559 0952 F502     		.2byte	0x2f5
 5560 0954 0F010000 		.4byte	0x10f
 5561 0958 1C       		.byte	0x1c
 5562 0959 0A       		.uleb128 0xa
 5563 095a 01090000 		.4byte	.LASF134
 5564 095e 0C       		.byte	0xc
 5565 095f F602     		.2byte	0x2f6
 5566 0961 0F010000 		.4byte	0x10f
 5567 0965 20       		.byte	0x20
 5568 0966 09       		.uleb128 0x9
 5569 0967 434E5400 		.ascii	"CNT\000"
 5570 096b 0C       		.byte	0xc
 5571 096c F702     		.2byte	0x2f7
 5572 096e 0F010000 		.4byte	0x10f
 5573 0972 24       		.byte	0x24
 5574 0973 09       		.uleb128 0x9
 5575 0974 50534300 		.ascii	"PSC\000"
 5576 0978 0C       		.byte	0xc
 5577 0979 F802     		.2byte	0x2f8
 5578 097b 0F010000 		.4byte	0x10f
 5579 097f 28       		.byte	0x28
 5580 0980 09       		.uleb128 0x9
 5581 0981 41525200 		.ascii	"ARR\000"
 5582 0985 0C       		.byte	0xc
ARM GAS  /tmp/ccU5UnMV.s 			page 113


 5583 0986 F902     		.2byte	0x2f9
 5584 0988 0F010000 		.4byte	0x10f
 5585 098c 2C       		.byte	0x2c
 5586 098d 09       		.uleb128 0x9
 5587 098e 52435200 		.ascii	"RCR\000"
 5588 0992 0C       		.byte	0xc
 5589 0993 FA02     		.2byte	0x2fa
 5590 0995 0F010000 		.4byte	0x10f
 5591 0999 30       		.byte	0x30
 5592 099a 0A       		.uleb128 0xa
 5593 099b 1B160000 		.4byte	.LASF135
 5594 099f 0C       		.byte	0xc
 5595 09a0 FB02     		.2byte	0x2fb
 5596 09a2 0F010000 		.4byte	0x10f
 5597 09a6 34       		.byte	0x34
 5598 09a7 0A       		.uleb128 0xa
 5599 09a8 20160000 		.4byte	.LASF136
 5600 09ac 0C       		.byte	0xc
 5601 09ad FC02     		.2byte	0x2fc
 5602 09af 0F010000 		.4byte	0x10f
 5603 09b3 38       		.byte	0x38
 5604 09b4 0A       		.uleb128 0xa
 5605 09b5 25160000 		.4byte	.LASF137
 5606 09b9 0C       		.byte	0xc
 5607 09ba FD02     		.2byte	0x2fd
 5608 09bc 0F010000 		.4byte	0x10f
 5609 09c0 3C       		.byte	0x3c
 5610 09c1 0A       		.uleb128 0xa
 5611 09c2 2A160000 		.4byte	.LASF138
 5612 09c6 0C       		.byte	0xc
 5613 09c7 FE02     		.2byte	0x2fe
 5614 09c9 0F010000 		.4byte	0x10f
 5615 09cd 40       		.byte	0x40
 5616 09ce 0A       		.uleb128 0xa
 5617 09cf 92020000 		.4byte	.LASF139
 5618 09d3 0C       		.byte	0xc
 5619 09d4 FF02     		.2byte	0x2ff
 5620 09d6 0F010000 		.4byte	0x10f
 5621 09da 44       		.byte	0x44
 5622 09db 09       		.uleb128 0x9
 5623 09dc 44435200 		.ascii	"DCR\000"
 5624 09e0 0C       		.byte	0xc
 5625 09e1 0003     		.2byte	0x300
 5626 09e3 0F010000 		.4byte	0x10f
 5627 09e7 48       		.byte	0x48
 5628 09e8 0A       		.uleb128 0xa
 5629 09e9 6A1E0000 		.4byte	.LASF140
 5630 09ed 0C       		.byte	0xc
 5631 09ee 0103     		.2byte	0x301
 5632 09f0 0F010000 		.4byte	0x10f
 5633 09f4 4C       		.byte	0x4c
 5634 09f5 09       		.uleb128 0x9
 5635 09f6 4F5200   		.ascii	"OR\000"
 5636 09f9 0C       		.byte	0xc
 5637 09fa 0203     		.2byte	0x302
 5638 09fc 0F010000 		.4byte	0x10f
 5639 0a00 50       		.byte	0x50
ARM GAS  /tmp/ccU5UnMV.s 			page 114


 5640 0a01 00       		.byte	0
 5641 0a02 18       		.uleb128 0x18
 5642 0a03 CB190000 		.4byte	.LASF141
 5643 0a07 0C       		.byte	0xc
 5644 0a08 0303     		.2byte	0x303
 5645 0a0a E9080000 		.4byte	0x8e9
 5646 0a0e 17       		.uleb128 0x17
 5647 0a0f 1C       		.byte	0x1c
 5648 0a10 0C       		.byte	0xc
 5649 0a11 0903     		.2byte	0x309
 5650 0a13 710A0000 		.4byte	0xa71
 5651 0a17 09       		.uleb128 0x9
 5652 0a18 535200   		.ascii	"SR\000"
 5653 0a1b 0C       		.byte	0xc
 5654 0a1c 0B03     		.2byte	0x30b
 5655 0a1e 0F010000 		.4byte	0x10f
 5656 0a22 00       		.byte	0
 5657 0a23 09       		.uleb128 0x9
 5658 0a24 445200   		.ascii	"DR\000"
 5659 0a27 0C       		.byte	0xc
 5660 0a28 0C03     		.2byte	0x30c
 5661 0a2a 0F010000 		.4byte	0x10f
 5662 0a2e 04       		.byte	0x4
 5663 0a2f 09       		.uleb128 0x9
 5664 0a30 42525200 		.ascii	"BRR\000"
 5665 0a34 0C       		.byte	0xc
 5666 0a35 0D03     		.2byte	0x30d
 5667 0a37 0F010000 		.4byte	0x10f
 5668 0a3b 08       		.byte	0x8
 5669 0a3c 09       		.uleb128 0x9
 5670 0a3d 43523100 		.ascii	"CR1\000"
 5671 0a41 0C       		.byte	0xc
 5672 0a42 0E03     		.2byte	0x30e
 5673 0a44 0F010000 		.4byte	0x10f
 5674 0a48 0C       		.byte	0xc
 5675 0a49 09       		.uleb128 0x9
 5676 0a4a 43523200 		.ascii	"CR2\000"
 5677 0a4e 0C       		.byte	0xc
 5678 0a4f 0F03     		.2byte	0x30f
 5679 0a51 0F010000 		.4byte	0x10f
 5680 0a55 10       		.byte	0x10
 5681 0a56 09       		.uleb128 0x9
 5682 0a57 43523300 		.ascii	"CR3\000"
 5683 0a5b 0C       		.byte	0xc
 5684 0a5c 1003     		.2byte	0x310
 5685 0a5e 0F010000 		.4byte	0x10f
 5686 0a62 14       		.byte	0x14
 5687 0a63 0A       		.uleb128 0xa
 5688 0a64 D0330000 		.4byte	.LASF142
 5689 0a68 0C       		.byte	0xc
 5690 0a69 1103     		.2byte	0x311
 5691 0a6b 0F010000 		.4byte	0x10f
 5692 0a6f 18       		.byte	0x18
 5693 0a70 00       		.byte	0
 5694 0a71 18       		.uleb128 0x18
 5695 0a72 45350000 		.4byte	.LASF143
 5696 0a76 0C       		.byte	0xc
ARM GAS  /tmp/ccU5UnMV.s 			page 115


 5697 0a77 1203     		.2byte	0x312
 5698 0a79 0E0A0000 		.4byte	0xa0e
 5699 0a7d 11       		.uleb128 0x11
 5700 0a7e 0F010000 		.4byte	0x10f
 5701 0a82 8D0A0000 		.4byte	0xa8d
 5702 0a86 12       		.uleb128 0x12
 5703 0a87 48000000 		.4byte	0x48
 5704 0a8b 0E       		.byte	0xe
 5705 0a8c 00       		.byte	0
 5706 0a8d 04       		.uleb128 0x4
 5707 0a8e 7D0A0000 		.4byte	0xa7d
 5708 0a92 05       		.uleb128 0x5
 5709 0a93 EB210000 		.4byte	.LASF144
 5710 0a97 0D       		.byte	0xd
 5711 0a98 65       		.byte	0x65
 5712 0a99 95030000 		.4byte	0x395
 5713 0a9d 05       		.uleb128 0x5
 5714 0a9e EE0A0000 		.4byte	.LASF145
 5715 0aa2 0D       		.byte	0xd
 5716 0aa3 6D       		.byte	0x6d
 5717 0aa4 14010000 		.4byte	0x114
 5718 0aa8 07       		.uleb128 0x7
 5719 0aa9 D4200000 		.4byte	.LASF146
 5720 0aad 04       		.byte	0x4
 5721 0aae 0D       		.byte	0xd
 5722 0aaf 89       		.byte	0x89
 5723 0ab0 C10A0000 		.4byte	0xac1
 5724 0ab4 16       		.uleb128 0x16
 5725 0ab5 72313300 		.ascii	"r13\000"
 5726 0ab9 0D       		.byte	0xd
 5727 0aba 8A       		.byte	0x8a
 5728 0abb 020C0000 		.4byte	0xc02
 5729 0abf 00       		.byte	0
 5730 0ac0 00       		.byte	0
 5731 0ac1 07       		.uleb128 0x7
 5732 0ac2 09000000 		.4byte	.LASF147
 5733 0ac6 64       		.byte	0x64
 5734 0ac7 0E       		.byte	0xe
 5735 0ac8 F4       		.byte	0xf4
 5736 0ac9 020C0000 		.4byte	0xc02
 5737 0acd 16       		.uleb128 0x16
 5738 0ace 73313600 		.ascii	"s16\000"
 5739 0ad2 0E       		.byte	0xe
 5740 0ad3 F6       		.byte	0xf6
 5741 0ad4 920A0000 		.4byte	0xa92
 5742 0ad8 00       		.byte	0
 5743 0ad9 16       		.uleb128 0x16
 5744 0ada 73313700 		.ascii	"s17\000"
 5745 0ade 0E       		.byte	0xe
 5746 0adf F7       		.byte	0xf7
 5747 0ae0 920A0000 		.4byte	0xa92
 5748 0ae4 04       		.byte	0x4
 5749 0ae5 16       		.uleb128 0x16
 5750 0ae6 73313800 		.ascii	"s18\000"
 5751 0aea 0E       		.byte	0xe
 5752 0aeb F8       		.byte	0xf8
 5753 0aec 920A0000 		.4byte	0xa92
ARM GAS  /tmp/ccU5UnMV.s 			page 116


 5754 0af0 08       		.byte	0x8
 5755 0af1 16       		.uleb128 0x16
 5756 0af2 73313900 		.ascii	"s19\000"
 5757 0af6 0E       		.byte	0xe
 5758 0af7 F9       		.byte	0xf9
 5759 0af8 920A0000 		.4byte	0xa92
 5760 0afc 0C       		.byte	0xc
 5761 0afd 16       		.uleb128 0x16
 5762 0afe 73323000 		.ascii	"s20\000"
 5763 0b02 0E       		.byte	0xe
 5764 0b03 FA       		.byte	0xfa
 5765 0b04 920A0000 		.4byte	0xa92
 5766 0b08 10       		.byte	0x10
 5767 0b09 16       		.uleb128 0x16
 5768 0b0a 73323100 		.ascii	"s21\000"
 5769 0b0e 0E       		.byte	0xe
 5770 0b0f FB       		.byte	0xfb
 5771 0b10 920A0000 		.4byte	0xa92
 5772 0b14 14       		.byte	0x14
 5773 0b15 16       		.uleb128 0x16
 5774 0b16 73323200 		.ascii	"s22\000"
 5775 0b1a 0E       		.byte	0xe
 5776 0b1b FC       		.byte	0xfc
 5777 0b1c 920A0000 		.4byte	0xa92
 5778 0b20 18       		.byte	0x18
 5779 0b21 16       		.uleb128 0x16
 5780 0b22 73323300 		.ascii	"s23\000"
 5781 0b26 0E       		.byte	0xe
 5782 0b27 FD       		.byte	0xfd
 5783 0b28 920A0000 		.4byte	0xa92
 5784 0b2c 1C       		.byte	0x1c
 5785 0b2d 16       		.uleb128 0x16
 5786 0b2e 73323400 		.ascii	"s24\000"
 5787 0b32 0E       		.byte	0xe
 5788 0b33 FE       		.byte	0xfe
 5789 0b34 920A0000 		.4byte	0xa92
 5790 0b38 20       		.byte	0x20
 5791 0b39 16       		.uleb128 0x16
 5792 0b3a 73323500 		.ascii	"s25\000"
 5793 0b3e 0E       		.byte	0xe
 5794 0b3f FF       		.byte	0xff
 5795 0b40 920A0000 		.4byte	0xa92
 5796 0b44 24       		.byte	0x24
 5797 0b45 09       		.uleb128 0x9
 5798 0b46 73323600 		.ascii	"s26\000"
 5799 0b4a 0E       		.byte	0xe
 5800 0b4b 0001     		.2byte	0x100
 5801 0b4d 920A0000 		.4byte	0xa92
 5802 0b51 28       		.byte	0x28
 5803 0b52 09       		.uleb128 0x9
 5804 0b53 73323700 		.ascii	"s27\000"
 5805 0b57 0E       		.byte	0xe
 5806 0b58 0101     		.2byte	0x101
 5807 0b5a 920A0000 		.4byte	0xa92
 5808 0b5e 2C       		.byte	0x2c
 5809 0b5f 09       		.uleb128 0x9
 5810 0b60 73323800 		.ascii	"s28\000"
ARM GAS  /tmp/ccU5UnMV.s 			page 117


 5811 0b64 0E       		.byte	0xe
 5812 0b65 0201     		.2byte	0x102
 5813 0b67 920A0000 		.4byte	0xa92
 5814 0b6b 30       		.byte	0x30
 5815 0b6c 09       		.uleb128 0x9
 5816 0b6d 73323900 		.ascii	"s29\000"
 5817 0b71 0E       		.byte	0xe
 5818 0b72 0301     		.2byte	0x103
 5819 0b74 920A0000 		.4byte	0xa92
 5820 0b78 34       		.byte	0x34
 5821 0b79 09       		.uleb128 0x9
 5822 0b7a 73333000 		.ascii	"s30\000"
 5823 0b7e 0E       		.byte	0xe
 5824 0b7f 0401     		.2byte	0x104
 5825 0b81 920A0000 		.4byte	0xa92
 5826 0b85 38       		.byte	0x38
 5827 0b86 09       		.uleb128 0x9
 5828 0b87 73333100 		.ascii	"s31\000"
 5829 0b8b 0E       		.byte	0xe
 5830 0b8c 0501     		.2byte	0x105
 5831 0b8e 920A0000 		.4byte	0xa92
 5832 0b92 3C       		.byte	0x3c
 5833 0b93 09       		.uleb128 0x9
 5834 0b94 723400   		.ascii	"r4\000"
 5835 0b97 0E       		.byte	0xe
 5836 0b98 0701     		.2byte	0x107
 5837 0b9a 920A0000 		.4byte	0xa92
 5838 0b9e 40       		.byte	0x40
 5839 0b9f 09       		.uleb128 0x9
 5840 0ba0 723500   		.ascii	"r5\000"
 5841 0ba3 0E       		.byte	0xe
 5842 0ba4 0801     		.2byte	0x108
 5843 0ba6 920A0000 		.4byte	0xa92
 5844 0baa 44       		.byte	0x44
 5845 0bab 09       		.uleb128 0x9
 5846 0bac 723600   		.ascii	"r6\000"
 5847 0baf 0E       		.byte	0xe
 5848 0bb0 0901     		.2byte	0x109
 5849 0bb2 920A0000 		.4byte	0xa92
 5850 0bb6 48       		.byte	0x48
 5851 0bb7 09       		.uleb128 0x9
 5852 0bb8 723700   		.ascii	"r7\000"
 5853 0bbb 0E       		.byte	0xe
 5854 0bbc 0A01     		.2byte	0x10a
 5855 0bbe 920A0000 		.4byte	0xa92
 5856 0bc2 4C       		.byte	0x4c
 5857 0bc3 09       		.uleb128 0x9
 5858 0bc4 723800   		.ascii	"r8\000"
 5859 0bc7 0E       		.byte	0xe
 5860 0bc8 0B01     		.2byte	0x10b
 5861 0bca 920A0000 		.4byte	0xa92
 5862 0bce 50       		.byte	0x50
 5863 0bcf 09       		.uleb128 0x9
 5864 0bd0 723900   		.ascii	"r9\000"
 5865 0bd3 0E       		.byte	0xe
 5866 0bd4 0C01     		.2byte	0x10c
 5867 0bd6 920A0000 		.4byte	0xa92
ARM GAS  /tmp/ccU5UnMV.s 			page 118


 5868 0bda 54       		.byte	0x54
 5869 0bdb 09       		.uleb128 0x9
 5870 0bdc 72313000 		.ascii	"r10\000"
 5871 0be0 0E       		.byte	0xe
 5872 0be1 0D01     		.2byte	0x10d
 5873 0be3 920A0000 		.4byte	0xa92
 5874 0be7 58       		.byte	0x58
 5875 0be8 09       		.uleb128 0x9
 5876 0be9 72313100 		.ascii	"r11\000"
 5877 0bed 0E       		.byte	0xe
 5878 0bee 0E01     		.2byte	0x10e
 5879 0bf0 920A0000 		.4byte	0xa92
 5880 0bf4 5C       		.byte	0x5c
 5881 0bf5 09       		.uleb128 0x9
 5882 0bf6 6C7200   		.ascii	"lr\000"
 5883 0bf9 0E       		.byte	0xe
 5884 0bfa 0F01     		.2byte	0x10f
 5885 0bfc 920A0000 		.4byte	0xa92
 5886 0c00 60       		.byte	0x60
 5887 0c01 00       		.byte	0
 5888 0c02 0B       		.uleb128 0xb
 5889 0c03 04       		.byte	0x4
 5890 0c04 C10A0000 		.4byte	0xac1
 5891 0c08 15       		.uleb128 0x15
 5892 0c09 04       		.byte	0x4
 5893 0c0a 0F       		.byte	0xf
 5894 0c0b 38       		.byte	0x38
 5895 0c0c 1D0C0000 		.4byte	0xc1d
 5896 0c10 08       		.uleb128 0x8
 5897 0c11 922C0000 		.4byte	.LASF148
 5898 0c15 0F       		.byte	0xf
 5899 0c16 3C       		.byte	0x3c
 5900 0c17 1F010000 		.4byte	0x11f
 5901 0c1b 00       		.byte	0
 5902 0c1c 00       		.byte	0
 5903 0c1d 05       		.uleb128 0x5
 5904 0c1e 93330000 		.4byte	.LASF149
 5905 0c22 0F       		.byte	0xf
 5906 0c23 3D       		.byte	0x3d
 5907 0c24 080C0000 		.4byte	0xc08
 5908 0c28 1C       		.uleb128 0x1c
 5909 0c29 04       		.byte	0x4
 5910 0c2a 09       		.byte	0x9
 5911 0c2b FA       		.byte	0xfa
 5912 0c2c 850C0000 		.4byte	0xc85
 5913 0c30 1D       		.uleb128 0x1d
 5914 0c31 E2160000 		.4byte	.LASF150
 5915 0c35 09       		.byte	0x9
 5916 0c36 0101     		.2byte	0x101
 5917 0c38 61010000 		.4byte	0x161
 5918 0c3c 1D       		.uleb128 0x1d
 5919 0c3d 95130000 		.4byte	.LASF151
 5920 0c41 09       		.byte	0x9
 5921 0c42 0801     		.2byte	0x108
 5922 0c44 61010000 		.4byte	0x161
 5923 0c48 1D       		.uleb128 0x1d
 5924 0c49 E7270000 		.4byte	.LASF152
ARM GAS  /tmp/ccU5UnMV.s 			page 119


 5925 0c4d 09       		.byte	0x9
 5926 0c4e 0F01     		.2byte	0x10f
 5927 0c50 95030000 		.4byte	0x395
 5928 0c54 1D       		.uleb128 0x1d
 5929 0c55 C6200000 		.4byte	.LASF153
 5930 0c59 09       		.byte	0x9
 5931 0c5a 1601     		.2byte	0x116
 5932 0c5c 850C0000 		.4byte	0xc85
 5933 0c60 1D       		.uleb128 0x1d
 5934 0c61 4C010000 		.4byte	.LASF154
 5935 0c65 09       		.byte	0x9
 5936 0c66 1E01     		.2byte	0x11e
 5937 0c68 B00C0000 		.4byte	0xcb0
 5938 0c6c 1D       		.uleb128 0x1d
 5939 0c6d 44280000 		.4byte	.LASF155
 5940 0c71 09       		.byte	0x9
 5941 0c72 2701     		.2byte	0x127
 5942 0c74 E70C0000 		.4byte	0xce7
 5943 0c78 1D       		.uleb128 0x1d
 5944 0c79 7F2D0000 		.4byte	.LASF156
 5945 0c7d 09       		.byte	0x9
 5946 0c7e 2F01     		.2byte	0x12f
 5947 0c80 6C010000 		.4byte	0x16c
 5948 0c84 00       		.byte	0
 5949 0c85 0B       		.uleb128 0xb
 5950 0c86 04       		.byte	0x4
 5951 0c87 AD020000 		.4byte	0x2ad
 5952 0c8b 07       		.uleb128 0x7
 5953 0c8c E51E0000 		.4byte	.LASF157
 5954 0c90 0C       		.byte	0xc
 5955 0c91 10       		.byte	0x10
 5956 0c92 34       		.byte	0x34
 5957 0c93 B00C0000 		.4byte	0xcb0
 5958 0c97 08       		.uleb128 0x8
 5959 0c98 0D300000 		.4byte	.LASF158
 5960 0c9c 10       		.byte	0x10
 5961 0c9d 35       		.byte	0x35
 5962 0c9e E2020000 		.4byte	0x2e2
 5963 0ca2 00       		.byte	0
 5964 0ca3 08       		.uleb128 0x8
 5965 0ca4 8F0B0000 		.4byte	.LASF159
 5966 0ca8 10       		.byte	0x10
 5967 0ca9 37       		.byte	0x37
 5968 0caa 82010000 		.4byte	0x182
 5969 0cae 08       		.byte	0x8
 5970 0caf 00       		.byte	0
 5971 0cb0 0B       		.uleb128 0xb
 5972 0cb1 04       		.byte	0x4
 5973 0cb2 8B0C0000 		.4byte	0xc8b
 5974 0cb6 07       		.uleb128 0x7
 5975 0cb7 390E0000 		.4byte	.LASF160
 5976 0cbb 10       		.byte	0x10
 5977 0cbc 11       		.byte	0x11
 5978 0cbd 39       		.byte	0x39
 5979 0cbe E70C0000 		.4byte	0xce7
 5980 0cc2 08       		.uleb128 0x8
 5981 0cc3 1F200000 		.4byte	.LASF161
ARM GAS  /tmp/ccU5UnMV.s 			page 120


 5982 0cc7 11       		.byte	0x11
 5983 0cc8 3A       		.byte	0x3a
 5984 0cc9 E2020000 		.4byte	0x2e2
 5985 0ccd 00       		.byte	0
 5986 0cce 08       		.uleb128 0x8
 5987 0ccf EC1D0000 		.4byte	.LASF162
 5988 0cd3 11       		.byte	0x11
 5989 0cd4 3C       		.byte	0x3c
 5990 0cd5 B8020000 		.4byte	0x2b8
 5991 0cd9 08       		.byte	0x8
 5992 0cda 08       		.uleb128 0x8
 5993 0cdb 2D020000 		.4byte	.LASF163
 5994 0cdf 11       		.byte	0x11
 5995 0ce0 3E       		.byte	0x3e
 5996 0ce1 3C0E0000 		.4byte	0xe3c
 5997 0ce5 0C       		.byte	0xc
 5998 0ce6 00       		.byte	0
 5999 0ce7 0B       		.uleb128 0xb
 6000 0ce8 04       		.byte	0x4
 6001 0ce9 B60C0000 		.4byte	0xcb6
 6002 0ced 0B       		.uleb128 0xb
 6003 0cee 04       		.byte	0x4
 6004 0cef FF0C0000 		.4byte	0xcff
 6005 0cf3 04       		.uleb128 0x4
 6006 0cf4 ED0C0000 		.4byte	0xced
 6007 0cf8 02       		.uleb128 0x2
 6008 0cf9 01       		.byte	0x1
 6009 0cfa 08       		.byte	0x8
 6010 0cfb 7B230000 		.4byte	.LASF164
 6011 0cff 06       		.uleb128 0x6
 6012 0d00 F80C0000 		.4byte	0xcf8
 6013 0d04 0B       		.uleb128 0xb
 6014 0d05 04       		.byte	0x4
 6015 0d06 97030000 		.4byte	0x397
 6016 0d0a 11       		.uleb128 0x11
 6017 0d0b 9D0A0000 		.4byte	0xa9d
 6018 0d0f 1A0D0000 		.4byte	0xd1a
 6019 0d13 12       		.uleb128 0x12
 6020 0d14 48000000 		.4byte	0x48
 6021 0d18 3A       		.byte	0x3a
 6022 0d19 00       		.byte	0
 6023 0d1a 1E       		.uleb128 0x1e
 6024 0d1b 636800   		.ascii	"ch\000"
 6025 0d1e 09       		.byte	0x9
 6026 0d1f 0902     		.2byte	0x209
 6027 0d21 64040000 		.4byte	0x464
 6028 0d25 15       		.uleb128 0x15
 6029 0d26 16       		.byte	0x16
 6030 0d27 12       		.byte	0x12
 6031 0d28 34       		.byte	0x34
 6032 0d29 060E0000 		.4byte	0xe06
 6033 0d2d 08       		.uleb128 0x8
 6034 0d2e 54300000 		.4byte	.LASF165
 6035 0d32 12       		.byte	0x12
 6036 0d33 35       		.byte	0x35
 6037 0d34 060E0000 		.4byte	0xe06
 6038 0d38 00       		.byte	0
ARM GAS  /tmp/ccU5UnMV.s 			page 121


 6039 0d39 08       		.uleb128 0x8
 6040 0d3a E7330000 		.4byte	.LASF166
 6041 0d3e 12       		.byte	0x12
 6042 0d3f 36       		.byte	0x36
 6043 0d40 D4000000 		.4byte	0xd4
 6044 0d44 04       		.byte	0x4
 6045 0d45 08       		.uleb128 0x8
 6046 0d46 CB030000 		.4byte	.LASF167
 6047 0d4a 12       		.byte	0x12
 6048 0d4b 37       		.byte	0x37
 6049 0d4c D4000000 		.4byte	0xd4
 6050 0d50 05       		.byte	0x5
 6051 0d51 08       		.uleb128 0x8
 6052 0d52 271E0000 		.4byte	.LASF168
 6053 0d56 12       		.byte	0x12
 6054 0d57 38       		.byte	0x38
 6055 0d58 E4000000 		.4byte	0xe4
 6056 0d5c 06       		.byte	0x6
 6057 0d5d 08       		.uleb128 0x8
 6058 0d5e 27000000 		.4byte	.LASF169
 6059 0d62 12       		.byte	0x12
 6060 0d63 39       		.byte	0x39
 6061 0d64 D4000000 		.4byte	0xd4
 6062 0d68 08       		.byte	0x8
 6063 0d69 08       		.uleb128 0x8
 6064 0d6a 0A1C0000 		.4byte	.LASF170
 6065 0d6e 12       		.byte	0x12
 6066 0d6f 3A       		.byte	0x3a
 6067 0d70 D4000000 		.4byte	0xd4
 6068 0d74 09       		.byte	0x9
 6069 0d75 08       		.uleb128 0x8
 6070 0d76 0C340000 		.4byte	.LASF171
 6071 0d7a 12       		.byte	0x12
 6072 0d7b 3B       		.byte	0x3b
 6073 0d7c D4000000 		.4byte	0xd4
 6074 0d80 0A       		.byte	0xa
 6075 0d81 08       		.uleb128 0x8
 6076 0d82 9A300000 		.4byte	.LASF172
 6077 0d86 12       		.byte	0x12
 6078 0d87 3C       		.byte	0x3c
 6079 0d88 D4000000 		.4byte	0xd4
 6080 0d8c 0B       		.byte	0xb
 6081 0d8d 08       		.uleb128 0x8
 6082 0d8e A7060000 		.4byte	.LASF173
 6083 0d92 12       		.byte	0x12
 6084 0d93 3D       		.byte	0x3d
 6085 0d94 D4000000 		.4byte	0xd4
 6086 0d98 0C       		.byte	0xc
 6087 0d99 08       		.uleb128 0x8
 6088 0d9a D10F0000 		.4byte	.LASF174
 6089 0d9e 12       		.byte	0x12
 6090 0d9f 3E       		.byte	0x3e
 6091 0da0 D4000000 		.4byte	0xd4
 6092 0da4 0D       		.byte	0xd
 6093 0da5 08       		.uleb128 0x8
 6094 0da6 ED060000 		.4byte	.LASF175
 6095 0daa 12       		.byte	0x12
ARM GAS  /tmp/ccU5UnMV.s 			page 122


 6096 0dab 3F       		.byte	0x3f
 6097 0dac D4000000 		.4byte	0xd4
 6098 0db0 0E       		.byte	0xe
 6099 0db1 08       		.uleb128 0x8
 6100 0db2 06130000 		.4byte	.LASF176
 6101 0db6 12       		.byte	0x12
 6102 0db7 40       		.byte	0x40
 6103 0db8 D4000000 		.4byte	0xd4
 6104 0dbc 0F       		.byte	0xf
 6105 0dbd 08       		.uleb128 0x8
 6106 0dbe B9040000 		.4byte	.LASF177
 6107 0dc2 12       		.byte	0x12
 6108 0dc3 41       		.byte	0x41
 6109 0dc4 D4000000 		.4byte	0xd4
 6110 0dc8 10       		.byte	0x10
 6111 0dc9 08       		.uleb128 0x8
 6112 0dca 950A0000 		.4byte	.LASF178
 6113 0dce 12       		.byte	0x12
 6114 0dcf 43       		.byte	0x43
 6115 0dd0 D4000000 		.4byte	0xd4
 6116 0dd4 11       		.byte	0x11
 6117 0dd5 08       		.uleb128 0x8
 6118 0dd6 8C030000 		.4byte	.LASF179
 6119 0dda 12       		.byte	0x12
 6120 0ddb 44       		.byte	0x44
 6121 0ddc D4000000 		.4byte	0xd4
 6122 0de0 12       		.byte	0x12
 6123 0de1 08       		.uleb128 0x8
 6124 0de2 CB1D0000 		.4byte	.LASF180
 6125 0de6 12       		.byte	0x12
 6126 0de7 45       		.byte	0x45
 6127 0de8 D4000000 		.4byte	0xd4
 6128 0dec 13       		.byte	0x13
 6129 0ded 08       		.uleb128 0x8
 6130 0dee B6260000 		.4byte	.LASF181
 6131 0df2 12       		.byte	0x12
 6132 0df3 46       		.byte	0x46
 6133 0df4 D4000000 		.4byte	0xd4
 6134 0df8 14       		.byte	0x14
 6135 0df9 08       		.uleb128 0x8
 6136 0dfa 2A010000 		.4byte	.LASF182
 6137 0dfe 12       		.byte	0x12
 6138 0dff 48       		.byte	0x48
 6139 0e00 D4000000 		.4byte	0xd4
 6140 0e04 15       		.byte	0x15
 6141 0e05 00       		.byte	0
 6142 0e06 11       		.uleb128 0x11
 6143 0e07 F80C0000 		.4byte	0xcf8
 6144 0e0b 160E0000 		.4byte	0xe16
 6145 0e0f 12       		.uleb128 0x12
 6146 0e10 48000000 		.4byte	0x48
 6147 0e14 03       		.byte	0x3
 6148 0e15 00       		.byte	0
 6149 0e16 05       		.uleb128 0x5
 6150 0e17 6C1B0000 		.4byte	.LASF183
 6151 0e1b 12       		.byte	0x12
 6152 0e1c 49       		.byte	0x49
ARM GAS  /tmp/ccU5UnMV.s 			page 123


 6153 0e1d 250D0000 		.4byte	0xd25
 6154 0e21 06       		.uleb128 0x6
 6155 0e22 160E0000 		.4byte	0xe16
 6156 0e26 14       		.uleb128 0x14
 6157 0e27 4C0D0000 		.4byte	.LASF184
 6158 0e2b 12       		.byte	0x12
 6159 0e2c 6E       		.byte	0x6e
 6160 0e2d 210E0000 		.4byte	0xe21
 6161 0e31 05       		.uleb128 0x5
 6162 0e32 5B2A0000 		.4byte	.LASF185
 6163 0e36 11       		.byte	0x11
 6164 0e37 34       		.byte	0x34
 6165 0e38 B60C0000 		.4byte	0xcb6
 6166 0e3c 0B       		.uleb128 0xb
 6167 0e3d 04       		.byte	0x4
 6168 0e3e 310E0000 		.4byte	0xe31
 6169 0e42 05       		.uleb128 0x5
 6170 0e43 CE0D0000 		.4byte	.LASF186
 6171 0e47 13       		.byte	0x13
 6172 0e48 34       		.byte	0x34
 6173 0e49 4D0E0000 		.4byte	0xe4d
 6174 0e4d 07       		.uleb128 0x7
 6175 0e4e 690B0000 		.4byte	.LASF187
 6176 0e52 14       		.byte	0x14
 6177 0e53 13       		.byte	0x13
 6178 0e54 39       		.byte	0x39
 6179 0e55 960E0000 		.4byte	0xe96
 6180 0e59 08       		.uleb128 0x8
 6181 0e5a 0F030000 		.4byte	.LASF188
 6182 0e5e 13       		.byte	0x13
 6183 0e5f 3A       		.byte	0x3a
 6184 0e60 960E0000 		.4byte	0xe96
 6185 0e64 00       		.byte	0
 6186 0e65 08       		.uleb128 0x8
 6187 0e66 992B0000 		.4byte	.LASF189
 6188 0e6a 13       		.byte	0x13
 6189 0e6b 3D       		.byte	0x3d
 6190 0e6c B8020000 		.4byte	0x2b8
 6191 0e70 04       		.byte	0x4
 6192 0e71 08       		.uleb128 0x8
 6193 0e72 3B040000 		.4byte	.LASF190
 6194 0e76 13       		.byte	0x13
 6195 0e77 3F       		.byte	0x3f
 6196 0e78 6C010000 		.4byte	0x16c
 6197 0e7c 08       		.byte	0x8
 6198 0e7d 08       		.uleb128 0x8
 6199 0e7e CE2D0000 		.4byte	.LASF191
 6200 0e82 13       		.byte	0x13
 6201 0e83 41       		.byte	0x41
 6202 0e84 77010000 		.4byte	0x177
 6203 0e88 0C       		.byte	0xc
 6204 0e89 08       		.uleb128 0x8
 6205 0e8a 78130000 		.4byte	.LASF192
 6206 0e8e 13       		.byte	0x13
 6207 0e8f 43       		.byte	0x43
 6208 0e90 77010000 		.4byte	0x177
 6209 0e94 10       		.byte	0x10
ARM GAS  /tmp/ccU5UnMV.s 			page 124


 6210 0e95 00       		.byte	0
 6211 0e96 0B       		.uleb128 0xb
 6212 0e97 04       		.byte	0x4
 6213 0e98 420E0000 		.4byte	0xe42
 6214 0e9c 07       		.uleb128 0x7
 6215 0e9d D72D0000 		.4byte	.LASF193
 6216 0ea1 04       		.byte	0x4
 6217 0ea2 13       		.byte	0x13
 6218 0ea3 4A       		.byte	0x4a
 6219 0ea4 B50E0000 		.4byte	0xeb5
 6220 0ea8 08       		.uleb128 0x8
 6221 0ea9 D12C0000 		.4byte	.LASF194
 6222 0ead 13       		.byte	0x13
 6223 0eae 4B       		.byte	0x4b
 6224 0eaf 960E0000 		.4byte	0xe96
 6225 0eb3 00       		.byte	0
 6226 0eb4 00       		.byte	0
 6227 0eb5 05       		.uleb128 0x5
 6228 0eb6 321C0000 		.4byte	.LASF195
 6229 0eba 13       		.byte	0x13
 6230 0ebb 4E       		.byte	0x4e
 6231 0ebc 9C0E0000 		.4byte	0xe9c
 6232 0ec0 05       		.uleb128 0x5
 6233 0ec1 C7130000 		.4byte	.LASF196
 6234 0ec5 14       		.byte	0x14
 6235 0ec6 3F       		.byte	0x3f
 6236 0ec7 CB0E0000 		.4byte	0xecb
 6237 0ecb 07       		.uleb128 0x7
 6238 0ecc 70170000 		.4byte	.LASF197
 6239 0ed0 24       		.byte	0x24
 6240 0ed1 14       		.byte	0x14
 6241 0ed2 4D       		.byte	0x4d
 6242 0ed3 380F0000 		.4byte	0xf38
 6243 0ed7 08       		.uleb128 0x8
 6244 0ed8 72060000 		.4byte	.LASF198
 6245 0edc 14       		.byte	0x14
 6246 0edd 4E       		.byte	0x4e
 6247 0ede E2020000 		.4byte	0x2e2
 6248 0ee2 00       		.byte	0
 6249 0ee3 08       		.uleb128 0x8
 6250 0ee4 CF290000 		.4byte	.LASF199
 6251 0ee8 14       		.byte	0x14
 6252 0ee9 4F       		.byte	0x4f
 6253 0eea 43000000 		.4byte	0x43
 6254 0eee 08       		.byte	0x8
 6255 0eef 08       		.uleb128 0x8
 6256 0ef0 43180000 		.4byte	.LASF200
 6257 0ef4 14       		.byte	0x14
 6258 0ef5 50       		.byte	0x50
 6259 0ef6 5A0F0000 		.4byte	0xf5a
 6260 0efa 0C       		.byte	0xc
 6261 0efb 08       		.uleb128 0x8
 6262 0efc A7050000 		.4byte	.LASF201
 6263 0f00 14       		.byte	0x14
 6264 0f01 51       		.byte	0x51
 6265 0f02 5A0F0000 		.4byte	0xf5a
 6266 0f06 10       		.byte	0x10
ARM GAS  /tmp/ccU5UnMV.s 			page 125


 6267 0f07 08       		.uleb128 0x8
 6268 0f08 A3220000 		.4byte	.LASF202
 6269 0f0c 14       		.byte	0x14
 6270 0f0d 53       		.byte	0x53
 6271 0f0e 5A0F0000 		.4byte	0xf5a
 6272 0f12 14       		.byte	0x14
 6273 0f13 08       		.uleb128 0x8
 6274 0f14 CC200000 		.4byte	.LASF203
 6275 0f18 14       		.byte	0x14
 6276 0f19 54       		.byte	0x54
 6277 0f1a 5A0F0000 		.4byte	0xf5a
 6278 0f1e 18       		.byte	0x18
 6279 0f1f 08       		.uleb128 0x8
 6280 0f20 3B280000 		.4byte	.LASF204
 6281 0f24 14       		.byte	0x14
 6282 0f25 55       		.byte	0x55
 6283 0f26 380F0000 		.4byte	0xf38
 6284 0f2a 1C       		.byte	0x1c
 6285 0f2b 08       		.uleb128 0x8
 6286 0f2c 17240000 		.4byte	.LASF205
 6287 0f30 14       		.byte	0x14
 6288 0f31 56       		.byte	0x56
 6289 0f32 95030000 		.4byte	0x395
 6290 0f36 20       		.byte	0x20
 6291 0f37 00       		.byte	0
 6292 0f38 05       		.uleb128 0x5
 6293 0f39 74050000 		.4byte	.LASF206
 6294 0f3d 14       		.byte	0x14
 6295 0f3e 42       		.byte	0x42
 6296 0f3f 430F0000 		.4byte	0xf43
 6297 0f43 0B       		.uleb128 0xb
 6298 0f44 04       		.byte	0x4
 6299 0f45 490F0000 		.4byte	0xf49
 6300 0f49 0D       		.uleb128 0xd
 6301 0f4a 540F0000 		.4byte	0xf54
 6302 0f4e 0E       		.uleb128 0xe
 6303 0f4f 540F0000 		.4byte	0xf54
 6304 0f53 00       		.byte	0
 6305 0f54 0B       		.uleb128 0xb
 6306 0f55 04       		.byte	0x4
 6307 0f56 C00E0000 		.4byte	0xec0
 6308 0f5a 0B       		.uleb128 0xb
 6309 0f5b 04       		.byte	0x4
 6310 0f5c D4000000 		.4byte	0xd4
 6311 0f60 05       		.uleb128 0x5
 6312 0f61 B2060000 		.4byte	.LASF207
 6313 0f65 14       		.byte	0x14
 6314 0f66 64       		.byte	0x64
 6315 0f67 C00E0000 		.4byte	0xec0
 6316 0f6b 05       		.uleb128 0x5
 6317 0f6c 53350000 		.4byte	.LASF208
 6318 0f70 14       		.byte	0x14
 6319 0f71 71       		.byte	0x71
 6320 0f72 C00E0000 		.4byte	0xec0
 6321 0f76 1F       		.uleb128 0x1f
 6322 0f77 38000000 		.4byte	0x38
 6323 0f7b 8F0F0000 		.4byte	0xf8f
ARM GAS  /tmp/ccU5UnMV.s 			page 126


 6324 0f7f 0E       		.uleb128 0xe
 6325 0f80 95030000 		.4byte	0x395
 6326 0f84 0E       		.uleb128 0xe
 6327 0f85 8F0F0000 		.4byte	0xf8f
 6328 0f89 0E       		.uleb128 0xe
 6329 0f8a 38000000 		.4byte	0x38
 6330 0f8e 00       		.byte	0
 6331 0f8f 0B       		.uleb128 0xb
 6332 0f90 04       		.byte	0x4
 6333 0f91 DF000000 		.4byte	0xdf
 6334 0f95 0B       		.uleb128 0xb
 6335 0f96 04       		.byte	0x4
 6336 0f97 760F0000 		.4byte	0xf76
 6337 0f9b 1F       		.uleb128 0x1f
 6338 0f9c 38000000 		.4byte	0x38
 6339 0fa0 B40F0000 		.4byte	0xfb4
 6340 0fa4 0E       		.uleb128 0xe
 6341 0fa5 95030000 		.4byte	0x395
 6342 0fa9 0E       		.uleb128 0xe
 6343 0faa 5A0F0000 		.4byte	0xf5a
 6344 0fae 0E       		.uleb128 0xe
 6345 0faf 38000000 		.4byte	0x38
 6346 0fb3 00       		.byte	0
 6347 0fb4 0B       		.uleb128 0xb
 6348 0fb5 04       		.byte	0x4
 6349 0fb6 9B0F0000 		.4byte	0xf9b
 6350 0fba 1F       		.uleb128 0x1f
 6351 0fbb 61010000 		.4byte	0x161
 6352 0fbf CE0F0000 		.4byte	0xfce
 6353 0fc3 0E       		.uleb128 0xe
 6354 0fc4 95030000 		.4byte	0x395
 6355 0fc8 0E       		.uleb128 0xe
 6356 0fc9 D4000000 		.4byte	0xd4
 6357 0fcd 00       		.byte	0
 6358 0fce 0B       		.uleb128 0xb
 6359 0fcf 04       		.byte	0x4
 6360 0fd0 BA0F0000 		.4byte	0xfba
 6361 0fd4 1F       		.uleb128 0x1f
 6362 0fd5 61010000 		.4byte	0x161
 6363 0fd9 E30F0000 		.4byte	0xfe3
 6364 0fdd 0E       		.uleb128 0xe
 6365 0fde 95030000 		.4byte	0x395
 6366 0fe2 00       		.byte	0
 6367 0fe3 0B       		.uleb128 0xb
 6368 0fe4 04       		.byte	0x4
 6369 0fe5 D40F0000 		.4byte	0xfd4
 6370 0fe9 20       		.uleb128 0x20
 6371 0fea 07       		.byte	0x7
 6372 0feb 01       		.byte	0x1
 6373 0fec 6C000000 		.4byte	0x6c
 6374 0ff0 15       		.byte	0x15
 6375 0ff1 23       		.byte	0x23
 6376 0ff2 09100000 		.4byte	0x1009
 6377 0ff6 21       		.uleb128 0x21
 6378 0ff7 7A2F0000 		.4byte	.LASF209
 6379 0ffb 00       		.byte	0
 6380 0ffc 21       		.uleb128 0x21
ARM GAS  /tmp/ccU5UnMV.s 			page 127


 6381 0ffd 00230000 		.4byte	.LASF210
 6382 1001 01       		.byte	0x1
 6383 1002 21       		.uleb128 0x21
 6384 1003 23050000 		.4byte	.LASF211
 6385 1007 02       		.byte	0x2
 6386 1008 00       		.byte	0
 6387 1009 05       		.uleb128 0x5
 6388 100a 34050000 		.4byte	.LASF212
 6389 100e 15       		.byte	0x15
 6390 100f 27       		.byte	0x27
 6391 1010 E90F0000 		.4byte	0xfe9
 6392 1014 20       		.uleb128 0x20
 6393 1015 07       		.byte	0x7
 6394 1016 01       		.byte	0x1
 6395 1017 6C000000 		.4byte	0x6c
 6396 101b 15       		.byte	0x15
 6397 101c 29       		.byte	0x29
 6398 101d 2E100000 		.4byte	0x102e
 6399 1021 21       		.uleb128 0x21
 6400 1022 61200000 		.4byte	.LASF213
 6401 1026 00       		.byte	0
 6402 1027 21       		.uleb128 0x21
 6403 1028 01360000 		.4byte	.LASF214
 6404 102c 01       		.byte	0x1
 6405 102d 00       		.byte	0
 6406 102e 05       		.uleb128 0x5
 6407 102f 9D2E0000 		.4byte	.LASF215
 6408 1033 15       		.byte	0x15
 6409 1034 2C       		.byte	0x2c
 6410 1035 14100000 		.4byte	0x1014
 6411 1039 20       		.uleb128 0x20
 6412 103a 07       		.byte	0x7
 6413 103b 01       		.byte	0x1
 6414 103c 6C000000 		.4byte	0x6c
 6415 1040 15       		.byte	0x15
 6416 1041 2E       		.byte	0x2e
 6417 1042 59100000 		.4byte	0x1059
 6418 1046 21       		.uleb128 0x21
 6419 1047 4D290000 		.4byte	.LASF216
 6420 104b 00       		.byte	0
 6421 104c 21       		.uleb128 0x21
 6422 104d BC0F0000 		.4byte	.LASF217
 6423 1051 01       		.byte	0x1
 6424 1052 21       		.uleb128 0x21
 6425 1053 71110000 		.4byte	.LASF218
 6426 1057 02       		.byte	0x2
 6427 1058 00       		.byte	0
 6428 1059 05       		.uleb128 0x5
 6429 105a B01F0000 		.4byte	.LASF219
 6430 105e 15       		.byte	0x15
 6431 105f 32       		.byte	0x32
 6432 1060 39100000 		.4byte	0x1039
 6433 1064 20       		.uleb128 0x20
 6434 1065 07       		.byte	0x7
 6435 1066 01       		.byte	0x1
 6436 1067 6C000000 		.4byte	0x6c
 6437 106b 15       		.byte	0x15
ARM GAS  /tmp/ccU5UnMV.s 			page 128


 6438 106c 34       		.byte	0x34
 6439 106d 84100000 		.4byte	0x1084
 6440 1071 21       		.uleb128 0x21
 6441 1072 731F0000 		.4byte	.LASF220
 6442 1076 00       		.byte	0
 6443 1077 21       		.uleb128 0x21
 6444 1078 0C090000 		.4byte	.LASF221
 6445 107c 01       		.byte	0x1
 6446 107d 21       		.uleb128 0x21
 6447 107e 662C0000 		.4byte	.LASF222
 6448 1082 02       		.byte	0x2
 6449 1083 00       		.byte	0
 6450 1084 05       		.uleb128 0x5
 6451 1085 6C340000 		.4byte	.LASF223
 6452 1089 15       		.byte	0x15
 6453 108a 38       		.byte	0x38
 6454 108b 64100000 		.4byte	0x1064
 6455 108f 20       		.uleb128 0x20
 6456 1090 07       		.byte	0x7
 6457 1091 01       		.byte	0x1
 6458 1092 6C000000 		.4byte	0x6c
 6459 1096 15       		.byte	0x15
 6460 1097 3B       		.byte	0x3b
 6461 1098 B5100000 		.4byte	0x10b5
 6462 109c 21       		.uleb128 0x21
 6463 109d F0050000 		.4byte	.LASF224
 6464 10a1 00       		.byte	0
 6465 10a2 21       		.uleb128 0x21
 6466 10a3 F42F0000 		.4byte	.LASF225
 6467 10a7 01       		.byte	0x1
 6468 10a8 21       		.uleb128 0x21
 6469 10a9 00330000 		.4byte	.LASF226
 6470 10ad 02       		.byte	0x2
 6471 10ae 21       		.uleb128 0x21
 6472 10af 08080000 		.4byte	.LASF227
 6473 10b3 03       		.byte	0x3
 6474 10b4 00       		.byte	0
 6475 10b5 05       		.uleb128 0x5
 6476 10b6 B31D0000 		.4byte	.LASF228
 6477 10ba 15       		.byte	0x15
 6478 10bb 40       		.byte	0x40
 6479 10bc 8F100000 		.4byte	0x108f
 6480 10c0 20       		.uleb128 0x20
 6481 10c1 07       		.byte	0x7
 6482 10c2 01       		.byte	0x1
 6483 10c3 6C000000 		.4byte	0x6c
 6484 10c7 15       		.byte	0x15
 6485 10c8 4A       		.byte	0x4a
 6486 10c9 E6100000 		.4byte	0x10e6
 6487 10cd 21       		.uleb128 0x21
 6488 10ce 6D350000 		.4byte	.LASF229
 6489 10d2 00       		.byte	0
 6490 10d3 21       		.uleb128 0x21
 6491 10d4 5F1A0000 		.4byte	.LASF230
 6492 10d8 01       		.byte	0x1
 6493 10d9 21       		.uleb128 0x21
 6494 10da E1150000 		.4byte	.LASF231
ARM GAS  /tmp/ccU5UnMV.s 			page 129


 6495 10de 02       		.byte	0x2
 6496 10df 21       		.uleb128 0x21
 6497 10e0 42330000 		.4byte	.LASF232
 6498 10e4 03       		.byte	0x3
 6499 10e5 00       		.byte	0
 6500 10e6 05       		.uleb128 0x5
 6501 10e7 4B280000 		.4byte	.LASF233
 6502 10eb 15       		.byte	0x15
 6503 10ec 4F       		.byte	0x4f
 6504 10ed C0100000 		.4byte	0x10c0
 6505 10f1 20       		.uleb128 0x20
 6506 10f2 07       		.byte	0x7
 6507 10f3 01       		.byte	0x1
 6508 10f4 6C000000 		.4byte	0x6c
 6509 10f8 15       		.byte	0x15
 6510 10f9 51       		.byte	0x51
 6511 10fa 59110000 		.4byte	0x1159
 6512 10fe 21       		.uleb128 0x21
 6513 10ff 38260000 		.4byte	.LASF234
 6514 1103 00       		.byte	0
 6515 1104 21       		.uleb128 0x21
 6516 1105 67160000 		.4byte	.LASF235
 6517 1109 01       		.byte	0x1
 6518 110a 21       		.uleb128 0x21
 6519 110b 50250000 		.4byte	.LASF236
 6520 110f 02       		.byte	0x2
 6521 1110 21       		.uleb128 0x21
 6522 1111 D40A0000 		.4byte	.LASF237
 6523 1115 03       		.byte	0x3
 6524 1116 21       		.uleb128 0x21
 6525 1117 CD0C0000 		.4byte	.LASF238
 6526 111b 04       		.byte	0x4
 6527 111c 21       		.uleb128 0x21
 6528 111d F0040000 		.4byte	.LASF239
 6529 1121 05       		.byte	0x5
 6530 1122 21       		.uleb128 0x21
 6531 1123 901D0000 		.4byte	.LASF240
 6532 1127 06       		.byte	0x6
 6533 1128 21       		.uleb128 0x21
 6534 1129 481B0000 		.4byte	.LASF241
 6535 112d 07       		.byte	0x7
 6536 112e 21       		.uleb128 0x21
 6537 112f 882A0000 		.4byte	.LASF242
 6538 1133 08       		.byte	0x8
 6539 1134 21       		.uleb128 0x21
 6540 1135 060B0000 		.4byte	.LASF243
 6541 1139 09       		.byte	0x9
 6542 113a 21       		.uleb128 0x21
 6543 113b BA140000 		.4byte	.LASF244
 6544 113f 0A       		.byte	0xa
 6545 1140 21       		.uleb128 0x21
 6546 1141 F0150000 		.4byte	.LASF245
 6547 1145 0B       		.byte	0xb
 6548 1146 21       		.uleb128 0x21
 6549 1147 B4220000 		.4byte	.LASF246
 6550 114b 0C       		.byte	0xc
 6551 114c 21       		.uleb128 0x21
ARM GAS  /tmp/ccU5UnMV.s 			page 130


 6552 114d BF080000 		.4byte	.LASF247
 6553 1151 0D       		.byte	0xd
 6554 1152 21       		.uleb128 0x21
 6555 1153 00110000 		.4byte	.LASF248
 6556 1157 0E       		.byte	0xe
 6557 1158 00       		.byte	0
 6558 1159 05       		.uleb128 0x5
 6559 115a 1D300000 		.4byte	.LASF249
 6560 115e 15       		.byte	0x15
 6561 115f 61       		.byte	0x61
 6562 1160 F1100000 		.4byte	0x10f1
 6563 1164 20       		.uleb128 0x20
 6564 1165 07       		.byte	0x7
 6565 1166 01       		.byte	0x1
 6566 1167 6C000000 		.4byte	0x6c
 6567 116b 15       		.byte	0x15
 6568 116c 7B       		.byte	0x7b
 6569 116d 90110000 		.4byte	0x1190
 6570 1171 21       		.uleb128 0x21
 6571 1172 421F0000 		.4byte	.LASF250
 6572 1176 00       		.byte	0
 6573 1177 21       		.uleb128 0x21
 6574 1178 02120000 		.4byte	.LASF251
 6575 117c 01       		.byte	0x1
 6576 117d 21       		.uleb128 0x21
 6577 117e 82120000 		.4byte	.LASF252
 6578 1182 02       		.byte	0x2
 6579 1183 21       		.uleb128 0x21
 6580 1184 1F340000 		.4byte	.LASF253
 6581 1188 03       		.byte	0x3
 6582 1189 21       		.uleb128 0x21
 6583 118a EE240000 		.4byte	.LASF254
 6584 118e 04       		.byte	0x4
 6585 118f 00       		.byte	0
 6586 1190 05       		.uleb128 0x5
 6587 1191 39340000 		.4byte	.LASF255
 6588 1195 15       		.byte	0x15
 6589 1196 81       		.byte	0x81
 6590 1197 64110000 		.4byte	0x1164
 6591 119b 15       		.uleb128 0x15
 6592 119c 1C       		.byte	0x1c
 6593 119d 15       		.byte	0x15
 6594 119e 83       		.byte	0x83
 6595 119f F8110000 		.4byte	0x11f8
 6596 11a3 08       		.uleb128 0x8
 6597 11a4 A5130000 		.4byte	.LASF256
 6598 11a8 15       		.byte	0x15
 6599 11a9 84       		.byte	0x84
 6600 11aa 25000000 		.4byte	0x25
 6601 11ae 00       		.byte	0
 6602 11af 08       		.uleb128 0x8
 6603 11b0 26120000 		.4byte	.LASF257
 6604 11b4 15       		.byte	0x15
 6605 11b5 85       		.byte	0x85
 6606 11b6 25000000 		.4byte	0x25
 6607 11ba 04       		.byte	0x4
 6608 11bb 08       		.uleb128 0x8
ARM GAS  /tmp/ccU5UnMV.s 			page 131


 6609 11bc 891B0000 		.4byte	.LASF258
 6610 11c0 15       		.byte	0x15
 6611 11c1 86       		.byte	0x86
 6612 11c2 25000000 		.4byte	0x25
 6613 11c6 08       		.byte	0x8
 6614 11c7 08       		.uleb128 0x8
 6615 11c8 97020000 		.4byte	.LASF259
 6616 11cc 15       		.byte	0x15
 6617 11cd 87       		.byte	0x87
 6618 11ce 25000000 		.4byte	0x25
 6619 11d2 0C       		.byte	0xc
 6620 11d3 08       		.uleb128 0x8
 6621 11d4 80150000 		.4byte	.LASF260
 6622 11d8 15       		.byte	0x15
 6623 11d9 88       		.byte	0x88
 6624 11da 25000000 		.4byte	0x25
 6625 11de 10       		.byte	0x10
 6626 11df 08       		.uleb128 0x8
 6627 11e0 FC270000 		.4byte	.LASF261
 6628 11e4 15       		.byte	0x15
 6629 11e5 89       		.byte	0x89
 6630 11e6 F4000000 		.4byte	0xf4
 6631 11ea 14       		.byte	0x14
 6632 11eb 08       		.uleb128 0x8
 6633 11ec CB300000 		.4byte	.LASF262
 6634 11f0 15       		.byte	0x15
 6635 11f1 8A       		.byte	0x8a
 6636 11f2 25000000 		.4byte	0x25
 6637 11f6 18       		.byte	0x18
 6638 11f7 00       		.byte	0
 6639 11f8 04       		.uleb128 0x4
 6640 11f9 25000000 		.4byte	0x25
 6641 11fd 06       		.uleb128 0x6
 6642 11fe 25000000 		.4byte	0x25
 6643 1202 05       		.uleb128 0x5
 6644 1203 0D200000 		.4byte	.LASF263
 6645 1207 15       		.byte	0x15
 6646 1208 8B       		.byte	0x8b
 6647 1209 9B110000 		.4byte	0x119b
 6648 120d 20       		.uleb128 0x20
 6649 120e 07       		.byte	0x7
 6650 120f 01       		.byte	0x1
 6651 1210 6C000000 		.4byte	0x6c
 6652 1214 15       		.byte	0x15
 6653 1215 8D       		.byte	0x8d
 6654 1216 33120000 		.4byte	0x1233
 6655 121a 21       		.uleb128 0x21
 6656 121b CE040000 		.4byte	.LASF264
 6657 121f 00       		.byte	0
 6658 1220 21       		.uleb128 0x21
 6659 1221 02280000 		.4byte	.LASF265
 6660 1225 01       		.byte	0x1
 6661 1226 21       		.uleb128 0x21
 6662 1227 43090000 		.4byte	.LASF266
 6663 122b 02       		.byte	0x2
 6664 122c 21       		.uleb128 0x21
 6665 122d 972F0000 		.4byte	.LASF267
ARM GAS  /tmp/ccU5UnMV.s 			page 132


 6666 1231 03       		.byte	0x3
 6667 1232 00       		.byte	0
 6668 1233 05       		.uleb128 0x5
 6669 1234 3E230000 		.4byte	.LASF268
 6670 1238 15       		.byte	0x15
 6671 1239 92       		.byte	0x92
 6672 123a 0D120000 		.4byte	0x120d
 6673 123e 20       		.uleb128 0x20
 6674 123f 07       		.byte	0x7
 6675 1240 01       		.byte	0x1
 6676 1241 6C000000 		.4byte	0x6c
 6677 1245 15       		.byte	0x15
 6678 1246 A6       		.byte	0xa6
 6679 1247 5E120000 		.4byte	0x125e
 6680 124b 21       		.uleb128 0x21
 6681 124c A52D0000 		.4byte	.LASF269
 6682 1250 00       		.byte	0
 6683 1251 21       		.uleb128 0x21
 6684 1252 8F1C0000 		.4byte	.LASF270
 6685 1256 01       		.byte	0x1
 6686 1257 21       		.uleb128 0x21
 6687 1258 601C0000 		.4byte	.LASF271
 6688 125c 02       		.byte	0x2
 6689 125d 00       		.byte	0
 6690 125e 05       		.uleb128 0x5
 6691 125f 98190000 		.4byte	.LASF272
 6692 1263 15       		.byte	0x15
 6693 1264 AA       		.byte	0xaa
 6694 1265 3E120000 		.4byte	0x123e
 6695 1269 22       		.uleb128 0x22
 6696 126a C801     		.2byte	0x1c8
 6697 126c 15       		.byte	0x15
 6698 126d AC       		.byte	0xac
 6699 126e 66180000 		.4byte	0x1866
 6700 1272 08       		.uleb128 0x8
 6701 1273 0A190000 		.4byte	.LASF273
 6702 1277 15       		.byte	0x15
 6703 1278 AE       		.byte	0xae
 6704 1279 09100000 		.4byte	0x1009
 6705 127d 00       		.byte	0
 6706 127e 08       		.uleb128 0x8
 6707 127f B40C0000 		.4byte	.LASF274
 6708 1283 15       		.byte	0x15
 6709 1284 AF       		.byte	0xaf
 6710 1285 2E100000 		.4byte	0x102e
 6711 1289 01       		.byte	0x1
 6712 128a 08       		.uleb128 0x8
 6713 128b 13190000 		.4byte	.LASF275
 6714 128f 15       		.byte	0x15
 6715 1290 B0       		.byte	0xb0
 6716 1291 E6100000 		.4byte	0x10e6
 6717 1295 02       		.byte	0x2
 6718 1296 08       		.uleb128 0x8
 6719 1297 3C290000 		.4byte	.LASF276
 6720 129b 15       		.byte	0x15
 6721 129c B1       		.byte	0xb1
 6722 129d 59100000 		.4byte	0x1059
ARM GAS  /tmp/ccU5UnMV.s 			page 133


 6723 12a1 03       		.byte	0x3
 6724 12a2 08       		.uleb128 0x8
 6725 12a3 801E0000 		.4byte	.LASF277
 6726 12a7 15       		.byte	0x15
 6727 12a8 B3       		.byte	0xb3
 6728 12a9 25000000 		.4byte	0x25
 6729 12ad 04       		.byte	0x4
 6730 12ae 08       		.uleb128 0x8
 6731 12af 06250000 		.4byte	.LASF278
 6732 12b3 15       		.byte	0x15
 6733 12b4 B4       		.byte	0xb4
 6734 12b5 25000000 		.4byte	0x25
 6735 12b9 08       		.byte	0x8
 6736 12ba 08       		.uleb128 0x8
 6737 12bb 8A320000 		.4byte	.LASF279
 6738 12bf 15       		.byte	0x15
 6739 12c0 B5       		.byte	0xb5
 6740 12c1 25000000 		.4byte	0x25
 6741 12c5 0C       		.byte	0xc
 6742 12c6 08       		.uleb128 0x8
 6743 12c7 81020000 		.4byte	.LASF280
 6744 12cb 15       		.byte	0x15
 6745 12cc B6       		.byte	0xb6
 6746 12cd 25000000 		.4byte	0x25
 6747 12d1 10       		.byte	0x10
 6748 12d2 08       		.uleb128 0x8
 6749 12d3 32000000 		.4byte	.LASF281
 6750 12d7 15       		.byte	0x15
 6751 12d8 B7       		.byte	0xb7
 6752 12d9 25000000 		.4byte	0x25
 6753 12dd 14       		.byte	0x14
 6754 12de 08       		.uleb128 0x8
 6755 12df 54030000 		.4byte	.LASF282
 6756 12e3 15       		.byte	0x15
 6757 12e4 B8       		.byte	0xb8
 6758 12e5 25000000 		.4byte	0x25
 6759 12e9 18       		.byte	0x18
 6760 12ea 08       		.uleb128 0x8
 6761 12eb 231D0000 		.4byte	.LASF283
 6762 12ef 15       		.byte	0x15
 6763 12f0 B9       		.byte	0xb9
 6764 12f1 25000000 		.4byte	0x25
 6765 12f5 1C       		.byte	0x1c
 6766 12f6 08       		.uleb128 0x8
 6767 12f7 250C0000 		.4byte	.LASF284
 6768 12fb 15       		.byte	0x15
 6769 12fc BA       		.byte	0xba
 6770 12fd 25000000 		.4byte	0x25
 6771 1301 20       		.byte	0x20
 6772 1302 08       		.uleb128 0x8
 6773 1303 15000000 		.4byte	.LASF285
 6774 1307 15       		.byte	0x15
 6775 1308 BB       		.byte	0xbb
 6776 1309 25000000 		.4byte	0x25
 6777 130d 24       		.byte	0x24
 6778 130e 08       		.uleb128 0x8
 6779 130f 66310000 		.4byte	.LASF286
ARM GAS  /tmp/ccU5UnMV.s 			page 134


 6780 1313 15       		.byte	0x15
 6781 1314 BC       		.byte	0xbc
 6782 1315 25000000 		.4byte	0x25
 6783 1319 28       		.byte	0x28
 6784 131a 08       		.uleb128 0x8
 6785 131b B0140000 		.4byte	.LASF287
 6786 131f 15       		.byte	0x15
 6787 1320 BD       		.byte	0xbd
 6788 1321 25000000 		.4byte	0x25
 6789 1325 2C       		.byte	0x2c
 6790 1326 08       		.uleb128 0x8
 6791 1327 6E130000 		.4byte	.LASF288
 6792 132b 15       		.byte	0x15
 6793 132c BE       		.byte	0xbe
 6794 132d 25000000 		.4byte	0x25
 6795 1331 30       		.byte	0x30
 6796 1332 08       		.uleb128 0x8
 6797 1333 66140000 		.4byte	.LASF289
 6798 1337 15       		.byte	0x15
 6799 1338 BF       		.byte	0xbf
 6800 1339 25000000 		.4byte	0x25
 6801 133d 34       		.byte	0x34
 6802 133e 08       		.uleb128 0x8
 6803 133f 92140000 		.4byte	.LASF290
 6804 1343 15       		.byte	0x15
 6805 1344 C0       		.byte	0xc0
 6806 1345 25000000 		.4byte	0x25
 6807 1349 38       		.byte	0x38
 6808 134a 08       		.uleb128 0x8
 6809 134b 3B020000 		.4byte	.LASF291
 6810 134f 15       		.byte	0x15
 6811 1350 C1       		.byte	0xc1
 6812 1351 66180000 		.4byte	0x1866
 6813 1355 3C       		.byte	0x3c
 6814 1356 08       		.uleb128 0x8
 6815 1357 4C0C0000 		.4byte	.LASF292
 6816 135b 15       		.byte	0x15
 6817 135c C2       		.byte	0xc2
 6818 135d 25000000 		.4byte	0x25
 6819 1361 40       		.byte	0x40
 6820 1362 08       		.uleb128 0x8
 6821 1363 E2030000 		.4byte	.LASF293
 6822 1367 15       		.byte	0x15
 6823 1368 C3       		.byte	0xc3
 6824 1369 25000000 		.4byte	0x25
 6825 136d 44       		.byte	0x44
 6826 136e 08       		.uleb128 0x8
 6827 136f 3C240000 		.4byte	.LASF294
 6828 1373 15       		.byte	0x15
 6829 1374 C4       		.byte	0xc4
 6830 1375 25000000 		.4byte	0x25
 6831 1379 48       		.byte	0x48
 6832 137a 08       		.uleb128 0x8
 6833 137b FA280000 		.4byte	.LASF295
 6834 137f 15       		.byte	0x15
 6835 1380 C5       		.byte	0xc5
 6836 1381 25000000 		.4byte	0x25
ARM GAS  /tmp/ccU5UnMV.s 			page 135


 6837 1385 4C       		.byte	0x4c
 6838 1386 08       		.uleb128 0x8
 6839 1387 CE230000 		.4byte	.LASF296
 6840 138b 15       		.byte	0x15
 6841 138c C6       		.byte	0xc6
 6842 138d 25000000 		.4byte	0x25
 6843 1391 50       		.byte	0x50
 6844 1392 08       		.uleb128 0x8
 6845 1393 EF330000 		.4byte	.LASF297
 6846 1397 15       		.byte	0x15
 6847 1398 C7       		.byte	0xc7
 6848 1399 25000000 		.4byte	0x25
 6849 139d 54       		.byte	0x54
 6850 139e 08       		.uleb128 0x8
 6851 139f F6160000 		.4byte	.LASF298
 6852 13a3 15       		.byte	0x15
 6853 13a4 C8       		.byte	0xc8
 6854 13a5 25000000 		.4byte	0x25
 6855 13a9 58       		.byte	0x58
 6856 13aa 08       		.uleb128 0x8
 6857 13ab 070C0000 		.4byte	.LASF299
 6858 13af 15       		.byte	0x15
 6859 13b0 C9       		.byte	0xc9
 6860 13b1 25000000 		.4byte	0x25
 6861 13b5 5C       		.byte	0x5c
 6862 13b6 08       		.uleb128 0x8
 6863 13b7 EA300000 		.4byte	.LASF300
 6864 13bb 15       		.byte	0x15
 6865 13bc CA       		.byte	0xca
 6866 13bd 25000000 		.4byte	0x25
 6867 13c1 60       		.byte	0x60
 6868 13c2 08       		.uleb128 0x8
 6869 13c3 051D0000 		.4byte	.LASF301
 6870 13c7 15       		.byte	0x15
 6871 13c8 CB       		.byte	0xcb
 6872 13c9 25000000 		.4byte	0x25
 6873 13cd 64       		.byte	0x64
 6874 13ce 08       		.uleb128 0x8
 6875 13cf A71E0000 		.4byte	.LASF302
 6876 13d3 15       		.byte	0x15
 6877 13d4 CC       		.byte	0xcc
 6878 13d5 25000000 		.4byte	0x25
 6879 13d9 68       		.byte	0x68
 6880 13da 08       		.uleb128 0x8
 6881 13db 96110000 		.4byte	.LASF303
 6882 13df 15       		.byte	0x15
 6883 13e0 CE       		.byte	0xce
 6884 13e1 25000000 		.4byte	0x25
 6885 13e5 6C       		.byte	0x6c
 6886 13e6 08       		.uleb128 0x8
 6887 13e7 1E190000 		.4byte	.LASF304
 6888 13eb 15       		.byte	0x15
 6889 13ec CF       		.byte	0xcf
 6890 13ed 25000000 		.4byte	0x25
 6891 13f1 70       		.byte	0x70
 6892 13f2 08       		.uleb128 0x8
 6893 13f3 B42B0000 		.4byte	.LASF305
ARM GAS  /tmp/ccU5UnMV.s 			page 136


 6894 13f7 15       		.byte	0x15
 6895 13f8 D0       		.byte	0xd0
 6896 13f9 25000000 		.4byte	0x25
 6897 13fd 74       		.byte	0x74
 6898 13fe 08       		.uleb128 0x8
 6899 13ff AD330000 		.4byte	.LASF306
 6900 1403 15       		.byte	0x15
 6901 1404 D1       		.byte	0xd1
 6902 1405 25000000 		.4byte	0x25
 6903 1409 78       		.byte	0x78
 6904 140a 08       		.uleb128 0x8
 6905 140b 8C260000 		.4byte	.LASF307
 6906 140f 15       		.byte	0x15
 6907 1410 D2       		.byte	0xd2
 6908 1411 25000000 		.4byte	0x25
 6909 1415 7C       		.byte	0x7c
 6910 1416 08       		.uleb128 0x8
 6911 1417 4D130000 		.4byte	.LASF308
 6912 141b 15       		.byte	0x15
 6913 141c D3       		.byte	0xd3
 6914 141d 25000000 		.4byte	0x25
 6915 1421 80       		.byte	0x80
 6916 1422 08       		.uleb128 0x8
 6917 1423 07160000 		.4byte	.LASF309
 6918 1427 15       		.byte	0x15
 6919 1428 D5       		.byte	0xd5
 6920 1429 25000000 		.4byte	0x25
 6921 142d 84       		.byte	0x84
 6922 142e 08       		.uleb128 0x8
 6923 142f C7060000 		.4byte	.LASF310
 6924 1433 15       		.byte	0x15
 6925 1434 D6       		.byte	0xd6
 6926 1435 25000000 		.4byte	0x25
 6927 1439 88       		.byte	0x88
 6928 143a 08       		.uleb128 0x8
 6929 143b 54190000 		.4byte	.LASF311
 6930 143f 15       		.byte	0x15
 6931 1440 D7       		.byte	0xd7
 6932 1441 25000000 		.4byte	0x25
 6933 1445 8C       		.byte	0x8c
 6934 1446 08       		.uleb128 0x8
 6935 1447 DE1A0000 		.4byte	.LASF312
 6936 144b 15       		.byte	0x15
 6937 144c D8       		.byte	0xd8
 6938 144d 25000000 		.4byte	0x25
 6939 1451 90       		.byte	0x90
 6940 1452 08       		.uleb128 0x8
 6941 1453 08180000 		.4byte	.LASF313
 6942 1457 15       		.byte	0x15
 6943 1458 D9       		.byte	0xd9
 6944 1459 25000000 		.4byte	0x25
 6945 145d 94       		.byte	0x94
 6946 145e 08       		.uleb128 0x8
 6947 145f 052E0000 		.4byte	.LASF314
 6948 1463 15       		.byte	0x15
 6949 1464 DA       		.byte	0xda
 6950 1465 25000000 		.4byte	0x25
ARM GAS  /tmp/ccU5UnMV.s 			page 137


 6951 1469 98       		.byte	0x98
 6952 146a 08       		.uleb128 0x8
 6953 146b 9F230000 		.4byte	.LASF315
 6954 146f 15       		.byte	0x15
 6955 1470 DB       		.byte	0xdb
 6956 1471 25000000 		.4byte	0x25
 6957 1475 9C       		.byte	0x9c
 6958 1476 08       		.uleb128 0x8
 6959 1477 051A0000 		.4byte	.LASF316
 6960 147b 15       		.byte	0x15
 6961 147c DD       		.byte	0xdd
 6962 147d 6D180000 		.4byte	0x186d
 6963 1481 A0       		.byte	0xa0
 6964 1482 08       		.uleb128 0x8
 6965 1483 66260000 		.4byte	.LASF317
 6966 1487 15       		.byte	0x15
 6967 1488 DE       		.byte	0xde
 6968 1489 25000000 		.4byte	0x25
 6969 148d A8       		.byte	0xa8
 6970 148e 08       		.uleb128 0x8
 6971 148f 12070000 		.4byte	.LASF318
 6972 1493 15       		.byte	0x15
 6973 1494 E0       		.byte	0xe0
 6974 1495 25000000 		.4byte	0x25
 6975 1499 AC       		.byte	0xac
 6976 149a 08       		.uleb128 0x8
 6977 149b FA060000 		.4byte	.LASF319
 6978 149f 15       		.byte	0x15
 6979 14a0 E1       		.byte	0xe1
 6980 14a1 25000000 		.4byte	0x25
 6981 14a5 B0       		.byte	0xb0
 6982 14a6 08       		.uleb128 0x8
 6983 14a7 1C0C0000 		.4byte	.LASF320
 6984 14ab 15       		.byte	0x15
 6985 14ac E2       		.byte	0xe2
 6986 14ad 25000000 		.4byte	0x25
 6987 14b1 B4       		.byte	0xb4
 6988 14b2 08       		.uleb128 0x8
 6989 14b3 A92C0000 		.4byte	.LASF321
 6990 14b7 15       		.byte	0x15
 6991 14b8 E3       		.byte	0xe3
 6992 14b9 25000000 		.4byte	0x25
 6993 14bd B8       		.byte	0xb8
 6994 14be 08       		.uleb128 0x8
 6995 14bf 6C030000 		.4byte	.LASF322
 6996 14c3 15       		.byte	0x15
 6997 14c4 E4       		.byte	0xe4
 6998 14c5 25000000 		.4byte	0x25
 6999 14c9 BC       		.byte	0xbc
 7000 14ca 08       		.uleb128 0x8
 7001 14cb A5110000 		.4byte	.LASF323
 7002 14cf 15       		.byte	0x15
 7003 14d0 E5       		.byte	0xe5
 7004 14d1 66180000 		.4byte	0x1866
 7005 14d5 C0       		.byte	0xc0
 7006 14d6 08       		.uleb128 0x8
 7007 14d7 26210000 		.4byte	.LASF324
ARM GAS  /tmp/ccU5UnMV.s 			page 138


 7008 14db 15       		.byte	0x15
 7009 14dc E6       		.byte	0xe6
 7010 14dd 25000000 		.4byte	0x25
 7011 14e1 C4       		.byte	0xc4
 7012 14e2 08       		.uleb128 0x8
 7013 14e3 FB0C0000 		.4byte	.LASF325
 7014 14e7 15       		.byte	0x15
 7015 14e8 E7       		.byte	0xe7
 7016 14e9 25000000 		.4byte	0x25
 7017 14ed C8       		.byte	0xc8
 7018 14ee 08       		.uleb128 0x8
 7019 14ef EE090000 		.4byte	.LASF326
 7020 14f3 15       		.byte	0x15
 7021 14f4 E8       		.byte	0xe8
 7022 14f5 25000000 		.4byte	0x25
 7023 14f9 CC       		.byte	0xcc
 7024 14fa 08       		.uleb128 0x8
 7025 14fb CA150000 		.4byte	.LASF327
 7026 14ff 15       		.byte	0x15
 7027 1500 E9       		.byte	0xe9
 7028 1501 25000000 		.4byte	0x25
 7029 1505 D0       		.byte	0xd0
 7030 1506 08       		.uleb128 0x8
 7031 1507 DA020000 		.4byte	.LASF328
 7032 150b 15       		.byte	0x15
 7033 150c EA       		.byte	0xea
 7034 150d 25000000 		.4byte	0x25
 7035 1511 D4       		.byte	0xd4
 7036 1512 08       		.uleb128 0x8
 7037 1513 45150000 		.4byte	.LASF329
 7038 1517 15       		.byte	0x15
 7039 1518 EB       		.byte	0xeb
 7040 1519 25000000 		.4byte	0x25
 7041 151d D8       		.byte	0xd8
 7042 151e 08       		.uleb128 0x8
 7043 151f B20A0000 		.4byte	.LASF330
 7044 1523 15       		.byte	0x15
 7045 1524 EC       		.byte	0xec
 7046 1525 25000000 		.4byte	0x25
 7047 1529 DC       		.byte	0xdc
 7048 152a 08       		.uleb128 0x8
 7049 152b BE0A0000 		.4byte	.LASF331
 7050 152f 15       		.byte	0x15
 7051 1530 ED       		.byte	0xed
 7052 1531 25000000 		.4byte	0x25
 7053 1535 E0       		.byte	0xe0
 7054 1536 08       		.uleb128 0x8
 7055 1537 AB1A0000 		.4byte	.LASF332
 7056 153b 15       		.byte	0x15
 7057 153c EE       		.byte	0xee
 7058 153d 25000000 		.4byte	0x25
 7059 1541 E4       		.byte	0xe4
 7060 1542 08       		.uleb128 0x8
 7061 1543 E90C0000 		.4byte	.LASF333
 7062 1547 15       		.byte	0x15
 7063 1548 EF       		.byte	0xef
 7064 1549 25000000 		.4byte	0x25
ARM GAS  /tmp/ccU5UnMV.s 			page 139


 7065 154d E8       		.byte	0xe8
 7066 154e 08       		.uleb128 0x8
 7067 154f EC000000 		.4byte	.LASF334
 7068 1553 15       		.byte	0x15
 7069 1554 F0       		.byte	0xf0
 7070 1555 25000000 		.4byte	0x25
 7071 1559 EC       		.byte	0xec
 7072 155a 08       		.uleb128 0x8
 7073 155b 70270000 		.4byte	.LASF335
 7074 155f 15       		.byte	0x15
 7075 1560 F1       		.byte	0xf1
 7076 1561 25000000 		.4byte	0x25
 7077 1565 F0       		.byte	0xf0
 7078 1566 08       		.uleb128 0x8
 7079 1567 65270000 		.4byte	.LASF336
 7080 156b 15       		.byte	0x15
 7081 156c F2       		.byte	0xf2
 7082 156d 25000000 		.4byte	0x25
 7083 1571 F4       		.byte	0xf4
 7084 1572 08       		.uleb128 0x8
 7085 1573 F41D0000 		.4byte	.LASF337
 7086 1577 15       		.byte	0x15
 7087 1578 F3       		.byte	0xf3
 7088 1579 25000000 		.4byte	0x25
 7089 157d F8       		.byte	0xf8
 7090 157e 08       		.uleb128 0x8
 7091 157f D71D0000 		.4byte	.LASF338
 7092 1583 15       		.byte	0x15
 7093 1584 F4       		.byte	0xf4
 7094 1585 25000000 		.4byte	0x25
 7095 1589 FC       		.byte	0xfc
 7096 158a 23       		.uleb128 0x23
 7097 158b 1C270000 		.4byte	.LASF339
 7098 158f 15       		.byte	0x15
 7099 1590 F5       		.byte	0xf5
 7100 1591 25000000 		.4byte	0x25
 7101 1595 0001     		.2byte	0x100
 7102 1597 23       		.uleb128 0x23
 7103 1598 D32A0000 		.4byte	.LASF340
 7104 159c 15       		.byte	0x15
 7105 159d F6       		.byte	0xf6
 7106 159e 25000000 		.4byte	0x25
 7107 15a2 0401     		.2byte	0x104
 7108 15a4 23       		.uleb128 0x23
 7109 15a5 7E330000 		.4byte	.LASF341
 7110 15a9 15       		.byte	0x15
 7111 15aa F7       		.byte	0xf7
 7112 15ab 25000000 		.4byte	0x25
 7113 15af 0801     		.2byte	0x108
 7114 15b1 23       		.uleb128 0x23
 7115 15b2 B0190000 		.4byte	.LASF342
 7116 15b6 15       		.byte	0x15
 7117 15b7 F8       		.byte	0xf8
 7118 15b8 25000000 		.4byte	0x25
 7119 15bc 0C01     		.2byte	0x10c
 7120 15be 23       		.uleb128 0x23
 7121 15bf 2D270000 		.4byte	.LASF343
ARM GAS  /tmp/ccU5UnMV.s 			page 140


 7122 15c3 15       		.byte	0x15
 7123 15c4 F9       		.byte	0xf9
 7124 15c5 25000000 		.4byte	0x25
 7125 15c9 1001     		.2byte	0x110
 7126 15cb 23       		.uleb128 0x23
 7127 15cc 202C0000 		.4byte	.LASF344
 7128 15d0 15       		.byte	0x15
 7129 15d1 FA       		.byte	0xfa
 7130 15d2 84100000 		.4byte	0x1084
 7131 15d6 1401     		.2byte	0x114
 7132 15d8 23       		.uleb128 0x23
 7133 15d9 29330000 		.4byte	.LASF345
 7134 15dd 15       		.byte	0x15
 7135 15de FB       		.byte	0xfb
 7136 15df 7D180000 		.4byte	0x187d
 7137 15e3 1501     		.2byte	0x115
 7138 15e5 23       		.uleb128 0x23
 7139 15e6 A2170000 		.4byte	.LASF346
 7140 15ea 15       		.byte	0x15
 7141 15eb FC       		.byte	0xfc
 7142 15ec 25000000 		.4byte	0x25
 7143 15f0 2001     		.2byte	0x120
 7144 15f2 23       		.uleb128 0x23
 7145 15f3 03350000 		.4byte	.LASF347
 7146 15f7 15       		.byte	0x15
 7147 15f8 FD       		.byte	0xfd
 7148 15f9 66180000 		.4byte	0x1866
 7149 15fd 2401     		.2byte	0x124
 7150 15ff 23       		.uleb128 0x23
 7151 1600 702E0000 		.4byte	.LASF348
 7152 1604 15       		.byte	0x15
 7153 1605 FE       		.byte	0xfe
 7154 1606 66180000 		.4byte	0x1866
 7155 160a 2501     		.2byte	0x125
 7156 160c 23       		.uleb128 0x23
 7157 160d B32C0000 		.4byte	.LASF349
 7158 1611 15       		.byte	0x15
 7159 1612 FF       		.byte	0xff
 7160 1613 25000000 		.4byte	0x25
 7161 1617 2801     		.2byte	0x128
 7162 1619 1A       		.uleb128 0x1a
 7163 161a 4E230000 		.4byte	.LASF350
 7164 161e 15       		.byte	0x15
 7165 161f 0001     		.2byte	0x100
 7166 1621 66180000 		.4byte	0x1866
 7167 1625 2C01     		.2byte	0x12c
 7168 1627 1A       		.uleb128 0x1a
 7169 1628 1F290000 		.4byte	.LASF351
 7170 162c 15       		.byte	0x15
 7171 162d 0101     		.2byte	0x101
 7172 162f 25000000 		.4byte	0x25
 7173 1633 3001     		.2byte	0x130
 7174 1635 1A       		.uleb128 0x1a
 7175 1636 BB320000 		.4byte	.LASF352
 7176 163a 15       		.byte	0x15
 7177 163b 0201     		.2byte	0x102
 7178 163d 25000000 		.4byte	0x25
ARM GAS  /tmp/ccU5UnMV.s 			page 141


 7179 1641 3401     		.2byte	0x134
 7180 1643 1A       		.uleb128 0x1a
 7181 1644 94070000 		.4byte	.LASF353
 7182 1648 15       		.byte	0x15
 7183 1649 0401     		.2byte	0x104
 7184 164b 2C000000 		.4byte	0x2c
 7185 164f 3801     		.2byte	0x138
 7186 1651 1A       		.uleb128 0x1a
 7187 1652 C21A0000 		.4byte	.LASF354
 7188 1656 15       		.byte	0x15
 7189 1657 0501     		.2byte	0x105
 7190 1659 2C000000 		.4byte	0x2c
 7191 165d 3C01     		.2byte	0x13c
 7192 165f 1A       		.uleb128 0x1a
 7193 1660 66100000 		.4byte	.LASF355
 7194 1664 15       		.byte	0x15
 7195 1665 0601     		.2byte	0x106
 7196 1667 25000000 		.4byte	0x25
 7197 166b 4001     		.2byte	0x140
 7198 166d 1A       		.uleb128 0x1a
 7199 166e 030A0000 		.4byte	.LASF356
 7200 1672 15       		.byte	0x15
 7201 1673 0701     		.2byte	0x107
 7202 1675 25000000 		.4byte	0x25
 7203 1679 4401     		.2byte	0x144
 7204 167b 1A       		.uleb128 0x1a
 7205 167c 1B010000 		.4byte	.LASF357
 7206 1680 15       		.byte	0x15
 7207 1681 0801     		.2byte	0x108
 7208 1683 25000000 		.4byte	0x25
 7209 1687 4801     		.2byte	0x148
 7210 1689 1A       		.uleb128 0x1a
 7211 168a 73260000 		.4byte	.LASF358
 7212 168e 15       		.byte	0x15
 7213 168f 0A01     		.2byte	0x10a
 7214 1691 25000000 		.4byte	0x25
 7215 1695 4C01     		.2byte	0x14c
 7216 1697 1A       		.uleb128 0x1a
 7217 1698 48260000 		.4byte	.LASF359
 7218 169c 15       		.byte	0x15
 7219 169d 0B01     		.2byte	0x10b
 7220 169f 25000000 		.4byte	0x25
 7221 16a3 5001     		.2byte	0x150
 7222 16a5 1A       		.uleb128 0x1a
 7223 16a6 120A0000 		.4byte	.LASF360
 7224 16aa 15       		.byte	0x15
 7225 16ab 0C01     		.2byte	0x10c
 7226 16ad 25000000 		.4byte	0x25
 7227 16b1 5401     		.2byte	0x154
 7228 16b3 1A       		.uleb128 0x1a
 7229 16b4 11100000 		.4byte	.LASF361
 7230 16b8 15       		.byte	0x15
 7231 16b9 0D01     		.2byte	0x10d
 7232 16bb 25000000 		.4byte	0x25
 7233 16bf 5801     		.2byte	0x158
 7234 16c1 1A       		.uleb128 0x1a
 7235 16c2 780B0000 		.4byte	.LASF362
ARM GAS  /tmp/ccU5UnMV.s 			page 142


 7236 16c6 15       		.byte	0x15
 7237 16c7 0E01     		.2byte	0x10e
 7238 16c9 25000000 		.4byte	0x25
 7239 16cd 5C01     		.2byte	0x15c
 7240 16cf 1A       		.uleb128 0x1a
 7241 16d0 5D0E0000 		.4byte	.LASF363
 7242 16d4 15       		.byte	0x15
 7243 16d5 0F01     		.2byte	0x10f
 7244 16d7 66180000 		.4byte	0x1866
 7245 16db 6001     		.2byte	0x160
 7246 16dd 1A       		.uleb128 0x1a
 7247 16de AB220000 		.4byte	.LASF364
 7248 16e2 15       		.byte	0x15
 7249 16e3 1101     		.2byte	0x111
 7250 16e5 25000000 		.4byte	0x25
 7251 16e9 6401     		.2byte	0x164
 7252 16eb 1A       		.uleb128 0x1a
 7253 16ec 9A220000 		.4byte	.LASF365
 7254 16f0 15       		.byte	0x15
 7255 16f1 1201     		.2byte	0x112
 7256 16f3 25000000 		.4byte	0x25
 7257 16f7 6801     		.2byte	0x168
 7258 16f9 1A       		.uleb128 0x1a
 7259 16fa 91220000 		.4byte	.LASF366
 7260 16fe 15       		.byte	0x15
 7261 16ff 1301     		.2byte	0x113
 7262 1701 25000000 		.4byte	0x25
 7263 1705 6C01     		.2byte	0x16c
 7264 1707 1A       		.uleb128 0x1a
 7265 1708 992C0000 		.4byte	.LASF367
 7266 170c 15       		.byte	0x15
 7267 170d 1401     		.2byte	0x114
 7268 170f 25000000 		.4byte	0x25
 7269 1713 7001     		.2byte	0x170
 7270 1715 1A       		.uleb128 0x1a
 7271 1716 F2320000 		.4byte	.LASF368
 7272 171a 15       		.byte	0x15
 7273 171b 1501     		.2byte	0x115
 7274 171d 25000000 		.4byte	0x25
 7275 1721 7401     		.2byte	0x174
 7276 1723 1A       		.uleb128 0x1a
 7277 1724 17030000 		.4byte	.LASF369
 7278 1728 15       		.byte	0x15
 7279 1729 1701     		.2byte	0x117
 7280 172b 25000000 		.4byte	0x25
 7281 172f 7801     		.2byte	0x178
 7282 1731 1A       		.uleb128 0x1a
 7283 1732 BA110000 		.4byte	.LASF370
 7284 1736 15       		.byte	0x15
 7285 1737 1801     		.2byte	0x118
 7286 1739 25000000 		.4byte	0x25
 7287 173d 7C01     		.2byte	0x17c
 7288 173f 1A       		.uleb128 0x1a
 7289 1740 BE180000 		.4byte	.LASF371
 7290 1744 15       		.byte	0x15
 7291 1745 1901     		.2byte	0x119
 7292 1747 25000000 		.4byte	0x25
ARM GAS  /tmp/ccU5UnMV.s 			page 143


 7293 174b 8001     		.2byte	0x180
 7294 174d 1A       		.uleb128 0x1a
 7295 174e 6A220000 		.4byte	.LASF372
 7296 1752 15       		.byte	0x15
 7297 1753 1A01     		.2byte	0x11a
 7298 1755 25000000 		.4byte	0x25
 7299 1759 8401     		.2byte	0x184
 7300 175b 1A       		.uleb128 0x1a
 7301 175c 93090000 		.4byte	.LASF373
 7302 1760 15       		.byte	0x15
 7303 1761 1C01     		.2byte	0x11c
 7304 1763 F4000000 		.4byte	0xf4
 7305 1767 8801     		.2byte	0x188
 7306 1769 1A       		.uleb128 0x1a
 7307 176a 2B300000 		.4byte	.LASF374
 7308 176e 15       		.byte	0x15
 7309 176f 1D01     		.2byte	0x11d
 7310 1771 25000000 		.4byte	0x25
 7311 1775 8C01     		.2byte	0x18c
 7312 1777 1A       		.uleb128 0x1a
 7313 1778 7F160000 		.4byte	.LASF375
 7314 177c 15       		.byte	0x15
 7315 177d 1E01     		.2byte	0x11e
 7316 177f 25000000 		.4byte	0x25
 7317 1783 9001     		.2byte	0x190
 7318 1785 1A       		.uleb128 0x1a
 7319 1786 40360000 		.4byte	.LASF376
 7320 178a 15       		.byte	0x15
 7321 178b 1F01     		.2byte	0x11f
 7322 178d 04010000 		.4byte	0x104
 7323 1791 9401     		.2byte	0x194
 7324 1793 1A       		.uleb128 0x1a
 7325 1794 49160000 		.4byte	.LASF377
 7326 1798 15       		.byte	0x15
 7327 1799 2001     		.2byte	0x120
 7328 179b 90110000 		.4byte	0x1190
 7329 179f 9801     		.2byte	0x198
 7330 17a1 1A       		.uleb128 0x1a
 7331 17a2 A0160000 		.4byte	.LASF378
 7332 17a6 15       		.byte	0x15
 7333 17a7 2101     		.2byte	0x121
 7334 17a9 66180000 		.4byte	0x1866
 7335 17ad 9901     		.2byte	0x199
 7336 17af 1A       		.uleb128 0x1a
 7337 17b0 84110000 		.4byte	.LASF379
 7338 17b4 15       		.byte	0x15
 7339 17b5 2201     		.2byte	0x122
 7340 17b7 33120000 		.4byte	0x1233
 7341 17bb 9A01     		.2byte	0x19a
 7342 17bd 1A       		.uleb128 0x1a
 7343 17be D4010000 		.4byte	.LASF380
 7344 17c2 15       		.byte	0x15
 7345 17c3 2301     		.2byte	0x123
 7346 17c5 2C000000 		.4byte	0x2c
 7347 17c9 9C01     		.2byte	0x19c
 7348 17cb 1A       		.uleb128 0x1a
 7349 17cc 292A0000 		.4byte	.LASF381
ARM GAS  /tmp/ccU5UnMV.s 			page 144


 7350 17d0 15       		.byte	0x15
 7351 17d1 2401     		.2byte	0x124
 7352 17d3 25000000 		.4byte	0x25
 7353 17d7 A001     		.2byte	0x1a0
 7354 17d9 1A       		.uleb128 0x1a
 7355 17da 15230000 		.4byte	.LASF382
 7356 17de 15       		.byte	0x15
 7357 17df 2501     		.2byte	0x125
 7358 17e1 25000000 		.4byte	0x25
 7359 17e5 A401     		.2byte	0x1a4
 7360 17e7 1A       		.uleb128 0x1a
 7361 17e8 662E0000 		.4byte	.LASF383
 7362 17ec 15       		.byte	0x15
 7363 17ed 2601     		.2byte	0x126
 7364 17ef 25000000 		.4byte	0x25
 7365 17f3 A801     		.2byte	0x1a8
 7366 17f5 1A       		.uleb128 0x1a
 7367 17f6 AB070000 		.4byte	.LASF384
 7368 17fa 15       		.byte	0x15
 7369 17fb 2701     		.2byte	0x127
 7370 17fd 25000000 		.4byte	0x25
 7371 1801 AC01     		.2byte	0x1ac
 7372 1803 1A       		.uleb128 0x1a
 7373 1804 1E360000 		.4byte	.LASF385
 7374 1808 15       		.byte	0x15
 7375 1809 2801     		.2byte	0x128
 7376 180b B5100000 		.4byte	0x10b5
 7377 180f B001     		.2byte	0x1b0
 7378 1811 1A       		.uleb128 0x1a
 7379 1812 0A210000 		.4byte	.LASF386
 7380 1816 15       		.byte	0x15
 7381 1817 2A01     		.2byte	0x12a
 7382 1819 D4000000 		.4byte	0xd4
 7383 181d B101     		.2byte	0x1b1
 7384 181f 1A       		.uleb128 0x1a
 7385 1820 B6030000 		.4byte	.LASF387
 7386 1824 15       		.byte	0x15
 7387 1825 2B01     		.2byte	0x12b
 7388 1827 25000000 		.4byte	0x25
 7389 182b B401     		.2byte	0x1b4
 7390 182d 1A       		.uleb128 0x1a
 7391 182e 26110000 		.4byte	.LASF388
 7392 1832 15       		.byte	0x15
 7393 1833 2C01     		.2byte	0x12c
 7394 1835 25000000 		.4byte	0x25
 7395 1839 B801     		.2byte	0x1b8
 7396 183b 1A       		.uleb128 0x1a
 7397 183c FE250000 		.4byte	.LASF389
 7398 1840 15       		.byte	0x15
 7399 1841 2D01     		.2byte	0x12d
 7400 1843 5E120000 		.4byte	0x125e
 7401 1847 BC01     		.2byte	0x1bc
 7402 1849 1A       		.uleb128 0x1a
 7403 184a 6F240000 		.4byte	.LASF390
 7404 184e 15       		.byte	0x15
 7405 184f 2E01     		.2byte	0x12e
 7406 1851 2C000000 		.4byte	0x2c
ARM GAS  /tmp/ccU5UnMV.s 			page 145


 7407 1855 C001     		.2byte	0x1c0
 7408 1857 1A       		.uleb128 0x1a
 7409 1858 0A040000 		.4byte	.LASF391
 7410 185c 15       		.byte	0x15
 7411 185d 2F01     		.2byte	0x12f
 7412 185f 25000000 		.4byte	0x25
 7413 1863 C401     		.2byte	0x1c4
 7414 1865 00       		.byte	0
 7415 1866 02       		.uleb128 0x2
 7416 1867 01       		.byte	0x1
 7417 1868 02       		.byte	0x2
 7418 1869 65010000 		.4byte	.LASF392
 7419 186d 11       		.uleb128 0x11
 7420 186e C9000000 		.4byte	0xc9
 7421 1872 7D180000 		.4byte	0x187d
 7422 1876 12       		.uleb128 0x12
 7423 1877 48000000 		.4byte	0x48
 7424 187b 07       		.byte	0x7
 7425 187c 00       		.byte	0
 7426 187d 11       		.uleb128 0x11
 7427 187e D4000000 		.4byte	0xd4
 7428 1882 8D180000 		.4byte	0x188d
 7429 1886 12       		.uleb128 0x12
 7430 1887 48000000 		.4byte	0x48
 7431 188b 07       		.byte	0x7
 7432 188c 00       		.byte	0
 7433 188d 18       		.uleb128 0x18
 7434 188e 3C300000 		.4byte	.LASF393
 7435 1892 15       		.byte	0x15
 7436 1893 3001     		.2byte	0x130
 7437 1895 69120000 		.4byte	0x1269
 7438 1899 11       		.uleb128 0x11
 7439 189a 6C000000 		.4byte	0x6c
 7440 189e A9180000 		.4byte	0x18a9
 7441 18a2 12       		.uleb128 0x12
 7442 18a3 48000000 		.4byte	0x48
 7443 18a7 02       		.byte	0x2
 7444 18a8 00       		.byte	0
 7445 18a9 24       		.uleb128 0x24
 7446 18aa 07       		.byte	0x7
 7447 18ab 01       		.byte	0x1
 7448 18ac 6C000000 		.4byte	0x6c
 7449 18b0 15       		.byte	0x15
 7450 18b1 0B02     		.2byte	0x20b
 7451 18b3 621A0000 		.4byte	0x1a62
 7452 18b7 21       		.uleb128 0x21
 7453 18b8 DF230000 		.4byte	.LASF394
 7454 18bc 00       		.byte	0
 7455 18bd 21       		.uleb128 0x21
 7456 18be 49200000 		.4byte	.LASF395
 7457 18c2 01       		.byte	0x1
 7458 18c3 21       		.uleb128 0x21
 7459 18c4 50110000 		.4byte	.LASF396
 7460 18c8 02       		.byte	0x2
 7461 18c9 21       		.uleb128 0x21
 7462 18ca 38110000 		.4byte	.LASF397
 7463 18ce 03       		.byte	0x3
ARM GAS  /tmp/ccU5UnMV.s 			page 146


 7464 18cf 21       		.uleb128 0x21
 7465 18d0 E8250000 		.4byte	.LASF398
 7466 18d4 04       		.byte	0x4
 7467 18d5 21       		.uleb128 0x21
 7468 18d6 24140000 		.4byte	.LASF399
 7469 18da 05       		.byte	0x5
 7470 18db 21       		.uleb128 0x21
 7471 18dc 251B0000 		.4byte	.LASF400
 7472 18e0 06       		.byte	0x6
 7473 18e1 21       		.uleb128 0x21
 7474 18e2 3F2D0000 		.4byte	.LASF401
 7475 18e6 07       		.byte	0x7
 7476 18e7 21       		.uleb128 0x21
 7477 18e8 C12D0000 		.4byte	.LASF402
 7478 18ec 08       		.byte	0x8
 7479 18ed 21       		.uleb128 0x21
 7480 18ee DE210000 		.4byte	.LASF403
 7481 18f2 09       		.byte	0x9
 7482 18f3 21       		.uleb128 0x21
 7483 18f4 9F210000 		.4byte	.LASF404
 7484 18f8 0A       		.byte	0xa
 7485 18f9 21       		.uleb128 0x21
 7486 18fa 27200000 		.4byte	.LASF405
 7487 18fe 0B       		.byte	0xb
 7488 18ff 21       		.uleb128 0x21
 7489 1900 6D150000 		.4byte	.LASF406
 7490 1904 0C       		.byte	0xc
 7491 1905 21       		.uleb128 0x21
 7492 1906 6F2D0000 		.4byte	.LASF407
 7493 190a 0D       		.byte	0xd
 7494 190b 21       		.uleb128 0x21
 7495 190c 20150000 		.4byte	.LASF408
 7496 1910 0E       		.byte	0xe
 7497 1911 21       		.uleb128 0x21
 7498 1912 A8250000 		.4byte	.LASF409
 7499 1916 0F       		.byte	0xf
 7500 1917 21       		.uleb128 0x21
 7501 1918 882B0000 		.4byte	.LASF410
 7502 191c 10       		.byte	0x10
 7503 191d 21       		.uleb128 0x21
 7504 191e BB280000 		.4byte	.LASF411
 7505 1922 11       		.byte	0x11
 7506 1923 21       		.uleb128 0x21
 7507 1924 9A310000 		.4byte	.LASF412
 7508 1928 12       		.byte	0x12
 7509 1929 21       		.uleb128 0x21
 7510 192a 65090000 		.4byte	.LASF413
 7511 192e 13       		.byte	0x13
 7512 192f 21       		.uleb128 0x21
 7513 1930 D8300000 		.4byte	.LASF414
 7514 1934 14       		.byte	0x14
 7515 1935 21       		.uleb128 0x21
 7516 1936 7C260000 		.4byte	.LASF415
 7517 193a 15       		.byte	0x15
 7518 193b 21       		.uleb128 0x21
 7519 193c E02F0000 		.4byte	.LASF416
 7520 1940 16       		.byte	0x16
ARM GAS  /tmp/ccU5UnMV.s 			page 147


 7521 1941 21       		.uleb128 0x21
 7522 1942 1C170000 		.4byte	.LASF417
 7523 1946 17       		.byte	0x17
 7524 1947 21       		.uleb128 0x21
 7525 1948 D12B0000 		.4byte	.LASF418
 7526 194c 18       		.byte	0x18
 7527 194d 21       		.uleb128 0x21
 7528 194e 8C0C0000 		.4byte	.LASF419
 7529 1952 19       		.byte	0x19
 7530 1953 21       		.uleb128 0x21
 7531 1954 12130000 		.4byte	.LASF420
 7532 1958 1A       		.byte	0x1a
 7533 1959 21       		.uleb128 0x21
 7534 195a 8F250000 		.4byte	.LASF421
 7535 195e 1B       		.byte	0x1b
 7536 195f 21       		.uleb128 0x21
 7537 1960 D0000000 		.4byte	.LASF422
 7538 1964 1C       		.byte	0x1c
 7539 1965 21       		.uleb128 0x21
 7540 1966 9C350000 		.4byte	.LASF423
 7541 196a 1D       		.byte	0x1d
 7542 196b 21       		.uleb128 0x21
 7543 196c A20C0000 		.4byte	.LASF424
 7544 1970 1E       		.byte	0x1e
 7545 1971 21       		.uleb128 0x21
 7546 1972 AD150000 		.4byte	.LASF425
 7547 1976 1F       		.byte	0x1f
 7548 1977 21       		.uleb128 0x21
 7549 1978 732B0000 		.4byte	.LASF426
 7550 197c 20       		.byte	0x20
 7551 197d 21       		.uleb128 0x21
 7552 197e 6C210000 		.4byte	.LASF427
 7553 1982 21       		.byte	0x21
 7554 1983 21       		.uleb128 0x21
 7555 1984 D1160000 		.4byte	.LASF428
 7556 1988 22       		.byte	0x22
 7557 1989 21       		.uleb128 0x21
 7558 198a 27280000 		.4byte	.LASF429
 7559 198e 23       		.byte	0x23
 7560 198f 21       		.uleb128 0x21
 7561 1990 CB2F0000 		.4byte	.LASF430
 7562 1994 24       		.byte	0x24
 7563 1995 21       		.uleb128 0x21
 7564 1996 E42D0000 		.4byte	.LASF431
 7565 199a 25       		.byte	0x25
 7566 199b 21       		.uleb128 0x21
 7567 199c 3C130000 		.4byte	.LASF432
 7568 19a0 26       		.byte	0x26
 7569 19a1 21       		.uleb128 0x21
 7570 19a2 C0250000 		.4byte	.LASF433
 7571 19a6 27       		.byte	0x27
 7572 19a7 21       		.uleb128 0x21
 7573 19a8 031F0000 		.4byte	.LASF434
 7574 19ac 28       		.byte	0x28
 7575 19ad 21       		.uleb128 0x21
 7576 19ae 632A0000 		.4byte	.LASF435
 7577 19b2 29       		.byte	0x29
ARM GAS  /tmp/ccU5UnMV.s 			page 148


 7578 19b3 21       		.uleb128 0x21
 7579 19b4 F6260000 		.4byte	.LASF436
 7580 19b8 2A       		.byte	0x2a
 7581 19b9 21       		.uleb128 0x21
 7582 19ba D5330000 		.4byte	.LASF437
 7583 19be 2B       		.byte	0x2b
 7584 19bf 21       		.uleb128 0x21
 7585 19c0 AB2F0000 		.4byte	.LASF438
 7586 19c4 2C       		.byte	0x2c
 7587 19c5 21       		.uleb128 0x21
 7588 19c6 EA1B0000 		.4byte	.LASF439
 7589 19ca 2D       		.byte	0x2d
 7590 19cb 21       		.uleb128 0x21
 7591 19cc A2100000 		.4byte	.LASF440
 7592 19d0 2E       		.byte	0x2e
 7593 19d1 21       		.uleb128 0x21
 7594 19d2 75080000 		.4byte	.LASF441
 7595 19d6 2F       		.byte	0x2f
 7596 19d7 21       		.uleb128 0x21
 7597 19d8 09050000 		.4byte	.LASF442
 7598 19dc 30       		.byte	0x30
 7599 19dd 21       		.uleb128 0x21
 7600 19de 55170000 		.4byte	.LASF443
 7601 19e2 31       		.byte	0x31
 7602 19e3 21       		.uleb128 0x21
 7603 19e4 16320000 		.4byte	.LASF444
 7604 19e8 32       		.byte	0x32
 7605 19e9 21       		.uleb128 0x21
 7606 19ea A6200000 		.4byte	.LASF445
 7607 19ee 33       		.byte	0x33
 7608 19ef 21       		.uleb128 0x21
 7609 19f0 A5020000 		.4byte	.LASF446
 7610 19f4 34       		.byte	0x34
 7611 19f5 21       		.uleb128 0x21
 7612 19f6 FB130000 		.4byte	.LASF447
 7613 19fa 35       		.byte	0x35
 7614 19fb 21       		.uleb128 0x21
 7615 19fc 53000000 		.4byte	.LASF448
 7616 1a00 36       		.byte	0x36
 7617 1a01 21       		.uleb128 0x21
 7618 1a02 3E2B0000 		.4byte	.LASF449
 7619 1a06 37       		.byte	0x37
 7620 1a07 21       		.uleb128 0x21
 7621 1a08 102A0000 		.4byte	.LASF450
 7622 1a0c 38       		.byte	0x38
 7623 1a0d 21       		.uleb128 0x21
 7624 1a0e ED010000 		.4byte	.LASF451
 7625 1a12 39       		.byte	0x39
 7626 1a13 21       		.uleb128 0x21
 7627 1a14 69300000 		.4byte	.LASF452
 7628 1a18 3A       		.byte	0x3a
 7629 1a19 21       		.uleb128 0x21
 7630 1a1a C8120000 		.4byte	.LASF453
 7631 1a1e 3B       		.byte	0x3b
 7632 1a1f 21       		.uleb128 0x21
 7633 1a20 58020000 		.4byte	.LASF454
 7634 1a24 3C       		.byte	0x3c
ARM GAS  /tmp/ccU5UnMV.s 			page 149


 7635 1a25 21       		.uleb128 0x21
 7636 1a26 870D0000 		.4byte	.LASF455
 7637 1a2a 3D       		.byte	0x3d
 7638 1a2b 21       		.uleb128 0x21
 7639 1a2c 37150000 		.4byte	.LASF456
 7640 1a30 3E       		.byte	0x3e
 7641 1a31 21       		.uleb128 0x21
 7642 1a32 4F240000 		.4byte	.LASF457
 7643 1a36 3F       		.byte	0x3f
 7644 1a37 21       		.uleb128 0x21
 7645 1a38 ED200000 		.4byte	.LASF458
 7646 1a3c 40       		.byte	0x40
 7647 1a3d 21       		.uleb128 0x21
 7648 1a3e 53010000 		.4byte	.LASF459
 7649 1a42 41       		.byte	0x41
 7650 1a43 21       		.uleb128 0x21
 7651 1a44 C32A0000 		.4byte	.LASF460
 7652 1a48 42       		.byte	0x42
 7653 1a49 21       		.uleb128 0x21
 7654 1a4a DB340000 		.4byte	.LASF461
 7655 1a4e 43       		.byte	0x43
 7656 1a4f 21       		.uleb128 0x21
 7657 1a50 59180000 		.4byte	.LASF462
 7658 1a54 44       		.byte	0x44
 7659 1a55 21       		.uleb128 0x21
 7660 1a56 82220000 		.4byte	.LASF463
 7661 1a5a 45       		.byte	0x45
 7662 1a5b 21       		.uleb128 0x21
 7663 1a5c 260E0000 		.4byte	.LASF464
 7664 1a60 46       		.byte	0x46
 7665 1a61 00       		.byte	0
 7666 1a62 17       		.uleb128 0x17
 7667 1a63 3C       		.byte	0x3c
 7668 1a64 15       		.byte	0x15
 7669 1a65 7502     		.2byte	0x275
 7670 1a67 2F1B0000 		.4byte	0x1b2f
 7671 1a6b 0A       		.uleb128 0xa
 7672 1a6c A9240000 		.4byte	.LASF465
 7673 1a70 15       		.byte	0x15
 7674 1a71 7602     		.2byte	0x276
 7675 1a73 59110000 		.4byte	0x1159
 7676 1a77 00       		.byte	0
 7677 1a78 0A       		.uleb128 0xa
 7678 1a79 451D0000 		.4byte	.LASF466
 7679 1a7d 15       		.byte	0x15
 7680 1a7e 7702     		.2byte	0x277
 7681 1a80 25000000 		.4byte	0x25
 7682 1a84 04       		.byte	0x4
 7683 1a85 0A       		.uleb128 0xa
 7684 1a86 FD2E0000 		.4byte	.LASF467
 7685 1a8a 15       		.byte	0x15
 7686 1a8b 7802     		.2byte	0x278
 7687 1a8d 25000000 		.4byte	0x25
 7688 1a91 08       		.byte	0x8
 7689 1a92 0A       		.uleb128 0xa
 7690 1a93 AC2B0000 		.4byte	.LASF468
 7691 1a97 15       		.byte	0x15
ARM GAS  /tmp/ccU5UnMV.s 			page 150


 7692 1a98 7902     		.2byte	0x279
 7693 1a9a 25000000 		.4byte	0x25
 7694 1a9e 0C       		.byte	0xc
 7695 1a9f 0A       		.uleb128 0xa
 7696 1aa0 6F040000 		.4byte	.LASF469
 7697 1aa4 15       		.byte	0x15
 7698 1aa5 7A02     		.2byte	0x27a
 7699 1aa7 25000000 		.4byte	0x25
 7700 1aab 10       		.byte	0x10
 7701 1aac 0A       		.uleb128 0xa
 7702 1aad 33260000 		.4byte	.LASF470
 7703 1ab1 15       		.byte	0x15
 7704 1ab2 7B02     		.2byte	0x27b
 7705 1ab4 25000000 		.4byte	0x25
 7706 1ab8 14       		.byte	0x14
 7707 1ab9 09       		.uleb128 0x9
 7708 1aba 72706D00 		.ascii	"rpm\000"
 7709 1abe 15       		.byte	0x15
 7710 1abf 7C02     		.2byte	0x27c
 7711 1ac1 25000000 		.4byte	0x25
 7712 1ac5 18       		.byte	0x18
 7713 1ac6 0A       		.uleb128 0xa
 7714 1ac7 3B250000 		.4byte	.LASF471
 7715 1acb 15       		.byte	0x15
 7716 1acc 7D02     		.2byte	0x27d
 7717 1ace 2C000000 		.4byte	0x2c
 7718 1ad2 1C       		.byte	0x1c
 7719 1ad3 0A       		.uleb128 0xa
 7720 1ad4 1B1C0000 		.4byte	.LASF472
 7721 1ad8 15       		.byte	0x15
 7722 1ad9 7E02     		.2byte	0x27e
 7723 1adb 2C000000 		.4byte	0x2c
 7724 1adf 20       		.byte	0x20
 7725 1ae0 0A       		.uleb128 0xa
 7726 1ae1 7F100000 		.4byte	.LASF473
 7727 1ae5 15       		.byte	0x15
 7728 1ae6 7F02     		.2byte	0x27f
 7729 1ae8 2C000000 		.4byte	0x2c
 7730 1aec 24       		.byte	0x24
 7731 1aed 0A       		.uleb128 0xa
 7732 1aee AA2E0000 		.4byte	.LASF474
 7733 1af2 15       		.byte	0x15
 7734 1af3 8002     		.2byte	0x280
 7735 1af5 2C000000 		.4byte	0x2c
 7736 1af9 28       		.byte	0x28
 7737 1afa 0A       		.uleb128 0xa
 7738 1afb B9290000 		.4byte	.LASF475
 7739 1aff 15       		.byte	0x15
 7740 1b00 8102     		.2byte	0x281
 7741 1b02 2C000000 		.4byte	0x2c
 7742 1b06 2C       		.byte	0x2c
 7743 1b07 0A       		.uleb128 0xa
 7744 1b08 EC220000 		.4byte	.LASF476
 7745 1b0c 15       		.byte	0x15
 7746 1b0d 8202     		.2byte	0x282
 7747 1b0f 2C000000 		.4byte	0x2c
 7748 1b13 30       		.byte	0x30
ARM GAS  /tmp/ccU5UnMV.s 			page 151


 7749 1b14 0A       		.uleb128 0xa
 7750 1b15 2B2D0000 		.4byte	.LASF477
 7751 1b19 15       		.byte	0x15
 7752 1b1a 8302     		.2byte	0x283
 7753 1b1c 25000000 		.4byte	0x25
 7754 1b20 34       		.byte	0x34
 7755 1b21 0A       		.uleb128 0xa
 7756 1b22 981E0000 		.4byte	.LASF478
 7757 1b26 15       		.byte	0x15
 7758 1b27 8402     		.2byte	0x284
 7759 1b29 2C000000 		.4byte	0x2c
 7760 1b2d 38       		.byte	0x38
 7761 1b2e 00       		.byte	0
 7762 1b2f 18       		.uleb128 0x18
 7763 1b30 62350000 		.4byte	.LASF479
 7764 1b34 15       		.byte	0x15
 7765 1b35 8502     		.2byte	0x285
 7766 1b37 621A0000 		.4byte	0x1a62
 7767 1b3b 04       		.uleb128 0x4
 7768 1b3c 2F1B0000 		.4byte	0x1b2f
 7769 1b40 17       		.uleb128 0x17
 7770 1b41 14       		.byte	0x14
 7771 1b42 15       		.byte	0x15
 7772 1b43 9F02     		.2byte	0x29f
 7773 1b45 8A1B0000 		.4byte	0x1b8a
 7774 1b49 09       		.uleb128 0x9
 7775 1b4a 696400   		.ascii	"id\000"
 7776 1b4d 15       		.byte	0x15
 7777 1b4e A002     		.2byte	0x2a0
 7778 1b50 2C000000 		.4byte	0x2c
 7779 1b54 00       		.byte	0
 7780 1b55 0A       		.uleb128 0xa
 7781 1b56 C8330000 		.4byte	.LASF480
 7782 1b5a 15       		.byte	0x15
 7783 1b5b A102     		.2byte	0x2a1
 7784 1b5d 8D010000 		.4byte	0x18d
 7785 1b61 04       		.byte	0x4
 7786 1b62 09       		.uleb128 0x9
 7787 1b63 72706D00 		.ascii	"rpm\000"
 7788 1b67 15       		.byte	0x15
 7789 1b68 A202     		.2byte	0x2a2
 7790 1b6a 25000000 		.4byte	0x25
 7791 1b6e 08       		.byte	0x8
 7792 1b6f 0A       		.uleb128 0xa
 7793 1b70 451D0000 		.4byte	.LASF466
 7794 1b74 15       		.byte	0x15
 7795 1b75 A302     		.2byte	0x2a3
 7796 1b77 25000000 		.4byte	0x25
 7797 1b7b 0C       		.byte	0xc
 7798 1b7c 0A       		.uleb128 0xa
 7799 1b7d 33260000 		.4byte	.LASF470
 7800 1b81 15       		.byte	0x15
 7801 1b82 A402     		.2byte	0x2a4
 7802 1b84 25000000 		.4byte	0x25
 7803 1b88 10       		.byte	0x10
 7804 1b89 00       		.byte	0
 7805 1b8a 18       		.uleb128 0x18
ARM GAS  /tmp/ccU5UnMV.s 			page 152


 7806 1b8b 46080000 		.4byte	.LASF481
 7807 1b8f 15       		.byte	0x15
 7808 1b90 A502     		.2byte	0x2a5
 7809 1b92 401B0000 		.4byte	0x1b40
 7810 1b96 14       		.uleb128 0x14
 7811 1b97 4B210000 		.4byte	.LASF482
 7812 1b9b 16       		.byte	0x16
 7813 1b9c E7       		.byte	0xe7
 7814 1b9d 66180000 		.4byte	0x1866
 7815 1ba1 15       		.uleb128 0x15
 7816 1ba2 0C       		.byte	0xc
 7817 1ba3 17       		.byte	0x17
 7818 1ba4 DA       		.byte	0xda
 7819 1ba5 E61B0000 		.4byte	0x1be6
 7820 1ba9 08       		.uleb128 0x8
 7821 1baa A1340000 		.4byte	.LASF483
 7822 1bae 17       		.byte	0x17
 7823 1baf DB       		.byte	0xdb
 7824 1bb0 E61B0000 		.4byte	0x1be6
 7825 1bb4 00       		.byte	0
 7826 1bb5 08       		.uleb128 0x8
 7827 1bb6 B3160000 		.4byte	.LASF484
 7828 1bba 17       		.byte	0x17
 7829 1bbb DC       		.byte	0xdc
 7830 1bbc EC1B0000 		.4byte	0x1bec
 7831 1bc0 04       		.byte	0x4
 7832 1bc1 08       		.uleb128 0x8
 7833 1bc2 A0050000 		.4byte	.LASF485
 7834 1bc6 17       		.byte	0x17
 7835 1bc7 DD       		.byte	0xdd
 7836 1bc8 D4000000 		.4byte	0xd4
 7837 1bcc 08       		.byte	0x8
 7838 1bcd 08       		.uleb128 0x8
 7839 1bce 492A0000 		.4byte	.LASF486
 7840 1bd2 17       		.byte	0x17
 7841 1bd3 DF       		.byte	0xdf
 7842 1bd4 D4000000 		.4byte	0xd4
 7843 1bd8 09       		.byte	0x9
 7844 1bd9 08       		.uleb128 0x8
 7845 1bda 68040000 		.4byte	.LASF487
 7846 1bde 17       		.byte	0x17
 7847 1bdf E0       		.byte	0xe0
 7848 1be0 D4000000 		.4byte	0xd4
 7849 1be4 0A       		.byte	0xa
 7850 1be5 00       		.byte	0
 7851 1be6 0B       		.uleb128 0xb
 7852 1be7 04       		.byte	0x4
 7853 1be8 93070000 		.4byte	0x793
 7854 1bec 0B       		.uleb128 0xb
 7855 1bed 04       		.byte	0x4
 7856 1bee 0F010000 		.4byte	0x10f
 7857 1bf2 05       		.uleb128 0x5
 7858 1bf3 DD050000 		.4byte	.LASF488
 7859 1bf7 17       		.byte	0x17
 7860 1bf8 E1       		.byte	0xe1
 7861 1bf9 A11B0000 		.4byte	0x1ba1
 7862 1bfd 06       		.uleb128 0x6
ARM GAS  /tmp/ccU5UnMV.s 			page 153


 7863 1bfe F21B0000 		.4byte	0x1bf2
 7864 1c02 11       		.uleb128 0x11
 7865 1c03 FD1B0000 		.4byte	0x1bfd
 7866 1c07 121C0000 		.4byte	0x1c12
 7867 1c0b 12       		.uleb128 0x12
 7868 1c0c 48000000 		.4byte	0x48
 7869 1c10 0F       		.byte	0xf
 7870 1c11 00       		.byte	0
 7871 1c12 06       		.uleb128 0x6
 7872 1c13 021C0000 		.4byte	0x1c02
 7873 1c17 13       		.uleb128 0x13
 7874 1c18 14250000 		.4byte	.LASF489
 7875 1c1c 17       		.byte	0x17
 7876 1c1d BB01     		.2byte	0x1bb
 7877 1c1f 121C0000 		.4byte	0x1c12
 7878 1c23 1F       		.uleb128 0x1f
 7879 1c24 61010000 		.4byte	0x161
 7880 1c28 3C1C0000 		.4byte	0x1c3c
 7881 1c2c 0E       		.uleb128 0xe
 7882 1c2d 95030000 		.4byte	0x395
 7883 1c31 0E       		.uleb128 0xe
 7884 1c32 D4000000 		.4byte	0xd4
 7885 1c36 0E       		.uleb128 0xe
 7886 1c37 8D010000 		.4byte	0x18d
 7887 1c3b 00       		.byte	0
 7888 1c3c 0B       		.uleb128 0xb
 7889 1c3d 04       		.byte	0x4
 7890 1c3e 231C0000 		.4byte	0x1c23
 7891 1c42 1F       		.uleb128 0x1f
 7892 1c43 61010000 		.4byte	0x161
 7893 1c47 561C0000 		.4byte	0x1c56
 7894 1c4b 0E       		.uleb128 0xe
 7895 1c4c 95030000 		.4byte	0x395
 7896 1c50 0E       		.uleb128 0xe
 7897 1c51 8D010000 		.4byte	0x18d
 7898 1c55 00       		.byte	0
 7899 1c56 0B       		.uleb128 0xb
 7900 1c57 04       		.byte	0x4
 7901 1c58 421C0000 		.4byte	0x1c42
 7902 1c5c 1F       		.uleb128 0x1f
 7903 1c5d 38000000 		.4byte	0x38
 7904 1c61 7A1C0000 		.4byte	0x1c7a
 7905 1c65 0E       		.uleb128 0xe
 7906 1c66 95030000 		.4byte	0x395
 7907 1c6a 0E       		.uleb128 0xe
 7908 1c6b 8F0F0000 		.4byte	0xf8f
 7909 1c6f 0E       		.uleb128 0xe
 7910 1c70 38000000 		.4byte	0x38
 7911 1c74 0E       		.uleb128 0xe
 7912 1c75 8D010000 		.4byte	0x18d
 7913 1c79 00       		.byte	0
 7914 1c7a 0B       		.uleb128 0xb
 7915 1c7b 04       		.byte	0x4
 7916 1c7c 5C1C0000 		.4byte	0x1c5c
 7917 1c80 1F       		.uleb128 0x1f
 7918 1c81 38000000 		.4byte	0x38
 7919 1c85 9E1C0000 		.4byte	0x1c9e
ARM GAS  /tmp/ccU5UnMV.s 			page 154


 7920 1c89 0E       		.uleb128 0xe
 7921 1c8a 95030000 		.4byte	0x395
 7922 1c8e 0E       		.uleb128 0xe
 7923 1c8f 5A0F0000 		.4byte	0xf5a
 7924 1c93 0E       		.uleb128 0xe
 7925 1c94 38000000 		.4byte	0x38
 7926 1c98 0E       		.uleb128 0xe
 7927 1c99 8D010000 		.4byte	0x18d
 7928 1c9d 00       		.byte	0
 7929 1c9e 0B       		.uleb128 0xb
 7930 1c9f 04       		.byte	0x4
 7931 1ca0 801C0000 		.4byte	0x1c80
 7932 1ca4 15       		.uleb128 0x15
 7933 1ca5 04       		.byte	0x4
 7934 1ca6 18       		.byte	0x18
 7935 1ca7 B3       		.byte	0xb3
 7936 1ca8 C51C0000 		.4byte	0x1cc5
 7937 1cac 16       		.uleb128 0x16
 7938 1cad 73657400 		.ascii	"set\000"
 7939 1cb1 18       		.byte	0x18
 7940 1cb2 B4       		.byte	0xb4
 7941 1cb3 E4000000 		.4byte	0xe4
 7942 1cb7 00       		.byte	0
 7943 1cb8 08       		.uleb128 0x8
 7944 1cb9 20120000 		.4byte	.LASF490
 7945 1cbd 18       		.byte	0x18
 7946 1cbe B5       		.byte	0xb5
 7947 1cbf E4000000 		.4byte	0xe4
 7948 1cc3 02       		.byte	0x2
 7949 1cc4 00       		.byte	0
 7950 1cc5 1C       		.uleb128 0x1c
 7951 1cc6 04       		.byte	0x4
 7952 1cc7 18       		.byte	0x18
 7953 1cc8 B1       		.byte	0xb1
 7954 1cc9 E01C0000 		.4byte	0x1ce0
 7955 1ccd 25       		.uleb128 0x25
 7956 1cce 5700     		.ascii	"W\000"
 7957 1cd0 18       		.byte	0x18
 7958 1cd1 B2       		.byte	0xb2
 7959 1cd2 04010000 		.4byte	0x104
 7960 1cd6 25       		.uleb128 0x25
 7961 1cd7 4800     		.ascii	"H\000"
 7962 1cd9 18       		.byte	0x18
 7963 1cda B6       		.byte	0xb6
 7964 1cdb A41C0000 		.4byte	0x1ca4
 7965 1cdf 00       		.byte	0
 7966 1ce0 04       		.uleb128 0x4
 7967 1ce1 C51C0000 		.4byte	0x1cc5
 7968 1ce5 15       		.uleb128 0x15
 7969 1ce6 2C       		.byte	0x2c
 7970 1ce7 18       		.byte	0x18
 7971 1ce8 A9       		.byte	0xa9
 7972 1ce9 721D0000 		.4byte	0x1d72
 7973 1ced 08       		.uleb128 0x8
 7974 1cee AD2A0000 		.4byte	.LASF491
 7975 1cf2 18       		.byte	0x18
 7976 1cf3 AB       		.byte	0xab
ARM GAS  /tmp/ccU5UnMV.s 			page 155


 7977 1cf4 0F010000 		.4byte	0x10f
 7978 1cf8 00       		.byte	0
 7979 1cf9 08       		.uleb128 0x8
 7980 1cfa F1030000 		.4byte	.LASF492
 7981 1cfe 18       		.byte	0x18
 7982 1cff AC       		.byte	0xac
 7983 1d00 0F010000 		.4byte	0x10f
 7984 1d04 04       		.byte	0x4
 7985 1d05 08       		.uleb128 0x8
 7986 1d06 32140000 		.4byte	.LASF493
 7987 1d0a 18       		.byte	0x18
 7988 1d0b AD       		.byte	0xad
 7989 1d0c 0F010000 		.4byte	0x10f
 7990 1d10 08       		.byte	0x8
 7991 1d11 08       		.uleb128 0x8
 7992 1d12 88290000 		.4byte	.LASF494
 7993 1d16 18       		.byte	0x18
 7994 1d17 AE       		.byte	0xae
 7995 1d18 0F010000 		.4byte	0x10f
 7996 1d1c 0C       		.byte	0xc
 7997 1d1d 16       		.uleb128 0x16
 7998 1d1e 49445200 		.ascii	"IDR\000"
 7999 1d22 18       		.byte	0x18
 8000 1d23 AF       		.byte	0xaf
 8001 1d24 0F010000 		.4byte	0x10f
 8002 1d28 10       		.byte	0x10
 8003 1d29 16       		.uleb128 0x16
 8004 1d2a 4F445200 		.ascii	"ODR\000"
 8005 1d2e 18       		.byte	0x18
 8006 1d2f B0       		.byte	0xb0
 8007 1d30 0F010000 		.4byte	0x10f
 8008 1d34 14       		.byte	0x14
 8009 1d35 08       		.uleb128 0x8
 8010 1d36 C6190000 		.4byte	.LASF495
 8011 1d3a 18       		.byte	0x18
 8012 1d3b B7       		.byte	0xb7
 8013 1d3c E01C0000 		.4byte	0x1ce0
 8014 1d40 18       		.byte	0x18
 8015 1d41 08       		.uleb128 0x8
 8016 1d42 21210000 		.4byte	.LASF496
 8017 1d46 18       		.byte	0x18
 8018 1d47 B8       		.byte	0xb8
 8019 1d48 0F010000 		.4byte	0x10f
 8020 1d4c 1C       		.byte	0x1c
 8021 1d4d 08       		.uleb128 0x8
 8022 1d4e 87260000 		.4byte	.LASF497
 8023 1d52 18       		.byte	0x18
 8024 1d53 B9       		.byte	0xb9
 8025 1d54 0F010000 		.4byte	0x10f
 8026 1d58 20       		.byte	0x20
 8027 1d59 08       		.uleb128 0x8
 8028 1d5a A3250000 		.4byte	.LASF498
 8029 1d5e 18       		.byte	0x18
 8030 1d5f BA       		.byte	0xba
 8031 1d60 0F010000 		.4byte	0x10f
 8032 1d64 24       		.byte	0x24
 8033 1d65 16       		.uleb128 0x16
ARM GAS  /tmp/ccU5UnMV.s 			page 156


 8034 1d66 42525200 		.ascii	"BRR\000"
 8035 1d6a 18       		.byte	0x18
 8036 1d6b BB       		.byte	0xbb
 8037 1d6c 0F010000 		.4byte	0x10f
 8038 1d70 28       		.byte	0x28
 8039 1d71 00       		.byte	0
 8040 1d72 05       		.uleb128 0x5
 8041 1d73 C4160000 		.4byte	.LASF499
 8042 1d77 18       		.byte	0x18
 8043 1d78 BC       		.byte	0xbc
 8044 1d79 E51C0000 		.4byte	0x1ce5
 8045 1d7d 15       		.uleb128 0x15
 8046 1d7e 1C       		.byte	0x1c
 8047 1d7f 18       		.byte	0x18
 8048 1d80 C1       		.byte	0xc1
 8049 1d81 DA1D0000 		.4byte	0x1dda
 8050 1d85 08       		.uleb128 0x8
 8051 1d86 C52F0000 		.4byte	.LASF500
 8052 1d8a 18       		.byte	0x18
 8053 1d8b C3       		.byte	0xc3
 8054 1d8c 04010000 		.4byte	0x104
 8055 1d90 00       		.byte	0
 8056 1d91 08       		.uleb128 0x8
 8057 1d92 DB030000 		.4byte	.LASF501
 8058 1d96 18       		.byte	0x18
 8059 1d97 C5       		.byte	0xc5
 8060 1d98 04010000 		.4byte	0x104
 8061 1d9c 04       		.byte	0x4
 8062 1d9d 08       		.uleb128 0x8
 8063 1d9e FF020000 		.4byte	.LASF502
 8064 1da2 18       		.byte	0x18
 8065 1da3 C7       		.byte	0xc7
 8066 1da4 04010000 		.4byte	0x104
 8067 1da8 08       		.byte	0x8
 8068 1da9 08       		.uleb128 0x8
 8069 1daa 602E0000 		.4byte	.LASF503
 8070 1dae 18       		.byte	0x18
 8071 1daf C9       		.byte	0xc9
 8072 1db0 04010000 		.4byte	0x104
 8073 1db4 0C       		.byte	0xc
 8074 1db5 16       		.uleb128 0x16
 8075 1db6 6F647200 		.ascii	"odr\000"
 8076 1dba 18       		.byte	0x18
 8077 1dbb CB       		.byte	0xcb
 8078 1dbc 04010000 		.4byte	0x104
 8079 1dc0 10       		.byte	0x10
 8080 1dc1 08       		.uleb128 0x8
 8081 1dc2 052A0000 		.4byte	.LASF504
 8082 1dc6 18       		.byte	0x18
 8083 1dc7 CD       		.byte	0xcd
 8084 1dc8 04010000 		.4byte	0x104
 8085 1dcc 14       		.byte	0x14
 8086 1dcd 08       		.uleb128 0x8
 8087 1dce F7290000 		.4byte	.LASF505
 8088 1dd2 18       		.byte	0x18
 8089 1dd3 CF       		.byte	0xcf
 8090 1dd4 04010000 		.4byte	0x104
ARM GAS  /tmp/ccU5UnMV.s 			page 157


 8091 1dd8 18       		.byte	0x18
 8092 1dd9 00       		.byte	0
 8093 1dda 05       		.uleb128 0x5
 8094 1ddb C6240000 		.4byte	.LASF506
 8095 1ddf 18       		.byte	0x18
 8096 1de0 D0       		.byte	0xd0
 8097 1de1 7D1D0000 		.4byte	0x1d7d
 8098 1de5 15       		.uleb128 0x15
 8099 1de6 FC       		.byte	0xfc
 8100 1de7 18       		.byte	0x18
 8101 1de8 D9       		.byte	0xd9
 8102 1de9 5A1E0000 		.4byte	0x1e5a
 8103 1ded 08       		.uleb128 0x8
 8104 1dee 79170000 		.4byte	.LASF507
 8105 1df2 18       		.byte	0x18
 8106 1df3 DC       		.byte	0xdc
 8107 1df4 DA1D0000 		.4byte	0x1dda
 8108 1df8 00       		.byte	0
 8109 1df9 08       		.uleb128 0x8
 8110 1dfa C4030000 		.4byte	.LASF508
 8111 1dfe 18       		.byte	0x18
 8112 1dff E0       		.byte	0xe0
 8113 1e00 DA1D0000 		.4byte	0x1dda
 8114 1e04 1C       		.byte	0x1c
 8115 1e05 08       		.uleb128 0x8
 8116 1e06 34020000 		.4byte	.LASF509
 8117 1e0a 18       		.byte	0x18
 8118 1e0b E4       		.byte	0xe4
 8119 1e0c DA1D0000 		.4byte	0x1dda
 8120 1e10 38       		.byte	0x38
 8121 1e11 08       		.uleb128 0x8
 8122 1e12 9E130000 		.4byte	.LASF510
 8123 1e16 18       		.byte	0x18
 8124 1e17 E8       		.byte	0xe8
 8125 1e18 DA1D0000 		.4byte	0x1dda
 8126 1e1c 54       		.byte	0x54
 8127 1e1d 08       		.uleb128 0x8
 8128 1e1e 8A230000 		.4byte	.LASF511
 8129 1e22 18       		.byte	0x18
 8130 1e23 EC       		.byte	0xec
 8131 1e24 DA1D0000 		.4byte	0x1dda
 8132 1e28 70       		.byte	0x70
 8133 1e29 08       		.uleb128 0x8
 8134 1e2a BB350000 		.4byte	.LASF512
 8135 1e2e 18       		.byte	0x18
 8136 1e2f F0       		.byte	0xf0
 8137 1e30 DA1D0000 		.4byte	0x1dda
 8138 1e34 8C       		.byte	0x8c
 8139 1e35 08       		.uleb128 0x8
 8140 1e36 710E0000 		.4byte	.LASF513
 8141 1e3a 18       		.byte	0x18
 8142 1e3b F4       		.byte	0xf4
 8143 1e3c DA1D0000 		.4byte	0x1dda
 8144 1e40 A8       		.byte	0xa8
 8145 1e41 08       		.uleb128 0x8
 8146 1e42 37200000 		.4byte	.LASF514
 8147 1e46 18       		.byte	0x18
ARM GAS  /tmp/ccU5UnMV.s 			page 158


 8148 1e47 F8       		.byte	0xf8
 8149 1e48 DA1D0000 		.4byte	0x1dda
 8150 1e4c C4       		.byte	0xc4
 8151 1e4d 08       		.uleb128 0x8
 8152 1e4e A3320000 		.4byte	.LASF515
 8153 1e52 18       		.byte	0x18
 8154 1e53 FC       		.byte	0xfc
 8155 1e54 DA1D0000 		.4byte	0x1dda
 8156 1e58 E0       		.byte	0xe0
 8157 1e59 00       		.byte	0
 8158 1e5a 05       		.uleb128 0x5
 8159 1e5b 6A0D0000 		.4byte	.LASF516
 8160 1e5f 18       		.byte	0x18
 8161 1e60 FE       		.byte	0xfe
 8162 1e61 E51D0000 		.4byte	0x1de5
 8163 1e65 06       		.uleb128 0x6
 8164 1e66 5A1E0000 		.4byte	0x1e5a
 8165 1e6a 18       		.uleb128 0x18
 8166 1e6b 3E200000 		.4byte	.LASF517
 8167 1e6f 18       		.byte	0x18
 8168 1e70 1B01     		.2byte	0x11b
 8169 1e72 761E0000 		.4byte	0x1e76
 8170 1e76 0B       		.uleb128 0xb
 8171 1e77 04       		.byte	0x4
 8172 1e78 721D0000 		.4byte	0x1d72
 8173 1e7c 13       		.uleb128 0x13
 8174 1e7d 602B0000 		.4byte	.LASF518
 8175 1e81 18       		.byte	0x18
 8176 1e82 DA01     		.2byte	0x1da
 8177 1e84 651E0000 		.4byte	0x1e65
 8178 1e88 20       		.uleb128 0x20
 8179 1e89 07       		.byte	0x7
 8180 1e8a 01       		.byte	0x1
 8181 1e8b 6C000000 		.4byte	0x6c
 8182 1e8f 19       		.byte	0x19
 8183 1e90 5F       		.byte	0x5f
 8184 1e91 B41E0000 		.4byte	0x1eb4
 8185 1e95 21       		.uleb128 0x21
 8186 1e96 320C0000 		.4byte	.LASF519
 8187 1e9a 00       		.byte	0
 8188 1e9b 21       		.uleb128 0x21
 8189 1e9c 12010000 		.4byte	.LASF520
 8190 1ea0 01       		.byte	0x1
 8191 1ea1 21       		.uleb128 0x21
 8192 1ea2 6E000000 		.4byte	.LASF521
 8193 1ea6 02       		.byte	0x2
 8194 1ea7 21       		.uleb128 0x21
 8195 1ea8 E3060000 		.4byte	.LASF522
 8196 1eac 03       		.byte	0x3
 8197 1ead 21       		.uleb128 0x21
 8198 1eae 120C0000 		.4byte	.LASF523
 8199 1eb2 04       		.byte	0x4
 8200 1eb3 00       		.byte	0
 8201 1eb4 05       		.uleb128 0x5
 8202 1eb5 2E070000 		.4byte	.LASF524
 8203 1eb9 19       		.byte	0x19
 8204 1eba 65       		.byte	0x65
ARM GAS  /tmp/ccU5UnMV.s 			page 159


 8205 1ebb 881E0000 		.4byte	0x1e88
 8206 1ebf 15       		.uleb128 0x15
 8207 1ec0 08       		.byte	0x8
 8208 1ec1 1A       		.byte	0x1a
 8209 1ec2 F4       		.byte	0xf4
 8210 1ec3 E11E0000 		.4byte	0x1ee1
 8211 1ec7 16       		.uleb128 0x16
 8212 1ec8 6D637200 		.ascii	"mcr\000"
 8213 1ecc 1A       		.byte	0x1a
 8214 1ecd FA       		.byte	0xfa
 8215 1ece 04010000 		.4byte	0x104
 8216 1ed2 00       		.byte	0
 8217 1ed3 09       		.uleb128 0x9
 8218 1ed4 62747200 		.ascii	"btr\000"
 8219 1ed8 1A       		.byte	0x1a
 8220 1ed9 0001     		.2byte	0x100
 8221 1edb 04010000 		.4byte	0x104
 8222 1edf 04       		.byte	0x4
 8223 1ee0 00       		.byte	0
 8224 1ee1 18       		.uleb128 0x18
 8225 1ee2 80230000 		.4byte	.LASF525
 8226 1ee6 1A       		.byte	0x1a
 8227 1ee7 0101     		.2byte	0x101
 8228 1ee9 BF1E0000 		.4byte	0x1ebf
 8229 1eed 06       		.uleb128 0x6
 8230 1eee E11E0000 		.4byte	0x1ee1
 8231 1ef2 17       		.uleb128 0x17
 8232 1ef3 30       		.byte	0x30
 8233 1ef4 1A       		.byte	0x1a
 8234 1ef5 0601     		.2byte	0x106
 8235 1ef7 7E1F0000 		.4byte	0x1f7e
 8236 1efb 0A       		.uleb128 0xa
 8237 1efc 211E0000 		.4byte	.LASF526
 8238 1f00 1A       		.byte	0x1a
 8239 1f01 0A01     		.2byte	0x10a
 8240 1f03 B41E0000 		.4byte	0x1eb4
 8241 1f07 00       		.byte	0
 8242 1f08 0A       		.uleb128 0xa
 8243 1f09 4D300000 		.4byte	.LASF527
 8244 1f0d 1A       		.byte	0x1a
 8245 1f0e 0E01     		.2byte	0x10e
 8246 1f10 7E1F0000 		.4byte	0x1f7e
 8247 1f14 04       		.byte	0x4
 8248 1f15 0A       		.uleb128 0xa
 8249 1f16 870B0000 		.4byte	.LASF528
 8250 1f1a 1A       		.byte	0x1a
 8251 1f1b 1201     		.2byte	0x112
 8252 1f1d E2020000 		.4byte	0x2e2
 8253 1f21 08       		.byte	0x8
 8254 1f22 0A       		.uleb128 0xa
 8255 1f23 362B0000 		.4byte	.LASF529
 8256 1f27 1A       		.byte	0x1a
 8257 1f28 1601     		.2byte	0x116
 8258 1f2a E2020000 		.4byte	0x2e2
 8259 1f2e 10       		.byte	0x10
 8260 1f2f 0A       		.uleb128 0xa
 8261 1f30 5C230000 		.4byte	.LASF530
ARM GAS  /tmp/ccU5UnMV.s 			page 160


 8262 1f34 1A       		.byte	0x1a
 8263 1f35 2301     		.2byte	0x123
 8264 1f37 B50E0000 		.4byte	0xeb5
 8265 1f3b 18       		.byte	0x18
 8266 1f3c 0A       		.uleb128 0xa
 8267 1f3d 4F0E0000 		.4byte	.LASF531
 8268 1f41 1A       		.byte	0x1a
 8269 1f42 2A01     		.2byte	0x12a
 8270 1f44 B50E0000 		.4byte	0xeb5
 8271 1f48 1C       		.byte	0x1c
 8272 1f49 0A       		.uleb128 0xa
 8273 1f4a 18140000 		.4byte	.LASF532
 8274 1f4e 1A       		.byte	0x1a
 8275 1f4f 3001     		.2byte	0x130
 8276 1f51 B50E0000 		.4byte	0xeb5
 8277 1f55 20       		.byte	0x20
 8278 1f56 0A       		.uleb128 0xa
 8279 1f57 45040000 		.4byte	.LASF533
 8280 1f5b 1A       		.byte	0x1a
 8281 1f5c 3501     		.2byte	0x135
 8282 1f5e B50E0000 		.4byte	0xeb5
 8283 1f62 24       		.byte	0x24
 8284 1f63 0A       		.uleb128 0xa
 8285 1f64 230B0000 		.4byte	.LASF534
 8286 1f68 1A       		.byte	0x1a
 8287 1f69 3901     		.2byte	0x139
 8288 1f6b B50E0000 		.4byte	0xeb5
 8289 1f6f 28       		.byte	0x28
 8290 1f70 09       		.uleb128 0x9
 8291 1f71 63616E00 		.ascii	"can\000"
 8292 1f75 1A       		.byte	0x1a
 8293 1f76 3F01     		.2byte	0x13f
 8294 1f78 841F0000 		.4byte	0x1f84
 8295 1f7c 2C       		.byte	0x2c
 8296 1f7d 00       		.byte	0
 8297 1f7e 0B       		.uleb128 0xb
 8298 1f7f 04       		.byte	0x4
 8299 1f80 ED1E0000 		.4byte	0x1eed
 8300 1f84 0B       		.uleb128 0xb
 8301 1f85 04       		.byte	0x4
 8302 1f86 30070000 		.4byte	0x730
 8303 1f8a 18       		.uleb128 0x18
 8304 1f8b AF040000 		.4byte	.LASF535
 8305 1f8f 1A       		.byte	0x1a
 8306 1f90 4001     		.2byte	0x140
 8307 1f92 F21E0000 		.4byte	0x1ef2
 8308 1f96 13       		.uleb128 0x13
 8309 1f97 192E0000 		.4byte	.LASF536
 8310 1f9b 1A       		.byte	0x1a
 8311 1f9c 4B01     		.2byte	0x14b
 8312 1f9e 8A1F0000 		.4byte	0x1f8a
 8313 1fa2 20       		.uleb128 0x20
 8314 1fa3 07       		.byte	0x7
 8315 1fa4 01       		.byte	0x1
 8316 1fa5 6C000000 		.4byte	0x6c
 8317 1fa9 1B       		.byte	0x1b
 8318 1faa 4C       		.byte	0x4c
ARM GAS  /tmp/ccU5UnMV.s 			page 161


 8319 1fab D41F0000 		.4byte	0x1fd4
 8320 1faf 21       		.uleb128 0x21
 8321 1fb0 BC070000 		.4byte	.LASF537
 8322 1fb4 00       		.byte	0
 8323 1fb5 21       		.uleb128 0x21
 8324 1fb6 DD130000 		.4byte	.LASF538
 8325 1fba 01       		.byte	0x1
 8326 1fbb 21       		.uleb128 0x21
 8327 1fbc 3C080000 		.4byte	.LASF539
 8328 1fc0 02       		.byte	0x2
 8329 1fc1 21       		.uleb128 0x21
 8330 1fc2 CA050000 		.4byte	.LASF540
 8331 1fc6 03       		.byte	0x3
 8332 1fc7 21       		.uleb128 0x21
 8333 1fc8 24040000 		.4byte	.LASF541
 8334 1fcc 04       		.byte	0x4
 8335 1fcd 21       		.uleb128 0x21
 8336 1fce 4B1A0000 		.4byte	.LASF542
 8337 1fd2 05       		.byte	0x5
 8338 1fd3 00       		.byte	0
 8339 1fd4 05       		.uleb128 0x5
 8340 1fd5 F5170000 		.4byte	.LASF543
 8341 1fd9 1B       		.byte	0x1b
 8342 1fda 53       		.byte	0x53
 8343 1fdb A21F0000 		.4byte	0x1fa2
 8344 1fdf 18       		.uleb128 0x18
 8345 1fe0 38060000 		.4byte	.LASF544
 8346 1fe4 1C       		.byte	0x1c
 8347 1fe5 6A01     		.2byte	0x16a
 8348 1fe7 E4000000 		.4byte	0xe4
 8349 1feb 18       		.uleb128 0x18
 8350 1fec DF040000 		.4byte	.LASF545
 8351 1ff0 1C       		.byte	0x1c
 8352 1ff1 6F01     		.2byte	0x16f
 8353 1ff3 04010000 		.4byte	0x104
 8354 1ff7 24       		.uleb128 0x24
 8355 1ff8 07       		.byte	0x7
 8356 1ff9 01       		.byte	0x1
 8357 1ffa 6C000000 		.4byte	0x6c
 8358 1ffe 1C       		.byte	0x1c
 8359 1fff 7401     		.2byte	0x174
 8360 2001 18200000 		.4byte	0x2018
 8361 2005 21       		.uleb128 0x21
 8362 2006 EB130000 		.4byte	.LASF546
 8363 200a 01       		.byte	0x1
 8364 200b 21       		.uleb128 0x21
 8365 200c 9A000000 		.4byte	.LASF547
 8366 2010 02       		.byte	0x2
 8367 2011 21       		.uleb128 0x21
 8368 2012 AC0B0000 		.4byte	.LASF548
 8369 2016 03       		.byte	0x3
 8370 2017 00       		.byte	0
 8371 2018 18       		.uleb128 0x18
 8372 2019 A8340000 		.4byte	.LASF549
 8373 201d 1C       		.byte	0x1c
 8374 201e 7801     		.2byte	0x178
 8375 2020 F71F0000 		.4byte	0x1ff7
ARM GAS  /tmp/ccU5UnMV.s 			page 162


 8376 2024 24       		.uleb128 0x24
 8377 2025 07       		.byte	0x7
 8378 2026 01       		.byte	0x1
 8379 2027 6C000000 		.4byte	0x6c
 8380 202b 1C       		.byte	0x1c
 8381 202c 7D01     		.2byte	0x17d
 8382 202e 45200000 		.4byte	0x2045
 8383 2032 21       		.uleb128 0x21
 8384 2033 F0120000 		.4byte	.LASF550
 8385 2037 01       		.byte	0x1
 8386 2038 21       		.uleb128 0x21
 8387 2039 FA330000 		.4byte	.LASF551
 8388 203d 02       		.byte	0x2
 8389 203e 21       		.uleb128 0x21
 8390 203f 120D0000 		.4byte	.LASF552
 8391 2043 03       		.byte	0x3
 8392 2044 00       		.byte	0
 8393 2045 18       		.uleb128 0x18
 8394 2046 5E080000 		.4byte	.LASF553
 8395 204a 1C       		.byte	0x1c
 8396 204b 8101     		.2byte	0x181
 8397 204d 24200000 		.4byte	0x2024
 8398 2051 17       		.uleb128 0x17
 8399 2052 0C       		.byte	0xc
 8400 2053 1C       		.byte	0x1c
 8401 2054 8601     		.2byte	0x186
 8402 2056 82200000 		.4byte	0x2082
 8403 205a 0A       		.uleb128 0xa
 8404 205b 7E070000 		.4byte	.LASF554
 8405 205f 1C       		.byte	0x1c
 8406 2060 8801     		.2byte	0x188
 8407 2062 18200000 		.4byte	0x2018
 8408 2066 00       		.byte	0
 8409 2067 0A       		.uleb128 0xa
 8410 2068 99040000 		.4byte	.LASF555
 8411 206c 1C       		.byte	0x1c
 8412 206d 8901     		.2byte	0x189
 8413 206f 04010000 		.4byte	0x104
 8414 2073 04       		.byte	0x4
 8415 2074 0A       		.uleb128 0xa
 8416 2075 91350000 		.4byte	.LASF556
 8417 2079 1C       		.byte	0x1c
 8418 207a 8C01     		.2byte	0x18c
 8419 207c 45200000 		.4byte	0x2045
 8420 2080 08       		.byte	0x8
 8421 2081 00       		.byte	0
 8422 2082 18       		.uleb128 0x18
 8423 2083 BA020000 		.4byte	.LASF557
 8424 2087 1C       		.byte	0x1c
 8425 2088 8E01     		.2byte	0x18e
 8426 208a 51200000 		.4byte	0x2051
 8427 208e 06       		.uleb128 0x6
 8428 208f 82200000 		.4byte	0x2082
 8429 2093 18       		.uleb128 0x18
 8430 2094 C0050000 		.4byte	.LASF558
 8431 2098 1C       		.byte	0x1c
 8432 2099 9301     		.2byte	0x193
ARM GAS  /tmp/ccU5UnMV.s 			page 163


 8433 209b 9F200000 		.4byte	0x209f
 8434 209f 0C       		.uleb128 0xc
 8435 20a0 C0050000 		.4byte	.LASF558
 8436 20a4 38       		.byte	0x38
 8437 20a5 1C       		.byte	0x1c
 8438 20a6 9801     		.2byte	0x198
 8439 20a8 3C210000 		.4byte	0x213c
 8440 20ac 0A       		.uleb128 0xa
 8441 20ad 211E0000 		.4byte	.LASF526
 8442 20b1 1C       		.byte	0x1c
 8443 20b2 9C01     		.2byte	0x19c
 8444 20b4 D41F0000 		.4byte	0x1fd4
 8445 20b8 00       		.byte	0
 8446 20b9 0A       		.uleb128 0xa
 8447 20ba 4D300000 		.4byte	.LASF527
 8448 20be 1C       		.byte	0x1c
 8449 20bf A001     		.2byte	0x1a0
 8450 20c1 3C210000 		.4byte	0x213c
 8451 20c5 04       		.byte	0x4
 8452 20c6 0A       		.uleb128 0xa
 8453 20c7 AE010000 		.4byte	.LASF559
 8454 20cb 1C       		.byte	0x1c
 8455 20cc A401     		.2byte	0x1a4
 8456 20ce EB1F0000 		.4byte	0x1feb
 8457 20d2 08       		.byte	0x8
 8458 20d3 0A       		.uleb128 0xa
 8459 20d4 6B110000 		.4byte	.LASF560
 8460 20d8 1C       		.byte	0x1c
 8461 20d9 A901     		.2byte	0x1a9
 8462 20db 310E0000 		.4byte	0xe31
 8463 20df 0C       		.byte	0xc
 8464 20e0 0A       		.uleb128 0xa
 8465 20e1 94080000 		.4byte	.LASF561
 8466 20e5 1C       		.byte	0x1c
 8467 20e6 B201     		.2byte	0x1b2
 8468 20e8 AD020000 		.4byte	0x2ad
 8469 20ec 1C       		.byte	0x1c
 8470 20ed 0A       		.uleb128 0xa
 8471 20ee E6130000 		.4byte	.LASF562
 8472 20f2 1C       		.byte	0x1c
 8473 20f3 B601     		.2byte	0x1b6
 8474 20f5 DF1F0000 		.4byte	0x1fdf
 8475 20f9 20       		.byte	0x20
 8476 20fa 0A       		.uleb128 0xa
 8477 20fb 330A0000 		.4byte	.LASF563
 8478 20ff 1C       		.byte	0x1c
 8479 2100 BA01     		.2byte	0x1ba
 8480 2102 04010000 		.4byte	0x104
 8481 2106 24       		.byte	0x24
 8482 2107 0A       		.uleb128 0xa
 8483 2108 A80A0000 		.4byte	.LASF564
 8484 210c 1C       		.byte	0x1c
 8485 210d BE01     		.2byte	0x1be
 8486 210f 04010000 		.4byte	0x104
 8487 2113 28       		.byte	0x28
 8488 2114 0A       		.uleb128 0xa
 8489 2115 85010000 		.4byte	.LASF565
ARM GAS  /tmp/ccU5UnMV.s 			page 164


 8490 2119 1C       		.byte	0x1c
 8491 211a C201     		.2byte	0x1c2
 8492 211c 42210000 		.4byte	0x2142
 8493 2120 2C       		.byte	0x2c
 8494 2121 0A       		.uleb128 0xa
 8495 2122 CD020000 		.4byte	.LASF566
 8496 2126 1C       		.byte	0x1c
 8497 2127 C601     		.2byte	0x1c6
 8498 2129 42210000 		.4byte	0x2142
 8499 212d 30       		.byte	0x30
 8500 212e 09       		.uleb128 0x9
 8501 212f 69326300 		.ascii	"i2c\000"
 8502 2133 1C       		.byte	0x1c
 8503 2134 CA01     		.2byte	0x1ca
 8504 2136 48210000 		.4byte	0x2148
 8505 213a 34       		.byte	0x34
 8506 213b 00       		.byte	0
 8507 213c 0B       		.uleb128 0xb
 8508 213d 04       		.byte	0x4
 8509 213e 8E200000 		.4byte	0x208e
 8510 2142 0B       		.uleb128 0xb
 8511 2143 04       		.byte	0x4
 8512 2144 FD1B0000 		.4byte	0x1bfd
 8513 2148 0B       		.uleb128 0xb
 8514 2149 04       		.byte	0x4
 8515 214a 54080000 		.4byte	0x854
 8516 214e 13       		.uleb128 0x13
 8517 214f 53180000 		.4byte	.LASF567
 8518 2153 1C       		.byte	0x1c
 8519 2154 E401     		.2byte	0x1e4
 8520 2156 93200000 		.4byte	0x2093
 8521 215a 20       		.uleb128 0x20
 8522 215b 07       		.byte	0x7
 8523 215c 01       		.byte	0x1
 8524 215d 6C000000 		.4byte	0x6c
 8525 2161 1D       		.byte	0x1d
 8526 2162 31       		.byte	0x31
 8527 2163 86210000 		.4byte	0x2186
 8528 2167 21       		.uleb128 0x21
 8529 2168 D4320000 		.4byte	.LASF568
 8530 216c 00       		.byte	0
 8531 216d 21       		.uleb128 0x21
 8532 216e FC290000 		.4byte	.LASF569
 8533 2172 01       		.byte	0x1
 8534 2173 21       		.uleb128 0x21
 8535 2174 49060000 		.4byte	.LASF570
 8536 2178 02       		.byte	0x2
 8537 2179 21       		.uleb128 0x21
 8538 217a 7D1B0000 		.4byte	.LASF571
 8539 217e 03       		.byte	0x3
 8540 217f 21       		.uleb128 0x21
 8541 2180 9A270000 		.4byte	.LASF572
 8542 2184 04       		.byte	0x4
 8543 2185 00       		.byte	0
 8544 2186 05       		.uleb128 0x5
 8545 2187 072D0000 		.4byte	.LASF573
 8546 218b 1D       		.byte	0x1d
ARM GAS  /tmp/ccU5UnMV.s 			page 165


 8547 218c 37       		.byte	0x37
 8548 218d 5A210000 		.4byte	0x215a
 8549 2191 05       		.uleb128 0x5
 8550 2192 E2220000 		.4byte	.LASF574
 8551 2196 1D       		.byte	0x1d
 8552 2197 3C       		.byte	0x3c
 8553 2198 9C210000 		.4byte	0x219c
 8554 219c 0C       		.uleb128 0xc
 8555 219d E2220000 		.4byte	.LASF574
 8556 21a1 18       		.byte	0x18
 8557 21a2 1E       		.byte	0x1e
 8558 21a3 3101     		.2byte	0x131
 8559 21a5 F8210000 		.4byte	0x21f8
 8560 21a9 0A       		.uleb128 0xa
 8561 21aa 211E0000 		.4byte	.LASF526
 8562 21ae 1E       		.byte	0x1e
 8563 21af 3501     		.2byte	0x135
 8564 21b1 86210000 		.4byte	0x2186
 8565 21b5 00       		.byte	0
 8566 21b6 0A       		.uleb128 0xa
 8567 21b7 4D300000 		.4byte	.LASF527
 8568 21bb 1E       		.byte	0x1e
 8569 21bc 3901     		.2byte	0x139
 8570 21be FD230000 		.4byte	0x23fd
 8571 21c2 04       		.byte	0x4
 8572 21c3 0A       		.uleb128 0xa
 8573 21c4 B32A0000 		.4byte	.LASF575
 8574 21c8 1E       		.byte	0x1e
 8575 21c9 4101     		.2byte	0x141
 8576 21cb 04010000 		.4byte	0x104
 8577 21cf 08       		.byte	0x8
 8578 21d0 09       		.uleb128 0x9
 8579 21d1 74696D00 		.ascii	"tim\000"
 8580 21d5 1E       		.byte	0x1e
 8581 21d6 4501     		.2byte	0x145
 8582 21d8 03240000 		.4byte	0x2403
 8583 21dc 0C       		.byte	0xc
 8584 21dd 0A       		.uleb128 0xa
 8585 21de A3290000 		.4byte	.LASF576
 8586 21e2 1E       		.byte	0x1e
 8587 21e3 4901     		.2byte	0x149
 8588 21e5 EC1B0000 		.4byte	0x1bec
 8589 21e9 10       		.byte	0x10
 8590 21ea 0A       		.uleb128 0xa
 8591 21eb 6C060000 		.4byte	.LASF577
 8592 21ef 1E       		.byte	0x1e
 8593 21f0 4D01     		.2byte	0x14d
 8594 21f2 EC1B0000 		.4byte	0x1bec
 8595 21f6 14       		.byte	0x14
 8596 21f7 00       		.byte	0
 8597 21f8 05       		.uleb128 0x5
 8598 21f9 80240000 		.4byte	.LASF578
 8599 21fd 1D       		.byte	0x1d
 8600 21fe 43       		.byte	0x43
 8601 21ff 03220000 		.4byte	0x2203
 8602 2203 0B       		.uleb128 0xb
 8603 2204 04       		.byte	0x4
ARM GAS  /tmp/ccU5UnMV.s 			page 166


 8604 2205 09220000 		.4byte	0x2209
 8605 2209 0D       		.uleb128 0xd
 8606 220a 14220000 		.4byte	0x2214
 8607 220e 0E       		.uleb128 0xe
 8608 220f 14220000 		.4byte	0x2214
 8609 2213 00       		.byte	0
 8610 2214 0B       		.uleb128 0xb
 8611 2215 04       		.byte	0x4
 8612 2216 91210000 		.4byte	0x2191
 8613 221a 17       		.uleb128 0x17
 8614 221b 60       		.byte	0x60
 8615 221c 1F       		.byte	0x1f
 8616 221d 9E01     		.2byte	0x19e
 8617 221f 26230000 		.4byte	0x2326
 8618 2223 09       		.uleb128 0x9
 8619 2224 43523100 		.ascii	"CR1\000"
 8620 2228 1F       		.byte	0x1f
 8621 2229 9F01     		.2byte	0x19f
 8622 222b 0F010000 		.4byte	0x10f
 8623 222f 00       		.byte	0
 8624 2230 09       		.uleb128 0x9
 8625 2231 43523200 		.ascii	"CR2\000"
 8626 2235 1F       		.byte	0x1f
 8627 2236 A001     		.2byte	0x1a0
 8628 2238 0F010000 		.4byte	0x10f
 8629 223c 04       		.byte	0x4
 8630 223d 0A       		.uleb128 0xa
 8631 223e 262D0000 		.4byte	.LASF130
 8632 2242 1F       		.byte	0x1f
 8633 2243 A101     		.2byte	0x1a1
 8634 2245 0F010000 		.4byte	0x10f
 8635 2249 08       		.byte	0x8
 8636 224a 0A       		.uleb128 0xa
 8637 224b 5D0C0000 		.4byte	.LASF131
 8638 224f 1F       		.byte	0x1f
 8639 2250 A201     		.2byte	0x1a2
 8640 2252 0F010000 		.4byte	0x10f
 8641 2256 0C       		.byte	0xc
 8642 2257 09       		.uleb128 0x9
 8643 2258 535200   		.ascii	"SR\000"
 8644 225b 1F       		.byte	0x1f
 8645 225c A301     		.2byte	0x1a3
 8646 225e 0F010000 		.4byte	0x10f
 8647 2262 10       		.byte	0x10
 8648 2263 09       		.uleb128 0x9
 8649 2264 45475200 		.ascii	"EGR\000"
 8650 2268 1F       		.byte	0x1f
 8651 2269 A401     		.2byte	0x1a4
 8652 226b 0F010000 		.4byte	0x10f
 8653 226f 14       		.byte	0x14
 8654 2270 0A       		.uleb128 0xa
 8655 2271 5A340000 		.4byte	.LASF132
 8656 2275 1F       		.byte	0x1f
 8657 2276 A501     		.2byte	0x1a5
 8658 2278 0F010000 		.4byte	0x10f
 8659 227c 18       		.byte	0x18
 8660 227d 0A       		.uleb128 0xa
ARM GAS  /tmp/ccU5UnMV.s 			page 167


 8661 227e 60340000 		.4byte	.LASF133
 8662 2282 1F       		.byte	0x1f
 8663 2283 A601     		.2byte	0x1a6
 8664 2285 0F010000 		.4byte	0x10f
 8665 2289 1C       		.byte	0x1c
 8666 228a 0A       		.uleb128 0xa
 8667 228b 01090000 		.4byte	.LASF134
 8668 228f 1F       		.byte	0x1f
 8669 2290 A701     		.2byte	0x1a7
 8670 2292 0F010000 		.4byte	0x10f
 8671 2296 20       		.byte	0x20
 8672 2297 09       		.uleb128 0x9
 8673 2298 434E5400 		.ascii	"CNT\000"
 8674 229c 1F       		.byte	0x1f
 8675 229d A801     		.2byte	0x1a8
 8676 229f 0F010000 		.4byte	0x10f
 8677 22a3 24       		.byte	0x24
 8678 22a4 09       		.uleb128 0x9
 8679 22a5 50534300 		.ascii	"PSC\000"
 8680 22a9 1F       		.byte	0x1f
 8681 22aa A901     		.2byte	0x1a9
 8682 22ac 0F010000 		.4byte	0x10f
 8683 22b0 28       		.byte	0x28
 8684 22b1 09       		.uleb128 0x9
 8685 22b2 41525200 		.ascii	"ARR\000"
 8686 22b6 1F       		.byte	0x1f
 8687 22b7 AA01     		.2byte	0x1aa
 8688 22b9 0F010000 		.4byte	0x10f
 8689 22bd 2C       		.byte	0x2c
 8690 22be 09       		.uleb128 0x9
 8691 22bf 52435200 		.ascii	"RCR\000"
 8692 22c3 1F       		.byte	0x1f
 8693 22c4 AB01     		.2byte	0x1ab
 8694 22c6 0F010000 		.4byte	0x10f
 8695 22ca 30       		.byte	0x30
 8696 22cb 09       		.uleb128 0x9
 8697 22cc 43435200 		.ascii	"CCR\000"
 8698 22d0 1F       		.byte	0x1f
 8699 22d1 AC01     		.2byte	0x1ac
 8700 22d3 C4070000 		.4byte	0x7c4
 8701 22d7 34       		.byte	0x34
 8702 22d8 0A       		.uleb128 0xa
 8703 22d9 92020000 		.4byte	.LASF139
 8704 22dd 1F       		.byte	0x1f
 8705 22de AD01     		.2byte	0x1ad
 8706 22e0 0F010000 		.4byte	0x10f
 8707 22e4 44       		.byte	0x44
 8708 22e5 09       		.uleb128 0x9
 8709 22e6 44435200 		.ascii	"DCR\000"
 8710 22ea 1F       		.byte	0x1f
 8711 22eb AE01     		.2byte	0x1ae
 8712 22ed 0F010000 		.4byte	0x10f
 8713 22f1 48       		.byte	0x48
 8714 22f2 0A       		.uleb128 0xa
 8715 22f3 6A1E0000 		.4byte	.LASF140
 8716 22f7 1F       		.byte	0x1f
 8717 22f8 AF01     		.2byte	0x1af
ARM GAS  /tmp/ccU5UnMV.s 			page 168


 8718 22fa 0F010000 		.4byte	0x10f
 8719 22fe 4C       		.byte	0x4c
 8720 22ff 09       		.uleb128 0x9
 8721 2300 4F5200   		.ascii	"OR\000"
 8722 2303 1F       		.byte	0x1f
 8723 2304 B001     		.2byte	0x1b0
 8724 2306 0F010000 		.4byte	0x10f
 8725 230a 50       		.byte	0x50
 8726 230b 0A       		.uleb128 0xa
 8727 230c 66340000 		.4byte	.LASF579
 8728 2310 1F       		.byte	0x1f
 8729 2311 B101     		.2byte	0x1b1
 8730 2313 0F010000 		.4byte	0x10f
 8731 2317 54       		.byte	0x54
 8732 2318 0A       		.uleb128 0xa
 8733 2319 3E120000 		.4byte	.LASF580
 8734 231d 1F       		.byte	0x1f
 8735 231e B201     		.2byte	0x1b2
 8736 2320 AF070000 		.4byte	0x7af
 8737 2324 58       		.byte	0x58
 8738 2325 00       		.byte	0
 8739 2326 18       		.uleb128 0x18
 8740 2327 FB2B0000 		.4byte	.LASF581
 8741 232b 1F       		.byte	0x1f
 8742 232c B301     		.2byte	0x1b3
 8743 232e 1A220000 		.4byte	0x221a
 8744 2332 20       		.uleb128 0x20
 8745 2333 07       		.byte	0x7
 8746 2334 01       		.byte	0x1
 8747 2335 6C000000 		.4byte	0x6c
 8748 2339 1E       		.byte	0x1e
 8749 233a EE       		.byte	0xee
 8750 233b 4C230000 		.4byte	0x234c
 8751 233f 21       		.uleb128 0x21
 8752 2340 5C0A0000 		.4byte	.LASF582
 8753 2344 00       		.byte	0
 8754 2345 21       		.uleb128 0x21
 8755 2346 D9240000 		.4byte	.LASF583
 8756 234a 01       		.byte	0x1
 8757 234b 00       		.byte	0
 8758 234c 05       		.uleb128 0x5
 8759 234d F5300000 		.4byte	.LASF584
 8760 2351 1E       		.byte	0x1e
 8761 2352 F1       		.byte	0xf1
 8762 2353 32230000 		.4byte	0x2332
 8763 2357 05       		.uleb128 0x5
 8764 2358 41250000 		.4byte	.LASF585
 8765 235c 1E       		.byte	0x1e
 8766 235d F6       		.byte	0xf6
 8767 235e 04010000 		.4byte	0x104
 8768 2362 20       		.uleb128 0x20
 8769 2363 07       		.byte	0x7
 8770 2364 01       		.byte	0x1
 8771 2365 6C000000 		.4byte	0x6c
 8772 2369 1E       		.byte	0x1e
 8773 236a FB       		.byte	0xfb
 8774 236b 7C230000 		.4byte	0x237c
ARM GAS  /tmp/ccU5UnMV.s 			page 169


 8775 236f 21       		.uleb128 0x21
 8776 2370 1E240000 		.4byte	.LASF586
 8777 2374 00       		.byte	0
 8778 2375 21       		.uleb128 0x21
 8779 2376 582C0000 		.4byte	.LASF587
 8780 237a 01       		.byte	0x1
 8781 237b 00       		.byte	0
 8782 237c 05       		.uleb128 0x5
 8783 237d 21070000 		.4byte	.LASF588
 8784 2381 1E       		.byte	0x1e
 8785 2382 FE       		.byte	0xfe
 8786 2383 62230000 		.4byte	0x2362
 8787 2387 17       		.uleb128 0x17
 8788 2388 1C       		.byte	0x1c
 8789 2389 1E       		.byte	0x1e
 8790 238a 0901     		.2byte	0x109
 8791 238c EC230000 		.4byte	0x23ec
 8792 2390 0A       		.uleb128 0xa
 8793 2391 470A0000 		.4byte	.LASF589
 8794 2395 1E       		.byte	0x1e
 8795 2396 0D01     		.2byte	0x10d
 8796 2398 4C230000 		.4byte	0x234c
 8797 239c 00       		.byte	0
 8798 239d 0A       		.uleb128 0xa
 8799 239e 74330000 		.4byte	.LASF590
 8800 23a2 1E       		.byte	0x1e
 8801 23a3 1301     		.2byte	0x113
 8802 23a5 57230000 		.4byte	0x2357
 8803 23a9 04       		.byte	0x4
 8804 23aa 0A       		.uleb128 0xa
 8805 23ab 561A0000 		.4byte	.LASF591
 8806 23af 1E       		.byte	0x1e
 8807 23b0 1701     		.2byte	0x117
 8808 23b2 F8210000 		.4byte	0x21f8
 8809 23b6 08       		.byte	0x8
 8810 23b7 0A       		.uleb128 0xa
 8811 23b8 EB170000 		.4byte	.LASF592
 8812 23bc 1E       		.byte	0x1e
 8813 23bd 1B01     		.2byte	0x11b
 8814 23bf F8210000 		.4byte	0x21f8
 8815 23c3 0C       		.byte	0xc
 8816 23c4 0A       		.uleb128 0xa
 8817 23c5 370D0000 		.4byte	.LASF593
 8818 23c9 1E       		.byte	0x1e
 8819 23ca 1F01     		.2byte	0x11f
 8820 23cc F8210000 		.4byte	0x21f8
 8821 23d0 10       		.byte	0x10
 8822 23d1 0A       		.uleb128 0xa
 8823 23d2 91180000 		.4byte	.LASF594
 8824 23d6 1E       		.byte	0x1e
 8825 23d7 2501     		.2byte	0x125
 8826 23d9 7C230000 		.4byte	0x237c
 8827 23dd 14       		.byte	0x14
 8828 23de 0A       		.uleb128 0xa
 8829 23df 58100000 		.4byte	.LASF595
 8830 23e3 1E       		.byte	0x1e
 8831 23e4 2B01     		.2byte	0x12b
ARM GAS  /tmp/ccU5UnMV.s 			page 170


 8832 23e6 04010000 		.4byte	0x104
 8833 23ea 18       		.byte	0x18
 8834 23eb 00       		.byte	0
 8835 23ec 18       		.uleb128 0x18
 8836 23ed F6220000 		.4byte	.LASF596
 8837 23f1 1E       		.byte	0x1e
 8838 23f2 2C01     		.2byte	0x12c
 8839 23f4 87230000 		.4byte	0x2387
 8840 23f8 06       		.uleb128 0x6
 8841 23f9 EC230000 		.4byte	0x23ec
 8842 23fd 0B       		.uleb128 0xb
 8843 23fe 04       		.byte	0x4
 8844 23ff F8230000 		.4byte	0x23f8
 8845 2403 0B       		.uleb128 0xb
 8846 2404 04       		.byte	0x4
 8847 2405 26230000 		.4byte	0x2326
 8848 2409 13       		.uleb128 0x13
 8849 240a 7A140000 		.4byte	.LASF597
 8850 240e 1E       		.byte	0x1e
 8851 240f 8A01     		.2byte	0x18a
 8852 2411 91210000 		.4byte	0x2191
 8853 2415 20       		.uleb128 0x20
 8854 2416 07       		.byte	0x7
 8855 2417 01       		.byte	0x1
 8856 2418 6C000000 		.4byte	0x6c
 8857 241c 20       		.byte	0x20
 8858 241d 55       		.byte	0x55
 8859 241e 35240000 		.4byte	0x2435
 8860 2422 21       		.uleb128 0x21
 8861 2423 C7070000 		.4byte	.LASF598
 8862 2427 00       		.byte	0
 8863 2428 21       		.uleb128 0x21
 8864 2429 5D120000 		.4byte	.LASF599
 8865 242d 01       		.byte	0x1
 8866 242e 21       		.uleb128 0x21
 8867 242f 37360000 		.4byte	.LASF600
 8868 2433 02       		.byte	0x2
 8869 2434 00       		.byte	0
 8870 2435 05       		.uleb128 0x5
 8871 2436 38210000 		.4byte	.LASF601
 8872 243a 20       		.byte	0x20
 8873 243b 59       		.byte	0x59
 8874 243c 15240000 		.4byte	0x2415
 8875 2440 05       		.uleb128 0x5
 8876 2441 CD2E0000 		.4byte	.LASF602
 8877 2445 20       		.byte	0x20
 8878 2446 5E       		.byte	0x5e
 8879 2447 4B240000 		.4byte	0x244b
 8880 244b 26       		.uleb128 0x26
 8881 244c CD2E0000 		.4byte	.LASF602
 8882 2450 5801     		.2byte	0x158
 8883 2452 20       		.byte	0x20
 8884 2453 78       		.byte	0x78
 8885 2454 B8240000 		.4byte	0x24b8
 8886 2458 16       		.uleb128 0x16
 8887 2459 766D7400 		.ascii	"vmt\000"
 8888 245d 20       		.byte	0x20
ARM GAS  /tmp/ccU5UnMV.s 			page 171


 8889 245e 7A       		.byte	0x7a
 8890 245f 4E250000 		.4byte	0x254e
 8891 2463 00       		.byte	0
 8892 2464 08       		.uleb128 0x8
 8893 2465 490E0000 		.4byte	.LASF603
 8894 2469 20       		.byte	0x20
 8895 246a 7B       		.byte	0x7b
 8896 246b B50E0000 		.4byte	0xeb5
 8897 246f 04       		.byte	0x4
 8898 2470 08       		.uleb128 0x8
 8899 2471 211E0000 		.4byte	.LASF526
 8900 2475 20       		.byte	0x20
 8901 2476 7B       		.byte	0x7b
 8902 2477 35240000 		.4byte	0x2435
 8903 247b 08       		.byte	0x8
 8904 247c 08       		.uleb128 0x8
 8905 247d AF0F0000 		.4byte	.LASF604
 8906 2481 20       		.byte	0x20
 8907 2482 7B       		.byte	0x7b
 8908 2483 600F0000 		.4byte	0xf60
 8909 2487 0C       		.byte	0xc
 8910 2488 08       		.uleb128 0x8
 8911 2489 F3180000 		.4byte	.LASF605
 8912 248d 20       		.byte	0x20
 8913 248e 7B       		.byte	0x7b
 8914 248f 6B0F0000 		.4byte	0xf6b
 8915 2493 30       		.byte	0x30
 8916 2494 16       		.uleb128 0x16
 8917 2495 696200   		.ascii	"ib\000"
 8918 2498 20       		.byte	0x20
 8919 2499 7B       		.byte	0x7b
 8920 249a 54250000 		.4byte	0x2554
 8921 249e 54       		.byte	0x54
 8922 249f 16       		.uleb128 0x16
 8923 24a0 6F6200   		.ascii	"ob\000"
 8924 24a3 20       		.byte	0x20
 8925 24a4 7B       		.byte	0x7b
 8926 24a5 54250000 		.4byte	0x2554
 8927 24a9 D4       		.byte	0xd4
 8928 24aa 23       		.uleb128 0x23
 8929 24ab EF230000 		.4byte	.LASF606
 8930 24af 20       		.byte	0x20
 8931 24b0 7B       		.byte	0x7b
 8932 24b1 64250000 		.4byte	0x2564
 8933 24b5 5401     		.2byte	0x154
 8934 24b7 00       		.byte	0
 8935 24b8 1E       		.uleb128 0x1e
 8936 24b9 53443300 		.ascii	"SD3\000"
 8937 24bd 21       		.byte	0x21
 8938 24be 1501     		.2byte	0x115
 8939 24c0 40240000 		.4byte	0x2440
 8940 24c4 1E       		.uleb128 0x1e
 8941 24c5 53443400 		.ascii	"SD4\000"
 8942 24c9 21       		.byte	0x21
 8943 24ca 1801     		.2byte	0x118
 8944 24cc 40240000 		.4byte	0x2440
 8945 24d0 1E       		.uleb128 0x1e
ARM GAS  /tmp/ccU5UnMV.s 			page 172


 8946 24d1 53443600 		.ascii	"SD6\000"
 8947 24d5 21       		.byte	0x21
 8948 24d6 1E01     		.2byte	0x11e
 8949 24d8 40240000 		.4byte	0x2440
 8950 24dc 07       		.uleb128 0x7
 8951 24dd 270D0000 		.4byte	.LASF607
 8952 24e1 20       		.byte	0x20
 8953 24e2 20       		.byte	0x20
 8954 24e3 6D       		.byte	0x6d
 8955 24e4 49250000 		.4byte	0x2549
 8956 24e8 08       		.uleb128 0x8
 8957 24e9 DC200000 		.4byte	.LASF608
 8958 24ed 20       		.byte	0x20
 8959 24ee 6E       		.byte	0x6e
 8960 24ef 950F0000 		.4byte	0xf95
 8961 24f3 00       		.byte	0
 8962 24f4 08       		.uleb128 0x8
 8963 24f5 D8050000 		.4byte	.LASF609
 8964 24f9 20       		.byte	0x20
 8965 24fa 6E       		.byte	0x6e
 8966 24fb B40F0000 		.4byte	0xfb4
 8967 24ff 04       		.byte	0x4
 8968 2500 16       		.uleb128 0x16
 8969 2501 70757400 		.ascii	"put\000"
 8970 2505 20       		.byte	0x20
 8971 2506 6E       		.byte	0x6e
 8972 2507 CE0F0000 		.4byte	0xfce
 8973 250b 08       		.byte	0x8
 8974 250c 16       		.uleb128 0x16
 8975 250d 67657400 		.ascii	"get\000"
 8976 2511 20       		.byte	0x20
 8977 2512 6E       		.byte	0x6e
 8978 2513 E30F0000 		.4byte	0xfe3
 8979 2517 0C       		.byte	0xc
 8980 2518 08       		.uleb128 0x8
 8981 2519 DB1B0000 		.4byte	.LASF610
 8982 251d 20       		.byte	0x20
 8983 251e 6E       		.byte	0x6e
 8984 251f 3C1C0000 		.4byte	0x1c3c
 8985 2523 10       		.byte	0x10
 8986 2524 08       		.uleb128 0x8
 8987 2525 9C200000 		.4byte	.LASF611
 8988 2529 20       		.byte	0x20
 8989 252a 6E       		.byte	0x6e
 8990 252b 561C0000 		.4byte	0x1c56
 8991 252f 14       		.byte	0x14
 8992 2530 08       		.uleb128 0x8
 8993 2531 62300000 		.4byte	.LASF612
 8994 2535 20       		.byte	0x20
 8995 2536 6E       		.byte	0x6e
 8996 2537 7A1C0000 		.4byte	0x1c7a
 8997 253b 18       		.byte	0x18
 8998 253c 08       		.uleb128 0x8
 8999 253d A51A0000 		.4byte	.LASF613
 9000 2541 20       		.byte	0x20
 9001 2542 6E       		.byte	0x6e
 9002 2543 9E1C0000 		.4byte	0x1c9e
ARM GAS  /tmp/ccU5UnMV.s 			page 173


 9003 2547 1C       		.byte	0x1c
 9004 2548 00       		.byte	0
 9005 2549 06       		.uleb128 0x6
 9006 254a DC240000 		.4byte	0x24dc
 9007 254e 0B       		.uleb128 0xb
 9008 254f 04       		.byte	0x4
 9009 2550 49250000 		.4byte	0x2549
 9010 2554 11       		.uleb128 0x11
 9011 2555 D4000000 		.4byte	0xd4
 9012 2559 64250000 		.4byte	0x2564
 9013 255d 12       		.uleb128 0x12
 9014 255e 48000000 		.4byte	0x48
 9015 2562 7F       		.byte	0x7f
 9016 2563 00       		.byte	0
 9017 2564 0B       		.uleb128 0xb
 9018 2565 04       		.byte	0x4
 9019 2566 710A0000 		.4byte	0xa71
 9020 256a 20       		.uleb128 0x20
 9021 256b 07       		.byte	0x7
 9022 256c 01       		.byte	0x1
 9023 256d 6C000000 		.4byte	0x6c
 9024 2571 22       		.byte	0x22
 9025 2572 46       		.byte	0x46
 9026 2573 96250000 		.4byte	0x2596
 9027 2577 21       		.uleb128 0x21
 9028 2578 AC080000 		.4byte	.LASF614
 9029 257c 00       		.byte	0
 9030 257d 21       		.uleb128 0x21
 9031 257e A5030000 		.4byte	.LASF615
 9032 2582 01       		.byte	0x1
 9033 2583 21       		.uleb128 0x21
 9034 2584 90310000 		.4byte	.LASF616
 9035 2588 02       		.byte	0x2
 9036 2589 21       		.uleb128 0x21
 9037 258a 38180000 		.4byte	.LASF617
 9038 258e 03       		.byte	0x3
 9039 258f 21       		.uleb128 0x21
 9040 2590 0A1B0000 		.4byte	.LASF618
 9041 2594 04       		.byte	0x4
 9042 2595 00       		.byte	0
 9043 2596 05       		.uleb128 0x5
 9044 2597 F8030000 		.4byte	.LASF619
 9045 259b 22       		.byte	0x22
 9046 259c 4C       		.byte	0x4c
 9047 259d 6A250000 		.4byte	0x256a
 9048 25a1 18       		.uleb128 0x18
 9049 25a2 2D2E0000 		.4byte	.LASF620
 9050 25a6 23       		.byte	0x23
 9051 25a7 9601     		.2byte	0x196
 9052 25a9 AD250000 		.4byte	0x25ad
 9053 25ad 0C       		.uleb128 0xc
 9054 25ae 2D2E0000 		.4byte	.LASF620
 9055 25b2 30       		.byte	0x30
 9056 25b3 23       		.byte	0x23
 9057 25b4 BA01     		.2byte	0x1ba
 9058 25b6 30260000 		.4byte	0x2630
 9059 25ba 0A       		.uleb128 0xa
ARM GAS  /tmp/ccU5UnMV.s 			page 174


 9060 25bb 211E0000 		.4byte	.LASF526
 9061 25bf 23       		.byte	0x23
 9062 25c0 BE01     		.2byte	0x1be
 9063 25c2 96250000 		.4byte	0x2596
 9064 25c6 00       		.byte	0
 9065 25c7 0A       		.uleb128 0xa
 9066 25c8 4D300000 		.4byte	.LASF527
 9067 25cc 23       		.byte	0x23
 9068 25cd C201     		.2byte	0x1c2
 9069 25cf A2260000 		.4byte	0x26a2
 9070 25d3 04       		.byte	0x4
 9071 25d4 0A       		.uleb128 0xa
 9072 25d5 94080000 		.4byte	.LASF561
 9073 25d9 23       		.byte	0x23
 9074 25da C701     		.2byte	0x1c7
 9075 25dc AD020000 		.4byte	0x2ad
 9076 25e0 08       		.byte	0x8
 9077 25e1 0A       		.uleb128 0xa
 9078 25e2 6B110000 		.4byte	.LASF560
 9079 25e6 23       		.byte	0x23
 9080 25e7 CD01     		.2byte	0x1cd
 9081 25e9 310E0000 		.4byte	0xe31
 9082 25ed 0C       		.byte	0xc
 9083 25ee 09       		.uleb128 0x9
 9084 25ef 73706900 		.ascii	"spi\000"
 9085 25f3 23       		.byte	0x23
 9086 25f4 D601     		.2byte	0x1d6
 9087 25f6 A8260000 		.4byte	0x26a8
 9088 25fa 1C       		.byte	0x1c
 9089 25fb 0A       		.uleb128 0xa
 9090 25fc 85010000 		.4byte	.LASF565
 9091 2600 23       		.byte	0x23
 9092 2601 DA01     		.2byte	0x1da
 9093 2603 42210000 		.4byte	0x2142
 9094 2607 20       		.byte	0x20
 9095 2608 0A       		.uleb128 0xa
 9096 2609 CD020000 		.4byte	.LASF566
 9097 260d 23       		.byte	0x23
 9098 260e DE01     		.2byte	0x1de
 9099 2610 42210000 		.4byte	0x2142
 9100 2614 24       		.byte	0x24
 9101 2615 0A       		.uleb128 0xa
 9102 2616 330A0000 		.4byte	.LASF563
 9103 261a 23       		.byte	0x23
 9104 261b E201     		.2byte	0x1e2
 9105 261d 04010000 		.4byte	0x104
 9106 2621 28       		.byte	0x28
 9107 2622 0A       		.uleb128 0xa
 9108 2623 A80A0000 		.4byte	.LASF564
 9109 2627 23       		.byte	0x23
 9110 2628 E601     		.2byte	0x1e6
 9111 262a 04010000 		.4byte	0x104
 9112 262e 2C       		.byte	0x2c
 9113 262f 00       		.byte	0
 9114 2630 18       		.uleb128 0x18
 9115 2631 BB010000 		.4byte	.LASF621
 9116 2635 23       		.byte	0x23
ARM GAS  /tmp/ccU5UnMV.s 			page 175


 9117 2636 9E01     		.2byte	0x19e
 9118 2638 3C260000 		.4byte	0x263c
 9119 263c 0B       		.uleb128 0xb
 9120 263d 04       		.byte	0x4
 9121 263e 42260000 		.4byte	0x2642
 9122 2642 0D       		.uleb128 0xd
 9123 2643 4D260000 		.4byte	0x264d
 9124 2647 0E       		.uleb128 0xe
 9125 2648 4D260000 		.4byte	0x264d
 9126 264c 00       		.byte	0
 9127 264d 0B       		.uleb128 0xb
 9128 264e 04       		.byte	0x4
 9129 264f A1250000 		.4byte	0x25a1
 9130 2653 17       		.uleb128 0x17
 9131 2654 0C       		.byte	0xc
 9132 2655 23       		.byte	0x23
 9133 2656 A301     		.2byte	0x1a3
 9134 2658 91260000 		.4byte	0x2691
 9135 265c 0A       		.uleb128 0xa
 9136 265d 380B0000 		.4byte	.LASF622
 9137 2661 23       		.byte	0x23
 9138 2662 A701     		.2byte	0x1a7
 9139 2664 30260000 		.4byte	0x2630
 9140 2668 00       		.byte	0
 9141 2669 0A       		.uleb128 0xa
 9142 266a B4320000 		.4byte	.LASF623
 9143 266e 23       		.byte	0x23
 9144 266f AC01     		.2byte	0x1ac
 9145 2671 6A1E0000 		.4byte	0x1e6a
 9146 2675 04       		.byte	0x4
 9147 2676 0A       		.uleb128 0xa
 9148 2677 A20A0000 		.4byte	.LASF624
 9149 267b 23       		.byte	0x23
 9150 267c B001     		.2byte	0x1b0
 9151 267e E4000000 		.4byte	0xe4
 9152 2682 08       		.byte	0x8
 9153 2683 09       		.uleb128 0x9
 9154 2684 63723100 		.ascii	"cr1\000"
 9155 2688 23       		.byte	0x23
 9156 2689 B401     		.2byte	0x1b4
 9157 268b E4000000 		.4byte	0xe4
 9158 268f 0A       		.byte	0xa
 9159 2690 00       		.byte	0
 9160 2691 18       		.uleb128 0x18
 9161 2692 3D2E0000 		.4byte	.LASF625
 9162 2696 23       		.byte	0x23
 9163 2697 B501     		.2byte	0x1b5
 9164 2699 53260000 		.4byte	0x2653
 9165 269d 06       		.uleb128 0x6
 9166 269e 91260000 		.4byte	0x2691
 9167 26a2 0B       		.uleb128 0xb
 9168 26a3 04       		.byte	0x4
 9169 26a4 9D260000 		.4byte	0x269d
 9170 26a8 0B       		.uleb128 0xb
 9171 26a9 04       		.byte	0x4
 9172 26aa DD080000 		.4byte	0x8dd
 9173 26ae 13       		.uleb128 0x13
ARM GAS  /tmp/ccU5UnMV.s 			page 176


 9174 26af 96200000 		.4byte	.LASF626
 9175 26b3 23       		.byte	0x23
 9176 26b4 F201     		.2byte	0x1f2
 9177 26b6 A1250000 		.4byte	0x25a1
 9178 26ba 05       		.uleb128 0x5
 9179 26bb 6D180000 		.4byte	.LASF627
 9180 26bf 24       		.byte	0x24
 9181 26c0 FA       		.byte	0xfa
 9182 26c1 C5260000 		.4byte	0x26c5
 9183 26c5 10       		.uleb128 0x10
 9184 26c6 6D180000 		.4byte	.LASF627
 9185 26ca 8002     		.2byte	0x280
 9186 26cc 25       		.byte	0x25
 9187 26cd 7701     		.2byte	0x177
 9188 26cf F1270000 		.4byte	0x27f1
 9189 26d3 0A       		.uleb128 0xa
 9190 26d4 211E0000 		.4byte	.LASF526
 9191 26d8 25       		.byte	0x25
 9192 26d9 7B01     		.2byte	0x17b
 9193 26db 29280000 		.4byte	0x2829
 9194 26df 00       		.byte	0
 9195 26e0 0A       		.uleb128 0xa
 9196 26e1 4D300000 		.4byte	.LASF527
 9197 26e5 25       		.byte	0x25
 9198 26e6 7F01     		.2byte	0x17f
 9199 26e8 4C310000 		.4byte	0x314c
 9200 26ec 04       		.byte	0x4
 9201 26ed 0A       		.uleb128 0xa
 9202 26ee 902E0000 		.4byte	.LASF628
 9203 26f2 25       		.byte	0x25
 9204 26f3 8301     		.2byte	0x183
 9205 26f5 E4000000 		.4byte	0xe4
 9206 26f9 08       		.byte	0x8
 9207 26fa 0A       		.uleb128 0xa
 9208 26fb 38330000 		.4byte	.LASF629
 9209 26ff 25       		.byte	0x25
 9210 2700 8701     		.2byte	0x187
 9211 2702 E4000000 		.4byte	0xe4
 9212 2706 0A       		.byte	0xa
 9213 2707 09       		.uleb128 0x9
 9214 2708 65706300 		.ascii	"epc\000"
 9215 270c 25       		.byte	0x25
 9216 270d 8B01     		.2byte	0x18b
 9217 270f 52310000 		.4byte	0x3152
 9218 2713 0C       		.byte	0xc
 9219 2714 0A       		.uleb128 0xa
 9220 2715 F7080000 		.4byte	.LASF630
 9221 2719 25       		.byte	0x25
 9222 271a 9201     		.2byte	0x192
 9223 271c 68310000 		.4byte	0x3168
 9224 2720 1C       		.byte	0x1c
 9225 2721 0A       		.uleb128 0xa
 9226 2722 31100000 		.4byte	.LASF631
 9227 2726 25       		.byte	0x25
 9228 2727 9901     		.2byte	0x199
 9229 2729 68310000 		.4byte	0x3168
 9230 272d 28       		.byte	0x28
ARM GAS  /tmp/ccU5UnMV.s 			page 177


 9231 272e 0A       		.uleb128 0xa
 9232 272f BE0B0000 		.4byte	.LASF632
 9233 2733 25       		.byte	0x25
 9234 2734 9D01     		.2byte	0x19d
 9235 2736 6E280000 		.4byte	0x286e
 9236 273a 34       		.byte	0x34
 9237 273b 0A       		.uleb128 0xa
 9238 273c 20060000 		.4byte	.LASF633
 9239 2740 25       		.byte	0x25
 9240 2741 A101     		.2byte	0x1a1
 9241 2743 5A0F0000 		.4byte	0xf5a
 9242 2747 38       		.byte	0x38
 9243 2748 0A       		.uleb128 0xa
 9244 2749 08200000 		.4byte	.LASF634
 9245 274d 25       		.byte	0x25
 9246 274e A501     		.2byte	0x1a5
 9247 2750 38000000 		.4byte	0x38
 9248 2754 3C       		.byte	0x3c
 9249 2755 0A       		.uleb128 0xa
 9250 2756 392A0000 		.4byte	.LASF635
 9251 275a 25       		.byte	0x25
 9252 275b A901     		.2byte	0x1a9
 9253 275d EE280000 		.4byte	0x28ee
 9254 2761 40       		.byte	0x40
 9255 2762 0A       		.uleb128 0xa
 9256 2763 A6080000 		.4byte	.LASF636
 9257 2767 25       		.byte	0x25
 9258 2768 AD01     		.2byte	0x1ad
 9259 276a 7D180000 		.4byte	0x187d
 9260 276e 44       		.byte	0x44
 9261 276f 0A       		.uleb128 0xa
 9262 2770 5B1D0000 		.4byte	.LASF637
 9263 2774 25       		.byte	0x25
 9264 2775 B101     		.2byte	0x1b1
 9265 2777 E4000000 		.4byte	0xe4
 9266 277b 4C       		.byte	0x4c
 9267 277c 0A       		.uleb128 0xa
 9268 277d AB1D0000 		.4byte	.LASF638
 9269 2781 25       		.byte	0x25
 9270 2782 B501     		.2byte	0x1b5
 9271 2784 D4000000 		.4byte	0xd4
 9272 2788 4E       		.byte	0x4e
 9273 2789 0A       		.uleb128 0xa
 9274 278a AF240000 		.4byte	.LASF639
 9275 278e 25       		.byte	0x25
 9276 278f B901     		.2byte	0x1b9
 9277 2791 D4000000 		.4byte	0xd4
 9278 2795 4F       		.byte	0x4f
 9279 2796 09       		.uleb128 0x9
 9280 2797 6F746700 		.ascii	"otg\000"
 9281 279b 25       		.byte	0x25
 9282 279c C101     		.2byte	0x1c1
 9283 279e 78310000 		.4byte	0x3178
 9284 27a2 50       		.byte	0x50
 9285 27a3 0A       		.uleb128 0xa
 9286 27a4 8B130000 		.4byte	.LASF640
 9287 27a8 25       		.byte	0x25
ARM GAS  /tmp/ccU5UnMV.s 			page 178


 9288 27a9 C501     		.2byte	0x1c5
 9289 27ab 7E310000 		.4byte	0x317e
 9290 27af 54       		.byte	0x54
 9291 27b0 0A       		.uleb128 0xa
 9292 27b1 192C0000 		.4byte	.LASF641
 9293 27b5 25       		.byte	0x25
 9294 27b6 C901     		.2byte	0x1c9
 9295 27b8 04010000 		.4byte	0x104
 9296 27bc 58       		.byte	0x58
 9297 27bd 0A       		.uleb128 0xa
 9298 27be F8110000 		.4byte	.LASF642
 9299 27c2 25       		.byte	0x25
 9300 27c3 CD01     		.2byte	0x1cd
 9301 27c5 04010000 		.4byte	0x104
 9302 27c9 5C       		.byte	0x5c
 9303 27ca 0A       		.uleb128 0xa
 9304 27cb CB090000 		.4byte	.LASF643
 9305 27cf 25       		.byte	0x25
 9306 27d0 D101     		.2byte	0x1d1
 9307 27d2 AD020000 		.4byte	0x2ad
 9308 27d6 60       		.byte	0x60
 9309 27d7 09       		.uleb128 0x9
 9310 27d8 747200   		.ascii	"tr\000"
 9311 27db 25       		.byte	0x25
 9312 27dc D601     		.2byte	0x1d6
 9313 27de AD020000 		.4byte	0x2ad
 9314 27e2 64       		.byte	0x64
 9315 27e3 0A       		.uleb128 0xa
 9316 27e4 2A1C0000 		.4byte	.LASF644
 9317 27e8 25       		.byte	0x25
 9318 27e9 DA01     		.2byte	0x1da
 9319 27eb 84310000 		.4byte	0x3184
 9320 27ef 68       		.byte	0x68
 9321 27f0 00       		.byte	0
 9322 27f1 05       		.uleb128 0x5
 9323 27f2 E5010000 		.4byte	.LASF645
 9324 27f6 24       		.byte	0x24
 9325 27f7 FF       		.byte	0xff
 9326 27f8 D4000000 		.4byte	0xd4
 9327 27fc 24       		.uleb128 0x24
 9328 27fd 07       		.byte	0x7
 9329 27fe 01       		.byte	0x1
 9330 27ff 6C000000 		.4byte	0x6c
 9331 2803 24       		.byte	0x24
 9332 2804 0401     		.2byte	0x104
 9333 2806 29280000 		.4byte	0x2829
 9334 280a 21       		.uleb128 0x21
 9335 280b 96340000 		.4byte	.LASF646
 9336 280f 00       		.byte	0
 9337 2810 21       		.uleb128 0x21
 9338 2811 00000000 		.4byte	.LASF647
 9339 2815 01       		.byte	0x1
 9340 2816 21       		.uleb128 0x21
 9341 2817 9B1A0000 		.4byte	.LASF648
 9342 281b 02       		.byte	0x2
 9343 281c 21       		.uleb128 0x21
 9344 281d 1D220000 		.4byte	.LASF649
ARM GAS  /tmp/ccU5UnMV.s 			page 179


 9345 2821 03       		.byte	0x3
 9346 2822 21       		.uleb128 0x21
 9347 2823 E3090000 		.4byte	.LASF650
 9348 2827 04       		.byte	0x4
 9349 2828 00       		.byte	0
 9350 2829 18       		.uleb128 0x18
 9351 282a E92E0000 		.4byte	.LASF651
 9352 282e 24       		.byte	0x24
 9353 282f 0A01     		.2byte	0x10a
 9354 2831 FC270000 		.4byte	0x27fc
 9355 2835 24       		.uleb128 0x24
 9356 2836 07       		.byte	0x7
 9357 2837 01       		.byte	0x1
 9358 2838 6C000000 		.4byte	0x6c
 9359 283c 24       		.byte	0x24
 9360 283d 1801     		.2byte	0x118
 9361 283f 6E280000 		.4byte	0x286e
 9362 2843 21       		.uleb128 0x21
 9363 2844 D9290000 		.4byte	.LASF652
 9364 2848 00       		.byte	0
 9365 2849 21       		.uleb128 0x21
 9366 284a 5C160000 		.4byte	.LASF653
 9367 284e 01       		.byte	0x1
 9368 284f 21       		.uleb128 0x21
 9369 2850 1F260000 		.4byte	.LASF654
 9370 2854 02       		.byte	0x2
 9371 2855 21       		.uleb128 0x21
 9372 2856 391E0000 		.4byte	.LASF655
 9373 285a 03       		.byte	0x3
 9374 285b 21       		.uleb128 0x21
 9375 285c 3A1D0000 		.4byte	.LASF656
 9376 2860 04       		.byte	0x4
 9377 2861 21       		.uleb128 0x21
 9378 2862 CB170000 		.4byte	.LASF657
 9379 2866 05       		.byte	0x5
 9380 2867 21       		.uleb128 0x21
 9381 2868 E1140000 		.4byte	.LASF658
 9382 286c 06       		.byte	0x6
 9383 286d 00       		.byte	0
 9384 286e 18       		.uleb128 0x18
 9385 286f 1F180000 		.4byte	.LASF659
 9386 2873 24       		.byte	0x24
 9387 2874 2001     		.2byte	0x120
 9388 2876 35280000 		.4byte	0x2835
 9389 287a 24       		.uleb128 0x24
 9390 287b 07       		.byte	0x7
 9391 287c 01       		.byte	0x1
 9392 287d 6C000000 		.4byte	0x6c
 9393 2881 24       		.byte	0x24
 9394 2882 2501     		.2byte	0x125
 9395 2884 AD280000 		.4byte	0x28ad
 9396 2888 21       		.uleb128 0x21
 9397 2889 00220000 		.4byte	.LASF660
 9398 288d 00       		.byte	0
 9399 288e 21       		.uleb128 0x21
 9400 288f 42310000 		.4byte	.LASF661
 9401 2893 01       		.byte	0x1
ARM GAS  /tmp/ccU5UnMV.s 			page 180


 9402 2894 21       		.uleb128 0x21
 9403 2895 9D1B0000 		.4byte	.LASF662
 9404 2899 02       		.byte	0x2
 9405 289a 21       		.uleb128 0x21
 9406 289b 7D1C0000 		.4byte	.LASF663
 9407 289f 03       		.byte	0x3
 9408 28a0 21       		.uleb128 0x21
 9409 28a1 59320000 		.4byte	.LASF664
 9410 28a5 04       		.byte	0x4
 9411 28a6 21       		.uleb128 0x21
 9412 28a7 361B0000 		.4byte	.LASF665
 9413 28ab 05       		.byte	0x5
 9414 28ac 00       		.byte	0
 9415 28ad 18       		.uleb128 0x18
 9416 28ae 69230000 		.4byte	.LASF666
 9417 28b2 24       		.byte	0x24
 9418 28b3 2C01     		.2byte	0x12c
 9419 28b5 7A280000 		.4byte	0x287a
 9420 28b9 17       		.uleb128 0x17
 9421 28ba 08       		.byte	0x8
 9422 28bb 24       		.byte	0x24
 9423 28bc 3101     		.2byte	0x131
 9424 28be DD280000 		.4byte	0x28dd
 9425 28c2 0A       		.uleb128 0xa
 9426 28c3 A8350000 		.4byte	.LASF667
 9427 28c7 24       		.byte	0x24
 9428 28c8 3501     		.2byte	0x135
 9429 28ca 38000000 		.4byte	0x38
 9430 28ce 00       		.byte	0
 9431 28cf 0A       		.uleb128 0xa
 9432 28d0 B6050000 		.4byte	.LASF668
 9433 28d4 24       		.byte	0x24
 9434 28d5 3901     		.2byte	0x139
 9435 28d7 8F0F0000 		.4byte	0xf8f
 9436 28db 04       		.byte	0x4
 9437 28dc 00       		.byte	0
 9438 28dd 18       		.uleb128 0x18
 9439 28de 781D0000 		.4byte	.LASF669
 9440 28e2 24       		.byte	0x24
 9441 28e3 3A01     		.2byte	0x13a
 9442 28e5 B9280000 		.4byte	0x28b9
 9443 28e9 06       		.uleb128 0x6
 9444 28ea DD280000 		.4byte	0x28dd
 9445 28ee 18       		.uleb128 0x18
 9446 28ef 14350000 		.4byte	.LASF670
 9447 28f3 24       		.byte	0x24
 9448 28f4 4201     		.2byte	0x142
 9449 28f6 FA280000 		.4byte	0x28fa
 9450 28fa 0B       		.uleb128 0xb
 9451 28fb 04       		.byte	0x4
 9452 28fc 00290000 		.4byte	0x2900
 9453 2900 0D       		.uleb128 0xd
 9454 2901 0B290000 		.4byte	0x290b
 9455 2905 0E       		.uleb128 0xe
 9456 2906 0B290000 		.4byte	0x290b
 9457 290a 00       		.byte	0
 9458 290b 0B       		.uleb128 0xb
ARM GAS  /tmp/ccU5UnMV.s 			page 181


 9459 290c 04       		.byte	0x4
 9460 290d BA260000 		.4byte	0x26ba
 9461 2911 18       		.uleb128 0x18
 9462 2912 28060000 		.4byte	.LASF671
 9463 2916 24       		.byte	0x24
 9464 2917 4B01     		.2byte	0x14b
 9465 2919 1D290000 		.4byte	0x291d
 9466 291d 0B       		.uleb128 0xb
 9467 291e 04       		.byte	0x4
 9468 291f 23290000 		.4byte	0x2923
 9469 2923 0D       		.uleb128 0xd
 9470 2924 33290000 		.4byte	0x2933
 9471 2928 0E       		.uleb128 0xe
 9472 2929 0B290000 		.4byte	0x290b
 9473 292d 0E       		.uleb128 0xe
 9474 292e F1270000 		.4byte	0x27f1
 9475 2932 00       		.byte	0
 9476 2933 18       		.uleb128 0x18
 9477 2934 7A0D0000 		.4byte	.LASF672
 9478 2938 24       		.byte	0x24
 9479 2939 5401     		.2byte	0x154
 9480 293b 3F290000 		.4byte	0x293f
 9481 293f 0B       		.uleb128 0xb
 9482 2940 04       		.byte	0x4
 9483 2941 45290000 		.4byte	0x2945
 9484 2945 0D       		.uleb128 0xd
 9485 2946 55290000 		.4byte	0x2955
 9486 294a 0E       		.uleb128 0xe
 9487 294b 0B290000 		.4byte	0x290b
 9488 294f 0E       		.uleb128 0xe
 9489 2950 AD280000 		.4byte	0x28ad
 9490 2954 00       		.byte	0
 9491 2955 18       		.uleb128 0x18
 9492 2956 8A210000 		.4byte	.LASF673
 9493 295a 24       		.byte	0x24
 9494 295b 6001     		.2byte	0x160
 9495 295d 61290000 		.4byte	0x2961
 9496 2961 0B       		.uleb128 0xb
 9497 2962 04       		.byte	0x4
 9498 2963 67290000 		.4byte	0x2967
 9499 2967 1F       		.uleb128 0x1f
 9500 2968 66180000 		.4byte	0x1866
 9501 296c 76290000 		.4byte	0x2976
 9502 2970 0E       		.uleb128 0xe
 9503 2971 0B290000 		.4byte	0x290b
 9504 2975 00       		.byte	0
 9505 2976 18       		.uleb128 0x18
 9506 2977 2F160000 		.4byte	.LASF674
 9507 297b 24       		.byte	0x24
 9508 297c 6501     		.2byte	0x165
 9509 297e 82290000 		.4byte	0x2982
 9510 2982 0B       		.uleb128 0xb
 9511 2983 04       		.byte	0x4
 9512 2984 88290000 		.4byte	0x2988
 9513 2988 1F       		.uleb128 0x1f
 9514 2989 A6290000 		.4byte	0x29a6
 9515 298d A6290000 		.4byte	0x29a6
ARM GAS  /tmp/ccU5UnMV.s 			page 182


 9516 2991 0E       		.uleb128 0xe
 9517 2992 0B290000 		.4byte	0x290b
 9518 2996 0E       		.uleb128 0xe
 9519 2997 D4000000 		.4byte	0xd4
 9520 299b 0E       		.uleb128 0xe
 9521 299c D4000000 		.4byte	0xd4
 9522 29a0 0E       		.uleb128 0xe
 9523 29a1 E4000000 		.4byte	0xe4
 9524 29a5 00       		.byte	0
 9525 29a6 0B       		.uleb128 0xb
 9526 29a7 04       		.byte	0x4
 9527 29a8 E9280000 		.4byte	0x28e9
 9528 29ac 15       		.uleb128 0x15
 9529 29ad 20       		.byte	0x20
 9530 29ae 26       		.byte	0x26
 9531 29af 35       		.byte	0x35
 9532 29b0 152A0000 		.4byte	0x2a15
 9533 29b4 08       		.uleb128 0x8
 9534 29b5 03040000 		.4byte	.LASF675
 9535 29b9 26       		.byte	0x26
 9536 29ba 36       		.byte	0x36
 9537 29bb 0F010000 		.4byte	0x10f
 9538 29bf 00       		.byte	0
 9539 29c0 08       		.uleb128 0x8
 9540 29c1 65120000 		.4byte	.LASF676
 9541 29c5 26       		.byte	0x26
 9542 29c6 38       		.byte	0x38
 9543 29c7 0F010000 		.4byte	0x10f
 9544 29cb 04       		.byte	0x4
 9545 29cc 08       		.uleb128 0x8
 9546 29cd 86030000 		.4byte	.LASF677
 9547 29d1 26       		.byte	0x26
 9548 29d2 39       		.byte	0x39
 9549 29d3 0F010000 		.4byte	0x10f
 9550 29d7 08       		.byte	0x8
 9551 29d8 08       		.uleb128 0x8
 9552 29d9 0D270000 		.4byte	.LASF678
 9553 29dd 26       		.byte	0x26
 9554 29de 3A       		.byte	0x3a
 9555 29df 0F010000 		.4byte	0x10f
 9556 29e3 0C       		.byte	0xc
 9557 29e4 08       		.uleb128 0x8
 9558 29e5 531C0000 		.4byte	.LASF679
 9559 29e9 26       		.byte	0x26
 9560 29ea 3C       		.byte	0x3c
 9561 29eb 0F010000 		.4byte	0x10f
 9562 29ef 10       		.byte	0x10
 9563 29f0 08       		.uleb128 0x8
 9564 29f1 AE120000 		.4byte	.LASF680
 9565 29f5 26       		.byte	0x26
 9566 29f6 3E       		.byte	0x3e
 9567 29f7 0F010000 		.4byte	0x10f
 9568 29fb 14       		.byte	0x14
 9569 29fc 08       		.uleb128 0x8
 9570 29fd C0120000 		.4byte	.LASF681
 9571 2a01 26       		.byte	0x26
 9572 2a02 3F       		.byte	0x3f
ARM GAS  /tmp/ccU5UnMV.s 			page 183


 9573 2a03 0F010000 		.4byte	0x10f
 9574 2a07 18       		.byte	0x18
 9575 2a08 08       		.uleb128 0x8
 9576 2a09 882E0000 		.4byte	.LASF682
 9577 2a0d 26       		.byte	0x26
 9578 2a0e 40       		.byte	0x40
 9579 2a0f 0F010000 		.4byte	0x10f
 9580 2a13 1C       		.byte	0x1c
 9581 2a14 00       		.byte	0
 9582 2a15 05       		.uleb128 0x5
 9583 2a16 51260000 		.4byte	.LASF683
 9584 2a1a 26       		.byte	0x26
 9585 2a1b 41       		.byte	0x41
 9586 2a1c AC290000 		.4byte	0x29ac
 9587 2a20 15       		.uleb128 0x15
 9588 2a21 20       		.byte	0x20
 9589 2a22 26       		.byte	0x26
 9590 2a23 46       		.byte	0x46
 9591 2a24 892A0000 		.4byte	0x2a89
 9592 2a28 08       		.uleb128 0x8
 9593 2a29 66130000 		.4byte	.LASF684
 9594 2a2d 26       		.byte	0x26
 9595 2a2e 47       		.byte	0x47
 9596 2a2f 0F010000 		.4byte	0x10f
 9597 2a33 00       		.byte	0
 9598 2a34 08       		.uleb128 0x8
 9599 2a35 56120000 		.4byte	.LASF685
 9600 2a39 26       		.byte	0x26
 9601 2a3a 49       		.byte	0x49
 9602 2a3b 0F010000 		.4byte	0x10f
 9603 2a3f 04       		.byte	0x4
 9604 2a40 08       		.uleb128 0x8
 9605 2a41 FF2C0000 		.4byte	.LASF686
 9606 2a45 26       		.byte	0x26
 9607 2a46 4A       		.byte	0x4a
 9608 2a47 0F010000 		.4byte	0x10f
 9609 2a4b 08       		.byte	0x8
 9610 2a4c 08       		.uleb128 0x8
 9611 2a4d 8A180000 		.4byte	.LASF687
 9612 2a51 26       		.byte	0x26
 9613 2a52 4C       		.byte	0x4c
 9614 2a53 0F010000 		.4byte	0x10f
 9615 2a57 0C       		.byte	0xc
 9616 2a58 08       		.uleb128 0x8
 9617 2a59 1D1F0000 		.4byte	.LASF688
 9618 2a5d 26       		.byte	0x26
 9619 2a5e 4D       		.byte	0x4d
 9620 2a5f 0F010000 		.4byte	0x10f
 9621 2a63 10       		.byte	0x10
 9622 2a64 08       		.uleb128 0x8
 9623 2a65 AE120000 		.4byte	.LASF680
 9624 2a69 26       		.byte	0x26
 9625 2a6a 4F       		.byte	0x4f
 9626 2a6b 0F010000 		.4byte	0x10f
 9627 2a6f 14       		.byte	0x14
 9628 2a70 08       		.uleb128 0x8
 9629 2a71 B7080000 		.4byte	.LASF689
ARM GAS  /tmp/ccU5UnMV.s 			page 184


 9630 2a75 26       		.byte	0x26
 9631 2a76 50       		.byte	0x50
 9632 2a77 0F010000 		.4byte	0x10f
 9633 2a7b 18       		.byte	0x18
 9634 2a7c 08       		.uleb128 0x8
 9635 2a7d E82C0000 		.4byte	.LASF690
 9636 2a81 26       		.byte	0x26
 9637 2a82 52       		.byte	0x52
 9638 2a83 0F010000 		.4byte	0x10f
 9639 2a87 1C       		.byte	0x1c
 9640 2a88 00       		.byte	0
 9641 2a89 05       		.uleb128 0x5
 9642 2a8a 1B0A0000 		.4byte	.LASF691
 9643 2a8e 26       		.byte	0x26
 9644 2a8f 53       		.byte	0x53
 9645 2a90 202A0000 		.4byte	0x2a20
 9646 2a94 15       		.uleb128 0x15
 9647 2a95 20       		.byte	0x20
 9648 2a96 26       		.byte	0x26
 9649 2a97 58       		.byte	0x58
 9650 2a98 FD2A0000 		.4byte	0x2afd
 9651 2a9c 08       		.uleb128 0x8
 9652 2a9d EE260000 		.4byte	.LASF692
 9653 2aa1 26       		.byte	0x26
 9654 2aa2 59       		.byte	0x59
 9655 2aa3 0F010000 		.4byte	0x10f
 9656 2aa7 00       		.byte	0
 9657 2aa8 08       		.uleb128 0x8
 9658 2aa9 56120000 		.4byte	.LASF685
 9659 2aad 26       		.byte	0x26
 9660 2aae 5B       		.byte	0x5b
 9661 2aaf 0F010000 		.4byte	0x10f
 9662 2ab3 04       		.byte	0x4
 9663 2ab4 08       		.uleb128 0x8
 9664 2ab5 19210000 		.4byte	.LASF693
 9665 2ab9 26       		.byte	0x26
 9666 2aba 5C       		.byte	0x5c
 9667 2abb 0F010000 		.4byte	0x10f
 9668 2abf 08       		.byte	0x8
 9669 2ac0 08       		.uleb128 0x8
 9670 2ac1 8A180000 		.4byte	.LASF687
 9671 2ac5 26       		.byte	0x26
 9672 2ac6 5E       		.byte	0x5e
 9673 2ac7 0F010000 		.4byte	0x10f
 9674 2acb 0C       		.byte	0xc
 9675 2acc 08       		.uleb128 0x8
 9676 2acd F42E0000 		.4byte	.LASF694
 9677 2ad1 26       		.byte	0x26
 9678 2ad2 5F       		.byte	0x5f
 9679 2ad3 0F010000 		.4byte	0x10f
 9680 2ad7 10       		.byte	0x10
 9681 2ad8 08       		.uleb128 0x8
 9682 2ad9 AE120000 		.4byte	.LASF680
 9683 2add 26       		.byte	0x26
 9684 2ade 61       		.byte	0x61
 9685 2adf 0F010000 		.4byte	0x10f
 9686 2ae3 14       		.byte	0x14
ARM GAS  /tmp/ccU5UnMV.s 			page 185


 9687 2ae4 08       		.uleb128 0x8
 9688 2ae5 C0120000 		.4byte	.LASF681
 9689 2ae9 26       		.byte	0x26
 9690 2aea 62       		.byte	0x62
 9691 2aeb 0F010000 		.4byte	0x10f
 9692 2aef 18       		.byte	0x18
 9693 2af0 08       		.uleb128 0x8
 9694 2af1 E82C0000 		.4byte	.LASF690
 9695 2af5 26       		.byte	0x26
 9696 2af6 63       		.byte	0x63
 9697 2af7 0F010000 		.4byte	0x10f
 9698 2afb 1C       		.byte	0x1c
 9699 2afc 00       		.byte	0
 9700 2afd 05       		.uleb128 0x5
 9701 2afe 9D1F0000 		.4byte	.LASF695
 9702 2b02 26       		.byte	0x26
 9703 2b03 64       		.byte	0x64
 9704 2b04 942A0000 		.4byte	0x2a94
 9705 2b08 27       		.uleb128 0x27
 9706 2b09 00100100 		.4byte	0x11000
 9707 2b0d 26       		.byte	0x26
 9708 2b0e 69       		.byte	0x69
 9709 2b0f E52D0000 		.4byte	0x2de5
 9710 2b13 08       		.uleb128 0x8
 9711 2b14 18060000 		.4byte	.LASF696
 9712 2b18 26       		.byte	0x26
 9713 2b19 6A       		.byte	0x6a
 9714 2b1a 0F010000 		.4byte	0x10f
 9715 2b1e 00       		.byte	0
 9716 2b1f 08       		.uleb128 0x8
 9717 2b20 09100000 		.4byte	.LASF697
 9718 2b24 26       		.byte	0x26
 9719 2b25 6B       		.byte	0x6b
 9720 2b26 0F010000 		.4byte	0x10f
 9721 2b2a 04       		.byte	0x4
 9722 2b2b 08       		.uleb128 0x8
 9723 2b2c 24090000 		.4byte	.LASF698
 9724 2b30 26       		.byte	0x26
 9725 2b31 6C       		.byte	0x6c
 9726 2b32 0F010000 		.4byte	0x10f
 9727 2b36 08       		.byte	0x8
 9728 2b37 08       		.uleb128 0x8
 9729 2b38 3D350000 		.4byte	.LASF699
 9730 2b3c 26       		.byte	0x26
 9731 2b3d 6D       		.byte	0x6d
 9732 2b3e 0F010000 		.4byte	0x10f
 9733 2b42 0C       		.byte	0xc
 9734 2b43 08       		.uleb128 0x8
 9735 2b44 D61A0000 		.4byte	.LASF700
 9736 2b48 26       		.byte	0x26
 9737 2b49 6E       		.byte	0x6e
 9738 2b4a 0F010000 		.4byte	0x10f
 9739 2b4e 10       		.byte	0x10
 9740 2b4f 08       		.uleb128 0x8
 9741 2b50 1E0E0000 		.4byte	.LASF701
 9742 2b54 26       		.byte	0x26
 9743 2b55 6F       		.byte	0x6f
ARM GAS  /tmp/ccU5UnMV.s 			page 186


 9744 2b56 0F010000 		.4byte	0x10f
 9745 2b5a 14       		.byte	0x14
 9746 2b5b 08       		.uleb128 0x8
 9747 2b5c 67240000 		.4byte	.LASF702
 9748 2b60 26       		.byte	0x26
 9749 2b61 70       		.byte	0x70
 9750 2b62 0F010000 		.4byte	0x10f
 9751 2b66 18       		.byte	0x18
 9752 2b67 08       		.uleb128 0x8
 9753 2b68 B0090000 		.4byte	.LASF703
 9754 2b6c 26       		.byte	0x26
 9755 2b6d 71       		.byte	0x71
 9756 2b6e 0F010000 		.4byte	0x10f
 9757 2b72 1C       		.byte	0x1c
 9758 2b73 08       		.uleb128 0x8
 9759 2b74 A8090000 		.4byte	.LASF704
 9760 2b78 26       		.byte	0x26
 9761 2b79 73       		.byte	0x73
 9762 2b7a 0F010000 		.4byte	0x10f
 9763 2b7e 20       		.byte	0x20
 9764 2b7f 08       		.uleb128 0x8
 9765 2b80 532A0000 		.4byte	.LASF705
 9766 2b84 26       		.byte	0x26
 9767 2b85 75       		.byte	0x75
 9768 2b86 0F010000 		.4byte	0x10f
 9769 2b8a 24       		.byte	0x24
 9770 2b8b 08       		.uleb128 0x8
 9771 2b8c 03010000 		.4byte	.LASF706
 9772 2b90 26       		.byte	0x26
 9773 2b91 76       		.byte	0x76
 9774 2b92 0F010000 		.4byte	0x10f
 9775 2b96 28       		.byte	0x28
 9776 2b97 08       		.uleb128 0x8
 9777 2b98 8E240000 		.4byte	.LASF707
 9778 2b9c 26       		.byte	0x26
 9779 2b9d 78       		.byte	0x78
 9780 2b9e 0F010000 		.4byte	0x10f
 9781 2ba2 2C       		.byte	0x2c
 9782 2ba3 08       		.uleb128 0x8
 9783 2ba4 47140000 		.4byte	.LASF708
 9784 2ba8 26       		.byte	0x26
 9785 2ba9 7A       		.byte	0x7a
 9786 2baa 0F010000 		.4byte	0x10f
 9787 2bae 30       		.byte	0x30
 9788 2baf 08       		.uleb128 0x8
 9789 2bb0 5E140000 		.4byte	.LASF709
 9790 2bb4 26       		.byte	0x26
 9791 2bb5 7B       		.byte	0x7b
 9792 2bb6 0F010000 		.4byte	0x10f
 9793 2bba 34       		.byte	0x34
 9794 2bbb 08       		.uleb128 0x8
 9795 2bbc 7B020000 		.4byte	.LASF710
 9796 2bc0 26       		.byte	0x26
 9797 2bc1 7C       		.byte	0x7c
 9798 2bc2 0F010000 		.4byte	0x10f
 9799 2bc6 38       		.byte	0x38
 9800 2bc7 16       		.uleb128 0x16
ARM GAS  /tmp/ccU5UnMV.s 			page 187


 9801 2bc8 43494400 		.ascii	"CID\000"
 9802 2bcc 26       		.byte	0x26
 9803 2bcd 7D       		.byte	0x7d
 9804 2bce 0F010000 		.4byte	0x10f
 9805 2bd2 3C       		.byte	0x3c
 9806 2bd3 08       		.uleb128 0x8
 9807 2bd4 33170000 		.4byte	.LASF711
 9808 2bd8 26       		.byte	0x26
 9809 2bd9 7E       		.byte	0x7e
 9810 2bda F52D0000 		.4byte	0x2df5
 9811 2bde 40       		.byte	0x40
 9812 2bdf 23       		.uleb128 0x23
 9813 2be0 91300000 		.4byte	.LASF712
 9814 2be4 26       		.byte	0x26
 9815 2be5 7F       		.byte	0x7f
 9816 2be6 0F010000 		.4byte	0x10f
 9817 2bea 0001     		.2byte	0x100
 9818 2bec 23       		.uleb128 0x23
 9819 2bed 07030000 		.4byte	.LASF713
 9820 2bf1 26       		.byte	0x26
 9821 2bf2 81       		.byte	0x81
 9822 2bf3 8D0A0000 		.4byte	0xa8d
 9823 2bf7 0401     		.2byte	0x104
 9824 2bf9 23       		.uleb128 0x23
 9825 2bfa 411C0000 		.4byte	.LASF714
 9826 2bfe 26       		.byte	0x26
 9827 2bff 83       		.byte	0x83
 9828 2c00 0A2E0000 		.4byte	0x2e0a
 9829 2c04 4001     		.2byte	0x140
 9830 2c06 23       		.uleb128 0x23
 9831 2c07 75200000 		.4byte	.LASF715
 9832 2c0b 26       		.byte	0x26
 9833 2c0c 84       		.byte	0x84
 9834 2c0d 0F010000 		.4byte	0x10f
 9835 2c11 0004     		.2byte	0x400
 9836 2c13 23       		.uleb128 0x23
 9837 2c14 91340000 		.4byte	.LASF716
 9838 2c18 26       		.byte	0x26
 9839 2c19 85       		.byte	0x85
 9840 2c1a 0F010000 		.4byte	0x10f
 9841 2c1e 0404     		.2byte	0x404
 9842 2c20 23       		.uleb128 0x23
 9843 2c21 40050000 		.4byte	.LASF717
 9844 2c25 26       		.byte	0x26
 9845 2c26 86       		.byte	0x86
 9846 2c27 0F010000 		.4byte	0x10f
 9847 2c2b 0804     		.2byte	0x408
 9848 2c2d 23       		.uleb128 0x23
 9849 2c2e 5D100000 		.4byte	.LASF718
 9850 2c32 26       		.byte	0x26
 9851 2c33 88       		.byte	0x88
 9852 2c34 0F010000 		.4byte	0x10f
 9853 2c38 0C04     		.2byte	0x40c
 9854 2c3a 23       		.uleb128 0x23
 9855 2c3b D3030000 		.4byte	.LASF719
 9856 2c3f 26       		.byte	0x26
 9857 2c40 89       		.byte	0x89
ARM GAS  /tmp/ccU5UnMV.s 			page 188


 9858 2c41 0F010000 		.4byte	0x10f
 9859 2c45 1004     		.2byte	0x410
 9860 2c47 23       		.uleb128 0x23
 9861 2c48 EA040000 		.4byte	.LASF720
 9862 2c4c 26       		.byte	0x26
 9863 2c4d 8B       		.byte	0x8b
 9864 2c4e 0F010000 		.4byte	0x10f
 9865 2c52 1404     		.2byte	0x414
 9866 2c54 23       		.uleb128 0x23
 9867 2c55 28100000 		.4byte	.LASF721
 9868 2c59 26       		.byte	0x26
 9869 2c5a 8D       		.byte	0x8d
 9870 2c5b 0F010000 		.4byte	0x10f
 9871 2c5f 1804     		.2byte	0x418
 9872 2c61 23       		.uleb128 0x23
 9873 2c62 F1280000 		.4byte	.LASF722
 9874 2c66 26       		.byte	0x26
 9875 2c67 8F       		.byte	0x8f
 9876 2c68 1F2E0000 		.4byte	0x2e1f
 9877 2c6c 1C04     		.2byte	0x41c
 9878 2c6e 23       		.uleb128 0x23
 9879 2c6f 67030000 		.4byte	.LASF723
 9880 2c73 26       		.byte	0x26
 9881 2c74 90       		.byte	0x90
 9882 2c75 0F010000 		.4byte	0x10f
 9883 2c79 4004     		.2byte	0x440
 9884 2c7b 23       		.uleb128 0x23
 9885 2c7c 572B0000 		.4byte	.LASF724
 9886 2c80 26       		.byte	0x26
 9887 2c81 92       		.byte	0x92
 9888 2c82 342E0000 		.4byte	0x2e34
 9889 2c86 4404     		.2byte	0x444
 9890 2c88 28       		.uleb128 0x28
 9891 2c89 686300   		.ascii	"hc\000"
 9892 2c8c 26       		.byte	0x26
 9893 2c8d 93       		.byte	0x93
 9894 2c8e 392E0000 		.4byte	0x2e39
 9895 2c92 0005     		.2byte	0x500
 9896 2c94 23       		.uleb128 0x23
 9897 2c95 9C010000 		.4byte	.LASF725
 9898 2c99 26       		.byte	0x26
 9899 2c9a 94       		.byte	0x94
 9900 2c9b 592E0000 		.4byte	0x2e59
 9901 2c9f 0007     		.2byte	0x700
 9902 2ca1 23       		.uleb128 0x23
 9903 2ca2 7B270000 		.4byte	.LASF726
 9904 2ca6 26       		.byte	0x26
 9905 2ca7 95       		.byte	0x95
 9906 2ca8 0F010000 		.4byte	0x10f
 9907 2cac 0008     		.2byte	0x800
 9908 2cae 23       		.uleb128 0x23
 9909 2caf 46320000 		.4byte	.LASF727
 9910 2cb3 26       		.byte	0x26
 9911 2cb4 96       		.byte	0x96
 9912 2cb5 0F010000 		.4byte	0x10f
 9913 2cb9 0408     		.2byte	0x804
 9914 2cbb 23       		.uleb128 0x23
ARM GAS  /tmp/ccU5UnMV.s 			page 189


 9915 2cbc AB190000 		.4byte	.LASF728
 9916 2cc0 26       		.byte	0x26
 9917 2cc1 97       		.byte	0x97
 9918 2cc2 0F010000 		.4byte	0x10f
 9919 2cc6 0808     		.2byte	0x808
 9920 2cc8 23       		.uleb128 0x23
 9921 2cc9 01060000 		.4byte	.LASF729
 9922 2ccd 26       		.byte	0x26
 9923 2cce 98       		.byte	0x98
 9924 2ccf 0F010000 		.4byte	0x10f
 9925 2cd3 0C08     		.2byte	0x80c
 9926 2cd5 23       		.uleb128 0x23
 9927 2cd6 01100000 		.4byte	.LASF730
 9928 2cda 26       		.byte	0x26
 9929 2cdb 99       		.byte	0x99
 9930 2cdc 0F010000 		.4byte	0x10f
 9931 2ce0 1008     		.2byte	0x810
 9932 2ce2 23       		.uleb128 0x23
 9933 2ce3 372D0000 		.4byte	.LASF731
 9934 2ce7 26       		.byte	0x26
 9935 2ce8 9B       		.byte	0x9b
 9936 2ce9 0F010000 		.4byte	0x10f
 9937 2ced 1408     		.2byte	0x814
 9938 2cef 23       		.uleb128 0x23
 9939 2cf0 372E0000 		.4byte	.LASF732
 9940 2cf4 26       		.byte	0x26
 9941 2cf5 9D       		.byte	0x9d
 9942 2cf6 0F010000 		.4byte	0x10f
 9943 2cfa 1808     		.2byte	0x818
 9944 2cfc 23       		.uleb128 0x23
 9945 2cfd C6290000 		.4byte	.LASF733
 9946 2d01 26       		.byte	0x26
 9947 2d02 9F       		.byte	0x9f
 9948 2d03 0F010000 		.4byte	0x10f
 9949 2d07 1C08     		.2byte	0x81c
 9950 2d09 23       		.uleb128 0x23
 9951 2d0a 4E070000 		.4byte	.LASF734
 9952 2d0e 26       		.byte	0x26
 9953 2d0f A1       		.byte	0xa1
 9954 2d10 0F010000 		.4byte	0x10f
 9955 2d14 2008     		.2byte	0x820
 9956 2d16 23       		.uleb128 0x23
 9957 2d17 59060000 		.4byte	.LASF735
 9958 2d1b 26       		.byte	0x26
 9959 2d1c A2       		.byte	0xa2
 9960 2d1d 0F010000 		.4byte	0x10f
 9961 2d21 2408     		.2byte	0x824
 9962 2d23 23       		.uleb128 0x23
 9963 2d24 A5010000 		.4byte	.LASF736
 9964 2d28 26       		.byte	0x26
 9965 2d29 A3       		.byte	0xa3
 9966 2d2a 0F010000 		.4byte	0x10f
 9967 2d2e 2808     		.2byte	0x828
 9968 2d30 23       		.uleb128 0x23
 9969 2d31 9B080000 		.4byte	.LASF737
 9970 2d35 26       		.byte	0x26
 9971 2d36 A5       		.byte	0xa5
ARM GAS  /tmp/ccU5UnMV.s 			page 190


 9972 2d37 0F010000 		.4byte	0x10f
 9973 2d3b 2C08     		.2byte	0x82c
 9974 2d3d 23       		.uleb128 0x23
 9975 2d3e 33080000 		.4byte	.LASF738
 9976 2d42 26       		.byte	0x26
 9977 2d43 A7       		.byte	0xa7
 9978 2d44 0F010000 		.4byte	0x10f
 9979 2d48 3008     		.2byte	0x830
 9980 2d4a 23       		.uleb128 0x23
 9981 2d4b 31130000 		.4byte	.LASF739
 9982 2d4f 26       		.byte	0x26
 9983 2d50 A8       		.byte	0xa8
 9984 2d51 0F010000 		.4byte	0x10f
 9985 2d55 3408     		.2byte	0x834
 9986 2d57 23       		.uleb128 0x23
 9987 2d58 55080000 		.4byte	.LASF740
 9988 2d5c 26       		.byte	0x26
 9989 2d5d AA       		.byte	0xaa
 9990 2d5e 0F010000 		.4byte	0x10f
 9991 2d62 3808     		.2byte	0x838
 9992 2d64 23       		.uleb128 0x23
 9993 2d65 8B080000 		.4byte	.LASF741
 9994 2d69 26       		.byte	0x26
 9995 2d6a AB       		.byte	0xab
 9996 2d6b 0F010000 		.4byte	0x10f
 9997 2d6f 3C08     		.2byte	0x83c
 9998 2d71 23       		.uleb128 0x23
 9999 2d72 34090000 		.4byte	.LASF742
 10000 2d76 26       		.byte	0x26
 10001 2d77 AC       		.byte	0xac
 10002 2d78 6E2E0000 		.4byte	0x2e6e
 10003 2d7c 4008     		.2byte	0x840
 10004 2d7e 23       		.uleb128 0x23
 10005 2d7f C2170000 		.4byte	.LASF743
 10006 2d83 26       		.byte	0x26
 10007 2d84 AD       		.byte	0xad
 10008 2d85 6E2E0000 		.4byte	0x2e6e
 10009 2d89 8008     		.2byte	0x880
 10010 2d8b 23       		.uleb128 0x23
 10011 2d8c 77180000 		.4byte	.LASF744
 10012 2d90 26       		.byte	0x26
 10013 2d91 AE       		.byte	0xae
 10014 2d92 6E2E0000 		.4byte	0x2e6e
 10015 2d96 C008     		.2byte	0x8c0
 10016 2d98 28       		.uleb128 0x28
 10017 2d99 696500   		.ascii	"ie\000"
 10018 2d9c 26       		.byte	0x26
 10019 2d9d AF       		.byte	0xaf
 10020 2d9e 732E0000 		.4byte	0x2e73
 10021 2da2 0009     		.2byte	0x900
 10022 2da4 28       		.uleb128 0x28
 10023 2da5 6F6500   		.ascii	"oe\000"
 10024 2da8 26       		.byte	0x26
 10025 2da9 B0       		.byte	0xb0
 10026 2daa 832E0000 		.4byte	0x2e83
 10027 2dae 000B     		.2byte	0xb00
 10028 2db0 23       		.uleb128 0x23
ARM GAS  /tmp/ccU5UnMV.s 			page 191


 10029 2db1 080E0000 		.4byte	.LASF745
 10030 2db5 26       		.byte	0x26
 10031 2db6 B1       		.byte	0xb1
 10032 2db7 592E0000 		.4byte	0x2e59
 10033 2dbb 000D     		.2byte	0xd00
 10034 2dbd 23       		.uleb128 0x23
 10035 2dbe 51320000 		.4byte	.LASF746
 10036 2dc2 26       		.byte	0x26
 10037 2dc3 B2       		.byte	0xb2
 10038 2dc4 0F010000 		.4byte	0x10f
 10039 2dc8 000E     		.2byte	0xe00
 10040 2dca 23       		.uleb128 0x23
 10041 2dcb 96150000 		.4byte	.LASF747
 10042 2dcf 26       		.byte	0x26
 10043 2dd0 B4       		.byte	0xb4
 10044 2dd1 A32E0000 		.4byte	0x2ea3
 10045 2dd5 040E     		.2byte	0xe04
 10046 2dd7 23       		.uleb128 0x23
 10047 2dd8 B3310000 		.4byte	.LASF748
 10048 2ddc 26       		.byte	0x26
 10049 2ddd B5       		.byte	0xb5
 10050 2dde BF2E0000 		.4byte	0x2ebf
 10051 2de2 0010     		.2byte	0x1000
 10052 2de4 00       		.byte	0
 10053 2de5 11       		.uleb128 0x11
 10054 2de6 0F010000 		.4byte	0x10f
 10055 2dea F52D0000 		.4byte	0x2df5
 10056 2dee 12       		.uleb128 0x12
 10057 2def 48000000 		.4byte	0x48
 10058 2df3 2F       		.byte	0x2f
 10059 2df4 00       		.byte	0
 10060 2df5 04       		.uleb128 0x4
 10061 2df6 E52D0000 		.4byte	0x2de5
 10062 2dfa 11       		.uleb128 0x11
 10063 2dfb 0F010000 		.4byte	0x10f
 10064 2dff 0A2E0000 		.4byte	0x2e0a
 10065 2e03 12       		.uleb128 0x12
 10066 2e04 48000000 		.4byte	0x48
 10067 2e08 AF       		.byte	0xaf
 10068 2e09 00       		.byte	0
 10069 2e0a 04       		.uleb128 0x4
 10070 2e0b FA2D0000 		.4byte	0x2dfa
 10071 2e0f 11       		.uleb128 0x11
 10072 2e10 0F010000 		.4byte	0x10f
 10073 2e14 1F2E0000 		.4byte	0x2e1f
 10074 2e18 12       		.uleb128 0x12
 10075 2e19 48000000 		.4byte	0x48
 10076 2e1d 08       		.byte	0x8
 10077 2e1e 00       		.byte	0
 10078 2e1f 04       		.uleb128 0x4
 10079 2e20 0F2E0000 		.4byte	0x2e0f
 10080 2e24 11       		.uleb128 0x11
 10081 2e25 0F010000 		.4byte	0x10f
 10082 2e29 342E0000 		.4byte	0x2e34
 10083 2e2d 12       		.uleb128 0x12
 10084 2e2e 48000000 		.4byte	0x48
 10085 2e32 2E       		.byte	0x2e
ARM GAS  /tmp/ccU5UnMV.s 			page 192


 10086 2e33 00       		.byte	0
 10087 2e34 04       		.uleb128 0x4
 10088 2e35 242E0000 		.4byte	0x2e24
 10089 2e39 11       		.uleb128 0x11
 10090 2e3a 152A0000 		.4byte	0x2a15
 10091 2e3e 492E0000 		.4byte	0x2e49
 10092 2e42 12       		.uleb128 0x12
 10093 2e43 48000000 		.4byte	0x48
 10094 2e47 0F       		.byte	0xf
 10095 2e48 00       		.byte	0
 10096 2e49 11       		.uleb128 0x11
 10097 2e4a 0F010000 		.4byte	0x10f
 10098 2e4e 592E0000 		.4byte	0x2e59
 10099 2e52 12       		.uleb128 0x12
 10100 2e53 48000000 		.4byte	0x48
 10101 2e57 3F       		.byte	0x3f
 10102 2e58 00       		.byte	0
 10103 2e59 04       		.uleb128 0x4
 10104 2e5a 492E0000 		.4byte	0x2e49
 10105 2e5e 11       		.uleb128 0x11
 10106 2e5f 0F010000 		.4byte	0x10f
 10107 2e63 6E2E0000 		.4byte	0x2e6e
 10108 2e67 12       		.uleb128 0x12
 10109 2e68 48000000 		.4byte	0x48
 10110 2e6c 0F       		.byte	0xf
 10111 2e6d 00       		.byte	0
 10112 2e6e 04       		.uleb128 0x4
 10113 2e6f 5E2E0000 		.4byte	0x2e5e
 10114 2e73 11       		.uleb128 0x11
 10115 2e74 892A0000 		.4byte	0x2a89
 10116 2e78 832E0000 		.4byte	0x2e83
 10117 2e7c 12       		.uleb128 0x12
 10118 2e7d 48000000 		.4byte	0x48
 10119 2e81 0F       		.byte	0xf
 10120 2e82 00       		.byte	0
 10121 2e83 11       		.uleb128 0x11
 10122 2e84 FD2A0000 		.4byte	0x2afd
 10123 2e88 932E0000 		.4byte	0x2e93
 10124 2e8c 12       		.uleb128 0x12
 10125 2e8d 48000000 		.4byte	0x48
 10126 2e91 0F       		.byte	0xf
 10127 2e92 00       		.byte	0
 10128 2e93 11       		.uleb128 0x11
 10129 2e94 0F010000 		.4byte	0x10f
 10130 2e98 A32E0000 		.4byte	0x2ea3
 10131 2e9c 12       		.uleb128 0x12
 10132 2e9d 48000000 		.4byte	0x48
 10133 2ea1 7E       		.byte	0x7e
 10134 2ea2 00       		.byte	0
 10135 2ea3 04       		.uleb128 0x4
 10136 2ea4 932E0000 		.4byte	0x2e93
 10137 2ea8 11       		.uleb128 0x11
 10138 2ea9 0F010000 		.4byte	0x10f
 10139 2ead BF2E0000 		.4byte	0x2ebf
 10140 2eb1 12       		.uleb128 0x12
 10141 2eb2 48000000 		.4byte	0x48
 10142 2eb6 0F       		.byte	0xf
ARM GAS  /tmp/ccU5UnMV.s 			page 193


 10143 2eb7 29       		.uleb128 0x29
 10144 2eb8 48000000 		.4byte	0x48
 10145 2ebc FF03     		.2byte	0x3ff
 10146 2ebe 00       		.byte	0
 10147 2ebf 04       		.uleb128 0x4
 10148 2ec0 A82E0000 		.4byte	0x2ea8
 10149 2ec4 05       		.uleb128 0x5
 10150 2ec5 85350000 		.4byte	.LASF749
 10151 2ec9 26       		.byte	0x26
 10152 2eca B6       		.byte	0xb6
 10153 2ecb 082B0000 		.4byte	0x2b08
 10154 2ecf 15       		.uleb128 0x15
 10155 2ed0 0C       		.byte	0xc
 10156 2ed1 25       		.byte	0x25
 10157 2ed2 C6       		.byte	0xc6
 10158 2ed3 FC2E0000 		.4byte	0x2efc
 10159 2ed7 08       		.uleb128 0x8
 10160 2ed8 F90A0000 		.4byte	.LASF750
 10161 2edc 25       		.byte	0x25
 10162 2edd C7       		.byte	0xc7
 10163 2ede 04010000 		.4byte	0x104
 10164 2ee2 00       		.byte	0
 10165 2ee3 08       		.uleb128 0x8
 10166 2ee4 E80D0000 		.4byte	.LASF751
 10167 2ee8 25       		.byte	0x25
 10168 2ee9 C8       		.byte	0xc8
 10169 2eea 04010000 		.4byte	0x104
 10170 2eee 04       		.byte	0x4
 10171 2eef 08       		.uleb128 0x8
 10172 2ef0 9F150000 		.4byte	.LASF752
 10173 2ef4 25       		.byte	0x25
 10174 2ef5 C9       		.byte	0xc9
 10175 2ef6 04010000 		.4byte	0x104
 10176 2efa 08       		.byte	0x8
 10177 2efb 00       		.byte	0
 10178 2efc 05       		.uleb128 0x5
 10179 2efd F50D0000 		.4byte	.LASF753
 10180 2f01 25       		.byte	0x25
 10181 2f02 CA       		.byte	0xca
 10182 2f03 CF2E0000 		.4byte	0x2ecf
 10183 2f07 06       		.uleb128 0x6
 10184 2f08 FC2E0000 		.4byte	0x2efc
 10185 2f0c 15       		.uleb128 0x15
 10186 2f0d 04       		.byte	0x4
 10187 2f0e 25       		.byte	0x25
 10188 2f0f DD       		.byte	0xdd
 10189 2f10 212F0000 		.4byte	0x2f21
 10190 2f14 08       		.uleb128 0x8
 10191 2f15 4B320000 		.4byte	.LASF754
 10192 2f19 25       		.byte	0x25
 10193 2f1a E1       		.byte	0xe1
 10194 2f1b 8F0F0000 		.4byte	0xf8f
 10195 2f1f 00       		.byte	0
 10196 2f20 00       		.byte	0
 10197 2f21 15       		.uleb128 0x15
 10198 2f22 04       		.byte	0x4
 10199 2f23 25       		.byte	0x25
ARM GAS  /tmp/ccU5UnMV.s 			page 194


 10200 2f24 E3       		.byte	0xe3
 10201 2f25 362F0000 		.4byte	0x2f36
 10202 2f29 08       		.uleb128 0x8
 10203 2f2a 870B0000 		.4byte	.LASF528
 10204 2f2e 25       		.byte	0x25
 10205 2f2f E7       		.byte	0xe7
 10206 2f30 362F0000 		.4byte	0x2f36
 10207 2f34 00       		.byte	0
 10208 2f35 00       		.byte	0
 10209 2f36 0B       		.uleb128 0xb
 10210 2f37 04       		.byte	0x4
 10211 2f38 6B0F0000 		.4byte	0xf6b
 10212 2f3c 1C       		.uleb128 0x1c
 10213 2f3d 04       		.byte	0x4
 10214 2f3e 25       		.byte	0x25
 10215 2f3f DC       		.byte	0xdc
 10216 2f40 5B2F0000 		.4byte	0x2f5b
 10217 2f44 2A       		.uleb128 0x2a
 10218 2f45 A52B0000 		.4byte	.LASF755
 10219 2f49 25       		.byte	0x25
 10220 2f4a E2       		.byte	0xe2
 10221 2f4b 0C2F0000 		.4byte	0x2f0c
 10222 2f4f 2A       		.uleb128 0x2a
 10223 2f50 0A2A0000 		.4byte	.LASF756
 10224 2f54 25       		.byte	0x25
 10225 2f55 E8       		.byte	0xe8
 10226 2f56 212F0000 		.4byte	0x2f21
 10227 2f5a 00       		.byte	0
 10228 2f5b 15       		.uleb128 0x15
 10229 2f5c 14       		.byte	0x14
 10230 2f5d 25       		.byte	0x25
 10231 2f5e CF       		.byte	0xcf
 10232 2f5f A02F0000 		.4byte	0x2fa0
 10233 2f63 08       		.uleb128 0x8
 10234 2f64 77090000 		.4byte	.LASF757
 10235 2f68 25       		.byte	0x25
 10236 2f69 D3       		.byte	0xd3
 10237 2f6a 66180000 		.4byte	0x1866
 10238 2f6e 00       		.byte	0
 10239 2f6f 08       		.uleb128 0x8
 10240 2f70 101A0000 		.4byte	.LASF758
 10241 2f74 25       		.byte	0x25
 10242 2f75 D7       		.byte	0xd7
 10243 2f76 38000000 		.4byte	0x38
 10244 2f7a 04       		.byte	0x4
 10245 2f7b 08       		.uleb128 0x8
 10246 2f7c 740D0000 		.4byte	.LASF759
 10247 2f80 25       		.byte	0x25
 10248 2f81 DB       		.byte	0xdb
 10249 2f82 38000000 		.4byte	0x38
 10250 2f86 08       		.byte	0x8
 10251 2f87 08       		.uleb128 0x8
 10252 2f88 470A0000 		.4byte	.LASF589
 10253 2f8c 25       		.byte	0x25
 10254 2f8d E9       		.byte	0xe9
 10255 2f8e 3C2F0000 		.4byte	0x2f3c
 10256 2f92 0C       		.byte	0xc
ARM GAS  /tmp/ccU5UnMV.s 			page 195


 10257 2f93 08       		.uleb128 0x8
 10258 2f94 C2150000 		.4byte	.LASF760
 10259 2f98 25       		.byte	0x25
 10260 2f99 ED       		.byte	0xed
 10261 2f9a 38000000 		.4byte	0x38
 10262 2f9e 10       		.byte	0x10
 10263 2f9f 00       		.byte	0
 10264 2fa0 05       		.uleb128 0x5
 10265 2fa1 3B170000 		.4byte	.LASF761
 10266 2fa5 25       		.byte	0x25
 10267 2fa6 EE       		.byte	0xee
 10268 2fa7 5B2F0000 		.4byte	0x2f5b
 10269 2fab 17       		.uleb128 0x17
 10270 2fac 04       		.byte	0x4
 10271 2fad 25       		.byte	0x25
 10272 2fae 0101     		.2byte	0x101
 10273 2fb0 C22F0000 		.4byte	0x2fc2
 10274 2fb4 0A       		.uleb128 0xa
 10275 2fb5 180E0000 		.4byte	.LASF762
 10276 2fb9 25       		.byte	0x25
 10277 2fba 0501     		.2byte	0x105
 10278 2fbc 5A0F0000 		.4byte	0xf5a
 10279 2fc0 00       		.byte	0
 10280 2fc1 00       		.byte	0
 10281 2fc2 17       		.uleb128 0x17
 10282 2fc3 04       		.byte	0x4
 10283 2fc4 25       		.byte	0x25
 10284 2fc5 0701     		.2byte	0x107
 10285 2fc7 D92F0000 		.4byte	0x2fd9
 10286 2fcb 0A       		.uleb128 0xa
 10287 2fcc 362B0000 		.4byte	.LASF529
 10288 2fd0 25       		.byte	0x25
 10289 2fd1 0B01     		.2byte	0x10b
 10290 2fd3 D92F0000 		.4byte	0x2fd9
 10291 2fd7 00       		.byte	0
 10292 2fd8 00       		.byte	0
 10293 2fd9 0B       		.uleb128 0xb
 10294 2fda 04       		.byte	0x4
 10295 2fdb 600F0000 		.4byte	0xf60
 10296 2fdf 2B       		.uleb128 0x2b
 10297 2fe0 04       		.byte	0x4
 10298 2fe1 25       		.byte	0x25
 10299 2fe2 0001     		.2byte	0x100
 10300 2fe4 01300000 		.4byte	0x3001
 10301 2fe8 1D       		.uleb128 0x1d
 10302 2fe9 A52B0000 		.4byte	.LASF755
 10303 2fed 25       		.byte	0x25
 10304 2fee 0601     		.2byte	0x106
 10305 2ff0 AB2F0000 		.4byte	0x2fab
 10306 2ff4 1D       		.uleb128 0x1d
 10307 2ff5 0A2A0000 		.4byte	.LASF756
 10308 2ff9 25       		.byte	0x25
 10309 2ffa 0C01     		.2byte	0x10c
 10310 2ffc C22F0000 		.4byte	0x2fc2
 10311 3000 00       		.byte	0
 10312 3001 15       		.uleb128 0x15
 10313 3002 14       		.byte	0x14
ARM GAS  /tmp/ccU5UnMV.s 			page 196


 10314 3003 25       		.byte	0x25
 10315 3004 F3       		.byte	0xf3
 10316 3005 48300000 		.4byte	0x3048
 10317 3009 08       		.uleb128 0x8
 10318 300a 09070000 		.4byte	.LASF763
 10319 300e 25       		.byte	0x25
 10320 300f F7       		.byte	0xf7
 10321 3010 66180000 		.4byte	0x1866
 10322 3014 00       		.byte	0
 10323 3015 08       		.uleb128 0x8
 10324 3016 761B0000 		.4byte	.LASF764
 10325 301a 25       		.byte	0x25
 10326 301b FB       		.byte	0xfb
 10327 301c 38000000 		.4byte	0x38
 10328 3020 04       		.byte	0x4
 10329 3021 08       		.uleb128 0x8
 10330 3022 2D0A0000 		.4byte	.LASF765
 10331 3026 25       		.byte	0x25
 10332 3027 FF       		.byte	0xff
 10333 3028 38000000 		.4byte	0x38
 10334 302c 08       		.byte	0x8
 10335 302d 0A       		.uleb128 0xa
 10336 302e 470A0000 		.4byte	.LASF589
 10337 3032 25       		.byte	0x25
 10338 3033 0D01     		.2byte	0x10d
 10339 3035 DF2F0000 		.4byte	0x2fdf
 10340 3039 0C       		.byte	0xc
 10341 303a 0A       		.uleb128 0xa
 10342 303b C2150000 		.4byte	.LASF760
 10343 303f 25       		.byte	0x25
 10344 3040 1101     		.2byte	0x111
 10345 3042 38000000 		.4byte	0x38
 10346 3046 10       		.byte	0x10
 10347 3047 00       		.byte	0
 10348 3048 18       		.uleb128 0x18
 10349 3049 CC280000 		.4byte	.LASF766
 10350 304d 25       		.byte	0x25
 10351 304e 1201     		.2byte	0x112
 10352 3050 01300000 		.4byte	0x3001
 10353 3054 17       		.uleb128 0x17
 10354 3055 24       		.byte	0x24
 10355 3056 25       		.byte	0x25
 10356 3057 1801     		.2byte	0x118
 10357 3059 E0300000 		.4byte	0x30e0
 10358 305d 0A       		.uleb128 0xa
 10359 305e 951F0000 		.4byte	.LASF767
 10360 3062 25       		.byte	0x25
 10361 3063 1C01     		.2byte	0x11c
 10362 3065 04010000 		.4byte	0x104
 10363 3069 00       		.byte	0
 10364 306a 0A       		.uleb128 0xa
 10365 306b 3F0B0000 		.4byte	.LASF768
 10366 306f 25       		.byte	0x25
 10367 3070 2701     		.2byte	0x127
 10368 3072 11290000 		.4byte	0x2911
 10369 3076 04       		.byte	0x4
 10370 3077 0A       		.uleb128 0xa
ARM GAS  /tmp/ccU5UnMV.s 			page 197


 10371 3078 04210000 		.4byte	.LASF769
 10372 307c 25       		.byte	0x25
 10373 307d 2D01     		.2byte	0x12d
 10374 307f 11290000 		.4byte	0x2911
 10375 3083 08       		.byte	0x8
 10376 3084 0A       		.uleb128 0xa
 10377 3085 21100000 		.4byte	.LASF770
 10378 3089 25       		.byte	0x25
 10379 308a 3301     		.2byte	0x133
 10380 308c 11290000 		.4byte	0x2911
 10381 3090 0C       		.byte	0xc
 10382 3091 0A       		.uleb128 0xa
 10383 3092 B0350000 		.4byte	.LASF771
 10384 3096 25       		.byte	0x25
 10385 3097 3901     		.2byte	0x139
 10386 3099 E4000000 		.4byte	0xe4
 10387 309d 10       		.byte	0x10
 10388 309e 0A       		.uleb128 0xa
 10389 309f B8160000 		.4byte	.LASF772
 10390 30a3 25       		.byte	0x25
 10391 30a4 3F01     		.2byte	0x13f
 10392 30a6 E4000000 		.4byte	0xe4
 10393 30aa 12       		.byte	0x12
 10394 30ab 0A       		.uleb128 0xa
 10395 30ac BF330000 		.4byte	.LASF773
 10396 30b0 25       		.byte	0x25
 10397 30b1 4401     		.2byte	0x144
 10398 30b3 E0300000 		.4byte	0x30e0
 10399 30b7 14       		.byte	0x14
 10400 30b8 0A       		.uleb128 0xa
 10401 30b9 BD130000 		.4byte	.LASF774
 10402 30bd 25       		.byte	0x25
 10403 30be 4901     		.2byte	0x149
 10404 30c0 E6300000 		.4byte	0x30e6
 10405 30c4 18       		.byte	0x18
 10406 30c5 0A       		.uleb128 0xa
 10407 30c6 2D190000 		.4byte	.LASF775
 10408 30ca 25       		.byte	0x25
 10409 30cb 5001     		.2byte	0x150
 10410 30cd E4000000 		.4byte	0xe4
 10411 30d1 1C       		.byte	0x1c
 10412 30d2 0A       		.uleb128 0xa
 10413 30d3 AA320000 		.4byte	.LASF776
 10414 30d7 25       		.byte	0x25
 10415 30d8 5601     		.2byte	0x156
 10416 30da 5A0F0000 		.4byte	0xf5a
 10417 30de 20       		.byte	0x20
 10418 30df 00       		.byte	0
 10419 30e0 0B       		.uleb128 0xb
 10420 30e1 04       		.byte	0x4
 10421 30e2 A02F0000 		.4byte	0x2fa0
 10422 30e6 0B       		.uleb128 0xb
 10423 30e7 04       		.byte	0x4
 10424 30e8 48300000 		.4byte	0x3048
 10425 30ec 18       		.uleb128 0x18
 10426 30ed 242B0000 		.4byte	.LASF777
 10427 30f1 25       		.byte	0x25
ARM GAS  /tmp/ccU5UnMV.s 			page 198


 10428 30f2 5701     		.2byte	0x157
 10429 30f4 54300000 		.4byte	0x3054
 10430 30f8 06       		.uleb128 0x6
 10431 30f9 EC300000 		.4byte	0x30ec
 10432 30fd 17       		.uleb128 0x17
 10433 30fe 10       		.byte	0x10
 10434 30ff 25       		.byte	0x25
 10435 3100 5C01     		.2byte	0x15c
 10436 3102 3B310000 		.4byte	0x313b
 10437 3106 0A       		.uleb128 0xa
 10438 3107 0A060000 		.4byte	.LASF778
 10439 310b 25       		.byte	0x25
 10440 310c 6101     		.2byte	0x161
 10441 310e 33290000 		.4byte	0x2933
 10442 3112 00       		.byte	0
 10443 3113 0A       		.uleb128 0xa
 10444 3114 54310000 		.4byte	.LASF779
 10445 3118 25       		.byte	0x25
 10446 3119 6601     		.2byte	0x166
 10447 311b 76290000 		.4byte	0x2976
 10448 311f 04       		.byte	0x4
 10449 3120 0A       		.uleb128 0xa
 10450 3121 D7190000 		.4byte	.LASF780
 10451 3125 25       		.byte	0x25
 10452 3126 6C01     		.2byte	0x16c
 10453 3128 55290000 		.4byte	0x2955
 10454 312c 08       		.byte	0x8
 10455 312d 0A       		.uleb128 0xa
 10456 312e D3020000 		.4byte	.LASF781
 10457 3132 25       		.byte	0x25
 10458 3133 7001     		.2byte	0x170
 10459 3135 EE280000 		.4byte	0x28ee
 10460 3139 0C       		.byte	0xc
 10461 313a 00       		.byte	0
 10462 313b 18       		.uleb128 0x18
 10463 313c 80180000 		.4byte	.LASF782
 10464 3140 25       		.byte	0x25
 10465 3141 7201     		.2byte	0x172
 10466 3143 FD300000 		.4byte	0x30fd
 10467 3147 06       		.uleb128 0x6
 10468 3148 3B310000 		.4byte	0x313b
 10469 314c 0B       		.uleb128 0xb
 10470 314d 04       		.byte	0x4
 10471 314e 47310000 		.4byte	0x3147
 10472 3152 11       		.uleb128 0x11
 10473 3153 62310000 		.4byte	0x3162
 10474 3157 62310000 		.4byte	0x3162
 10475 315b 12       		.uleb128 0x12
 10476 315c 48000000 		.4byte	0x48
 10477 3160 03       		.byte	0x3
 10478 3161 00       		.byte	0
 10479 3162 0B       		.uleb128 0xb
 10480 3163 04       		.byte	0x4
 10481 3164 F8300000 		.4byte	0x30f8
 10482 3168 11       		.uleb128 0x11
 10483 3169 95030000 		.4byte	0x395
 10484 316d 78310000 		.4byte	0x3178
ARM GAS  /tmp/ccU5UnMV.s 			page 199


 10485 3171 12       		.uleb128 0x12
 10486 3172 48000000 		.4byte	0x48
 10487 3176 02       		.byte	0x2
 10488 3177 00       		.byte	0
 10489 3178 0B       		.uleb128 0xb
 10490 3179 04       		.byte	0x4
 10491 317a C42E0000 		.4byte	0x2ec4
 10492 317e 0B       		.uleb128 0xb
 10493 317f 04       		.byte	0x4
 10494 3180 072F0000 		.4byte	0x2f07
 10495 3184 11       		.uleb128 0x11
 10496 3185 9D0A0000 		.4byte	0xa9d
 10497 3189 94310000 		.4byte	0x3194
 10498 318d 12       		.uleb128 0x12
 10499 318e 48000000 		.4byte	0x48
 10500 3192 42       		.byte	0x42
 10501 3193 00       		.byte	0
 10502 3194 13       		.uleb128 0x13
 10503 3195 0C010000 		.4byte	.LASF783
 10504 3199 25       		.byte	0x25
 10505 319a 0602     		.2byte	0x206
 10506 319c BA260000 		.4byte	0x26ba
 10507 31a0 11       		.uleb128 0x11
 10508 31a1 F8110000 		.4byte	0x11f8
 10509 31a5 AB310000 		.4byte	0x31ab
 10510 31a9 2C       		.uleb128 0x2c
 10511 31aa 00       		.byte	0
 10512 31ab 04       		.uleb128 0x4
 10513 31ac A0310000 		.4byte	0x31a0
 10514 31b0 14       		.uleb128 0x14
 10515 31b1 7A200000 		.4byte	.LASF784
 10516 31b5 27       		.byte	0x27
 10517 31b6 4E       		.byte	0x4e
 10518 31b7 AB310000 		.4byte	0x31ab
 10519 31bb 14       		.uleb128 0x14
 10520 31bc 621D0000 		.4byte	.LASF785
 10521 31c0 27       		.byte	0x27
 10522 31c1 4F       		.byte	0x4f
 10523 31c2 AB310000 		.4byte	0x31ab
 10524 31c6 14       		.uleb128 0x14
 10525 31c7 22350000 		.4byte	.LASF786
 10526 31cb 27       		.byte	0x27
 10527 31cc 50       		.byte	0x50
 10528 31cd AB310000 		.4byte	0x31ab
 10529 31d1 14       		.uleb128 0x14
 10530 31d2 A4140000 		.4byte	.LASF787
 10531 31d6 27       		.byte	0x27
 10532 31d7 51       		.byte	0x51
 10533 31d8 33000000 		.4byte	0x33
 10534 31dc 11       		.uleb128 0x11
 10535 31dd EF000000 		.4byte	0xef
 10536 31e1 E7310000 		.4byte	0x31e7
 10537 31e5 2C       		.uleb128 0x2c
 10538 31e6 00       		.byte	0
 10539 31e7 04       		.uleb128 0x4
 10540 31e8 DC310000 		.4byte	0x31dc
 10541 31ec 14       		.uleb128 0x14
ARM GAS  /tmp/ccU5UnMV.s 			page 200


 10542 31ed 691F0000 		.4byte	.LASF788
 10543 31f1 28       		.byte	0x28
 10544 31f2 5A       		.byte	0x5a
 10545 31f3 E7310000 		.4byte	0x31e7
 10546 31f7 11       		.uleb128 0x11
 10547 31f8 33000000 		.4byte	0x33
 10548 31fc 02320000 		.4byte	0x3202
 10549 3200 2C       		.uleb128 0x2c
 10550 3201 00       		.byte	0
 10551 3202 04       		.uleb128 0x4
 10552 3203 F7310000 		.4byte	0x31f7
 10553 3207 14       		.uleb128 0x14
 10554 3208 DF180000 		.4byte	.LASF789
 10555 320c 28       		.byte	0x28
 10556 320d 5B       		.byte	0x5b
 10557 320e 02320000 		.4byte	0x3202
 10558 3212 05       		.uleb128 0x5
 10559 3213 2C090000 		.4byte	.LASF790
 10560 3217 29       		.byte	0x29
 10561 3218 22       		.byte	0x22
 10562 3219 1D320000 		.4byte	0x321d
 10563 321d 0B       		.uleb128 0xb
 10564 321e 04       		.byte	0x4
 10565 321f 23320000 		.4byte	0x3223
 10566 3223 2D       		.uleb128 0x2d
 10567 3224 C0060000 		.4byte	.LASF896
 10568 3228 05       		.uleb128 0x5
 10569 3229 4F120000 		.4byte	.LASF791
 10570 322d 2A       		.byte	0x2a
 10571 322e 2C       		.byte	0x2c
 10572 322f 97000000 		.4byte	0x97
 10573 3233 05       		.uleb128 0x5
 10574 3234 EE270000 		.4byte	.LASF792
 10575 3238 2A       		.byte	0x2a
 10576 3239 72       		.byte	0x72
 10577 323a 97000000 		.4byte	0x97
 10578 323e 18       		.uleb128 0x18
 10579 323f 30150000 		.4byte	.LASF793
 10580 3243 04       		.byte	0x4
 10581 3244 6501     		.2byte	0x165
 10582 3246 48000000 		.4byte	0x48
 10583 324a 1C       		.uleb128 0x1c
 10584 324b 04       		.byte	0x4
 10585 324c 2A       		.byte	0x2a
 10586 324d A6       		.byte	0xa6
 10587 324e 69320000 		.4byte	0x3269
 10588 3252 2A       		.uleb128 0x2a
 10589 3253 C81E0000 		.4byte	.LASF794
 10590 3257 2A       		.byte	0x2a
 10591 3258 A8       		.byte	0xa8
 10592 3259 3E320000 		.4byte	0x323e
 10593 325d 2A       		.uleb128 0x2a
 10594 325e 4F140000 		.4byte	.LASF795
 10595 3262 2A       		.byte	0x2a
 10596 3263 A9       		.byte	0xa9
 10597 3264 69320000 		.4byte	0x3269
 10598 3268 00       		.byte	0
ARM GAS  /tmp/ccU5UnMV.s 			page 201


 10599 3269 11       		.uleb128 0x11
 10600 326a 6C000000 		.4byte	0x6c
 10601 326e 79320000 		.4byte	0x3279
 10602 3272 12       		.uleb128 0x12
 10603 3273 48000000 		.4byte	0x48
 10604 3277 03       		.byte	0x3
 10605 3278 00       		.byte	0
 10606 3279 15       		.uleb128 0x15
 10607 327a 08       		.byte	0x8
 10608 327b 2A       		.byte	0x2a
 10609 327c A3       		.byte	0xa3
 10610 327d 9A320000 		.4byte	0x329a
 10611 3281 08       		.uleb128 0x8
 10612 3282 9E120000 		.4byte	.LASF796
 10613 3286 2A       		.byte	0x2a
 10614 3287 A5       		.byte	0xa5
 10615 3288 2C000000 		.4byte	0x2c
 10616 328c 00       		.byte	0
 10617 328d 08       		.uleb128 0x8
 10618 328e DD1E0000 		.4byte	.LASF797
 10619 3292 2A       		.byte	0x2a
 10620 3293 AA       		.byte	0xaa
 10621 3294 4A320000 		.4byte	0x324a
 10622 3298 04       		.byte	0x4
 10623 3299 00       		.byte	0
 10624 329a 05       		.uleb128 0x5
 10625 329b 0B290000 		.4byte	.LASF798
 10626 329f 2A       		.byte	0x2a
 10627 32a0 AB       		.byte	0xab
 10628 32a1 79320000 		.4byte	0x3279
 10629 32a5 05       		.uleb128 0x5
 10630 32a6 2C2F0000 		.4byte	.LASF799
 10631 32aa 2A       		.byte	0x2a
 10632 32ab AF       		.byte	0xaf
 10633 32ac 12320000 		.4byte	0x3212
 10634 32b0 0B       		.uleb128 0xb
 10635 32b1 04       		.byte	0x4
 10636 32b2 F80C0000 		.4byte	0xcf8
 10637 32b6 05       		.uleb128 0x5
 10638 32b7 F81A0000 		.4byte	.LASF800
 10639 32bb 2B       		.byte	0x2b
 10640 32bc 16       		.byte	0x16
 10641 32bd A9000000 		.4byte	0xa9
 10642 32c1 07       		.uleb128 0x7
 10643 32c2 34240000 		.4byte	.LASF801
 10644 32c6 18       		.byte	0x18
 10645 32c7 2B       		.byte	0x2b
 10646 32c8 2F       		.byte	0x2f
 10647 32c9 14330000 		.4byte	0x3314
 10648 32cd 08       		.uleb128 0x8
 10649 32ce AE170000 		.4byte	.LASF802
 10650 32d2 2B       		.byte	0x2b
 10651 32d3 31       		.byte	0x31
 10652 32d4 14330000 		.4byte	0x3314
 10653 32d8 00       		.byte	0
 10654 32d9 16       		.uleb128 0x16
 10655 32da 5F6B00   		.ascii	"_k\000"
ARM GAS  /tmp/ccU5UnMV.s 			page 202


 10656 32dd 2B       		.byte	0x2b
 10657 32de 32       		.byte	0x32
 10658 32df 2C000000 		.4byte	0x2c
 10659 32e3 04       		.byte	0x4
 10660 32e4 08       		.uleb128 0x8
 10661 32e5 82210000 		.4byte	.LASF803
 10662 32e9 2B       		.byte	0x2b
 10663 32ea 32       		.byte	0x32
 10664 32eb 2C000000 		.4byte	0x2c
 10665 32ef 08       		.byte	0x8
 10666 32f0 08       		.uleb128 0x8
 10667 32f1 B2210000 		.4byte	.LASF804
 10668 32f5 2B       		.byte	0x2b
 10669 32f6 32       		.byte	0x32
 10670 32f7 2C000000 		.4byte	0x2c
 10671 32fb 0C       		.byte	0xc
 10672 32fc 08       		.uleb128 0x8
 10673 32fd D80B0000 		.4byte	.LASF805
 10674 3301 2B       		.byte	0x2b
 10675 3302 32       		.byte	0x32
 10676 3303 2C000000 		.4byte	0x2c
 10677 3307 10       		.byte	0x10
 10678 3308 16       		.uleb128 0x16
 10679 3309 5F7800   		.ascii	"_x\000"
 10680 330c 2B       		.byte	0x2b
 10681 330d 33       		.byte	0x33
 10682 330e 1A330000 		.4byte	0x331a
 10683 3312 14       		.byte	0x14
 10684 3313 00       		.byte	0
 10685 3314 0B       		.uleb128 0xb
 10686 3315 04       		.byte	0x4
 10687 3316 C1320000 		.4byte	0x32c1
 10688 331a 11       		.uleb128 0x11
 10689 331b B6320000 		.4byte	0x32b6
 10690 331f 2A330000 		.4byte	0x332a
 10691 3323 12       		.uleb128 0x12
 10692 3324 48000000 		.4byte	0x48
 10693 3328 00       		.byte	0
 10694 3329 00       		.byte	0
 10695 332a 07       		.uleb128 0x7
 10696 332b 4B250000 		.4byte	.LASF806
 10697 332f 24       		.byte	0x24
 10698 3330 2B       		.byte	0x2b
 10699 3331 37       		.byte	0x37
 10700 3332 A3330000 		.4byte	0x33a3
 10701 3336 08       		.uleb128 0x8
 10702 3337 DE0F0000 		.4byte	.LASF807
 10703 333b 2B       		.byte	0x2b
 10704 333c 39       		.byte	0x39
 10705 333d 2C000000 		.4byte	0x2c
 10706 3341 00       		.byte	0
 10707 3342 08       		.uleb128 0x8
 10708 3343 5A0D0000 		.4byte	.LASF808
 10709 3347 2B       		.byte	0x2b
 10710 3348 3A       		.byte	0x3a
 10711 3349 2C000000 		.4byte	0x2c
 10712 334d 04       		.byte	0x4
ARM GAS  /tmp/ccU5UnMV.s 			page 203


 10713 334e 08       		.uleb128 0x8
 10714 334f 80140000 		.4byte	.LASF809
 10715 3353 2B       		.byte	0x2b
 10716 3354 3B       		.byte	0x3b
 10717 3355 2C000000 		.4byte	0x2c
 10718 3359 08       		.byte	0x8
 10719 335a 08       		.uleb128 0x8
 10720 335b 96160000 		.4byte	.LASF810
 10721 335f 2B       		.byte	0x2b
 10722 3360 3C       		.byte	0x3c
 10723 3361 2C000000 		.4byte	0x2c
 10724 3365 0C       		.byte	0xc
 10725 3366 08       		.uleb128 0x8
 10726 3367 15020000 		.4byte	.LASF811
 10727 336b 2B       		.byte	0x2b
 10728 336c 3D       		.byte	0x3d
 10729 336d 2C000000 		.4byte	0x2c
 10730 3371 10       		.byte	0x10
 10731 3372 08       		.uleb128 0x8
 10732 3373 C40D0000 		.4byte	.LASF812
 10733 3377 2B       		.byte	0x2b
 10734 3378 3E       		.byte	0x3e
 10735 3379 2C000000 		.4byte	0x2c
 10736 337d 14       		.byte	0x14
 10737 337e 08       		.uleb128 0x8
 10738 337f CA0A0000 		.4byte	.LASF813
 10739 3383 2B       		.byte	0x2b
 10740 3384 3F       		.byte	0x3f
 10741 3385 2C000000 		.4byte	0x2c
 10742 3389 18       		.byte	0x18
 10743 338a 08       		.uleb128 0x8
 10744 338b ED080000 		.4byte	.LASF814
 10745 338f 2B       		.byte	0x2b
 10746 3390 40       		.byte	0x40
 10747 3391 2C000000 		.4byte	0x2c
 10748 3395 1C       		.byte	0x1c
 10749 3396 08       		.uleb128 0x8
 10750 3397 E30A0000 		.4byte	.LASF815
 10751 339b 2B       		.byte	0x2b
 10752 339c 41       		.byte	0x41
 10753 339d 2C000000 		.4byte	0x2c
 10754 33a1 20       		.byte	0x20
 10755 33a2 00       		.byte	0
 10756 33a3 26       		.uleb128 0x26
 10757 33a4 78190000 		.4byte	.LASF816
 10758 33a8 0801     		.2byte	0x108
 10759 33aa 2B       		.byte	0x2b
 10760 33ab 4A       		.byte	0x4a
 10761 33ac E3330000 		.4byte	0x33e3
 10762 33b0 08       		.uleb128 0x8
 10763 33b1 E9160000 		.4byte	.LASF817
 10764 33b5 2B       		.byte	0x2b
 10765 33b6 4B       		.byte	0x4b
 10766 33b7 E3330000 		.4byte	0x33e3
 10767 33bb 00       		.byte	0
 10768 33bc 08       		.uleb128 0x8
 10769 33bd 18040000 		.4byte	.LASF818
ARM GAS  /tmp/ccU5UnMV.s 			page 204


 10770 33c1 2B       		.byte	0x2b
 10771 33c2 4C       		.byte	0x4c
 10772 33c3 E3330000 		.4byte	0x33e3
 10773 33c7 80       		.byte	0x80
 10774 33c8 23       		.uleb128 0x23
 10775 33c9 1E020000 		.4byte	.LASF819
 10776 33cd 2B       		.byte	0x2b
 10777 33ce 4E       		.byte	0x4e
 10778 33cf B6320000 		.4byte	0x32b6
 10779 33d3 0001     		.2byte	0x100
 10780 33d5 23       		.uleb128 0x23
 10781 33d6 EF290000 		.4byte	.LASF820
 10782 33da 2B       		.byte	0x2b
 10783 33db 51       		.byte	0x51
 10784 33dc B6320000 		.4byte	0x32b6
 10785 33e0 0401     		.2byte	0x104
 10786 33e2 00       		.byte	0
 10787 33e3 11       		.uleb128 0x11
 10788 33e4 95030000 		.4byte	0x395
 10789 33e8 F3330000 		.4byte	0x33f3
 10790 33ec 12       		.uleb128 0x12
 10791 33ed 48000000 		.4byte	0x48
 10792 33f1 1F       		.byte	0x1f
 10793 33f2 00       		.byte	0
 10794 33f3 26       		.uleb128 0x26
 10795 33f4 94010000 		.4byte	.LASF821
 10796 33f8 9001     		.2byte	0x190
 10797 33fa 2B       		.byte	0x2b
 10798 33fb 5D       		.byte	0x5d
 10799 33fc 31340000 		.4byte	0x3431
 10800 3400 08       		.uleb128 0x8
 10801 3401 AE170000 		.4byte	.LASF802
 10802 3405 2B       		.byte	0x2b
 10803 3406 5E       		.byte	0x5e
 10804 3407 31340000 		.4byte	0x3431
 10805 340b 00       		.byte	0
 10806 340c 08       		.uleb128 0x8
 10807 340d 53020000 		.4byte	.LASF822
 10808 3411 2B       		.byte	0x2b
 10809 3412 5F       		.byte	0x5f
 10810 3413 2C000000 		.4byte	0x2c
 10811 3417 04       		.byte	0x4
 10812 3418 08       		.uleb128 0x8
 10813 3419 85280000 		.4byte	.LASF823
 10814 341d 2B       		.byte	0x2b
 10815 341e 61       		.byte	0x61
 10816 341f 37340000 		.4byte	0x3437
 10817 3423 08       		.byte	0x8
 10818 3424 08       		.uleb128 0x8
 10819 3425 78190000 		.4byte	.LASF816
 10820 3429 2B       		.byte	0x2b
 10821 342a 62       		.byte	0x62
 10822 342b A3330000 		.4byte	0x33a3
 10823 342f 88       		.byte	0x88
 10824 3430 00       		.byte	0
 10825 3431 0B       		.uleb128 0xb
 10826 3432 04       		.byte	0x4
ARM GAS  /tmp/ccU5UnMV.s 			page 205


 10827 3433 F3330000 		.4byte	0x33f3
 10828 3437 11       		.uleb128 0x11
 10829 3438 47340000 		.4byte	0x3447
 10830 343c 47340000 		.4byte	0x3447
 10831 3440 12       		.uleb128 0x12
 10832 3441 48000000 		.4byte	0x48
 10833 3445 1F       		.byte	0x1f
 10834 3446 00       		.byte	0
 10835 3447 0B       		.uleb128 0xb
 10836 3448 04       		.byte	0x4
 10837 3449 4D340000 		.4byte	0x344d
 10838 344d 2E       		.uleb128 0x2e
 10839 344e 07       		.uleb128 0x7
 10840 344f 321E0000 		.4byte	.LASF824
 10841 3453 08       		.byte	0x8
 10842 3454 2B       		.byte	0x2b
 10843 3455 75       		.byte	0x75
 10844 3456 73340000 		.4byte	0x3473
 10845 345a 08       		.uleb128 0x8
 10846 345b A5190000 		.4byte	.LASF825
 10847 345f 2B       		.byte	0x2b
 10848 3460 76       		.byte	0x76
 10849 3461 73340000 		.4byte	0x3473
 10850 3465 00       		.byte	0
 10851 3466 08       		.uleb128 0x8
 10852 3467 860C0000 		.4byte	.LASF826
 10853 346b 2B       		.byte	0x2b
 10854 346c 77       		.byte	0x77
 10855 346d 2C000000 		.4byte	0x2c
 10856 3471 04       		.byte	0x4
 10857 3472 00       		.byte	0
 10858 3473 0B       		.uleb128 0xb
 10859 3474 04       		.byte	0x4
 10860 3475 6C000000 		.4byte	0x6c
 10861 3479 07       		.uleb128 0x7
 10862 347a 59280000 		.4byte	.LASF827
 10863 347e 68       		.byte	0x68
 10864 347f 2B       		.byte	0x2b
 10865 3480 B5       		.byte	0xb5
 10866 3481 A3350000 		.4byte	0x35a3
 10867 3485 16       		.uleb128 0x16
 10868 3486 5F7000   		.ascii	"_p\000"
 10869 3489 2B       		.byte	0x2b
 10870 348a B6       		.byte	0xb6
 10871 348b 73340000 		.4byte	0x3473
 10872 348f 00       		.byte	0
 10873 3490 16       		.uleb128 0x16
 10874 3491 5F7200   		.ascii	"_r\000"
 10875 3494 2B       		.byte	0x2b
 10876 3495 B7       		.byte	0xb7
 10877 3496 2C000000 		.4byte	0x2c
 10878 349a 04       		.byte	0x4
 10879 349b 16       		.uleb128 0x16
 10880 349c 5F7700   		.ascii	"_w\000"
 10881 349f 2B       		.byte	0x2b
 10882 34a0 B8       		.byte	0xb8
 10883 34a1 2C000000 		.4byte	0x2c
ARM GAS  /tmp/ccU5UnMV.s 			page 206


 10884 34a5 08       		.byte	0x8
 10885 34a6 08       		.uleb128 0x8
 10886 34a7 F8020000 		.4byte	.LASF828
 10887 34ab 2B       		.byte	0x2b
 10888 34ac B9       		.byte	0xb9
 10889 34ad 73000000 		.4byte	0x73
 10890 34b1 0C       		.byte	0xc
 10891 34b2 08       		.uleb128 0x8
 10892 34b3 F6270000 		.4byte	.LASF829
 10893 34b7 2B       		.byte	0x2b
 10894 34b8 BA       		.byte	0xba
 10895 34b9 73000000 		.4byte	0x73
 10896 34bd 0E       		.byte	0xe
 10897 34be 16       		.uleb128 0x16
 10898 34bf 5F626600 		.ascii	"_bf\000"
 10899 34c3 2B       		.byte	0x2b
 10900 34c4 BB       		.byte	0xbb
 10901 34c5 4E340000 		.4byte	0x344e
 10902 34c9 10       		.byte	0x10
 10903 34ca 08       		.uleb128 0x8
 10904 34cb AD050000 		.4byte	.LASF830
 10905 34cf 2B       		.byte	0x2b
 10906 34d0 BC       		.byte	0xbc
 10907 34d1 2C000000 		.4byte	0x2c
 10908 34d5 18       		.byte	0x18
 10909 34d6 08       		.uleb128 0x8
 10910 34d7 00180000 		.4byte	.LASF831
 10911 34db 2B       		.byte	0x2b
 10912 34dc C3       		.byte	0xc3
 10913 34dd 95030000 		.4byte	0x395
 10914 34e1 1C       		.byte	0x1c
 10915 34e2 08       		.uleb128 0x8
 10916 34e3 B5010000 		.4byte	.LASF832
 10917 34e7 2B       		.byte	0x2b
 10918 34e8 C5       		.byte	0xc5
 10919 34e9 FE360000 		.4byte	0x36fe
 10920 34ed 20       		.byte	0x20
 10921 34ee 08       		.uleb128 0x8
 10922 34ef 420E0000 		.4byte	.LASF833
 10923 34f3 2B       		.byte	0x2b
 10924 34f4 C7       		.byte	0xc7
 10925 34f5 22370000 		.4byte	0x3722
 10926 34f9 24       		.byte	0x24
 10927 34fa 08       		.uleb128 0x8
 10928 34fb 771C0000 		.4byte	.LASF834
 10929 34ff 2B       		.byte	0x2b
 10930 3500 CA       		.byte	0xca
 10931 3501 46370000 		.4byte	0x3746
 10932 3505 28       		.byte	0x28
 10933 3506 08       		.uleb128 0x8
 10934 3507 74230000 		.4byte	.LASF835
 10935 350b 2B       		.byte	0x2b
 10936 350c CB       		.byte	0xcb
 10937 350d 60370000 		.4byte	0x3760
 10938 3511 2C       		.byte	0x2c
 10939 3512 16       		.uleb128 0x16
 10940 3513 5F756200 		.ascii	"_ub\000"
ARM GAS  /tmp/ccU5UnMV.s 			page 207


 10941 3517 2B       		.byte	0x2b
 10942 3518 CE       		.byte	0xce
 10943 3519 4E340000 		.4byte	0x344e
 10944 351d 30       		.byte	0x30
 10945 351e 16       		.uleb128 0x16
 10946 351f 5F757000 		.ascii	"_up\000"
 10947 3523 2B       		.byte	0x2b
 10948 3524 CF       		.byte	0xcf
 10949 3525 73340000 		.4byte	0x3473
 10950 3529 38       		.byte	0x38
 10951 352a 16       		.uleb128 0x16
 10952 352b 5F757200 		.ascii	"_ur\000"
 10953 352f 2B       		.byte	0x2b
 10954 3530 D0       		.byte	0xd0
 10955 3531 2C000000 		.4byte	0x2c
 10956 3535 3C       		.byte	0x3c
 10957 3536 08       		.uleb128 0x8
 10958 3537 16270000 		.4byte	.LASF836
 10959 353b 2B       		.byte	0x2b
 10960 353c D3       		.byte	0xd3
 10961 353d 99180000 		.4byte	0x1899
 10962 3541 40       		.byte	0x40
 10963 3542 08       		.uleb128 0x8
 10964 3543 9F030000 		.4byte	.LASF837
 10965 3547 2B       		.byte	0x2b
 10966 3548 D4       		.byte	0xd4
 10967 3549 66370000 		.4byte	0x3766
 10968 354d 43       		.byte	0x43
 10969 354e 16       		.uleb128 0x16
 10970 354f 5F6C6200 		.ascii	"_lb\000"
 10971 3553 2B       		.byte	0x2b
 10972 3554 D7       		.byte	0xd7
 10973 3555 4E340000 		.4byte	0x344e
 10974 3559 44       		.byte	0x44
 10975 355a 08       		.uleb128 0x8
 10976 355b DF0D0000 		.4byte	.LASF838
 10977 355f 2B       		.byte	0x2b
 10978 3560 DA       		.byte	0xda
 10979 3561 2C000000 		.4byte	0x2c
 10980 3565 4C       		.byte	0x4c
 10981 3566 08       		.uleb128 0x8
 10982 3567 091E0000 		.4byte	.LASF839
 10983 356b 2B       		.byte	0x2b
 10984 356c DB       		.byte	0xdb
 10985 356d 28320000 		.4byte	0x3228
 10986 3571 50       		.byte	0x50
 10987 3572 08       		.uleb128 0x8
 10988 3573 171B0000 		.4byte	.LASF840
 10989 3577 2B       		.byte	0x2b
 10990 3578 DE       		.byte	0xde
 10991 3579 C1350000 		.4byte	0x35c1
 10992 357d 54       		.byte	0x54
 10993 357e 08       		.uleb128 0x8
 10994 357f 99030000 		.4byte	.LASF841
 10995 3583 2B       		.byte	0x2b
 10996 3584 E2       		.byte	0xe2
 10997 3585 A5320000 		.4byte	0x32a5
ARM GAS  /tmp/ccU5UnMV.s 			page 208


 10998 3589 58       		.byte	0x58
 10999 358a 08       		.uleb128 0x8
 11000 358b 8B010000 		.4byte	.LASF842
 11001 358f 2B       		.byte	0x2b
 11002 3590 E4       		.byte	0xe4
 11003 3591 9A320000 		.4byte	0x329a
 11004 3595 5C       		.byte	0x5c
 11005 3596 08       		.uleb128 0x8
 11006 3597 A6300000 		.4byte	.LASF843
 11007 359b 2B       		.byte	0x2b
 11008 359c E5       		.byte	0xe5
 11009 359d 2C000000 		.4byte	0x2c
 11010 35a1 64       		.byte	0x64
 11011 35a2 00       		.byte	0
 11012 35a3 1F       		.uleb128 0x1f
 11013 35a4 2C000000 		.4byte	0x2c
 11014 35a8 C1350000 		.4byte	0x35c1
 11015 35ac 0E       		.uleb128 0xe
 11016 35ad C1350000 		.4byte	0x35c1
 11017 35b1 0E       		.uleb128 0xe
 11018 35b2 95030000 		.4byte	0x395
 11019 35b6 0E       		.uleb128 0xe
 11020 35b7 B0320000 		.4byte	0x32b0
 11021 35bb 0E       		.uleb128 0xe
 11022 35bc 2C000000 		.4byte	0x2c
 11023 35c0 00       		.byte	0
 11024 35c1 0B       		.uleb128 0xb
 11025 35c2 04       		.byte	0x4
 11026 35c3 CC350000 		.4byte	0x35cc
 11027 35c7 06       		.uleb128 0x6
 11028 35c8 C1350000 		.4byte	0x35c1
 11029 35cc 10       		.uleb128 0x10
 11030 35cd 791E0000 		.4byte	.LASF844
 11031 35d1 2804     		.2byte	0x428
 11032 35d3 2B       		.byte	0x2b
 11033 35d4 6002     		.2byte	0x260
 11034 35d6 FE360000 		.4byte	0x36fe
 11035 35da 0A       		.uleb128 0xa
 11036 35db 42160000 		.4byte	.LASF845
 11037 35df 2B       		.byte	0x2b
 11038 35e0 6202     		.2byte	0x262
 11039 35e2 2C000000 		.4byte	0x2c
 11040 35e6 00       		.byte	0
 11041 35e7 0A       		.uleb128 0xa
 11042 35e8 48100000 		.4byte	.LASF846
 11043 35ec 2B       		.byte	0x2b
 11044 35ed 6702     		.2byte	0x267
 11045 35ef BD370000 		.4byte	0x37bd
 11046 35f3 04       		.byte	0x4
 11047 35f4 0A       		.uleb128 0xa
 11048 35f5 560B0000 		.4byte	.LASF847
 11049 35f9 2B       		.byte	0x2b
 11050 35fa 6702     		.2byte	0x267
 11051 35fc BD370000 		.4byte	0x37bd
 11052 3600 08       		.byte	0x8
 11053 3601 0A       		.uleb128 0xa
 11054 3602 4C0A0000 		.4byte	.LASF848
ARM GAS  /tmp/ccU5UnMV.s 			page 209


 11055 3606 2B       		.byte	0x2b
 11056 3607 6702     		.2byte	0x267
 11057 3609 BD370000 		.4byte	0x37bd
 11058 360d 0C       		.byte	0xc
 11059 360e 0A       		.uleb128 0xa
 11060 360f 4E020000 		.4byte	.LASF849
 11061 3613 2B       		.byte	0x2b
 11062 3614 6902     		.2byte	0x269
 11063 3616 2C000000 		.4byte	0x2c
 11064 361a 10       		.byte	0x10
 11065 361b 0A       		.uleb128 0xa
 11066 361c D2130000 		.4byte	.LASF850
 11067 3620 2B       		.byte	0x2b
 11068 3621 6A02     		.2byte	0x26a
 11069 3623 9F390000 		.4byte	0x399f
 11070 3627 14       		.byte	0x14
 11071 3628 0A       		.uleb128 0xa
 11072 3629 472E0000 		.4byte	.LASF851
 11073 362d 2B       		.byte	0x2b
 11074 362e 6D02     		.2byte	0x26d
 11075 3630 2C000000 		.4byte	0x2c
 11076 3634 30       		.byte	0x30
 11077 3635 0A       		.uleb128 0xa
 11078 3636 7B310000 		.4byte	.LASF852
 11079 363a 2B       		.byte	0x2b
 11080 363b 6E02     		.2byte	0x26e
 11081 363d B4390000 		.4byte	0x39b4
 11082 3641 34       		.byte	0x34
 11083 3642 0A       		.uleb128 0xa
 11084 3643 C22E0000 		.4byte	.LASF853
 11085 3647 2B       		.byte	0x2b
 11086 3648 7002     		.2byte	0x270
 11087 364a 2C000000 		.4byte	0x2c
 11088 364e 38       		.byte	0x38
 11089 364f 0A       		.uleb128 0xa
 11090 3650 8E190000 		.4byte	.LASF854
 11091 3654 2B       		.byte	0x2b
 11092 3655 7202     		.2byte	0x272
 11093 3657 C5390000 		.4byte	0x39c5
 11094 365b 3C       		.byte	0x3c
 11095 365c 0A       		.uleb128 0xa
 11096 365d 540A0000 		.4byte	.LASF855
 11097 3661 2B       		.byte	0x2b
 11098 3662 7502     		.2byte	0x275
 11099 3664 14330000 		.4byte	0x3314
 11100 3668 40       		.byte	0x40
 11101 3669 0A       		.uleb128 0xa
 11102 366a 3D0A0000 		.4byte	.LASF856
 11103 366e 2B       		.byte	0x2b
 11104 366f 7602     		.2byte	0x276
 11105 3671 2C000000 		.4byte	0x2c
 11106 3675 44       		.byte	0x44
 11107 3676 0A       		.uleb128 0xa
 11108 3677 782A0000 		.4byte	.LASF857
 11109 367b 2B       		.byte	0x2b
 11110 367c 7702     		.2byte	0x277
 11111 367e 14330000 		.4byte	0x3314
ARM GAS  /tmp/ccU5UnMV.s 			page 210


 11112 3682 48       		.byte	0x48
 11113 3683 0A       		.uleb128 0xa
 11114 3684 861D0000 		.4byte	.LASF858
 11115 3688 2B       		.byte	0x2b
 11116 3689 7802     		.2byte	0x278
 11117 368b CB390000 		.4byte	0x39cb
 11118 368f 4C       		.byte	0x4c
 11119 3690 0A       		.uleb128 0xa
 11120 3691 2D030000 		.4byte	.LASF859
 11121 3695 2B       		.byte	0x2b
 11122 3696 7B02     		.2byte	0x27b
 11123 3698 2C000000 		.4byte	0x2c
 11124 369c 50       		.byte	0x50
 11125 369d 0A       		.uleb128 0xa
 11126 369e B5130000 		.4byte	.LASF860
 11127 36a2 2B       		.byte	0x2b
 11128 36a3 7C02     		.2byte	0x27c
 11129 36a5 B0320000 		.4byte	0x32b0
 11130 36a9 54       		.byte	0x54
 11131 36aa 0A       		.uleb128 0xa
 11132 36ab 13060000 		.4byte	.LASF861
 11133 36af 2B       		.byte	0x2b
 11134 36b0 9F02     		.2byte	0x29f
 11135 36b2 7D390000 		.4byte	0x397d
 11136 36b6 58       		.byte	0x58
 11137 36b7 1A       		.uleb128 0x1a
 11138 36b8 94010000 		.4byte	.LASF821
 11139 36bc 2B       		.byte	0x2b
 11140 36bd A302     		.2byte	0x2a3
 11141 36bf 31340000 		.4byte	0x3431
 11142 36c3 4801     		.2byte	0x148
 11143 36c5 1A       		.uleb128 0x1a
 11144 36c6 BD240000 		.4byte	.LASF862
 11145 36ca 2B       		.byte	0x2b
 11146 36cb A402     		.2byte	0x2a4
 11147 36cd F3330000 		.4byte	0x33f3
 11148 36d1 4C01     		.2byte	0x14c
 11149 36d3 1A       		.uleb128 0x1a
 11150 36d4 0D240000 		.4byte	.LASF863
 11151 36d8 2B       		.byte	0x2b
 11152 36d9 A802     		.2byte	0x2a8
 11153 36db DC390000 		.4byte	0x39dc
 11154 36df DC02     		.2byte	0x2dc
 11155 36e1 1A       		.uleb128 0x1a
 11156 36e2 52270000 		.4byte	.LASF864
 11157 36e6 2B       		.byte	0x2b
 11158 36e7 AD02     		.2byte	0x2ad
 11159 36e9 82370000 		.4byte	0x3782
 11160 36ed E002     		.2byte	0x2e0
 11161 36ef 1A       		.uleb128 0x1a
 11162 36f0 49070000 		.4byte	.LASF865
 11163 36f4 2B       		.byte	0x2b
 11164 36f5 AF02     		.2byte	0x2af
 11165 36f7 E8390000 		.4byte	0x39e8
 11166 36fb EC02     		.2byte	0x2ec
 11167 36fd 00       		.byte	0
 11168 36fe 0B       		.uleb128 0xb
ARM GAS  /tmp/ccU5UnMV.s 			page 211


 11169 36ff 04       		.byte	0x4
 11170 3700 A3350000 		.4byte	0x35a3
 11171 3704 1F       		.uleb128 0x1f
 11172 3705 2C000000 		.4byte	0x2c
 11173 3709 22370000 		.4byte	0x3722
 11174 370d 0E       		.uleb128 0xe
 11175 370e C1350000 		.4byte	0x35c1
 11176 3712 0E       		.uleb128 0xe
 11177 3713 95030000 		.4byte	0x395
 11178 3717 0E       		.uleb128 0xe
 11179 3718 ED0C0000 		.4byte	0xced
 11180 371c 0E       		.uleb128 0xe
 11181 371d 2C000000 		.4byte	0x2c
 11182 3721 00       		.byte	0
 11183 3722 0B       		.uleb128 0xb
 11184 3723 04       		.byte	0x4
 11185 3724 04370000 		.4byte	0x3704
 11186 3728 1F       		.uleb128 0x1f
 11187 3729 33320000 		.4byte	0x3233
 11188 372d 46370000 		.4byte	0x3746
 11189 3731 0E       		.uleb128 0xe
 11190 3732 C1350000 		.4byte	0x35c1
 11191 3736 0E       		.uleb128 0xe
 11192 3737 95030000 		.4byte	0x395
 11193 373b 0E       		.uleb128 0xe
 11194 373c 33320000 		.4byte	0x3233
 11195 3740 0E       		.uleb128 0xe
 11196 3741 2C000000 		.4byte	0x2c
 11197 3745 00       		.byte	0
 11198 3746 0B       		.uleb128 0xb
 11199 3747 04       		.byte	0x4
 11200 3748 28370000 		.4byte	0x3728
 11201 374c 1F       		.uleb128 0x1f
 11202 374d 2C000000 		.4byte	0x2c
 11203 3751 60370000 		.4byte	0x3760
 11204 3755 0E       		.uleb128 0xe
 11205 3756 C1350000 		.4byte	0x35c1
 11206 375a 0E       		.uleb128 0xe
 11207 375b 95030000 		.4byte	0x395
 11208 375f 00       		.byte	0
 11209 3760 0B       		.uleb128 0xb
 11210 3761 04       		.byte	0x4
 11211 3762 4C370000 		.4byte	0x374c
 11212 3766 11       		.uleb128 0x11
 11213 3767 6C000000 		.4byte	0x6c
 11214 376b 76370000 		.4byte	0x3776
 11215 376f 12       		.uleb128 0x12
 11216 3770 48000000 		.4byte	0x48
 11217 3774 00       		.byte	0
 11218 3775 00       		.byte	0
 11219 3776 18       		.uleb128 0x18
 11220 3777 6D330000 		.4byte	.LASF866
 11221 377b 2B       		.byte	0x2b
 11222 377c 1F01     		.2byte	0x11f
 11223 377e 79340000 		.4byte	0x3479
 11224 3782 0C       		.uleb128 0xc
 11225 3783 99230000 		.4byte	.LASF867
ARM GAS  /tmp/ccU5UnMV.s 			page 212


 11226 3787 0C       		.byte	0xc
 11227 3788 2B       		.byte	0x2b
 11228 3789 2301     		.2byte	0x123
 11229 378b B7370000 		.4byte	0x37b7
 11230 378f 0A       		.uleb128 0xa
 11231 3790 AE170000 		.4byte	.LASF802
 11232 3794 2B       		.byte	0x2b
 11233 3795 2501     		.2byte	0x125
 11234 3797 B7370000 		.4byte	0x37b7
 11235 379b 00       		.byte	0
 11236 379c 0A       		.uleb128 0xa
 11237 379d 5E1E0000 		.4byte	.LASF868
 11238 37a1 2B       		.byte	0x2b
 11239 37a2 2601     		.2byte	0x126
 11240 37a4 2C000000 		.4byte	0x2c
 11241 37a8 04       		.byte	0x4
 11242 37a9 0A       		.uleb128 0xa
 11243 37aa 90200000 		.4byte	.LASF869
 11244 37ae 2B       		.byte	0x2b
 11245 37af 2701     		.2byte	0x127
 11246 37b1 BD370000 		.4byte	0x37bd
 11247 37b5 08       		.byte	0x8
 11248 37b6 00       		.byte	0
 11249 37b7 0B       		.uleb128 0xb
 11250 37b8 04       		.byte	0x4
 11251 37b9 82370000 		.4byte	0x3782
 11252 37bd 0B       		.uleb128 0xb
 11253 37be 04       		.byte	0x4
 11254 37bf 76370000 		.4byte	0x3776
 11255 37c3 0C       		.uleb128 0xc
 11256 37c4 7D350000 		.4byte	.LASF870
 11257 37c8 0E       		.byte	0xe
 11258 37c9 2B       		.byte	0x2b
 11259 37ca 3F01     		.2byte	0x13f
 11260 37cc F8370000 		.4byte	0x37f8
 11261 37d0 0A       		.uleb128 0xa
 11262 37d1 5A1C0000 		.4byte	.LASF871
 11263 37d5 2B       		.byte	0x2b
 11264 37d6 4001     		.2byte	0x140
 11265 37d8 F8370000 		.4byte	0x37f8
 11266 37dc 00       		.byte	0
 11267 37dd 0A       		.uleb128 0xa
 11268 37de F3340000 		.4byte	.LASF872
 11269 37e2 2B       		.byte	0x2b
 11270 37e3 4101     		.2byte	0x141
 11271 37e5 F8370000 		.4byte	0x37f8
 11272 37e9 06       		.byte	0x6
 11273 37ea 0A       		.uleb128 0xa
 11274 37eb 651E0000 		.4byte	.LASF873
 11275 37ef 2B       		.byte	0x2b
 11276 37f0 4201     		.2byte	0x142
 11277 37f2 85000000 		.4byte	0x85
 11278 37f6 0C       		.byte	0xc
 11279 37f7 00       		.byte	0
 11280 37f8 11       		.uleb128 0x11
 11281 37f9 85000000 		.4byte	0x85
 11282 37fd 08380000 		.4byte	0x3808
ARM GAS  /tmp/ccU5UnMV.s 			page 213


 11283 3801 12       		.uleb128 0x12
 11284 3802 48000000 		.4byte	0x48
 11285 3806 02       		.byte	0x2
 11286 3807 00       		.byte	0
 11287 3808 17       		.uleb128 0x17
 11288 3809 D0       		.byte	0xd0
 11289 380a 2B       		.byte	0x2b
 11290 380b 8002     		.2byte	0x280
 11291 380d 09390000 		.4byte	0x3909
 11292 3811 0A       		.uleb128 0xa
 11293 3812 86090000 		.4byte	.LASF874
 11294 3816 2B       		.byte	0x2b
 11295 3817 8202     		.2byte	0x282
 11296 3819 48000000 		.4byte	0x48
 11297 381d 00       		.byte	0
 11298 381e 0A       		.uleb128 0xa
 11299 381f 6F0C0000 		.4byte	.LASF875
 11300 3823 2B       		.byte	0x2b
 11301 3824 8302     		.2byte	0x283
 11302 3826 B0320000 		.4byte	0x32b0
 11303 382a 04       		.byte	0x4
 11304 382b 0A       		.uleb128 0xa
 11305 382c BB1E0000 		.4byte	.LASF876
 11306 3830 2B       		.byte	0x2b
 11307 3831 8402     		.2byte	0x284
 11308 3833 09390000 		.4byte	0x3909
 11309 3837 08       		.byte	0x8
 11310 3838 0A       		.uleb128 0xa
 11311 3839 73120000 		.4byte	.LASF877
 11312 383d 2B       		.byte	0x2b
 11313 383e 8502     		.2byte	0x285
 11314 3840 2A330000 		.4byte	0x332a
 11315 3844 24       		.byte	0x24
 11316 3845 0A       		.uleb128 0xa
 11317 3846 D92C0000 		.4byte	.LASF878
 11318 384a 2B       		.byte	0x2b
 11319 384b 8602     		.2byte	0x286
 11320 384d 2C000000 		.4byte	0x2c
 11321 3851 48       		.byte	0x48
 11322 3852 0A       		.uleb128 0xa
 11323 3853 E2200000 		.4byte	.LASF879
 11324 3857 2B       		.byte	0x2b
 11325 3858 8702     		.2byte	0x287
 11326 385a C2000000 		.4byte	0xc2
 11327 385e 50       		.byte	0x50
 11328 385f 0A       		.uleb128 0xa
 11329 3860 8C340000 		.4byte	.LASF880
 11330 3864 2B       		.byte	0x2b
 11331 3865 8802     		.2byte	0x288
 11332 3867 C3370000 		.4byte	0x37c3
 11333 386b 58       		.byte	0x58
 11334 386c 0A       		.uleb128 0xa
 11335 386d 45270000 		.4byte	.LASF881
 11336 3871 2B       		.byte	0x2b
 11337 3872 8902     		.2byte	0x289
 11338 3874 9A320000 		.4byte	0x329a
 11339 3878 68       		.byte	0x68
ARM GAS  /tmp/ccU5UnMV.s 			page 214


 11340 3879 0A       		.uleb128 0xa
 11341 387a 86070000 		.4byte	.LASF882
 11342 387e 2B       		.byte	0x2b
 11343 387f 8A02     		.2byte	0x28a
 11344 3881 9A320000 		.4byte	0x329a
 11345 3885 70       		.byte	0x70
 11346 3886 0A       		.uleb128 0xa
 11347 3887 8B040000 		.4byte	.LASF883
 11348 388b 2B       		.byte	0x2b
 11349 388c 8B02     		.2byte	0x28b
 11350 388e 9A320000 		.4byte	0x329a
 11351 3892 78       		.byte	0x78
 11352 3893 0A       		.uleb128 0xa
 11353 3894 8E1E0000 		.4byte	.LASF884
 11354 3898 2B       		.byte	0x2b
 11355 3899 8C02     		.2byte	0x28c
 11356 389b 19390000 		.4byte	0x3919
 11357 389f 80       		.byte	0x80
 11358 38a0 0A       		.uleb128 0xa
 11359 38a1 DF170000 		.4byte	.LASF885
 11360 38a5 2B       		.byte	0x2b
 11361 38a6 8D02     		.2byte	0x28d
 11362 38a8 29390000 		.4byte	0x3929
 11363 38ac 88       		.byte	0x88
 11364 38ad 0A       		.uleb128 0xa
 11365 38ae 2E250000 		.4byte	.LASF886
 11366 38b2 2B       		.byte	0x2b
 11367 38b3 8E02     		.2byte	0x28e
 11368 38b5 2C000000 		.4byte	0x2c
 11369 38b9 A0       		.byte	0xa0
 11370 38ba 0A       		.uleb128 0xa
 11371 38bb 9C0F0000 		.4byte	.LASF887
 11372 38bf 2B       		.byte	0x2b
 11373 38c0 8F02     		.2byte	0x28f
 11374 38c2 9A320000 		.4byte	0x329a
 11375 38c6 A4       		.byte	0xa4
 11376 38c7 0A       		.uleb128 0xa
 11377 38c8 44000000 		.4byte	.LASF888
 11378 38cc 2B       		.byte	0x2b
 11379 38cd 9002     		.2byte	0x290
 11380 38cf 9A320000 		.4byte	0x329a
 11381 38d3 AC       		.byte	0xac
 11382 38d4 0A       		.uleb128 0xa
 11383 38d5 C70B0000 		.4byte	.LASF889
 11384 38d9 2B       		.byte	0x2b
 11385 38da 9102     		.2byte	0x291
 11386 38dc 9A320000 		.4byte	0x329a
 11387 38e0 B4       		.byte	0xb4
 11388 38e1 0A       		.uleb128 0xa
 11389 38e2 E8190000 		.4byte	.LASF890
 11390 38e6 2B       		.byte	0x2b
 11391 38e7 9202     		.2byte	0x292
 11392 38e9 9A320000 		.4byte	0x329a
 11393 38ed BC       		.byte	0xbc
 11394 38ee 0A       		.uleb128 0xa
 11395 38ef F21E0000 		.4byte	.LASF891
 11396 38f3 2B       		.byte	0x2b
ARM GAS  /tmp/ccU5UnMV.s 			page 215


 11397 38f4 9302     		.2byte	0x293
 11398 38f6 9A320000 		.4byte	0x329a
 11399 38fa C4       		.byte	0xc4
 11400 38fb 0A       		.uleb128 0xa
 11401 38fc 16290000 		.4byte	.LASF892
 11402 3900 2B       		.byte	0x2b
 11403 3901 9402     		.2byte	0x294
 11404 3903 2C000000 		.4byte	0x2c
 11405 3907 CC       		.byte	0xcc
 11406 3908 00       		.byte	0
 11407 3909 11       		.uleb128 0x11
 11408 390a F80C0000 		.4byte	0xcf8
 11409 390e 19390000 		.4byte	0x3919
 11410 3912 12       		.uleb128 0x12
 11411 3913 48000000 		.4byte	0x48
 11412 3917 19       		.byte	0x19
 11413 3918 00       		.byte	0
 11414 3919 11       		.uleb128 0x11
 11415 391a F80C0000 		.4byte	0xcf8
 11416 391e 29390000 		.4byte	0x3929
 11417 3922 12       		.uleb128 0x12
 11418 3923 48000000 		.4byte	0x48
 11419 3927 07       		.byte	0x7
 11420 3928 00       		.byte	0
 11421 3929 11       		.uleb128 0x11
 11422 392a F80C0000 		.4byte	0xcf8
 11423 392e 39390000 		.4byte	0x3939
 11424 3932 12       		.uleb128 0x12
 11425 3933 48000000 		.4byte	0x48
 11426 3937 17       		.byte	0x17
 11427 3938 00       		.byte	0
 11428 3939 17       		.uleb128 0x17
 11429 393a F0       		.byte	0xf0
 11430 393b 2B       		.byte	0x2b
 11431 393c 9902     		.2byte	0x299
 11432 393e 5D390000 		.4byte	0x395d
 11433 3942 0A       		.uleb128 0xa
 11434 3943 B7300000 		.4byte	.LASF893
 11435 3947 2B       		.byte	0x2b
 11436 3948 9C02     		.2byte	0x29c
 11437 394a 5D390000 		.4byte	0x395d
 11438 394e 00       		.byte	0
 11439 394f 0A       		.uleb128 0xa
 11440 3950 4F100000 		.4byte	.LASF894
 11441 3954 2B       		.byte	0x2b
 11442 3955 9D02     		.2byte	0x29d
 11443 3957 6D390000 		.4byte	0x396d
 11444 395b 78       		.byte	0x78
 11445 395c 00       		.byte	0
 11446 395d 11       		.uleb128 0x11
 11447 395e 73340000 		.4byte	0x3473
 11448 3962 6D390000 		.4byte	0x396d
 11449 3966 12       		.uleb128 0x12
 11450 3967 48000000 		.4byte	0x48
 11451 396b 1D       		.byte	0x1d
 11452 396c 00       		.byte	0
 11453 396d 11       		.uleb128 0x11
ARM GAS  /tmp/ccU5UnMV.s 			page 216


 11454 396e 48000000 		.4byte	0x48
 11455 3972 7D390000 		.4byte	0x397d
 11456 3976 12       		.uleb128 0x12
 11457 3977 48000000 		.4byte	0x48
 11458 397b 1D       		.byte	0x1d
 11459 397c 00       		.byte	0
 11460 397d 2B       		.uleb128 0x2b
 11461 397e F0       		.byte	0xf0
 11462 397f 2B       		.byte	0x2b
 11463 3980 7E02     		.2byte	0x27e
 11464 3982 9F390000 		.4byte	0x399f
 11465 3986 1D       		.uleb128 0x1d
 11466 3987 791E0000 		.4byte	.LASF844
 11467 398b 2B       		.byte	0x2b
 11468 398c 9502     		.2byte	0x295
 11469 398e 08380000 		.4byte	0x3808
 11470 3992 1D       		.uleb128 0x1d
 11471 3993 AE030000 		.4byte	.LASF895
 11472 3997 2B       		.byte	0x2b
 11473 3998 9E02     		.2byte	0x29e
 11474 399a 39390000 		.4byte	0x3939
 11475 399e 00       		.byte	0
 11476 399f 11       		.uleb128 0x11
 11477 39a0 F80C0000 		.4byte	0xcf8
 11478 39a4 AF390000 		.4byte	0x39af
 11479 39a8 12       		.uleb128 0x12
 11480 39a9 48000000 		.4byte	0x48
 11481 39ad 18       		.byte	0x18
 11482 39ae 00       		.byte	0
 11483 39af 2D       		.uleb128 0x2d
 11484 39b0 5A270000 		.4byte	.LASF897
 11485 39b4 0B       		.uleb128 0xb
 11486 39b5 04       		.byte	0x4
 11487 39b6 AF390000 		.4byte	0x39af
 11488 39ba 0D       		.uleb128 0xd
 11489 39bb C5390000 		.4byte	0x39c5
 11490 39bf 0E       		.uleb128 0xe
 11491 39c0 C1350000 		.4byte	0x35c1
 11492 39c4 00       		.byte	0
 11493 39c5 0B       		.uleb128 0xb
 11494 39c6 04       		.byte	0x4
 11495 39c7 BA390000 		.4byte	0x39ba
 11496 39cb 0B       		.uleb128 0xb
 11497 39cc 04       		.byte	0x4
 11498 39cd 14330000 		.4byte	0x3314
 11499 39d1 0D       		.uleb128 0xd
 11500 39d2 DC390000 		.4byte	0x39dc
 11501 39d6 0E       		.uleb128 0xe
 11502 39d7 2C000000 		.4byte	0x2c
 11503 39db 00       		.byte	0
 11504 39dc 0B       		.uleb128 0xb
 11505 39dd 04       		.byte	0x4
 11506 39de E2390000 		.4byte	0x39e2
 11507 39e2 0B       		.uleb128 0xb
 11508 39e3 04       		.byte	0x4
 11509 39e4 D1390000 		.4byte	0x39d1
 11510 39e8 11       		.uleb128 0x11
ARM GAS  /tmp/ccU5UnMV.s 			page 217


 11511 39e9 76370000 		.4byte	0x3776
 11512 39ed F8390000 		.4byte	0x39f8
 11513 39f1 12       		.uleb128 0x12
 11514 39f2 48000000 		.4byte	0x48
 11515 39f6 02       		.byte	0x2
 11516 39f7 00       		.byte	0
 11517 39f8 13       		.uleb128 0x13
 11518 39f9 AA260000 		.4byte	.LASF898
 11519 39fd 2B       		.byte	0x2b
 11520 39fe 2E03     		.2byte	0x32e
 11521 3a00 C1350000 		.4byte	0x35c1
 11522 3a04 13       		.uleb128 0x13
 11523 3a05 95280000 		.4byte	.LASF899
 11524 3a09 2B       		.byte	0x2b
 11525 3a0a 2F03     		.2byte	0x32f
 11526 3a0c C7350000 		.4byte	0x35c7
 11527 3a10 02       		.uleb128 0x2
 11528 3a11 08       		.byte	0x8
 11529 3a12 04       		.byte	0x4
 11530 3a13 7E280000 		.4byte	.LASF900
 11531 3a17 2F       		.uleb128 0x2f
 11532 3a18 581F0000 		.4byte	.LASF1029
 11533 3a1c 05       		.byte	0x5
 11534 3a1d 01       		.byte	0x1
 11535 3a1e 5A000000 		.4byte	0x5a
 11536 3a22 2C       		.byte	0x2c
 11537 3a23 8202     		.2byte	0x282
 11538 3a25 423A0000 		.4byte	0x3a42
 11539 3a29 30       		.uleb128 0x30
 11540 3a2a 4D1D0000 		.4byte	.LASF901
 11541 3a2e 7F       		.sleb128 -1
 11542 3a2f 21       		.uleb128 0x21
 11543 3a30 46030000 		.4byte	.LASF902
 11544 3a34 00       		.byte	0
 11545 3a35 21       		.uleb128 0x21
 11546 3a36 F61C0000 		.4byte	.LASF903
 11547 3a3a 01       		.byte	0x1
 11548 3a3b 21       		.uleb128 0x21
 11549 3a3c DA2E0000 		.4byte	.LASF904
 11550 3a40 02       		.byte	0x2
 11551 3a41 00       		.byte	0
 11552 3a42 13       		.uleb128 0x13
 11553 3a43 4A340000 		.4byte	.LASF905
 11554 3a47 2C       		.byte	0x2c
 11555 3a48 8D02     		.2byte	0x28d
 11556 3a4a 173A0000 		.4byte	0x3a17
 11557 3a4e 07       		.uleb128 0x7
 11558 3a4f D81F0000 		.4byte	.LASF906
 11559 3a53 10       		.byte	0x10
 11560 3a54 01       		.byte	0x1
 11561 3a55 2F       		.byte	0x2f
 11562 3a56 8B3A0000 		.4byte	0x3a8b
 11563 3a5a 08       		.uleb128 0x8
 11564 3a5b 8A140000 		.4byte	.LASF907
 11565 3a5f 01       		.byte	0x1
 11566 3a60 30       		.byte	0x30
 11567 3a61 ED0C0000 		.4byte	0xced
ARM GAS  /tmp/ccU5UnMV.s 			page 218


 11568 3a65 00       		.byte	0
 11569 3a66 08       		.uleb128 0x8
 11570 3a67 A1200000 		.4byte	.LASF908
 11571 3a6b 01       		.byte	0x1
 11572 3a6c 31       		.byte	0x31
 11573 3a6d ED0C0000 		.4byte	0xced
 11574 3a71 04       		.byte	0x4
 11575 3a72 08       		.uleb128 0x8
 11576 3a73 B92A0000 		.4byte	.LASF909
 11577 3a77 01       		.byte	0x1
 11578 3a78 32       		.byte	0x32
 11579 3a79 ED0C0000 		.4byte	0xced
 11580 3a7d 08       		.byte	0x8
 11581 3a7e 16       		.uleb128 0x16
 11582 3a7f 63626600 		.ascii	"cbf\000"
 11583 3a83 01       		.byte	0x1
 11584 3a84 33       		.byte	0x33
 11585 3a85 A13A0000 		.4byte	0x3aa1
 11586 3a89 0C       		.byte	0xc
 11587 3a8a 00       		.byte	0
 11588 3a8b 0D       		.uleb128 0xd
 11589 3a8c 9B3A0000 		.4byte	0x3a9b
 11590 3a90 0E       		.uleb128 0xe
 11591 3a91 2C000000 		.4byte	0x2c
 11592 3a95 0E       		.uleb128 0xe
 11593 3a96 9B3A0000 		.4byte	0x3a9b
 11594 3a9a 00       		.byte	0
 11595 3a9b 0B       		.uleb128 0xb
 11596 3a9c 04       		.byte	0x4
 11597 3a9d ED0C0000 		.4byte	0xced
 11598 3aa1 0B       		.uleb128 0xb
 11599 3aa2 04       		.byte	0x4
 11600 3aa3 8B3A0000 		.4byte	0x3a8b
 11601 3aa7 05       		.uleb128 0x5
 11602 3aa8 C6180000 		.4byte	.LASF910
 11603 3aac 01       		.byte	0x1
 11604 3aad 34       		.byte	0x34
 11605 3aae 4E3A0000 		.4byte	0x3a4e
 11606 3ab2 11       		.uleb128 0x11
 11607 3ab3 3B1B0000 		.4byte	0x1b3b
 11608 3ab7 C23A0000 		.4byte	0x3ac2
 11609 3abb 12       		.uleb128 0x12
 11610 3abc 48000000 		.4byte	0x48
 11611 3ac0 18       		.byte	0x18
 11612 3ac1 00       		.byte	0
 11613 3ac2 04       		.uleb128 0x4
 11614 3ac3 B23A0000 		.4byte	0x3ab2
 11615 3ac7 31       		.uleb128 0x31
 11616 3ac8 1C110000 		.4byte	.LASF911
 11617 3acc 01       		.byte	0x1
 11618 3acd 37       		.byte	0x37
 11619 3ace C23A0000 		.4byte	0x3ac2
 11620 3ad2 05       		.uleb128 0x5
 11621 3ad3 03       		.byte	0x3
 11622 3ad4 00000000 		.4byte	fault_vec
 11623 3ad8 31       		.uleb128 0x31
 11624 3ad9 0E2F0000 		.4byte	.LASF912
ARM GAS  /tmp/ccU5UnMV.s 			page 219


 11625 3add 01       		.byte	0x1
 11626 3ade 38       		.byte	0x38
 11627 3adf 33000000 		.4byte	0x33
 11628 3ae3 05       		.uleb128 0x5
 11629 3ae4 03       		.byte	0x3
 11630 3ae5 00000000 		.4byte	fault_vec_write
 11631 3ae9 11       		.uleb128 0x11
 11632 3aea A73A0000 		.4byte	0x3aa7
 11633 3aee F93A0000 		.4byte	0x3af9
 11634 3af2 12       		.uleb128 0x12
 11635 3af3 48000000 		.4byte	0x48
 11636 3af7 27       		.byte	0x27
 11637 3af8 00       		.byte	0
 11638 3af9 31       		.uleb128 0x31
 11639 3afa C2350000 		.4byte	.LASF913
 11640 3afe 01       		.byte	0x1
 11641 3aff 39       		.byte	0x39
 11642 3b00 E93A0000 		.4byte	0x3ae9
 11643 3b04 05       		.uleb128 0x5
 11644 3b05 03       		.byte	0x3
 11645 3b06 00000000 		.4byte	callbacks
 11646 3b0a 31       		.uleb128 0x31
 11647 3b0b BE0C0000 		.4byte	.LASF914
 11648 3b0f 01       		.byte	0x1
 11649 3b10 3A       		.byte	0x3a
 11650 3b11 2C000000 		.4byte	0x2c
 11651 3b15 05       		.uleb128 0x5
 11652 3b16 03       		.byte	0x3
 11653 3b17 00000000 		.4byte	callback_write
 11654 3b1b 32       		.uleb128 0x32
 11655 3b1c 720A0000 		.4byte	.LASF916
 11656 3b20 01       		.byte	0x1
 11657 3b21 4F03     		.2byte	0x34f
 11658 3b23 00000000 		.4byte	.LFB261
 11659 3b27 84000000 		.4byte	.LFE261-.LFB261
 11660 3b2b 01       		.uleb128 0x1
 11661 3b2c 9C       		.byte	0x9c
 11662 3b2d A63B0000 		.4byte	0x3ba6
 11663 3b31 33       		.uleb128 0x33
 11664 3b32 8A140000 		.4byte	.LASF907
 11665 3b36 01       		.byte	0x1
 11666 3b37 5003     		.2byte	0x350
 11667 3b39 ED0C0000 		.4byte	0xced
 11668 3b3d 00000000 		.4byte	.LLST40
 11669 3b41 33       		.uleb128 0x33
 11670 3b42 A1200000 		.4byte	.LASF908
 11671 3b46 01       		.byte	0x1
 11672 3b47 5103     		.2byte	0x351
 11673 3b49 ED0C0000 		.4byte	0xced
 11674 3b4d 1E000000 		.4byte	.LLST41
 11675 3b51 33       		.uleb128 0x33
 11676 3b52 B92A0000 		.4byte	.LASF909
 11677 3b56 01       		.byte	0x1
 11678 3b57 5203     		.2byte	0x352
 11679 3b59 ED0C0000 		.4byte	0xced
 11680 3b5d 47000000 		.4byte	.LLST42
 11681 3b61 34       		.uleb128 0x34
ARM GAS  /tmp/ccU5UnMV.s 			page 220


 11682 3b62 63626600 		.ascii	"cbf\000"
 11683 3b66 01       		.byte	0x1
 11684 3b67 5303     		.2byte	0x353
 11685 3b69 A13A0000 		.4byte	0x3aa1
 11686 3b6d 70000000 		.4byte	.LLST43
 11687 3b71 35       		.uleb128 0x35
 11688 3b72 BE300000 		.4byte	.LASF915
 11689 3b76 01       		.byte	0x1
 11690 3b77 5503     		.2byte	0x355
 11691 3b79 2C000000 		.4byte	0x2c
 11692 3b7d A4000000 		.4byte	.LLST44
 11693 3b81 36       		.uleb128 0x36
 11694 3b82 18020000 		.4byte	.Ldebug_ranges0+0x218
 11695 3b86 37       		.uleb128 0x37
 11696 3b87 6900     		.ascii	"i\000"
 11697 3b89 01       		.byte	0x1
 11698 3b8a 5703     		.2byte	0x357
 11699 3b8c 2C000000 		.4byte	0x2c
 11700 3b90 DA000000 		.4byte	.LLST45
 11701 3b94 38       		.uleb128 0x38
 11702 3b95 3A000000 		.4byte	.LVL487
 11703 3b99 05620000 		.4byte	0x6205
 11704 3b9d 39       		.uleb128 0x39
 11705 3b9e 01       		.uleb128 0x1
 11706 3b9f 51       		.byte	0x51
 11707 3ba0 02       		.uleb128 0x2
 11708 3ba1 75       		.byte	0x75
 11709 3ba2 00       		.sleb128 0
 11710 3ba3 00       		.byte	0
 11711 3ba4 00       		.byte	0
 11712 3ba5 00       		.byte	0
 11713 3ba6 32       		.uleb128 0x32
 11714 3ba7 F5230000 		.4byte	.LASF917
 11715 3bab 01       		.byte	0x1
 11716 3bac 3703     		.2byte	0x337
 11717 3bae 00000000 		.4byte	.LFB260
 11718 3bb2 44000000 		.4byte	.LFE260-.LFB260
 11719 3bb6 01       		.uleb128 0x1
 11720 3bb7 9C       		.byte	0x9c
 11721 3bb8 CD3B0000 		.4byte	0x3bcd
 11722 3bbc 33       		.uleb128 0x33
 11723 3bbd C1290000 		.4byte	.LASF918
 11724 3bc1 01       		.byte	0x1
 11725 3bc2 3703     		.2byte	0x337
 11726 3bc4 CD3B0000 		.4byte	0x3bcd
 11727 3bc8 1F010000 		.4byte	.LLST39
 11728 3bcc 00       		.byte	0
 11729 3bcd 0B       		.uleb128 0xb
 11730 3bce 04       		.byte	0x4
 11731 3bcf 2F1B0000 		.4byte	0x1b2f
 11732 3bd3 3A       		.uleb128 0x3a
 11733 3bd4 EF140000 		.4byte	.LASF919
 11734 3bd8 01       		.byte	0x1
 11735 3bd9 3C       		.byte	0x3c
 11736 3bda 00000000 		.4byte	.LFB259
 11737 3bde DC170000 		.4byte	.LFE259-.LFB259
 11738 3be2 01       		.uleb128 0x1
ARM GAS  /tmp/ccU5UnMV.s 			page 221


 11739 3be3 9C       		.byte	0x9c
 11740 3be4 40610000 		.4byte	0x6140
 11741 3be8 3B       		.uleb128 0x3b
 11742 3be9 73747200 		.ascii	"str\000"
 11743 3bed 01       		.byte	0x1
 11744 3bee 3C       		.byte	0x3c
 11745 3bef B0320000 		.4byte	0x32b0
 11746 3bf3 67010000 		.4byte	.LLST0
 11747 3bf7 20       		.uleb128 0x20
 11748 3bf8 07       		.byte	0x7
 11749 3bf9 01       		.byte	0x1
 11750 3bfa 6C000000 		.4byte	0x6c
 11751 3bfe 01       		.byte	0x1
 11752 3bff 3D       		.byte	0x3d
 11753 3c00 0B3C0000 		.4byte	0x3c0b
 11754 3c04 21       		.uleb128 0x21
 11755 3c05 AE300000 		.4byte	.LASF920
 11756 3c09 40       		.byte	0x40
 11757 3c0a 00       		.byte	0
 11758 3c0b 3C       		.uleb128 0x3c
 11759 3c0c FB070000 		.4byte	.LASF921
 11760 3c10 01       		.byte	0x1
 11761 3c11 3E       		.byte	0x3e
 11762 3c12 2C000000 		.4byte	0x2c
 11763 3c16 88010000 		.4byte	.LLST1
 11764 3c1a 31       		.uleb128 0x31
 11765 3c1b 48290000 		.4byte	.LASF922
 11766 3c1f 01       		.byte	0x1
 11767 3c20 3F       		.byte	0x3f
 11768 3c21 40610000 		.4byte	0x6140
 11769 3c25 03       		.uleb128 0x3
 11770 3c26 91       		.byte	0x91
 11771 3c27 B87D     		.sleb128 -328
 11772 3c29 3D       		.uleb128 0x3d
 11773 3c2a 703200   		.ascii	"p2\000"
 11774 3c2d 01       		.byte	0x1
 11775 3c2e 41       		.byte	0x41
 11776 3c2f B0320000 		.4byte	0x32b0
 11777 3c33 9A020000 		.4byte	.LLST2
 11778 3c37 31       		.uleb128 0x31
 11779 3c38 422A0000 		.4byte	.LASF923
 11780 3c3c 01       		.byte	0x1
 11781 3c3d 4C       		.byte	0x4c
 11782 3c3e 8D180000 		.4byte	0x188d
 11783 3c42 05       		.uleb128 0x5
 11784 3c43 03       		.byte	0x3
 11785 3c44 00000000 		.4byte	mcconf.13222
 11786 3c48 31       		.uleb128 0x31
 11787 3c49 072C0000 		.4byte	.LASF924
 11788 3c4d 01       		.byte	0x1
 11789 3c4e 4D       		.byte	0x4d
 11790 3c4f 8D180000 		.4byte	0x188d
 11791 3c53 05       		.uleb128 0x5
 11792 3c54 03       		.byte	0x3
 11793 3c55 00000000 		.4byte	mcconf_old.13223
 11794 3c59 3E       		.uleb128 0x3e
 11795 3c5a 86010000 		.4byte	.LBB77
ARM GAS  /tmp/ccU5UnMV.s 			page 222


 11796 3c5e 24000000 		.4byte	.LBE77-.LBB77
 11797 3c62 E83C0000 		.4byte	0x3ce8
 11798 3c66 3D       		.uleb128 0x3d
 11799 3c67 6E00     		.ascii	"n\000"
 11800 3c69 01       		.byte	0x1
 11801 3c6a 5D       		.byte	0x5d
 11802 3c6b 38000000 		.4byte	0x38
 11803 3c6f CF020000 		.4byte	.LLST3
 11804 3c73 31       		.uleb128 0x31
 11805 3c74 A5260000 		.4byte	.LASF925
 11806 3c78 01       		.byte	0x1
 11807 3c79 5D       		.byte	0x5d
 11808 3c7a 38000000 		.4byte	0x38
 11809 3c7e 03       		.uleb128 0x3
 11810 3c7f 91       		.byte	0x91
 11811 3c80 9C7D     		.sleb128 -356
 11812 3c82 3F       		.uleb128 0x3f
 11813 3c83 8C010000 		.4byte	.LVL43
 11814 3c87 10620000 		.4byte	0x6210
 11815 3c8b 973C0000 		.4byte	0x3c97
 11816 3c8f 39       		.uleb128 0x39
 11817 3c90 01       		.uleb128 0x1
 11818 3c91 51       		.byte	0x51
 11819 3c92 03       		.uleb128 0x3
 11820 3c93 91       		.byte	0x91
 11821 3c94 9C7D     		.sleb128 -356
 11822 3c96 00       		.byte	0
 11823 3c97 40       		.uleb128 0x40
 11824 3c98 92010000 		.4byte	.LVL45
 11825 3c9c 1B620000 		.4byte	0x621b
 11826 3ca0 3F       		.uleb128 0x3f
 11827 3ca1 9A010000 		.4byte	.LVL46
 11828 3ca5 26620000 		.4byte	0x6226
 11829 3ca9 B73C0000 		.4byte	0x3cb7
 11830 3cad 39       		.uleb128 0x39
 11831 3cae 01       		.uleb128 0x1
 11832 3caf 50       		.byte	0x50
 11833 3cb0 05       		.uleb128 0x5
 11834 3cb1 03       		.byte	0x3
 11835 3cb2 08010000 		.4byte	.LC17
 11836 3cb6 00       		.byte	0
 11837 3cb7 3F       		.uleb128 0x3f
 11838 3cb8 A2010000 		.4byte	.LVL47
 11839 3cbc 26620000 		.4byte	0x6226
 11840 3cc0 D43C0000 		.4byte	0x3cd4
 11841 3cc4 39       		.uleb128 0x39
 11842 3cc5 01       		.uleb128 0x1
 11843 3cc6 50       		.byte	0x50
 11844 3cc7 05       		.uleb128 0x5
 11845 3cc8 03       		.byte	0x3
 11846 3cc9 24010000 		.4byte	.LC18
 11847 3ccd 39       		.uleb128 0x39
 11848 3cce 01       		.uleb128 0x1
 11849 3ccf 51       		.byte	0x51
 11850 3cd0 02       		.uleb128 0x2
 11851 3cd1 74       		.byte	0x74
 11852 3cd2 00       		.sleb128 0
ARM GAS  /tmp/ccU5UnMV.s 			page 223


 11853 3cd3 00       		.byte	0
 11854 3cd4 38       		.uleb128 0x38
 11855 3cd5 AA010000 		.4byte	.LVL48
 11856 3cd9 26620000 		.4byte	0x6226
 11857 3cdd 39       		.uleb128 0x39
 11858 3cde 01       		.uleb128 0x1
 11859 3cdf 50       		.byte	0x50
 11860 3ce0 05       		.uleb128 0x5
 11861 3ce1 03       		.byte	0x3
 11862 3ce2 3C010000 		.4byte	.LC19
 11863 3ce6 00       		.byte	0
 11864 3ce7 00       		.byte	0
 11865 3ce8 3E       		.uleb128 0x3e
 11866 3ce9 AC010000 		.4byte	.LBB78
 11867 3ced 7C000000 		.4byte	.LBE78-.LBB78
 11868 3cf1 AF3D0000 		.4byte	0x3daf
 11869 3cf5 3D       		.uleb128 0x3d
 11870 3cf6 747000   		.ascii	"tp\000"
 11871 3cf9 01       		.byte	0x1
 11872 3cfa 63       		.byte	0x63
 11873 3cfb B8020000 		.4byte	0x2b8
 11874 3cff ED020000 		.4byte	.LLST4
 11875 3d03 31       		.uleb128 0x31
 11876 3d04 630D0000 		.4byte	.LASF926
 11877 3d08 01       		.byte	0x1
 11878 3d09 64       		.byte	0x64
 11879 3d0a 50610000 		.4byte	0x6150
 11880 3d0e 05       		.uleb128 0x5
 11881 3d0f 03       		.byte	0x3
 11882 3d10 00000000 		.4byte	states.13227
 11883 3d14 41       		.uleb128 0x41
 11884 3d15 94610000 		.4byte	0x6194
 11885 3d19 D0010000 		.4byte	.LBB79
 11886 3d1d 04000000 		.4byte	.LBE79-.LBB79
 11887 3d21 01       		.byte	0x1
 11888 3d22 6D       		.byte	0x6d
 11889 3d23 3F       		.uleb128 0x3f
 11890 3d24 BC010000 		.4byte	.LVL50
 11891 3d28 26620000 		.4byte	0x6226
 11892 3d2c 3A3D0000 		.4byte	0x3d3a
 11893 3d30 39       		.uleb128 0x39
 11894 3d31 01       		.uleb128 0x1
 11895 3d32 50       		.byte	0x50
 11896 3d33 05       		.uleb128 0x5
 11897 3d34 03       		.byte	0x3
 11898 3d35 64010000 		.4byte	.LC21
 11899 3d39 00       		.byte	0
 11900 3d3a 3F       		.uleb128 0x3f
 11901 3d3b C2010000 		.4byte	.LVL51
 11902 3d3f 26620000 		.4byte	0x6226
 11903 3d43 513D0000 		.4byte	0x3d51
 11904 3d47 39       		.uleb128 0x39
 11905 3d48 01       		.uleb128 0x1
 11906 3d49 50       		.byte	0x50
 11907 3d4a 05       		.uleb128 0x5
 11908 3d4b 03       		.byte	0x3
 11909 3d4c A4010000 		.4byte	.LC22
ARM GAS  /tmp/ccU5UnMV.s 			page 224


 11910 3d50 00       		.byte	0
 11911 3d51 40       		.uleb128 0x40
 11912 3d52 C6010000 		.4byte	.LVL52
 11913 3d56 31620000 		.4byte	0x6231
 11914 3d5a 3F       		.uleb128 0x3f
 11915 3d5b 16020000 		.4byte	.LVL56
 11916 3d5f 26620000 		.4byte	0x6226
 11917 3d63 873D0000 		.4byte	0x3d87
 11918 3d67 39       		.uleb128 0x39
 11919 3d68 01       		.uleb128 0x1
 11920 3d69 50       		.byte	0x50
 11921 3d6a 02       		.uleb128 0x2
 11922 3d6b 75       		.byte	0x75
 11923 3d6c 00       		.sleb128 0
 11924 3d6d 39       		.uleb128 0x39
 11925 3d6e 01       		.uleb128 0x1
 11926 3d6f 51       		.byte	0x51
 11927 3d70 02       		.uleb128 0x2
 11928 3d71 74       		.byte	0x74
 11929 3d72 00       		.sleb128 0
 11930 3d73 39       		.uleb128 0x39
 11931 3d74 01       		.uleb128 0x1
 11932 3d75 52       		.byte	0x52
 11933 3d76 02       		.uleb128 0x2
 11934 3d77 78       		.byte	0x78
 11935 3d78 00       		.sleb128 0
 11936 3d79 39       		.uleb128 0x39
 11937 3d7a 01       		.uleb128 0x1
 11938 3d7b 53       		.byte	0x53
 11939 3d7c 02       		.uleb128 0x2
 11940 3d7d 79       		.byte	0x79
 11941 3d7e 00       		.sleb128 0
 11942 3d7f 39       		.uleb128 0x39
 11943 3d80 02       		.uleb128 0x2
 11944 3d81 7D       		.byte	0x7d
 11945 3d82 0C       		.sleb128 12
 11946 3d83 02       		.uleb128 0x2
 11947 3d84 7A       		.byte	0x7a
 11948 3d85 00       		.sleb128 0
 11949 3d86 00       		.byte	0
 11950 3d87 3F       		.uleb128 0x3f
 11951 3d88 1C020000 		.4byte	.LVL57
 11952 3d8c 3C620000 		.4byte	0x623c
 11953 3d90 9B3D0000 		.4byte	0x3d9b
 11954 3d94 39       		.uleb128 0x39
 11955 3d95 01       		.uleb128 0x1
 11956 3d96 50       		.byte	0x50
 11957 3d97 02       		.uleb128 0x2
 11958 3d98 74       		.byte	0x74
 11959 3d99 00       		.sleb128 0
 11960 3d9a 00       		.byte	0
 11961 3d9b 38       		.uleb128 0x38
 11962 3d9c 28020000 		.4byte	.LVL59
 11963 3da0 26620000 		.4byte	0x6226
 11964 3da4 39       		.uleb128 0x39
 11965 3da5 01       		.uleb128 0x1
 11966 3da6 50       		.byte	0x50
ARM GAS  /tmp/ccU5UnMV.s 			page 225


 11967 3da7 05       		.uleb128 0x5
 11968 3da8 03       		.byte	0x3
 11969 3da9 14020000 		.4byte	.LC24
 11970 3dad 00       		.byte	0
 11971 3dae 00       		.byte	0
 11972 3daf 3E       		.uleb128 0x3e
 11973 3db0 84020000 		.4byte	.LBB81
 11974 3db4 BC010000 		.4byte	.LBE81-.LBB81
 11975 3db8 3F3F0000 		.4byte	0x3f3f
 11976 3dbc 3D       		.uleb128 0x3d
 11977 3dbd 6900     		.ascii	"i\000"
 11978 3dbf 01       		.byte	0x1
 11979 3dc0 78       		.byte	0x78
 11980 3dc1 2C000000 		.4byte	0x2c
 11981 3dc5 21030000 		.4byte	.LLST5
 11982 3dc9 3F       		.uleb128 0x3f
 11983 3dca 56030000 		.4byte	.LVL69
 11984 3dce 26620000 		.4byte	0x6226
 11985 3dd2 E03D0000 		.4byte	0x3de0
 11986 3dd6 39       		.uleb128 0x39
 11987 3dd7 01       		.uleb128 0x1
 11988 3dd8 50       		.byte	0x50
 11989 3dd9 05       		.uleb128 0x5
 11990 3dda 03       		.byte	0x3
 11991 3ddb 18000000 		.4byte	.LC4
 11992 3ddf 00       		.byte	0
 11993 3de0 40       		.uleb128 0x40
 11994 3de1 70030000 		.4byte	.LVL71
 11995 3de5 47620000 		.4byte	0x6247
 11996 3de9 3F       		.uleb128 0x3f
 11997 3dea 78030000 		.4byte	.LVL72
 11998 3dee 26620000 		.4byte	0x6226
 11999 3df2 FD3D0000 		.4byte	0x3dfd
 12000 3df6 39       		.uleb128 0x39
 12001 3df7 01       		.uleb128 0x1
 12002 3df8 50       		.byte	0x50
 12003 3df9 02       		.uleb128 0x2
 12004 3dfa 7B       		.byte	0x7b
 12005 3dfb 00       		.sleb128 0
 12006 3dfc 00       		.byte	0
 12007 3dfd 3F       		.uleb128 0x3f
 12008 3dfe 88030000 		.4byte	.LVL74
 12009 3e02 26620000 		.4byte	0x6226
 12010 3e06 113E0000 		.4byte	0x3e11
 12011 3e0a 39       		.uleb128 0x39
 12012 3e0b 01       		.uleb128 0x1
 12013 3e0c 50       		.byte	0x50
 12014 3e0d 02       		.uleb128 0x2
 12015 3e0e 7A       		.byte	0x7a
 12016 3e0f 00       		.sleb128 0
 12017 3e10 00       		.byte	0
 12018 3e11 3F       		.uleb128 0x3f
 12019 3e12 98030000 		.4byte	.LVL76
 12020 3e16 26620000 		.4byte	0x6226
 12021 3e1a 253E0000 		.4byte	0x3e25
 12022 3e1e 39       		.uleb128 0x39
 12023 3e1f 01       		.uleb128 0x1
ARM GAS  /tmp/ccU5UnMV.s 			page 226


 12024 3e20 50       		.byte	0x50
 12025 3e21 02       		.uleb128 0x2
 12026 3e22 79       		.byte	0x79
 12027 3e23 00       		.sleb128 0
 12028 3e24 00       		.byte	0
 12029 3e25 3F       		.uleb128 0x3f
 12030 3e26 A8030000 		.4byte	.LVL78
 12031 3e2a 26620000 		.4byte	0x6226
 12032 3e2e 3C3E0000 		.4byte	0x3e3c
 12033 3e32 39       		.uleb128 0x39
 12034 3e33 01       		.uleb128 0x1
 12035 3e34 50       		.byte	0x50
 12036 3e35 05       		.uleb128 0x5
 12037 3e36 03       		.byte	0x3
 12038 3e37 CC020000 		.4byte	.LC33
 12039 3e3b 00       		.byte	0
 12040 3e3c 3F       		.uleb128 0x3f
 12041 3e3d B8030000 		.4byte	.LVL80
 12042 3e41 26620000 		.4byte	0x6226
 12043 3e45 533E0000 		.4byte	0x3e53
 12044 3e49 39       		.uleb128 0x39
 12045 3e4a 01       		.uleb128 0x1
 12046 3e4b 50       		.byte	0x50
 12047 3e4c 05       		.uleb128 0x5
 12048 3e4d 03       		.byte	0x3
 12049 3e4e E4020000 		.4byte	.LC34
 12050 3e52 00       		.byte	0
 12051 3e53 3F       		.uleb128 0x3f
 12052 3e54 C8030000 		.4byte	.LVL82
 12053 3e58 26620000 		.4byte	0x6226
 12054 3e5c 6A3E0000 		.4byte	0x3e6a
 12055 3e60 39       		.uleb128 0x39
 12056 3e61 01       		.uleb128 0x1
 12057 3e62 50       		.byte	0x50
 12058 3e63 05       		.uleb128 0x5
 12059 3e64 03       		.byte	0x3
 12060 3e65 FC020000 		.4byte	.LC35
 12061 3e69 00       		.byte	0
 12062 3e6a 3F       		.uleb128 0x3f
 12063 3e6b D0030000 		.4byte	.LVL83
 12064 3e6f 26620000 		.4byte	0x6226
 12065 3e73 813E0000 		.4byte	0x3e81
 12066 3e77 39       		.uleb128 0x39
 12067 3e78 01       		.uleb128 0x1
 12068 3e79 50       		.byte	0x50
 12069 3e7a 05       		.uleb128 0x5
 12070 3e7b 03       		.byte	0x3
 12071 3e7c 14030000 		.4byte	.LC36
 12072 3e80 00       		.byte	0
 12073 3e81 3F       		.uleb128 0x3f
 12074 3e82 D8030000 		.4byte	.LVL84
 12075 3e86 26620000 		.4byte	0x6226
 12076 3e8a 983E0000 		.4byte	0x3e98
 12077 3e8e 39       		.uleb128 0x39
 12078 3e8f 01       		.uleb128 0x1
 12079 3e90 50       		.byte	0x50
 12080 3e91 05       		.uleb128 0x5
ARM GAS  /tmp/ccU5UnMV.s 			page 227


 12081 3e92 03       		.byte	0x3
 12082 3e93 2C030000 		.4byte	.LC37
 12083 3e97 00       		.byte	0
 12084 3e98 3F       		.uleb128 0x3f
 12085 3e99 F8030000 		.4byte	.LVL86
 12086 3e9d 26620000 		.4byte	0x6226
 12087 3ea1 AF3E0000 		.4byte	0x3eaf
 12088 3ea5 39       		.uleb128 0x39
 12089 3ea6 01       		.uleb128 0x1
 12090 3ea7 50       		.byte	0x50
 12091 3ea8 05       		.uleb128 0x5
 12092 3ea9 03       		.byte	0x3
 12093 3eaa 44030000 		.4byte	.LC38
 12094 3eae 00       		.byte	0
 12095 3eaf 3F       		.uleb128 0x3f
 12096 3eb0 00040000 		.4byte	.LVL87
 12097 3eb4 26620000 		.4byte	0x6226
 12098 3eb8 C63E0000 		.4byte	0x3ec6
 12099 3ebc 39       		.uleb128 0x39
 12100 3ebd 01       		.uleb128 0x1
 12101 3ebe 50       		.byte	0x50
 12102 3ebf 05       		.uleb128 0x5
 12103 3ec0 03       		.byte	0x3
 12104 3ec1 5C030000 		.4byte	.LC39
 12105 3ec5 00       		.byte	0
 12106 3ec6 3F       		.uleb128 0x3f
 12107 3ec7 08040000 		.4byte	.LVL88
 12108 3ecb 26620000 		.4byte	0x6226
 12109 3ecf DD3E0000 		.4byte	0x3edd
 12110 3ed3 39       		.uleb128 0x39
 12111 3ed4 01       		.uleb128 0x1
 12112 3ed5 50       		.byte	0x50
 12113 3ed6 05       		.uleb128 0x5
 12114 3ed7 03       		.byte	0x3
 12115 3ed8 74030000 		.4byte	.LC40
 12116 3edc 00       		.byte	0
 12117 3edd 3F       		.uleb128 0x3f
 12118 3ede 10040000 		.4byte	.LVL89
 12119 3ee2 26620000 		.4byte	0x6226
 12120 3ee6 F43E0000 		.4byte	0x3ef4
 12121 3eea 39       		.uleb128 0x39
 12122 3eeb 01       		.uleb128 0x1
 12123 3eec 50       		.byte	0x50
 12124 3eed 05       		.uleb128 0x5
 12125 3eee 03       		.byte	0x3
 12126 3eef 8C030000 		.4byte	.LC41
 12127 3ef3 00       		.byte	0
 12128 3ef4 3F       		.uleb128 0x3f
 12129 3ef5 18040000 		.4byte	.LVL90
 12130 3ef9 26620000 		.4byte	0x6226
 12131 3efd 0B3F0000 		.4byte	0x3f0b
 12132 3f01 39       		.uleb128 0x39
 12133 3f02 01       		.uleb128 0x1
 12134 3f03 50       		.byte	0x50
 12135 3f04 05       		.uleb128 0x5
 12136 3f05 03       		.byte	0x3
 12137 3f06 A4030000 		.4byte	.LC42
ARM GAS  /tmp/ccU5UnMV.s 			page 228


 12138 3f0a 00       		.byte	0
 12139 3f0b 3F       		.uleb128 0x3f
 12140 3f0c 28040000 		.4byte	.LVL92
 12141 3f10 26620000 		.4byte	0x6226
 12142 3f14 223F0000 		.4byte	0x3f22
 12143 3f18 39       		.uleb128 0x39
 12144 3f19 01       		.uleb128 0x1
 12145 3f1a 50       		.byte	0x50
 12146 3f1b 05       		.uleb128 0x5
 12147 3f1c 03       		.byte	0x3
 12148 3f1d BC030000 		.4byte	.LC43
 12149 3f21 00       		.byte	0
 12150 3f22 40       		.uleb128 0x40
 12151 3f23 36040000 		.4byte	.LVL93
 12152 3f27 52620000 		.4byte	0x6252
 12153 3f2b 38       		.uleb128 0x38
 12154 3f2c 3E040000 		.4byte	.LVL94
 12155 3f30 26620000 		.4byte	0x6226
 12156 3f34 39       		.uleb128 0x39
 12157 3f35 01       		.uleb128 0x1
 12158 3f36 50       		.byte	0x50
 12159 3f37 05       		.uleb128 0x5
 12160 3f38 03       		.byte	0x3
 12161 3f39 D4030000 		.4byte	.LC44
 12162 3f3d 00       		.byte	0
 12163 3f3e 00       		.byte	0
 12164 3f3f 3E       		.uleb128 0x3e
 12165 3f40 66040000 		.4byte	.LBB82
 12166 3f44 92000000 		.4byte	.LBE82-.LBB82
 12167 3f48 9D410000 		.4byte	0x419d
 12168 3f4c 31       		.uleb128 0x31
 12169 3f4d 7B220000 		.4byte	.LASF927
 12170 3f51 01       		.byte	0x1
 12171 3f52 A0       		.byte	0xa0
 12172 3f53 33000000 		.4byte	0x33
 12173 3f57 03       		.uleb128 0x3
 12174 3f58 91       		.byte	0x91
 12175 3f59 907D     		.sleb128 -368
 12176 3f5b 31       		.uleb128 0x31
 12177 3f5c E5000000 		.4byte	.LASF928
 12178 3f60 01       		.byte	0x1
 12179 3f61 A1       		.byte	0xa1
 12180 3f62 33000000 		.4byte	0x33
 12181 3f66 03       		.uleb128 0x3
 12182 3f67 91       		.byte	0x91
 12183 3f68 947D     		.sleb128 -364
 12184 3f6a 31       		.uleb128 0x31
 12185 3f6b 051C0000 		.4byte	.LASF929
 12186 3f6f 01       		.byte	0x1
 12187 3f70 A2       		.byte	0xa2
 12188 3f71 33000000 		.4byte	0x33
 12189 3f75 03       		.uleb128 0x3
 12190 3f76 91       		.byte	0x91
 12191 3f77 987D     		.sleb128 -360
 12192 3f79 31       		.uleb128 0x31
 12193 3f7a 161C0000 		.4byte	.LASF930
 12194 3f7e 01       		.byte	0x1
ARM GAS  /tmp/ccU5UnMV.s 			page 229


 12195 3f7f A3       		.byte	0xa3
 12196 3f80 33000000 		.4byte	0x33
 12197 3f84 03       		.uleb128 0x3
 12198 3f85 91       		.byte	0x91
 12199 3f86 9C7D     		.sleb128 -356
 12200 3f88 3C       		.uleb128 0x3c
 12201 3f89 E92B0000 		.4byte	.LASF931
 12202 3f8d 01       		.byte	0x1
 12203 3f8e A5       		.byte	0xa5
 12204 3f8f 2C000000 		.4byte	0x2c
 12205 3f93 5A030000 		.4byte	.LLST6
 12206 3f97 3C       		.uleb128 0x3c
 12207 3f98 EF2B0000 		.4byte	.LASF932
 12208 3f9c 01       		.byte	0x1
 12209 3f9d A6       		.byte	0xa6
 12210 3f9e 2C000000 		.4byte	0x2c
 12211 3fa2 6D030000 		.4byte	.LLST7
 12212 3fa6 3C       		.uleb128 0x3c
 12213 3fa7 F52B0000 		.4byte	.LASF933
 12214 3fab 01       		.byte	0x1
 12215 3fac A7       		.byte	0xa7
 12216 3fad 2C000000 		.4byte	0x2c
 12217 3fb1 80030000 		.4byte	.LLST8
 12218 3fb5 3D       		.uleb128 0x3d
 12219 3fb6 746F7000 		.ascii	"top\000"
 12220 3fba 01       		.byte	0x1
 12221 3fbb A8       		.byte	0xa8
 12222 3fbc 2C000000 		.4byte	0x2c
 12223 3fc0 93030000 		.4byte	.LLST9
 12224 3fc4 3C       		.uleb128 0x3c
 12225 3fc5 11360000 		.4byte	.LASF934
 12226 3fc9 01       		.byte	0x1
 12227 3fca A9       		.byte	0xa9
 12228 3fcb 2C000000 		.4byte	0x2c
 12229 3fcf A6030000 		.4byte	.LLST10
 12230 3fd3 3C       		.uleb128 0x3c
 12231 3fd4 6D1A0000 		.4byte	.LASF935
 12232 3fd8 01       		.byte	0x1
 12233 3fd9 AA       		.byte	0xaa
 12234 3fda 2C000000 		.4byte	0x2c
 12235 3fde B9030000 		.4byte	.LLST11
 12236 3fe2 3C       		.uleb128 0x3c
 12237 3fe3 F7190000 		.4byte	.LASF936
 12238 3fe7 01       		.byte	0x1
 12239 3fe8 AB       		.byte	0xab
 12240 3fe9 2C000000 		.4byte	0x2c
 12241 3fed CC030000 		.4byte	.LLST12
 12242 3ff1 42       		.uleb128 0x42
 12243 3ff2 D0610000 		.4byte	0x61d0
 12244 3ff6 66040000 		.4byte	.LBB83
 12245 3ffa 06000000 		.4byte	.LBE83-.LBB83
 12246 3ffe 01       		.byte	0x1
 12247 3fff 9F       		.byte	0x9f
 12248 4000 30400000 		.4byte	0x4030
 12249 4004 43       		.uleb128 0x43
 12250 4005 E2610000 		.4byte	0x61e2
 12251 4009 66040000 		.4byte	.LBB84
ARM GAS  /tmp/ccU5UnMV.s 			page 230


 12252 400d 06000000 		.4byte	.LBE84-.LBB84
 12253 4011 2D       		.byte	0x2d
 12254 4012 5C01     		.2byte	0x15c
 12255 4014 43       		.uleb128 0x43
 12256 4015 EB610000 		.4byte	0x61eb
 12257 4019 66040000 		.4byte	.LBB85
 12258 401d 06000000 		.4byte	.LBE85-.LBB85
 12259 4021 0E       		.byte	0xe
 12260 4022 BF01     		.2byte	0x1bf
 12261 4024 44       		.uleb128 0x44
 12262 4025 F8610000 		.4byte	0x61f8
 12263 4029 DF030000 		.4byte	.LLST13
 12264 402d 00       		.byte	0
 12265 402e 00       		.byte	0
 12266 402f 00       		.byte	0
 12267 4030 42       		.uleb128 0x42
 12268 4031 A0610000 		.4byte	0x61a0
 12269 4035 88040000 		.4byte	.LBB87
 12270 4039 04000000 		.4byte	.LBE87-.LBB87
 12271 403d 01       		.byte	0x1
 12272 403e A4       		.byte	0xa4
 12273 403f 79400000 		.4byte	0x4079
 12274 4043 45       		.uleb128 0x45
 12275 4044 88040000 		.4byte	.LBB88
 12276 4048 04000000 		.4byte	.LBE88-.LBB88
 12277 404c 43       		.uleb128 0x43
 12278 404d D9610000 		.4byte	0x61d9
 12279 4051 88040000 		.4byte	.LBB89
 12280 4055 04000000 		.4byte	.LBE89-.LBB89
 12281 4059 2D       		.byte	0x2d
 12282 405a 7301     		.2byte	0x173
 12283 405c 43       		.uleb128 0x43
 12284 405d EB610000 		.4byte	0x61eb
 12285 4061 88040000 		.4byte	.LBB90
 12286 4065 04000000 		.4byte	.LBE90-.LBB90
 12287 4069 0E       		.byte	0xe
 12288 406a CD01     		.2byte	0x1cd
 12289 406c 44       		.uleb128 0x44
 12290 406d F8610000 		.4byte	0x61f8
 12291 4071 F4030000 		.4byte	.LLST14
 12292 4075 00       		.byte	0
 12293 4076 00       		.byte	0
 12294 4077 00       		.byte	0
 12295 4078 00       		.byte	0
 12296 4079 3F       		.uleb128 0x3f
 12297 407a A8040000 		.4byte	.LVL112
 12298 407e 26620000 		.4byte	0x6226
 12299 4082 90400000 		.4byte	0x4090
 12300 4086 39       		.uleb128 0x39
 12301 4087 01       		.uleb128 0x1
 12302 4088 50       		.byte	0x50
 12303 4089 05       		.uleb128 0x5
 12304 408a 03       		.byte	0x3
 12305 408b 30040000 		.4byte	.LC50
 12306 408f 00       		.byte	0
 12307 4090 3F       		.uleb128 0x3f
 12308 4091 B0040000 		.4byte	.LVL113
ARM GAS  /tmp/ccU5UnMV.s 			page 231


 12309 4095 26620000 		.4byte	0x6226
 12310 4099 A7400000 		.4byte	0x40a7
 12311 409d 39       		.uleb128 0x39
 12312 409e 01       		.uleb128 0x1
 12313 409f 50       		.byte	0x50
 12314 40a0 05       		.uleb128 0x5
 12315 40a1 03       		.byte	0x3
 12316 40a2 40040000 		.4byte	.LC51
 12317 40a6 00       		.byte	0
 12318 40a7 3F       		.uleb128 0x3f
 12319 40a8 B8040000 		.4byte	.LVL114
 12320 40ac 26620000 		.4byte	0x6226
 12321 40b0 C4400000 		.4byte	0x40c4
 12322 40b4 39       		.uleb128 0x39
 12323 40b5 01       		.uleb128 0x1
 12324 40b6 50       		.byte	0x50
 12325 40b7 05       		.uleb128 0x5
 12326 40b8 03       		.byte	0x3
 12327 40b9 50040000 		.4byte	.LC52
 12328 40bd 39       		.uleb128 0x39
 12329 40be 01       		.uleb128 0x1
 12330 40bf 51       		.byte	0x51
 12331 40c0 02       		.uleb128 0x2
 12332 40c1 7A       		.byte	0x7a
 12333 40c2 00       		.sleb128 0
 12334 40c3 00       		.byte	0
 12335 40c4 3F       		.uleb128 0x3f
 12336 40c5 C0040000 		.4byte	.LVL115
 12337 40c9 26620000 		.4byte	0x6226
 12338 40cd E1400000 		.4byte	0x40e1
 12339 40d1 39       		.uleb128 0x39
 12340 40d2 01       		.uleb128 0x1
 12341 40d3 50       		.byte	0x50
 12342 40d4 05       		.uleb128 0x5
 12343 40d5 03       		.byte	0x3
 12344 40d6 60040000 		.4byte	.LC53
 12345 40da 39       		.uleb128 0x39
 12346 40db 01       		.uleb128 0x1
 12347 40dc 51       		.byte	0x51
 12348 40dd 02       		.uleb128 0x2
 12349 40de 79       		.byte	0x79
 12350 40df 00       		.sleb128 0
 12351 40e0 00       		.byte	0
 12352 40e1 3F       		.uleb128 0x3f
 12353 40e2 C8040000 		.4byte	.LVL116
 12354 40e6 26620000 		.4byte	0x6226
 12355 40ea FE400000 		.4byte	0x40fe
 12356 40ee 39       		.uleb128 0x39
 12357 40ef 01       		.uleb128 0x1
 12358 40f0 50       		.byte	0x50
 12359 40f1 05       		.uleb128 0x5
 12360 40f2 03       		.byte	0x3
 12361 40f3 70040000 		.4byte	.LC54
 12362 40f7 39       		.uleb128 0x39
 12363 40f8 01       		.uleb128 0x1
 12364 40f9 51       		.byte	0x51
 12365 40fa 02       		.uleb128 0x2
ARM GAS  /tmp/ccU5UnMV.s 			page 232


 12366 40fb 78       		.byte	0x78
 12367 40fc 00       		.sleb128 0
 12368 40fd 00       		.byte	0
 12369 40fe 3F       		.uleb128 0x3f
 12370 40ff D0040000 		.4byte	.LVL117
 12371 4103 26620000 		.4byte	0x6226
 12372 4107 1B410000 		.4byte	0x411b
 12373 410b 39       		.uleb128 0x39
 12374 410c 01       		.uleb128 0x1
 12375 410d 50       		.byte	0x50
 12376 410e 05       		.uleb128 0x5
 12377 410f 03       		.byte	0x3
 12378 4110 80040000 		.4byte	.LC55
 12379 4114 39       		.uleb128 0x39
 12380 4115 01       		.uleb128 0x1
 12381 4116 51       		.byte	0x51
 12382 4117 02       		.uleb128 0x2
 12383 4118 77       		.byte	0x77
 12384 4119 00       		.sleb128 0
 12385 411a 00       		.byte	0
 12386 411b 3F       		.uleb128 0x3f
 12387 411c D8040000 		.4byte	.LVL118
 12388 4120 26620000 		.4byte	0x6226
 12389 4124 32410000 		.4byte	0x4132
 12390 4128 39       		.uleb128 0x39
 12391 4129 01       		.uleb128 0x1
 12392 412a 50       		.byte	0x50
 12393 412b 05       		.uleb128 0x5
 12394 412c 03       		.byte	0x3
 12395 412d 88040000 		.4byte	.LC56
 12396 4131 00       		.byte	0
 12397 4132 3F       		.uleb128 0x3f
 12398 4133 E0040000 		.4byte	.LVL119
 12399 4137 26620000 		.4byte	0x6226
 12400 413b 49410000 		.4byte	0x4149
 12401 413f 39       		.uleb128 0x39
 12402 4140 01       		.uleb128 0x1
 12403 4141 50       		.byte	0x50
 12404 4142 05       		.uleb128 0x5
 12405 4143 03       		.byte	0x3
 12406 4144 94040000 		.4byte	.LC57
 12407 4148 00       		.byte	0
 12408 4149 3F       		.uleb128 0x3f
 12409 414a E8040000 		.4byte	.LVL120
 12410 414e 26620000 		.4byte	0x6226
 12411 4152 66410000 		.4byte	0x4166
 12412 4156 39       		.uleb128 0x39
 12413 4157 01       		.uleb128 0x1
 12414 4158 50       		.byte	0x50
 12415 4159 05       		.uleb128 0x5
 12416 415a 03       		.byte	0x3
 12417 415b A0040000 		.4byte	.LC58
 12418 415f 39       		.uleb128 0x39
 12419 4160 01       		.uleb128 0x1
 12420 4161 51       		.byte	0x51
 12421 4162 02       		.uleb128 0x2
 12422 4163 76       		.byte	0x76
ARM GAS  /tmp/ccU5UnMV.s 			page 233


 12423 4164 00       		.sleb128 0
 12424 4165 00       		.byte	0
 12425 4166 3F       		.uleb128 0x3f
 12426 4167 F0040000 		.4byte	.LVL121
 12427 416b 26620000 		.4byte	0x6226
 12428 416f 83410000 		.4byte	0x4183
 12429 4173 39       		.uleb128 0x39
 12430 4174 01       		.uleb128 0x1
 12431 4175 50       		.byte	0x50
 12432 4176 05       		.uleb128 0x5
 12433 4177 03       		.byte	0x3
 12434 4178 B4040000 		.4byte	.LC59
 12435 417c 39       		.uleb128 0x39
 12436 417d 01       		.uleb128 0x1
 12437 417e 51       		.byte	0x51
 12438 417f 02       		.uleb128 0x2
 12439 4180 75       		.byte	0x75
 12440 4181 00       		.sleb128 0
 12441 4182 00       		.byte	0
 12442 4183 38       		.uleb128 0x38
 12443 4184 F8040000 		.4byte	.LVL122
 12444 4188 26620000 		.4byte	0x6226
 12445 418c 39       		.uleb128 0x39
 12446 418d 01       		.uleb128 0x1
 12447 418e 50       		.byte	0x50
 12448 418f 05       		.uleb128 0x5
 12449 4190 03       		.byte	0x3
 12450 4191 CC040000 		.4byte	.LC60
 12451 4195 39       		.uleb128 0x39
 12452 4196 01       		.uleb128 0x1
 12453 4197 51       		.byte	0x51
 12454 4198 02       		.uleb128 0x2
 12455 4199 74       		.byte	0x74
 12456 419a 00       		.sleb128 0
 12457 419b 00       		.byte	0
 12458 419c 00       		.byte	0
 12459 419d 46       		.uleb128 0x46
 12460 419e 00000000 		.4byte	.Ldebug_ranges0+0
 12461 41a2 37430000 		.4byte	0x4337
 12462 41a6 31       		.uleb128 0x31
 12463 41a7 451D0000 		.4byte	.LASF466
 12464 41ab 01       		.byte	0x1
 12465 41ac BF       		.byte	0xbf
 12466 41ad 25000000 		.4byte	0x25
 12467 41b1 03       		.uleb128 0x3
 12468 41b2 91       		.byte	0x91
 12469 41b3 847D     		.sleb128 -380
 12470 41b5 31       		.uleb128 0x31
 12471 41b6 2C240000 		.4byte	.LASF937
 12472 41ba 01       		.byte	0x1
 12473 41bb C0       		.byte	0xc0
 12474 41bc 25000000 		.4byte	0x25
 12475 41c0 03       		.uleb128 0x3
 12476 41c1 91       		.byte	0x91
 12477 41c2 887D     		.sleb128 -376
 12478 41c4 31       		.uleb128 0x31
 12479 41c5 17120000 		.4byte	.LASF938
ARM GAS  /tmp/ccU5UnMV.s 			page 234


 12480 41c9 01       		.byte	0x1
 12481 41ca C1       		.byte	0xc1
 12482 41cb 25000000 		.4byte	0x25
 12483 41cf 03       		.uleb128 0x3
 12484 41d0 91       		.byte	0x91
 12485 41d1 8C7D     		.sleb128 -372
 12486 41d3 46       		.uleb128 0x46
 12487 41d4 20000000 		.4byte	.Ldebug_ranges0+0x20
 12488 41d8 E0420000 		.4byte	0x42e0
 12489 41dc 31       		.uleb128 0x31
 12490 41dd B8310000 		.4byte	.LASF939
 12491 41e1 01       		.byte	0x1
 12492 41e2 CA       		.byte	0xca
 12493 41e3 25000000 		.4byte	0x25
 12494 41e7 03       		.uleb128 0x3
 12495 41e8 91       		.byte	0x91
 12496 41e9 907D     		.sleb128 -368
 12497 41eb 31       		.uleb128 0x31
 12498 41ec 8A280000 		.4byte	.LASF940
 12499 41f0 01       		.byte	0x1
 12500 41f1 CB       		.byte	0xcb
 12501 41f2 25000000 		.4byte	0x25
 12502 41f6 03       		.uleb128 0x3
 12503 41f7 91       		.byte	0x91
 12504 41f8 947D     		.sleb128 -364
 12505 41fa 31       		.uleb128 0x31
 12506 41fb 051A0000 		.4byte	.LASF316
 12507 41ff 01       		.byte	0x1
 12508 4200 CC       		.byte	0xcc
 12509 4201 6D180000 		.4byte	0x186d
 12510 4205 03       		.uleb128 0x3
 12511 4206 91       		.byte	0x91
 12512 4207 9C7D     		.sleb128 -356
 12513 4209 31       		.uleb128 0x31
 12514 420a 82130000 		.4byte	.LASF941
 12515 420e 01       		.byte	0x1
 12516 420f CD       		.byte	0xcd
 12517 4210 2C000000 		.4byte	0x2c
 12518 4214 03       		.uleb128 0x3
 12519 4215 91       		.byte	0x91
 12520 4216 987D     		.sleb128 -360
 12521 4218 3F       		.uleb128 0x3f
 12522 4219 FC050000 		.4byte	.LVL136
 12523 421d 5D620000 		.4byte	0x625d
 12524 4221 42420000 		.4byte	0x4242
 12525 4225 39       		.uleb128 0x39
 12526 4226 01       		.uleb128 0x1
 12527 4227 50       		.byte	0x50
 12528 4228 03       		.uleb128 0x3
 12529 4229 91       		.byte	0x91
 12530 422a 907D     		.sleb128 -368
 12531 422c 39       		.uleb128 0x39
 12532 422d 01       		.uleb128 0x1
 12533 422e 51       		.byte	0x51
 12534 422f 03       		.uleb128 0x3
 12535 4230 91       		.byte	0x91
 12536 4231 947D     		.sleb128 -364
ARM GAS  /tmp/ccU5UnMV.s 			page 235


 12537 4233 39       		.uleb128 0x39
 12538 4234 01       		.uleb128 0x1
 12539 4235 52       		.byte	0x52
 12540 4236 03       		.uleb128 0x3
 12541 4237 91       		.byte	0x91
 12542 4238 9C7D     		.sleb128 -356
 12543 423a 39       		.uleb128 0x39
 12544 423b 01       		.uleb128 0x1
 12545 423c 53       		.byte	0x53
 12546 423d 03       		.uleb128 0x3
 12547 423e 91       		.byte	0x91
 12548 423f 987D     		.sleb128 -360
 12549 4241 00       		.byte	0
 12550 4242 3F       		.uleb128 0x3f
 12551 4243 12060000 		.4byte	.LVL138
 12552 4247 26620000 		.4byte	0x6226
 12553 424b 59420000 		.4byte	0x4259
 12554 424f 39       		.uleb128 0x39
 12555 4250 01       		.uleb128 0x1
 12556 4251 50       		.byte	0x50
 12557 4252 05       		.uleb128 0x5
 12558 4253 03       		.byte	0x3
 12559 4254 18050000 		.4byte	.LC65
 12560 4258 00       		.byte	0
 12561 4259 3F       		.uleb128 0x3f
 12562 425a 22060000 		.4byte	.LVL140
 12563 425e 26620000 		.4byte	0x6226
 12564 4262 70420000 		.4byte	0x4270
 12565 4266 39       		.uleb128 0x39
 12566 4267 01       		.uleb128 0x1
 12567 4268 50       		.byte	0x50
 12568 4269 05       		.uleb128 0x5
 12569 426a 03       		.byte	0x3
 12570 426b 38050000 		.4byte	.LC66
 12571 426f 00       		.byte	0
 12572 4270 3F       		.uleb128 0x3f
 12573 4271 42060000 		.4byte	.LVL141
 12574 4275 26620000 		.4byte	0x6226
 12575 4279 87420000 		.4byte	0x4287
 12576 427d 39       		.uleb128 0x39
 12577 427e 01       		.uleb128 0x1
 12578 427f 50       		.byte	0x50
 12579 4280 05       		.uleb128 0x5
 12580 4281 03       		.byte	0x3
 12581 4282 DC050000 		.4byte	.LC71
 12582 4286 00       		.byte	0
 12583 4287 3F       		.uleb128 0x3f
 12584 4288 B4090000 		.4byte	.LVL204
 12585 428c 26620000 		.4byte	0x6226
 12586 4290 9E420000 		.4byte	0x429e
 12587 4294 39       		.uleb128 0x39
 12588 4295 01       		.uleb128 0x1
 12589 4296 50       		.byte	0x50
 12590 4297 05       		.uleb128 0x5
 12591 4298 03       		.byte	0x3
 12592 4299 AC050000 		.4byte	.LC70
 12593 429d 00       		.byte	0
ARM GAS  /tmp/ccU5UnMV.s 			page 236


 12594 429e 40       		.uleb128 0x40
 12595 429f BE090000 		.4byte	.LVL205
 12596 42a3 26620000 		.4byte	0x6226
 12597 42a7 3F       		.uleb128 0x3f
 12598 42a8 EE090000 		.4byte	.LVL207
 12599 42ac 26620000 		.4byte	0x6226
 12600 42b0 CC420000 		.4byte	0x42cc
 12601 42b4 39       		.uleb128 0x39
 12602 42b5 01       		.uleb128 0x1
 12603 42b6 50       		.byte	0x50
 12604 42b7 05       		.uleb128 0x5
 12605 42b8 03       		.byte	0x3
 12606 42b9 6C050000 		.4byte	.LC68
 12607 42bd 39       		.uleb128 0x39
 12608 42be 02       		.uleb128 0x2
 12609 42bf 7D       		.byte	0x7d
 12610 42c0 04       		.sleb128 4
 12611 42c1 02       		.uleb128 0x2
 12612 42c2 74       		.byte	0x74
 12613 42c3 00       		.sleb128 0
 12614 42c4 39       		.uleb128 0x39
 12615 42c5 02       		.uleb128 0x2
 12616 42c6 7D       		.byte	0x7d
 12617 42c7 08       		.sleb128 8
 12618 42c8 02       		.uleb128 0x2
 12619 42c9 75       		.byte	0x75
 12620 42ca 00       		.sleb128 0
 12621 42cb 00       		.byte	0
 12622 42cc 38       		.uleb128 0x38
 12623 42cd FC090000 		.4byte	.LVL209
 12624 42d1 26620000 		.4byte	0x6226
 12625 42d5 39       		.uleb128 0x39
 12626 42d6 01       		.uleb128 0x1
 12627 42d7 50       		.byte	0x50
 12628 42d8 05       		.uleb128 0x5
 12629 42d9 03       		.byte	0x3
 12630 42da 0C060000 		.4byte	.LC72
 12631 42de 00       		.byte	0
 12632 42df 00       		.byte	0
 12633 42e0 3F       		.uleb128 0x3f
 12634 42e1 3C050000 		.4byte	.LVL126
 12635 42e5 68620000 		.4byte	0x6268
 12636 42e9 FE420000 		.4byte	0x42fe
 12637 42ed 39       		.uleb128 0x39
 12638 42ee 01       		.uleb128 0x1
 12639 42ef 51       		.byte	0x51
 12640 42f0 05       		.uleb128 0x5
 12641 42f1 03       		.byte	0x3
 12642 42f2 14050000 		.4byte	.LC64
 12643 42f6 39       		.uleb128 0x39
 12644 42f7 01       		.uleb128 0x1
 12645 42f8 52       		.byte	0x52
 12646 42f9 03       		.uleb128 0x3
 12647 42fa 91       		.byte	0x91
 12648 42fb 847D     		.sleb128 -380
 12649 42fd 00       		.byte	0
 12650 42fe 3F       		.uleb128 0x3f
ARM GAS  /tmp/ccU5UnMV.s 			page 237


 12651 42ff 46050000 		.4byte	.LVL127
 12652 4303 68620000 		.4byte	0x6268
 12653 4307 1C430000 		.4byte	0x431c
 12654 430b 39       		.uleb128 0x39
 12655 430c 01       		.uleb128 0x1
 12656 430d 51       		.byte	0x51
 12657 430e 05       		.uleb128 0x5
 12658 430f 03       		.byte	0x3
 12659 4310 14050000 		.4byte	.LC64
 12660 4314 39       		.uleb128 0x39
 12661 4315 01       		.uleb128 0x1
 12662 4316 52       		.byte	0x52
 12663 4317 03       		.uleb128 0x3
 12664 4318 91       		.byte	0x91
 12665 4319 887D     		.sleb128 -376
 12666 431b 00       		.byte	0
 12667 431c 38       		.uleb128 0x38
 12668 431d 50050000 		.4byte	.LVL128
 12669 4321 68620000 		.4byte	0x6268
 12670 4325 39       		.uleb128 0x39
 12671 4326 01       		.uleb128 0x1
 12672 4327 51       		.byte	0x51
 12673 4328 05       		.uleb128 0x5
 12674 4329 03       		.byte	0x3
 12675 432a 14050000 		.4byte	.LC64
 12676 432e 39       		.uleb128 0x39
 12677 432f 01       		.uleb128 0x1
 12678 4330 52       		.byte	0x52
 12679 4331 03       		.uleb128 0x3
 12680 4332 91       		.byte	0x91
 12681 4333 8C7D     		.sleb128 -372
 12682 4335 00       		.byte	0
 12683 4336 00       		.byte	0
 12684 4337 3E       		.uleb128 0x3e
 12685 4338 58090000 		.4byte	.LBB125
 12686 433c 36000000 		.4byte	.LBE125-.LBB125
 12687 4340 AA430000 		.4byte	0x43aa
 12688 4344 31       		.uleb128 0x31
 12689 4345 13160000 		.4byte	.LASF942
 12690 4349 01       		.byte	0x1
 12691 434a EB       		.byte	0xeb
 12692 434b 02120000 		.4byte	0x1202
 12693 434f 03       		.uleb128 0x3
 12694 4350 91       		.byte	0x91
 12695 4351 9C7D     		.sleb128 -356
 12696 4353 3F       		.uleb128 0x3f
 12697 4354 5E090000 		.4byte	.LVL195
 12698 4358 73620000 		.4byte	0x6273
 12699 435c 68430000 		.4byte	0x4368
 12700 4360 39       		.uleb128 0x39
 12701 4361 01       		.uleb128 0x1
 12702 4362 50       		.byte	0x50
 12703 4363 03       		.uleb128 0x3
 12704 4364 91       		.byte	0x91
 12705 4365 9C7D     		.sleb128 -356
 12706 4367 00       		.byte	0
 12707 4368 3F       		.uleb128 0x3f
ARM GAS  /tmp/ccU5UnMV.s 			page 238


 12708 4369 6E090000 		.4byte	.LVL197
 12709 436d 26620000 		.4byte	0x6226
 12710 4371 7F430000 		.4byte	0x437f
 12711 4375 39       		.uleb128 0x39
 12712 4376 01       		.uleb128 0x1
 12713 4377 50       		.byte	0x50
 12714 4378 05       		.uleb128 0x5
 12715 4379 03       		.byte	0x3
 12716 437a 8C060000 		.4byte	.LC76
 12717 437e 00       		.byte	0
 12718 437f 3F       		.uleb128 0x3f
 12719 4380 7E090000 		.4byte	.LVL199
 12720 4384 26620000 		.4byte	0x6226
 12721 4388 96430000 		.4byte	0x4396
 12722 438c 39       		.uleb128 0x39
 12723 438d 01       		.uleb128 0x1
 12724 438e 50       		.byte	0x50
 12725 438f 05       		.uleb128 0x5
 12726 4390 03       		.byte	0x3
 12727 4391 A4060000 		.4byte	.LC77
 12728 4395 00       		.byte	0
 12729 4396 38       		.uleb128 0x38
 12730 4397 8E090000 		.4byte	.LVL201
 12731 439b 26620000 		.4byte	0x6226
 12732 439f 39       		.uleb128 0x39
 12733 43a0 01       		.uleb128 0x1
 12734 43a1 50       		.byte	0x50
 12735 43a2 05       		.uleb128 0x5
 12736 43a3 03       		.byte	0x3
 12737 43a4 C4060000 		.4byte	.LC78
 12738 43a8 00       		.byte	0
 12739 43a9 00       		.byte	0
 12740 43aa 46       		.uleb128 0x46
 12741 43ab 98000000 		.4byte	.Ldebug_ranges0+0x98
 12742 43af C7440000 		.4byte	0x44c7
 12743 43b3 3D       		.uleb128 0x3d
 12744 43b4 6900     		.ascii	"i\000"
 12745 43b6 01       		.byte	0x1
 12746 43b7 F1       		.byte	0xf1
 12747 43b8 2C000000 		.4byte	0x2c
 12748 43bc 08040000 		.4byte	.LLST18
 12749 43c0 36       		.uleb128 0x36
 12750 43c1 B0000000 		.4byte	.Ldebug_ranges0+0xb0
 12751 43c5 3D       		.uleb128 0x3d
 12752 43c6 6D736700 		.ascii	"msg\000"
 12753 43ca 01       		.byte	0x1
 12754 43cb F2       		.byte	0xf2
 12755 43cc 60610000 		.4byte	0x6160
 12756 43d0 34040000 		.4byte	.LLST19
 12757 43d4 47       		.uleb128 0x47
 12758 43d5 76610000 		.4byte	0x6176
 12759 43d9 A6080000 		.4byte	.LBB108
 12760 43dd D0000000 		.4byte	.Ldebug_ranges0+0xd0
 12761 43e1 01       		.byte	0x1
 12762 43e2 F4       		.byte	0xf4
 12763 43e3 01440000 		.4byte	0x4401
 12764 43e7 44       		.uleb128 0x44
ARM GAS  /tmp/ccU5UnMV.s 			page 239


 12765 43e8 87610000 		.4byte	0x6187
 12766 43ec 5D040000 		.4byte	.LLST20
 12767 43f0 48       		.uleb128 0x48
 12768 43f1 94610000 		.4byte	0x6194
 12769 43f5 A6080000 		.4byte	.LBB110
 12770 43f9 E8000000 		.4byte	.Ldebug_ranges0+0xe8
 12771 43fd 02       		.byte	0x2
 12772 43fe 0B01     		.2byte	0x10b
 12773 4400 00       		.byte	0
 12774 4401 47       		.uleb128 0x47
 12775 4402 76610000 		.4byte	0x6176
 12776 4406 FA080000 		.4byte	.LBB116
 12777 440a 00010000 		.4byte	.Ldebug_ranges0+0x100
 12778 440e 01       		.byte	0x1
 12779 440f F7       		.byte	0xf7
 12780 4410 2E440000 		.4byte	0x442e
 12781 4414 44       		.uleb128 0x44
 12782 4415 87610000 		.4byte	0x6187
 12783 4419 71040000 		.4byte	.LLST21
 12784 441d 49       		.uleb128 0x49
 12785 441e 94610000 		.4byte	0x6194
 12786 4422 FC080000 		.4byte	.LBB118
 12787 4426 02000000 		.4byte	.LBE118-.LBB118
 12788 442a 02       		.byte	0x2
 12789 442b 0B01     		.2byte	0x10b
 12790 442d 00       		.byte	0
 12791 442e 3F       		.uleb128 0x3f
 12792 442f C0080000 		.4byte	.LVL178
 12793 4433 7E620000 		.4byte	0x627e
 12794 4437 42440000 		.4byte	0x4442
 12795 443b 39       		.uleb128 0x39
 12796 443c 01       		.uleb128 0x1
 12797 443d 50       		.byte	0x50
 12798 443e 02       		.uleb128 0x2
 12799 443f 76       		.byte	0x76
 12800 4440 00       		.sleb128 0
 12801 4441 00       		.byte	0
 12802 4442 3F       		.uleb128 0x3f
 12803 4443 F2080000 		.4byte	.LVL183
 12804 4447 26620000 		.4byte	0x6226
 12805 444b 56440000 		.4byte	0x4456
 12806 444f 39       		.uleb128 0x39
 12807 4450 01       		.uleb128 0x1
 12808 4451 50       		.byte	0x50
 12809 4452 02       		.uleb128 0x2
 12810 4453 77       		.byte	0x77
 12811 4454 00       		.sleb128 0
 12812 4455 00       		.byte	0
 12813 4456 3F       		.uleb128 0x3f
 12814 4457 FA080000 		.4byte	.LVL184
 12815 445b 26620000 		.4byte	0x6226
 12816 445f 6D440000 		.4byte	0x446d
 12817 4463 39       		.uleb128 0x39
 12818 4464 01       		.uleb128 0x1
 12819 4465 50       		.byte	0x50
 12820 4466 05       		.uleb128 0x5
 12821 4467 03       		.byte	0x3
ARM GAS  /tmp/ccU5UnMV.s 			page 240


 12822 4468 34070000 		.4byte	.LC82
 12823 446c 00       		.byte	0
 12824 446d 3F       		.uleb128 0x3f
 12825 446e 26090000 		.4byte	.LVL187
 12826 4472 26620000 		.4byte	0x6226
 12827 4476 84440000 		.4byte	0x4484
 12828 447a 39       		.uleb128 0x39
 12829 447b 01       		.uleb128 0x1
 12830 447c 50       		.byte	0x50
 12831 447d 05       		.uleb128 0x5
 12832 447e 03       		.byte	0x3
 12833 447f 4C070000 		.4byte	.LC83
 12834 4483 00       		.byte	0
 12835 4484 3F       		.uleb128 0x3f
 12836 4485 36090000 		.4byte	.LVL189
 12837 4489 26620000 		.4byte	0x6226
 12838 448d 9B440000 		.4byte	0x449b
 12839 4491 39       		.uleb128 0x39
 12840 4492 01       		.uleb128 0x1
 12841 4493 50       		.byte	0x50
 12842 4494 05       		.uleb128 0x5
 12843 4495 03       		.byte	0x3
 12844 4496 68070000 		.4byte	.LC84
 12845 449a 00       		.byte	0
 12846 449b 3F       		.uleb128 0x3f
 12847 449c 46090000 		.4byte	.LVL191
 12848 44a0 26620000 		.4byte	0x6226
 12849 44a4 B2440000 		.4byte	0x44b2
 12850 44a8 39       		.uleb128 0x39
 12851 44a9 01       		.uleb128 0x1
 12852 44aa 50       		.byte	0x50
 12853 44ab 05       		.uleb128 0x5
 12854 44ac 03       		.byte	0x3
 12855 44ad 84070000 		.4byte	.LC85
 12856 44b1 00       		.byte	0
 12857 44b2 38       		.uleb128 0x38
 12858 44b3 56090000 		.4byte	.LVL193
 12859 44b7 26620000 		.4byte	0x6226
 12860 44bb 39       		.uleb128 0x39
 12861 44bc 01       		.uleb128 0x1
 12862 44bd 50       		.byte	0x50
 12863 44be 05       		.uleb128 0x5
 12864 44bf 03       		.byte	0x3
 12865 44c0 A0070000 		.4byte	.LC86
 12866 44c4 00       		.byte	0
 12867 44c5 00       		.byte	0
 12868 44c6 00       		.byte	0
 12869 44c7 46       		.uleb128 0x46
 12870 44c8 80000000 		.4byte	.Ldebug_ranges0+0x80
 12871 44cc F8450000 		.4byte	0x45f8
 12872 44d0 31       		.uleb128 0x31
 12873 44d1 451D0000 		.4byte	.LASF466
 12874 44d5 01       		.byte	0x1
 12875 44d6 FF       		.byte	0xff
 12876 44d7 25000000 		.4byte	0x25
 12877 44db 03       		.uleb128 0x3
 12878 44dc 91       		.byte	0x91
ARM GAS  /tmp/ccU5UnMV.s 			page 241


 12879 44dd 947D     		.sleb128 -364
 12880 44df 3E       		.uleb128 0x3e
 12881 44e0 36070000 		.4byte	.LBB101
 12882 44e4 66000000 		.4byte	.LBE101-.LBB101
 12883 44e8 BE450000 		.4byte	0x45be
 12884 44ec 35       		.uleb128 0x35
 12885 44ed EF020000 		.4byte	.LASF943
 12886 44f1 01       		.byte	0x1
 12887 44f2 0401     		.2byte	0x104
 12888 44f4 E6100000 		.4byte	0x10e6
 12889 44f8 85040000 		.4byte	.LLST16
 12890 44fc 4A       		.uleb128 0x4a
 12891 44fd 922C0000 		.4byte	.LASF148
 12892 4501 01       		.byte	0x1
 12893 4502 0801     		.2byte	0x108
 12894 4504 25000000 		.4byte	0x25
 12895 4508 03       		.uleb128 0x3
 12896 4509 91       		.byte	0x91
 12897 450a 987D     		.sleb128 -360
 12898 450c 4A       		.uleb128 0x4a
 12899 450d A5270000 		.4byte	.LASF944
 12900 4511 01       		.byte	0x1
 12901 4512 0901     		.2byte	0x109
 12902 4514 25000000 		.4byte	0x25
 12903 4518 03       		.uleb128 0x3
 12904 4519 91       		.byte	0x91
 12905 451a 9C7D     		.sleb128 -356
 12906 451c 4A       		.uleb128 0x4a
 12907 451d 0D320000 		.4byte	.LASF945
 12908 4521 01       		.byte	0x1
 12909 4522 0A01     		.2byte	0x10a
 12910 4524 66180000 		.4byte	0x1866
 12911 4528 03       		.uleb128 0x3
 12912 4529 91       		.byte	0x91
 12913 452a 907D     		.sleb128 -368
 12914 452c 3F       		.uleb128 0x3f
 12915 452d 44070000 		.4byte	.LVL146
 12916 4531 89620000 		.4byte	0x6289
 12917 4535 40450000 		.4byte	0x4540
 12918 4539 39       		.uleb128 0x39
 12919 453a 01       		.uleb128 0x1
 12920 453b 50       		.byte	0x50
 12921 453c 02       		.uleb128 0x2
 12922 453d 74       		.byte	0x74
 12923 453e 00       		.sleb128 0
 12924 453f 00       		.byte	0
 12925 4540 3F       		.uleb128 0x3f
 12926 4541 5E070000 		.4byte	.LVL147
 12927 4545 94620000 		.4byte	0x6294
 12928 4549 68450000 		.4byte	0x4568
 12929 454d 39       		.uleb128 0x39
 12930 454e 01       		.uleb128 0x1
 12931 454f 50       		.byte	0x50
 12932 4550 01       		.uleb128 0x1
 12933 4551 31       		.byte	0x31
 12934 4552 39       		.uleb128 0x39
 12935 4553 01       		.uleb128 0x1
ARM GAS  /tmp/ccU5UnMV.s 			page 242


 12936 4554 51       		.byte	0x51
 12937 4555 03       		.uleb128 0x3
 12938 4556 91       		.byte	0x91
 12939 4557 987D     		.sleb128 -360
 12940 4559 39       		.uleb128 0x39
 12941 455a 01       		.uleb128 0x1
 12942 455b 52       		.byte	0x52
 12943 455c 03       		.uleb128 0x3
 12944 455d 91       		.byte	0x91
 12945 455e 9C7D     		.sleb128 -356
 12946 4560 39       		.uleb128 0x39
 12947 4561 01       		.uleb128 0x1
 12948 4562 53       		.byte	0x53
 12949 4563 03       		.uleb128 0x3
 12950 4564 91       		.byte	0x91
 12951 4565 907D     		.sleb128 -368
 12952 4567 00       		.byte	0
 12953 4568 3F       		.uleb128 0x3f
 12954 4569 66070000 		.4byte	.LVL148
 12955 456d 89620000 		.4byte	0x6289
 12956 4571 7C450000 		.4byte	0x457c
 12957 4575 39       		.uleb128 0x39
 12958 4576 01       		.uleb128 0x1
 12959 4577 50       		.byte	0x50
 12960 4578 02       		.uleb128 0x2
 12961 4579 74       		.byte	0x74
 12962 457a 00       		.sleb128 0
 12963 457b 00       		.byte	0
 12964 457c 3F       		.uleb128 0x3f
 12965 457d 76070000 		.4byte	.LVL150
 12966 4581 26620000 		.4byte	0x6226
 12967 4585 93450000 		.4byte	0x4593
 12968 4589 39       		.uleb128 0x39
 12969 458a 01       		.uleb128 0x1
 12970 458b 50       		.byte	0x50
 12971 458c 05       		.uleb128 0x5
 12972 458d 03       		.byte	0x3
 12973 458e D0070000 		.4byte	.LC88
 12974 4592 00       		.byte	0
 12975 4593 3F       		.uleb128 0x3f
 12976 4594 86070000 		.4byte	.LVL152
 12977 4598 26620000 		.4byte	0x6226
 12978 459c AA450000 		.4byte	0x45aa
 12979 45a0 39       		.uleb128 0x39
 12980 45a1 01       		.uleb128 0x1
 12981 45a2 50       		.byte	0x50
 12982 45a3 05       		.uleb128 0x5
 12983 45a4 03       		.byte	0x3
 12984 45a5 E0070000 		.4byte	.LC89
 12985 45a9 00       		.byte	0
 12986 45aa 38       		.uleb128 0x38
 12987 45ab 9C070000 		.4byte	.LVL153
 12988 45af 26620000 		.4byte	0x6226
 12989 45b3 39       		.uleb128 0x39
 12990 45b4 01       		.uleb128 0x1
 12991 45b5 50       		.byte	0x50
 12992 45b6 05       		.uleb128 0x5
ARM GAS  /tmp/ccU5UnMV.s 			page 243


 12993 45b7 03       		.byte	0x3
 12994 45b8 F0070000 		.4byte	.LC90
 12995 45bc 00       		.byte	0
 12996 45bd 00       		.byte	0
 12997 45be 3F       		.uleb128 0x3f
 12998 45bf 0C070000 		.4byte	.LVL142
 12999 45c3 68620000 		.4byte	0x6268
 13000 45c7 DB450000 		.4byte	0x45db
 13001 45cb 39       		.uleb128 0x39
 13002 45cc 01       		.uleb128 0x1
 13003 45cd 51       		.byte	0x51
 13004 45ce 05       		.uleb128 0x5
 13005 45cf 03       		.byte	0x3
 13006 45d0 14050000 		.4byte	.LC64
 13007 45d4 39       		.uleb128 0x39
 13008 45d5 01       		.uleb128 0x1
 13009 45d6 52       		.byte	0x52
 13010 45d7 02       		.uleb128 0x2
 13011 45d8 76       		.byte	0x76
 13012 45d9 00       		.sleb128 0
 13013 45da 00       		.byte	0
 13014 45db 40       		.uleb128 0x40
 13015 45dc 32070000 		.4byte	.LVL144
 13016 45e0 9F620000 		.4byte	0x629f
 13017 45e4 38       		.uleb128 0x38
 13018 45e5 18080000 		.4byte	.LVL163
 13019 45e9 26620000 		.4byte	0x6226
 13020 45ed 39       		.uleb128 0x39
 13021 45ee 01       		.uleb128 0x1
 13022 45ef 50       		.byte	0x50
 13023 45f0 05       		.uleb128 0x5
 13024 45f1 03       		.byte	0x3
 13025 45f2 00080000 		.4byte	.LC91
 13026 45f6 00       		.byte	0
 13027 45f7 00       		.byte	0
 13028 45f8 3E       		.uleb128 0x3e
 13029 45f9 B0070000 		.4byte	.LBB102
 13030 45fd 62000000 		.4byte	.LBE102-.LBB102
 13031 4601 86460000 		.4byte	0x4686
 13032 4605 4A       		.uleb128 0x4a
 13033 4606 451D0000 		.4byte	.LASF466
 13034 460a 01       		.byte	0x1
 13035 460b 1E01     		.2byte	0x11e
 13036 460d 25000000 		.4byte	0x25
 13037 4611 03       		.uleb128 0x3
 13038 4612 91       		.byte	0x91
 13039 4613 9C7D     		.sleb128 -356
 13040 4615 3F       		.uleb128 0x3f
 13041 4616 C0070000 		.4byte	.LVL156
 13042 461a 68620000 		.4byte	0x6268
 13043 461e 32460000 		.4byte	0x4632
 13044 4622 39       		.uleb128 0x39
 13045 4623 01       		.uleb128 0x1
 13046 4624 51       		.byte	0x51
 13047 4625 05       		.uleb128 0x5
 13048 4626 03       		.byte	0x3
 13049 4627 14050000 		.4byte	.LC64
ARM GAS  /tmp/ccU5UnMV.s 			page 244


 13050 462b 39       		.uleb128 0x39
 13051 462c 01       		.uleb128 0x1
 13052 462d 52       		.byte	0x52
 13053 462e 02       		.uleb128 0x2
 13054 462f 75       		.byte	0x75
 13055 4630 00       		.sleb128 0
 13056 4631 00       		.byte	0
 13057 4632 3F       		.uleb128 0x3f
 13058 4633 EC070000 		.4byte	.LVL158
 13059 4637 89620000 		.4byte	0x6289
 13060 463b 46460000 		.4byte	0x4646
 13061 463f 39       		.uleb128 0x39
 13062 4640 01       		.uleb128 0x1
 13063 4641 50       		.byte	0x50
 13064 4642 02       		.uleb128 0x2
 13065 4643 74       		.byte	0x74
 13066 4644 00       		.sleb128 0
 13067 4645 00       		.byte	0
 13068 4646 3F       		.uleb128 0x3f
 13069 4647 F8070000 		.4byte	.LVL159
 13070 464b AA620000 		.4byte	0x62aa
 13071 464f 5B460000 		.4byte	0x465b
 13072 4653 39       		.uleb128 0x39
 13073 4654 01       		.uleb128 0x1
 13074 4655 50       		.byte	0x50
 13075 4656 03       		.uleb128 0x3
 13076 4657 0A       		.byte	0xa
 13077 4658 D007     		.2byte	0x7d0
 13078 465a 00       		.byte	0
 13079 465b 3F       		.uleb128 0x3f
 13080 465c 0A080000 		.4byte	.LVL161
 13081 4660 26620000 		.4byte	0x6226
 13082 4664 72460000 		.4byte	0x4672
 13083 4668 39       		.uleb128 0x39
 13084 4669 01       		.uleb128 0x1
 13085 466a 50       		.byte	0x50
 13086 466b 05       		.uleb128 0x5
 13087 466c 03       		.byte	0x3
 13088 466d 4C080000 		.4byte	.LC94
 13089 4671 00       		.byte	0
 13090 4672 38       		.uleb128 0x38
 13091 4673 10080000 		.4byte	.LVL162
 13092 4677 89620000 		.4byte	0x6289
 13093 467b 39       		.uleb128 0x39
 13094 467c 01       		.uleb128 0x1
 13095 467d 50       		.byte	0x50
 13096 467e 05       		.uleb128 0x5
 13097 467f 03       		.byte	0x3
 13098 4680 00000000 		.4byte	.LANCHOR1
 13099 4684 00       		.byte	0
 13100 4685 00       		.byte	0
 13101 4686 3E       		.uleb128 0x3e
 13102 4687 2E080000 		.4byte	.LBB104
 13103 468b 76000000 		.4byte	.LBE104-.LBB104
 13104 468f 47470000 		.4byte	0x4747
 13105 4693 4A       		.uleb128 0x4a
 13106 4694 33260000 		.4byte	.LASF470
ARM GAS  /tmp/ccU5UnMV.s 			page 245


 13107 4698 01       		.byte	0x1
 13108 4699 3001     		.2byte	0x130
 13109 469b 25000000 		.4byte	0x25
 13110 469f 03       		.uleb128 0x3
 13111 46a0 91       		.byte	0x91
 13112 46a1 987D     		.sleb128 -360
 13113 46a3 3E       		.uleb128 0x3e
 13114 46a4 5E080000 		.4byte	.LBB105
 13115 46a8 44000000 		.4byte	.LBE105-.LBB105
 13116 46ac 2D470000 		.4byte	0x472d
 13117 46b0 4A       		.uleb128 0x4a
 13118 46b1 C1090000 		.4byte	.LASF946
 13119 46b5 01       		.byte	0x1
 13120 46b6 3801     		.2byte	0x138
 13121 46b8 25000000 		.4byte	0x25
 13122 46bc 03       		.uleb128 0x3
 13123 46bd 91       		.byte	0x91
 13124 46be 9C7D     		.sleb128 -356
 13125 46c0 37       		.uleb128 0x37
 13126 46c1 696E6400 		.ascii	"ind\000"
 13127 46c5 01       		.byte	0x1
 13128 46c6 3901     		.2byte	0x139
 13129 46c8 25000000 		.4byte	0x25
 13130 46cc 98040000 		.4byte	.LLST17
 13131 46d0 3F       		.uleb128 0x3f
 13132 46d1 70080000 		.4byte	.LVL168
 13133 46d5 89620000 		.4byte	0x6289
 13134 46d9 E7460000 		.4byte	0x46e7
 13135 46dd 39       		.uleb128 0x39
 13136 46de 01       		.uleb128 0x1
 13137 46df 50       		.byte	0x50
 13138 46e0 05       		.uleb128 0x5
 13139 46e1 03       		.byte	0x3
 13140 46e2 00000000 		.4byte	.LANCHOR0
 13141 46e6 00       		.byte	0
 13142 46e7 3F       		.uleb128 0x3f
 13143 46e8 7C080000 		.4byte	.LVL169
 13144 46ec B5620000 		.4byte	0x62b5
 13145 46f0 02470000 		.4byte	0x4702
 13146 46f4 39       		.uleb128 0x39
 13147 46f5 01       		.uleb128 0x1
 13148 46f6 50       		.byte	0x50
 13149 46f7 02       		.uleb128 0x2
 13150 46f8 08       		.byte	0x8
 13151 46f9 C8       		.byte	0xc8
 13152 46fa 39       		.uleb128 0x39
 13153 46fb 01       		.uleb128 0x1
 13154 46fc 51       		.byte	0x51
 13155 46fd 03       		.uleb128 0x3
 13156 46fe 91       		.byte	0x91
 13157 46ff 9C7D     		.sleb128 -356
 13158 4701 00       		.byte	0
 13159 4702 3F       		.uleb128 0x3f
 13160 4703 9C080000 		.4byte	.LVL172
 13161 4707 26620000 		.4byte	0x6226
 13162 470b 19470000 		.4byte	0x4719
 13163 470f 39       		.uleb128 0x39
ARM GAS  /tmp/ccU5UnMV.s 			page 246


 13164 4710 01       		.uleb128 0x1
 13165 4711 50       		.byte	0x50
 13166 4712 05       		.uleb128 0x5
 13167 4713 03       		.byte	0x3
 13168 4714 70080000 		.4byte	.LC96
 13169 4718 00       		.byte	0
 13170 4719 38       		.uleb128 0x38
 13171 471a A2080000 		.4byte	.LVL173
 13172 471e 89620000 		.4byte	0x6289
 13173 4722 39       		.uleb128 0x39
 13174 4723 01       		.uleb128 0x1
 13175 4724 50       		.byte	0x50
 13176 4725 05       		.uleb128 0x5
 13177 4726 03       		.byte	0x3
 13178 4727 00000000 		.4byte	.LANCHOR1
 13179 472b 00       		.byte	0
 13180 472c 00       		.byte	0
 13181 472d 38       		.uleb128 0x38
 13182 472e 3E080000 		.4byte	.LVL167
 13183 4732 68620000 		.4byte	0x6268
 13184 4736 39       		.uleb128 0x39
 13185 4737 01       		.uleb128 0x1
 13186 4738 51       		.byte	0x51
 13187 4739 05       		.uleb128 0x5
 13188 473a 03       		.byte	0x3
 13189 473b 14050000 		.4byte	.LC64
 13190 473f 39       		.uleb128 0x39
 13191 4740 01       		.uleb128 0x1
 13192 4741 52       		.byte	0x52
 13193 4742 02       		.uleb128 0x2
 13194 4743 74       		.byte	0x74
 13195 4744 00       		.sleb128 0
 13196 4745 00       		.byte	0
 13197 4746 00       		.byte	0
 13198 4747 3E       		.uleb128 0x3e
 13199 4748 900A0000 		.4byte	.LBB127
 13200 474c 90000000 		.4byte	.LBE127-.LBB127
 13201 4750 38480000 		.4byte	0x4838
 13202 4754 4A       		.uleb128 0x4a
 13203 4755 451D0000 		.4byte	.LASF466
 13204 4759 01       		.byte	0x1
 13205 475a 4501     		.2byte	0x145
 13206 475c 25000000 		.4byte	0x25
 13207 4760 03       		.uleb128 0x3
 13208 4761 91       		.byte	0x91
 13209 4762 8C7D     		.sleb128 -372
 13210 4764 4A       		.uleb128 0x4a
 13211 4765 33260000 		.4byte	.LASF470
 13212 4769 01       		.byte	0x1
 13213 476a 4601     		.2byte	0x146
 13214 476c 25000000 		.4byte	0x25
 13215 4770 03       		.uleb128 0x3
 13216 4771 91       		.byte	0x91
 13217 4772 907D     		.sleb128 -368
 13218 4774 4A       		.uleb128 0x4a
 13219 4775 B8090000 		.4byte	.LASF947
 13220 4779 01       		.byte	0x1
ARM GAS  /tmp/ccU5UnMV.s 			page 247


 13221 477a 4701     		.2byte	0x147
 13222 477c 25000000 		.4byte	0x25
 13223 4780 03       		.uleb128 0x3
 13224 4781 91       		.byte	0x91
 13225 4782 947D     		.sleb128 -364
 13226 4784 4B       		.uleb128 0x4b
 13227 4785 72657300 		.ascii	"res\000"
 13228 4789 01       		.byte	0x1
 13229 478a 4801     		.2byte	0x148
 13230 478c 25000000 		.4byte	0x25
 13231 4790 03       		.uleb128 0x3
 13232 4791 91       		.byte	0x91
 13233 4792 987D     		.sleb128 -360
 13234 4794 3E       		.uleb128 0x3e
 13235 4795 180B0000 		.4byte	.LBB128
 13236 4799 08000000 		.4byte	.LBE128-.LBB128
 13237 479d C3470000 		.4byte	0x47c3
 13238 47a1 4A       		.uleb128 0x4a
 13239 47a2 6D080000 		.4byte	.LASF948
 13240 47a6 01       		.byte	0x1
 13241 47a7 4F01     		.2byte	0x14f
 13242 47a9 25000000 		.4byte	0x25
 13243 47ad 03       		.uleb128 0x3
 13244 47ae 91       		.byte	0x91
 13245 47af 9C7D     		.sleb128 -356
 13246 47b1 38       		.uleb128 0x38
 13247 47b2 1E0B0000 		.4byte	.LVL214
 13248 47b6 C0620000 		.4byte	0x62c0
 13249 47ba 39       		.uleb128 0x39
 13250 47bb 01       		.uleb128 0x1
 13251 47bc 50       		.byte	0x50
 13252 47bd 03       		.uleb128 0x3
 13253 47be 91       		.byte	0x91
 13254 47bf 9C7D     		.sleb128 -356
 13255 47c1 00       		.byte	0
 13256 47c2 00       		.byte	0
 13257 47c3 3F       		.uleb128 0x3f
 13258 47c4 A40A0000 		.4byte	.LVL210
 13259 47c8 68620000 		.4byte	0x6268
 13260 47cc E1470000 		.4byte	0x47e1
 13261 47d0 39       		.uleb128 0x39
 13262 47d1 01       		.uleb128 0x1
 13263 47d2 51       		.byte	0x51
 13264 47d3 05       		.uleb128 0x5
 13265 47d4 03       		.byte	0x3
 13266 47d5 14050000 		.4byte	.LC64
 13267 47d9 39       		.uleb128 0x39
 13268 47da 01       		.uleb128 0x1
 13269 47db 52       		.byte	0x52
 13270 47dc 03       		.uleb128 0x3
 13271 47dd 91       		.byte	0x91
 13272 47de 8C7D     		.sleb128 -372
 13273 47e0 00       		.byte	0
 13274 47e1 3F       		.uleb128 0x3f
 13275 47e2 AE0A0000 		.4byte	.LVL211
 13276 47e6 68620000 		.4byte	0x6268
 13277 47ea FF470000 		.4byte	0x47ff
ARM GAS  /tmp/ccU5UnMV.s 			page 248


 13278 47ee 39       		.uleb128 0x39
 13279 47ef 01       		.uleb128 0x1
 13280 47f0 51       		.byte	0x51
 13281 47f1 05       		.uleb128 0x5
 13282 47f2 03       		.byte	0x3
 13283 47f3 14050000 		.4byte	.LC64
 13284 47f7 39       		.uleb128 0x39
 13285 47f8 01       		.uleb128 0x1
 13286 47f9 52       		.byte	0x52
 13287 47fa 03       		.uleb128 0x3
 13288 47fb 91       		.byte	0x91
 13289 47fc 907D     		.sleb128 -368
 13290 47fe 00       		.byte	0
 13291 47ff 3F       		.uleb128 0x3f
 13292 4800 B80A0000 		.4byte	.LVL212
 13293 4804 68620000 		.4byte	0x6268
 13294 4808 1D480000 		.4byte	0x481d
 13295 480c 39       		.uleb128 0x39
 13296 480d 01       		.uleb128 0x1
 13297 480e 51       		.byte	0x51
 13298 480f 05       		.uleb128 0x5
 13299 4810 03       		.byte	0x3
 13300 4811 14050000 		.4byte	.LC64
 13301 4815 39       		.uleb128 0x39
 13302 4816 01       		.uleb128 0x1
 13303 4817 52       		.byte	0x52
 13304 4818 03       		.uleb128 0x3
 13305 4819 91       		.byte	0x91
 13306 481a 947D     		.sleb128 -364
 13307 481c 00       		.byte	0
 13308 481d 38       		.uleb128 0x38
 13309 481e C20A0000 		.4byte	.LVL213
 13310 4822 68620000 		.4byte	0x6268
 13311 4826 39       		.uleb128 0x39
 13312 4827 01       		.uleb128 0x1
 13313 4828 51       		.byte	0x51
 13314 4829 05       		.uleb128 0x5
 13315 482a 03       		.byte	0x3
 13316 482b 14050000 		.4byte	.LC64
 13317 482f 39       		.uleb128 0x39
 13318 4830 01       		.uleb128 0x1
 13319 4831 52       		.byte	0x52
 13320 4832 03       		.uleb128 0x3
 13321 4833 91       		.byte	0x91
 13322 4834 987D     		.sleb128 -360
 13323 4836 00       		.byte	0
 13324 4837 00       		.byte	0
 13325 4838 3E       		.uleb128 0x3e
 13326 4839 460C0000 		.4byte	.LBB137
 13327 483d 40000000 		.4byte	.LBE137-.LBB137
 13328 4841 DA480000 		.4byte	0x48da
 13329 4845 4B       		.uleb128 0x4b
 13330 4846 72657300 		.ascii	"res\000"
 13331 484a 01       		.byte	0x1
 13332 484b 5C01     		.2byte	0x15c
 13333 484d 25000000 		.4byte	0x25
 13334 4851 03       		.uleb128 0x3
ARM GAS  /tmp/ccU5UnMV.s 			page 249


 13335 4852 91       		.byte	0x91
 13336 4853 987D     		.sleb128 -360
 13337 4855 4B       		.uleb128 0x4b
 13338 4856 696E6400 		.ascii	"ind\000"
 13339 485a 01       		.byte	0x1
 13340 485b 5D01     		.2byte	0x15d
 13341 485d 25000000 		.4byte	0x25
 13342 4861 03       		.uleb128 0x3
 13343 4862 91       		.byte	0x91
 13344 4863 9C7D     		.sleb128 -356
 13345 4865 3F       		.uleb128 0x3f
 13346 4866 520C0000 		.4byte	.LVL254
 13347 486a 89620000 		.4byte	0x6289
 13348 486e 7C480000 		.4byte	0x487c
 13349 4872 39       		.uleb128 0x39
 13350 4873 01       		.uleb128 0x1
 13351 4874 50       		.byte	0x50
 13352 4875 05       		.uleb128 0x5
 13353 4876 03       		.byte	0x3
 13354 4877 00000000 		.4byte	.LANCHOR0
 13355 487b 00       		.byte	0
 13356 487c 3F       		.uleb128 0x3f
 13357 487d 600C0000 		.4byte	.LVL255
 13358 4881 CB620000 		.4byte	0x62cb
 13359 4885 98480000 		.4byte	0x4898
 13360 4889 39       		.uleb128 0x39
 13361 488a 01       		.uleb128 0x1
 13362 488b 50       		.byte	0x50
 13363 488c 03       		.uleb128 0x3
 13364 488d 91       		.byte	0x91
 13365 488e 987D     		.sleb128 -360
 13366 4890 39       		.uleb128 0x39
 13367 4891 01       		.uleb128 0x1
 13368 4892 51       		.byte	0x51
 13369 4893 03       		.uleb128 0x3
 13370 4894 91       		.byte	0x91
 13371 4895 9C7D     		.sleb128 -356
 13372 4897 00       		.byte	0
 13373 4898 3F       		.uleb128 0x3f
 13374 4899 700C0000 		.4byte	.LVL257
 13375 489d 26620000 		.4byte	0x6226
 13376 48a1 AF480000 		.4byte	0x48af
 13377 48a5 39       		.uleb128 0x39
 13378 48a6 01       		.uleb128 0x1
 13379 48a7 50       		.byte	0x50
 13380 48a8 05       		.uleb128 0x5
 13381 48a9 03       		.byte	0x3
 13382 48aa F4080000 		.4byte	.LC101
 13383 48ae 00       		.byte	0
 13384 48af 3F       		.uleb128 0x3f
 13385 48b0 800C0000 		.4byte	.LVL259
 13386 48b4 26620000 		.4byte	0x6226
 13387 48b8 C6480000 		.4byte	0x48c6
 13388 48bc 39       		.uleb128 0x39
 13389 48bd 01       		.uleb128 0x1
 13390 48be 50       		.byte	0x50
 13391 48bf 05       		.uleb128 0x5
ARM GAS  /tmp/ccU5UnMV.s 			page 250


 13392 48c0 03       		.byte	0x3
 13393 48c1 0C090000 		.4byte	.LC102
 13394 48c5 00       		.byte	0
 13395 48c6 38       		.uleb128 0x38
 13396 48c7 860C0000 		.4byte	.LVL260
 13397 48cb 89620000 		.4byte	0x6289
 13398 48cf 39       		.uleb128 0x39
 13399 48d0 01       		.uleb128 0x1
 13400 48d1 50       		.byte	0x50
 13401 48d2 05       		.uleb128 0x5
 13402 48d3 03       		.byte	0x3
 13403 48d4 00000000 		.4byte	.LANCHOR1
 13404 48d8 00       		.byte	0
 13405 48d9 00       		.byte	0
 13406 48da 46       		.uleb128 0x46
 13407 48db 18010000 		.4byte	.Ldebug_ranges0+0x118
 13408 48df A94A0000 		.4byte	0x4aa9
 13409 48e3 4A       		.uleb128 0x4a
 13410 48e4 33260000 		.4byte	.LASF470
 13411 48e8 01       		.byte	0x1
 13412 48e9 6501     		.2byte	0x165
 13413 48eb 25000000 		.4byte	0x25
 13414 48ef 03       		.uleb128 0x3
 13415 48f0 91       		.byte	0x91
 13416 48f1 9C7D     		.sleb128 -356
 13417 48f3 46       		.uleb128 0x46
 13418 48f4 30010000 		.4byte	.Ldebug_ranges0+0x130
 13419 48f8 8F4A0000 		.4byte	0x4a8f
 13420 48fc 37       		.uleb128 0x37
 13421 48fd 72657300 		.ascii	"res\000"
 13422 4901 01       		.byte	0x1
 13423 4902 6B01     		.2byte	0x16b
 13424 4904 FD110000 		.4byte	0x11fd
 13425 4908 AC040000 		.4byte	.LLST22
 13426 490c 35       		.uleb128 0x35
 13427 490d 43100000 		.4byte	.LASF949
 13428 4911 01       		.byte	0x1
 13429 4912 6E01     		.2byte	0x16e
 13430 4914 8D010000 		.4byte	0x18d
 13431 4918 C0040000 		.4byte	.LLST23
 13432 491c 35       		.uleb128 0x35
 13433 491d E30B0000 		.4byte	.LASF950
 13434 4921 01       		.byte	0x1
 13435 4922 6F01     		.2byte	0x16f
 13436 4924 25000000 		.4byte	0x25
 13437 4928 DE040000 		.4byte	.LLST24
 13438 492c 35       		.uleb128 0x35
 13439 492d 7F030000 		.4byte	.LASF951
 13440 4931 01       		.byte	0x1
 13441 4932 7801     		.2byte	0x178
 13442 4934 25000000 		.4byte	0x25
 13443 4938 FE040000 		.4byte	.LLST25
 13444 493c 35       		.uleb128 0x35
 13445 493d 56140000 		.4byte	.LASF952
 13446 4941 01       		.byte	0x1
 13447 4942 7901     		.2byte	0x179
 13448 4944 25000000 		.4byte	0x25
ARM GAS  /tmp/ccU5UnMV.s 			page 251


 13449 4948 42050000 		.4byte	.LLST26
 13450 494c 35       		.uleb128 0x35
 13451 494d 73020000 		.4byte	.LASF953
 13452 4951 01       		.byte	0x1
 13453 4952 7A01     		.2byte	0x17a
 13454 4954 25000000 		.4byte	0x25
 13455 4958 86050000 		.4byte	.LLST27
 13456 495c 35       		.uleb128 0x35
 13457 495d 10220000 		.4byte	.LASF954
 13458 4961 01       		.byte	0x1
 13459 4962 7B01     		.2byte	0x17b
 13460 4964 25000000 		.4byte	0x25
 13461 4968 9A050000 		.4byte	.LLST28
 13462 496c 4C       		.uleb128 0x4c
 13463 496d 6D080000 		.4byte	.LASF948
 13464 4971 01       		.byte	0x1
 13465 4972 8E01     		.2byte	0x18e
 13466 4974 25000000 		.4byte	0x25
 13467 4978 46       		.uleb128 0x46
 13468 4979 48010000 		.4byte	.Ldebug_ranges0+0x148
 13469 497d A9490000 		.4byte	0x49a9
 13470 4981 37       		.uleb128 0x37
 13471 4982 6900     		.ascii	"i\000"
 13472 4984 01       		.byte	0x1
 13473 4985 7301     		.2byte	0x173
 13474 4987 2C000000 		.4byte	0x2c
 13475 498b DE050000 		.4byte	.LLST29
 13476 498f 40       		.uleb128 0x40
 13477 4990 C80B0000 		.4byte	.LVL231
 13478 4994 D6620000 		.4byte	0x62d6
 13479 4998 38       		.uleb128 0x38
 13480 4999 CE0B0000 		.4byte	.LVL232
 13481 499d E1620000 		.4byte	0x62e1
 13482 49a1 39       		.uleb128 0x39
 13483 49a2 01       		.uleb128 0x1
 13484 49a3 50       		.byte	0x50
 13485 49a4 02       		.uleb128 0x2
 13486 49a5 08       		.byte	0x8
 13487 49a6 C8       		.byte	0xc8
 13488 49a7 00       		.byte	0
 13489 49a8 00       		.byte	0
 13490 49a9 3E       		.uleb128 0x3e
 13491 49aa E60B0000 		.4byte	.LBB134
 13492 49ae 2A000000 		.4byte	.LBE134-.LBB134
 13493 49b2 EF490000 		.4byte	0x49ef
 13494 49b6 37       		.uleb128 0x37
 13495 49b7 6900     		.ascii	"i\000"
 13496 49b9 01       		.byte	0x1
 13497 49ba 7C01     		.2byte	0x17c
 13498 49bc 2C000000 		.4byte	0x2c
 13499 49c0 09060000 		.4byte	.LLST30
 13500 49c4 40       		.uleb128 0x40
 13501 49c5 EE0B0000 		.4byte	.LVL235
 13502 49c9 EC620000 		.4byte	0x62ec
 13503 49cd 40       		.uleb128 0x40
 13504 49ce F60B0000 		.4byte	.LVL237
 13505 49d2 F7620000 		.4byte	0x62f7
ARM GAS  /tmp/ccU5UnMV.s 			page 252


 13506 49d6 40       		.uleb128 0x40
 13507 49d7 FE0B0000 		.4byte	.LVL239
 13508 49db 02630000 		.4byte	0x6302
 13509 49df 38       		.uleb128 0x38
 13510 49e0 080C0000 		.4byte	.LVL241
 13511 49e4 E1620000 		.4byte	0x62e1
 13512 49e8 39       		.uleb128 0x39
 13513 49e9 01       		.uleb128 0x1
 13514 49ea 50       		.byte	0x50
 13515 49eb 01       		.uleb128 0x1
 13516 49ec 3A       		.byte	0x3a
 13517 49ed 00       		.byte	0
 13518 49ee 00       		.byte	0
 13519 49ef 3F       		.uleb128 0x3f
 13520 49f0 2E0B0000 		.4byte	.LVL217
 13521 49f4 26620000 		.4byte	0x6226
 13522 49f8 064A0000 		.4byte	0x4a06
 13523 49fc 39       		.uleb128 0x39
 13524 49fd 01       		.uleb128 0x1
 13525 49fe 50       		.byte	0x50
 13526 49ff 05       		.uleb128 0x5
 13527 4a00 03       		.byte	0x3
 13528 4a01 A8080000 		.4byte	.LC98
 13529 4a05 00       		.byte	0
 13530 4a06 3F       		.uleb128 0x3f
 13531 4a07 840B0000 		.4byte	.LVL222
 13532 4a0b 89620000 		.4byte	0x6289
 13533 4a0f 1A4A0000 		.4byte	0x4a1a
 13534 4a13 39       		.uleb128 0x39
 13535 4a14 01       		.uleb128 0x1
 13536 4a15 50       		.byte	0x50
 13537 4a16 02       		.uleb128 0x2
 13538 4a17 77       		.byte	0x77
 13539 4a18 00       		.sleb128 0
 13540 4a19 00       		.byte	0
 13541 4a1a 40       		.uleb128 0x40
 13542 4a1b 940B0000 		.4byte	.LVL224
 13543 4a1f 0D630000 		.4byte	0x630d
 13544 4a23 40       		.uleb128 0x40
 13545 4a24 9A0B0000 		.4byte	.LVL226
 13546 4a28 18630000 		.4byte	0x6318
 13547 4a2c 40       		.uleb128 0x40
 13548 4a2d A20B0000 		.4byte	.LVL228
 13549 4a31 23630000 		.4byte	0x6323
 13550 4a35 3F       		.uleb128 0x3f
 13551 4a36 AE0B0000 		.4byte	.LVL229
 13552 4a3a 2E630000 		.4byte	0x632e
 13553 4a3e 564A0000 		.4byte	0x4a56
 13554 4a42 39       		.uleb128 0x39
 13555 4a43 01       		.uleb128 0x1
 13556 4a44 50       		.byte	0x50
 13557 4a45 03       		.uleb128 0x3
 13558 4a46 0A       		.byte	0xa
 13559 4a47 60EA     		.2byte	0xea60
 13560 4a49 39       		.uleb128 0x39
 13561 4a4a 02       		.uleb128 0x2
 13562 4a4b 90       		.byte	0x90
ARM GAS  /tmp/ccU5UnMV.s 			page 253


 13563 4a4c 40       		.uleb128 0x40
 13564 4a4d 07       		.uleb128 0x7
 13565 4a4e F4       		.byte	0xf4
 13566 4a4f 25       		.uleb128 0x25
 13567 4a50 04       		.byte	0x4
 13568 4a51 00000000 		.4byte	0
 13569 4a55 00       		.byte	0
 13570 4a56 40       		.uleb128 0x40
 13571 4a57 140C0000 		.4byte	.LVL244
 13572 4a5b 39630000 		.4byte	0x6339
 13573 4a5f 3F       		.uleb128 0x3f
 13574 4a60 1A0C0000 		.4byte	.LVL245
 13575 4a64 89620000 		.4byte	0x6289
 13576 4a68 764A0000 		.4byte	0x4a76
 13577 4a6c 39       		.uleb128 0x39
 13578 4a6d 01       		.uleb128 0x1
 13579 4a6e 50       		.byte	0x50
 13580 4a6f 05       		.uleb128 0x5
 13581 4a70 03       		.byte	0x3
 13582 4a71 00000000 		.4byte	.LANCHOR1
 13583 4a75 00       		.byte	0
 13584 4a76 38       		.uleb128 0x38
 13585 4a77 240C0000 		.4byte	.LVL246
 13586 4a7b 2E630000 		.4byte	0x632e
 13587 4a7f 39       		.uleb128 0x39
 13588 4a80 01       		.uleb128 0x1
 13589 4a81 50       		.byte	0x50
 13590 4a82 02       		.uleb128 0x2
 13591 4a83 77       		.byte	0x77
 13592 4a84 00       		.sleb128 0
 13593 4a85 39       		.uleb128 0x39
 13594 4a86 02       		.uleb128 0x2
 13595 4a87 90       		.byte	0x90
 13596 4a88 40       		.uleb128 0x40
 13597 4a89 03       		.uleb128 0x3
 13598 4a8a F5       		.byte	0xf5
 13599 4a8b 55       		.uleb128 0x55
 13600 4a8c 25       		.uleb128 0x25
 13601 4a8d 00       		.byte	0
 13602 4a8e 00       		.byte	0
 13603 4a8f 38       		.uleb128 0x38
 13604 4a90 660B0000 		.4byte	.LVL221
 13605 4a94 68620000 		.4byte	0x6268
 13606 4a98 39       		.uleb128 0x39
 13607 4a99 01       		.uleb128 0x1
 13608 4a9a 51       		.byte	0x51
 13609 4a9b 05       		.uleb128 0x5
 13610 4a9c 03       		.byte	0x3
 13611 4a9d 14050000 		.4byte	.LC64
 13612 4aa1 39       		.uleb128 0x39
 13613 4aa2 01       		.uleb128 0x1
 13614 4aa3 52       		.byte	0x52
 13615 4aa4 02       		.uleb128 0x2
 13616 4aa5 75       		.byte	0x75
 13617 4aa6 00       		.sleb128 0
 13618 4aa7 00       		.byte	0
 13619 4aa8 00       		.byte	0
ARM GAS  /tmp/ccU5UnMV.s 			page 254


 13620 4aa9 3E       		.uleb128 0x3e
 13621 4aaa 9C0C0000 		.4byte	.LBB138
 13622 4aae 92000000 		.4byte	.LBE138-.LBB138
 13623 4ab2 9A4B0000 		.4byte	0x4b9a
 13624 4ab6 4A       		.uleb128 0x4a
 13625 4ab7 451D0000 		.4byte	.LASF466
 13626 4abb 01       		.byte	0x1
 13627 4abc 9901     		.2byte	0x199
 13628 4abe 25000000 		.4byte	0x25
 13629 4ac2 03       		.uleb128 0x3
 13630 4ac3 91       		.byte	0x91
 13631 4ac4 8C7D     		.sleb128 -372
 13632 4ac6 4A       		.uleb128 0x4a
 13633 4ac7 33260000 		.4byte	.LASF470
 13634 4acb 01       		.byte	0x1
 13635 4acc 9A01     		.2byte	0x19a
 13636 4ace 25000000 		.4byte	0x25
 13637 4ad2 03       		.uleb128 0x3
 13638 4ad3 91       		.byte	0x91
 13639 4ad4 907D     		.sleb128 -368
 13640 4ad6 4A       		.uleb128 0x4a
 13641 4ad7 3A140000 		.4byte	.LASF955
 13642 4adb 01       		.byte	0x1
 13643 4adc 9B01     		.2byte	0x19b
 13644 4ade 25000000 		.4byte	0x25
 13645 4ae2 03       		.uleb128 0x3
 13646 4ae3 91       		.byte	0x91
 13647 4ae4 947D     		.sleb128 -364
 13648 4ae6 4B       		.uleb128 0x4b
 13649 4ae7 72657300 		.ascii	"res\000"
 13650 4aeb 01       		.byte	0x1
 13651 4aec 9C01     		.2byte	0x19c
 13652 4aee 25000000 		.4byte	0x25
 13653 4af2 03       		.uleb128 0x3
 13654 4af3 91       		.byte	0x91
 13655 4af4 987D     		.sleb128 -360
 13656 4af6 3E       		.uleb128 0x3e
 13657 4af7 240D0000 		.4byte	.LBB139
 13658 4afb 0A000000 		.4byte	.LBE139-.LBB139
 13659 4aff 254B0000 		.4byte	0x4b25
 13660 4b03 4A       		.uleb128 0x4a
 13661 4b04 6D080000 		.4byte	.LASF948
 13662 4b08 01       		.byte	0x1
 13663 4b09 A301     		.2byte	0x1a3
 13664 4b0b 25000000 		.4byte	0x25
 13665 4b0f 03       		.uleb128 0x3
 13666 4b10 91       		.byte	0x91
 13667 4b11 9C7D     		.sleb128 -356
 13668 4b13 38       		.uleb128 0x38
 13669 4b14 2A0D0000 		.4byte	.LVL266
 13670 4b18 44630000 		.4byte	0x6344
 13671 4b1c 39       		.uleb128 0x39
 13672 4b1d 01       		.uleb128 0x1
 13673 4b1e 50       		.byte	0x50
 13674 4b1f 03       		.uleb128 0x3
 13675 4b20 91       		.byte	0x91
 13676 4b21 9C7D     		.sleb128 -356
ARM GAS  /tmp/ccU5UnMV.s 			page 255


 13677 4b23 00       		.byte	0
 13678 4b24 00       		.byte	0
 13679 4b25 3F       		.uleb128 0x3f
 13680 4b26 B00C0000 		.4byte	.LVL262
 13681 4b2a 68620000 		.4byte	0x6268
 13682 4b2e 434B0000 		.4byte	0x4b43
 13683 4b32 39       		.uleb128 0x39
 13684 4b33 01       		.uleb128 0x1
 13685 4b34 51       		.byte	0x51
 13686 4b35 05       		.uleb128 0x5
 13687 4b36 03       		.byte	0x3
 13688 4b37 14050000 		.4byte	.LC64
 13689 4b3b 39       		.uleb128 0x39
 13690 4b3c 01       		.uleb128 0x1
 13691 4b3d 52       		.byte	0x52
 13692 4b3e 03       		.uleb128 0x3
 13693 4b3f 91       		.byte	0x91
 13694 4b40 8C7D     		.sleb128 -372
 13695 4b42 00       		.byte	0
 13696 4b43 3F       		.uleb128 0x3f
 13697 4b44 BA0C0000 		.4byte	.LVL263
 13698 4b48 68620000 		.4byte	0x6268
 13699 4b4c 614B0000 		.4byte	0x4b61
 13700 4b50 39       		.uleb128 0x39
 13701 4b51 01       		.uleb128 0x1
 13702 4b52 51       		.byte	0x51
 13703 4b53 05       		.uleb128 0x5
 13704 4b54 03       		.byte	0x3
 13705 4b55 14050000 		.4byte	.LC64
 13706 4b59 39       		.uleb128 0x39
 13707 4b5a 01       		.uleb128 0x1
 13708 4b5b 52       		.byte	0x52
 13709 4b5c 03       		.uleb128 0x3
 13710 4b5d 91       		.byte	0x91
 13711 4b5e 907D     		.sleb128 -368
 13712 4b60 00       		.byte	0
 13713 4b61 3F       		.uleb128 0x3f
 13714 4b62 C40C0000 		.4byte	.LVL264
 13715 4b66 68620000 		.4byte	0x6268
 13716 4b6a 7F4B0000 		.4byte	0x4b7f
 13717 4b6e 39       		.uleb128 0x39
 13718 4b6f 01       		.uleb128 0x1
 13719 4b70 51       		.byte	0x51
 13720 4b71 05       		.uleb128 0x5
 13721 4b72 03       		.byte	0x3
 13722 4b73 14050000 		.4byte	.LC64
 13723 4b77 39       		.uleb128 0x39
 13724 4b78 01       		.uleb128 0x1
 13725 4b79 52       		.byte	0x52
 13726 4b7a 03       		.uleb128 0x3
 13727 4b7b 91       		.byte	0x91
 13728 4b7c 947D     		.sleb128 -364
 13729 4b7e 00       		.byte	0
 13730 4b7f 38       		.uleb128 0x38
 13731 4b80 CE0C0000 		.4byte	.LVL265
 13732 4b84 68620000 		.4byte	0x6268
 13733 4b88 39       		.uleb128 0x39
ARM GAS  /tmp/ccU5UnMV.s 			page 256


 13734 4b89 01       		.uleb128 0x1
 13735 4b8a 51       		.byte	0x51
 13736 4b8b 05       		.uleb128 0x5
 13737 4b8c 03       		.byte	0x3
 13738 4b8d 14050000 		.4byte	.LC64
 13739 4b91 39       		.uleb128 0x39
 13740 4b92 01       		.uleb128 0x1
 13741 4b93 52       		.byte	0x52
 13742 4b94 03       		.uleb128 0x3
 13743 4b95 91       		.byte	0x91
 13744 4b96 987D     		.sleb128 -360
 13745 4b98 00       		.byte	0
 13746 4b99 00       		.byte	0
 13747 4b9a 3E       		.uleb128 0x3e
 13748 4b9b 6E0D0000 		.4byte	.LBB140
 13749 4b9f 9A000000 		.4byte	.LBE140-.LBB140
 13750 4ba3 164C0000 		.4byte	0x4c16
 13751 4ba7 4A       		.uleb128 0x4a
 13752 4ba8 451D0000 		.4byte	.LASF466
 13753 4bac 01       		.byte	0x1
 13754 4bad BC01     		.2byte	0x1bc
 13755 4baf 25000000 		.4byte	0x25
 13756 4bb3 03       		.uleb128 0x3
 13757 4bb4 91       		.byte	0x91
 13758 4bb5 987D     		.sleb128 -360
 13759 4bb7 4A       		.uleb128 0x4a
 13760 4bb8 A4240000 		.4byte	.LASF956
 13761 4bbc 01       		.byte	0x1
 13762 4bbd BD01     		.2byte	0x1bd
 13763 4bbf 25000000 		.4byte	0x25
 13764 4bc3 03       		.uleb128 0x3
 13765 4bc4 91       		.byte	0x91
 13766 4bc5 9C7D     		.sleb128 -356
 13767 4bc7 3F       		.uleb128 0x3f
 13768 4bc8 7E0D0000 		.4byte	.LVL273
 13769 4bcc 68620000 		.4byte	0x6268
 13770 4bd0 E54B0000 		.4byte	0x4be5
 13771 4bd4 39       		.uleb128 0x39
 13772 4bd5 01       		.uleb128 0x1
 13773 4bd6 51       		.byte	0x51
 13774 4bd7 05       		.uleb128 0x5
 13775 4bd8 03       		.byte	0x3
 13776 4bd9 14050000 		.4byte	.LC64
 13777 4bdd 39       		.uleb128 0x39
 13778 4bde 01       		.uleb128 0x1
 13779 4bdf 52       		.byte	0x52
 13780 4be0 03       		.uleb128 0x3
 13781 4be1 91       		.byte	0x91
 13782 4be2 987D     		.sleb128 -360
 13783 4be4 00       		.byte	0
 13784 4be5 3F       		.uleb128 0x3f
 13785 4be6 880D0000 		.4byte	.LVL274
 13786 4bea 68620000 		.4byte	0x6268
 13787 4bee 034C0000 		.4byte	0x4c03
 13788 4bf2 39       		.uleb128 0x39
 13789 4bf3 01       		.uleb128 0x1
 13790 4bf4 51       		.byte	0x51
ARM GAS  /tmp/ccU5UnMV.s 			page 257


 13791 4bf5 05       		.uleb128 0x5
 13792 4bf6 03       		.byte	0x3
 13793 4bf7 14050000 		.4byte	.LC64
 13794 4bfb 39       		.uleb128 0x39
 13795 4bfc 01       		.uleb128 0x1
 13796 4bfd 52       		.byte	0x52
 13797 4bfe 03       		.uleb128 0x3
 13798 4bff 91       		.byte	0x91
 13799 4c00 9C7D     		.sleb128 -356
 13800 4c02 00       		.byte	0
 13801 4c03 40       		.uleb128 0x40
 13802 4c04 AC0D0000 		.4byte	.LVL275
 13803 4c08 23630000 		.4byte	0x6323
 13804 4c0c 40       		.uleb128 0x40
 13805 4c0d B80D0000 		.4byte	.LVL276
 13806 4c11 4F630000 		.4byte	0x634f
 13807 4c15 00       		.byte	0
 13808 4c16 3E       		.uleb128 0x3e
 13809 4c17 180E0000 		.4byte	.LBB141
 13810 4c1b 4E000000 		.4byte	.LBE141-.LBB141
 13811 4c1f 924C0000 		.4byte	0x4c92
 13812 4c23 4A       		.uleb128 0x4a
 13813 4c24 33260000 		.4byte	.LASF470
 13814 4c28 01       		.byte	0x1
 13815 4c29 CC01     		.2byte	0x1cc
 13816 4c2b 25000000 		.4byte	0x25
 13817 4c2f 03       		.uleb128 0x3
 13818 4c30 91       		.byte	0x91
 13819 4c31 987D     		.sleb128 -360
 13820 4c33 4A       		.uleb128 0x4a
 13821 4c34 A4240000 		.4byte	.LASF956
 13822 4c38 01       		.byte	0x1
 13823 4c39 CD01     		.2byte	0x1cd
 13824 4c3b 25000000 		.4byte	0x25
 13825 4c3f 03       		.uleb128 0x3
 13826 4c40 91       		.byte	0x91
 13827 4c41 9C7D     		.sleb128 -356
 13828 4c43 3F       		.uleb128 0x3f
 13829 4c44 280E0000 		.4byte	.LVL278
 13830 4c48 68620000 		.4byte	0x6268
 13831 4c4c 614C0000 		.4byte	0x4c61
 13832 4c50 39       		.uleb128 0x39
 13833 4c51 01       		.uleb128 0x1
 13834 4c52 51       		.byte	0x51
 13835 4c53 05       		.uleb128 0x5
 13836 4c54 03       		.byte	0x3
 13837 4c55 14050000 		.4byte	.LC64
 13838 4c59 39       		.uleb128 0x39
 13839 4c5a 01       		.uleb128 0x1
 13840 4c5b 52       		.byte	0x52
 13841 4c5c 03       		.uleb128 0x3
 13842 4c5d 91       		.byte	0x91
 13843 4c5e 987D     		.sleb128 -360
 13844 4c60 00       		.byte	0
 13845 4c61 3F       		.uleb128 0x3f
 13846 4c62 320E0000 		.4byte	.LVL279
 13847 4c66 68620000 		.4byte	0x6268
ARM GAS  /tmp/ccU5UnMV.s 			page 258


 13848 4c6a 7F4C0000 		.4byte	0x4c7f
 13849 4c6e 39       		.uleb128 0x39
 13850 4c6f 01       		.uleb128 0x1
 13851 4c70 51       		.byte	0x51
 13852 4c71 05       		.uleb128 0x5
 13853 4c72 03       		.byte	0x3
 13854 4c73 14050000 		.4byte	.LC64
 13855 4c77 39       		.uleb128 0x39
 13856 4c78 01       		.uleb128 0x1
 13857 4c79 52       		.byte	0x52
 13858 4c7a 03       		.uleb128 0x3
 13859 4c7b 91       		.byte	0x91
 13860 4c7c 9C7D     		.sleb128 -356
 13861 4c7e 00       		.byte	0
 13862 4c7f 40       		.uleb128 0x40
 13863 4c80 560E0000 		.4byte	.LVL280
 13864 4c84 23630000 		.4byte	0x6323
 13865 4c88 40       		.uleb128 0x40
 13866 4c89 620E0000 		.4byte	.LVL281
 13867 4c8d 5A630000 		.4byte	0x635a
 13868 4c91 00       		.byte	0
 13869 4c92 3E       		.uleb128 0x3e
 13870 4c93 F00E0000 		.4byte	.LBB142
 13871 4c97 2E000000 		.4byte	.LBE142-.LBB142
 13872 4c9b FF4C0000 		.4byte	0x4cff
 13873 4c9f 4A       		.uleb128 0x4a
 13874 4ca0 C6230000 		.4byte	.LASF957
 13875 4ca4 01       		.byte	0x1
 13876 4ca5 DC01     		.2byte	0x1dc
 13877 4ca7 2C000000 		.4byte	0x2c
 13878 4cab 03       		.uleb128 0x3
 13879 4cac 91       		.byte	0x91
 13880 4cad 9C7D     		.sleb128 -356
 13881 4caf 3E       		.uleb128 0x3e
 13882 4cb0 080F0000 		.4byte	.LBB143
 13883 4cb4 12000000 		.4byte	.LBE143-.LBB143
 13884 4cb8 E44C0000 		.4byte	0x4ce4
 13885 4cbc 4A       		.uleb128 0x4a
 13886 4cbd 27250000 		.4byte	.LASF958
 13887 4cc1 01       		.byte	0x1
 13888 4cc2 E001     		.2byte	0x1e0
 13889 4cc4 66610000 		.4byte	0x6166
 13890 4cc8 03       		.uleb128 0x3
 13891 4cc9 91       		.byte	0x91
 13892 4cca 987D     		.sleb128 -360
 13893 4ccc 38       		.uleb128 0x38
 13894 4ccd 1A0F0000 		.4byte	.LVL291
 13895 4cd1 65630000 		.4byte	0x6365
 13896 4cd5 39       		.uleb128 0x39
 13897 4cd6 01       		.uleb128 0x1
 13898 4cd7 50       		.byte	0x50
 13899 4cd8 03       		.uleb128 0x3
 13900 4cd9 91       		.byte	0x91
 13901 4cda 987D     		.sleb128 -360
 13902 4cdc 39       		.uleb128 0x39
 13903 4cdd 01       		.uleb128 0x1
 13904 4cde 51       		.byte	0x51
ARM GAS  /tmp/ccU5UnMV.s 			page 259


 13905 4cdf 02       		.uleb128 0x2
 13906 4ce0 74       		.byte	0x74
 13907 4ce1 00       		.sleb128 0
 13908 4ce2 00       		.byte	0
 13909 4ce3 00       		.byte	0
 13910 4ce4 38       		.uleb128 0x38
 13911 4ce5 000F0000 		.4byte	.LVL290
 13912 4ce9 68620000 		.4byte	0x6268
 13913 4ced 39       		.uleb128 0x39
 13914 4cee 01       		.uleb128 0x1
 13915 4cef 51       		.byte	0x51
 13916 4cf0 05       		.uleb128 0x5
 13917 4cf1 03       		.byte	0x3
 13918 4cf2 540A0000 		.4byte	.LC116
 13919 4cf6 39       		.uleb128 0x39
 13920 4cf7 01       		.uleb128 0x1
 13921 4cf8 52       		.byte	0x52
 13922 4cf9 03       		.uleb128 0x3
 13923 4cfa 91       		.byte	0x91
 13924 4cfb 9C7D     		.sleb128 -356
 13925 4cfd 00       		.byte	0
 13926 4cfe 00       		.byte	0
 13927 4cff 3E       		.uleb128 0x3e
 13928 4d00 2E0F0000 		.4byte	.LBB144
 13929 4d04 4C000000 		.4byte	.LBE144-.LBB144
 13930 4d08 694D0000 		.4byte	0x4d69
 13931 4d0c 4A       		.uleb128 0x4a
 13932 4d0d 451D0000 		.4byte	.LASF466
 13933 4d11 01       		.byte	0x1
 13934 4d12 EC01     		.2byte	0x1ec
 13935 4d14 25000000 		.4byte	0x25
 13936 4d18 03       		.uleb128 0x3
 13937 4d19 91       		.byte	0x91
 13938 4d1a 9C7D     		.sleb128 -356
 13939 4d1c 3E       		.uleb128 0x3e
 13940 4d1d 5E0F0000 		.4byte	.LBB145
 13941 4d21 1C000000 		.4byte	.LBE145-.LBB145
 13942 4d25 4E4D0000 		.4byte	0x4d4e
 13943 4d29 37       		.uleb128 0x37
 13944 4d2a 72657300 		.ascii	"res\000"
 13945 4d2e 01       		.byte	0x1
 13946 4d2f F001     		.2byte	0x1f0
 13947 4d31 2C000000 		.4byte	0x2c
 13948 4d35 33060000 		.4byte	.LLST31
 13949 4d39 38       		.uleb128 0x38
 13950 4d3a 660F0000 		.4byte	.LVL294
 13951 4d3e 70630000 		.4byte	0x6370
 13952 4d42 39       		.uleb128 0x39
 13953 4d43 01       		.uleb128 0x1
 13954 4d44 50       		.byte	0x50
 13955 4d45 01       		.uleb128 0x1
 13956 4d46 31       		.byte	0x31
 13957 4d47 39       		.uleb128 0x39
 13958 4d48 01       		.uleb128 0x1
 13959 4d49 51       		.byte	0x51
 13960 4d4a 01       		.uleb128 0x1
 13961 4d4b 31       		.byte	0x31
ARM GAS  /tmp/ccU5UnMV.s 			page 260


 13962 4d4c 00       		.byte	0
 13963 4d4d 00       		.byte	0
 13964 4d4e 38       		.uleb128 0x38
 13965 4d4f 3C0F0000 		.4byte	.LVL293
 13966 4d53 68620000 		.4byte	0x6268
 13967 4d57 39       		.uleb128 0x39
 13968 4d58 01       		.uleb128 0x1
 13969 4d59 51       		.byte	0x51
 13970 4d5a 05       		.uleb128 0x5
 13971 4d5b 03       		.byte	0x3
 13972 4d5c 14050000 		.4byte	.LC64
 13973 4d60 39       		.uleb128 0x39
 13974 4d61 01       		.uleb128 0x1
 13975 4d62 52       		.byte	0x52
 13976 4d63 03       		.uleb128 0x3
 13977 4d64 91       		.byte	0x91
 13978 4d65 9C7D     		.sleb128 -356
 13979 4d67 00       		.byte	0
 13980 4d68 00       		.byte	0
 13981 4d69 46       		.uleb128 0x46
 13982 4d6a 68010000 		.4byte	.Ldebug_ranges0+0x168
 13983 4d6e 864E0000 		.4byte	0x4e86
 13984 4d72 4A       		.uleb128 0x4a
 13985 4d73 451D0000 		.4byte	.LASF466
 13986 4d77 01       		.byte	0x1
 13987 4d78 0302     		.2byte	0x203
 13988 4d7a 25000000 		.4byte	0x25
 13989 4d7e 03       		.uleb128 0x3
 13990 4d7f 91       		.byte	0x91
 13991 4d80 947D     		.sleb128 -364
 13992 4d82 4A       		.uleb128 0x4a
 13993 4d83 AA0F0000 		.4byte	.LASF959
 13994 4d87 01       		.byte	0x1
 13995 4d88 0402     		.2byte	0x204
 13996 4d8a 25000000 		.4byte	0x25
 13997 4d8e 03       		.uleb128 0x3
 13998 4d8f 91       		.byte	0x91
 13999 4d90 987D     		.sleb128 -360
 14000 4d92 4A       		.uleb128 0x4a
 14001 4d93 27020000 		.4byte	.LASF960
 14002 4d97 01       		.byte	0x1
 14003 4d98 0502     		.2byte	0x205
 14004 4d9a 25000000 		.4byte	0x25
 14005 4d9e 03       		.uleb128 0x3
 14006 4d9f 91       		.byte	0x91
 14007 4da0 9C7D     		.sleb128 -356
 14008 4da2 3E       		.uleb128 0x3e
 14009 4da3 18100000 		.4byte	.LBB148
 14010 4da7 5C000000 		.4byte	.LBE148-.LBB148
 14011 4dab 094E0000 		.4byte	0x4e09
 14012 4daf 35       		.uleb128 0x35
 14013 4db0 B6120000 		.4byte	.LASF961
 14014 4db4 01       		.byte	0x1
 14015 4db5 1102     		.2byte	0x211
 14016 4db7 2C000000 		.4byte	0x2c
 14017 4dbb 46060000 		.4byte	.LLST32
 14018 4dbf 36       		.uleb128 0x36
ARM GAS  /tmp/ccU5UnMV.s 			page 261


 14019 4dc0 80010000 		.4byte	.Ldebug_ranges0+0x180
 14020 4dc4 37       		.uleb128 0x37
 14021 4dc5 7400     		.ascii	"t\000"
 14022 4dc7 01       		.byte	0x1
 14023 4dc8 1202     		.2byte	0x212
 14024 4dca 25000000 		.4byte	0x25
 14025 4dce 88060000 		.4byte	.LLST33
 14026 4dd2 40       		.uleb128 0x40
 14027 4dd3 3C100000 		.4byte	.LVL305
 14028 4dd7 23630000 		.4byte	0x6323
 14029 4ddb 40       		.uleb128 0x40
 14030 4ddc 48100000 		.4byte	.LVL306
 14031 4de0 7B630000 		.4byte	0x637b
 14032 4de4 3F       		.uleb128 0x3f
 14033 4de5 4E100000 		.4byte	.LVL307
 14034 4de9 E1620000 		.4byte	0x62e1
 14035 4ded F74D0000 		.4byte	0x4df7
 14036 4df1 39       		.uleb128 0x39
 14037 4df2 01       		.uleb128 0x1
 14038 4df3 50       		.byte	0x50
 14039 4df4 01       		.uleb128 0x1
 14040 4df5 44       		.byte	0x44
 14041 4df6 00       		.byte	0
 14042 4df7 38       		.uleb128 0x38
 14043 4df8 6E100000 		.4byte	.LVL310
 14044 4dfc 26620000 		.4byte	0x6226
 14045 4e00 39       		.uleb128 0x39
 14046 4e01 01       		.uleb128 0x1
 14047 4e02 50       		.byte	0x50
 14048 4e03 02       		.uleb128 0x2
 14049 4e04 78       		.byte	0x78
 14050 4e05 00       		.sleb128 0
 14051 4e06 00       		.byte	0
 14052 4e07 00       		.byte	0
 14053 4e08 00       		.byte	0
 14054 4e09 3F       		.uleb128 0x3f
 14055 4e0a B00F0000 		.4byte	.LVL300
 14056 4e0e 68620000 		.4byte	0x6268
 14057 4e12 264E0000 		.4byte	0x4e26
 14058 4e16 39       		.uleb128 0x39
 14059 4e17 01       		.uleb128 0x1
 14060 4e18 51       		.byte	0x51
 14061 4e19 05       		.uleb128 0x5
 14062 4e1a 03       		.byte	0x3
 14063 4e1b 14050000 		.4byte	.LC64
 14064 4e1f 39       		.uleb128 0x39
 14065 4e20 01       		.uleb128 0x1
 14066 4e21 52       		.byte	0x52
 14067 4e22 02       		.uleb128 0x2
 14068 4e23 76       		.byte	0x76
 14069 4e24 00       		.sleb128 0
 14070 4e25 00       		.byte	0
 14071 4e26 3F       		.uleb128 0x3f
 14072 4e27 BA0F0000 		.4byte	.LVL301
 14073 4e2b 68620000 		.4byte	0x6268
 14074 4e2f 434E0000 		.4byte	0x4e43
 14075 4e33 39       		.uleb128 0x39
ARM GAS  /tmp/ccU5UnMV.s 			page 262


 14076 4e34 01       		.uleb128 0x1
 14077 4e35 51       		.byte	0x51
 14078 4e36 05       		.uleb128 0x5
 14079 4e37 03       		.byte	0x3
 14080 4e38 14050000 		.4byte	.LC64
 14081 4e3c 39       		.uleb128 0x39
 14082 4e3d 01       		.uleb128 0x1
 14083 4e3e 52       		.byte	0x52
 14084 4e3f 02       		.uleb128 0x2
 14085 4e40 74       		.byte	0x74
 14086 4e41 00       		.sleb128 0
 14087 4e42 00       		.byte	0
 14088 4e43 3F       		.uleb128 0x3f
 14089 4e44 C40F0000 		.4byte	.LVL302
 14090 4e48 68620000 		.4byte	0x6268
 14091 4e4c 604E0000 		.4byte	0x4e60
 14092 4e50 39       		.uleb128 0x39
 14093 4e51 01       		.uleb128 0x1
 14094 4e52 51       		.byte	0x51
 14095 4e53 05       		.uleb128 0x5
 14096 4e54 03       		.byte	0x3
 14097 4e55 14050000 		.4byte	.LC64
 14098 4e59 39       		.uleb128 0x39
 14099 4e5a 01       		.uleb128 0x1
 14100 4e5b 52       		.byte	0x52
 14101 4e5c 02       		.uleb128 0x2
 14102 4e5d 75       		.byte	0x75
 14103 4e5e 00       		.sleb128 0
 14104 4e5f 00       		.byte	0
 14105 4e60 40       		.uleb128 0x40
 14106 4e61 82100000 		.4byte	.LVL314
 14107 4e65 23630000 		.4byte	0x6323
 14108 4e69 40       		.uleb128 0x40
 14109 4e6a 8E100000 		.4byte	.LVL315
 14110 4e6e 7B630000 		.4byte	0x637b
 14111 4e72 38       		.uleb128 0x38
 14112 4e73 94100000 		.4byte	.LVL316
 14113 4e77 26620000 		.4byte	0x6226
 14114 4e7b 39       		.uleb128 0x39
 14115 4e7c 01       		.uleb128 0x1
 14116 4e7d 50       		.byte	0x50
 14117 4e7e 05       		.uleb128 0x5
 14118 4e7f 03       		.byte	0x3
 14119 4e80 140B0000 		.4byte	.LC123
 14120 4e84 00       		.byte	0
 14121 4e85 00       		.byte	0
 14122 4e86 3E       		.uleb128 0x3e
 14123 4e87 AC100000 		.4byte	.LBB155
 14124 4e8b 30000000 		.4byte	.LBE155-.LBB155
 14125 4e8f 054F0000 		.4byte	0x4f05
 14126 4e93 4A       		.uleb128 0x4a
 14127 4e94 CE1E0000 		.4byte	.LASF962
 14128 4e98 01       		.byte	0x1
 14129 4e99 2802     		.2byte	0x228
 14130 4e9b 25000000 		.4byte	0x25
 14131 4e9f 03       		.uleb128 0x3
 14132 4ea0 91       		.byte	0x91
ARM GAS  /tmp/ccU5UnMV.s 			page 263


 14133 4ea1 9C7D     		.sleb128 -356
 14134 4ea3 3E       		.uleb128 0x3e
 14135 4ea4 CA100000 		.4byte	.LBB156
 14136 4ea8 12000000 		.4byte	.LBE156-.LBB156
 14137 4eac EA4E0000 		.4byte	0x4eea
 14138 4eb0 4B       		.uleb128 0x4b
 14139 4eb1 72657300 		.ascii	"res\000"
 14140 4eb5 01       		.byte	0x1
 14141 4eb6 2D02     		.2byte	0x22d
 14142 4eb8 2C000000 		.4byte	0x2c
 14143 4ebc 01       		.uleb128 0x1
 14144 4ebd 55       		.byte	0x55
 14145 4ebe 3F       		.uleb128 0x3f
 14146 4ebf D0100000 		.4byte	.LVL320
 14147 4ec3 26620000 		.4byte	0x6226
 14148 4ec7 D54E0000 		.4byte	0x4ed5
 14149 4ecb 39       		.uleb128 0x39
 14150 4ecc 01       		.uleb128 0x1
 14151 4ecd 50       		.byte	0x50
 14152 4ece 05       		.uleb128 0x5
 14153 4ecf 03       		.byte	0x3
 14154 4ed0 480B0000 		.4byte	.LC127
 14155 4ed4 00       		.byte	0
 14156 4ed5 38       		.uleb128 0x38
 14157 4ed6 DC100000 		.4byte	.LVL321
 14158 4eda 86630000 		.4byte	0x6386
 14159 4ede 39       		.uleb128 0x39
 14160 4edf 01       		.uleb128 0x1
 14161 4ee0 50       		.byte	0x50
 14162 4ee1 01       		.uleb128 0x1
 14163 4ee2 31       		.byte	0x31
 14164 4ee3 39       		.uleb128 0x39
 14165 4ee4 01       		.uleb128 0x1
 14166 4ee5 51       		.byte	0x51
 14167 4ee6 01       		.uleb128 0x1
 14168 4ee7 31       		.byte	0x31
 14169 4ee8 00       		.byte	0
 14170 4ee9 00       		.byte	0
 14171 4eea 38       		.uleb128 0x38
 14172 4eeb BA100000 		.4byte	.LVL319
 14173 4eef 68620000 		.4byte	0x6268
 14174 4ef3 39       		.uleb128 0x39
 14175 4ef4 01       		.uleb128 0x1
 14176 4ef5 51       		.byte	0x51
 14177 4ef6 05       		.uleb128 0x5
 14178 4ef7 03       		.byte	0x3
 14179 4ef8 14050000 		.4byte	.LC64
 14180 4efc 39       		.uleb128 0x39
 14181 4efd 01       		.uleb128 0x1
 14182 4efe 52       		.byte	0x52
 14183 4eff 03       		.uleb128 0x3
 14184 4f00 91       		.byte	0x91
 14185 4f01 9C7D     		.sleb128 -356
 14186 4f03 00       		.byte	0
 14187 4f04 00       		.byte	0
 14188 4f05 46       		.uleb128 0x46
 14189 4f06 98010000 		.4byte	.Ldebug_ranges0+0x198
ARM GAS  /tmp/ccU5UnMV.s 			page 264


 14190 4f0a 8B4F0000 		.4byte	0x4f8b
 14191 4f0e 35       		.uleb128 0x35
 14192 4f0f 171A0000 		.4byte	.LASF963
 14193 4f13 01       		.byte	0x1
 14194 4f14 5602     		.2byte	0x256
 14195 4f16 66180000 		.4byte	0x1866
 14196 4f1a 9C060000 		.4byte	.LLST34
 14197 4f1e 46       		.uleb128 0x46
 14198 4f1f B0010000 		.4byte	.Ldebug_ranges0+0x1b0
 14199 4f23 604F0000 		.4byte	0x4f60
 14200 4f27 37       		.uleb128 0x37
 14201 4f28 6900     		.ascii	"i\000"
 14202 4f2a 01       		.byte	0x1
 14203 4f2b 5702     		.2byte	0x257
 14204 4f2d 2C000000 		.4byte	0x2c
 14205 4f31 B0060000 		.4byte	.LLST35
 14206 4f35 3F       		.uleb128 0x3f
 14207 4f36 6A120000 		.4byte	.LVL348
 14208 4f3a 91630000 		.4byte	0x6391
 14209 4f3e 494F0000 		.4byte	0x4f49
 14210 4f42 39       		.uleb128 0x39
 14211 4f43 01       		.uleb128 0x1
 14212 4f44 50       		.byte	0x50
 14213 4f45 02       		.uleb128 0x2
 14214 4f46 76       		.byte	0x76
 14215 4f47 00       		.sleb128 0
 14216 4f48 00       		.byte	0
 14217 4f49 38       		.uleb128 0x38
 14218 4f4a 76120000 		.4byte	.LVL349
 14219 4f4e 26620000 		.4byte	0x6226
 14220 4f52 39       		.uleb128 0x39
 14221 4f53 01       		.uleb128 0x1
 14222 4f54 50       		.byte	0x50
 14223 4f55 02       		.uleb128 0x2
 14224 4f56 77       		.byte	0x77
 14225 4f57 00       		.sleb128 0
 14226 4f58 39       		.uleb128 0x39
 14227 4f59 01       		.uleb128 0x1
 14228 4f5a 51       		.byte	0x51
 14229 4f5b 02       		.uleb128 0x2
 14230 4f5c 76       		.byte	0x76
 14231 4f5d 00       		.sleb128 0
 14232 4f5e 00       		.byte	0
 14233 4f5f 00       		.byte	0
 14234 4f60 3F       		.uleb128 0x3f
 14235 4f61 7A100000 		.4byte	.LVL313
 14236 4f65 26620000 		.4byte	0x6226
 14237 4f69 774F0000 		.4byte	0x4f77
 14238 4f6d 39       		.uleb128 0x39
 14239 4f6e 01       		.uleb128 0x1
 14240 4f6f 50       		.byte	0x50
 14241 4f70 05       		.uleb128 0x5
 14242 4f71 03       		.byte	0x3
 14243 4f72 280B0000 		.4byte	.LC125
 14244 4f76 00       		.byte	0
 14245 4f77 38       		.uleb128 0x38
 14246 4f78 8A120000 		.4byte	.LVL352
ARM GAS  /tmp/ccU5UnMV.s 			page 265


 14247 4f7c 26620000 		.4byte	0x6226
 14248 4f80 39       		.uleb128 0x39
 14249 4f81 01       		.uleb128 0x1
 14250 4f82 50       		.byte	0x50
 14251 4f83 05       		.uleb128 0x5
 14252 4f84 03       		.byte	0x3
 14253 4f85 D40C0000 		.4byte	.LC141
 14254 4f89 00       		.byte	0
 14255 4f8a 00       		.byte	0
 14256 4f8b 46       		.uleb128 0x46
 14257 4f8c 38000000 		.4byte	.Ldebug_ranges0+0x38
 14258 4f90 C9510000 		.4byte	0x51c9
 14259 4f94 4A       		.uleb128 0x4a
 14260 4f95 CE1E0000 		.4byte	.LASF962
 14261 4f99 01       		.byte	0x1
 14262 4f9a 6502     		.2byte	0x265
 14263 4f9c 25000000 		.4byte	0x25
 14264 4fa0 03       		.uleb128 0x3
 14265 4fa1 91       		.byte	0x91
 14266 4fa2 9C7D     		.sleb128 -356
 14267 4fa4 46       		.uleb128 0x46
 14268 4fa5 60000000 		.4byte	.Ldebug_ranges0+0x60
 14269 4fa9 97510000 		.4byte	0x5197
 14270 4fad 37       		.uleb128 0x37
 14271 4fae 72657300 		.ascii	"res\000"
 14272 4fb2 01       		.byte	0x1
 14273 4fb3 6A02     		.2byte	0x26a
 14274 4fb5 2C000000 		.4byte	0x2c
 14275 4fb9 C3060000 		.4byte	.LLST15
 14276 4fbd 3F       		.uleb128 0x3f
 14277 4fbe 800F0000 		.4byte	.LVL296
 14278 4fc2 26620000 		.4byte	0x6226
 14279 4fc6 D44F0000 		.4byte	0x4fd4
 14280 4fca 39       		.uleb128 0x39
 14281 4fcb 01       		.uleb128 0x1
 14282 4fcc 50       		.byte	0x50
 14283 4fcd 05       		.uleb128 0x5
 14284 4fce 03       		.byte	0x3
 14285 4fcf E80A0000 		.4byte	.LC121
 14286 4fd3 00       		.byte	0
 14287 4fd4 3F       		.uleb128 0x3f
 14288 4fd5 E6100000 		.4byte	.LVL324
 14289 4fd9 26620000 		.4byte	0x6226
 14290 4fdd F14F0000 		.4byte	0x4ff1
 14291 4fe1 39       		.uleb128 0x39
 14292 4fe2 01       		.uleb128 0x1
 14293 4fe3 50       		.byte	0x50
 14294 4fe4 05       		.uleb128 0x5
 14295 4fe5 03       		.byte	0x3
 14296 4fe6 600B0000 		.4byte	.LC128
 14297 4fea 39       		.uleb128 0x39
 14298 4feb 01       		.uleb128 0x1
 14299 4fec 51       		.byte	0x51
 14300 4fed 02       		.uleb128 0x2
 14301 4fee 75       		.byte	0x75
 14302 4fef 00       		.sleb128 0
 14303 4ff0 00       		.byte	0
ARM GAS  /tmp/ccU5UnMV.s 			page 266


 14304 4ff1 3F       		.uleb128 0x3f
 14305 4ff2 FA100000 		.4byte	.LVL326
 14306 4ff6 26620000 		.4byte	0x6226
 14307 4ffa 08500000 		.4byte	0x5008
 14308 4ffe 39       		.uleb128 0x39
 14309 4fff 01       		.uleb128 0x1
 14310 5000 50       		.byte	0x50
 14311 5001 05       		.uleb128 0x5
 14312 5002 03       		.byte	0x3
 14313 5003 740C0000 		.4byte	.LC137
 14314 5007 00       		.byte	0
 14315 5008 3F       		.uleb128 0x3f
 14316 5009 00110000 		.4byte	.LVL327
 14317 500d 26620000 		.4byte	0x6226
 14318 5011 1F500000 		.4byte	0x501f
 14319 5015 39       		.uleb128 0x39
 14320 5016 01       		.uleb128 0x1
 14321 5017 50       		.byte	0x50
 14322 5018 05       		.uleb128 0x5
 14323 5019 03       		.byte	0x3
 14324 501a 9C0C0000 		.4byte	.LC138
 14325 501e 00       		.byte	0
 14326 501f 3F       		.uleb128 0x3f
 14327 5020 0A110000 		.4byte	.LVL329
 14328 5024 26620000 		.4byte	0x6226
 14329 5028 36500000 		.4byte	0x5036
 14330 502c 39       		.uleb128 0x39
 14331 502d 01       		.uleb128 0x1
 14332 502e 50       		.byte	0x50
 14333 502f 05       		.uleb128 0x5
 14334 5030 03       		.byte	0x3
 14335 5031 540C0000 		.4byte	.LC136
 14336 5035 00       		.byte	0
 14337 5036 3F       		.uleb128 0x3f
 14338 5037 A4110000 		.4byte	.LVL331
 14339 503b 26620000 		.4byte	0x6226
 14340 503f 4D500000 		.4byte	0x504d
 14341 5043 39       		.uleb128 0x39
 14342 5044 01       		.uleb128 0x1
 14343 5045 50       		.byte	0x50
 14344 5046 05       		.uleb128 0x5
 14345 5047 03       		.byte	0x3
 14346 5048 680B0000 		.4byte	.LC129
 14347 504c 00       		.byte	0
 14348 504d 40       		.uleb128 0x40
 14349 504e A8110000 		.4byte	.LVL332
 14350 5052 9C630000 		.4byte	0x639c
 14351 5056 3F       		.uleb128 0x3f
 14352 5057 B4110000 		.4byte	.LVL333
 14353 505b A7630000 		.4byte	0x63a7
 14354 505f 71500000 		.4byte	0x5071
 14355 5063 39       		.uleb128 0x39
 14356 5064 01       		.uleb128 0x1
 14357 5065 50       		.byte	0x50
 14358 5066 02       		.uleb128 0x2
 14359 5067 74       		.byte	0x74
 14360 5068 00       		.sleb128 0
ARM GAS  /tmp/ccU5UnMV.s 			page 267


 14361 5069 39       		.uleb128 0x39
 14362 506a 01       		.uleb128 0x1
 14363 506b 52       		.byte	0x52
 14364 506c 03       		.uleb128 0x3
 14365 506d 0A       		.byte	0xa
 14366 506e C801     		.2byte	0x1c8
 14367 5070 00       		.byte	0
 14368 5071 3F       		.uleb128 0x3f
 14369 5072 C4110000 		.4byte	.LVL335
 14370 5076 26620000 		.4byte	0x6226
 14371 507a 88500000 		.4byte	0x5088
 14372 507e 39       		.uleb128 0x39
 14373 507f 01       		.uleb128 0x1
 14374 5080 50       		.byte	0x50
 14375 5081 05       		.uleb128 0x5
 14376 5082 03       		.byte	0x3
 14377 5083 940B0000 		.4byte	.LC130
 14378 5087 00       		.byte	0
 14379 5088 3F       		.uleb128 0x3f
 14380 5089 DE110000 		.4byte	.LVL337
 14381 508d 26620000 		.4byte	0x6226
 14382 5091 9F500000 		.4byte	0x509f
 14383 5095 39       		.uleb128 0x39
 14384 5096 01       		.uleb128 0x1
 14385 5097 50       		.byte	0x50
 14386 5098 05       		.uleb128 0x5
 14387 5099 03       		.byte	0x3
 14388 509a B40B0000 		.4byte	.LC131
 14389 509e 00       		.byte	0
 14390 509f 3F       		.uleb128 0x3f
 14391 50a0 FC110000 		.4byte	.LVL339
 14392 50a4 26620000 		.4byte	0x6226
 14393 50a8 B6500000 		.4byte	0x50b6
 14394 50ac 39       		.uleb128 0x39
 14395 50ad 01       		.uleb128 0x1
 14396 50ae 50       		.byte	0x50
 14397 50af 05       		.uleb128 0x5
 14398 50b0 03       		.byte	0x3
 14399 50b1 D40B0000 		.4byte	.LC132
 14400 50b5 00       		.byte	0
 14401 50b6 3F       		.uleb128 0x3f
 14402 50b7 16120000 		.4byte	.LVL341
 14403 50bb 26620000 		.4byte	0x6226
 14404 50bf CD500000 		.4byte	0x50cd
 14405 50c3 39       		.uleb128 0x39
 14406 50c4 01       		.uleb128 0x1
 14407 50c5 50       		.byte	0x50
 14408 50c6 05       		.uleb128 0x5
 14409 50c7 03       		.byte	0x3
 14410 50c8 F80B0000 		.4byte	.LC133
 14411 50cc 00       		.byte	0
 14412 50cd 3F       		.uleb128 0x3f
 14413 50ce 2C120000 		.4byte	.LVL342
 14414 50d2 26620000 		.4byte	0x6226
 14415 50d6 E4500000 		.4byte	0x50e4
 14416 50da 39       		.uleb128 0x39
 14417 50db 01       		.uleb128 0x1
ARM GAS  /tmp/ccU5UnMV.s 			page 268


 14418 50dc 50       		.byte	0x50
 14419 50dd 05       		.uleb128 0x5
 14420 50de 03       		.byte	0x3
 14421 50df 180C0000 		.4byte	.LC134
 14422 50e3 00       		.byte	0
 14423 50e4 3F       		.uleb128 0x3f
 14424 50e5 44120000 		.4byte	.LVL344
 14425 50e9 26620000 		.4byte	0x6226
 14426 50ed FB500000 		.4byte	0x50fb
 14427 50f1 39       		.uleb128 0x39
 14428 50f2 01       		.uleb128 0x1
 14429 50f3 50       		.byte	0x50
 14430 50f4 05       		.uleb128 0x5
 14431 50f5 03       		.byte	0x3
 14432 50f6 340C0000 		.4byte	.LC135
 14433 50fa 00       		.byte	0
 14434 50fb 3F       		.uleb128 0x3f
 14435 50fc C2120000 		.4byte	.LVL356
 14436 5100 26620000 		.4byte	0x6226
 14437 5104 12510000 		.4byte	0x5112
 14438 5108 39       		.uleb128 0x39
 14439 5109 01       		.uleb128 0x1
 14440 510a 50       		.byte	0x50
 14441 510b 05       		.uleb128 0x5
 14442 510c 03       		.byte	0x3
 14443 510d 480B0000 		.4byte	.LC127
 14444 5111 00       		.byte	0
 14445 5112 3F       		.uleb128 0x3f
 14446 5113 DC120000 		.4byte	.LVL357
 14447 5117 B6630000 		.4byte	0x63b6
 14448 511b 55510000 		.4byte	0x5155
 14449 511f 39       		.uleb128 0x39
 14450 5120 01       		.uleb128 0x1
 14451 5121 50       		.byte	0x50
 14452 5122 01       		.uleb128 0x1
 14453 5123 31       		.byte	0x31
 14454 5124 39       		.uleb128 0x39
 14455 5125 02       		.uleb128 0x2
 14456 5126 90       		.byte	0x90
 14457 5127 41       		.uleb128 0x41
 14458 5128 07       		.uleb128 0x7
 14459 5129 F4       		.byte	0xf4
 14460 512a 25       		.uleb128 0x25
 14461 512b 04       		.byte	0x4
 14462 512c 00000000 		.4byte	0
 14463 5130 39       		.uleb128 0x39
 14464 5131 02       		.uleb128 0x2
 14465 5132 90       		.byte	0x90
 14466 5133 42       		.uleb128 0x42
 14467 5134 07       		.uleb128 0x7
 14468 5135 F4       		.byte	0xf4
 14469 5136 25       		.uleb128 0x25
 14470 5137 04       		.byte	0x4
 14471 5138 00000000 		.4byte	0
 14472 513c 39       		.uleb128 0x39
 14473 513d 02       		.uleb128 0x2
 14474 513e 90       		.byte	0x90
ARM GAS  /tmp/ccU5UnMV.s 			page 269


 14475 513f 43       		.uleb128 0x43
 14476 5140 07       		.uleb128 0x7
 14477 5141 F4       		.byte	0xf4
 14478 5142 25       		.uleb128 0x25
 14479 5143 04       		.byte	0x4
 14480 5144 00000000 		.4byte	0
 14481 5148 39       		.uleb128 0x39
 14482 5149 02       		.uleb128 0x2
 14483 514a 90       		.byte	0x90
 14484 514b 44       		.uleb128 0x44
 14485 514c 07       		.uleb128 0x7
 14486 514d F4       		.byte	0xf4
 14487 514e 25       		.uleb128 0x25
 14488 514f 04       		.byte	0x4
 14489 5150 00000000 		.4byte	0
 14490 5154 00       		.byte	0
 14491 5155 3F       		.uleb128 0x3f
 14492 5156 E4120000 		.4byte	.LVL359
 14493 515a 26620000 		.4byte	0x6226
 14494 515e 6C510000 		.4byte	0x516c
 14495 5162 39       		.uleb128 0x39
 14496 5163 01       		.uleb128 0x1
 14497 5164 50       		.byte	0x50
 14498 5165 05       		.uleb128 0x5
 14499 5166 03       		.byte	0x3
 14500 5167 A00A0000 		.4byte	.LC119
 14501 516b 00       		.byte	0
 14502 516c 3F       		.uleb128 0x3f
 14503 516d EE120000 		.4byte	.LVL360
 14504 5171 26620000 		.4byte	0x6226
 14505 5175 83510000 		.4byte	0x5183
 14506 5179 39       		.uleb128 0x39
 14507 517a 01       		.uleb128 0x1
 14508 517b 50       		.byte	0x50
 14509 517c 05       		.uleb128 0x5
 14510 517d 03       		.byte	0x3
 14511 517e C40A0000 		.4byte	.LC120
 14512 5182 00       		.byte	0
 14513 5183 38       		.uleb128 0x38
 14514 5184 F8120000 		.4byte	.LVL361
 14515 5188 26620000 		.4byte	0x6226
 14516 518c 39       		.uleb128 0x39
 14517 518d 01       		.uleb128 0x1
 14518 518e 50       		.byte	0x50
 14519 518f 05       		.uleb128 0x5
 14520 5190 03       		.byte	0x3
 14521 5191 740A0000 		.4byte	.LC118
 14522 5195 00       		.byte	0
 14523 5196 00       		.byte	0
 14524 5197 3F       		.uleb128 0x3f
 14525 5198 B4050000 		.4byte	.LVL130
 14526 519c 26620000 		.4byte	0x6226
 14527 51a0 AE510000 		.4byte	0x51ae
 14528 51a4 39       		.uleb128 0x39
 14529 51a5 01       		.uleb128 0x1
 14530 51a6 50       		.byte	0x50
 14531 51a7 05       		.uleb128 0x5
ARM GAS  /tmp/ccU5UnMV.s 			page 270


 14532 51a8 03       		.byte	0x3
 14533 51a9 44060000 		.4byte	.LC73
 14534 51ad 00       		.byte	0
 14535 51ae 38       		.uleb128 0x38
 14536 51af AC120000 		.4byte	.LVL355
 14537 51b3 68620000 		.4byte	0x6268
 14538 51b7 39       		.uleb128 0x39
 14539 51b8 01       		.uleb128 0x1
 14540 51b9 51       		.byte	0x51
 14541 51ba 05       		.uleb128 0x5
 14542 51bb 03       		.byte	0x3
 14543 51bc 14050000 		.4byte	.LC64
 14544 51c0 39       		.uleb128 0x39
 14545 51c1 01       		.uleb128 0x1
 14546 51c2 52       		.byte	0x52
 14547 51c3 03       		.uleb128 0x3
 14548 51c4 91       		.byte	0x91
 14549 51c5 9C7D     		.sleb128 -356
 14550 51c7 00       		.byte	0
 14551 51c8 00       		.byte	0
 14552 51c9 46       		.uleb128 0x46
 14553 51ca F8010000 		.4byte	.Ldebug_ranges0+0x1f8
 14554 51ce 26520000 		.4byte	0x5226
 14555 51d2 37       		.uleb128 0x37
 14556 51d3 6900     		.ascii	"i\000"
 14557 51d5 01       		.byte	0x1
 14558 51d6 1703     		.2byte	0x317
 14559 51d8 2C000000 		.4byte	0x2c
 14560 51dc 04070000 		.4byte	.LLST38
 14561 51e0 3F       		.uleb128 0x3f
 14562 51e1 4A160000 		.4byte	.LVL465
 14563 51e5 26620000 		.4byte	0x6226
 14564 51e9 F4510000 		.4byte	0x51f4
 14565 51ed 39       		.uleb128 0x39
 14566 51ee 01       		.uleb128 0x1
 14567 51ef 50       		.byte	0x50
 14568 51f0 02       		.uleb128 0x2
 14569 51f1 78       		.byte	0x78
 14570 51f2 00       		.sleb128 0
 14571 51f3 00       		.byte	0
 14572 51f4 3F       		.uleb128 0x3f
 14573 51f5 56160000 		.4byte	.LVL466
 14574 51f9 26620000 		.4byte	0x6226
 14575 51fd 08520000 		.4byte	0x5208
 14576 5201 39       		.uleb128 0x39
 14577 5202 01       		.uleb128 0x1
 14578 5203 50       		.byte	0x50
 14579 5204 02       		.uleb128 0x2
 14580 5205 75       		.byte	0x75
 14581 5206 00       		.sleb128 0
 14582 5207 00       		.byte	0
 14583 5208 3F       		.uleb128 0x3f
 14584 5209 7C160000 		.4byte	.LVL473
 14585 520d 26620000 		.4byte	0x6226
 14586 5211 1C520000 		.4byte	0x521c
 14587 5215 39       		.uleb128 0x39
 14588 5216 01       		.uleb128 0x1
ARM GAS  /tmp/ccU5UnMV.s 			page 271


 14589 5217 50       		.byte	0x50
 14590 5218 02       		.uleb128 0x2
 14591 5219 77       		.byte	0x77
 14592 521a 00       		.sleb128 0
 14593 521b 00       		.byte	0
 14594 521c 40       		.uleb128 0x40
 14595 521d 84160000 		.4byte	.LVL474
 14596 5221 26620000 		.4byte	0x6226
 14597 5225 00       		.byte	0
 14598 5226 46       		.uleb128 0x46
 14599 5227 C8010000 		.4byte	.Ldebug_ranges0+0x1c8
 14600 522b 98520000 		.4byte	0x5298
 14601 522f 35       		.uleb128 0x35
 14602 5230 171A0000 		.4byte	.LASF963
 14603 5234 01       		.byte	0x1
 14604 5235 2703     		.2byte	0x327
 14605 5237 66180000 		.4byte	0x1866
 14606 523b 22070000 		.4byte	.LLST36
 14607 523f 46       		.uleb128 0x46
 14608 5240 E0010000 		.4byte	.Ldebug_ranges0+0x1e0
 14609 5244 7E520000 		.4byte	0x527e
 14610 5248 37       		.uleb128 0x37
 14611 5249 6900     		.ascii	"i\000"
 14612 524b 01       		.byte	0x1
 14613 524c 2803     		.2byte	0x328
 14614 524e 2C000000 		.4byte	0x2c
 14615 5252 42070000 		.4byte	.LLST37
 14616 5256 3F       		.uleb128 0x3f
 14617 5257 C8130000 		.4byte	.LVL384
 14618 525b 05620000 		.4byte	0x6205
 14619 525f 6A520000 		.4byte	0x526a
 14620 5263 39       		.uleb128 0x39
 14621 5264 01       		.uleb128 0x1
 14622 5265 50       		.byte	0x50
 14623 5266 02       		.uleb128 0x2
 14624 5267 75       		.byte	0x75
 14625 5268 00       		.sleb128 0
 14626 5269 00       		.byte	0
 14627 526a 4D       		.uleb128 0x4d
 14628 526b 66160000 		.4byte	.LVL469
 14629 526f 39       		.uleb128 0x39
 14630 5270 01       		.uleb128 0x1
 14631 5271 50       		.byte	0x50
 14632 5272 02       		.uleb128 0x2
 14633 5273 74       		.byte	0x74
 14634 5274 00       		.sleb128 0
 14635 5275 39       		.uleb128 0x39
 14636 5276 01       		.uleb128 0x1
 14637 5277 51       		.byte	0x51
 14638 5278 03       		.uleb128 0x3
 14639 5279 91       		.byte	0x91
 14640 527a B87D     		.sleb128 -328
 14641 527c 00       		.byte	0
 14642 527d 00       		.byte	0
 14643 527e 38       		.uleb128 0x38
 14644 527f 72160000 		.4byte	.LVL471
 14645 5283 26620000 		.4byte	0x6226
ARM GAS  /tmp/ccU5UnMV.s 			page 272


 14646 5287 39       		.uleb128 0x39
 14647 5288 01       		.uleb128 0x1
 14648 5289 50       		.byte	0x50
 14649 528a 05       		.uleb128 0x5
 14650 528b 03       		.byte	0x3
 14651 528c A4180000 		.4byte	.LC207
 14652 5290 39       		.uleb128 0x39
 14653 5291 01       		.uleb128 0x1
 14654 5292 51       		.byte	0x51
 14655 5293 02       		.uleb128 0x2
 14656 5294 75       		.byte	0x75
 14657 5295 00       		.sleb128 0
 14658 5296 00       		.byte	0
 14659 5297 00       		.byte	0
 14660 5298 3F       		.uleb128 0x3f
 14661 5299 10000000 		.4byte	.LVL1
 14662 529d C1630000 		.4byte	0x63c1
 14663 52a1 B6520000 		.4byte	0x52b6
 14664 52a5 39       		.uleb128 0x39
 14665 52a6 01       		.uleb128 0x1
 14666 52a7 50       		.byte	0x50
 14667 52a8 03       		.uleb128 0x3
 14668 52a9 F3       		.byte	0xf3
 14669 52aa 01       		.uleb128 0x1
 14670 52ab 50       		.byte	0x50
 14671 52ac 39       		.uleb128 0x39
 14672 52ad 01       		.uleb128 0x1
 14673 52ae 51       		.byte	0x51
 14674 52af 05       		.uleb128 0x5
 14675 52b0 03       		.byte	0x3
 14676 52b1 18000000 		.4byte	.LC4
 14677 52b5 00       		.byte	0
 14678 52b6 3F       		.uleb128 0x3f
 14679 52b7 2E000000 		.4byte	.LVL5
 14680 52bb C1630000 		.4byte	0x63c1
 14681 52bf CF520000 		.4byte	0x52cf
 14682 52c3 39       		.uleb128 0x39
 14683 52c4 01       		.uleb128 0x1
 14684 52c5 50       		.byte	0x50
 14685 52c6 01       		.uleb128 0x1
 14686 52c7 30       		.byte	0x30
 14687 52c8 39       		.uleb128 0x39
 14688 52c9 01       		.uleb128 0x1
 14689 52ca 51       		.byte	0x51
 14690 52cb 02       		.uleb128 0x2
 14691 52cc 76       		.byte	0x76
 14692 52cd 00       		.sleb128 0
 14693 52ce 00       		.byte	0
 14694 52cf 40       		.uleb128 0x40
 14695 52d0 3A000000 		.4byte	.LVL7
 14696 52d4 9C630000 		.4byte	0x639c
 14697 52d8 3F       		.uleb128 0x3f
 14698 52d9 46000000 		.4byte	.LVL8
 14699 52dd A7630000 		.4byte	0x63a7
 14700 52e1 F6520000 		.4byte	0x52f6
 14701 52e5 39       		.uleb128 0x39
 14702 52e6 01       		.uleb128 0x1
ARM GAS  /tmp/ccU5UnMV.s 			page 273


 14703 52e7 50       		.byte	0x50
 14704 52e8 05       		.uleb128 0x5
 14705 52e9 03       		.byte	0x3
 14706 52ea 00000000 		.4byte	.LANCHOR0
 14707 52ee 39       		.uleb128 0x39
 14708 52ef 01       		.uleb128 0x1
 14709 52f0 52       		.byte	0x52
 14710 52f1 03       		.uleb128 0x3
 14711 52f2 0A       		.byte	0xa
 14712 52f3 C801     		.2byte	0x1c8
 14713 52f5 00       		.byte	0
 14714 52f6 3F       		.uleb128 0x3f
 14715 52f7 52000000 		.4byte	.LVL9
 14716 52fb A7630000 		.4byte	0x63a7
 14717 52ff 1D530000 		.4byte	0x531d
 14718 5303 39       		.uleb128 0x39
 14719 5304 01       		.uleb128 0x1
 14720 5305 50       		.byte	0x50
 14721 5306 05       		.uleb128 0x5
 14722 5307 03       		.byte	0x3
 14723 5308 00000000 		.4byte	.LANCHOR1
 14724 530c 39       		.uleb128 0x39
 14725 530d 01       		.uleb128 0x1
 14726 530e 51       		.byte	0x51
 14727 530f 05       		.uleb128 0x5
 14728 5310 03       		.byte	0x3
 14729 5311 00000000 		.4byte	.LANCHOR0
 14730 5315 39       		.uleb128 0x39
 14731 5316 01       		.uleb128 0x1
 14732 5317 52       		.byte	0x52
 14733 5318 03       		.uleb128 0x3
 14734 5319 0A       		.byte	0xa
 14735 531a C801     		.2byte	0x1c8
 14736 531c 00       		.byte	0
 14737 531d 3F       		.uleb128 0x3f
 14738 531e 5C000000 		.4byte	.LVL10
 14739 5322 05620000 		.4byte	0x6205
 14740 5326 3A530000 		.4byte	0x533a
 14741 532a 39       		.uleb128 0x39
 14742 532b 01       		.uleb128 0x1
 14743 532c 50       		.byte	0x50
 14744 532d 02       		.uleb128 0x2
 14745 532e 75       		.byte	0x75
 14746 532f 00       		.sleb128 0
 14747 5330 39       		.uleb128 0x39
 14748 5331 01       		.uleb128 0x1
 14749 5332 51       		.byte	0x51
 14750 5333 05       		.uleb128 0x5
 14751 5334 03       		.byte	0x3
 14752 5335 34000000 		.4byte	.LC6
 14753 5339 00       		.byte	0
 14754 533a 3F       		.uleb128 0x3f
 14755 533b 68000000 		.4byte	.LVL11
 14756 533f 05620000 		.4byte	0x6205
 14757 5343 57530000 		.4byte	0x5357
 14758 5347 39       		.uleb128 0x39
 14759 5348 01       		.uleb128 0x1
ARM GAS  /tmp/ccU5UnMV.s 			page 274


 14760 5349 50       		.byte	0x50
 14761 534a 02       		.uleb128 0x2
 14762 534b 75       		.byte	0x75
 14763 534c 00       		.sleb128 0
 14764 534d 39       		.uleb128 0x39
 14765 534e 01       		.uleb128 0x1
 14766 534f 51       		.byte	0x51
 14767 5350 05       		.uleb128 0x5
 14768 5351 03       		.byte	0x3
 14769 5352 44000000 		.4byte	.LC8
 14770 5356 00       		.byte	0
 14771 5357 3F       		.uleb128 0x3f
 14772 5358 74000000 		.4byte	.LVL12
 14773 535c 05620000 		.4byte	0x6205
 14774 5360 74530000 		.4byte	0x5374
 14775 5364 39       		.uleb128 0x39
 14776 5365 01       		.uleb128 0x1
 14777 5366 50       		.byte	0x50
 14778 5367 02       		.uleb128 0x2
 14779 5368 75       		.byte	0x75
 14780 5369 00       		.sleb128 0
 14781 536a 39       		.uleb128 0x39
 14782 536b 01       		.uleb128 0x1
 14783 536c 51       		.byte	0x51
 14784 536d 05       		.uleb128 0x5
 14785 536e 03       		.byte	0x3
 14786 536f 5C000000 		.4byte	.LC10
 14787 5373 00       		.byte	0
 14788 5374 3F       		.uleb128 0x3f
 14789 5375 80000000 		.4byte	.LVL13
 14790 5379 05620000 		.4byte	0x6205
 14791 537d 91530000 		.4byte	0x5391
 14792 5381 39       		.uleb128 0x39
 14793 5382 01       		.uleb128 0x1
 14794 5383 50       		.byte	0x50
 14795 5384 02       		.uleb128 0x2
 14796 5385 75       		.byte	0x75
 14797 5386 00       		.sleb128 0
 14798 5387 39       		.uleb128 0x39
 14799 5388 01       		.uleb128 0x1
 14800 5389 51       		.byte	0x51
 14801 538a 05       		.uleb128 0x5
 14802 538b 03       		.byte	0x3
 14803 538c E0000000 		.4byte	.LC14
 14804 5390 00       		.byte	0
 14805 5391 3F       		.uleb128 0x3f
 14806 5392 8C000000 		.4byte	.LVL14
 14807 5396 05620000 		.4byte	0x6205
 14808 539a AE530000 		.4byte	0x53ae
 14809 539e 39       		.uleb128 0x39
 14810 539f 01       		.uleb128 0x1
 14811 53a0 50       		.byte	0x50
 14812 53a1 02       		.uleb128 0x2
 14813 53a2 75       		.byte	0x75
 14814 53a3 00       		.sleb128 0
 14815 53a4 39       		.uleb128 0x39
 14816 53a5 01       		.uleb128 0x1
ARM GAS  /tmp/ccU5UnMV.s 			page 275


 14817 53a6 51       		.byte	0x51
 14818 53a7 05       		.uleb128 0x5
 14819 53a8 03       		.byte	0x3
 14820 53a9 04010000 		.4byte	.LC16
 14821 53ad 00       		.byte	0
 14822 53ae 3F       		.uleb128 0x3f
 14823 53af 98000000 		.4byte	.LVL15
 14824 53b3 05620000 		.4byte	0x6205
 14825 53b7 CB530000 		.4byte	0x53cb
 14826 53bb 39       		.uleb128 0x39
 14827 53bc 01       		.uleb128 0x1
 14828 53bd 50       		.byte	0x50
 14829 53be 02       		.uleb128 0x2
 14830 53bf 75       		.byte	0x75
 14831 53c0 00       		.sleb128 0
 14832 53c1 39       		.uleb128 0x39
 14833 53c2 01       		.uleb128 0x1
 14834 53c3 51       		.byte	0x51
 14835 53c4 05       		.uleb128 0x5
 14836 53c5 03       		.byte	0x3
 14837 53c6 5C010000 		.4byte	.LC20
 14838 53ca 00       		.byte	0
 14839 53cb 3F       		.uleb128 0x3f
 14840 53cc A6000000 		.4byte	.LVL16
 14841 53d0 05620000 		.4byte	0x6205
 14842 53d4 E8530000 		.4byte	0x53e8
 14843 53d8 39       		.uleb128 0x39
 14844 53d9 01       		.uleb128 0x1
 14845 53da 50       		.byte	0x50
 14846 53db 02       		.uleb128 0x2
 14847 53dc 75       		.byte	0x75
 14848 53dd 00       		.sleb128 0
 14849 53de 39       		.uleb128 0x39
 14850 53df 01       		.uleb128 0x1
 14851 53e0 51       		.byte	0x51
 14852 53e1 05       		.uleb128 0x5
 14853 53e2 03       		.byte	0x3
 14854 53e3 18020000 		.4byte	.LC25
 14855 53e7 00       		.byte	0
 14856 53e8 3F       		.uleb128 0x3f
 14857 53e9 B2000000 		.4byte	.LVL17
 14858 53ed 05620000 		.4byte	0x6205
 14859 53f1 05540000 		.4byte	0x5405
 14860 53f5 39       		.uleb128 0x39
 14861 53f6 01       		.uleb128 0x1
 14862 53f7 50       		.byte	0x50
 14863 53f8 02       		.uleb128 0x2
 14864 53f9 75       		.byte	0x75
 14865 53fa 00       		.sleb128 0
 14866 53fb 39       		.uleb128 0x39
 14867 53fc 01       		.uleb128 0x1
 14868 53fd 51       		.byte	0x51
 14869 53fe 05       		.uleb128 0x5
 14870 53ff 03       		.byte	0x3
 14871 5400 24020000 		.4byte	.LC27
 14872 5404 00       		.byte	0
 14873 5405 3F       		.uleb128 0x3f
ARM GAS  /tmp/ccU5UnMV.s 			page 276


 14874 5406 CE000000 		.4byte	.LVL18
 14875 540a 26620000 		.4byte	0x6226
 14876 540e 1C540000 		.4byte	0x541c
 14877 5412 39       		.uleb128 0x39
 14878 5413 01       		.uleb128 0x1
 14879 5414 50       		.byte	0x50
 14880 5415 05       		.uleb128 0x5
 14881 5416 03       		.byte	0x3
 14882 5417 2C020000 		.4byte	.LC28
 14883 541b 00       		.byte	0
 14884 541c 3F       		.uleb128 0x3f
 14885 541d D6000000 		.4byte	.LVL21
 14886 5421 26620000 		.4byte	0x6226
 14887 5425 33540000 		.4byte	0x5433
 14888 5429 39       		.uleb128 0x39
 14889 542a 01       		.uleb128 0x1
 14890 542b 50       		.byte	0x50
 14891 542c 05       		.uleb128 0x5
 14892 542d 03       		.byte	0x3
 14893 542e 1C000000 		.4byte	.LC5
 14894 5432 00       		.byte	0
 14895 5433 3F       		.uleb128 0x3f
 14896 5434 E6000000 		.4byte	.LVL23
 14897 5438 26620000 		.4byte	0x6226
 14898 543c 4A540000 		.4byte	0x544a
 14899 5440 39       		.uleb128 0x39
 14900 5441 01       		.uleb128 0x1
 14901 5442 50       		.byte	0x50
 14902 5443 05       		.uleb128 0x5
 14903 5444 03       		.byte	0x3
 14904 5445 3C000000 		.4byte	.LC7
 14905 5449 00       		.byte	0
 14906 544a 40       		.uleb128 0x40
 14907 544b F4000000 		.4byte	.LVL25
 14908 544f CC630000 		.4byte	0x63cc
 14909 5453 3F       		.uleb128 0x3f
 14910 5454 0E010000 		.4byte	.LVL27
 14911 5458 26620000 		.4byte	0x6226
 14912 545c 6A540000 		.4byte	0x546a
 14913 5460 39       		.uleb128 0x39
 14914 5461 01       		.uleb128 0x1
 14915 5462 50       		.byte	0x50
 14916 5463 05       		.uleb128 0x5
 14917 5464 03       		.byte	0x3
 14918 5465 70000000 		.4byte	.LC11
 14919 5469 00       		.byte	0
 14920 546a 40       		.uleb128 0x40
 14921 546b 12010000 		.4byte	.LVL28
 14922 546f D7630000 		.4byte	0x63d7
 14923 5473 3F       		.uleb128 0x3f
 14924 5474 28010000 		.4byte	.LVL30
 14925 5478 26620000 		.4byte	0x6226
 14926 547c 8A540000 		.4byte	0x548a
 14927 5480 39       		.uleb128 0x39
 14928 5481 01       		.uleb128 0x1
 14929 5482 50       		.byte	0x50
 14930 5483 05       		.uleb128 0x5
ARM GAS  /tmp/ccU5UnMV.s 			page 277


 14931 5484 03       		.byte	0x3
 14932 5485 90000000 		.4byte	.LC12
 14933 5489 00       		.byte	0
 14934 548a 40       		.uleb128 0x40
 14935 548b 2C010000 		.4byte	.LVL31
 14936 548f E2630000 		.4byte	0x63e2
 14937 5493 3F       		.uleb128 0x3f
 14938 5494 42010000 		.4byte	.LVL33
 14939 5498 26620000 		.4byte	0x6226
 14940 549c AA540000 		.4byte	0x54aa
 14941 54a0 39       		.uleb128 0x39
 14942 54a1 01       		.uleb128 0x1
 14943 54a2 50       		.byte	0x50
 14944 54a3 05       		.uleb128 0x5
 14945 54a4 03       		.byte	0x3
 14946 54a5 B8000000 		.4byte	.LC13
 14947 54a9 00       		.byte	0
 14948 54aa 3F       		.uleb128 0x3f
 14949 54ab 4C010000 		.4byte	.LVL34
 14950 54af D6620000 		.4byte	0x62d6
 14951 54b3 C4540000 		.4byte	0x54c4
 14952 54b7 39       		.uleb128 0x39
 14953 54b8 02       		.uleb128 0x2
 14954 54b9 90       		.byte	0x90
 14955 54ba 40       		.uleb128 0x40
 14956 54bb 07       		.uleb128 0x7
 14957 54bc F4       		.byte	0xf4
 14958 54bd 25       		.uleb128 0x25
 14959 54be 04       		.byte	0x4
 14960 54bf 00000000 		.4byte	0
 14961 54c3 00       		.byte	0
 14962 54c4 3F       		.uleb128 0x3f
 14963 54c5 52010000 		.4byte	.LVL35
 14964 54c9 26620000 		.4byte	0x6226
 14965 54cd DB540000 		.4byte	0x54db
 14966 54d1 39       		.uleb128 0x39
 14967 54d2 01       		.uleb128 0x1
 14968 54d3 50       		.byte	0x50
 14969 54d4 05       		.uleb128 0x5
 14970 54d5 03       		.byte	0x3
 14971 54d6 4C000000 		.4byte	.LC9
 14972 54da 00       		.byte	0
 14973 54db 40       		.uleb128 0x40
 14974 54dc 60010000 		.4byte	.LVL37
 14975 54e0 ED630000 		.4byte	0x63ed
 14976 54e4 3F       		.uleb128 0x3f
 14977 54e5 72010000 		.4byte	.LVL39
 14978 54e9 26620000 		.4byte	0x6226
 14979 54ed FB540000 		.4byte	0x54fb
 14980 54f1 39       		.uleb128 0x39
 14981 54f2 01       		.uleb128 0x1
 14982 54f3 50       		.byte	0x50
 14983 54f4 05       		.uleb128 0x5
 14984 54f5 03       		.byte	0x3
 14985 54f6 E4000000 		.4byte	.LC15
 14986 54fa 00       		.byte	0
 14987 54fb 40       		.uleb128 0x40
ARM GAS  /tmp/ccU5UnMV.s 			page 278


 14988 54fc 78010000 		.4byte	.LVL40
 14989 5500 F8630000 		.4byte	0x63f8
 14990 5504 40       		.uleb128 0x40
 14991 5505 7C010000 		.4byte	.LVL41
 14992 5509 47620000 		.4byte	0x6247
 14993 550d 3F       		.uleb128 0x3f
 14994 550e 84010000 		.4byte	.LVL42
 14995 5512 26620000 		.4byte	0x6226
 14996 5516 24550000 		.4byte	0x5524
 14997 551a 39       		.uleb128 0x39
 14998 551b 01       		.uleb128 0x1
 14999 551c 50       		.byte	0x50
 15000 551d 05       		.uleb128 0x5
 15001 551e 03       		.byte	0x3
 15002 551f 20020000 		.4byte	.LC26
 15003 5523 00       		.byte	0
 15004 5524 3F       		.uleb128 0x3f
 15005 5525 32020000 		.4byte	.LVL61
 15006 5529 05620000 		.4byte	0x6205
 15007 552d 41550000 		.4byte	0x5541
 15008 5531 39       		.uleb128 0x39
 15009 5532 01       		.uleb128 0x1
 15010 5533 50       		.byte	0x50
 15011 5534 02       		.uleb128 0x2
 15012 5535 75       		.byte	0x75
 15013 5536 00       		.sleb128 0
 15014 5537 39       		.uleb128 0x39
 15015 5538 01       		.uleb128 0x1
 15016 5539 51       		.byte	0x51
 15017 553a 05       		.uleb128 0x5
 15018 553b 03       		.byte	0x3
 15019 553c EC030000 		.4byte	.LC45
 15020 5540 00       		.byte	0
 15021 5541 3F       		.uleb128 0x3f
 15022 5542 40020000 		.4byte	.LVL62
 15023 5546 05620000 		.4byte	0x6205
 15024 554a 5E550000 		.4byte	0x555e
 15025 554e 39       		.uleb128 0x39
 15026 554f 01       		.uleb128 0x1
 15027 5550 50       		.byte	0x50
 15028 5551 02       		.uleb128 0x2
 15029 5552 75       		.byte	0x75
 15030 5553 00       		.sleb128 0
 15031 5554 39       		.uleb128 0x39
 15032 5555 01       		.uleb128 0x1
 15033 5556 51       		.byte	0x51
 15034 5557 05       		.uleb128 0x5
 15035 5558 03       		.byte	0x3
 15036 5559 0C040000 		.4byte	.LC47
 15037 555d 00       		.byte	0
 15038 555e 3F       		.uleb128 0x3f
 15039 555f 4E020000 		.4byte	.LVL63
 15040 5563 05620000 		.4byte	0x6205
 15041 5567 7B550000 		.4byte	0x557b
 15042 556b 39       		.uleb128 0x39
 15043 556c 01       		.uleb128 0x1
 15044 556d 50       		.byte	0x50
ARM GAS  /tmp/ccU5UnMV.s 			page 279


 15045 556e 02       		.uleb128 0x2
 15046 556f 75       		.byte	0x75
 15047 5570 00       		.sleb128 0
 15048 5571 39       		.uleb128 0x39
 15049 5572 01       		.uleb128 0x1
 15050 5573 51       		.byte	0x51
 15051 5574 05       		.uleb128 0x5
 15052 5575 03       		.byte	0x3
 15053 5576 2C040000 		.4byte	.LC49
 15054 557a 00       		.byte	0
 15055 557b 3F       		.uleb128 0x3f
 15056 557c 5C020000 		.4byte	.LVL64
 15057 5580 05620000 		.4byte	0x6205
 15058 5584 98550000 		.4byte	0x5598
 15059 5588 39       		.uleb128 0x39
 15060 5589 01       		.uleb128 0x1
 15061 558a 50       		.byte	0x50
 15062 558b 02       		.uleb128 0x2
 15063 558c 75       		.byte	0x75
 15064 558d 00       		.sleb128 0
 15065 558e 39       		.uleb128 0x39
 15066 558f 01       		.uleb128 0x1
 15067 5590 51       		.byte	0x51
 15068 5591 05       		.uleb128 0x5
 15069 5592 03       		.byte	0x3
 15070 5593 E4040000 		.4byte	.LC61
 15071 5597 00       		.byte	0
 15072 5598 3F       		.uleb128 0x3f
 15073 5599 6A020000 		.4byte	.LVL65
 15074 559d 05620000 		.4byte	0x6205
 15075 55a1 B5550000 		.4byte	0x55b5
 15076 55a5 39       		.uleb128 0x39
 15077 55a6 01       		.uleb128 0x1
 15078 55a7 50       		.byte	0x50
 15079 55a8 02       		.uleb128 0x2
 15080 55a9 75       		.byte	0x75
 15081 55aa 00       		.sleb128 0
 15082 55ab 39       		.uleb128 0x39
 15083 55ac 01       		.uleb128 0x1
 15084 55ad 51       		.byte	0x51
 15085 55ae 05       		.uleb128 0x5
 15086 55af 03       		.byte	0x3
 15087 55b0 04050000 		.4byte	.LC63
 15088 55b4 00       		.byte	0
 15089 55b5 3F       		.uleb128 0x3f
 15090 55b6 7C020000 		.4byte	.LVL66
 15091 55ba 26620000 		.4byte	0x6226
 15092 55be CC550000 		.4byte	0x55cc
 15093 55c2 39       		.uleb128 0x39
 15094 55c3 01       		.uleb128 0x1
 15095 55c4 50       		.byte	0x50
 15096 55c5 05       		.uleb128 0x5
 15097 55c6 03       		.byte	0x3
 15098 55c7 5C060000 		.4byte	.LC74
 15099 55cb 00       		.byte	0
 15100 55cc 3F       		.uleb128 0x3f
 15101 55cd 84020000 		.4byte	.LVL67
ARM GAS  /tmp/ccU5UnMV.s 			page 280


 15102 55d1 26620000 		.4byte	0x6226
 15103 55d5 E3550000 		.4byte	0x55e3
 15104 55d9 39       		.uleb128 0x39
 15105 55da 01       		.uleb128 0x1
 15106 55db 50       		.byte	0x50
 15107 55dc 05       		.uleb128 0x5
 15108 55dd 03       		.byte	0x3
 15109 55de 50020000 		.4byte	.LC29
 15110 55e2 00       		.byte	0
 15111 55e3 40       		.uleb128 0x40
 15112 55e4 44040000 		.4byte	.LVL96
 15113 55e8 F7620000 		.4byte	0x62f7
 15114 55ec 3F       		.uleb128 0x3f
 15115 55ed 56040000 		.4byte	.LVL98
 15116 55f1 26620000 		.4byte	0x6226
 15117 55f5 03560000 		.4byte	0x5603
 15118 55f9 39       		.uleb128 0x39
 15119 55fa 01       		.uleb128 0x1
 15120 55fb 50       		.byte	0x50
 15121 55fc 05       		.uleb128 0x5
 15122 55fd 03       		.byte	0x3
 15123 55fe F0030000 		.4byte	.LC46
 15124 5602 00       		.byte	0
 15125 5603 40       		.uleb128 0x40
 15126 5604 5C040000 		.4byte	.LVL99
 15127 5608 03640000 		.4byte	0x6403
 15128 560c 3F       		.uleb128 0x3f
 15129 560d 64040000 		.4byte	.LVL100
 15130 5611 26620000 		.4byte	0x6226
 15131 5615 23560000 		.4byte	0x5623
 15132 5619 39       		.uleb128 0x39
 15133 561a 01       		.uleb128 0x1
 15134 561b 50       		.byte	0x50
 15135 561c 05       		.uleb128 0x5
 15136 561d 03       		.byte	0x3
 15137 561e 14040000 		.4byte	.LC48
 15138 5622 00       		.byte	0
 15139 5623 3F       		.uleb128 0x3f
 15140 5624 28050000 		.4byte	.LVL125
 15141 5628 26620000 		.4byte	0x6226
 15142 562c 3A560000 		.4byte	0x563a
 15143 5630 39       		.uleb128 0x39
 15144 5631 01       		.uleb128 0x1
 15145 5632 50       		.byte	0x50
 15146 5633 05       		.uleb128 0x5
 15147 5634 03       		.byte	0x3
 15148 5635 EC040000 		.4byte	.LC62
 15149 5639 00       		.byte	0
 15150 563a 3F       		.uleb128 0x3f
 15151 563b BE050000 		.4byte	.LVL132
 15152 563f 05620000 		.4byte	0x6205
 15153 5643 57560000 		.4byte	0x5657
 15154 5647 39       		.uleb128 0x39
 15155 5648 01       		.uleb128 0x1
 15156 5649 50       		.byte	0x50
 15157 564a 02       		.uleb128 0x2
 15158 564b 75       		.byte	0x75
ARM GAS  /tmp/ccU5UnMV.s 			page 281


 15159 564c 00       		.sleb128 0
 15160 564d 39       		.uleb128 0x39
 15161 564e 01       		.uleb128 0x1
 15162 564f 51       		.byte	0x51
 15163 5650 05       		.uleb128 0x5
 15164 5651 03       		.byte	0x3
 15165 5652 84060000 		.4byte	.LC75
 15166 5656 00       		.byte	0
 15167 5657 3F       		.uleb128 0x3f
 15168 5658 CC050000 		.4byte	.LVL133
 15169 565c 05620000 		.4byte	0x6205
 15170 5660 74560000 		.4byte	0x5674
 15171 5664 39       		.uleb128 0x39
 15172 5665 01       		.uleb128 0x1
 15173 5666 50       		.byte	0x50
 15174 5667 02       		.uleb128 0x2
 15175 5668 75       		.byte	0x75
 15176 5669 00       		.sleb128 0
 15177 566a 39       		.uleb128 0x39
 15178 566b 01       		.uleb128 0x1
 15179 566c 51       		.byte	0x51
 15180 566d 05       		.uleb128 0x5
 15181 566e 03       		.byte	0x3
 15182 566f E0060000 		.4byte	.LC79
 15183 5673 00       		.byte	0
 15184 5674 3F       		.uleb128 0x3f
 15185 5675 DC050000 		.4byte	.LVL134
 15186 5679 05620000 		.4byte	0x6205
 15187 567d 91560000 		.4byte	0x5691
 15188 5681 39       		.uleb128 0x39
 15189 5682 01       		.uleb128 0x1
 15190 5683 50       		.byte	0x50
 15191 5684 02       		.uleb128 0x2
 15192 5685 75       		.byte	0x75
 15193 5686 00       		.sleb128 0
 15194 5687 39       		.uleb128 0x39
 15195 5688 01       		.uleb128 0x1
 15196 5689 51       		.byte	0x51
 15197 568a 05       		.uleb128 0x5
 15198 568b 03       		.byte	0x3
 15199 568c BC070000 		.4byte	.LC87
 15200 5690 00       		.byte	0
 15201 5691 3F       		.uleb128 0x3f
 15202 5692 EE050000 		.4byte	.LVL135
 15203 5696 26620000 		.4byte	0x6226
 15204 569a A8560000 		.4byte	0x56a8
 15205 569e 39       		.uleb128 0x39
 15206 569f 01       		.uleb128 0x1
 15207 56a0 50       		.byte	0x50
 15208 56a1 05       		.uleb128 0x5
 15209 56a2 03       		.byte	0x3
 15210 56a3 18080000 		.4byte	.LC92
 15211 56a7 00       		.byte	0
 15212 56a8 3F       		.uleb128 0x3f
 15213 56a9 A6070000 		.4byte	.LVL155
 15214 56ad 05620000 		.4byte	0x6205
 15215 56b1 C5560000 		.4byte	0x56c5
ARM GAS  /tmp/ccU5UnMV.s 			page 282


 15216 56b5 39       		.uleb128 0x39
 15217 56b6 01       		.uleb128 0x1
 15218 56b7 50       		.byte	0x50
 15219 56b8 02       		.uleb128 0x2
 15220 56b9 75       		.byte	0x75
 15221 56ba 00       		.sleb128 0
 15222 56bb 39       		.uleb128 0x39
 15223 56bc 01       		.uleb128 0x1
 15224 56bd 51       		.byte	0x51
 15225 56be 05       		.uleb128 0x5
 15226 56bf 03       		.byte	0x3
 15227 56c0 40080000 		.4byte	.LC93
 15228 56c4 00       		.byte	0
 15229 56c5 3F       		.uleb128 0x3f
 15230 56c6 22080000 		.4byte	.LVL165
 15231 56ca 05620000 		.4byte	0x6205
 15232 56ce E2560000 		.4byte	0x56e2
 15233 56d2 39       		.uleb128 0x39
 15234 56d3 01       		.uleb128 0x1
 15235 56d4 50       		.byte	0x50
 15236 56d5 02       		.uleb128 0x2
 15237 56d6 75       		.byte	0x75
 15238 56d7 00       		.sleb128 0
 15239 56d8 39       		.uleb128 0x39
 15240 56d9 01       		.uleb128 0x1
 15241 56da 51       		.byte	0x51
 15242 56db 05       		.uleb128 0x5
 15243 56dc 03       		.byte	0x3
 15244 56dd 64080000 		.4byte	.LC95
 15245 56e1 00       		.byte	0
 15246 56e2 3F       		.uleb128 0x3f
 15247 56e3 B2080000 		.4byte	.LVL175
 15248 56e7 26620000 		.4byte	0x6226
 15249 56eb F9560000 		.4byte	0x56f9
 15250 56ef 39       		.uleb128 0x39
 15251 56f0 01       		.uleb128 0x1
 15252 56f1 50       		.byte	0x50
 15253 56f2 05       		.uleb128 0x5
 15254 56f3 03       		.byte	0x3
 15255 56f4 EC060000 		.4byte	.LC80
 15256 56f8 00       		.byte	0
 15257 56f9 3F       		.uleb128 0x3f
 15258 56fa 9A090000 		.4byte	.LVL202
 15259 56fe 05620000 		.4byte	0x6205
 15260 5702 16570000 		.4byte	0x5716
 15261 5706 39       		.uleb128 0x39
 15262 5707 01       		.uleb128 0x1
 15263 5708 50       		.byte	0x50
 15264 5709 02       		.uleb128 0x2
 15265 570a 75       		.byte	0x75
 15266 570b 00       		.sleb128 0
 15267 570c 39       		.uleb128 0x39
 15268 570d 01       		.uleb128 0x1
 15269 570e 51       		.byte	0x51
 15270 570f 05       		.uleb128 0x5
 15271 5710 03       		.byte	0x3
 15272 5711 98080000 		.4byte	.LC97
ARM GAS  /tmp/ccU5UnMV.s 			page 283


 15273 5715 00       		.byte	0
 15274 5716 3F       		.uleb128 0x3f
 15275 5717 AA090000 		.4byte	.LVL203
 15276 571b 26620000 		.4byte	0x6226
 15277 571f 2D570000 		.4byte	0x572d
 15278 5723 39       		.uleb128 0x39
 15279 5724 01       		.uleb128 0x1
 15280 5725 50       		.byte	0x50
 15281 5726 05       		.uleb128 0x5
 15282 5727 03       		.byte	0x3
 15283 5728 BC080000 		.4byte	.LC99
 15284 572c 00       		.byte	0
 15285 572d 3F       		.uleb128 0x3f
 15286 572e 3A0B0000 		.4byte	.LVL219
 15287 5732 05620000 		.4byte	0x6205
 15288 5736 4A570000 		.4byte	0x574a
 15289 573a 39       		.uleb128 0x39
 15290 573b 01       		.uleb128 0x1
 15291 573c 50       		.byte	0x50
 15292 573d 02       		.uleb128 0x2
 15293 573e 75       		.byte	0x75
 15294 573f 00       		.sleb128 0
 15295 5740 39       		.uleb128 0x39
 15296 5741 01       		.uleb128 0x1
 15297 5742 51       		.byte	0x51
 15298 5743 05       		.uleb128 0x5
 15299 5744 03       		.byte	0x3
 15300 5745 E4080000 		.4byte	.LC100
 15301 5749 00       		.byte	0
 15302 574a 3F       		.uleb128 0x3f
 15303 574b 480B0000 		.4byte	.LVL220
 15304 574f 05620000 		.4byte	0x6205
 15305 5753 67570000 		.4byte	0x5767
 15306 5757 39       		.uleb128 0x39
 15307 5758 01       		.uleb128 0x1
 15308 5759 50       		.byte	0x50
 15309 575a 02       		.uleb128 0x2
 15310 575b 75       		.byte	0x75
 15311 575c 00       		.sleb128 0
 15312 575d 39       		.uleb128 0x39
 15313 575e 01       		.uleb128 0x1
 15314 575f 51       		.byte	0x51
 15315 5760 05       		.uleb128 0x5
 15316 5761 03       		.byte	0x3
 15317 5762 2C090000 		.4byte	.LC103
 15318 5766 00       		.byte	0
 15319 5767 3F       		.uleb128 0x3f
 15320 5768 920C0000 		.4byte	.LVL261
 15321 576c 05620000 		.4byte	0x6205
 15322 5770 84570000 		.4byte	0x5784
 15323 5774 39       		.uleb128 0x39
 15324 5775 01       		.uleb128 0x1
 15325 5776 50       		.byte	0x50
 15326 5777 02       		.uleb128 0x2
 15327 5778 75       		.byte	0x75
 15328 5779 00       		.sleb128 0
 15329 577a 39       		.uleb128 0x39
ARM GAS  /tmp/ccU5UnMV.s 			page 284


 15330 577b 01       		.uleb128 0x1
 15331 577c 51       		.byte	0x51
 15332 577d 05       		.uleb128 0x5
 15333 577e 03       		.byte	0x3
 15334 577f 40090000 		.4byte	.LC104
 15335 5783 00       		.byte	0
 15336 5784 3F       		.uleb128 0x3f
 15337 5785 360D0000 		.4byte	.LVL267
 15338 5789 05620000 		.4byte	0x6205
 15339 578d A1570000 		.4byte	0x57a1
 15340 5791 39       		.uleb128 0x39
 15341 5792 01       		.uleb128 0x1
 15342 5793 50       		.byte	0x50
 15343 5794 02       		.uleb128 0x2
 15344 5795 75       		.byte	0x75
 15345 5796 00       		.sleb128 0
 15346 5797 39       		.uleb128 0x39
 15347 5798 01       		.uleb128 0x1
 15348 5799 51       		.byte	0x51
 15349 579a 05       		.uleb128 0x5
 15350 579b 03       		.byte	0x3
 15351 579c 5C090000 		.4byte	.LC105
 15352 57a0 00       		.byte	0
 15353 57a1 3F       		.uleb128 0x3f
 15354 57a2 400D0000 		.4byte	.LVL268
 15355 57a6 05620000 		.4byte	0x6205
 15356 57aa BE570000 		.4byte	0x57be
 15357 57ae 39       		.uleb128 0x39
 15358 57af 01       		.uleb128 0x1
 15359 57b0 50       		.byte	0x50
 15360 57b1 02       		.uleb128 0x2
 15361 57b2 75       		.byte	0x75
 15362 57b3 00       		.sleb128 0
 15363 57b4 39       		.uleb128 0x39
 15364 57b5 01       		.uleb128 0x1
 15365 57b6 51       		.byte	0x51
 15366 57b7 05       		.uleb128 0x5
 15367 57b8 03       		.byte	0x3
 15368 57b9 68090000 		.4byte	.LC106
 15369 57bd 00       		.byte	0
 15370 57be 3F       		.uleb128 0x3f
 15371 57bf 4E0D0000 		.4byte	.LVL269
 15372 57c3 05620000 		.4byte	0x6205
 15373 57c7 DB570000 		.4byte	0x57db
 15374 57cb 39       		.uleb128 0x39
 15375 57cc 01       		.uleb128 0x1
 15376 57cd 50       		.byte	0x50
 15377 57ce 02       		.uleb128 0x2
 15378 57cf 75       		.byte	0x75
 15379 57d0 00       		.sleb128 0
 15380 57d1 39       		.uleb128 0x39
 15381 57d2 01       		.uleb128 0x1
 15382 57d3 51       		.byte	0x51
 15383 57d4 05       		.uleb128 0x5
 15384 57d5 03       		.byte	0x3
 15385 57d6 F4090000 		.4byte	.LC112
 15386 57da 00       		.byte	0
ARM GAS  /tmp/ccU5UnMV.s 			page 285


 15387 57db 3F       		.uleb128 0x3f
 15388 57dc 5C0D0000 		.4byte	.LVL270
 15389 57e0 26620000 		.4byte	0x6226
 15390 57e4 F2570000 		.4byte	0x57f2
 15391 57e8 39       		.uleb128 0x39
 15392 57e9 01       		.uleb128 0x1
 15393 57ea 50       		.byte	0x50
 15394 57eb 05       		.uleb128 0x5
 15395 57ec 03       		.byte	0x3
 15396 57ed 040A0000 		.4byte	.LC113
 15397 57f1 00       		.byte	0
 15398 57f2 40       		.uleb128 0x40
 15399 57f3 640D0000 		.4byte	.LVL271
 15400 57f7 0E640000 		.4byte	0x640e
 15401 57fb 3F       		.uleb128 0x3f
 15402 57fc 6A0D0000 		.4byte	.LVL272
 15403 5800 26620000 		.4byte	0x6226
 15404 5804 12580000 		.4byte	0x5812
 15405 5808 39       		.uleb128 0x39
 15406 5809 01       		.uleb128 0x1
 15407 580a 50       		.byte	0x50
 15408 580b 05       		.uleb128 0x5
 15409 580c 03       		.byte	0x3
 15410 580d 18000000 		.4byte	.LC4
 15411 5811 00       		.byte	0
 15412 5812 3F       		.uleb128 0x3f
 15413 5813 100E0000 		.4byte	.LVL277
 15414 5817 05620000 		.4byte	0x6205
 15415 581b 2F580000 		.4byte	0x582f
 15416 581f 39       		.uleb128 0x39
 15417 5820 01       		.uleb128 0x1
 15418 5821 50       		.byte	0x50
 15419 5822 02       		.uleb128 0x2
 15420 5823 75       		.byte	0x75
 15421 5824 00       		.sleb128 0
 15422 5825 39       		.uleb128 0x39
 15423 5826 01       		.uleb128 0x1
 15424 5827 51       		.byte	0x51
 15425 5828 05       		.uleb128 0x5
 15426 5829 03       		.byte	0x3
 15427 582a 2C0A0000 		.4byte	.LC114
 15428 582e 00       		.byte	0
 15429 582f 3F       		.uleb128 0x3f
 15430 5830 700E0000 		.4byte	.LVL282
 15431 5834 26620000 		.4byte	0x6226
 15432 5838 51580000 		.4byte	0x5851
 15433 583c 39       		.uleb128 0x39
 15434 583d 01       		.uleb128 0x1
 15435 583e 50       		.byte	0x50
 15436 583f 05       		.uleb128 0x5
 15437 5840 03       		.byte	0x3
 15438 5841 74090000 		.4byte	.LC107
 15439 5845 39       		.uleb128 0x39
 15440 5846 01       		.uleb128 0x1
 15441 5847 51       		.byte	0x51
 15442 5848 01       		.uleb128 0x1
 15443 5849 33       		.byte	0x33
ARM GAS  /tmp/ccU5UnMV.s 			page 286


 15444 584a 39       		.uleb128 0x39
 15445 584b 01       		.uleb128 0x1
 15446 584c 52       		.byte	0x52
 15447 584d 02       		.uleb128 0x2
 15448 584e 08       		.byte	0x8
 15449 584f 37       		.byte	0x37
 15450 5850 00       		.byte	0
 15451 5851 3F       		.uleb128 0x3f
 15452 5852 780E0000 		.4byte	.LVL283
 15453 5856 26620000 		.4byte	0x6226
 15454 585a 71580000 		.4byte	0x5871
 15455 585e 39       		.uleb128 0x39
 15456 585f 01       		.uleb128 0x1
 15457 5860 50       		.byte	0x50
 15458 5861 05       		.uleb128 0x5
 15459 5862 03       		.byte	0x3
 15460 5863 88090000 		.4byte	.LC109
 15461 5867 39       		.uleb128 0x39
 15462 5868 01       		.uleb128 0x1
 15463 5869 51       		.byte	0x51
 15464 586a 05       		.uleb128 0x5
 15465 586b 03       		.byte	0x3
 15466 586c 84090000 		.4byte	.LC108
 15467 5870 00       		.byte	0
 15468 5871 3F       		.uleb128 0x3f
 15469 5872 C00E0000 		.4byte	.LVL285
 15470 5876 26620000 		.4byte	0x6226
 15471 587a 8F580000 		.4byte	0x588f
 15472 587e 39       		.uleb128 0x39
 15473 587f 01       		.uleb128 0x1
 15474 5880 50       		.byte	0x50
 15475 5881 05       		.uleb128 0x5
 15476 5882 03       		.byte	0x3
 15477 5883 98090000 		.4byte	.LC110
 15478 5887 39       		.uleb128 0x39
 15479 5888 02       		.uleb128 0x2
 15480 5889 7D       		.byte	0x7d
 15481 588a 04       		.sleb128 4
 15482 588b 02       		.uleb128 0x2
 15483 588c 74       		.byte	0x74
 15484 588d 00       		.sleb128 0
 15485 588e 00       		.byte	0
 15486 588f 3F       		.uleb128 0x3f
 15487 5890 D60E0000 		.4byte	.LVL286
 15488 5894 26620000 		.4byte	0x6226
 15489 5898 A6580000 		.4byte	0x58a6
 15490 589c 39       		.uleb128 0x39
 15491 589d 01       		.uleb128 0x1
 15492 589e 50       		.byte	0x50
 15493 589f 05       		.uleb128 0x5
 15494 58a0 03       		.byte	0x3
 15495 58a1 DC090000 		.4byte	.LC111
 15496 58a5 00       		.byte	0
 15497 58a6 3F       		.uleb128 0x3f
 15498 58a7 DC0E0000 		.4byte	.LVL287
 15499 58ab 26620000 		.4byte	0x6226
 15500 58af BD580000 		.4byte	0x58bd
ARM GAS  /tmp/ccU5UnMV.s 			page 287


 15501 58b3 39       		.uleb128 0x39
 15502 58b4 01       		.uleb128 0x1
 15503 58b5 50       		.byte	0x50
 15504 58b6 05       		.uleb128 0x5
 15505 58b7 03       		.byte	0x3
 15506 58b8 18000000 		.4byte	.LC4
 15507 58bc 00       		.byte	0
 15508 58bd 3F       		.uleb128 0x3f
 15509 58be E80E0000 		.4byte	.LVL289
 15510 58c2 05620000 		.4byte	0x6205
 15511 58c6 DA580000 		.4byte	0x58da
 15512 58ca 39       		.uleb128 0x39
 15513 58cb 01       		.uleb128 0x1
 15514 58cc 50       		.byte	0x50
 15515 58cd 02       		.uleb128 0x2
 15516 58ce 75       		.byte	0x75
 15517 58cf 00       		.sleb128 0
 15518 58d0 39       		.uleb128 0x39
 15519 58d1 01       		.uleb128 0x1
 15520 58d2 51       		.byte	0x51
 15521 58d3 05       		.uleb128 0x5
 15522 58d4 03       		.byte	0x3
 15523 58d5 400A0000 		.4byte	.LC115
 15524 58d9 00       		.byte	0
 15525 58da 3F       		.uleb128 0x3f
 15526 58db 260F0000 		.4byte	.LVL292
 15527 58df 05620000 		.4byte	0x6205
 15528 58e3 F7580000 		.4byte	0x58f7
 15529 58e7 39       		.uleb128 0x39
 15530 58e8 01       		.uleb128 0x1
 15531 58e9 50       		.byte	0x50
 15532 58ea 02       		.uleb128 0x2
 15533 58eb 75       		.byte	0x75
 15534 58ec 00       		.sleb128 0
 15535 58ed 39       		.uleb128 0x39
 15536 58ee 01       		.uleb128 0x1
 15537 58ef 51       		.byte	0x51
 15538 58f0 05       		.uleb128 0x5
 15539 58f1 03       		.byte	0x3
 15540 58f2 580A0000 		.4byte	.LC117
 15541 58f6 00       		.byte	0
 15542 58f7 3F       		.uleb128 0x3f
 15543 58f8 8C0F0000 		.4byte	.LVL298
 15544 58fc 05620000 		.4byte	0x6205
 15545 5900 14590000 		.4byte	0x5914
 15546 5904 39       		.uleb128 0x39
 15547 5905 01       		.uleb128 0x1
 15548 5906 50       		.byte	0x50
 15549 5907 02       		.uleb128 0x2
 15550 5908 75       		.byte	0x75
 15551 5909 00       		.sleb128 0
 15552 590a 39       		.uleb128 0x39
 15553 590b 01       		.uleb128 0x1
 15554 590c 51       		.byte	0x51
 15555 590d 05       		.uleb128 0x5
 15556 590e 03       		.byte	0x3
 15557 590f 000B0000 		.4byte	.LC122
ARM GAS  /tmp/ccU5UnMV.s 			page 288


 15558 5913 00       		.byte	0
 15559 5914 3F       		.uleb128 0x3f
 15560 5915 A0100000 		.4byte	.LVL318
 15561 5919 05620000 		.4byte	0x6205
 15562 591d 31590000 		.4byte	0x5931
 15563 5921 39       		.uleb128 0x39
 15564 5922 01       		.uleb128 0x1
 15565 5923 50       		.byte	0x50
 15566 5924 02       		.uleb128 0x2
 15567 5925 75       		.byte	0x75
 15568 5926 00       		.sleb128 0
 15569 5927 39       		.uleb128 0x39
 15570 5928 01       		.uleb128 0x1
 15571 5929 51       		.byte	0x51
 15572 592a 05       		.uleb128 0x5
 15573 592b 03       		.byte	0x3
 15574 592c 300B0000 		.4byte	.LC126
 15575 5930 00       		.byte	0
 15576 5931 3F       		.uleb128 0x3f
 15577 5932 5C120000 		.4byte	.LVL346
 15578 5936 05620000 		.4byte	0x6205
 15579 593a 4E590000 		.4byte	0x594e
 15580 593e 39       		.uleb128 0x39
 15581 593f 01       		.uleb128 0x1
 15582 5940 50       		.byte	0x50
 15583 5941 02       		.uleb128 0x2
 15584 5942 75       		.byte	0x75
 15585 5943 00       		.sleb128 0
 15586 5944 39       		.uleb128 0x39
 15587 5945 01       		.uleb128 0x1
 15588 5946 51       		.byte	0x51
 15589 5947 05       		.uleb128 0x5
 15590 5948 03       		.byte	0x3
 15591 5949 B00C0000 		.4byte	.LC139
 15592 594d 00       		.byte	0
 15593 594e 3F       		.uleb128 0x3f
 15594 594f 96120000 		.4byte	.LVL354
 15595 5953 05620000 		.4byte	0x6205
 15596 5957 6B590000 		.4byte	0x596b
 15597 595b 39       		.uleb128 0x39
 15598 595c 01       		.uleb128 0x1
 15599 595d 50       		.byte	0x50
 15600 595e 02       		.uleb128 0x2
 15601 595f 75       		.byte	0x75
 15602 5960 00       		.sleb128 0
 15603 5961 39       		.uleb128 0x39
 15604 5962 01       		.uleb128 0x1
 15605 5963 51       		.byte	0x51
 15606 5964 05       		.uleb128 0x5
 15607 5965 03       		.byte	0x3
 15608 5966 EC0C0000 		.4byte	.LC142
 15609 596a 00       		.byte	0
 15610 596b 3F       		.uleb128 0x3f
 15611 596c 04130000 		.4byte	.LVL363
 15612 5970 05620000 		.4byte	0x6205
 15613 5974 88590000 		.4byte	0x5988
 15614 5978 39       		.uleb128 0x39
ARM GAS  /tmp/ccU5UnMV.s 			page 289


 15615 5979 01       		.uleb128 0x1
 15616 597a 50       		.byte	0x50
 15617 597b 02       		.uleb128 0x2
 15618 597c 75       		.byte	0x75
 15619 597d 00       		.sleb128 0
 15620 597e 39       		.uleb128 0x39
 15621 597f 01       		.uleb128 0x1
 15622 5980 51       		.byte	0x51
 15623 5981 05       		.uleb128 0x5
 15624 5982 03       		.byte	0x3
 15625 5983 080D0000 		.4byte	.LC143
 15626 5987 00       		.byte	0
 15627 5988 40       		.uleb128 0x40
 15628 5989 18130000 		.4byte	.LVL365
 15629 598d 19640000 		.4byte	0x6419
 15630 5991 40       		.uleb128 0x40
 15631 5992 1E130000 		.4byte	.LVL366
 15632 5996 24640000 		.4byte	0x6424
 15633 599a 40       		.uleb128 0x40
 15634 599b 24130000 		.4byte	.LVL367
 15635 599f 2F640000 		.4byte	0x642f
 15636 59a3 3F       		.uleb128 0x3f
 15637 59a4 42130000 		.4byte	.LVL370
 15638 59a8 26620000 		.4byte	0x6226
 15639 59ac C6590000 		.4byte	0x59c6
 15640 59b0 39       		.uleb128 0x39
 15641 59b1 01       		.uleb128 0x1
 15642 59b2 50       		.byte	0x50
 15643 59b3 05       		.uleb128 0x5
 15644 59b4 03       		.byte	0x3
 15645 59b5 100D0000 		.4byte	.LC144
 15646 59b9 39       		.uleb128 0x39
 15647 59ba 01       		.uleb128 0x1
 15648 59bb 51       		.byte	0x51
 15649 59bc 02       		.uleb128 0x2
 15650 59bd 75       		.byte	0x75
 15651 59be 00       		.sleb128 0
 15652 59bf 39       		.uleb128 0x39
 15653 59c0 01       		.uleb128 0x1
 15654 59c1 52       		.byte	0x52
 15655 59c2 02       		.uleb128 0x2
 15656 59c3 76       		.byte	0x76
 15657 59c4 00       		.sleb128 0
 15658 59c5 00       		.byte	0
 15659 59c6 40       		.uleb128 0x40
 15660 59c7 50130000 		.4byte	.LVL371
 15661 59cb 3A640000 		.4byte	0x643a
 15662 59cf 40       		.uleb128 0x40
 15663 59d0 56130000 		.4byte	.LVL372
 15664 59d4 45640000 		.4byte	0x6445
 15665 59d8 3F       		.uleb128 0x3f
 15666 59d9 72130000 		.4byte	.LVL375
 15667 59dd 26620000 		.4byte	0x6226
 15668 59e1 F5590000 		.4byte	0x59f5
 15669 59e5 39       		.uleb128 0x39
 15670 59e6 01       		.uleb128 0x1
 15671 59e7 50       		.byte	0x50
ARM GAS  /tmp/ccU5UnMV.s 			page 290


 15672 59e8 05       		.uleb128 0x5
 15673 59e9 03       		.byte	0x3
 15674 59ea 480D0000 		.4byte	.LC145
 15675 59ee 39       		.uleb128 0x39
 15676 59ef 01       		.uleb128 0x1
 15677 59f0 51       		.byte	0x51
 15678 59f1 02       		.uleb128 0x2
 15679 59f2 74       		.byte	0x74
 15680 59f3 00       		.sleb128 0
 15681 59f4 00       		.byte	0
 15682 59f5 40       		.uleb128 0x40
 15683 59f6 76130000 		.4byte	.LVL376
 15684 59fa 50640000 		.4byte	0x6450
 15685 59fe 40       		.uleb128 0x40
 15686 59ff 7C130000 		.4byte	.LVL377
 15687 5a03 5B640000 		.4byte	0x645b
 15688 5a07 3F       		.uleb128 0x3f
 15689 5a08 98130000 		.4byte	.LVL380
 15690 5a0c 26620000 		.4byte	0x6226
 15691 5a10 245A0000 		.4byte	0x5a24
 15692 5a14 39       		.uleb128 0x39
 15693 5a15 01       		.uleb128 0x1
 15694 5a16 50       		.byte	0x50
 15695 5a17 05       		.uleb128 0x5
 15696 5a18 03       		.byte	0x3
 15697 5a19 980D0000 		.4byte	.LC146
 15698 5a1d 39       		.uleb128 0x39
 15699 5a1e 01       		.uleb128 0x1
 15700 5a1f 51       		.byte	0x51
 15701 5a20 02       		.uleb128 0x2
 15702 5a21 74       		.byte	0x74
 15703 5a22 00       		.sleb128 0
 15704 5a23 00       		.byte	0
 15705 5a24 3F       		.uleb128 0x3f
 15706 5a25 A4130000 		.4byte	.LVL382
 15707 5a29 05620000 		.4byte	0x6205
 15708 5a2d 415A0000 		.4byte	0x5a41
 15709 5a31 39       		.uleb128 0x39
 15710 5a32 01       		.uleb128 0x1
 15711 5a33 50       		.byte	0x50
 15712 5a34 02       		.uleb128 0x2
 15713 5a35 75       		.byte	0x75
 15714 5a36 00       		.sleb128 0
 15715 5a37 39       		.uleb128 0x39
 15716 5a38 01       		.uleb128 0x1
 15717 5a39 51       		.byte	0x51
 15718 5a3a 05       		.uleb128 0x5
 15719 5a3b 03       		.byte	0x3
 15720 5a3c E80D0000 		.4byte	.LC147
 15721 5a40 00       		.byte	0
 15722 5a41 3F       		.uleb128 0x3f
 15723 5a42 64140000 		.4byte	.LVL388
 15724 5a46 26620000 		.4byte	0x6226
 15725 5a4a 585A0000 		.4byte	0x5a58
 15726 5a4e 39       		.uleb128 0x39
 15727 5a4f 01       		.uleb128 0x1
 15728 5a50 50       		.byte	0x50
ARM GAS  /tmp/ccU5UnMV.s 			page 291


 15729 5a51 05       		.uleb128 0x5
 15730 5a52 03       		.byte	0x3
 15731 5a53 F00D0000 		.4byte	.LC148
 15732 5a57 00       		.byte	0
 15733 5a58 3F       		.uleb128 0x3f
 15734 5a59 6A140000 		.4byte	.LVL389
 15735 5a5d 26620000 		.4byte	0x6226
 15736 5a61 6F5A0000 		.4byte	0x5a6f
 15737 5a65 39       		.uleb128 0x39
 15738 5a66 01       		.uleb128 0x1
 15739 5a67 50       		.byte	0x50
 15740 5a68 05       		.uleb128 0x5
 15741 5a69 03       		.byte	0x3
 15742 5a6a E80D0000 		.4byte	.LC147
 15743 5a6e 00       		.byte	0
 15744 5a6f 3F       		.uleb128 0x3f
 15745 5a70 70140000 		.4byte	.LVL390
 15746 5a74 26620000 		.4byte	0x6226
 15747 5a78 865A0000 		.4byte	0x5a86
 15748 5a7c 39       		.uleb128 0x39
 15749 5a7d 01       		.uleb128 0x1
 15750 5a7e 50       		.byte	0x50
 15751 5a7f 05       		.uleb128 0x5
 15752 5a80 03       		.byte	0x3
 15753 5a81 040E0000 		.4byte	.LC149
 15754 5a85 00       		.byte	0
 15755 5a86 3F       		.uleb128 0x3f
 15756 5a87 76140000 		.4byte	.LVL391
 15757 5a8b 26620000 		.4byte	0x6226
 15758 5a8f 9D5A0000 		.4byte	0x5a9d
 15759 5a93 39       		.uleb128 0x39
 15760 5a94 01       		.uleb128 0x1
 15761 5a95 50       		.byte	0x50
 15762 5a96 05       		.uleb128 0x5
 15763 5a97 03       		.byte	0x3
 15764 5a98 34000000 		.4byte	.LC6
 15765 5a9c 00       		.byte	0
 15766 5a9d 3F       		.uleb128 0x3f
 15767 5a9e 7C140000 		.4byte	.LVL392
 15768 5aa2 26620000 		.4byte	0x6226
 15769 5aa6 B45A0000 		.4byte	0x5ab4
 15770 5aaa 39       		.uleb128 0x39
 15771 5aab 01       		.uleb128 0x1
 15772 5aac 50       		.byte	0x50
 15773 5aad 05       		.uleb128 0x5
 15774 5aae 03       		.byte	0x3
 15775 5aaf 180E0000 		.4byte	.LC150
 15776 5ab3 00       		.byte	0
 15777 5ab4 3F       		.uleb128 0x3f
 15778 5ab5 82140000 		.4byte	.LVL393
 15779 5ab9 26620000 		.4byte	0x6226
 15780 5abd CB5A0000 		.4byte	0x5acb
 15781 5ac1 39       		.uleb128 0x39
 15782 5ac2 01       		.uleb128 0x1
 15783 5ac3 50       		.byte	0x50
 15784 5ac4 05       		.uleb128 0x5
 15785 5ac5 03       		.byte	0x3
ARM GAS  /tmp/ccU5UnMV.s 			page 292


 15786 5ac6 44000000 		.4byte	.LC8
 15787 5aca 00       		.byte	0
 15788 5acb 3F       		.uleb128 0x3f
 15789 5acc 88140000 		.4byte	.LVL394
 15790 5ad0 26620000 		.4byte	0x6226
 15791 5ad4 E25A0000 		.4byte	0x5ae2
 15792 5ad8 39       		.uleb128 0x39
 15793 5ad9 01       		.uleb128 0x1
 15794 5ada 50       		.byte	0x50
 15795 5adb 05       		.uleb128 0x5
 15796 5adc 03       		.byte	0x3
 15797 5add 440E0000 		.4byte	.LC151
 15798 5ae1 00       		.byte	0
 15799 5ae2 3F       		.uleb128 0x3f
 15800 5ae3 8E140000 		.4byte	.LVL395
 15801 5ae7 26620000 		.4byte	0x6226
 15802 5aeb F95A0000 		.4byte	0x5af9
 15803 5aef 39       		.uleb128 0x39
 15804 5af0 01       		.uleb128 0x1
 15805 5af1 50       		.byte	0x50
 15806 5af2 05       		.uleb128 0x5
 15807 5af3 03       		.byte	0x3
 15808 5af4 5C000000 		.4byte	.LC10
 15809 5af8 00       		.byte	0
 15810 5af9 3F       		.uleb128 0x3f
 15811 5afa 94140000 		.4byte	.LVL396
 15812 5afe 26620000 		.4byte	0x6226
 15813 5b02 105B0000 		.4byte	0x5b10
 15814 5b06 39       		.uleb128 0x39
 15815 5b07 01       		.uleb128 0x1
 15816 5b08 50       		.byte	0x50
 15817 5b09 05       		.uleb128 0x5
 15818 5b0a 03       		.byte	0x3
 15819 5b0b 580E0000 		.4byte	.LC152
 15820 5b0f 00       		.byte	0
 15821 5b10 3F       		.uleb128 0x3f
 15822 5b11 9A140000 		.4byte	.LVL397
 15823 5b15 26620000 		.4byte	0x6226
 15824 5b19 275B0000 		.4byte	0x5b27
 15825 5b1d 39       		.uleb128 0x39
 15826 5b1e 01       		.uleb128 0x1
 15827 5b1f 50       		.byte	0x50
 15828 5b20 05       		.uleb128 0x5
 15829 5b21 03       		.byte	0x3
 15830 5b22 E0000000 		.4byte	.LC14
 15831 5b26 00       		.byte	0
 15832 5b27 3F       		.uleb128 0x3f
 15833 5b28 A0140000 		.4byte	.LVL398
 15834 5b2c 26620000 		.4byte	0x6226
 15835 5b30 3E5B0000 		.4byte	0x5b3e
 15836 5b34 39       		.uleb128 0x39
 15837 5b35 01       		.uleb128 0x1
 15838 5b36 50       		.byte	0x50
 15839 5b37 05       		.uleb128 0x5
 15840 5b38 03       		.byte	0x3
 15841 5b39 880E0000 		.4byte	.LC153
 15842 5b3d 00       		.byte	0
ARM GAS  /tmp/ccU5UnMV.s 			page 293


 15843 5b3e 3F       		.uleb128 0x3f
 15844 5b3f A6140000 		.4byte	.LVL399
 15845 5b43 26620000 		.4byte	0x6226
 15846 5b47 555B0000 		.4byte	0x5b55
 15847 5b4b 39       		.uleb128 0x39
 15848 5b4c 01       		.uleb128 0x1
 15849 5b4d 50       		.byte	0x50
 15850 5b4e 05       		.uleb128 0x5
 15851 5b4f 03       		.byte	0x3
 15852 5b50 04010000 		.4byte	.LC16
 15853 5b54 00       		.byte	0
 15854 5b55 3F       		.uleb128 0x3f
 15855 5b56 AC140000 		.4byte	.LVL400
 15856 5b5a 26620000 		.4byte	0x6226
 15857 5b5e 6C5B0000 		.4byte	0x5b6c
 15858 5b62 39       		.uleb128 0x39
 15859 5b63 01       		.uleb128 0x1
 15860 5b64 50       		.byte	0x50
 15861 5b65 05       		.uleb128 0x5
 15862 5b66 03       		.byte	0x3
 15863 5b67 AC0E0000 		.4byte	.LC154
 15864 5b6b 00       		.byte	0
 15865 5b6c 3F       		.uleb128 0x3f
 15866 5b6d B2140000 		.4byte	.LVL401
 15867 5b71 26620000 		.4byte	0x6226
 15868 5b75 835B0000 		.4byte	0x5b83
 15869 5b79 39       		.uleb128 0x39
 15870 5b7a 01       		.uleb128 0x1
 15871 5b7b 50       		.byte	0x50
 15872 5b7c 05       		.uleb128 0x5
 15873 5b7d 03       		.byte	0x3
 15874 5b7e 5C010000 		.4byte	.LC20
 15875 5b82 00       		.byte	0
 15876 5b83 3F       		.uleb128 0x3f
 15877 5b84 B8140000 		.4byte	.LVL402
 15878 5b88 26620000 		.4byte	0x6226
 15879 5b8c 9A5B0000 		.4byte	0x5b9a
 15880 5b90 39       		.uleb128 0x39
 15881 5b91 01       		.uleb128 0x1
 15882 5b92 50       		.byte	0x50
 15883 5b93 05       		.uleb128 0x5
 15884 5b94 03       		.byte	0x3
 15885 5b95 C00E0000 		.4byte	.LC155
 15886 5b99 00       		.byte	0
 15887 5b9a 3F       		.uleb128 0x3f
 15888 5b9b BE140000 		.4byte	.LVL403
 15889 5b9f 26620000 		.4byte	0x6226
 15890 5ba3 B15B0000 		.4byte	0x5bb1
 15891 5ba7 39       		.uleb128 0x39
 15892 5ba8 01       		.uleb128 0x1
 15893 5ba9 50       		.byte	0x50
 15894 5baa 05       		.uleb128 0x5
 15895 5bab 03       		.byte	0x3
 15896 5bac 18020000 		.4byte	.LC25
 15897 5bb0 00       		.byte	0
 15898 5bb1 3F       		.uleb128 0x3f
 15899 5bb2 C4140000 		.4byte	.LVL404
ARM GAS  /tmp/ccU5UnMV.s 			page 294


 15900 5bb6 26620000 		.4byte	0x6226
 15901 5bba C85B0000 		.4byte	0x5bc8
 15902 5bbe 39       		.uleb128 0x39
 15903 5bbf 01       		.uleb128 0x1
 15904 5bc0 50       		.byte	0x50
 15905 5bc1 05       		.uleb128 0x5
 15906 5bc2 03       		.byte	0x3
 15907 5bc3 D40E0000 		.4byte	.LC156
 15908 5bc7 00       		.byte	0
 15909 5bc8 3F       		.uleb128 0x3f
 15910 5bc9 CA140000 		.4byte	.LVL405
 15911 5bcd 26620000 		.4byte	0x6226
 15912 5bd1 DF5B0000 		.4byte	0x5bdf
 15913 5bd5 39       		.uleb128 0x39
 15914 5bd6 01       		.uleb128 0x1
 15915 5bd7 50       		.byte	0x50
 15916 5bd8 05       		.uleb128 0x5
 15917 5bd9 03       		.byte	0x3
 15918 5bda 24020000 		.4byte	.LC27
 15919 5bde 00       		.byte	0
 15920 5bdf 3F       		.uleb128 0x3f
 15921 5be0 D0140000 		.4byte	.LVL406
 15922 5be4 26620000 		.4byte	0x6226
 15923 5be8 F65B0000 		.4byte	0x5bf6
 15924 5bec 39       		.uleb128 0x39
 15925 5bed 01       		.uleb128 0x1
 15926 5bee 50       		.byte	0x50
 15927 5bef 05       		.uleb128 0x5
 15928 5bf0 03       		.byte	0x3
 15929 5bf1 F40E0000 		.4byte	.LC157
 15930 5bf5 00       		.byte	0
 15931 5bf6 3F       		.uleb128 0x3f
 15932 5bf7 D6140000 		.4byte	.LVL407
 15933 5bfb 26620000 		.4byte	0x6226
 15934 5bff 0D5C0000 		.4byte	0x5c0d
 15935 5c03 39       		.uleb128 0x39
 15936 5c04 01       		.uleb128 0x1
 15937 5c05 50       		.byte	0x50
 15938 5c06 05       		.uleb128 0x5
 15939 5c07 03       		.byte	0x3
 15940 5c08 EC030000 		.4byte	.LC45
 15941 5c0c 00       		.byte	0
 15942 5c0d 3F       		.uleb128 0x3f
 15943 5c0e DC140000 		.4byte	.LVL408
 15944 5c12 26620000 		.4byte	0x6226
 15945 5c16 245C0000 		.4byte	0x5c24
 15946 5c1a 39       		.uleb128 0x39
 15947 5c1b 01       		.uleb128 0x1
 15948 5c1c 50       		.byte	0x50
 15949 5c1d 05       		.uleb128 0x5
 15950 5c1e 03       		.byte	0x3
 15951 5c1f 380F0000 		.4byte	.LC158
 15952 5c23 00       		.byte	0
 15953 5c24 3F       		.uleb128 0x3f
 15954 5c25 E2140000 		.4byte	.LVL409
 15955 5c29 26620000 		.4byte	0x6226
 15956 5c2d 3B5C0000 		.4byte	0x5c3b
ARM GAS  /tmp/ccU5UnMV.s 			page 295


 15957 5c31 39       		.uleb128 0x39
 15958 5c32 01       		.uleb128 0x1
 15959 5c33 50       		.byte	0x50
 15960 5c34 05       		.uleb128 0x5
 15961 5c35 03       		.byte	0x3
 15962 5c36 0C040000 		.4byte	.LC47
 15963 5c3a 00       		.byte	0
 15964 5c3b 3F       		.uleb128 0x3f
 15965 5c3c E8140000 		.4byte	.LVL410
 15966 5c40 26620000 		.4byte	0x6226
 15967 5c44 525C0000 		.4byte	0x5c52
 15968 5c48 39       		.uleb128 0x39
 15969 5c49 01       		.uleb128 0x1
 15970 5c4a 50       		.byte	0x50
 15971 5c4b 05       		.uleb128 0x5
 15972 5c4c 03       		.byte	0x3
 15973 5c4d 5C0F0000 		.4byte	.LC159
 15974 5c51 00       		.byte	0
 15975 5c52 3F       		.uleb128 0x3f
 15976 5c53 EE140000 		.4byte	.LVL411
 15977 5c57 26620000 		.4byte	0x6226
 15978 5c5b 695C0000 		.4byte	0x5c69
 15979 5c5f 39       		.uleb128 0x39
 15980 5c60 01       		.uleb128 0x1
 15981 5c61 50       		.byte	0x50
 15982 5c62 05       		.uleb128 0x5
 15983 5c63 03       		.byte	0x3
 15984 5c64 2C040000 		.4byte	.LC49
 15985 5c68 00       		.byte	0
 15986 5c69 3F       		.uleb128 0x3f
 15987 5c6a F4140000 		.4byte	.LVL412
 15988 5c6e 26620000 		.4byte	0x6226
 15989 5c72 805C0000 		.4byte	0x5c80
 15990 5c76 39       		.uleb128 0x39
 15991 5c77 01       		.uleb128 0x1
 15992 5c78 50       		.byte	0x50
 15993 5c79 05       		.uleb128 0x5
 15994 5c7a 03       		.byte	0x3
 15995 5c7b 780F0000 		.4byte	.LC160
 15996 5c7f 00       		.byte	0
 15997 5c80 3F       		.uleb128 0x3f
 15998 5c81 FA140000 		.4byte	.LVL413
 15999 5c85 26620000 		.4byte	0x6226
 16000 5c89 975C0000 		.4byte	0x5c97
 16001 5c8d 39       		.uleb128 0x39
 16002 5c8e 01       		.uleb128 0x1
 16003 5c8f 50       		.byte	0x50
 16004 5c90 05       		.uleb128 0x5
 16005 5c91 03       		.byte	0x3
 16006 5c92 E4040000 		.4byte	.LC61
 16007 5c96 00       		.byte	0
 16008 5c97 3F       		.uleb128 0x3f
 16009 5c98 00150000 		.4byte	.LVL414
 16010 5c9c 26620000 		.4byte	0x6226
 16011 5ca0 AE5C0000 		.4byte	0x5cae
 16012 5ca4 39       		.uleb128 0x39
 16013 5ca5 01       		.uleb128 0x1
ARM GAS  /tmp/ccU5UnMV.s 			page 296


 16014 5ca6 50       		.byte	0x50
 16015 5ca7 05       		.uleb128 0x5
 16016 5ca8 03       		.byte	0x3
 16017 5ca9 980F0000 		.4byte	.LC161
 16018 5cad 00       		.byte	0
 16019 5cae 3F       		.uleb128 0x3f
 16020 5caf 06150000 		.4byte	.LVL415
 16021 5cb3 26620000 		.4byte	0x6226
 16022 5cb7 C55C0000 		.4byte	0x5cc5
 16023 5cbb 39       		.uleb128 0x39
 16024 5cbc 01       		.uleb128 0x1
 16025 5cbd 50       		.byte	0x50
 16026 5cbe 05       		.uleb128 0x5
 16027 5cbf 03       		.byte	0x3
 16028 5cc0 B40F0000 		.4byte	.LC162
 16029 5cc4 00       		.byte	0
 16030 5cc5 3F       		.uleb128 0x3f
 16031 5cc6 0C150000 		.4byte	.LVL416
 16032 5cca 26620000 		.4byte	0x6226
 16033 5cce DC5C0000 		.4byte	0x5cdc
 16034 5cd2 39       		.uleb128 0x39
 16035 5cd3 01       		.uleb128 0x1
 16036 5cd4 50       		.byte	0x50
 16037 5cd5 05       		.uleb128 0x5
 16038 5cd6 03       		.byte	0x3
 16039 5cd7 E00F0000 		.4byte	.LC163
 16040 5cdb 00       		.byte	0
 16041 5cdc 3F       		.uleb128 0x3f
 16042 5cdd 12150000 		.4byte	.LVL417
 16043 5ce1 26620000 		.4byte	0x6226
 16044 5ce5 F35C0000 		.4byte	0x5cf3
 16045 5ce9 39       		.uleb128 0x39
 16046 5cea 01       		.uleb128 0x1
 16047 5ceb 50       		.byte	0x50
 16048 5cec 05       		.uleb128 0x5
 16049 5ced 03       		.byte	0x3
 16050 5cee 24100000 		.4byte	.LC164
 16051 5cf2 00       		.byte	0
 16052 5cf3 3F       		.uleb128 0x3f
 16053 5cf4 18150000 		.4byte	.LVL418
 16054 5cf8 26620000 		.4byte	0x6226
 16055 5cfc 0A5D0000 		.4byte	0x5d0a
 16056 5d00 39       		.uleb128 0x39
 16057 5d01 01       		.uleb128 0x1
 16058 5d02 50       		.byte	0x50
 16059 5d03 05       		.uleb128 0x5
 16060 5d04 03       		.byte	0x3
 16061 5d05 60100000 		.4byte	.LC165
 16062 5d09 00       		.byte	0
 16063 5d0a 3F       		.uleb128 0x3f
 16064 5d0b 1E150000 		.4byte	.LVL419
 16065 5d0f 26620000 		.4byte	0x6226
 16066 5d13 215D0000 		.4byte	0x5d21
 16067 5d17 39       		.uleb128 0x39
 16068 5d18 01       		.uleb128 0x1
 16069 5d19 50       		.byte	0x50
 16070 5d1a 05       		.uleb128 0x5
ARM GAS  /tmp/ccU5UnMV.s 			page 297


 16071 5d1b 03       		.byte	0x3
 16072 5d1c 84060000 		.4byte	.LC75
 16073 5d20 00       		.byte	0
 16074 5d21 3F       		.uleb128 0x3f
 16075 5d22 24150000 		.4byte	.LVL420
 16076 5d26 26620000 		.4byte	0x6226
 16077 5d2a 385D0000 		.4byte	0x5d38
 16078 5d2e 39       		.uleb128 0x39
 16079 5d2f 01       		.uleb128 0x1
 16080 5d30 50       		.byte	0x50
 16081 5d31 05       		.uleb128 0x5
 16082 5d32 03       		.byte	0x3
 16083 5d33 88100000 		.4byte	.LC166
 16084 5d37 00       		.byte	0
 16085 5d38 3F       		.uleb128 0x3f
 16086 5d39 2A150000 		.4byte	.LVL421
 16087 5d3d 26620000 		.4byte	0x6226
 16088 5d41 4F5D0000 		.4byte	0x5d4f
 16089 5d45 39       		.uleb128 0x39
 16090 5d46 01       		.uleb128 0x1
 16091 5d47 50       		.byte	0x50
 16092 5d48 05       		.uleb128 0x5
 16093 5d49 03       		.byte	0x3
 16094 5d4a E0060000 		.4byte	.LC79
 16095 5d4e 00       		.byte	0
 16096 5d4f 3F       		.uleb128 0x3f
 16097 5d50 30150000 		.4byte	.LVL422
 16098 5d54 26620000 		.4byte	0x6226
 16099 5d58 665D0000 		.4byte	0x5d66
 16100 5d5c 39       		.uleb128 0x39
 16101 5d5d 01       		.uleb128 0x1
 16102 5d5e 50       		.byte	0x50
 16103 5d5f 05       		.uleb128 0x5
 16104 5d60 03       		.byte	0x3
 16105 5d61 A8100000 		.4byte	.LC167
 16106 5d65 00       		.byte	0
 16107 5d66 3F       		.uleb128 0x3f
 16108 5d67 36150000 		.4byte	.LVL423
 16109 5d6b 26620000 		.4byte	0x6226
 16110 5d6f 7D5D0000 		.4byte	0x5d7d
 16111 5d73 39       		.uleb128 0x39
 16112 5d74 01       		.uleb128 0x1
 16113 5d75 50       		.byte	0x50
 16114 5d76 05       		.uleb128 0x5
 16115 5d77 03       		.byte	0x3
 16116 5d78 E4100000 		.4byte	.LC168
 16117 5d7c 00       		.byte	0
 16118 5d7d 3F       		.uleb128 0x3f
 16119 5d7e 3C150000 		.4byte	.LVL424
 16120 5d82 26620000 		.4byte	0x6226
 16121 5d86 945D0000 		.4byte	0x5d94
 16122 5d8a 39       		.uleb128 0x39
 16123 5d8b 01       		.uleb128 0x1
 16124 5d8c 50       		.byte	0x50
 16125 5d8d 05       		.uleb128 0x5
 16126 5d8e 03       		.byte	0x3
 16127 5d8f 04110000 		.4byte	.LC169
ARM GAS  /tmp/ccU5UnMV.s 			page 298


 16128 5d93 00       		.byte	0
 16129 5d94 3F       		.uleb128 0x3f
 16130 5d95 42150000 		.4byte	.LVL425
 16131 5d99 26620000 		.4byte	0x6226
 16132 5d9d AB5D0000 		.4byte	0x5dab
 16133 5da1 39       		.uleb128 0x39
 16134 5da2 01       		.uleb128 0x1
 16135 5da3 50       		.byte	0x50
 16136 5da4 05       		.uleb128 0x5
 16137 5da5 03       		.byte	0x3
 16138 5da6 48110000 		.4byte	.LC170
 16139 5daa 00       		.byte	0
 16140 5dab 3F       		.uleb128 0x3f
 16141 5dac 48150000 		.4byte	.LVL426
 16142 5db0 26620000 		.4byte	0x6226
 16143 5db4 C25D0000 		.4byte	0x5dc2
 16144 5db8 39       		.uleb128 0x39
 16145 5db9 01       		.uleb128 0x1
 16146 5dba 50       		.byte	0x50
 16147 5dbb 05       		.uleb128 0x5
 16148 5dbc 03       		.byte	0x3
 16149 5dbd 60110000 		.4byte	.LC171
 16150 5dc1 00       		.byte	0
 16151 5dc2 3F       		.uleb128 0x3f
 16152 5dc3 4E150000 		.4byte	.LVL427
 16153 5dc7 26620000 		.4byte	0x6226
 16154 5dcb D95D0000 		.4byte	0x5dd9
 16155 5dcf 39       		.uleb128 0x39
 16156 5dd0 01       		.uleb128 0x1
 16157 5dd1 50       		.byte	0x50
 16158 5dd2 05       		.uleb128 0x5
 16159 5dd3 03       		.byte	0x3
 16160 5dd4 A0110000 		.4byte	.LC172
 16161 5dd8 00       		.byte	0
 16162 5dd9 3F       		.uleb128 0x3f
 16163 5dda 54150000 		.4byte	.LVL428
 16164 5dde 26620000 		.4byte	0x6226
 16165 5de2 F05D0000 		.4byte	0x5df0
 16166 5de6 39       		.uleb128 0x39
 16167 5de7 01       		.uleb128 0x1
 16168 5de8 50       		.byte	0x50
 16169 5de9 05       		.uleb128 0x5
 16170 5dea 03       		.byte	0x3
 16171 5deb B4110000 		.4byte	.LC173
 16172 5def 00       		.byte	0
 16173 5df0 3F       		.uleb128 0x3f
 16174 5df1 5A150000 		.4byte	.LVL429
 16175 5df5 26620000 		.4byte	0x6226
 16176 5df9 075E0000 		.4byte	0x5e07
 16177 5dfd 39       		.uleb128 0x39
 16178 5dfe 01       		.uleb128 0x1
 16179 5dff 50       		.byte	0x50
 16180 5e00 05       		.uleb128 0x5
 16181 5e01 03       		.byte	0x3
 16182 5e02 08120000 		.4byte	.LC174
 16183 5e06 00       		.byte	0
 16184 5e07 3F       		.uleb128 0x3f
ARM GAS  /tmp/ccU5UnMV.s 			page 299


 16185 5e08 60150000 		.4byte	.LVL430
 16186 5e0c 26620000 		.4byte	0x6226
 16187 5e10 1E5E0000 		.4byte	0x5e1e
 16188 5e14 39       		.uleb128 0x39
 16189 5e15 01       		.uleb128 0x1
 16190 5e16 50       		.byte	0x50
 16191 5e17 05       		.uleb128 0x5
 16192 5e18 03       		.byte	0x3
 16193 5e19 40120000 		.4byte	.LC175
 16194 5e1d 00       		.byte	0
 16195 5e1e 3F       		.uleb128 0x3f
 16196 5e1f 66150000 		.4byte	.LVL431
 16197 5e23 26620000 		.4byte	0x6226
 16198 5e27 355E0000 		.4byte	0x5e35
 16199 5e2b 39       		.uleb128 0x39
 16200 5e2c 01       		.uleb128 0x1
 16201 5e2d 50       		.byte	0x50
 16202 5e2e 05       		.uleb128 0x5
 16203 5e2f 03       		.byte	0x3
 16204 5e30 80120000 		.4byte	.LC176
 16205 5e34 00       		.byte	0
 16206 5e35 3F       		.uleb128 0x3f
 16207 5e36 6C150000 		.4byte	.LVL432
 16208 5e3a 26620000 		.4byte	0x6226
 16209 5e3e 4C5E0000 		.4byte	0x5e4c
 16210 5e42 39       		.uleb128 0x39
 16211 5e43 01       		.uleb128 0x1
 16212 5e44 50       		.byte	0x50
 16213 5e45 05       		.uleb128 0x5
 16214 5e46 03       		.byte	0x3
 16215 5e47 AC120000 		.4byte	.LC177
 16216 5e4b 00       		.byte	0
 16217 5e4c 3F       		.uleb128 0x3f
 16218 5e4d 72150000 		.4byte	.LVL433
 16219 5e51 26620000 		.4byte	0x6226
 16220 5e55 635E0000 		.4byte	0x5e63
 16221 5e59 39       		.uleb128 0x39
 16222 5e5a 01       		.uleb128 0x1
 16223 5e5b 50       		.byte	0x50
 16224 5e5c 05       		.uleb128 0x5
 16225 5e5d 03       		.byte	0x3
 16226 5e5e E4080000 		.4byte	.LC100
 16227 5e62 00       		.byte	0
 16228 5e63 3F       		.uleb128 0x3f
 16229 5e64 78150000 		.4byte	.LVL434
 16230 5e68 26620000 		.4byte	0x6226
 16231 5e6c 7A5E0000 		.4byte	0x5e7a
 16232 5e70 39       		.uleb128 0x39
 16233 5e71 01       		.uleb128 0x1
 16234 5e72 50       		.byte	0x50
 16235 5e73 05       		.uleb128 0x5
 16236 5e74 03       		.byte	0x3
 16237 5e75 E4120000 		.4byte	.LC178
 16238 5e79 00       		.byte	0
 16239 5e7a 3F       		.uleb128 0x3f
 16240 5e7b 7E150000 		.4byte	.LVL435
 16241 5e7f 26620000 		.4byte	0x6226
ARM GAS  /tmp/ccU5UnMV.s 			page 300


 16242 5e83 915E0000 		.4byte	0x5e91
 16243 5e87 39       		.uleb128 0x39
 16244 5e88 01       		.uleb128 0x1
 16245 5e89 50       		.byte	0x50
 16246 5e8a 05       		.uleb128 0x5
 16247 5e8b 03       		.byte	0x3
 16248 5e8c 3C130000 		.4byte	.LC179
 16249 5e90 00       		.byte	0
 16250 5e91 3F       		.uleb128 0x3f
 16251 5e92 84150000 		.4byte	.LVL436
 16252 5e96 26620000 		.4byte	0x6226
 16253 5e9a A85E0000 		.4byte	0x5ea8
 16254 5e9e 39       		.uleb128 0x39
 16255 5e9f 01       		.uleb128 0x1
 16256 5ea0 50       		.byte	0x50
 16257 5ea1 05       		.uleb128 0x5
 16258 5ea2 03       		.byte	0x3
 16259 5ea3 58130000 		.4byte	.LC180
 16260 5ea7 00       		.byte	0
 16261 5ea8 3F       		.uleb128 0x3f
 16262 5ea9 8A150000 		.4byte	.LVL437
 16263 5ead 26620000 		.4byte	0x6226
 16264 5eb1 BF5E0000 		.4byte	0x5ebf
 16265 5eb5 39       		.uleb128 0x39
 16266 5eb6 01       		.uleb128 0x1
 16267 5eb7 50       		.byte	0x50
 16268 5eb8 05       		.uleb128 0x5
 16269 5eb9 03       		.byte	0x3
 16270 5eba 90130000 		.4byte	.LC181
 16271 5ebe 00       		.byte	0
 16272 5ebf 3F       		.uleb128 0x3f
 16273 5ec0 90150000 		.4byte	.LVL438
 16274 5ec4 26620000 		.4byte	0x6226
 16275 5ec8 D65E0000 		.4byte	0x5ed6
 16276 5ecc 39       		.uleb128 0x39
 16277 5ecd 01       		.uleb128 0x1
 16278 5ece 50       		.byte	0x50
 16279 5ecf 05       		.uleb128 0x5
 16280 5ed0 03       		.byte	0x3
 16281 5ed1 D8130000 		.4byte	.LC182
 16282 5ed5 00       		.byte	0
 16283 5ed6 3F       		.uleb128 0x3f
 16284 5ed7 96150000 		.4byte	.LVL439
 16285 5edb 26620000 		.4byte	0x6226
 16286 5edf ED5E0000 		.4byte	0x5eed
 16287 5ee3 39       		.uleb128 0x39
 16288 5ee4 01       		.uleb128 0x1
 16289 5ee5 50       		.byte	0x50
 16290 5ee6 05       		.uleb128 0x5
 16291 5ee7 03       		.byte	0x3
 16292 5ee8 18140000 		.4byte	.LC183
 16293 5eec 00       		.byte	0
 16294 5eed 3F       		.uleb128 0x3f
 16295 5eee 9C150000 		.4byte	.LVL440
 16296 5ef2 26620000 		.4byte	0x6226
 16297 5ef6 045F0000 		.4byte	0x5f04
 16298 5efa 39       		.uleb128 0x39
ARM GAS  /tmp/ccU5UnMV.s 			page 301


 16299 5efb 01       		.uleb128 0x1
 16300 5efc 50       		.byte	0x50
 16301 5efd 05       		.uleb128 0x5
 16302 5efe 03       		.byte	0x3
 16303 5eff AC120000 		.4byte	.LC177
 16304 5f03 00       		.byte	0
 16305 5f04 3F       		.uleb128 0x3f
 16306 5f05 A2150000 		.4byte	.LVL441
 16307 5f09 26620000 		.4byte	0x6226
 16308 5f0d 1B5F0000 		.4byte	0x5f1b
 16309 5f11 39       		.uleb128 0x39
 16310 5f12 01       		.uleb128 0x1
 16311 5f13 50       		.byte	0x50
 16312 5f14 05       		.uleb128 0x5
 16313 5f15 03       		.byte	0x3
 16314 5f16 5C090000 		.4byte	.LC105
 16315 5f1a 00       		.byte	0
 16316 5f1b 3F       		.uleb128 0x3f
 16317 5f1c A8150000 		.4byte	.LVL442
 16318 5f20 26620000 		.4byte	0x6226
 16319 5f24 325F0000 		.4byte	0x5f32
 16320 5f28 39       		.uleb128 0x39
 16321 5f29 01       		.uleb128 0x1
 16322 5f2a 50       		.byte	0x50
 16323 5f2b 05       		.uleb128 0x5
 16324 5f2c 03       		.byte	0x3
 16325 5f2d 44140000 		.4byte	.LC184
 16326 5f31 00       		.byte	0
 16327 5f32 3F       		.uleb128 0x3f
 16328 5f33 AE150000 		.4byte	.LVL443
 16329 5f37 26620000 		.4byte	0x6226
 16330 5f3b 495F0000 		.4byte	0x5f49
 16331 5f3f 39       		.uleb128 0x39
 16332 5f40 01       		.uleb128 0x1
 16333 5f41 50       		.byte	0x50
 16334 5f42 05       		.uleb128 0x5
 16335 5f43 03       		.byte	0x3
 16336 5f44 68090000 		.4byte	.LC106
 16337 5f48 00       		.byte	0
 16338 5f49 3F       		.uleb128 0x3f
 16339 5f4a B4150000 		.4byte	.LVL444
 16340 5f4e 26620000 		.4byte	0x6226
 16341 5f52 605F0000 		.4byte	0x5f60
 16342 5f56 39       		.uleb128 0x39
 16343 5f57 01       		.uleb128 0x1
 16344 5f58 50       		.byte	0x50
 16345 5f59 05       		.uleb128 0x5
 16346 5f5a 03       		.byte	0x3
 16347 5f5b 68140000 		.4byte	.LC185
 16348 5f5f 00       		.byte	0
 16349 5f60 3F       		.uleb128 0x3f
 16350 5f61 BA150000 		.4byte	.LVL445
 16351 5f65 26620000 		.4byte	0x6226
 16352 5f69 775F0000 		.4byte	0x5f77
 16353 5f6d 39       		.uleb128 0x39
 16354 5f6e 01       		.uleb128 0x1
 16355 5f6f 50       		.byte	0x50
ARM GAS  /tmp/ccU5UnMV.s 			page 302


 16356 5f70 05       		.uleb128 0x5
 16357 5f71 03       		.byte	0x3
 16358 5f72 94140000 		.4byte	.LC186
 16359 5f76 00       		.byte	0
 16360 5f77 3F       		.uleb128 0x3f
 16361 5f78 C0150000 		.4byte	.LVL446
 16362 5f7c 26620000 		.4byte	0x6226
 16363 5f80 8E5F0000 		.4byte	0x5f8e
 16364 5f84 39       		.uleb128 0x39
 16365 5f85 01       		.uleb128 0x1
 16366 5f86 50       		.byte	0x50
 16367 5f87 05       		.uleb128 0x5
 16368 5f88 03       		.byte	0x3
 16369 5f89 B4140000 		.4byte	.LC187
 16370 5f8d 00       		.byte	0
 16371 5f8e 3F       		.uleb128 0x3f
 16372 5f8f C6150000 		.4byte	.LVL447
 16373 5f93 26620000 		.4byte	0x6226
 16374 5f97 A55F0000 		.4byte	0x5fa5
 16375 5f9b 39       		.uleb128 0x39
 16376 5f9c 01       		.uleb128 0x1
 16377 5f9d 50       		.byte	0x50
 16378 5f9e 05       		.uleb128 0x5
 16379 5f9f 03       		.byte	0x3
 16380 5fa0 E4140000 		.4byte	.LC188
 16381 5fa4 00       		.byte	0
 16382 5fa5 3F       		.uleb128 0x3f
 16383 5fa6 CC150000 		.4byte	.LVL448
 16384 5faa 26620000 		.4byte	0x6226
 16385 5fae BC5F0000 		.4byte	0x5fbc
 16386 5fb2 39       		.uleb128 0x39
 16387 5fb3 01       		.uleb128 0x1
 16388 5fb4 50       		.byte	0x50
 16389 5fb5 05       		.uleb128 0x5
 16390 5fb6 03       		.byte	0x3
 16391 5fb7 04150000 		.4byte	.LC189
 16392 5fbb 00       		.byte	0
 16393 5fbc 3F       		.uleb128 0x3f
 16394 5fbd D2150000 		.4byte	.LVL449
 16395 5fc1 26620000 		.4byte	0x6226
 16396 5fc5 D35F0000 		.4byte	0x5fd3
 16397 5fc9 39       		.uleb128 0x39
 16398 5fca 01       		.uleb128 0x1
 16399 5fcb 50       		.byte	0x50
 16400 5fcc 05       		.uleb128 0x5
 16401 5fcd 03       		.byte	0x3
 16402 5fce 34150000 		.4byte	.LC190
 16403 5fd2 00       		.byte	0
 16404 5fd3 3F       		.uleb128 0x3f
 16405 5fd4 D8150000 		.4byte	.LVL450
 16406 5fd8 26620000 		.4byte	0x6226
 16407 5fdc EA5F0000 		.4byte	0x5fea
 16408 5fe0 39       		.uleb128 0x39
 16409 5fe1 01       		.uleb128 0x1
 16410 5fe2 50       		.byte	0x50
 16411 5fe3 05       		.uleb128 0x5
 16412 5fe4 03       		.byte	0x3
ARM GAS  /tmp/ccU5UnMV.s 			page 303


 16413 5fe5 54150000 		.4byte	.LC191
 16414 5fe9 00       		.byte	0
 16415 5fea 3F       		.uleb128 0x3f
 16416 5feb DE150000 		.4byte	.LVL451
 16417 5fef 26620000 		.4byte	0x6226
 16418 5ff3 01600000 		.4byte	0x6001
 16419 5ff7 39       		.uleb128 0x39
 16420 5ff8 01       		.uleb128 0x1
 16421 5ff9 50       		.byte	0x50
 16422 5ffa 05       		.uleb128 0x5
 16423 5ffb 03       		.byte	0x3
 16424 5ffc 7C150000 		.4byte	.LC192
 16425 6000 00       		.byte	0
 16426 6001 3F       		.uleb128 0x3f
 16427 6002 E4150000 		.4byte	.LVL452
 16428 6006 26620000 		.4byte	0x6226
 16429 600a 18600000 		.4byte	0x6018
 16430 600e 39       		.uleb128 0x39
 16431 600f 01       		.uleb128 0x1
 16432 6010 50       		.byte	0x50
 16433 6011 05       		.uleb128 0x5
 16434 6012 03       		.byte	0x3
 16435 6013 A0150000 		.4byte	.LC193
 16436 6017 00       		.byte	0
 16437 6018 3F       		.uleb128 0x3f
 16438 6019 EA150000 		.4byte	.LVL453
 16439 601d 26620000 		.4byte	0x6226
 16440 6021 2F600000 		.4byte	0x602f
 16441 6025 39       		.uleb128 0x39
 16442 6026 01       		.uleb128 0x1
 16443 6027 50       		.byte	0x50
 16444 6028 05       		.uleb128 0x5
 16445 6029 03       		.byte	0x3
 16446 602a E4150000 		.4byte	.LC194
 16447 602e 00       		.byte	0
 16448 602f 3F       		.uleb128 0x3f
 16449 6030 F0150000 		.4byte	.LVL454
 16450 6034 26620000 		.4byte	0x6226
 16451 6038 46600000 		.4byte	0x6046
 16452 603c 39       		.uleb128 0x39
 16453 603d 01       		.uleb128 0x1
 16454 603e 50       		.byte	0x50
 16455 603f 05       		.uleb128 0x5
 16456 6040 03       		.byte	0x3
 16457 6041 1C160000 		.4byte	.LC195
 16458 6045 00       		.byte	0
 16459 6046 3F       		.uleb128 0x3f
 16460 6047 F6150000 		.4byte	.LVL455
 16461 604b 26620000 		.4byte	0x6226
 16462 604f 5D600000 		.4byte	0x605d
 16463 6053 39       		.uleb128 0x39
 16464 6054 01       		.uleb128 0x1
 16465 6055 50       		.byte	0x50
 16466 6056 05       		.uleb128 0x5
 16467 6057 03       		.byte	0x3
 16468 6058 68160000 		.4byte	.LC196
 16469 605c 00       		.byte	0
ARM GAS  /tmp/ccU5UnMV.s 			page 304


 16470 605d 3F       		.uleb128 0x3f
 16471 605e FC150000 		.4byte	.LVL456
 16472 6062 26620000 		.4byte	0x6226
 16473 6066 74600000 		.4byte	0x6074
 16474 606a 39       		.uleb128 0x39
 16475 606b 01       		.uleb128 0x1
 16476 606c 50       		.byte	0x50
 16477 606d 05       		.uleb128 0x5
 16478 606e 03       		.byte	0x3
 16479 606f 90160000 		.4byte	.LC197
 16480 6073 00       		.byte	0
 16481 6074 3F       		.uleb128 0x3f
 16482 6075 02160000 		.4byte	.LVL457
 16483 6079 26620000 		.4byte	0x6226
 16484 607d 8B600000 		.4byte	0x608b
 16485 6081 39       		.uleb128 0x39
 16486 6082 01       		.uleb128 0x1
 16487 6083 50       		.byte	0x50
 16488 6084 05       		.uleb128 0x5
 16489 6085 03       		.byte	0x3
 16490 6086 B8160000 		.4byte	.LC198
 16491 608a 00       		.byte	0
 16492 608b 3F       		.uleb128 0x3f
 16493 608c 08160000 		.4byte	.LVL458
 16494 6090 26620000 		.4byte	0x6226
 16495 6094 A2600000 		.4byte	0x60a2
 16496 6098 39       		.uleb128 0x39
 16497 6099 01       		.uleb128 0x1
 16498 609a 50       		.byte	0x50
 16499 609b 05       		.uleb128 0x5
 16500 609c 03       		.byte	0x3
 16501 609d B00C0000 		.4byte	.LC139
 16502 60a1 00       		.byte	0
 16503 60a2 3F       		.uleb128 0x3f
 16504 60a3 0E160000 		.4byte	.LVL459
 16505 60a7 26620000 		.4byte	0x6226
 16506 60ab B9600000 		.4byte	0x60b9
 16507 60af 39       		.uleb128 0x39
 16508 60b0 01       		.uleb128 0x1
 16509 60b1 50       		.byte	0x50
 16510 60b2 05       		.uleb128 0x5
 16511 60b3 03       		.byte	0x3
 16512 60b4 10170000 		.4byte	.LC199
 16513 60b8 00       		.byte	0
 16514 60b9 3F       		.uleb128 0x3f
 16515 60ba 14160000 		.4byte	.LVL460
 16516 60be 26620000 		.4byte	0x6226
 16517 60c2 D0600000 		.4byte	0x60d0
 16518 60c6 39       		.uleb128 0x39
 16519 60c7 01       		.uleb128 0x1
 16520 60c8 50       		.byte	0x50
 16521 60c9 05       		.uleb128 0x5
 16522 60ca 03       		.byte	0x3
 16523 60cb 5C170000 		.4byte	.LC200
 16524 60cf 00       		.byte	0
 16525 60d0 3F       		.uleb128 0x3f
 16526 60d1 1A160000 		.4byte	.LVL461
ARM GAS  /tmp/ccU5UnMV.s 			page 305


 16527 60d5 26620000 		.4byte	0x6226
 16528 60d9 E7600000 		.4byte	0x60e7
 16529 60dd 39       		.uleb128 0x39
 16530 60de 01       		.uleb128 0x1
 16531 60df 50       		.byte	0x50
 16532 60e0 05       		.uleb128 0x5
 16533 60e1 03       		.byte	0x3
 16534 60e2 88170000 		.4byte	.LC201
 16535 60e6 00       		.byte	0
 16536 60e7 3F       		.uleb128 0x3f
 16537 60e8 20160000 		.4byte	.LVL462
 16538 60ec 26620000 		.4byte	0x6226
 16539 60f0 FE600000 		.4byte	0x60fe
 16540 60f4 39       		.uleb128 0x39
 16541 60f5 01       		.uleb128 0x1
 16542 60f6 50       		.byte	0x50
 16543 60f7 05       		.uleb128 0x5
 16544 60f8 03       		.byte	0x3
 16545 60f9 E4170000 		.4byte	.LC202
 16546 60fd 00       		.byte	0
 16547 60fe 3F       		.uleb128 0x3f
 16548 60ff 26160000 		.4byte	.LVL463
 16549 6103 26620000 		.4byte	0x6226
 16550 6107 15610000 		.4byte	0x6115
 16551 610b 39       		.uleb128 0x39
 16552 610c 01       		.uleb128 0x1
 16553 610d 50       		.byte	0x50
 16554 610e 05       		.uleb128 0x5
 16555 610f 03       		.byte	0x3
 16556 6110 080D0000 		.4byte	.LC143
 16557 6114 00       		.byte	0
 16558 6115 3F       		.uleb128 0x3f
 16559 6116 2C160000 		.4byte	.LVL464
 16560 611a 26620000 		.4byte	0x6226
 16561 611e 2C610000 		.4byte	0x612c
 16562 6122 39       		.uleb128 0x39
 16563 6123 01       		.uleb128 0x1
 16564 6124 50       		.byte	0x50
 16565 6125 05       		.uleb128 0x5
 16566 6126 03       		.byte	0x3
 16567 6127 20180000 		.4byte	.LC203
 16568 612b 00       		.byte	0
 16569 612c 38       		.uleb128 0x38
 16570 612d 8C160000 		.4byte	.LVL475
 16571 6131 26620000 		.4byte	0x6226
 16572 6135 39       		.uleb128 0x39
 16573 6136 01       		.uleb128 0x1
 16574 6137 50       		.byte	0x50
 16575 6138 05       		.uleb128 0x5
 16576 6139 03       		.byte	0x3
 16577 613a 18000000 		.4byte	.LC4
 16578 613e 00       		.byte	0
 16579 613f 00       		.byte	0
 16580 6140 11       		.uleb128 0x11
 16581 6141 B0320000 		.4byte	0x32b0
 16582 6145 50610000 		.4byte	0x6150
 16583 6149 12       		.uleb128 0x12
ARM GAS  /tmp/ccU5UnMV.s 			page 306


 16584 614a 48000000 		.4byte	0x48
 16585 614e 3F       		.byte	0x3f
 16586 614f 00       		.byte	0
 16587 6150 11       		.uleb128 0x11
 16588 6151 ED0C0000 		.4byte	0xced
 16589 6155 60610000 		.4byte	0x6160
 16590 6159 12       		.uleb128 0x12
 16591 615a 48000000 		.4byte	0x48
 16592 615e 0F       		.byte	0xf
 16593 615f 00       		.byte	0
 16594 6160 0B       		.uleb128 0xb
 16595 6161 04       		.byte	0x4
 16596 6162 8A1B0000 		.4byte	0x1b8a
 16597 6166 11       		.uleb128 0x11
 16598 6167 D4000000 		.4byte	0xd4
 16599 616b 76610000 		.4byte	0x6176
 16600 616f 12       		.uleb128 0x12
 16601 6170 48000000 		.4byte	0x48
 16602 6174 01       		.byte	0x1
 16603 6175 00       		.byte	0
 16604 6176 4E       		.uleb128 0x4e
 16605 6177 72290000 		.4byte	.LASF1030
 16606 617b 02       		.byte	0x2
 16607 617c 0901     		.2byte	0x109
 16608 617e 8D010000 		.4byte	0x18d
 16609 6182 03       		.byte	0x3
 16610 6183 94610000 		.4byte	0x6194
 16611 6187 4F       		.uleb128 0x4f
 16612 6188 99180000 		.4byte	.LASF970
 16613 618c 02       		.byte	0x2
 16614 618d 0901     		.2byte	0x109
 16615 618f 8D010000 		.4byte	0x18d
 16616 6193 00       		.byte	0
 16617 6194 50       		.uleb128 0x50
 16618 6195 A8280000 		.4byte	.LASF1031
 16619 6199 02       		.byte	0x2
 16620 619a E4       		.byte	0xe4
 16621 619b 8D010000 		.4byte	0x18d
 16622 619f 03       		.byte	0x3
 16623 61a0 51       		.uleb128 0x51
 16624 61a1 C02C0000 		.4byte	.LASF968
 16625 61a5 2D       		.byte	0x2d
 16626 61a6 6601     		.2byte	0x166
 16627 61a8 03       		.byte	0x3
 16628 61a9 BB610000 		.4byte	0x61bb
 16629 61ad 52       		.uleb128 0x52
 16630 61ae 8B000000 		.4byte	.LASF964
 16631 61b2 CB610000 		.4byte	0x61cb
 16632 61b6 C02C0000 		.4byte	.LASF968
 16633 61ba 00       		.byte	0
 16634 61bb 11       		.uleb128 0x11
 16635 61bc FF0C0000 		.4byte	0xcff
 16636 61c0 CB610000 		.4byte	0x61cb
 16637 61c4 12       		.uleb128 0x12
 16638 61c5 48000000 		.4byte	0x48
 16639 61c9 0B       		.byte	0xb
 16640 61ca 00       		.byte	0
ARM GAS  /tmp/ccU5UnMV.s 			page 307


 16641 61cb 06       		.uleb128 0x6
 16642 61cc BB610000 		.4byte	0x61bb
 16643 61d0 53       		.uleb128 0x53
 16644 61d1 74070000 		.4byte	.LASF965
 16645 61d5 2D       		.byte	0x2d
 16646 61d6 5A01     		.2byte	0x15a
 16647 61d8 03       		.byte	0x3
 16648 61d9 53       		.uleb128 0x53
 16649 61da 261F0000 		.4byte	.LASF966
 16650 61de 0E       		.byte	0xe
 16651 61df CA01     		.2byte	0x1ca
 16652 61e1 03       		.byte	0x3
 16653 61e2 53       		.uleb128 0x53
 16654 61e3 CD210000 		.4byte	.LASF967
 16655 61e7 0E       		.byte	0xe
 16656 61e8 BC01     		.2byte	0x1bc
 16657 61ea 03       		.byte	0x3
 16658 61eb 51       		.uleb128 0x51
 16659 61ec 6A320000 		.4byte	.LASF969
 16660 61f0 03       		.byte	0x3
 16661 61f1 2002     		.2byte	0x220
 16662 61f3 03       		.byte	0x3
 16663 61f4 05620000 		.4byte	0x6205
 16664 61f8 4F       		.uleb128 0x4f
 16665 61f9 B60F0000 		.4byte	.LASF971
 16666 61fd 03       		.byte	0x3
 16667 61fe 2002     		.2byte	0x220
 16668 6200 04010000 		.4byte	0x104
 16669 6204 00       		.byte	0
 16670 6205 54       		.uleb128 0x54
 16671 6206 B4340000 		.4byte	.LASF972
 16672 620a B4340000 		.4byte	.LASF972
 16673 620e 2E       		.byte	0x2e
 16674 620f 24       		.byte	0x24
 16675 6210 54       		.uleb128 0x54
 16676 6211 97240000 		.4byte	.LASF973
 16677 6215 97240000 		.4byte	.LASF973
 16678 6219 2F       		.byte	0x2f
 16679 621a 69       		.byte	0x69
 16680 621b 54       		.uleb128 0x54
 16681 621c 0E260000 		.4byte	.LASF974
 16682 6220 0E260000 		.4byte	.LASF974
 16683 6224 30       		.byte	0x30
 16684 6225 64       		.byte	0x64
 16685 6226 54       		.uleb128 0x54
 16686 6227 7B000000 		.4byte	.LASF975
 16687 622b 7B000000 		.4byte	.LASF975
 16688 622f 31       		.byte	0x31
 16689 6230 20       		.byte	0x20
 16690 6231 54       		.uleb128 0x54
 16691 6232 22080000 		.4byte	.LASF976
 16692 6236 22080000 		.4byte	.LASF976
 16693 623a 12       		.byte	0x12
 16694 623b 6F       		.byte	0x6f
 16695 623c 54       		.uleb128 0x54
 16696 623d 19330000 		.4byte	.LASF977
 16697 6241 19330000 		.4byte	.LASF977
ARM GAS  /tmp/ccU5UnMV.s 			page 308


 16698 6245 12       		.byte	0x12
 16699 6246 70       		.byte	0x70
 16700 6247 54       		.uleb128 0x54
 16701 6248 A70D0000 		.4byte	.LASF978
 16702 624c A70D0000 		.4byte	.LASF978
 16703 6250 28       		.byte	0x28
 16704 6251 23       		.byte	0x23
 16705 6252 54       		.uleb128 0x54
 16706 6253 3B190000 		.4byte	.LASF979
 16707 6257 3B190000 		.4byte	.LASF979
 16708 625b 32       		.byte	0x32
 16709 625c 1D       		.byte	0x1d
 16710 625d 54       		.uleb128 0x54
 16711 625e 7B1A0000 		.4byte	.LASF980
 16712 6262 7B1A0000 		.4byte	.LASF980
 16713 6266 16       		.byte	0x16
 16714 6267 F3       		.byte	0xf3
 16715 6268 54       		.uleb128 0x54
 16716 6269 3C100000 		.4byte	.LASF981
 16717 626d 3C100000 		.4byte	.LASF981
 16718 6271 33       		.byte	0x33
 16719 6272 CC       		.byte	0xcc
 16720 6273 54       		.uleb128 0x54
 16721 6274 C91B0000 		.4byte	.LASF982
 16722 6278 C91B0000 		.4byte	.LASF982
 16723 627c 27       		.byte	0x27
 16724 627d 42       		.byte	0x42
 16725 627e 54       		.uleb128 0x54
 16726 627f EF310000 		.4byte	.LASF983
 16727 6283 EF310000 		.4byte	.LASF983
 16728 6287 34       		.byte	0x34
 16729 6288 37       		.byte	0x37
 16730 6289 54       		.uleb128 0x54
 16731 628a 9F180000 		.4byte	.LASF984
 16732 628e 9F180000 		.4byte	.LASF984
 16733 6292 28       		.byte	0x28
 16734 6293 1D       		.byte	0x1d
 16735 6294 54       		.uleb128 0x54
 16736 6295 C9310000 		.4byte	.LASF985
 16737 6299 C9310000 		.4byte	.LASF985
 16738 629d 35       		.byte	0x35
 16739 629e 47       		.byte	0x47
 16740 629f 54       		.uleb128 0x54
 16741 62a0 8C100000 		.4byte	.LASF986
 16742 62a4 8C100000 		.4byte	.LASF986
 16743 62a8 36       		.byte	0x36
 16744 62a9 20       		.byte	0x20
 16745 62aa 54       		.uleb128 0x54
 16746 62ab EA0B0000 		.4byte	.LASF987
 16747 62af EA0B0000 		.4byte	.LASF987
 16748 62b3 35       		.byte	0x35
 16749 62b4 48       		.byte	0x48
 16750 62b5 54       		.uleb128 0x54
 16751 62b6 D4350000 		.4byte	.LASF988
 16752 62ba D4350000 		.4byte	.LASF988
 16753 62be 35       		.byte	0x35
 16754 62bf 49       		.byte	0x49
ARM GAS  /tmp/ccU5UnMV.s 			page 309


 16755 62c0 54       		.uleb128 0x54
 16756 62c1 AE000000 		.4byte	.LASF989
 16757 62c5 AE000000 		.4byte	.LASF989
 16758 62c9 16       		.byte	0x16
 16759 62ca F5       		.byte	0xf5
 16760 62cb 54       		.uleb128 0x54
 16761 62cc 80270000 		.4byte	.LASF990
 16762 62d0 80270000 		.4byte	.LASF990
 16763 62d4 35       		.byte	0x35
 16764 62d5 4B       		.byte	0x4b
 16765 62d6 54       		.uleb128 0x54
 16766 62d7 30320000 		.4byte	.LASF991
 16767 62db 30320000 		.4byte	.LASF991
 16768 62df 28       		.byte	0x28
 16769 62e0 25       		.byte	0x25
 16770 62e1 54       		.uleb128 0x54
 16771 62e2 C62B0000 		.4byte	.LASF992
 16772 62e6 C62B0000 		.4byte	.LASF992
 16773 62ea 37       		.byte	0x37
 16774 62eb 96       		.byte	0x96
 16775 62ec 54       		.uleb128 0x54
 16776 62ed D7250000 		.4byte	.LASF993
 16777 62f1 D7250000 		.4byte	.LASF993
 16778 62f5 35       		.byte	0x35
 16779 62f6 46       		.byte	0x46
 16780 62f7 54       		.uleb128 0x54
 16781 62f8 B8210000 		.4byte	.LASF994
 16782 62fc B8210000 		.4byte	.LASF994
 16783 6300 28       		.byte	0x28
 16784 6301 34       		.byte	0x34
 16785 6302 54       		.uleb128 0x54
 16786 6303 C5260000 		.4byte	.LASF995
 16787 6307 C5260000 		.4byte	.LASF995
 16788 630b 28       		.byte	0x28
 16789 630c 3B       		.byte	0x3b
 16790 630d 54       		.uleb128 0x54
 16791 630e 07150000 		.4byte	.LASF996
 16792 6312 07150000 		.4byte	.LASF996
 16793 6316 38       		.byte	0x38
 16794 6317 2B       		.byte	0x2b
 16795 6318 54       		.uleb128 0x54
 16796 6319 6B010000 		.4byte	.LASF997
 16797 631d 6B010000 		.4byte	.LASF997
 16798 6321 38       		.byte	0x38
 16799 6322 30       		.byte	0x30
 16800 6323 54       		.uleb128 0x54
 16801 6324 B4170000 		.4byte	.LASF998
 16802 6328 B4170000 		.4byte	.LASF998
 16803 632c 38       		.byte	0x38
 16804 632d 29       		.byte	0x29
 16805 632e 54       		.uleb128 0x54
 16806 632f 78320000 		.4byte	.LASF999
 16807 6333 78320000 		.4byte	.LASF999
 16808 6337 38       		.byte	0x38
 16809 6338 28       		.byte	0x28
 16810 6339 54       		.uleb128 0x54
 16811 633a AB270000 		.4byte	.LASF1000
ARM GAS  /tmp/ccU5UnMV.s 			page 310


 16812 633e AB270000 		.4byte	.LASF1000
 16813 6342 28       		.byte	0x28
 16814 6343 30       		.byte	0x30
 16815 6344 54       		.uleb128 0x54
 16816 6345 CB1C0000 		.4byte	.LASF1001
 16817 6349 CB1C0000 		.4byte	.LASF1001
 16818 634d 16       		.byte	0x16
 16819 634e F8       		.byte	0xf8
 16820 634f 54       		.uleb128 0x54
 16821 6350 B21B0000 		.4byte	.LASF1002
 16822 6354 B21B0000 		.4byte	.LASF1002
 16823 6358 35       		.byte	0x35
 16824 6359 2A       		.byte	0x2a
 16825 635a 54       		.uleb128 0x54
 16826 635b 51330000 		.4byte	.LASF1003
 16827 635f 51330000 		.4byte	.LASF1003
 16828 6363 35       		.byte	0x35
 16829 6364 2C       		.byte	0x2c
 16830 6365 54       		.uleb128 0x54
 16831 6366 25230000 		.4byte	.LASF1004
 16832 636a 25230000 		.4byte	.LASF1004
 16833 636e 31       		.byte	0x31
 16834 636f 1C       		.byte	0x1c
 16835 6370 54       		.uleb128 0x54
 16836 6371 D1070000 		.4byte	.LASF1005
 16837 6375 D1070000 		.4byte	.LASF1005
 16838 6379 16       		.byte	0x16
 16839 637a FA       		.byte	0xfa
 16840 637b 54       		.uleb128 0x54
 16841 637c 61280000 		.4byte	.LASF1006
 16842 6380 61280000 		.4byte	.LASF1006
 16843 6384 35       		.byte	0x35
 16844 6385 2B       		.byte	0x2b
 16845 6386 54       		.uleb128 0x54
 16846 6387 7E050000 		.4byte	.LASF1007
 16847 638b 7E050000 		.4byte	.LASF1007
 16848 638f 16       		.byte	0x16
 16849 6390 FC       		.byte	0xfc
 16850 6391 54       		.uleb128 0x54
 16851 6392 1E2F0000 		.4byte	.LASF1008
 16852 6396 1E2F0000 		.4byte	.LASF1008
 16853 639a 34       		.byte	0x34
 16854 639b 2C       		.byte	0x2c
 16855 639c 54       		.uleb128 0x54
 16856 639d 862D0000 		.4byte	.LASF1009
 16857 63a1 862D0000 		.4byte	.LASF1009
 16858 63a5 28       		.byte	0x28
 16859 63a6 1C       		.byte	0x1c
 16860 63a7 55       		.uleb128 0x55
 16861 63a8 6D070000 		.4byte	.LASF1032
 16862 63ac E0280000 		.4byte	.LASF1033
 16863 63b0 39       		.byte	0x39
 16864 63b1 00       		.byte	0
 16865 63b2 6D070000 		.4byte	.LASF1032
 16866 63b6 54       		.uleb128 0x54
 16867 63b7 69250000 		.4byte	.LASF1010
 16868 63bb 69250000 		.4byte	.LASF1010
ARM GAS  /tmp/ccU5UnMV.s 			page 311


 16869 63bf 16       		.byte	0x16
 16870 63c0 FE       		.byte	0xfe
 16871 63c1 54       		.uleb128 0x54
 16872 63c2 D7210000 		.4byte	.LASF1011
 16873 63c6 D7210000 		.4byte	.LASF1011
 16874 63ca 2E       		.byte	0x2e
 16875 63cb 32       		.byte	0x32
 16876 63cc 54       		.uleb128 0x54
 16877 63cd BB340000 		.4byte	.LASF1012
 16878 63d1 BB340000 		.4byte	.LASF1012
 16879 63d5 27       		.byte	0x27
 16880 63d6 40       		.byte	0x40
 16881 63d7 54       		.uleb128 0x54
 16882 63d8 FF300000 		.4byte	.LASF1013
 16883 63dc FF300000 		.4byte	.LASF1013
 16884 63e0 28       		.byte	0x28
 16885 63e1 41       		.byte	0x41
 16886 63e2 54       		.uleb128 0x54
 16887 63e3 1D1A0000 		.4byte	.LASF1014
 16888 63e7 1D1A0000 		.4byte	.LASF1014
 16889 63eb 28       		.byte	0x28
 16890 63ec 48       		.byte	0x48
 16891 63ed 54       		.uleb128 0x54
 16892 63ee F21F0000 		.4byte	.LASF1015
 16893 63f2 F21F0000 		.4byte	.LASF1015
 16894 63f6 27       		.byte	0x27
 16895 63f7 2E       		.byte	0x2e
 16896 63f8 54       		.uleb128 0x54
 16897 63f9 80170000 		.4byte	.LASF1016
 16898 63fd 80170000 		.4byte	.LASF1016
 16899 6401 28       		.byte	0x28
 16900 6402 22       		.byte	0x22
 16901 6403 54       		.uleb128 0x54
 16902 6404 C0100000 		.4byte	.LASF1017
 16903 6408 C0100000 		.4byte	.LASF1017
 16904 640c 28       		.byte	0x28
 16905 640d 3F       		.byte	0x3f
 16906 640e 54       		.uleb128 0x54
 16907 640f 57070000 		.4byte	.LASF1018
 16908 6413 57070000 		.4byte	.LASF1018
 16909 6417 35       		.byte	0x35
 16910 6418 4D       		.byte	0x4d
 16911 6419 54       		.uleb128 0x54
 16912 641a B2230000 		.4byte	.LASF1019
 16913 641e B2230000 		.4byte	.LASF1019
 16914 6422 36       		.byte	0x36
 16915 6423 27       		.byte	0x27
 16916 6424 54       		.uleb128 0x54
 16917 6425 E70F0000 		.4byte	.LASF1020
 16918 6429 E70F0000 		.4byte	.LASF1020
 16919 642d 36       		.byte	0x36
 16920 642e 28       		.byte	0x28
 16921 642f 54       		.uleb128 0x54
 16922 6430 302C0000 		.4byte	.LASF1021
 16923 6434 302C0000 		.4byte	.LASF1021
 16924 6438 36       		.byte	0x36
 16925 6439 29       		.byte	0x29
ARM GAS  /tmp/ccU5UnMV.s 			page 312


 16926 643a 54       		.uleb128 0x54
 16927 643b 46050000 		.4byte	.LASF1022
 16928 643f 46050000 		.4byte	.LASF1022
 16929 6443 36       		.byte	0x36
 16930 6444 2A       		.byte	0x2a
 16931 6445 54       		.uleb128 0x54
 16932 6446 C9110000 		.4byte	.LASF1023
 16933 644a C9110000 		.4byte	.LASF1023
 16934 644e 36       		.byte	0x36
 16935 644f 2C       		.byte	0x2c
 16936 6450 54       		.uleb128 0x54
 16937 6451 2A220000 		.4byte	.LASF1024
 16938 6455 2A220000 		.4byte	.LASF1024
 16939 6459 36       		.byte	0x36
 16940 645a 2B       		.byte	0x2b
 16941 645b 54       		.uleb128 0x54
 16942 645c 4B2F0000 		.4byte	.LASF1025
 16943 6460 4B2F0000 		.4byte	.LASF1025
 16944 6464 36       		.byte	0x36
 16945 6465 2D       		.byte	0x2d
 16946 6466 00       		.byte	0
 16947              		.section	.debug_abbrev,"",%progbits
 16948              	.Ldebug_abbrev0:
 16949 0000 01       		.uleb128 0x1
 16950 0001 11       		.uleb128 0x11
 16951 0002 01       		.byte	0x1
 16952 0003 25       		.uleb128 0x25
 16953 0004 0E       		.uleb128 0xe
 16954 0005 13       		.uleb128 0x13
 16955 0006 0B       		.uleb128 0xb
 16956 0007 03       		.uleb128 0x3
 16957 0008 0E       		.uleb128 0xe
 16958 0009 1B       		.uleb128 0x1b
 16959 000a 0E       		.uleb128 0xe
 16960 000b 55       		.uleb128 0x55
 16961 000c 17       		.uleb128 0x17
 16962 000d 11       		.uleb128 0x11
 16963 000e 01       		.uleb128 0x1
 16964 000f 10       		.uleb128 0x10
 16965 0010 17       		.uleb128 0x17
 16966 0011 00       		.byte	0
 16967 0012 00       		.byte	0
 16968 0013 02       		.uleb128 0x2
 16969 0014 24       		.uleb128 0x24
 16970 0015 00       		.byte	0
 16971 0016 0B       		.uleb128 0xb
 16972 0017 0B       		.uleb128 0xb
 16973 0018 3E       		.uleb128 0x3e
 16974 0019 0B       		.uleb128 0xb
 16975 001a 03       		.uleb128 0x3
 16976 001b 0E       		.uleb128 0xe
 16977 001c 00       		.byte	0
 16978 001d 00       		.byte	0
 16979 001e 03       		.uleb128 0x3
 16980 001f 24       		.uleb128 0x24
 16981 0020 00       		.byte	0
 16982 0021 0B       		.uleb128 0xb
ARM GAS  /tmp/ccU5UnMV.s 			page 313


 16983 0022 0B       		.uleb128 0xb
 16984 0023 3E       		.uleb128 0x3e
 16985 0024 0B       		.uleb128 0xb
 16986 0025 03       		.uleb128 0x3
 16987 0026 08       		.uleb128 0x8
 16988 0027 00       		.byte	0
 16989 0028 00       		.byte	0
 16990 0029 04       		.uleb128 0x4
 16991 002a 35       		.uleb128 0x35
 16992 002b 00       		.byte	0
 16993 002c 49       		.uleb128 0x49
 16994 002d 13       		.uleb128 0x13
 16995 002e 00       		.byte	0
 16996 002f 00       		.byte	0
 16997 0030 05       		.uleb128 0x5
 16998 0031 16       		.uleb128 0x16
 16999 0032 00       		.byte	0
 17000 0033 03       		.uleb128 0x3
 17001 0034 0E       		.uleb128 0xe
 17002 0035 3A       		.uleb128 0x3a
 17003 0036 0B       		.uleb128 0xb
 17004 0037 3B       		.uleb128 0x3b
 17005 0038 0B       		.uleb128 0xb
 17006 0039 49       		.uleb128 0x49
 17007 003a 13       		.uleb128 0x13
 17008 003b 00       		.byte	0
 17009 003c 00       		.byte	0
 17010 003d 06       		.uleb128 0x6
 17011 003e 26       		.uleb128 0x26
 17012 003f 00       		.byte	0
 17013 0040 49       		.uleb128 0x49
 17014 0041 13       		.uleb128 0x13
 17015 0042 00       		.byte	0
 17016 0043 00       		.byte	0
 17017 0044 07       		.uleb128 0x7
 17018 0045 13       		.uleb128 0x13
 17019 0046 01       		.byte	0x1
 17020 0047 03       		.uleb128 0x3
 17021 0048 0E       		.uleb128 0xe
 17022 0049 0B       		.uleb128 0xb
 17023 004a 0B       		.uleb128 0xb
 17024 004b 3A       		.uleb128 0x3a
 17025 004c 0B       		.uleb128 0xb
 17026 004d 3B       		.uleb128 0x3b
 17027 004e 0B       		.uleb128 0xb
 17028 004f 01       		.uleb128 0x1
 17029 0050 13       		.uleb128 0x13
 17030 0051 00       		.byte	0
 17031 0052 00       		.byte	0
 17032 0053 08       		.uleb128 0x8
 17033 0054 0D       		.uleb128 0xd
 17034 0055 00       		.byte	0
 17035 0056 03       		.uleb128 0x3
 17036 0057 0E       		.uleb128 0xe
 17037 0058 3A       		.uleb128 0x3a
 17038 0059 0B       		.uleb128 0xb
 17039 005a 3B       		.uleb128 0x3b
ARM GAS  /tmp/ccU5UnMV.s 			page 314


 17040 005b 0B       		.uleb128 0xb
 17041 005c 49       		.uleb128 0x49
 17042 005d 13       		.uleb128 0x13
 17043 005e 38       		.uleb128 0x38
 17044 005f 0B       		.uleb128 0xb
 17045 0060 00       		.byte	0
 17046 0061 00       		.byte	0
 17047 0062 09       		.uleb128 0x9
 17048 0063 0D       		.uleb128 0xd
 17049 0064 00       		.byte	0
 17050 0065 03       		.uleb128 0x3
 17051 0066 08       		.uleb128 0x8
 17052 0067 3A       		.uleb128 0x3a
 17053 0068 0B       		.uleb128 0xb
 17054 0069 3B       		.uleb128 0x3b
 17055 006a 05       		.uleb128 0x5
 17056 006b 49       		.uleb128 0x49
 17057 006c 13       		.uleb128 0x13
 17058 006d 38       		.uleb128 0x38
 17059 006e 0B       		.uleb128 0xb
 17060 006f 00       		.byte	0
 17061 0070 00       		.byte	0
 17062 0071 0A       		.uleb128 0xa
 17063 0072 0D       		.uleb128 0xd
 17064 0073 00       		.byte	0
 17065 0074 03       		.uleb128 0x3
 17066 0075 0E       		.uleb128 0xe
 17067 0076 3A       		.uleb128 0x3a
 17068 0077 0B       		.uleb128 0xb
 17069 0078 3B       		.uleb128 0x3b
 17070 0079 05       		.uleb128 0x5
 17071 007a 49       		.uleb128 0x49
 17072 007b 13       		.uleb128 0x13
 17073 007c 38       		.uleb128 0x38
 17074 007d 0B       		.uleb128 0xb
 17075 007e 00       		.byte	0
 17076 007f 00       		.byte	0
 17077 0080 0B       		.uleb128 0xb
 17078 0081 0F       		.uleb128 0xf
 17079 0082 00       		.byte	0
 17080 0083 0B       		.uleb128 0xb
 17081 0084 0B       		.uleb128 0xb
 17082 0085 49       		.uleb128 0x49
 17083 0086 13       		.uleb128 0x13
 17084 0087 00       		.byte	0
 17085 0088 00       		.byte	0
 17086 0089 0C       		.uleb128 0xc
 17087 008a 13       		.uleb128 0x13
 17088 008b 01       		.byte	0x1
 17089 008c 03       		.uleb128 0x3
 17090 008d 0E       		.uleb128 0xe
 17091 008e 0B       		.uleb128 0xb
 17092 008f 0B       		.uleb128 0xb
 17093 0090 3A       		.uleb128 0x3a
 17094 0091 0B       		.uleb128 0xb
 17095 0092 3B       		.uleb128 0x3b
 17096 0093 05       		.uleb128 0x5
ARM GAS  /tmp/ccU5UnMV.s 			page 315


 17097 0094 01       		.uleb128 0x1
 17098 0095 13       		.uleb128 0x13
 17099 0096 00       		.byte	0
 17100 0097 00       		.byte	0
 17101 0098 0D       		.uleb128 0xd
 17102 0099 15       		.uleb128 0x15
 17103 009a 01       		.byte	0x1
 17104 009b 27       		.uleb128 0x27
 17105 009c 19       		.uleb128 0x19
 17106 009d 01       		.uleb128 0x1
 17107 009e 13       		.uleb128 0x13
 17108 009f 00       		.byte	0
 17109 00a0 00       		.byte	0
 17110 00a1 0E       		.uleb128 0xe
 17111 00a2 05       		.uleb128 0x5
 17112 00a3 00       		.byte	0
 17113 00a4 49       		.uleb128 0x49
 17114 00a5 13       		.uleb128 0x13
 17115 00a6 00       		.byte	0
 17116 00a7 00       		.byte	0
 17117 00a8 0F       		.uleb128 0xf
 17118 00a9 0F       		.uleb128 0xf
 17119 00aa 00       		.byte	0
 17120 00ab 0B       		.uleb128 0xb
 17121 00ac 0B       		.uleb128 0xb
 17122 00ad 00       		.byte	0
 17123 00ae 00       		.byte	0
 17124 00af 10       		.uleb128 0x10
 17125 00b0 13       		.uleb128 0x13
 17126 00b1 01       		.byte	0x1
 17127 00b2 03       		.uleb128 0x3
 17128 00b3 0E       		.uleb128 0xe
 17129 00b4 0B       		.uleb128 0xb
 17130 00b5 05       		.uleb128 0x5
 17131 00b6 3A       		.uleb128 0x3a
 17132 00b7 0B       		.uleb128 0xb
 17133 00b8 3B       		.uleb128 0x3b
 17134 00b9 05       		.uleb128 0x5
 17135 00ba 01       		.uleb128 0x1
 17136 00bb 13       		.uleb128 0x13
 17137 00bc 00       		.byte	0
 17138 00bd 00       		.byte	0
 17139 00be 11       		.uleb128 0x11
 17140 00bf 01       		.uleb128 0x1
 17141 00c0 01       		.byte	0x1
 17142 00c1 49       		.uleb128 0x49
 17143 00c2 13       		.uleb128 0x13
 17144 00c3 01       		.uleb128 0x1
 17145 00c4 13       		.uleb128 0x13
 17146 00c5 00       		.byte	0
 17147 00c6 00       		.byte	0
 17148 00c7 12       		.uleb128 0x12
 17149 00c8 21       		.uleb128 0x21
 17150 00c9 00       		.byte	0
 17151 00ca 49       		.uleb128 0x49
 17152 00cb 13       		.uleb128 0x13
 17153 00cc 2F       		.uleb128 0x2f
ARM GAS  /tmp/ccU5UnMV.s 			page 316


 17154 00cd 0B       		.uleb128 0xb
 17155 00ce 00       		.byte	0
 17156 00cf 00       		.byte	0
 17157 00d0 13       		.uleb128 0x13
 17158 00d1 34       		.uleb128 0x34
 17159 00d2 00       		.byte	0
 17160 00d3 03       		.uleb128 0x3
 17161 00d4 0E       		.uleb128 0xe
 17162 00d5 3A       		.uleb128 0x3a
 17163 00d6 0B       		.uleb128 0xb
 17164 00d7 3B       		.uleb128 0x3b
 17165 00d8 05       		.uleb128 0x5
 17166 00d9 49       		.uleb128 0x49
 17167 00da 13       		.uleb128 0x13
 17168 00db 3F       		.uleb128 0x3f
 17169 00dc 19       		.uleb128 0x19
 17170 00dd 3C       		.uleb128 0x3c
 17171 00de 19       		.uleb128 0x19
 17172 00df 00       		.byte	0
 17173 00e0 00       		.byte	0
 17174 00e1 14       		.uleb128 0x14
 17175 00e2 34       		.uleb128 0x34
 17176 00e3 00       		.byte	0
 17177 00e4 03       		.uleb128 0x3
 17178 00e5 0E       		.uleb128 0xe
 17179 00e6 3A       		.uleb128 0x3a
 17180 00e7 0B       		.uleb128 0xb
 17181 00e8 3B       		.uleb128 0x3b
 17182 00e9 0B       		.uleb128 0xb
 17183 00ea 49       		.uleb128 0x49
 17184 00eb 13       		.uleb128 0x13
 17185 00ec 3F       		.uleb128 0x3f
 17186 00ed 19       		.uleb128 0x19
 17187 00ee 3C       		.uleb128 0x3c
 17188 00ef 19       		.uleb128 0x19
 17189 00f0 00       		.byte	0
 17190 00f1 00       		.byte	0
 17191 00f2 15       		.uleb128 0x15
 17192 00f3 13       		.uleb128 0x13
 17193 00f4 01       		.byte	0x1
 17194 00f5 0B       		.uleb128 0xb
 17195 00f6 0B       		.uleb128 0xb
 17196 00f7 3A       		.uleb128 0x3a
 17197 00f8 0B       		.uleb128 0xb
 17198 00f9 3B       		.uleb128 0x3b
 17199 00fa 0B       		.uleb128 0xb
 17200 00fb 01       		.uleb128 0x1
 17201 00fc 13       		.uleb128 0x13
 17202 00fd 00       		.byte	0
 17203 00fe 00       		.byte	0
 17204 00ff 16       		.uleb128 0x16
 17205 0100 0D       		.uleb128 0xd
 17206 0101 00       		.byte	0
 17207 0102 03       		.uleb128 0x3
 17208 0103 08       		.uleb128 0x8
 17209 0104 3A       		.uleb128 0x3a
 17210 0105 0B       		.uleb128 0xb
ARM GAS  /tmp/ccU5UnMV.s 			page 317


 17211 0106 3B       		.uleb128 0x3b
 17212 0107 0B       		.uleb128 0xb
 17213 0108 49       		.uleb128 0x49
 17214 0109 13       		.uleb128 0x13
 17215 010a 38       		.uleb128 0x38
 17216 010b 0B       		.uleb128 0xb
 17217 010c 00       		.byte	0
 17218 010d 00       		.byte	0
 17219 010e 17       		.uleb128 0x17
 17220 010f 13       		.uleb128 0x13
 17221 0110 01       		.byte	0x1
 17222 0111 0B       		.uleb128 0xb
 17223 0112 0B       		.uleb128 0xb
 17224 0113 3A       		.uleb128 0x3a
 17225 0114 0B       		.uleb128 0xb
 17226 0115 3B       		.uleb128 0x3b
 17227 0116 05       		.uleb128 0x5
 17228 0117 01       		.uleb128 0x1
 17229 0118 13       		.uleb128 0x13
 17230 0119 00       		.byte	0
 17231 011a 00       		.byte	0
 17232 011b 18       		.uleb128 0x18
 17233 011c 16       		.uleb128 0x16
 17234 011d 00       		.byte	0
 17235 011e 03       		.uleb128 0x3
 17236 011f 0E       		.uleb128 0xe
 17237 0120 3A       		.uleb128 0x3a
 17238 0121 0B       		.uleb128 0xb
 17239 0122 3B       		.uleb128 0x3b
 17240 0123 05       		.uleb128 0x5
 17241 0124 49       		.uleb128 0x49
 17242 0125 13       		.uleb128 0x13
 17243 0126 00       		.byte	0
 17244 0127 00       		.byte	0
 17245 0128 19       		.uleb128 0x19
 17246 0129 13       		.uleb128 0x13
 17247 012a 01       		.byte	0x1
 17248 012b 0B       		.uleb128 0xb
 17249 012c 05       		.uleb128 0x5
 17250 012d 3A       		.uleb128 0x3a
 17251 012e 0B       		.uleb128 0xb
 17252 012f 3B       		.uleb128 0x3b
 17253 0130 05       		.uleb128 0x5
 17254 0131 01       		.uleb128 0x1
 17255 0132 13       		.uleb128 0x13
 17256 0133 00       		.byte	0
 17257 0134 00       		.byte	0
 17258 0135 1A       		.uleb128 0x1a
 17259 0136 0D       		.uleb128 0xd
 17260 0137 00       		.byte	0
 17261 0138 03       		.uleb128 0x3
 17262 0139 0E       		.uleb128 0xe
 17263 013a 3A       		.uleb128 0x3a
 17264 013b 0B       		.uleb128 0xb
 17265 013c 3B       		.uleb128 0x3b
 17266 013d 05       		.uleb128 0x5
 17267 013e 49       		.uleb128 0x49
ARM GAS  /tmp/ccU5UnMV.s 			page 318


 17268 013f 13       		.uleb128 0x13
 17269 0140 38       		.uleb128 0x38
 17270 0141 05       		.uleb128 0x5
 17271 0142 00       		.byte	0
 17272 0143 00       		.byte	0
 17273 0144 1B       		.uleb128 0x1b
 17274 0145 0D       		.uleb128 0xd
 17275 0146 00       		.byte	0
 17276 0147 03       		.uleb128 0x3
 17277 0148 08       		.uleb128 0x8
 17278 0149 3A       		.uleb128 0x3a
 17279 014a 0B       		.uleb128 0xb
 17280 014b 3B       		.uleb128 0x3b
 17281 014c 05       		.uleb128 0x5
 17282 014d 49       		.uleb128 0x49
 17283 014e 13       		.uleb128 0x13
 17284 014f 38       		.uleb128 0x38
 17285 0150 05       		.uleb128 0x5
 17286 0151 00       		.byte	0
 17287 0152 00       		.byte	0
 17288 0153 1C       		.uleb128 0x1c
 17289 0154 17       		.uleb128 0x17
 17290 0155 01       		.byte	0x1
 17291 0156 0B       		.uleb128 0xb
 17292 0157 0B       		.uleb128 0xb
 17293 0158 3A       		.uleb128 0x3a
 17294 0159 0B       		.uleb128 0xb
 17295 015a 3B       		.uleb128 0x3b
 17296 015b 0B       		.uleb128 0xb
 17297 015c 01       		.uleb128 0x1
 17298 015d 13       		.uleb128 0x13
 17299 015e 00       		.byte	0
 17300 015f 00       		.byte	0
 17301 0160 1D       		.uleb128 0x1d
 17302 0161 0D       		.uleb128 0xd
 17303 0162 00       		.byte	0
 17304 0163 03       		.uleb128 0x3
 17305 0164 0E       		.uleb128 0xe
 17306 0165 3A       		.uleb128 0x3a
 17307 0166 0B       		.uleb128 0xb
 17308 0167 3B       		.uleb128 0x3b
 17309 0168 05       		.uleb128 0x5
 17310 0169 49       		.uleb128 0x49
 17311 016a 13       		.uleb128 0x13
 17312 016b 00       		.byte	0
 17313 016c 00       		.byte	0
 17314 016d 1E       		.uleb128 0x1e
 17315 016e 34       		.uleb128 0x34
 17316 016f 00       		.byte	0
 17317 0170 03       		.uleb128 0x3
 17318 0171 08       		.uleb128 0x8
 17319 0172 3A       		.uleb128 0x3a
 17320 0173 0B       		.uleb128 0xb
 17321 0174 3B       		.uleb128 0x3b
 17322 0175 05       		.uleb128 0x5
 17323 0176 49       		.uleb128 0x49
 17324 0177 13       		.uleb128 0x13
ARM GAS  /tmp/ccU5UnMV.s 			page 319


 17325 0178 3F       		.uleb128 0x3f
 17326 0179 19       		.uleb128 0x19
 17327 017a 3C       		.uleb128 0x3c
 17328 017b 19       		.uleb128 0x19
 17329 017c 00       		.byte	0
 17330 017d 00       		.byte	0
 17331 017e 1F       		.uleb128 0x1f
 17332 017f 15       		.uleb128 0x15
 17333 0180 01       		.byte	0x1
 17334 0181 27       		.uleb128 0x27
 17335 0182 19       		.uleb128 0x19
 17336 0183 49       		.uleb128 0x49
 17337 0184 13       		.uleb128 0x13
 17338 0185 01       		.uleb128 0x1
 17339 0186 13       		.uleb128 0x13
 17340 0187 00       		.byte	0
 17341 0188 00       		.byte	0
 17342 0189 20       		.uleb128 0x20
 17343 018a 04       		.uleb128 0x4
 17344 018b 01       		.byte	0x1
 17345 018c 3E       		.uleb128 0x3e
 17346 018d 0B       		.uleb128 0xb
 17347 018e 0B       		.uleb128 0xb
 17348 018f 0B       		.uleb128 0xb
 17349 0190 49       		.uleb128 0x49
 17350 0191 13       		.uleb128 0x13
 17351 0192 3A       		.uleb128 0x3a
 17352 0193 0B       		.uleb128 0xb
 17353 0194 3B       		.uleb128 0x3b
 17354 0195 0B       		.uleb128 0xb
 17355 0196 01       		.uleb128 0x1
 17356 0197 13       		.uleb128 0x13
 17357 0198 00       		.byte	0
 17358 0199 00       		.byte	0
 17359 019a 21       		.uleb128 0x21
 17360 019b 28       		.uleb128 0x28
 17361 019c 00       		.byte	0
 17362 019d 03       		.uleb128 0x3
 17363 019e 0E       		.uleb128 0xe
 17364 019f 1C       		.uleb128 0x1c
 17365 01a0 0B       		.uleb128 0xb
 17366 01a1 00       		.byte	0
 17367 01a2 00       		.byte	0
 17368 01a3 22       		.uleb128 0x22
 17369 01a4 13       		.uleb128 0x13
 17370 01a5 01       		.byte	0x1
 17371 01a6 0B       		.uleb128 0xb
 17372 01a7 05       		.uleb128 0x5
 17373 01a8 3A       		.uleb128 0x3a
 17374 01a9 0B       		.uleb128 0xb
 17375 01aa 3B       		.uleb128 0x3b
 17376 01ab 0B       		.uleb128 0xb
 17377 01ac 01       		.uleb128 0x1
 17378 01ad 13       		.uleb128 0x13
 17379 01ae 00       		.byte	0
 17380 01af 00       		.byte	0
 17381 01b0 23       		.uleb128 0x23
ARM GAS  /tmp/ccU5UnMV.s 			page 320


 17382 01b1 0D       		.uleb128 0xd
 17383 01b2 00       		.byte	0
 17384 01b3 03       		.uleb128 0x3
 17385 01b4 0E       		.uleb128 0xe
 17386 01b5 3A       		.uleb128 0x3a
 17387 01b6 0B       		.uleb128 0xb
 17388 01b7 3B       		.uleb128 0x3b
 17389 01b8 0B       		.uleb128 0xb
 17390 01b9 49       		.uleb128 0x49
 17391 01ba 13       		.uleb128 0x13
 17392 01bb 38       		.uleb128 0x38
 17393 01bc 05       		.uleb128 0x5
 17394 01bd 00       		.byte	0
 17395 01be 00       		.byte	0
 17396 01bf 24       		.uleb128 0x24
 17397 01c0 04       		.uleb128 0x4
 17398 01c1 01       		.byte	0x1
 17399 01c2 3E       		.uleb128 0x3e
 17400 01c3 0B       		.uleb128 0xb
 17401 01c4 0B       		.uleb128 0xb
 17402 01c5 0B       		.uleb128 0xb
 17403 01c6 49       		.uleb128 0x49
 17404 01c7 13       		.uleb128 0x13
 17405 01c8 3A       		.uleb128 0x3a
 17406 01c9 0B       		.uleb128 0xb
 17407 01ca 3B       		.uleb128 0x3b
 17408 01cb 05       		.uleb128 0x5
 17409 01cc 01       		.uleb128 0x1
 17410 01cd 13       		.uleb128 0x13
 17411 01ce 00       		.byte	0
 17412 01cf 00       		.byte	0
 17413 01d0 25       		.uleb128 0x25
 17414 01d1 0D       		.uleb128 0xd
 17415 01d2 00       		.byte	0
 17416 01d3 03       		.uleb128 0x3
 17417 01d4 08       		.uleb128 0x8
 17418 01d5 3A       		.uleb128 0x3a
 17419 01d6 0B       		.uleb128 0xb
 17420 01d7 3B       		.uleb128 0x3b
 17421 01d8 0B       		.uleb128 0xb
 17422 01d9 49       		.uleb128 0x49
 17423 01da 13       		.uleb128 0x13
 17424 01db 00       		.byte	0
 17425 01dc 00       		.byte	0
 17426 01dd 26       		.uleb128 0x26
 17427 01de 13       		.uleb128 0x13
 17428 01df 01       		.byte	0x1
 17429 01e0 03       		.uleb128 0x3
 17430 01e1 0E       		.uleb128 0xe
 17431 01e2 0B       		.uleb128 0xb
 17432 01e3 05       		.uleb128 0x5
 17433 01e4 3A       		.uleb128 0x3a
 17434 01e5 0B       		.uleb128 0xb
 17435 01e6 3B       		.uleb128 0x3b
 17436 01e7 0B       		.uleb128 0xb
 17437 01e8 01       		.uleb128 0x1
 17438 01e9 13       		.uleb128 0x13
ARM GAS  /tmp/ccU5UnMV.s 			page 321


 17439 01ea 00       		.byte	0
 17440 01eb 00       		.byte	0
 17441 01ec 27       		.uleb128 0x27
 17442 01ed 13       		.uleb128 0x13
 17443 01ee 01       		.byte	0x1
 17444 01ef 0B       		.uleb128 0xb
 17445 01f0 06       		.uleb128 0x6
 17446 01f1 3A       		.uleb128 0x3a
 17447 01f2 0B       		.uleb128 0xb
 17448 01f3 3B       		.uleb128 0x3b
 17449 01f4 0B       		.uleb128 0xb
 17450 01f5 01       		.uleb128 0x1
 17451 01f6 13       		.uleb128 0x13
 17452 01f7 00       		.byte	0
 17453 01f8 00       		.byte	0
 17454 01f9 28       		.uleb128 0x28
 17455 01fa 0D       		.uleb128 0xd
 17456 01fb 00       		.byte	0
 17457 01fc 03       		.uleb128 0x3
 17458 01fd 08       		.uleb128 0x8
 17459 01fe 3A       		.uleb128 0x3a
 17460 01ff 0B       		.uleb128 0xb
 17461 0200 3B       		.uleb128 0x3b
 17462 0201 0B       		.uleb128 0xb
 17463 0202 49       		.uleb128 0x49
 17464 0203 13       		.uleb128 0x13
 17465 0204 38       		.uleb128 0x38
 17466 0205 05       		.uleb128 0x5
 17467 0206 00       		.byte	0
 17468 0207 00       		.byte	0
 17469 0208 29       		.uleb128 0x29
 17470 0209 21       		.uleb128 0x21
 17471 020a 00       		.byte	0
 17472 020b 49       		.uleb128 0x49
 17473 020c 13       		.uleb128 0x13
 17474 020d 2F       		.uleb128 0x2f
 17475 020e 05       		.uleb128 0x5
 17476 020f 00       		.byte	0
 17477 0210 00       		.byte	0
 17478 0211 2A       		.uleb128 0x2a
 17479 0212 0D       		.uleb128 0xd
 17480 0213 00       		.byte	0
 17481 0214 03       		.uleb128 0x3
 17482 0215 0E       		.uleb128 0xe
 17483 0216 3A       		.uleb128 0x3a
 17484 0217 0B       		.uleb128 0xb
 17485 0218 3B       		.uleb128 0x3b
 17486 0219 0B       		.uleb128 0xb
 17487 021a 49       		.uleb128 0x49
 17488 021b 13       		.uleb128 0x13
 17489 021c 00       		.byte	0
 17490 021d 00       		.byte	0
 17491 021e 2B       		.uleb128 0x2b
 17492 021f 17       		.uleb128 0x17
 17493 0220 01       		.byte	0x1
 17494 0221 0B       		.uleb128 0xb
 17495 0222 0B       		.uleb128 0xb
ARM GAS  /tmp/ccU5UnMV.s 			page 322


 17496 0223 3A       		.uleb128 0x3a
 17497 0224 0B       		.uleb128 0xb
 17498 0225 3B       		.uleb128 0x3b
 17499 0226 05       		.uleb128 0x5
 17500 0227 01       		.uleb128 0x1
 17501 0228 13       		.uleb128 0x13
 17502 0229 00       		.byte	0
 17503 022a 00       		.byte	0
 17504 022b 2C       		.uleb128 0x2c
 17505 022c 21       		.uleb128 0x21
 17506 022d 00       		.byte	0
 17507 022e 00       		.byte	0
 17508 022f 00       		.byte	0
 17509 0230 2D       		.uleb128 0x2d
 17510 0231 13       		.uleb128 0x13
 17511 0232 00       		.byte	0
 17512 0233 03       		.uleb128 0x3
 17513 0234 0E       		.uleb128 0xe
 17514 0235 3C       		.uleb128 0x3c
 17515 0236 19       		.uleb128 0x19
 17516 0237 00       		.byte	0
 17517 0238 00       		.byte	0
 17518 0239 2E       		.uleb128 0x2e
 17519 023a 15       		.uleb128 0x15
 17520 023b 00       		.byte	0
 17521 023c 27       		.uleb128 0x27
 17522 023d 19       		.uleb128 0x19
 17523 023e 00       		.byte	0
 17524 023f 00       		.byte	0
 17525 0240 2F       		.uleb128 0x2f
 17526 0241 04       		.uleb128 0x4
 17527 0242 01       		.byte	0x1
 17528 0243 03       		.uleb128 0x3
 17529 0244 0E       		.uleb128 0xe
 17530 0245 3E       		.uleb128 0x3e
 17531 0246 0B       		.uleb128 0xb
 17532 0247 0B       		.uleb128 0xb
 17533 0248 0B       		.uleb128 0xb
 17534 0249 49       		.uleb128 0x49
 17535 024a 13       		.uleb128 0x13
 17536 024b 3A       		.uleb128 0x3a
 17537 024c 0B       		.uleb128 0xb
 17538 024d 3B       		.uleb128 0x3b
 17539 024e 05       		.uleb128 0x5
 17540 024f 01       		.uleb128 0x1
 17541 0250 13       		.uleb128 0x13
 17542 0251 00       		.byte	0
 17543 0252 00       		.byte	0
 17544 0253 30       		.uleb128 0x30
 17545 0254 28       		.uleb128 0x28
 17546 0255 00       		.byte	0
 17547 0256 03       		.uleb128 0x3
 17548 0257 0E       		.uleb128 0xe
 17549 0258 1C       		.uleb128 0x1c
 17550 0259 0D       		.uleb128 0xd
 17551 025a 00       		.byte	0
 17552 025b 00       		.byte	0
ARM GAS  /tmp/ccU5UnMV.s 			page 323


 17553 025c 31       		.uleb128 0x31
 17554 025d 34       		.uleb128 0x34
 17555 025e 00       		.byte	0
 17556 025f 03       		.uleb128 0x3
 17557 0260 0E       		.uleb128 0xe
 17558 0261 3A       		.uleb128 0x3a
 17559 0262 0B       		.uleb128 0xb
 17560 0263 3B       		.uleb128 0x3b
 17561 0264 0B       		.uleb128 0xb
 17562 0265 49       		.uleb128 0x49
 17563 0266 13       		.uleb128 0x13
 17564 0267 02       		.uleb128 0x2
 17565 0268 18       		.uleb128 0x18
 17566 0269 00       		.byte	0
 17567 026a 00       		.byte	0
 17568 026b 32       		.uleb128 0x32
 17569 026c 2E       		.uleb128 0x2e
 17570 026d 01       		.byte	0x1
 17571 026e 3F       		.uleb128 0x3f
 17572 026f 19       		.uleb128 0x19
 17573 0270 03       		.uleb128 0x3
 17574 0271 0E       		.uleb128 0xe
 17575 0272 3A       		.uleb128 0x3a
 17576 0273 0B       		.uleb128 0xb
 17577 0274 3B       		.uleb128 0x3b
 17578 0275 05       		.uleb128 0x5
 17579 0276 27       		.uleb128 0x27
 17580 0277 19       		.uleb128 0x19
 17581 0278 11       		.uleb128 0x11
 17582 0279 01       		.uleb128 0x1
 17583 027a 12       		.uleb128 0x12
 17584 027b 06       		.uleb128 0x6
 17585 027c 40       		.uleb128 0x40
 17586 027d 18       		.uleb128 0x18
 17587 027e 9742     		.uleb128 0x2117
 17588 0280 19       		.uleb128 0x19
 17589 0281 01       		.uleb128 0x1
 17590 0282 13       		.uleb128 0x13
 17591 0283 00       		.byte	0
 17592 0284 00       		.byte	0
 17593 0285 33       		.uleb128 0x33
 17594 0286 05       		.uleb128 0x5
 17595 0287 00       		.byte	0
 17596 0288 03       		.uleb128 0x3
 17597 0289 0E       		.uleb128 0xe
 17598 028a 3A       		.uleb128 0x3a
 17599 028b 0B       		.uleb128 0xb
 17600 028c 3B       		.uleb128 0x3b
 17601 028d 05       		.uleb128 0x5
 17602 028e 49       		.uleb128 0x49
 17603 028f 13       		.uleb128 0x13
 17604 0290 02       		.uleb128 0x2
 17605 0291 17       		.uleb128 0x17
 17606 0292 00       		.byte	0
 17607 0293 00       		.byte	0
 17608 0294 34       		.uleb128 0x34
 17609 0295 05       		.uleb128 0x5
ARM GAS  /tmp/ccU5UnMV.s 			page 324


 17610 0296 00       		.byte	0
 17611 0297 03       		.uleb128 0x3
 17612 0298 08       		.uleb128 0x8
 17613 0299 3A       		.uleb128 0x3a
 17614 029a 0B       		.uleb128 0xb
 17615 029b 3B       		.uleb128 0x3b
 17616 029c 05       		.uleb128 0x5
 17617 029d 49       		.uleb128 0x49
 17618 029e 13       		.uleb128 0x13
 17619 029f 02       		.uleb128 0x2
 17620 02a0 17       		.uleb128 0x17
 17621 02a1 00       		.byte	0
 17622 02a2 00       		.byte	0
 17623 02a3 35       		.uleb128 0x35
 17624 02a4 34       		.uleb128 0x34
 17625 02a5 00       		.byte	0
 17626 02a6 03       		.uleb128 0x3
 17627 02a7 0E       		.uleb128 0xe
 17628 02a8 3A       		.uleb128 0x3a
 17629 02a9 0B       		.uleb128 0xb
 17630 02aa 3B       		.uleb128 0x3b
 17631 02ab 05       		.uleb128 0x5
 17632 02ac 49       		.uleb128 0x49
 17633 02ad 13       		.uleb128 0x13
 17634 02ae 02       		.uleb128 0x2
 17635 02af 17       		.uleb128 0x17
 17636 02b0 00       		.byte	0
 17637 02b1 00       		.byte	0
 17638 02b2 36       		.uleb128 0x36
 17639 02b3 0B       		.uleb128 0xb
 17640 02b4 01       		.byte	0x1
 17641 02b5 55       		.uleb128 0x55
 17642 02b6 17       		.uleb128 0x17
 17643 02b7 00       		.byte	0
 17644 02b8 00       		.byte	0
 17645 02b9 37       		.uleb128 0x37
 17646 02ba 34       		.uleb128 0x34
 17647 02bb 00       		.byte	0
 17648 02bc 03       		.uleb128 0x3
 17649 02bd 08       		.uleb128 0x8
 17650 02be 3A       		.uleb128 0x3a
 17651 02bf 0B       		.uleb128 0xb
 17652 02c0 3B       		.uleb128 0x3b
 17653 02c1 05       		.uleb128 0x5
 17654 02c2 49       		.uleb128 0x49
 17655 02c3 13       		.uleb128 0x13
 17656 02c4 02       		.uleb128 0x2
 17657 02c5 17       		.uleb128 0x17
 17658 02c6 00       		.byte	0
 17659 02c7 00       		.byte	0
 17660 02c8 38       		.uleb128 0x38
 17661 02c9 898201   		.uleb128 0x4109
 17662 02cc 01       		.byte	0x1
 17663 02cd 11       		.uleb128 0x11
 17664 02ce 01       		.uleb128 0x1
 17665 02cf 31       		.uleb128 0x31
 17666 02d0 13       		.uleb128 0x13
ARM GAS  /tmp/ccU5UnMV.s 			page 325


 17667 02d1 00       		.byte	0
 17668 02d2 00       		.byte	0
 17669 02d3 39       		.uleb128 0x39
 17670 02d4 8A8201   		.uleb128 0x410a
 17671 02d7 00       		.byte	0
 17672 02d8 02       		.uleb128 0x2
 17673 02d9 18       		.uleb128 0x18
 17674 02da 9142     		.uleb128 0x2111
 17675 02dc 18       		.uleb128 0x18
 17676 02dd 00       		.byte	0
 17677 02de 00       		.byte	0
 17678 02df 3A       		.uleb128 0x3a
 17679 02e0 2E       		.uleb128 0x2e
 17680 02e1 01       		.byte	0x1
 17681 02e2 3F       		.uleb128 0x3f
 17682 02e3 19       		.uleb128 0x19
 17683 02e4 03       		.uleb128 0x3
 17684 02e5 0E       		.uleb128 0xe
 17685 02e6 3A       		.uleb128 0x3a
 17686 02e7 0B       		.uleb128 0xb
 17687 02e8 3B       		.uleb128 0x3b
 17688 02e9 0B       		.uleb128 0xb
 17689 02ea 27       		.uleb128 0x27
 17690 02eb 19       		.uleb128 0x19
 17691 02ec 11       		.uleb128 0x11
 17692 02ed 01       		.uleb128 0x1
 17693 02ee 12       		.uleb128 0x12
 17694 02ef 06       		.uleb128 0x6
 17695 02f0 40       		.uleb128 0x40
 17696 02f1 18       		.uleb128 0x18
 17697 02f2 9642     		.uleb128 0x2116
 17698 02f4 19       		.uleb128 0x19
 17699 02f5 01       		.uleb128 0x1
 17700 02f6 13       		.uleb128 0x13
 17701 02f7 00       		.byte	0
 17702 02f8 00       		.byte	0
 17703 02f9 3B       		.uleb128 0x3b
 17704 02fa 05       		.uleb128 0x5
 17705 02fb 00       		.byte	0
 17706 02fc 03       		.uleb128 0x3
 17707 02fd 08       		.uleb128 0x8
 17708 02fe 3A       		.uleb128 0x3a
 17709 02ff 0B       		.uleb128 0xb
 17710 0300 3B       		.uleb128 0x3b
 17711 0301 0B       		.uleb128 0xb
 17712 0302 49       		.uleb128 0x49
 17713 0303 13       		.uleb128 0x13
 17714 0304 02       		.uleb128 0x2
 17715 0305 17       		.uleb128 0x17
 17716 0306 00       		.byte	0
 17717 0307 00       		.byte	0
 17718 0308 3C       		.uleb128 0x3c
 17719 0309 34       		.uleb128 0x34
 17720 030a 00       		.byte	0
 17721 030b 03       		.uleb128 0x3
 17722 030c 0E       		.uleb128 0xe
 17723 030d 3A       		.uleb128 0x3a
ARM GAS  /tmp/ccU5UnMV.s 			page 326


 17724 030e 0B       		.uleb128 0xb
 17725 030f 3B       		.uleb128 0x3b
 17726 0310 0B       		.uleb128 0xb
 17727 0311 49       		.uleb128 0x49
 17728 0312 13       		.uleb128 0x13
 17729 0313 02       		.uleb128 0x2
 17730 0314 17       		.uleb128 0x17
 17731 0315 00       		.byte	0
 17732 0316 00       		.byte	0
 17733 0317 3D       		.uleb128 0x3d
 17734 0318 34       		.uleb128 0x34
 17735 0319 00       		.byte	0
 17736 031a 03       		.uleb128 0x3
 17737 031b 08       		.uleb128 0x8
 17738 031c 3A       		.uleb128 0x3a
 17739 031d 0B       		.uleb128 0xb
 17740 031e 3B       		.uleb128 0x3b
 17741 031f 0B       		.uleb128 0xb
 17742 0320 49       		.uleb128 0x49
 17743 0321 13       		.uleb128 0x13
 17744 0322 02       		.uleb128 0x2
 17745 0323 17       		.uleb128 0x17
 17746 0324 00       		.byte	0
 17747 0325 00       		.byte	0
 17748 0326 3E       		.uleb128 0x3e
 17749 0327 0B       		.uleb128 0xb
 17750 0328 01       		.byte	0x1
 17751 0329 11       		.uleb128 0x11
 17752 032a 01       		.uleb128 0x1
 17753 032b 12       		.uleb128 0x12
 17754 032c 06       		.uleb128 0x6
 17755 032d 01       		.uleb128 0x1
 17756 032e 13       		.uleb128 0x13
 17757 032f 00       		.byte	0
 17758 0330 00       		.byte	0
 17759 0331 3F       		.uleb128 0x3f
 17760 0332 898201   		.uleb128 0x4109
 17761 0335 01       		.byte	0x1
 17762 0336 11       		.uleb128 0x11
 17763 0337 01       		.uleb128 0x1
 17764 0338 31       		.uleb128 0x31
 17765 0339 13       		.uleb128 0x13
 17766 033a 01       		.uleb128 0x1
 17767 033b 13       		.uleb128 0x13
 17768 033c 00       		.byte	0
 17769 033d 00       		.byte	0
 17770 033e 40       		.uleb128 0x40
 17771 033f 898201   		.uleb128 0x4109
 17772 0342 00       		.byte	0
 17773 0343 11       		.uleb128 0x11
 17774 0344 01       		.uleb128 0x1
 17775 0345 31       		.uleb128 0x31
 17776 0346 13       		.uleb128 0x13
 17777 0347 00       		.byte	0
 17778 0348 00       		.byte	0
 17779 0349 41       		.uleb128 0x41
 17780 034a 1D       		.uleb128 0x1d
ARM GAS  /tmp/ccU5UnMV.s 			page 327


 17781 034b 00       		.byte	0
 17782 034c 31       		.uleb128 0x31
 17783 034d 13       		.uleb128 0x13
 17784 034e 11       		.uleb128 0x11
 17785 034f 01       		.uleb128 0x1
 17786 0350 12       		.uleb128 0x12
 17787 0351 06       		.uleb128 0x6
 17788 0352 58       		.uleb128 0x58
 17789 0353 0B       		.uleb128 0xb
 17790 0354 59       		.uleb128 0x59
 17791 0355 0B       		.uleb128 0xb
 17792 0356 00       		.byte	0
 17793 0357 00       		.byte	0
 17794 0358 42       		.uleb128 0x42
 17795 0359 1D       		.uleb128 0x1d
 17796 035a 01       		.byte	0x1
 17797 035b 31       		.uleb128 0x31
 17798 035c 13       		.uleb128 0x13
 17799 035d 11       		.uleb128 0x11
 17800 035e 01       		.uleb128 0x1
 17801 035f 12       		.uleb128 0x12
 17802 0360 06       		.uleb128 0x6
 17803 0361 58       		.uleb128 0x58
 17804 0362 0B       		.uleb128 0xb
 17805 0363 59       		.uleb128 0x59
 17806 0364 0B       		.uleb128 0xb
 17807 0365 01       		.uleb128 0x1
 17808 0366 13       		.uleb128 0x13
 17809 0367 00       		.byte	0
 17810 0368 00       		.byte	0
 17811 0369 43       		.uleb128 0x43
 17812 036a 1D       		.uleb128 0x1d
 17813 036b 01       		.byte	0x1
 17814 036c 31       		.uleb128 0x31
 17815 036d 13       		.uleb128 0x13
 17816 036e 11       		.uleb128 0x11
 17817 036f 01       		.uleb128 0x1
 17818 0370 12       		.uleb128 0x12
 17819 0371 06       		.uleb128 0x6
 17820 0372 58       		.uleb128 0x58
 17821 0373 0B       		.uleb128 0xb
 17822 0374 59       		.uleb128 0x59
 17823 0375 05       		.uleb128 0x5
 17824 0376 00       		.byte	0
 17825 0377 00       		.byte	0
 17826 0378 44       		.uleb128 0x44
 17827 0379 05       		.uleb128 0x5
 17828 037a 00       		.byte	0
 17829 037b 31       		.uleb128 0x31
 17830 037c 13       		.uleb128 0x13
 17831 037d 02       		.uleb128 0x2
 17832 037e 17       		.uleb128 0x17
 17833 037f 00       		.byte	0
 17834 0380 00       		.byte	0
 17835 0381 45       		.uleb128 0x45
 17836 0382 0B       		.uleb128 0xb
 17837 0383 01       		.byte	0x1
ARM GAS  /tmp/ccU5UnMV.s 			page 328


 17838 0384 11       		.uleb128 0x11
 17839 0385 01       		.uleb128 0x1
 17840 0386 12       		.uleb128 0x12
 17841 0387 06       		.uleb128 0x6
 17842 0388 00       		.byte	0
 17843 0389 00       		.byte	0
 17844 038a 46       		.uleb128 0x46
 17845 038b 0B       		.uleb128 0xb
 17846 038c 01       		.byte	0x1
 17847 038d 55       		.uleb128 0x55
 17848 038e 17       		.uleb128 0x17
 17849 038f 01       		.uleb128 0x1
 17850 0390 13       		.uleb128 0x13
 17851 0391 00       		.byte	0
 17852 0392 00       		.byte	0
 17853 0393 47       		.uleb128 0x47
 17854 0394 1D       		.uleb128 0x1d
 17855 0395 01       		.byte	0x1
 17856 0396 31       		.uleb128 0x31
 17857 0397 13       		.uleb128 0x13
 17858 0398 52       		.uleb128 0x52
 17859 0399 01       		.uleb128 0x1
 17860 039a 55       		.uleb128 0x55
 17861 039b 17       		.uleb128 0x17
 17862 039c 58       		.uleb128 0x58
 17863 039d 0B       		.uleb128 0xb
 17864 039e 59       		.uleb128 0x59
 17865 039f 0B       		.uleb128 0xb
 17866 03a0 01       		.uleb128 0x1
 17867 03a1 13       		.uleb128 0x13
 17868 03a2 00       		.byte	0
 17869 03a3 00       		.byte	0
 17870 03a4 48       		.uleb128 0x48
 17871 03a5 1D       		.uleb128 0x1d
 17872 03a6 00       		.byte	0
 17873 03a7 31       		.uleb128 0x31
 17874 03a8 13       		.uleb128 0x13
 17875 03a9 52       		.uleb128 0x52
 17876 03aa 01       		.uleb128 0x1
 17877 03ab 55       		.uleb128 0x55
 17878 03ac 17       		.uleb128 0x17
 17879 03ad 58       		.uleb128 0x58
 17880 03ae 0B       		.uleb128 0xb
 17881 03af 59       		.uleb128 0x59
 17882 03b0 05       		.uleb128 0x5
 17883 03b1 00       		.byte	0
 17884 03b2 00       		.byte	0
 17885 03b3 49       		.uleb128 0x49
 17886 03b4 1D       		.uleb128 0x1d
 17887 03b5 00       		.byte	0
 17888 03b6 31       		.uleb128 0x31
 17889 03b7 13       		.uleb128 0x13
 17890 03b8 11       		.uleb128 0x11
 17891 03b9 01       		.uleb128 0x1
 17892 03ba 12       		.uleb128 0x12
 17893 03bb 06       		.uleb128 0x6
 17894 03bc 58       		.uleb128 0x58
ARM GAS  /tmp/ccU5UnMV.s 			page 329


 17895 03bd 0B       		.uleb128 0xb
 17896 03be 59       		.uleb128 0x59
 17897 03bf 05       		.uleb128 0x5
 17898 03c0 00       		.byte	0
 17899 03c1 00       		.byte	0
 17900 03c2 4A       		.uleb128 0x4a
 17901 03c3 34       		.uleb128 0x34
 17902 03c4 00       		.byte	0
 17903 03c5 03       		.uleb128 0x3
 17904 03c6 0E       		.uleb128 0xe
 17905 03c7 3A       		.uleb128 0x3a
 17906 03c8 0B       		.uleb128 0xb
 17907 03c9 3B       		.uleb128 0x3b
 17908 03ca 05       		.uleb128 0x5
 17909 03cb 49       		.uleb128 0x49
 17910 03cc 13       		.uleb128 0x13
 17911 03cd 02       		.uleb128 0x2
 17912 03ce 18       		.uleb128 0x18
 17913 03cf 00       		.byte	0
 17914 03d0 00       		.byte	0
 17915 03d1 4B       		.uleb128 0x4b
 17916 03d2 34       		.uleb128 0x34
 17917 03d3 00       		.byte	0
 17918 03d4 03       		.uleb128 0x3
 17919 03d5 08       		.uleb128 0x8
 17920 03d6 3A       		.uleb128 0x3a
 17921 03d7 0B       		.uleb128 0xb
 17922 03d8 3B       		.uleb128 0x3b
 17923 03d9 05       		.uleb128 0x5
 17924 03da 49       		.uleb128 0x49
 17925 03db 13       		.uleb128 0x13
 17926 03dc 02       		.uleb128 0x2
 17927 03dd 18       		.uleb128 0x18
 17928 03de 00       		.byte	0
 17929 03df 00       		.byte	0
 17930 03e0 4C       		.uleb128 0x4c
 17931 03e1 34       		.uleb128 0x34
 17932 03e2 00       		.byte	0
 17933 03e3 03       		.uleb128 0x3
 17934 03e4 0E       		.uleb128 0xe
 17935 03e5 3A       		.uleb128 0x3a
 17936 03e6 0B       		.uleb128 0xb
 17937 03e7 3B       		.uleb128 0x3b
 17938 03e8 05       		.uleb128 0x5
 17939 03e9 49       		.uleb128 0x49
 17940 03ea 13       		.uleb128 0x13
 17941 03eb 00       		.byte	0
 17942 03ec 00       		.byte	0
 17943 03ed 4D       		.uleb128 0x4d
 17944 03ee 898201   		.uleb128 0x4109
 17945 03f1 01       		.byte	0x1
 17946 03f2 11       		.uleb128 0x11
 17947 03f3 01       		.uleb128 0x1
 17948 03f4 00       		.byte	0
 17949 03f5 00       		.byte	0
 17950 03f6 4E       		.uleb128 0x4e
 17951 03f7 2E       		.uleb128 0x2e
ARM GAS  /tmp/ccU5UnMV.s 			page 330


 17952 03f8 01       		.byte	0x1
 17953 03f9 03       		.uleb128 0x3
 17954 03fa 0E       		.uleb128 0xe
 17955 03fb 3A       		.uleb128 0x3a
 17956 03fc 0B       		.uleb128 0xb
 17957 03fd 3B       		.uleb128 0x3b
 17958 03fe 05       		.uleb128 0x5
 17959 03ff 27       		.uleb128 0x27
 17960 0400 19       		.uleb128 0x19
 17961 0401 49       		.uleb128 0x49
 17962 0402 13       		.uleb128 0x13
 17963 0403 20       		.uleb128 0x20
 17964 0404 0B       		.uleb128 0xb
 17965 0405 01       		.uleb128 0x1
 17966 0406 13       		.uleb128 0x13
 17967 0407 00       		.byte	0
 17968 0408 00       		.byte	0
 17969 0409 4F       		.uleb128 0x4f
 17970 040a 05       		.uleb128 0x5
 17971 040b 00       		.byte	0
 17972 040c 03       		.uleb128 0x3
 17973 040d 0E       		.uleb128 0xe
 17974 040e 3A       		.uleb128 0x3a
 17975 040f 0B       		.uleb128 0xb
 17976 0410 3B       		.uleb128 0x3b
 17977 0411 05       		.uleb128 0x5
 17978 0412 49       		.uleb128 0x49
 17979 0413 13       		.uleb128 0x13
 17980 0414 00       		.byte	0
 17981 0415 00       		.byte	0
 17982 0416 50       		.uleb128 0x50
 17983 0417 2E       		.uleb128 0x2e
 17984 0418 00       		.byte	0
 17985 0419 03       		.uleb128 0x3
 17986 041a 0E       		.uleb128 0xe
 17987 041b 3A       		.uleb128 0x3a
 17988 041c 0B       		.uleb128 0xb
 17989 041d 3B       		.uleb128 0x3b
 17990 041e 0B       		.uleb128 0xb
 17991 041f 27       		.uleb128 0x27
 17992 0420 19       		.uleb128 0x19
 17993 0421 49       		.uleb128 0x49
 17994 0422 13       		.uleb128 0x13
 17995 0423 20       		.uleb128 0x20
 17996 0424 0B       		.uleb128 0xb
 17997 0425 00       		.byte	0
 17998 0426 00       		.byte	0
 17999 0427 51       		.uleb128 0x51
 18000 0428 2E       		.uleb128 0x2e
 18001 0429 01       		.byte	0x1
 18002 042a 03       		.uleb128 0x3
 18003 042b 0E       		.uleb128 0xe
 18004 042c 3A       		.uleb128 0x3a
 18005 042d 0B       		.uleb128 0xb
 18006 042e 3B       		.uleb128 0x3b
 18007 042f 05       		.uleb128 0x5
 18008 0430 27       		.uleb128 0x27
ARM GAS  /tmp/ccU5UnMV.s 			page 331


 18009 0431 19       		.uleb128 0x19
 18010 0432 20       		.uleb128 0x20
 18011 0433 0B       		.uleb128 0xb
 18012 0434 01       		.uleb128 0x1
 18013 0435 13       		.uleb128 0x13
 18014 0436 00       		.byte	0
 18015 0437 00       		.byte	0
 18016 0438 52       		.uleb128 0x52
 18017 0439 34       		.uleb128 0x34
 18018 043a 00       		.byte	0
 18019 043b 03       		.uleb128 0x3
 18020 043c 0E       		.uleb128 0xe
 18021 043d 49       		.uleb128 0x49
 18022 043e 13       		.uleb128 0x13
 18023 043f 34       		.uleb128 0x34
 18024 0440 19       		.uleb128 0x19
 18025 0441 1C       		.uleb128 0x1c
 18026 0442 0E       		.uleb128 0xe
 18027 0443 00       		.byte	0
 18028 0444 00       		.byte	0
 18029 0445 53       		.uleb128 0x53
 18030 0446 2E       		.uleb128 0x2e
 18031 0447 00       		.byte	0
 18032 0448 03       		.uleb128 0x3
 18033 0449 0E       		.uleb128 0xe
 18034 044a 3A       		.uleb128 0x3a
 18035 044b 0B       		.uleb128 0xb
 18036 044c 3B       		.uleb128 0x3b
 18037 044d 05       		.uleb128 0x5
 18038 044e 27       		.uleb128 0x27
 18039 044f 19       		.uleb128 0x19
 18040 0450 20       		.uleb128 0x20
 18041 0451 0B       		.uleb128 0xb
 18042 0452 00       		.byte	0
 18043 0453 00       		.byte	0
 18044 0454 54       		.uleb128 0x54
 18045 0455 2E       		.uleb128 0x2e
 18046 0456 00       		.byte	0
 18047 0457 3F       		.uleb128 0x3f
 18048 0458 19       		.uleb128 0x19
 18049 0459 3C       		.uleb128 0x3c
 18050 045a 19       		.uleb128 0x19
 18051 045b 6E       		.uleb128 0x6e
 18052 045c 0E       		.uleb128 0xe
 18053 045d 03       		.uleb128 0x3
 18054 045e 0E       		.uleb128 0xe
 18055 045f 3A       		.uleb128 0x3a
 18056 0460 0B       		.uleb128 0xb
 18057 0461 3B       		.uleb128 0x3b
 18058 0462 0B       		.uleb128 0xb
 18059 0463 00       		.byte	0
 18060 0464 00       		.byte	0
 18061 0465 55       		.uleb128 0x55
 18062 0466 2E       		.uleb128 0x2e
 18063 0467 00       		.byte	0
 18064 0468 3F       		.uleb128 0x3f
 18065 0469 19       		.uleb128 0x19
ARM GAS  /tmp/ccU5UnMV.s 			page 332


 18066 046a 3C       		.uleb128 0x3c
 18067 046b 19       		.uleb128 0x19
 18068 046c 6E       		.uleb128 0x6e
 18069 046d 0E       		.uleb128 0xe
 18070 046e 03       		.uleb128 0x3
 18071 046f 0E       		.uleb128 0xe
 18072 0470 3A       		.uleb128 0x3a
 18073 0471 0B       		.uleb128 0xb
 18074 0472 3B       		.uleb128 0x3b
 18075 0473 0B       		.uleb128 0xb
 18076 0474 6E       		.uleb128 0x6e
 18077 0475 0E       		.uleb128 0xe
 18078 0476 00       		.byte	0
 18079 0477 00       		.byte	0
 18080 0478 00       		.byte	0
 18081              		.section	.debug_loc,"",%progbits
 18082              	.Ldebug_loc0:
 18083              	.LLST40:
 18084 0000 00000000 		.4byte	.LVL481
 18085 0004 1C000000 		.4byte	.LVL483
 18086 0008 0100     		.2byte	0x1
 18087 000a 50       		.byte	0x50
 18088 000b 1C000000 		.4byte	.LVL483
 18089 000f 84000000 		.4byte	.LFE261
 18090 0013 0100     		.2byte	0x1
 18091 0015 55       		.byte	0x55
 18092 0016 00000000 		.4byte	0
 18093 001a 00000000 		.4byte	0
 18094              	.LLST41:
 18095 001e 00000000 		.4byte	.LVL481
 18096 0022 24000000 		.4byte	.LVL484
 18097 0026 0100     		.2byte	0x1
 18098 0028 51       		.byte	0x51
 18099 0029 24000000 		.4byte	.LVL484
 18100 002d 76000000 		.4byte	.LVL492
 18101 0031 0100     		.2byte	0x1
 18102 0033 5B       		.byte	0x5b
 18103 0034 76000000 		.4byte	.LVL492
 18104 0038 84000000 		.4byte	.LFE261
 18105 003c 0100     		.2byte	0x1
 18106 003e 51       		.byte	0x51
 18107 003f 00000000 		.4byte	0
 18108 0043 00000000 		.4byte	0
 18109              	.LLST42:
 18110 0047 00000000 		.4byte	.LVL481
 18111 004b 24000000 		.4byte	.LVL484
 18112 004f 0100     		.2byte	0x1
 18113 0051 52       		.byte	0x52
 18114 0052 24000000 		.4byte	.LVL484
 18115 0056 76000000 		.4byte	.LVL492
 18116 005a 0100     		.2byte	0x1
 18117 005c 5A       		.byte	0x5a
 18118 005d 76000000 		.4byte	.LVL492
 18119 0061 84000000 		.4byte	.LFE261
 18120 0065 0100     		.2byte	0x1
 18121 0067 52       		.byte	0x52
 18122 0068 00000000 		.4byte	0
ARM GAS  /tmp/ccU5UnMV.s 			page 333


 18123 006c 00000000 		.4byte	0
 18124              	.LLST43:
 18125 0070 00000000 		.4byte	.LVL481
 18126 0074 24000000 		.4byte	.LVL484
 18127 0078 0100     		.2byte	0x1
 18128 007a 53       		.byte	0x53
 18129 007b 24000000 		.4byte	.LVL484
 18130 007f 76000000 		.4byte	.LVL492
 18131 0083 0100     		.2byte	0x1
 18132 0085 59       		.byte	0x59
 18133 0086 76000000 		.4byte	.LVL492
 18134 008a 78000000 		.4byte	.LVL493
 18135 008e 0100     		.2byte	0x1
 18136 0090 53       		.byte	0x53
 18137 0091 78000000 		.4byte	.LVL493
 18138 0095 84000000 		.4byte	.LFE261
 18139 0099 0100     		.2byte	0x1
 18140 009b 59       		.byte	0x59
 18141 009c 00000000 		.4byte	0
 18142 00a0 00000000 		.4byte	0
 18143              	.LLST44:
 18144 00a4 0E000000 		.4byte	.LVL482
 18145 00a8 40000000 		.4byte	.LVL488
 18146 00ac 0100     		.2byte	0x1
 18147 00ae 57       		.byte	0x57
 18148 00af 50000000 		.4byte	.LVL489
 18149 00b3 56000000 		.4byte	.LVL490
 18150 00b7 0100     		.2byte	0x1
 18151 00b9 57       		.byte	0x57
 18152 00ba 56000000 		.4byte	.LVL490
 18153 00be 76000000 		.4byte	.LVL492
 18154 00c2 0300     		.2byte	0x3
 18155 00c4 77       		.byte	0x77
 18156 00c5 7F       		.sleb128 -1
 18157 00c6 9F       		.byte	0x9f
 18158 00c7 76000000 		.4byte	.LVL492
 18159 00cb 84000000 		.4byte	.LFE261
 18160 00cf 0100     		.2byte	0x1
 18161 00d1 57       		.byte	0x57
 18162 00d2 00000000 		.4byte	0
 18163 00d6 00000000 		.4byte	0
 18164              	.LLST45:
 18165 00da 0E000000 		.4byte	.LVL482
 18166 00de 24000000 		.4byte	.LVL484
 18167 00e2 0200     		.2byte	0x2
 18168 00e4 30       		.byte	0x30
 18169 00e5 9F       		.byte	0x9f
 18170 00e6 24000000 		.4byte	.LVL484
 18171 00ea 26000000 		.4byte	.LVL485
 18172 00ee 0300     		.2byte	0x3
 18173 00f0 74       		.byte	0x74
 18174 00f1 01       		.sleb128 1
 18175 00f2 9F       		.byte	0x9f
 18176 00f3 26000000 		.4byte	.LVL485
 18177 00f7 34000000 		.4byte	.LVL486
 18178 00fb 0100     		.2byte	0x1
 18179 00fd 54       		.byte	0x54
ARM GAS  /tmp/ccU5UnMV.s 			page 334


 18180 00fe 3A000000 		.4byte	.LVL487
 18181 0102 40000000 		.4byte	.LVL488
 18182 0106 0300     		.2byte	0x3
 18183 0108 74       		.byte	0x74
 18184 0109 01       		.sleb128 1
 18185 010a 9F       		.byte	0x9f
 18186 010b 76000000 		.4byte	.LVL492
 18187 010f 84000000 		.4byte	.LFE261
 18188 0113 0200     		.2byte	0x2
 18189 0115 30       		.byte	0x30
 18190 0116 9F       		.byte	0x9f
 18191 0117 00000000 		.4byte	0
 18192 011b 00000000 		.4byte	0
 18193              	.LLST39:
 18194 011f 00000000 		.4byte	.LVL476
 18195 0123 0C000000 		.4byte	.LVL477
 18196 0127 0100     		.2byte	0x1
 18197 0129 50       		.byte	0x50
 18198 012a 0C000000 		.4byte	.LVL477
 18199 012e 20000000 		.4byte	.LVL478
 18200 0132 0300     		.2byte	0x3
 18201 0134 75       		.byte	0x75
 18202 0135 70       		.sleb128 -16
 18203 0136 9F       		.byte	0x9f
 18204 0137 20000000 		.4byte	.LVL478
 18205 013b 24000000 		.4byte	.LVL479
 18206 013f 0300     		.2byte	0x3
 18207 0141 75       		.byte	0x75
 18208 0142 60       		.sleb128 -32
 18209 0143 9F       		.byte	0x9f
 18210 0144 24000000 		.4byte	.LVL479
 18211 0148 3A000000 		.4byte	.LVL480
 18212 014c 0300     		.2byte	0x3
 18213 014e 75       		.byte	0x75
 18214 014f 50       		.sleb128 -48
 18215 0150 9F       		.byte	0x9f
 18216 0151 3A000000 		.4byte	.LVL480
 18217 0155 44000000 		.4byte	.LFE260
 18218 0159 0400     		.2byte	0x4
 18219 015b F3       		.byte	0xf3
 18220 015c 01       		.uleb128 0x1
 18221 015d 50       		.byte	0x50
 18222 015e 9F       		.byte	0x9f
 18223 015f 00000000 		.4byte	0
 18224 0163 00000000 		.4byte	0
 18225              	.LLST0:
 18226 0167 00000000 		.4byte	.LVL0
 18227 016b 0F000000 		.4byte	.LVL1-1
 18228 016f 0100     		.2byte	0x1
 18229 0171 50       		.byte	0x50
 18230 0172 0F000000 		.4byte	.LVL1-1
 18231 0176 DC170000 		.4byte	.LFE259
 18232 017a 0400     		.2byte	0x4
 18233 017c F3       		.byte	0xf3
 18234 017d 01       		.uleb128 0x1
 18235 017e 50       		.byte	0x50
 18236 017f 9F       		.byte	0x9f
ARM GAS  /tmp/ccU5UnMV.s 			page 335


 18237 0180 00000000 		.4byte	0
 18238 0184 00000000 		.4byte	0
 18239              	.LLST1:
 18240 0188 00000000 		.4byte	.LVL0
 18241 018c 1E000000 		.4byte	.LVL2
 18242 0190 0200     		.2byte	0x2
 18243 0192 30       		.byte	0x30
 18244 0193 9F       		.byte	0x9f
 18245 0194 1E000000 		.4byte	.LVL2
 18246 0198 D0000000 		.4byte	.LVL19
 18247 019c 0100     		.2byte	0x1
 18248 019e 54       		.byte	0x54
 18249 019f D0000000 		.4byte	.LVL19
 18250 01a3 D6000000 		.4byte	.LVL21
 18251 01a7 0200     		.2byte	0x2
 18252 01a9 30       		.byte	0x30
 18253 01aa 9F       		.byte	0x9f
 18254 01ab E0000000 		.4byte	.LVL22
 18255 01af 8E010000 		.4byte	.LVL44
 18256 01b3 0100     		.2byte	0x1
 18257 01b5 54       		.byte	0x54
 18258 01b6 AC010000 		.4byte	.LVL49
 18259 01ba C8010000 		.4byte	.LVL53
 18260 01be 0100     		.2byte	0x1
 18261 01c0 54       		.byte	0x54
 18262 01c1 2A020000 		.4byte	.LVL60
 18263 01c5 50030000 		.4byte	.LVL68
 18264 01c9 0100     		.2byte	0x1
 18265 01cb 54       		.byte	0x54
 18266 01cc 40040000 		.4byte	.LVL95
 18267 01d0 A2040000 		.4byte	.LVL111
 18268 01d4 0100     		.2byte	0x1
 18269 01d6 54       		.byte	0x54
 18270 01d7 FA040000 		.4byte	.LVL123
 18271 01db AE050000 		.4byte	.LVL129
 18272 01df 0100     		.2byte	0x1
 18273 01e1 54       		.byte	0x54
 18274 01e2 B6050000 		.4byte	.LVL131
 18275 01e6 1E070000 		.4byte	.LVL143
 18276 01ea 0100     		.2byte	0x1
 18277 01ec 54       		.byte	0x54
 18278 01ed 9E070000 		.4byte	.LVL154
 18279 01f1 D2070000 		.4byte	.LVL157
 18280 01f5 0100     		.2byte	0x1
 18281 01f7 54       		.byte	0x54
 18282 01f8 1A080000 		.4byte	.LVL164
 18283 01fc 30080000 		.4byte	.LVL166
 18284 0200 0100     		.2byte	0x1
 18285 0202 54       		.byte	0x54
 18286 0203 A4080000 		.4byte	.LVL174
 18287 0207 B4080000 		.4byte	.LVL176
 18288 020b 0100     		.2byte	0x1
 18289 020d 54       		.byte	0x54
 18290 020e 58090000 		.4byte	.LVL194
 18291 0212 C2090000 		.4byte	.LVL206
 18292 0216 0100     		.2byte	0x1
 18293 0218 54       		.byte	0x54
ARM GAS  /tmp/ccU5UnMV.s 			page 336


 18294 0219 F2090000 		.4byte	.LVL208
 18295 021d 200B0000 		.4byte	.LVL215
 18296 0221 0100     		.2byte	0x1
 18297 0223 54       		.byte	0x54
 18298 0224 320B0000 		.4byte	.LVL218
 18299 0228 DA0B0000 		.4byte	.LVL233
 18300 022c 0100     		.2byte	0x1
 18301 022e 54       		.byte	0x54
 18302 022f 460C0000 		.4byte	.LVL253
 18303 0233 820E0000 		.4byte	.LVL284
 18304 0237 0100     		.2byte	0x1
 18305 0239 54       		.byte	0x54
 18306 023a E00E0000 		.4byte	.LVL288
 18307 023e 7A0F0000 		.4byte	.LVL295
 18308 0242 0100     		.2byte	0x1
 18309 0244 54       		.byte	0x54
 18310 0245 840F0000 		.4byte	.LVL297
 18311 0249 9C0F0000 		.4byte	.LVL299
 18312 024d 0100     		.2byte	0x1
 18313 024f 54       		.byte	0x54
 18314 0250 98100000 		.4byte	.LVL317
 18315 0254 9C110000 		.4byte	.LVL330
 18316 0258 0100     		.2byte	0x1
 18317 025a 54       		.byte	0x54
 18318 025b 54120000 		.4byte	.LVL345
 18319 025f 64120000 		.4byte	.LVL347
 18320 0263 0100     		.2byte	0x1
 18321 0265 54       		.byte	0x54
 18322 0266 8E120000 		.4byte	.LVL353
 18323 026a DE120000 		.4byte	.LVL358
 18324 026e 0100     		.2byte	0x1
 18325 0270 54       		.byte	0x54
 18326 0271 FC120000 		.4byte	.LVL362
 18327 0275 0A130000 		.4byte	.LVL364
 18328 0279 0100     		.2byte	0x1
 18329 027b 54       		.byte	0x54
 18330 027c 9C130000 		.4byte	.LVL381
 18331 0280 54140000 		.4byte	.LVL387
 18332 0284 0100     		.2byte	0x1
 18333 0286 54       		.byte	0x54
 18334 0287 5C160000 		.4byte	.LVL468
 18335 028b 76160000 		.4byte	.LVL472
 18336 028f 0100     		.2byte	0x1
 18337 0291 54       		.byte	0x54
 18338 0292 00000000 		.4byte	0
 18339 0296 00000000 		.4byte	0
 18340              	.LLST2:
 18341 029a 10000000 		.4byte	.LVL1
 18342 029e 2A000000 		.4byte	.LVL4
 18343 02a2 0100     		.2byte	0x1
 18344 02a4 50       		.byte	0x50
 18345 02a5 2A000000 		.4byte	.LVL4
 18346 02a9 2D000000 		.4byte	.LVL5-1
 18347 02ad 0200     		.2byte	0x2
 18348 02af 75       		.byte	0x75
 18349 02b0 7C       		.sleb128 -4
 18350 02b1 30000000 		.4byte	.LVL6
ARM GAS  /tmp/ccU5UnMV.s 			page 337


 18351 02b5 39000000 		.4byte	.LVL7-1
 18352 02b9 0100     		.2byte	0x1
 18353 02bb 50       		.byte	0x50
 18354 02bc D0000000 		.4byte	.LVL19
 18355 02c0 D2000000 		.4byte	.LVL20
 18356 02c4 0100     		.2byte	0x1
 18357 02c6 50       		.byte	0x50
 18358 02c7 00000000 		.4byte	0
 18359 02cb 00000000 		.4byte	0
 18360              	.LLST3:
 18361 02cf 8E010000 		.4byte	.LVL44
 18362 02d3 91010000 		.4byte	.LVL45-1
 18363 02d7 0100     		.2byte	0x1
 18364 02d9 50       		.byte	0x50
 18365 02da 91010000 		.4byte	.LVL45-1
 18366 02de AC010000 		.4byte	.LVL49
 18367 02e2 0100     		.2byte	0x1
 18368 02e4 54       		.byte	0x54
 18369 02e5 00000000 		.4byte	0
 18370 02e9 00000000 		.4byte	0
 18371              	.LLST4:
 18372 02ed C8010000 		.4byte	.LVL53
 18373 02f1 EC010000 		.4byte	.LVL54
 18374 02f5 0100     		.2byte	0x1
 18375 02f7 50       		.byte	0x50
 18376 02f8 EC010000 		.4byte	.LVL54
 18377 02fc 1C020000 		.4byte	.LVL57
 18378 0300 0100     		.2byte	0x1
 18379 0302 54       		.byte	0x54
 18380 0303 1C020000 		.4byte	.LVL57
 18381 0307 24020000 		.4byte	.LVL58
 18382 030b 0100     		.2byte	0x1
 18383 030d 50       		.byte	0x50
 18384 030e 24020000 		.4byte	.LVL58
 18385 0312 2A020000 		.4byte	.LVL60
 18386 0316 0100     		.2byte	0x1
 18387 0318 54       		.byte	0x54
 18388 0319 00000000 		.4byte	0
 18389 031d 00000000 		.4byte	0
 18390              	.LLST5:
 18391 0321 84020000 		.4byte	.LVL67
 18392 0325 50030000 		.4byte	.LVL68
 18393 0329 0200     		.2byte	0x2
 18394 032b 30       		.byte	0x30
 18395 032c 9F       		.byte	0x9f
 18396 032d 50030000 		.4byte	.LVL68
 18397 0331 56030000 		.4byte	.LVL69
 18398 0335 0300     		.2byte	0x3
 18399 0337 76       		.byte	0x76
 18400 0338 7F       		.sleb128 -1
 18401 0339 9F       		.byte	0x9f
 18402 033a 56030000 		.4byte	.LVL69
 18403 033e E8030000 		.4byte	.LVL85
 18404 0342 0100     		.2byte	0x1
 18405 0344 56       		.byte	0x56
 18406 0345 E8030000 		.4byte	.LVL85
 18407 0349 40040000 		.4byte	.LVL95
ARM GAS  /tmp/ccU5UnMV.s 			page 338


 18408 034d 0300     		.2byte	0x3
 18409 034f 76       		.byte	0x76
 18410 0350 7F       		.sleb128 -1
 18411 0351 9F       		.byte	0x9f
 18412 0352 00000000 		.4byte	0
 18413 0356 00000000 		.4byte	0
 18414              	.LLST6:
 18415 035a 92040000 		.4byte	.LVL105
 18416 035e FA040000 		.4byte	.LVL123
 18417 0362 0100     		.2byte	0x1
 18418 0364 5A       		.byte	0x5a
 18419 0365 00000000 		.4byte	0
 18420 0369 00000000 		.4byte	0
 18421              	.LLST7:
 18422 036d 96040000 		.4byte	.LVL106
 18423 0371 FA040000 		.4byte	.LVL123
 18424 0375 0100     		.2byte	0x1
 18425 0377 59       		.byte	0x59
 18426 0378 00000000 		.4byte	0
 18427 037c 00000000 		.4byte	0
 18428              	.LLST8:
 18429 0380 9A040000 		.4byte	.LVL107
 18430 0384 FA040000 		.4byte	.LVL123
 18431 0388 0100     		.2byte	0x1
 18432 038a 58       		.byte	0x58
 18433 038b 00000000 		.4byte	0
 18434 038f 00000000 		.4byte	0
 18435              	.LLST9:
 18436 0393 9C040000 		.4byte	.LVL108
 18437 0397 FA040000 		.4byte	.LVL123
 18438 039b 0100     		.2byte	0x1
 18439 039d 57       		.byte	0x57
 18440 039e 00000000 		.4byte	0
 18441 03a2 00000000 		.4byte	0
 18442              	.LLST10:
 18443 03a6 9E040000 		.4byte	.LVL109
 18444 03aa FA040000 		.4byte	.LVL123
 18445 03ae 0100     		.2byte	0x1
 18446 03b0 56       		.byte	0x56
 18447 03b1 00000000 		.4byte	0
 18448 03b5 00000000 		.4byte	0
 18449              	.LLST11:
 18450 03b9 A0040000 		.4byte	.LVL110
 18451 03bd FA040000 		.4byte	.LVL123
 18452 03c1 0100     		.2byte	0x1
 18453 03c3 55       		.byte	0x55
 18454 03c4 00000000 		.4byte	0
 18455 03c8 00000000 		.4byte	0
 18456              	.LLST12:
 18457 03cc A2040000 		.4byte	.LVL111
 18458 03d0 FA040000 		.4byte	.LVL123
 18459 03d4 0100     		.2byte	0x1
 18460 03d6 54       		.byte	0x54
 18461 03d7 00000000 		.4byte	0
 18462 03db 00000000 		.4byte	0
 18463              	.LLST13:
 18464 03df 66040000 		.4byte	.LVL101
ARM GAS  /tmp/ccU5UnMV.s 			page 339


 18465 03e3 6C040000 		.4byte	.LVL102
 18466 03e7 0300     		.2byte	0x3
 18467 03e9 08       		.byte	0x8
 18468 03ea 20       		.byte	0x20
 18469 03eb 9F       		.byte	0x9f
 18470 03ec 00000000 		.4byte	0
 18471 03f0 00000000 		.4byte	0
 18472              	.LLST14:
 18473 03f4 88040000 		.4byte	.LVL103
 18474 03f8 8C040000 		.4byte	.LVL104
 18475 03fc 0200     		.2byte	0x2
 18476 03fe 30       		.byte	0x30
 18477 03ff 9F       		.byte	0x9f
 18478 0400 00000000 		.4byte	0
 18479 0404 00000000 		.4byte	0
 18480              	.LLST18:
 18481 0408 B2080000 		.4byte	.LVL175
 18482 040c B4080000 		.4byte	.LVL176
 18483 0410 0200     		.2byte	0x2
 18484 0412 30       		.byte	0x30
 18485 0413 9F       		.byte	0x9f
 18486 0414 B4080000 		.4byte	.LVL176
 18487 0418 CE080000 		.4byte	.LVL180
 18488 041c 0100     		.2byte	0x1
 18489 041e 56       		.byte	0x56
 18490 041f CE080000 		.4byte	.LVL180
 18491 0423 58090000 		.4byte	.LVL194
 18492 0427 0300     		.2byte	0x3
 18493 0429 76       		.byte	0x76
 18494 042a 7F       		.sleb128 -1
 18495 042b 9F       		.byte	0x9f
 18496 042c 00000000 		.4byte	0
 18497 0430 00000000 		.4byte	0
 18498              	.LLST19:
 18499 0434 B4080000 		.4byte	.LVL176
 18500 0438 BA080000 		.4byte	.LVL177
 18501 043c 0100     		.2byte	0x1
 18502 043e 54       		.byte	0x54
 18503 043f C6080000 		.4byte	.LVL179
 18504 0443 EE080000 		.4byte	.LVL182
 18505 0447 0100     		.2byte	0x1
 18506 0449 50       		.byte	0x50
 18507 044a EE080000 		.4byte	.LVL182
 18508 044e 58090000 		.4byte	.LVL194
 18509 0452 0100     		.2byte	0x1
 18510 0454 54       		.byte	0x54
 18511 0455 00000000 		.4byte	0
 18512 0459 00000000 		.4byte	0
 18513              	.LLST20:
 18514 045d C6080000 		.4byte	.LVL179
 18515 0461 D2080000 		.4byte	.LVL181
 18516 0465 0200     		.2byte	0x2
 18517 0467 70       		.byte	0x70
 18518 0468 04       		.sleb128 4
 18519 0469 00000000 		.4byte	0
 18520 046d 00000000 		.4byte	0
 18521              	.LLST21:
ARM GAS  /tmp/ccU5UnMV.s 			page 340


 18522 0471 FA080000 		.4byte	.LVL184
 18523 0475 FE080000 		.4byte	.LVL185
 18524 0479 0200     		.2byte	0x2
 18525 047b 74       		.byte	0x74
 18526 047c 04       		.sleb128 4
 18527 047d 00000000 		.4byte	0
 18528 0481 00000000 		.4byte	0
 18529              	.LLST16:
 18530 0485 3C070000 		.4byte	.LVL145
 18531 0489 9E070000 		.4byte	.LVL154
 18532 048d 0100     		.2byte	0x1
 18533 048f 57       		.byte	0x57
 18534 0490 00000000 		.4byte	0
 18535 0494 00000000 		.4byte	0
 18536              	.LLST17:
 18537 0498 7C080000 		.4byte	.LVL169
 18538 049c 83080000 		.4byte	.LVL170-1
 18539 04a0 0200     		.2byte	0x2
 18540 04a2 90       		.byte	0x90
 18541 04a3 40       		.uleb128 0x40
 18542 04a4 00000000 		.4byte	0
 18543 04a8 00000000 		.4byte	0
 18544              	.LLST22:
 18545 04ac 900B0000 		.4byte	.LVL223
 18546 04b0 460C0000 		.4byte	.LVL253
 18547 04b4 0200     		.2byte	0x2
 18548 04b6 90       		.byte	0x90
 18549 04b7 52       		.uleb128 0x52
 18550 04b8 00000000 		.4byte	0
 18551 04bc 00000000 		.4byte	0
 18552              	.LLST23:
 18553 04c0 960B0000 		.4byte	.LVL225
 18554 04c4 990B0000 		.4byte	.LVL226-1
 18555 04c8 0100     		.2byte	0x1
 18556 04ca 50       		.byte	0x50
 18557 04cb 990B0000 		.4byte	.LVL226-1
 18558 04cf 460C0000 		.4byte	.LVL253
 18559 04d3 0100     		.2byte	0x1
 18560 04d5 57       		.byte	0x57
 18561 04d6 00000000 		.4byte	0
 18562 04da 00000000 		.4byte	0
 18563              	.LLST24:
 18564 04de 9E0B0000 		.4byte	.LVL227
 18565 04e2 A10B0000 		.4byte	.LVL228-1
 18566 04e6 0200     		.2byte	0x2
 18567 04e8 90       		.byte	0x90
 18568 04e9 40       		.uleb128 0x40
 18569 04ea A10B0000 		.4byte	.LVL228-1
 18570 04ee 460C0000 		.4byte	.LVL253
 18571 04f2 0200     		.2byte	0x2
 18572 04f4 90       		.byte	0x90
 18573 04f5 55       		.uleb128 0x55
 18574 04f6 00000000 		.4byte	0
 18575 04fa 00000000 		.4byte	0
 18576              	.LLST25:
 18577 04fe EA0B0000 		.4byte	.LVL234
 18578 0502 240C0000 		.4byte	.LVL246
ARM GAS  /tmp/ccU5UnMV.s 			page 341


 18579 0506 0200     		.2byte	0x2
 18580 0508 90       		.byte	0x90
 18581 0509 54       		.uleb128 0x54
 18582 050a 240C0000 		.4byte	.LVL246
 18583 050e 2C0C0000 		.4byte	.LVL248
 18584 0512 0800     		.2byte	0x8
 18585 0514 F5       		.byte	0xf5
 18586 0515 54       		.uleb128 0x54
 18587 0516 25       		.uleb128 0x25
 18588 0517 F5       		.byte	0xf5
 18589 0518 51       		.uleb128 0x51
 18590 0519 25       		.uleb128 0x25
 18591 051a 1B       		.byte	0x1b
 18592 051b 9F       		.byte	0x9f
 18593 051c 2C0C0000 		.4byte	.LVL248
 18594 0520 340C0000 		.4byte	.LVL250
 18595 0524 0200     		.2byte	0x2
 18596 0526 90       		.byte	0x90
 18597 0527 4E       		.uleb128 0x4e
 18598 0528 340C0000 		.4byte	.LVL250
 18599 052c 460C0000 		.4byte	.LVL253
 18600 0530 0800     		.2byte	0x8
 18601 0532 F5       		.byte	0xf5
 18602 0533 54       		.uleb128 0x54
 18603 0534 25       		.uleb128 0x25
 18604 0535 F5       		.byte	0xf5
 18605 0536 51       		.uleb128 0x51
 18606 0537 25       		.uleb128 0x25
 18607 0538 1B       		.byte	0x1b
 18608 0539 9F       		.byte	0x9f
 18609 053a 00000000 		.4byte	0
 18610 053e 00000000 		.4byte	0
 18611              	.LLST26:
 18612 0542 EA0B0000 		.4byte	.LVL234
 18613 0546 240C0000 		.4byte	.LVL246
 18614 054a 0200     		.2byte	0x2
 18615 054c 90       		.byte	0x90
 18616 054d 53       		.uleb128 0x53
 18617 054e 240C0000 		.4byte	.LVL246
 18618 0552 300C0000 		.4byte	.LVL249
 18619 0556 0800     		.2byte	0x8
 18620 0558 F5       		.byte	0xf5
 18621 0559 53       		.uleb128 0x53
 18622 055a 25       		.uleb128 0x25
 18623 055b F5       		.byte	0xf5
 18624 055c 51       		.uleb128 0x51
 18625 055d 25       		.uleb128 0x25
 18626 055e 1B       		.byte	0x1b
 18627 055f 9F       		.byte	0x9f
 18628 0560 300C0000 		.4byte	.LVL249
 18629 0564 3C0C0000 		.4byte	.LVL252
 18630 0568 0200     		.2byte	0x2
 18631 056a 90       		.byte	0x90
 18632 056b 4F       		.uleb128 0x4f
 18633 056c 3C0C0000 		.4byte	.LVL252
 18634 0570 460C0000 		.4byte	.LVL253
 18635 0574 0800     		.2byte	0x8
ARM GAS  /tmp/ccU5UnMV.s 			page 342


 18636 0576 F5       		.byte	0xf5
 18637 0577 53       		.uleb128 0x53
 18638 0578 25       		.uleb128 0x25
 18639 0579 F5       		.byte	0xf5
 18640 057a 51       		.uleb128 0x51
 18641 057b 25       		.uleb128 0x25
 18642 057c 1B       		.byte	0x1b
 18643 057d 9F       		.byte	0x9f
 18644 057e 00000000 		.4byte	0
 18645 0582 00000000 		.4byte	0
 18646              	.LLST27:
 18647 0586 EA0B0000 		.4byte	.LVL234
 18648 058a 460C0000 		.4byte	.LVL253
 18649 058e 0200     		.2byte	0x2
 18650 0590 90       		.byte	0x90
 18651 0591 51       		.uleb128 0x51
 18652 0592 00000000 		.4byte	0
 18653 0596 00000000 		.4byte	0
 18654              	.LLST28:
 18655 059a EA0B0000 		.4byte	.LVL234
 18656 059e 240C0000 		.4byte	.LVL246
 18657 05a2 0200     		.2byte	0x2
 18658 05a4 90       		.byte	0x90
 18659 05a5 50       		.uleb128 0x50
 18660 05a6 240C0000 		.4byte	.LVL246
 18661 05aa 280C0000 		.4byte	.LVL247
 18662 05ae 0800     		.2byte	0x8
 18663 05b0 F5       		.byte	0xf5
 18664 05b1 50       		.uleb128 0x50
 18665 05b2 25       		.uleb128 0x25
 18666 05b3 F5       		.byte	0xf5
 18667 05b4 51       		.uleb128 0x51
 18668 05b5 25       		.uleb128 0x25
 18669 05b6 1B       		.byte	0x1b
 18670 05b7 9F       		.byte	0x9f
 18671 05b8 280C0000 		.4byte	.LVL247
 18672 05bc 380C0000 		.4byte	.LVL251
 18673 05c0 0200     		.2byte	0x2
 18674 05c2 90       		.byte	0x90
 18675 05c3 4D       		.uleb128 0x4d
 18676 05c4 380C0000 		.4byte	.LVL251
 18677 05c8 460C0000 		.4byte	.LVL253
 18678 05cc 0800     		.2byte	0x8
 18679 05ce F5       		.byte	0xf5
 18680 05cf 50       		.uleb128 0x50
 18681 05d0 25       		.uleb128 0x25
 18682 05d1 F5       		.byte	0xf5
 18683 05d2 51       		.uleb128 0x51
 18684 05d3 25       		.uleb128 0x25
 18685 05d4 1B       		.byte	0x1b
 18686 05d5 9F       		.byte	0x9f
 18687 05d6 00000000 		.4byte	0
 18688 05da 00000000 		.4byte	0
 18689              	.LLST29:
 18690 05de AE0B0000 		.4byte	.LVL229
 18691 05e2 C00B0000 		.4byte	.LVL230
 18692 05e6 0100     		.2byte	0x1
ARM GAS  /tmp/ccU5UnMV.s 			page 343


 18693 05e8 56       		.byte	0x56
 18694 05e9 C00B0000 		.4byte	.LVL230
 18695 05ed CE0B0000 		.4byte	.LVL232
 18696 05f1 0300     		.2byte	0x3
 18697 05f3 76       		.byte	0x76
 18698 05f4 7F       		.sleb128 -1
 18699 05f5 9F       		.byte	0x9f
 18700 05f6 CE0B0000 		.4byte	.LVL232
 18701 05fa 460C0000 		.4byte	.LVL253
 18702 05fe 0100     		.2byte	0x1
 18703 0600 56       		.byte	0x56
 18704 0601 00000000 		.4byte	0
 18705 0605 00000000 		.4byte	0
 18706              	.LLST30:
 18707 0609 EA0B0000 		.4byte	.LVL234
 18708 060d 0A0C0000 		.4byte	.LVL242
 18709 0611 0700     		.2byte	0x7
 18710 0613 0A       		.byte	0xa
 18711 0614 E803     		.2byte	0x3e8
 18712 0616 74       		.byte	0x74
 18713 0617 00       		.sleb128 0
 18714 0618 1C       		.byte	0x1c
 18715 0619 9F       		.byte	0x9f
 18716 061a 0A0C0000 		.4byte	.LVL242
 18717 061e 0E0C0000 		.4byte	.LVL243
 18718 0622 0700     		.2byte	0x7
 18719 0624 0A       		.byte	0xa
 18720 0625 E703     		.2byte	0x3e7
 18721 0627 74       		.byte	0x74
 18722 0628 00       		.sleb128 0
 18723 0629 1C       		.byte	0x1c
 18724 062a 9F       		.byte	0x9f
 18725 062b 00000000 		.4byte	0
 18726 062f 00000000 		.4byte	0
 18727              	.LLST31:
 18728 0633 660F0000 		.4byte	.LVL294
 18729 0637 7A0F0000 		.4byte	.LVL295
 18730 063b 0100     		.2byte	0x1
 18731 063d 50       		.byte	0x50
 18732 063e 00000000 		.4byte	0
 18733 0642 00000000 		.4byte	0
 18734              	.LLST32:
 18735 0646 26100000 		.4byte	.LVL303
 18736 064a 36100000 		.4byte	.LVL304
 18737 064e 0100     		.2byte	0x1
 18738 0650 57       		.byte	0x57
 18739 0651 36100000 		.4byte	.LVL304
 18740 0655 4E100000 		.4byte	.LVL307
 18741 0659 0300     		.2byte	0x3
 18742 065b 77       		.byte	0x77
 18743 065c 7F       		.sleb128 -1
 18744 065d 9F       		.byte	0x9f
 18745 065e 4E100000 		.4byte	.LVL307
 18746 0662 52100000 		.4byte	.LVL308
 18747 0666 0100     		.2byte	0x1
 18748 0668 57       		.byte	0x57
 18749 0669 52100000 		.4byte	.LVL308
ARM GAS  /tmp/ccU5UnMV.s 			page 344


 18750 066d 6E100000 		.4byte	.LVL310
 18751 0671 0200     		.2byte	0x2
 18752 0673 30       		.byte	0x30
 18753 0674 9F       		.byte	0x9f
 18754 0675 6E100000 		.4byte	.LVL310
 18755 0679 74100000 		.4byte	.LVL312
 18756 067d 0100     		.2byte	0x1
 18757 067f 57       		.byte	0x57
 18758 0680 00000000 		.4byte	0
 18759 0684 00000000 		.4byte	0
 18760              	.LLST33:
 18761 0688 26100000 		.4byte	.LVL303
 18762 068c 74100000 		.4byte	.LVL312
 18763 0690 0200     		.2byte	0x2
 18764 0692 90       		.byte	0x90
 18765 0693 50       		.uleb128 0x50
 18766 0694 00000000 		.4byte	0
 18767 0698 00000000 		.4byte	0
 18768              	.LLST34:
 18769 069c 76120000 		.4byte	.LVL349
 18770 06a0 78120000 		.4byte	.LVL350
 18771 06a4 0200     		.2byte	0x2
 18772 06a6 31       		.byte	0x31
 18773 06a7 9F       		.byte	0x9f
 18774 06a8 00000000 		.4byte	0
 18775 06ac 00000000 		.4byte	0
 18776              	.LLST35:
 18777 06b0 64120000 		.4byte	.LVL347
 18778 06b4 8E120000 		.4byte	.LVL353
 18779 06b8 0100     		.2byte	0x1
 18780 06ba 56       		.byte	0x56
 18781 06bb 00000000 		.4byte	0
 18782 06bf 00000000 		.4byte	0
 18783              	.LLST15:
 18784 06c3 DE100000 		.4byte	.LVL322
 18785 06c7 E2100000 		.4byte	.LVL323
 18786 06cb 0100     		.2byte	0x1
 18787 06cd 50       		.byte	0x50
 18788 06ce E2100000 		.4byte	.LVL323
 18789 06d2 E5100000 		.4byte	.LVL324-1
 18790 06d6 0100     		.2byte	0x1
 18791 06d8 51       		.byte	0x51
 18792 06d9 E5100000 		.4byte	.LVL324-1
 18793 06dd F2100000 		.4byte	.LVL325
 18794 06e1 0100     		.2byte	0x1
 18795 06e3 55       		.byte	0x55
 18796 06e4 F2100000 		.4byte	.LVL325
 18797 06e8 FA100000 		.4byte	.LVL326
 18798 06ec 0300     		.2byte	0x3
 18799 06ee 75       		.byte	0x75
 18800 06ef 75       		.sleb128 -11
 18801 06f0 9F       		.byte	0x9f
 18802 06f1 04110000 		.4byte	.LVL328
 18803 06f5 54120000 		.4byte	.LVL345
 18804 06f9 0100     		.2byte	0x1
 18805 06fb 55       		.byte	0x55
 18806 06fc 00000000 		.4byte	0
ARM GAS  /tmp/ccU5UnMV.s 			page 345


 18807 0700 00000000 		.4byte	0
 18808              	.LLST38:
 18809 0704 2C160000 		.4byte	.LVL464
 18810 0708 5C160000 		.4byte	.LVL468
 18811 070c 0100     		.2byte	0x1
 18812 070e 56       		.byte	0x56
 18813 070f 76160000 		.4byte	.LVL472
 18814 0713 DC170000 		.4byte	.LFE259
 18815 0717 0100     		.2byte	0x1
 18816 0719 56       		.byte	0x56
 18817 071a 00000000 		.4byte	0
 18818 071e 00000000 		.4byte	0
 18819              	.LLST36:
 18820 0722 66160000 		.4byte	.LVL469
 18821 0726 6A160000 		.4byte	.LVL470
 18822 072a 0200     		.2byte	0x2
 18823 072c 31       		.byte	0x31
 18824 072d 9F       		.byte	0x9f
 18825 072e 6A160000 		.4byte	.LVL470
 18826 0732 76160000 		.4byte	.LVL472
 18827 0736 0200     		.2byte	0x2
 18828 0738 30       		.byte	0x30
 18829 0739 9F       		.byte	0x9f
 18830 073a 00000000 		.4byte	0
 18831 073e 00000000 		.4byte	0
 18832              	.LLST37:
 18833 0742 B4130000 		.4byte	.LVL383
 18834 0746 50140000 		.4byte	.LVL386
 18835 074a 0100     		.2byte	0x1
 18836 074c 57       		.byte	0x57
 18837 074d 5C160000 		.4byte	.LVL468
 18838 0751 76160000 		.4byte	.LVL472
 18839 0755 0100     		.2byte	0x1
 18840 0757 57       		.byte	0x57
 18841 0758 00000000 		.4byte	0
 18842 075c 00000000 		.4byte	0
 18843              		.section	.debug_aranges,"",%progbits
 18844 0000 2C000000 		.4byte	0x2c
 18845 0004 0200     		.2byte	0x2
 18846 0006 00000000 		.4byte	.Ldebug_info0
 18847 000a 04       		.byte	0x4
 18848 000b 00       		.byte	0
 18849 000c 0000     		.2byte	0
 18850 000e 0000     		.2byte	0
 18851 0010 00000000 		.4byte	.LFB259
 18852 0014 DC170000 		.4byte	.LFE259-.LFB259
 18853 0018 00000000 		.4byte	.LFB260
 18854 001c 44000000 		.4byte	.LFE260-.LFB260
 18855 0020 00000000 		.4byte	.LFB261
 18856 0024 84000000 		.4byte	.LFE261-.LFB261
 18857 0028 00000000 		.4byte	0
 18858 002c 00000000 		.4byte	0
 18859              		.section	.debug_ranges,"",%progbits
 18860              	.Ldebug_ranges0:
 18861 0000 2A050000 		.4byte	.LBB92
 18862 0004 AE050000 		.4byte	.LBE92
 18863 0008 F0050000 		.4byte	.LBB99
ARM GAS  /tmp/ccU5UnMV.s 			page 346


 18864 000c FC060000 		.4byte	.LBE99
 18865 0010 AE090000 		.4byte	.LBB126
 18866 0014 900A0000 		.4byte	.LBE126
 18867 0018 00000000 		.4byte	0
 18868 001c 00000000 		.4byte	0
 18869 0020 F0050000 		.4byte	.LBB93
 18870 0024 FC060000 		.4byte	.LBE93
 18871 0028 AE090000 		.4byte	.LBB94
 18872 002c FC090000 		.4byte	.LBE94
 18873 0030 00000000 		.4byte	0
 18874 0034 00000000 		.4byte	0
 18875 0038 AE050000 		.4byte	.LBB95
 18876 003c B6050000 		.4byte	.LBE95
 18877 0040 7A0F0000 		.4byte	.LBB146
 18878 0044 840F0000 		.4byte	.LBE146
 18879 0048 DC100000 		.4byte	.LBB157
 18880 004c 54120000 		.4byte	.LBE157
 18881 0050 9E120000 		.4byte	.LBB159
 18882 0054 FC120000 		.4byte	.LBE159
 18883 0058 00000000 		.4byte	0
 18884 005c 00000000 		.4byte	0
 18885 0060 7A0F0000 		.4byte	.LBB96
 18886 0064 840F0000 		.4byte	.LBE96
 18887 0068 DC100000 		.4byte	.LBB97
 18888 006c 54120000 		.4byte	.LBE97
 18889 0070 BC120000 		.4byte	.LBB98
 18890 0074 FC120000 		.4byte	.LBE98
 18891 0078 00000000 		.4byte	0
 18892 007c 00000000 		.4byte	0
 18893 0080 FC060000 		.4byte	.LBB100
 18894 0084 9E070000 		.4byte	.LBE100
 18895 0088 12080000 		.4byte	.LBB103
 18896 008c 1A080000 		.4byte	.LBE103
 18897 0090 00000000 		.4byte	0
 18898 0094 00000000 		.4byte	0
 18899 0098 A6080000 		.4byte	.LBB106
 18900 009c AE080000 		.4byte	.LBE106
 18901 00a0 B4080000 		.4byte	.LBB124
 18902 00a4 58090000 		.4byte	.LBE124
 18903 00a8 00000000 		.4byte	0
 18904 00ac 00000000 		.4byte	0
 18905 00b0 A6080000 		.4byte	.LBB107
 18906 00b4 AE080000 		.4byte	.LBE107
 18907 00b8 BA080000 		.4byte	.LBB122
 18908 00bc CA080000 		.4byte	.LBE122
 18909 00c0 CE080000 		.4byte	.LBB123
 18910 00c4 58090000 		.4byte	.LBE123
 18911 00c8 00000000 		.4byte	0
 18912 00cc 00000000 		.4byte	0
 18913 00d0 A6080000 		.4byte	.LBB108
 18914 00d4 A8080000 		.4byte	.LBE108
 18915 00d8 D0080000 		.4byte	.LBB115
 18916 00dc D6080000 		.4byte	.LBE115
 18917 00e0 00000000 		.4byte	0
 18918 00e4 00000000 		.4byte	0
 18919 00e8 A6080000 		.4byte	.LBB110
 18920 00ec A8080000 		.4byte	.LBE110
ARM GAS  /tmp/ccU5UnMV.s 			page 347


 18921 00f0 D0080000 		.4byte	.LBB113
 18922 00f4 D2080000 		.4byte	.LBE113
 18923 00f8 00000000 		.4byte	0
 18924 00fc 00000000 		.4byte	0
 18925 0100 FA080000 		.4byte	.LBB116
 18926 0104 FE080000 		.4byte	.LBE116
 18927 0108 02090000 		.4byte	.LBB121
 18928 010c 04090000 		.4byte	.LBE121
 18929 0110 00000000 		.4byte	0
 18930 0114 00000000 		.4byte	0
 18931 0118 200B0000 		.4byte	.LBB129
 18932 011c 320B0000 		.4byte	.LBE129
 18933 0120 560B0000 		.4byte	.LBB136
 18934 0124 460C0000 		.4byte	.LBE136
 18935 0128 00000000 		.4byte	0
 18936 012c 00000000 		.4byte	0
 18937 0130 200B0000 		.4byte	.LBB130
 18938 0134 2E0B0000 		.4byte	.LBE130
 18939 0138 760B0000 		.4byte	.LBB135
 18940 013c 460C0000 		.4byte	.LBE135
 18941 0140 00000000 		.4byte	0
 18942 0144 00000000 		.4byte	0
 18943 0148 780B0000 		.4byte	.LBB131
 18944 014c 7C0B0000 		.4byte	.LBE131
 18945 0150 AE0B0000 		.4byte	.LBB132
 18946 0154 D20B0000 		.4byte	.LBE132
 18947 0158 D60B0000 		.4byte	.LBB133
 18948 015c DA0B0000 		.4byte	.LBE133
 18949 0160 00000000 		.4byte	0
 18950 0164 00000000 		.4byte	0
 18951 0168 980F0000 		.4byte	.LBB147
 18952 016c 74100000 		.4byte	.LBE147
 18953 0170 7E100000 		.4byte	.LBB154
 18954 0174 98100000 		.4byte	.LBE154
 18955 0178 00000000 		.4byte	0
 18956 017c 00000000 		.4byte	0
 18957 0180 18100000 		.4byte	.LBB149
 18958 0184 24100000 		.4byte	.LBE149
 18959 0188 26100000 		.4byte	.LBB150
 18960 018c 74100000 		.4byte	.LBE150
 18961 0190 00000000 		.4byte	0
 18962 0194 00000000 		.4byte	0
 18963 0198 74100000 		.4byte	.LBB151
 18964 019c 7E100000 		.4byte	.LBE151
 18965 01a0 60120000 		.4byte	.LBB158
 18966 01a4 8E120000 		.4byte	.LBE158
 18967 01a8 00000000 		.4byte	0
 18968 01ac 00000000 		.4byte	0
 18969 01b0 60120000 		.4byte	.LBB152
 18970 01b4 62120000 		.4byte	.LBE152
 18971 01b8 64120000 		.4byte	.LBB153
 18972 01bc 7E120000 		.4byte	.LBE153
 18973 01c0 00000000 		.4byte	0
 18974 01c4 00000000 		.4byte	0
 18975 01c8 AA130000 		.4byte	.LBB160
 18976 01cc 50140000 		.4byte	.LBE160
 18977 01d0 5C160000 		.4byte	.LBB165
ARM GAS  /tmp/ccU5UnMV.s 			page 348


 18978 01d4 76160000 		.4byte	.LBE165
 18979 01d8 00000000 		.4byte	0
 18980 01dc 00000000 		.4byte	0
 18981 01e0 AA130000 		.4byte	.LBB161
 18982 01e4 50140000 		.4byte	.LBE161
 18983 01e8 5C160000 		.4byte	.LBB162
 18984 01ec 6A160000 		.4byte	.LBE162
 18985 01f0 00000000 		.4byte	0
 18986 01f4 00000000 		.4byte	0
 18987 01f8 58140000 		.4byte	.LBB163
 18988 01fc 60140000 		.4byte	.LBE163
 18989 0200 2C160000 		.4byte	.LBB164
 18990 0204 5C160000 		.4byte	.LBE164
 18991 0208 76160000 		.4byte	.LBB166
 18992 020c 86160000 		.4byte	.LBE166
 18993 0210 00000000 		.4byte	0
 18994 0214 00000000 		.4byte	0
 18995 0218 08000000 		.4byte	.LBB167
 18996 021c 0A000000 		.4byte	.LBE167
 18997 0220 0E000000 		.4byte	.LBB168
 18998 0224 10000000 		.4byte	.LBE168
 18999 0228 18000000 		.4byte	.LBB169
 19000 022c 40000000 		.4byte	.LBE169
 19001 0230 00000000 		.4byte	0
 19002 0234 00000000 		.4byte	0
 19003 0238 00000000 		.4byte	.LFB259
 19004 023c DC170000 		.4byte	.LFE259
 19005 0240 00000000 		.4byte	.LFB260
 19006 0244 44000000 		.4byte	.LFE260
 19007 0248 00000000 		.4byte	.LFB261
 19008 024c 84000000 		.4byte	.LFE261
 19009 0250 00000000 		.4byte	0
 19010 0254 00000000 		.4byte	0
 19011              		.section	.debug_line,"",%progbits
 19012              	.Ldebug_line0:
 19013 0000 ED0A0000 		.section	.debug_str,"MS",%progbits,1
 19013      0200B605 
 19013      00000201 
 19013      FB0E0D00 
 19013      01010101 
 19014              	.LASF647:
 19015 0000 5553425F 		.ascii	"USB_STOP\000"
 19015      53544F50 
 19015      00
 19016              	.LASF147:
 19017 0009 706F7274 		.ascii	"port_intctx\000"
 19017      5F696E74 
 19017      63747800 
 19018              	.LASF285:
 19019 0015 6C5F6D61 		.ascii	"l_max_erpm_fbrake\000"
 19019      785F6572 
 19019      706D5F66 
 19019      6272616B 
 19019      6500
 19020              	.LASF169:
 19021 0027 63685F70 		.ascii	"ch_ptrsize\000"
 19021      74727369 
ARM GAS  /tmp/ccU5UnMV.s 			page 349


 19021      7A6500
 19022              	.LASF281:
 19023 0032 6C5F6162 		.ascii	"l_abs_current_max\000"
 19023      735F6375 
 19023      7272656E 
 19023      745F6D61 
 19023      7800
 19024              	.LASF888:
 19025 0044 5F6D6272 		.ascii	"_mbrtowc_state\000"
 19025      746F7763 
 19025      5F737461 
 19025      746500
 19026              	.LASF448:
 19027 0053 434F4D4D 		.ascii	"COMM_EXT_NRF_ESB_SEND_DATA\000"
 19027      5F455854 
 19027      5F4E5246 
 19027      5F455342 
 19027      5F53454E 
 19028              	.LASF521:
 19029 006e 43414E5F 		.ascii	"CAN_STARTING\000"
 19029      53544152 
 19029      54494E47 
 19029      00
 19030              	.LASF975:
 19031 007b 636F6D6D 		.ascii	"commands_printf\000"
 19031      616E6473 
 19031      5F707269 
 19031      6E746600 
 19032              	.LASF964:
 19033 008b 5F5F6675 		.ascii	"__func__\000"
 19033      6E635F5F 
 19033      00
 19034              	.LASF29:
 19035 0094 6D73675F 		.ascii	"msg_t\000"
 19035      7400
 19036              	.LASF547:
 19037 009a 4F504D4F 		.ascii	"OPMODE_SMBUS_DEVICE\000"
 19037      44455F53 
 19037      4D425553 
 19037      5F444556 
 19037      49434500 
 19038              	.LASF989:
 19039 00ae 636F6E66 		.ascii	"conf_general_measure_flux_linkage\000"
 19039      5F67656E 
 19039      6572616C 
 19039      5F6D6561 
 19039      73757265 
 19040              	.LASF422:
 19041 00d0 434F4D4D 		.ascii	"COMM_DETECT_HALL_FOC\000"
 19041      5F444554 
 19041      4543545F 
 19041      48414C4C 
 19041      5F464F43 
 19042              	.LASF928:
 19043 00e5 74385F63 		.ascii	"t8_cnt\000"
 19043      6E7400
 19044              	.LASF334:
ARM GAS  /tmp/ccU5UnMV.s 			page 350


 19045 00ec 666F635F 		.ascii	"foc_observer_gain_slow\000"
 19045      6F627365 
 19045      72766572 
 19045      5F676169 
 19045      6E5F736C 
 19046              	.LASF706:
 19047 0103 44494550 		.ascii	"DIEPTXF0\000"
 19047      54584630 
 19047      00
 19048              	.LASF783:
 19049 010c 55534244 		.ascii	"USBD1\000"
 19049      3100
 19050              	.LASF520:
 19051 0112 43414E5F 		.ascii	"CAN_STOP\000"
 19051      53544F50 
 19051      00
 19052              	.LASF357:
 19053 011b 6770645F 		.ascii	"gpd_current_ki\000"
 19053      63757272 
 19053      656E745F 
 19053      6B6900
 19054              	.LASF182:
 19055 012a 63665F6F 		.ascii	"cf_off_time\000"
 19055      66665F74 
 19055      696D6500 
 19056              	.LASF82:
 19057 0136 63685F73 		.ascii	"ch_system_t\000"
 19057      79737465 
 19057      6D5F7400 
 19058              	.LASF5:
 19059 0142 5F5F7569 		.ascii	"__uint8_t\000"
 19059      6E74385F 
 19059      7400
 19060              	.LASF154:
 19061 014c 77747365 		.ascii	"wtsemp\000"
 19061      6D7000
 19062              	.LASF459:
 19063 0153 434F4D4D 		.ascii	"COMM_GET_IMU_DATA\000"
 19063      5F474554 
 19063      5F494D55 
 19063      5F444154 
 19063      4100
 19064              	.LASF392:
 19065 0165 5F426F6F 		.ascii	"_Bool\000"
 19065      6C00
 19066              	.LASF997:
 19067 016b 74696D65 		.ascii	"timeout_get_brake_current\000"
 19067      6F75745F 
 19067      6765745F 
 19067      6272616B 
 19067      655F6375 
 19068              	.LASF565:
 19069 0185 646D6172 		.ascii	"dmarx\000"
 19069      7800
 19070              	.LASF842:
 19071 018b 5F6D6273 		.ascii	"_mbstate\000"
 19071      74617465 
ARM GAS  /tmp/ccU5UnMV.s 			page 351


 19071      00
 19072              	.LASF821:
 19073 0194 5F617465 		.ascii	"_atexit\000"
 19073      78697400 
 19074              	.LASF725:
 19075 019c 72657376 		.ascii	"resvd700\000"
 19075      64373030 
 19075      00
 19076              	.LASF736:
 19077 01a5 44564255 		.ascii	"DVBUSDIS\000"
 19077      53444953 
 19077      00
 19078              	.LASF559:
 19079 01ae 6572726F 		.ascii	"errors\000"
 19079      727300
 19080              	.LASF832:
 19081 01b5 5F726561 		.ascii	"_read\000"
 19081      6400
 19082              	.LASF621:
 19083 01bb 73706963 		.ascii	"spicallback_t\000"
 19083      616C6C62 
 19083      61636B5F 
 19083      7400
 19084              	.LASF78:
 19085 01c9 76745F73 		.ascii	"vt_systime\000"
 19085      79737469 
 19085      6D6500
 19086              	.LASF380:
 19087 01d4 6D5F6472 		.ascii	"m_drv8301_oc_adj\000"
 19087      76383330 
 19087      315F6F63 
 19087      5F61646A 
 19087      00
 19088              	.LASF645:
 19089 01e5 75736265 		.ascii	"usbep_t\000"
 19089      705F7400 
 19090              	.LASF451:
 19091 01ed 434F4D4D 		.ascii	"COMM_DETECT_MOTOR_FLUX_LINKAGE_OPENLOOP\000"
 19091      5F444554 
 19091      4543545F 
 19091      4D4F544F 
 19091      525F464C 
 19092              	.LASF811:
 19093 0215 5F5F746D 		.ascii	"__tm_mon\000"
 19093      5F6D6F6E 
 19093      00
 19094              	.LASF819:
 19095 021e 5F666E74 		.ascii	"_fntypes\000"
 19095      79706573 
 19095      00
 19096              	.LASF960:
 19097 0227 616E676C 		.ascii	"angle\000"
 19097      6500
 19098              	.LASF163:
 19099 022d 6D5F6E65 		.ascii	"m_next\000"
 19099      787400
 19100              	.LASF509:
ARM GAS  /tmp/ccU5UnMV.s 			page 352


 19101 0234 50434461 		.ascii	"PCData\000"
 19101      746100
 19102              	.LASF291:
 19103 023b 6C5F736C 		.ascii	"l_slow_abs_current\000"
 19103      6F775F61 
 19103      62735F63 
 19103      75727265 
 19103      6E7400
 19104              	.LASF849:
 19105 024e 5F696E63 		.ascii	"_inc\000"
 19105      00
 19106              	.LASF822:
 19107 0253 5F696E64 		.ascii	"_ind\000"
 19107      00
 19108              	.LASF454:
 19109 0258 434F4D4D 		.ascii	"COMM_ERASE_NEW_APP_ALL_CAN\000"
 19109      5F455241 
 19109      53455F4E 
 19109      45575F41 
 19109      50505F41 
 19110              	.LASF953:
 19111 0273 73616D70 		.ascii	"samples\000"
 19111      6C657300 
 19112              	.LASF710:
 19113 027b 47434346 		.ascii	"GCCFG\000"
 19113      4700
 19114              	.LASF280:
 19115 0281 6C5F696E 		.ascii	"l_in_current_min\000"
 19115      5F637572 
 19115      72656E74 
 19115      5F6D696E 
 19115      00
 19116              	.LASF139:
 19117 0292 42445452 		.ascii	"BDTR\000"
 19117      00
 19118              	.LASF259:
 19119 0297 636F6D6D 		.ascii	"comm_time_sum\000"
 19119      5F74696D 
 19119      655F7375 
 19119      6D00
 19120              	.LASF446:
 19121 02a5 434F4D4D 		.ascii	"COMM_EXT_NRF_PRESENT\000"
 19121      5F455854 
 19121      5F4E5246 
 19121      5F505245 
 19121      53454E54 
 19122              	.LASF557:
 19123 02ba 49324343 		.ascii	"I2CConfig\000"
 19123      6F6E6669 
 19123      6700
 19124              	.LASF19:
 19125 02c4 75696E74 		.ascii	"uint16_t\000"
 19125      31365F74 
 19125      00
 19126              	.LASF566:
 19127 02cd 646D6174 		.ascii	"dmatx\000"
 19127      7800
ARM GAS  /tmp/ccU5UnMV.s 			page 353


 19128              	.LASF781:
 19129 02d3 736F665F 		.ascii	"sof_cb\000"
 19129      636200
 19130              	.LASF328:
 19131 02da 666F635F 		.ascii	"foc_encoder_cos_gain\000"
 19131      656E636F 
 19131      6465725F 
 19131      636F735F 
 19131      6761696E 
 19132              	.LASF943:
 19133 02ef 74797065 		.ascii	"type_old\000"
 19133      5F6F6C64 
 19133      00
 19134              	.LASF828:
 19135 02f8 5F666C61 		.ascii	"_flags\000"
 19135      677300
 19136              	.LASF502:
 19137 02ff 6F737065 		.ascii	"ospeedr\000"
 19137      65647200 
 19138              	.LASF713:
 19139 0307 44494550 		.ascii	"DIEPTXF\000"
 19139      54584600 
 19140              	.LASF188:
 19141 030f 656C5F6E 		.ascii	"el_next\000"
 19141      65787400 
 19142              	.LASF369:
 19143 0317 63635F73 		.ascii	"cc_startup_boost_duty\000"
 19143      74617274 
 19143      75705F62 
 19143      6F6F7374 
 19143      5F647574 
 19144              	.LASF859:
 19145 032d 5F637674 		.ascii	"_cvtlen\000"
 19145      6C656E00 
 19146              	.LASF59:
 19147 0335 63685F74 		.ascii	"ch_threads_queue\000"
 19147      68726561 
 19147      64735F71 
 19147      75657565 
 19147      00
 19148              	.LASF902:
 19149 0346 5F5F6664 		.ascii	"__fdlibm_svid\000"
 19149      6C69626D 
 19149      5F737669 
 19149      6400
 19150              	.LASF282:
 19151 0354 6C5F6D69 		.ascii	"l_min_erpm\000"
 19151      6E5F6572 
 19151      706D00
 19152              	.LASF39:
 19153 035f 705F6E65 		.ascii	"p_newer\000"
 19153      77657200 
 19154              	.LASF723:
 19155 0367 48505254 		.ascii	"HPRT\000"
 19155      00
 19156              	.LASF322:
 19157 036c 666F635F 		.ascii	"foc_encoder_offset\000"
ARM GAS  /tmp/ccU5UnMV.s 			page 354


 19157      656E636F 
 19157      6465725F 
 19157      6F666673 
 19157      657400
 19158              	.LASF951:
 19159 037f 76715F61 		.ascii	"vq_avg\000"
 19159      766700
 19160              	.LASF677:
 19161 0386 4843494E 		.ascii	"HCINT\000"
 19161      5400
 19162              	.LASF179:
 19163 038c 63665F6F 		.ascii	"cf_off_flags\000"
 19163      66665F66 
 19163      6C616773 
 19163      00
 19164              	.LASF841:
 19165 0399 5F6C6F63 		.ascii	"_lock\000"
 19165      6B00
 19166              	.LASF837:
 19167 039f 5F6E6275 		.ascii	"_nbuf\000"
 19167      6600
 19168              	.LASF615:
 19169 03a5 5350495F 		.ascii	"SPI_STOP\000"
 19169      53544F50 
 19169      00
 19170              	.LASF895:
 19171 03ae 5F756E75 		.ascii	"_unused\000"
 19171      73656400 
 19172              	.LASF387:
 19173 03b6 73695F67 		.ascii	"si_gear_ratio\000"
 19173      6561725F 
 19173      72617469 
 19173      6F00
 19174              	.LASF508:
 19175 03c4 50424461 		.ascii	"PBData\000"
 19175      746100
 19176              	.LASF167:
 19177 03cb 63685F73 		.ascii	"ch_size\000"
 19177      697A6500 
 19178              	.LASF719:
 19179 03d3 48505458 		.ascii	"HPTXSTS\000"
 19179      53545300 
 19180              	.LASF501:
 19181 03db 6F747970 		.ascii	"otyper\000"
 19181      657200
 19182              	.LASF293:
 19183 03e2 6C5F7465 		.ascii	"l_temp_fet_end\000"
 19183      6D705F66 
 19183      65745F65 
 19183      6E6400
 19184              	.LASF492:
 19185 03f1 4F545950 		.ascii	"OTYPER\000"
 19185      455200
 19186              	.LASF619:
 19187 03f8 73706973 		.ascii	"spistate_t\000"
 19187      74617465 
 19187      5F7400
ARM GAS  /tmp/ccU5UnMV.s 			page 355


 19188              	.LASF675:
 19189 0403 48434348 		.ascii	"HCCHAR\000"
 19189      415200
 19190              	.LASF391:
 19191 040a 73695F62 		.ascii	"si_battery_ah\000"
 19191      61747465 
 19191      72795F61 
 19191      6800
 19192              	.LASF818:
 19193 0418 5F64736F 		.ascii	"_dso_handle\000"
 19193      5F68616E 
 19193      646C6500 
 19194              	.LASF541:
 19195 0424 4932435F 		.ascii	"I2C_ACTIVE_RX\000"
 19195      41435449 
 19195      56455F52 
 19195      5800
 19196              	.LASF34:
 19197 0432 74687265 		.ascii	"thread_t\000"
 19197      61645F74 
 19197      00
 19198              	.LASF190:
 19199 043b 656C5F65 		.ascii	"el_events\000"
 19199      76656E74 
 19199      7300
 19200              	.LASF533:
 19201 0445 736C6565 		.ascii	"sleep_event\000"
 19201      705F6576 
 19201      656E7400 
 19202              	.LASF77:
 19203 0451 63685F76 		.ascii	"ch_virtual_timers_list\000"
 19203      69727475 
 19203      616C5F74 
 19203      696D6572 
 19203      735F6C69 
 19204              	.LASF487:
 19205 0468 76656374 		.ascii	"vector\000"
 19205      6F7200
 19206              	.LASF469:
 19207 046f 67617465 		.ascii	"gate_driver_voltage\000"
 19207      5F647269 
 19207      7665725F 
 19207      766F6C74 
 19207      61676500 
 19208              	.LASF20:
 19209 0483 696E7433 		.ascii	"int32_t\000"
 19209      325F7400 
 19210              	.LASF883:
 19211 048b 5F776374 		.ascii	"_wctomb_state\000"
 19211      6F6D625F 
 19211      73746174 
 19211      6500
 19212              	.LASF555:
 19213 0499 636C6F63 		.ascii	"clock_speed\000"
 19213      6B5F7370 
 19213      65656400 
 19214              	.LASF33:
ARM GAS  /tmp/ccU5UnMV.s 			page 356


 19215 04a5 73797374 		.ascii	"systime_t\000"
 19215      696D655F 
 19215      7400
 19216              	.LASF535:
 19217 04af 43414E44 		.ascii	"CANDriver\000"
 19217      72697665 
 19217      7200
 19218              	.LASF177:
 19219 04b9 63665F6F 		.ascii	"cf_off_stklimit\000"
 19219      66665F73 
 19219      746B6C69 
 19219      6D697400 
 19220              	.LASF116:
 19221 04c9 4D304152 		.ascii	"M0AR\000"
 19221      00
 19222              	.LASF264:
 19223 04ce 44525638 		.ascii	"DRV8301_OC_LIMIT\000"
 19223      3330315F 
 19223      4F435F4C 
 19223      494D4954 
 19223      00
 19224              	.LASF545:
 19225 04df 69326366 		.ascii	"i2cflags_t\000"
 19225      6C616773 
 19225      5F7400
 19226              	.LASF720:
 19227 04ea 4841494E 		.ascii	"HAINT\000"
 19227      5400
 19228              	.LASF239:
 19229 04f0 4641554C 		.ascii	"FAULT_CODE_OVER_TEMP_FET\000"
 19229      545F434F 
 19229      44455F4F 
 19229      5645525F 
 19229      54454D50 
 19230              	.LASF442:
 19231 0509 434F4D4D 		.ascii	"COMM_SET_MCCONF_TEMP\000"
 19231      5F534554 
 19231      5F4D4343 
 19231      4F4E465F 
 19231      54454D50 
 19232              	.LASF111:
 19233 051e 46413152 		.ascii	"FA1R\000"
 19233      00
 19234              	.LASF211:
 19235 0523 50574D5F 		.ascii	"PWM_MODE_BIPOLAR\000"
 19235      4D4F4445 
 19235      5F424950 
 19235      4F4C4152 
 19235      00
 19236              	.LASF212:
 19237 0534 6D635F70 		.ascii	"mc_pwm_mode\000"
 19237      776D5F6D 
 19237      6F646500 
 19238              	.LASF717:
 19239 0540 48464E55 		.ascii	"HFNUM\000"
 19239      4D00
 19240              	.LASF1022:
ARM GAS  /tmp/ccU5UnMV.s 			page 357


 19241 0546 656E636F 		.ascii	"encoder_sincos_get_signal_below_min_error_cnt\000"
 19241      6465725F 
 19241      73696E63 
 19241      6F735F67 
 19241      65745F73 
 19242              	.LASF206:
 19243 0574 716E6F74 		.ascii	"qnotify_t\000"
 19243      6966795F 
 19243      7400
 19244              	.LASF1007:
 19245 057e 636F6E66 		.ascii	"conf_general_detect_apply_all_foc\000"
 19245      5F67656E 
 19245      6572616C 
 19245      5F646574 
 19245      6563745F 
 19246              	.LASF485:
 19247 05a0 69736869 		.ascii	"ishift\000"
 19247      667400
 19248              	.LASF201:
 19249 05a7 715F746F 		.ascii	"q_top\000"
 19249      7000
 19250              	.LASF830:
 19251 05ad 5F6C6266 		.ascii	"_lbfsize\000"
 19251      73697A65 
 19251      00
 19252              	.LASF668:
 19253 05b6 75645F73 		.ascii	"ud_string\000"
 19253      7472696E 
 19253      6700
 19254              	.LASF558:
 19255 05c0 49324344 		.ascii	"I2CDriver\000"
 19255      72697665 
 19255      7200
 19256              	.LASF540:
 19257 05ca 4932435F 		.ascii	"I2C_ACTIVE_TX\000"
 19257      41435449 
 19257      56455F54 
 19257      5800
 19258              	.LASF609:
 19259 05d8 72656164 		.ascii	"read\000"
 19259      00
 19260              	.LASF488:
 19261 05dd 73746D33 		.ascii	"stm32_dma_stream_t\000"
 19261      325F646D 
 19261      615F7374 
 19261      7265616D 
 19261      5F7400
 19262              	.LASF224:
 19263 05f0 4F55545F 		.ascii	"OUT_AUX_MODE_OFF\000"
 19263      4155585F 
 19263      4D4F4445 
 19263      5F4F4646 
 19263      00
 19264              	.LASF729:
 19265 0601 72657376 		.ascii	"resvd80C\000"
 19265      64383043 
 19265      00
ARM GAS  /tmp/ccU5UnMV.s 			page 358


 19266              	.LASF778:
 19267 060a 6576656E 		.ascii	"event_cb\000"
 19267      745F6362 
 19267      00
 19268              	.LASF861:
 19269 0613 5F6E6577 		.ascii	"_new\000"
 19269      00
 19270              	.LASF696:
 19271 0618 474F5447 		.ascii	"GOTGCTL\000"
 19271      43544C00 
 19272              	.LASF633:
 19273 0620 6570306E 		.ascii	"ep0next\000"
 19273      65787400 
 19274              	.LASF671:
 19275 0628 75736265 		.ascii	"usbepcallback_t\000"
 19275      7063616C 
 19275      6C626163 
 19275      6B5F7400 
 19276              	.LASF544:
 19277 0638 69326361 		.ascii	"i2caddr_t\000"
 19277      6464725F 
 19277      7400
 19278              	.LASF85:
 19279 0642 76746C69 		.ascii	"vtlist\000"
 19279      737400
 19280              	.LASF570:
 19281 0649 4943555F 		.ascii	"ICU_READY\000"
 19281      52454144 
 19281      5900
 19282              	.LASF121:
 19283 0653 54524953 		.ascii	"TRISE\000"
 19283      4500
 19284              	.LASF735:
 19285 0659 72657376 		.ascii	"resvd824\000"
 19285      64383234 
 19285      00
 19286              	.LASF47:
 19287 0662 705F7761 		.ascii	"p_waiting\000"
 19287      6974696E 
 19287      6700
 19288              	.LASF577:
 19289 066c 70636372 		.ascii	"pccrp\000"
 19289      7000
 19290              	.LASF198:
 19291 0672 715F7761 		.ascii	"q_waiting\000"
 19291      6974696E 
 19291      6700
 19292              	.LASF93:
 19293 067c 43414E5F 		.ascii	"CAN_TxMailBox_TypeDef\000"
 19293      54784D61 
 19293      696C426F 
 19293      785F5479 
 19293      70654465 
 19294              	.LASF84:
 19295 0692 726C6973 		.ascii	"rlist\000"
 19295      7400
 19296              	.LASF55:
ARM GAS  /tmp/ccU5UnMV.s 			page 359


 19297 0698 74687265 		.ascii	"threads_list_t\000"
 19297      6164735F 
 19297      6C697374 
 19297      5F7400
 19298              	.LASF173:
 19299 06a7 63665F6F 		.ascii	"cf_off_ctx\000"
 19299      66665F63 
 19299      747800
 19300              	.LASF207:
 19301 06b2 696E7075 		.ascii	"input_queue_t\000"
 19301      745F7175 
 19301      6575655F 
 19301      7400
 19302              	.LASF896:
 19303 06c0 5F5F6C6F 		.ascii	"__lock\000"
 19303      636B00
 19304              	.LASF310:
 19305 06c7 736C5F6D 		.ascii	"sl_min_erpm_cycle_int_limit\000"
 19305      696E5F65 
 19305      72706D5F 
 19305      6379636C 
 19305      655F696E 
 19306              	.LASF522:
 19307 06e3 43414E5F 		.ascii	"CAN_READY\000"
 19307      52454144 
 19307      5900
 19308              	.LASF175:
 19309 06ed 63665F6F 		.ascii	"cf_off_older\000"
 19309      66665F6F 
 19309      6C646572 
 19309      00
 19310              	.LASF319:
 19311 06fa 666F635F 		.ascii	"foc_current_ki\000"
 19311      63757272 
 19311      656E745F 
 19311      6B6900
 19312              	.LASF763:
 19313 0709 72787175 		.ascii	"rxqueued\000"
 19313      65756564 
 19313      00
 19314              	.LASF318:
 19315 0712 666F635F 		.ascii	"foc_current_kp\000"
 19315      63757272 
 19315      656E745F 
 19315      6B7000
 19316              	.LASF588:
 19317 0721 69637563 		.ascii	"icuchannel_t\000"
 19317      68616E6E 
 19317      656C5F74 
 19317      00
 19318              	.LASF524:
 19319 072e 63616E73 		.ascii	"canstate_t\000"
 19319      74617465 
 19319      5F7400
 19320              	.LASF113:
 19321 0739 7346696C 		.ascii	"sFilterRegister\000"
 19321      74657252 
ARM GAS  /tmp/ccU5UnMV.s 			page 360


 19321      65676973 
 19321      74657200 
 19322              	.LASF865:
 19323 0749 5F5F7366 		.ascii	"__sf\000"
 19323      00
 19324              	.LASF734:
 19325 074e 72657376 		.ascii	"resvd820\000"
 19325      64383230 
 19325      00
 19326              	.LASF1018:
 19327 0757 6D637077 		.ascii	"mcpwm_foc_print_state\000"
 19327      6D5F666F 
 19327      635F7072 
 19327      696E745F 
 19327      73746174 
 19328              	.LASF1032:
 19329 076d 6D656D63 		.ascii	"memcpy\000"
 19329      707900
 19330              	.LASF965:
 19331 0774 63685379 		.ascii	"chSysLock\000"
 19331      734C6F63 
 19331      6B00
 19332              	.LASF554:
 19333 077e 6F705F6D 		.ascii	"op_mode\000"
 19333      6F646500 
 19334              	.LASF882:
 19335 0786 5F6D6274 		.ascii	"_mbtowc_state\000"
 19335      6F77635F 
 19335      73746174 
 19335      6500
 19336              	.LASF353:
 19337 0794 6770645F 		.ascii	"gpd_buffer_notify_left\000"
 19337      62756666 
 19337      65725F6E 
 19337      6F746966 
 19337      795F6C65 
 19338              	.LASF384:
 19339 07ab 6D5F6E74 		.ascii	"m_ntc_motor_beta\000"
 19339      635F6D6F 
 19339      746F725F 
 19339      62657461 
 19339      00
 19340              	.LASF537:
 19341 07bc 4932435F 		.ascii	"I2C_UNINIT\000"
 19341      554E494E 
 19341      495400
 19342              	.LASF598:
 19343 07c7 53445F55 		.ascii	"SD_UNINIT\000"
 19343      4E494E49 
 19343      5400
 19344              	.LASF1005:
 19345 07d1 636F6E66 		.ascii	"conf_general_autodetect_apply_sensors_foc\000"
 19345      5F67656E 
 19345      6572616C 
 19345      5F617574 
 19345      6F646574 
 19346              	.LASF921:
ARM GAS  /tmp/ccU5UnMV.s 			page 361


 19347 07fb 61726763 		.ascii	"argc\000"
 19347      00
 19348              	.LASF28:
 19349 0800 74707269 		.ascii	"tprio_t\000"
 19349      6F5F7400 
 19350              	.LASF227:
 19351 0808 4F55545F 		.ascii	"OUT_AUX_MODE_ON_AFTER_10S\000"
 19351      4155585F 
 19351      4D4F4445 
 19351      5F4F4E5F 
 19351      41465445 
 19352              	.LASF976:
 19353 0822 63685265 		.ascii	"chRegFirstThread\000"
 19353      67466972 
 19353      73745468 
 19353      72656164 
 19353      00
 19354              	.LASF738:
 19355 0833 72657376 		.ascii	"resvd830\000"
 19355      64383330 
 19355      00
 19356              	.LASF539:
 19357 083c 4932435F 		.ascii	"I2C_READY\000"
 19357      52454144 
 19357      5900
 19358              	.LASF481:
 19359 0846 63616E5F 		.ascii	"can_status_msg\000"
 19359      73746174 
 19359      75735F6D 
 19359      736700
 19360              	.LASF740:
 19361 0855 72657376 		.ascii	"resvd838\000"
 19361      64383338 
 19361      00
 19362              	.LASF553:
 19363 085e 69326364 		.ascii	"i2cdutycycle_t\000"
 19363      75747963 
 19363      79636C65 
 19363      5F7400
 19364              	.LASF948:
 19365 086d 6C696E6B 		.ascii	"linkage\000"
 19365      61676500 
 19366              	.LASF441:
 19367 0875 434F4D4D 		.ascii	"COMM_GET_VALUES_SETUP\000"
 19367      5F474554 
 19367      5F56414C 
 19367      5545535F 
 19367      53455455 
 19368              	.LASF741:
 19369 088b 72657376 		.ascii	"resvd83C\000"
 19369      64383343 
 19369      00
 19370              	.LASF561:
 19371 0894 74687265 		.ascii	"thread\000"
 19371      616400
 19372              	.LASF737:
 19373 089b 44564255 		.ascii	"DVBUSPULSE\000"
ARM GAS  /tmp/ccU5UnMV.s 			page 362


 19373      5350554C 
 19373      534500
 19374              	.LASF636:
 19375 08a6 73657475 		.ascii	"setup\000"
 19375      7000
 19376              	.LASF614:
 19377 08ac 5350495F 		.ascii	"SPI_UNINIT\000"
 19377      554E494E 
 19377      495400
 19378              	.LASF689:
 19379 08b7 44545846 		.ascii	"DTXFSTS\000"
 19379      53545300 
 19380              	.LASF247:
 19381 08bf 4641554C 		.ascii	"FAULT_CODE_ENCODER_SINCOS_ABOVE_MAX_AMPLITUDE\000"
 19381      545F434F 
 19381      44455F45 
 19381      4E434F44 
 19381      45525F53 
 19382              	.LASF814:
 19383 08ed 5F5F746D 		.ascii	"__tm_yday\000"
 19383      5F796461 
 19383      7900
 19384              	.LASF630:
 19385 08f7 696E5F70 		.ascii	"in_params\000"
 19385      6172616D 
 19385      7300
 19386              	.LASF134:
 19387 0901 43434552 		.ascii	"CCER\000"
 19387      00
 19388              	.LASF128:
 19389 0906 49325350 		.ascii	"I2SPR\000"
 19389      5200
 19390              	.LASF221:
 19391 090c 464F435F 		.ascii	"FOC_SENSOR_MODE_ENCODER\000"
 19391      53454E53 
 19391      4F525F4D 
 19391      4F44455F 
 19391      454E434F 
 19392              	.LASF698:
 19393 0924 47414842 		.ascii	"GAHBCFG\000"
 19393      43464700 
 19394              	.LASF790:
 19395 092c 5F4C4F43 		.ascii	"_LOCK_T\000"
 19395      4B5F5400 
 19396              	.LASF742:
 19397 0934 72657376 		.ascii	"resvd840\000"
 19397      64383430 
 19397      00
 19398              	.LASF124:
 19399 093d 43524350 		.ascii	"CRCPR\000"
 19399      5200
 19400              	.LASF266:
 19401 0943 44525638 		.ascii	"DRV8301_OC_REPORT_ONLY\000"
 19401      3330315F 
 19401      4F435F52 
 19401      45504F52 
 19401      545F4F4E 
ARM GAS  /tmp/ccU5UnMV.s 			page 363


 19402              	.LASF8:
 19403 095a 5F5F7569 		.ascii	"__uint16_t\000"
 19403      6E743136 
 19403      5F7400
 19404              	.LASF413:
 19405 0965 434F4D4D 		.ascii	"COMM_SAMPLE_PRINT\000"
 19405      5F53414D 
 19405      504C455F 
 19405      5052494E 
 19405      5400
 19406              	.LASF757:
 19407 0977 74787175 		.ascii	"txqueued\000"
 19407      65756564 
 19407      00
 19408              	.LASF49:
 19409 0980 705F6D73 		.ascii	"p_msg\000"
 19409      6700
 19410              	.LASF874:
 19411 0986 5F756E75 		.ascii	"_unused_rand\000"
 19411      7365645F 
 19411      72616E64 
 19411      00
 19412              	.LASF373:
 19413 0993 6D5F6661 		.ascii	"m_fault_stop_time_ms\000"
 19413      756C745F 
 19413      73746F70 
 19413      5F74696D 
 19413      655F6D73 
 19414              	.LASF704:
 19415 09a8 47525853 		.ascii	"GRXSTSP\000"
 19415      54535000 
 19416              	.LASF703:
 19417 09b0 47525853 		.ascii	"GRXSTSR\000"
 19417      54535200 
 19418              	.LASF947:
 19419 09b8 6D696E5F 		.ascii	"min_erpm\000"
 19419      6572706D 
 19419      00
 19420              	.LASF946:
 19421 09c1 63757272 		.ascii	"curr\000"
 19421      00
 19422              	.LASF117:
 19423 09c6 4D314152 		.ascii	"M1AR\000"
 19423      00
 19424              	.LASF643:
 19425 09cb 77616974 		.ascii	"wait\000"
 19425      00
 19426              	.LASF118:
 19427 09d0 444D415F 		.ascii	"DMA_Stream_TypeDef\000"
 19427      53747265 
 19427      616D5F54 
 19427      79706544 
 19427      656600
 19428              	.LASF650:
 19429 09e3 5553425F 		.ascii	"USB_ACTIVE\000"
 19429      41435449 
 19429      564500
ARM GAS  /tmp/ccU5UnMV.s 			page 364


 19430              	.LASF326:
 19431 09ee 666F635F 		.ascii	"foc_encoder_sin_gain\000"
 19431      656E636F 
 19431      6465725F 
 19431      73696E5F 
 19431      6761696E 
 19432              	.LASF356:
 19433 0a03 6770645F 		.ascii	"gpd_current_kp\000"
 19433      63757272 
 19433      656E745F 
 19433      6B7000
 19434              	.LASF360:
 19435 0a12 735F7069 		.ascii	"s_pid_kd\000"
 19435      645F6B64 
 19435      00
 19436              	.LASF691:
 19437 0a1b 73746D33 		.ascii	"stm32_otg_in_ep_t\000"
 19437      325F6F74 
 19437      675F696E 
 19437      5F65705F 
 19437      7400
 19438              	.LASF765:
 19439 0a2d 7278636E 		.ascii	"rxcnt\000"
 19439      7400
 19440              	.LASF563:
 19441 0a33 7278646D 		.ascii	"rxdmamode\000"
 19441      616D6F64 
 19441      6500
 19442              	.LASF856:
 19443 0a3d 5F726573 		.ascii	"_result_k\000"
 19443      756C745F 
 19443      6B00
 19444              	.LASF589:
 19445 0a47 6D6F6465 		.ascii	"mode\000"
 19445      00
 19446              	.LASF848:
 19447 0a4c 5F737464 		.ascii	"_stderr\000"
 19447      65727200 
 19448              	.LASF855:
 19449 0a54 5F726573 		.ascii	"_result\000"
 19449      756C7400 
 19450              	.LASF582:
 19451 0a5c 4943555F 		.ascii	"ICU_INPUT_ACTIVE_HIGH\000"
 19451      494E5055 
 19451      545F4143 
 19451      54495645 
 19451      5F484947 
 19452              	.LASF916:
 19453 0a72 7465726D 		.ascii	"terminal_register_command_callback\000"
 19453      696E616C 
 19453      5F726567 
 19453      69737465 
 19453      725F636F 
 19454              	.LASF178:
 19455 0a95 63665F6F 		.ascii	"cf_off_state\000"
 19455      66665F73 
 19455      74617465 
ARM GAS  /tmp/ccU5UnMV.s 			page 365


 19455      00
 19456              	.LASF624:
 19457 0aa2 73737061 		.ascii	"sspad\000"
 19457      6400
 19458              	.LASF564:
 19459 0aa8 7478646D 		.ascii	"txdmamode\000"
 19459      616D6F64 
 19459      6500
 19460              	.LASF330:
 19461 0ab2 666F635F 		.ascii	"foc_motor_l\000"
 19461      6D6F746F 
 19461      725F6C00 
 19462              	.LASF331:
 19463 0abe 666F635F 		.ascii	"foc_motor_r\000"
 19463      6D6F746F 
 19463      725F7200 
 19464              	.LASF813:
 19465 0aca 5F5F746D 		.ascii	"__tm_wday\000"
 19465      5F776461 
 19465      7900
 19466              	.LASF237:
 19467 0ad4 4641554C 		.ascii	"FAULT_CODE_DRV\000"
 19467      545F434F 
 19467      44455F44 
 19467      525600
 19468              	.LASF815:
 19469 0ae3 5F5F746D 		.ascii	"__tm_isdst\000"
 19469      5F697364 
 19469      737400
 19470              	.LASF145:
 19471 0aee 73746B61 		.ascii	"stkalign_t\000"
 19471      6C69676E 
 19471      5F7400
 19472              	.LASF750:
 19473 0af9 72785F66 		.ascii	"rx_fifo_size\000"
 19473      69666F5F 
 19473      73697A65 
 19473      00
 19474              	.LASF243:
 19475 0b06 4641554C 		.ascii	"FAULT_CODE_MCU_UNDER_VOLTAGE\000"
 19475      545F434F 
 19475      44455F4D 
 19475      43555F55 
 19475      4E444552 
 19476              	.LASF534:
 19477 0b23 77616B65 		.ascii	"wakeup_event\000"
 19477      75705F65 
 19477      76656E74 
 19477      00
 19478              	.LASF72:
 19479 0b30 76745F70 		.ascii	"vt_prev\000"
 19479      72657600 
 19480              	.LASF622:
 19481 0b38 656E645F 		.ascii	"end_cb\000"
 19481      636200
 19482              	.LASF768:
 19483 0b3f 73657475 		.ascii	"setup_cb\000"
ARM GAS  /tmp/ccU5UnMV.s 			page 366


 19483      705F6362 
 19483      00
 19484              	.LASF6:
 19485 0b48 756E7369 		.ascii	"unsigned char\000"
 19485      676E6564 
 19485      20636861 
 19485      7200
 19486              	.LASF847:
 19487 0b56 5F737464 		.ascii	"_stdout\000"
 19487      6F757400 
 19488              	.LASF1027:
 19489 0b5e 7465726D 		.ascii	"terminal.c\000"
 19489      696E616C 
 19489      2E6300
 19490              	.LASF187:
 19491 0b69 6576656E 		.ascii	"event_listener\000"
 19491      745F6C69 
 19491      7374656E 
 19491      657200
 19492              	.LASF362:
 19493 0b78 735F7069 		.ascii	"s_pid_min_erpm\000"
 19493      645F6D69 
 19493      6E5F6572 
 19493      706D00
 19494              	.LASF528:
 19495 0b87 74787175 		.ascii	"txqueue\000"
 19495      65756500 
 19496              	.LASF159:
 19497 0b8f 735F636E 		.ascii	"s_cnt\000"
 19497      7400
 19498              	.LASF60:
 19499 0b95 72656164 		.ascii	"ready_list_t\000"
 19499      795F6C69 
 19499      73745F74 
 19499      00
 19500              	.LASF56:
 19501 0ba2 63685F74 		.ascii	"ch_thread\000"
 19501      68726561 
 19501      6400
 19502              	.LASF548:
 19503 0bac 4F504D4F 		.ascii	"OPMODE_SMBUS_HOST\000"
 19503      44455F53 
 19503      4D425553 
 19503      5F484F53 
 19503      5400
 19504              	.LASF632:
 19505 0bbe 65703073 		.ascii	"ep0state\000"
 19505      74617465 
 19505      00
 19506              	.LASF889:
 19507 0bc7 5F6D6273 		.ascii	"_mbsrtowcs_state\000"
 19507      72746F77 
 19507      63735F73 
 19507      74617465 
 19507      00
 19508              	.LASF805:
 19509 0bd8 5F776473 		.ascii	"_wds\000"
ARM GAS  /tmp/ccU5UnMV.s 			page 367


 19509      00
 19510              	.LASF0:
 19511 0bdd 666C6F61 		.ascii	"float\000"
 19511      7400
 19512              	.LASF950:
 19513 0be3 746F7574 		.ascii	"tout_c\000"
 19513      5F6300
 19514              	.LASF987:
 19515 0bea 6D637077 		.ascii	"mcpwm_foc_measure_resistance\000"
 19515      6D5F666F 
 19515      635F6D65 
 19515      61737572 
 19515      655F7265 
 19516              	.LASF299:
 19517 0c07 6C5F7761 		.ascii	"l_watt_max\000"
 19517      74745F6D 
 19517      617800
 19518              	.LASF523:
 19519 0c12 43414E5F 		.ascii	"CAN_SLEEP\000"
 19519      534C4545 
 19519      5000
 19520              	.LASF320:
 19521 0c1c 666F635F 		.ascii	"foc_f_sw\000"
 19521      665F7377 
 19521      00
 19522              	.LASF284:
 19523 0c25 6C5F6572 		.ascii	"l_erpm_start\000"
 19523      706D5F73 
 19523      74617274 
 19523      00
 19524              	.LASF519:
 19525 0c32 43414E5F 		.ascii	"CAN_UNINIT\000"
 19525      554E494E 
 19525      495400
 19526              	.LASF79:
 19527 0c3d 73797374 		.ascii	"system_debug_t\000"
 19527      656D5F64 
 19527      65627567 
 19527      5F7400
 19528              	.LASF292:
 19529 0c4c 6C5F7465 		.ascii	"l_temp_fet_start\000"
 19529      6D705F66 
 19529      65745F73 
 19529      74617274 
 19529      00
 19530              	.LASF131:
 19531 0c5d 44494552 		.ascii	"DIER\000"
 19531      00
 19532              	.LASF38:
 19533 0c62 705F6374 		.ascii	"p_ctx\000"
 19533      7800
 19534              	.LASF75:
 19535 0c68 76745F70 		.ascii	"vt_par\000"
 19535      617200
 19536              	.LASF875:
 19537 0c6f 5F737472 		.ascii	"_strtok_last\000"
 19537      746F6B5F 
ARM GAS  /tmp/ccU5UnMV.s 			page 368


 19537      6C617374 
 19537      00
 19538              	.LASF67:
 19539 0c7c 725F6375 		.ascii	"r_current\000"
 19539      7272656E 
 19539      7400
 19540              	.LASF826:
 19541 0c86 5F73697A 		.ascii	"_size\000"
 19541      6500
 19542              	.LASF419:
 19543 0c8c 434F4D4D 		.ascii	"COMM_DETECT_MOTOR_R_L\000"
 19543      5F444554 
 19543      4543545F 
 19543      4D4F544F 
 19543      525F525F 
 19544              	.LASF424:
 19545 0ca2 434F4D4D 		.ascii	"COMM_ALIVE\000"
 19545      5F414C49 
 19545      564500
 19546              	.LASF126:
 19547 0cad 54584352 		.ascii	"TXCRCR\000"
 19547      435200
 19548              	.LASF274:
 19549 0cb4 636F6D6D 		.ascii	"comm_mode\000"
 19549      5F6D6F64 
 19549      6500
 19550              	.LASF914:
 19551 0cbe 63616C6C 		.ascii	"callback_write\000"
 19551      6261636B 
 19551      5F777269 
 19551      746500
 19552              	.LASF238:
 19553 0ccd 4641554C 		.ascii	"FAULT_CODE_ABS_OVER_CURRENT\000"
 19553      545F434F 
 19553      44455F41 
 19553      42535F4F 
 19553      5645525F 
 19554              	.LASF333:
 19555 0ce9 666F635F 		.ascii	"foc_observer_gain\000"
 19555      6F627365 
 19555      72766572 
 19555      5F676169 
 19555      6E00
 19556              	.LASF325:
 19557 0cfb 666F635F 		.ascii	"foc_encoder_sin_offset\000"
 19557      656E636F 
 19557      6465725F 
 19557      73696E5F 
 19557      6F666673 
 19558              	.LASF552:
 19559 0d12 46415354 		.ascii	"FAST_DUTY_CYCLE_16_9\000"
 19559      5F445554 
 19559      595F4359 
 19559      434C455F 
 19559      31365F39 
 19560              	.LASF607:
 19561 0d27 53657269 		.ascii	"SerialDriverVMT\000"
ARM GAS  /tmp/ccU5UnMV.s 			page 369


 19561      616C4472 
 19561      69766572 
 19561      564D5400 
 19562              	.LASF593:
 19563 0d37 6F766572 		.ascii	"overflow_cb\000"
 19563      666C6F77 
 19563      5F636200 
 19564              	.LASF22:
 19565 0d43 75696E74 		.ascii	"uint64_t\000"
 19565      36345F74 
 19565      00
 19566              	.LASF184:
 19567 0d4c 63685F64 		.ascii	"ch_debug\000"
 19567      65627567 
 19567      00
 19568              	.LASF105:
 19569 0d55 464D3152 		.ascii	"FM1R\000"
 19569      00
 19570              	.LASF808:
 19571 0d5a 5F5F746D 		.ascii	"__tm_min\000"
 19571      5F6D696E 
 19571      00
 19572              	.LASF926:
 19573 0d63 73746174 		.ascii	"states\000"
 19573      657300
 19574              	.LASF516:
 19575 0d6a 50414C43 		.ascii	"PALConfig\000"
 19575      6F6E6669 
 19575      6700
 19576              	.LASF759:
 19577 0d74 7478636E 		.ascii	"txcnt\000"
 19577      7400
 19578              	.LASF672:
 19579 0d7a 75736265 		.ascii	"usbeventcb_t\000"
 19579      76656E74 
 19579      63625F74 
 19579      00
 19580              	.LASF455:
 19581 0d87 434F4D4D 		.ascii	"COMM_WRITE_NEW_APP_DATA_ALL_CAN\000"
 19581      5F575249 
 19581      54455F4E 
 19581      45575F41 
 19581      50505F44 
 19582              	.LASF978:
 19583 0da7 6D635F69 		.ascii	"mc_interface_fault_to_string\000"
 19583      6E746572 
 19583      66616365 
 19583      5F666175 
 19583      6C745F74 
 19584              	.LASF812:
 19585 0dc4 5F5F746D 		.ascii	"__tm_year\000"
 19585      5F796561 
 19585      7200
 19586              	.LASF186:
 19587 0dce 6576656E 		.ascii	"event_listener_t\000"
 19587      745F6C69 
 19587      7374656E 
ARM GAS  /tmp/ccU5UnMV.s 			page 370


 19587      65725F74 
 19587      00
 19588              	.LASF838:
 19589 0ddf 5F626C6B 		.ascii	"_blksize\000"
 19589      73697A65 
 19589      00
 19590              	.LASF751:
 19591 0de8 6F74675F 		.ascii	"otg_ram_size\000"
 19591      72616D5F 
 19591      73697A65 
 19591      00
 19592              	.LASF753:
 19593 0df5 73746D33 		.ascii	"stm32_otg_params_t\000"
 19593      325F6F74 
 19593      675F7061 
 19593      72616D73 
 19593      5F7400
 19594              	.LASF745:
 19595 0e08 72657376 		.ascii	"resvdD00\000"
 19595      64443030 
 19595      00
 19596              	.LASF125:
 19597 0e11 52584352 		.ascii	"RXCRCR\000"
 19597      435200
 19598              	.LASF762:
 19599 0e18 72786275 		.ascii	"rxbuf\000"
 19599      6600
 19600              	.LASF701:
 19601 0e1e 47494E54 		.ascii	"GINTSTS\000"
 19601      53545300 
 19602              	.LASF464:
 19603 0e26 434F4D4D 		.ascii	"COMM_BM_DISCONNECT\000"
 19603      5F424D5F 
 19603      44495343 
 19603      4F4E4E45 
 19603      435400
 19604              	.LASF160:
 19605 0e39 63685F6D 		.ascii	"ch_mutex\000"
 19605      75746578 
 19605      00
 19606              	.LASF833:
 19607 0e42 5F777269 		.ascii	"_write\000"
 19607      746500
 19608              	.LASF603:
 19609 0e49 6576656E 		.ascii	"event\000"
 19609      7400
 19610              	.LASF531:
 19611 0e4f 7478656D 		.ascii	"txempty_event\000"
 19611      7074795F 
 19611      6576656E 
 19611      7400
 19612              	.LASF363:
 19613 0e5d 735F7069 		.ascii	"s_pid_allow_braking\000"
 19613      645F616C 
 19613      6C6F775F 
 19613      6272616B 
 19613      696E6700 
ARM GAS  /tmp/ccU5UnMV.s 			page 371


 19614              	.LASF513:
 19615 0e71 50474461 		.ascii	"PGData\000"
 19615      746100
 19616              	.LASF1026:
 19617 0e78 474E5520 		.ascii	"GNU C99 7.3.1 20180622 (release) [ARM/embedded-7-br"
 19617      43393920 
 19617      372E332E 
 19617      31203230 
 19617      31383036 
 19618 0eab 616E6368 		.ascii	"anch revision 261907] -mcpu=cortex-m4 -mfloat-abi=h"
 19618      20726576 
 19618      6973696F 
 19618      6E203236 
 19618      31393037 
 19619 0ede 61726420 		.ascii	"ard -mfpu=fpv4-sp-d16 -mno-thumb-interwork -mthumb "
 19619      2D6D6670 
 19619      753D6670 
 19619      76342D73 
 19619      702D6431 
 19620 0f11 2D676764 		.ascii	"-ggdb -O2 -std=gnu99 -fomit-frame-pointer -falign-f"
 19620      62202D4F 
 19620      32202D73 
 19620      74643D67 
 19620      6E753939 
 19621 0f44 756E6374 		.ascii	"unctions=16 -ffunction-sections -fdata-sections -fn"
 19621      696F6E73 
 19621      3D313620 
 19621      2D666675 
 19621      6E637469 
 19622 0f77 6F2D636F 		.ascii	"o-common -fsingle-precision-constant\000"
 19622      6D6D6F6E 
 19622      202D6673 
 19622      696E676C 
 19622      652D7072 
 19623              	.LASF887:
 19624 0f9c 5F6D6272 		.ascii	"_mbrlen_state\000"
 19624      6C656E5F 
 19624      73746174 
 19624      6500
 19625              	.LASF959:
 19626 0faa 74696D65 		.ascii	"time\000"
 19626      00
 19627              	.LASF604:
 19628 0faf 69717565 		.ascii	"iqueue\000"
 19628      756500
 19629              	.LASF971:
 19630 0fb6 76616C75 		.ascii	"value\000"
 19630      6500
 19631              	.LASF217:
 19632 0fbc 53454E53 		.ascii	"SENSOR_MODE_SENSORED\000"
 19632      4F525F4D 
 19632      4F44455F 
 19632      53454E53 
 19632      4F524544 
 19633              	.LASF174:
 19634 0fd1 63665F6F 		.ascii	"cf_off_newer\000"
 19634      66665F6E 
ARM GAS  /tmp/ccU5UnMV.s 			page 372


 19634      65776572 
 19634      00
 19635              	.LASF807:
 19636 0fde 5F5F746D 		.ascii	"__tm_sec\000"
 19636      5F736563 
 19636      00
 19637              	.LASF1020:
 19638 0fe7 656E636F 		.ascii	"encoder_spi_get_error_cnt\000"
 19638      6465725F 
 19638      7370695F 
 19638      6765745F 
 19638      6572726F 
 19639              	.LASF730:
 19640 1001 44494550 		.ascii	"DIEPMSK\000"
 19640      4D534B00 
 19641              	.LASF697:
 19642 1009 474F5447 		.ascii	"GOTGINT\000"
 19642      494E5400 
 19643              	.LASF361:
 19644 1011 735F7069 		.ascii	"s_pid_kd_filter\000"
 19644      645F6B64 
 19644      5F66696C 
 19644      74657200 
 19645              	.LASF770:
 19646 1021 6F75745F 		.ascii	"out_cb\000"
 19646      636200
 19647              	.LASF721:
 19648 1028 4841494E 		.ascii	"HAINTMSK\000"
 19648      544D534B 
 19648      00
 19649              	.LASF631:
 19650 1031 6F75745F 		.ascii	"out_params\000"
 19650      70617261 
 19650      6D7300
 19651              	.LASF981:
 19652 103c 73736361 		.ascii	"sscanf\000"
 19652      6E6600
 19653              	.LASF949:
 19654 1043 746F7574 		.ascii	"tout\000"
 19654      00
 19655              	.LASF846:
 19656 1048 5F737464 		.ascii	"_stdin\000"
 19656      696E00
 19657              	.LASF894:
 19658 104f 5F6E6D61 		.ascii	"_nmalloc\000"
 19658      6C6C6F63 
 19658      00
 19659              	.LASF595:
 19660 1058 64696572 		.ascii	"dier\000"
 19660      00
 19661              	.LASF718:
 19662 105d 72657376 		.ascii	"resvd40C\000"
 19662      64343043 
 19662      00
 19663              	.LASF355:
 19664 1066 6770645F 		.ascii	"gpd_current_filter_const\000"
 19664      63757272 
ARM GAS  /tmp/ccU5UnMV.s 			page 373


 19664      656E745F 
 19664      66696C74 
 19664      65725F63 
 19665              	.LASF473:
 19666 107f 74696D5F 		.ascii	"tim_val_samp\000"
 19666      76616C5F 
 19666      73616D70 
 19666      00
 19667              	.LASF986:
 19668 108c 656E636F 		.ascii	"encoder_is_configured\000"
 19668      6465725F 
 19668      69735F63 
 19668      6F6E6669 
 19668      67757265 
 19669              	.LASF440:
 19670 10a2 434F4D4D 		.ascii	"COMM_GPD_SET_BUFFER_INT_SCALE\000"
 19670      5F475044 
 19670      5F534554 
 19670      5F425546 
 19670      4645525F 
 19671              	.LASF1017:
 19672 10c0 6D635F69 		.ascii	"mc_interface_get_tachometer_value\000"
 19672      6E746572 
 19672      66616365 
 19672      5F676574 
 19672      5F746163 
 19673              	.LASF69:
 19674 10e2 76697274 		.ascii	"virtual_timer_t\000"
 19674      75616C5F 
 19674      74696D65 
 19674      725F7400 
 19675              	.LASF64:
 19676 10f2 725F6374 		.ascii	"r_ctx\000"
 19676      7800
 19677              	.LASF71:
 19678 10f8 76745F6E 		.ascii	"vt_next\000"
 19678      65787400 
 19679              	.LASF248:
 19680 1100 4641554C 		.ascii	"FAULT_CODE_FLASH_CORRUPTION\000"
 19680      545F434F 
 19680      44455F46 
 19680      4C415348 
 19680      5F434F52 
 19681              	.LASF911:
 19682 111c 6661756C 		.ascii	"fault_vec\000"
 19682      745F7665 
 19682      6300
 19683              	.LASF388:
 19684 1126 73695F77 		.ascii	"si_wheel_diameter\000"
 19684      6865656C 
 19684      5F646961 
 19684      6D657465 
 19684      7200
 19685              	.LASF397:
 19686 1138 434F4D4D 		.ascii	"COMM_WRITE_NEW_APP_DATA\000"
 19686      5F575249 
 19686      54455F4E 
ARM GAS  /tmp/ccU5UnMV.s 			page 374


 19686      45575F41 
 19686      50505F44 
 19687              	.LASF396:
 19688 1150 434F4D4D 		.ascii	"COMM_ERASE_NEW_APP\000"
 19688      5F455241 
 19688      53455F4E 
 19688      45575F41 
 19688      505000
 19689              	.LASF23:
 19690 1163 7274636E 		.ascii	"rtcnt_t\000"
 19690      745F7400 
 19691              	.LASF560:
 19692 116b 6D757465 		.ascii	"mutex\000"
 19692      7800
 19693              	.LASF218:
 19694 1171 53454E53 		.ascii	"SENSOR_MODE_HYBRID\000"
 19694      4F525F4D 
 19694      4F44455F 
 19694      48594252 
 19694      494400
 19695              	.LASF379:
 19696 1184 6D5F6472 		.ascii	"m_drv8301_oc_mode\000"
 19696      76383330 
 19696      315F6F63 
 19696      5F6D6F64 
 19696      6500
 19697              	.LASF303:
 19698 1196 6C6F5F63 		.ascii	"lo_current_max\000"
 19698      75727265 
 19698      6E745F6D 
 19698      617800
 19699              	.LASF323:
 19700 11a5 666F635F 		.ascii	"foc_encoder_inverted\000"
 19700      656E636F 
 19700      6465725F 
 19700      696E7665 
 19700      72746564 
 19701              	.LASF370:
 19702 11ba 63635F6D 		.ascii	"cc_min_current\000"
 19702      696E5F63 
 19702      75727265 
 19702      6E7400
 19703              	.LASF1023:
 19704 11c9 656E636F 		.ascii	"encoder_sincos_get_signal_below_min_error_rate\000"
 19704      6465725F 
 19704      73696E63 
 19704      6F735F67 
 19704      65745F73 
 19705              	.LASF642:
 19706 11f8 74787065 		.ascii	"txpending\000"
 19706      6E64696E 
 19706      6700
 19707              	.LASF251:
 19708 1202 53454E53 		.ascii	"SENSOR_PORT_MODE_ABI\000"
 19708      4F525F50 
 19708      4F52545F 
 19708      4D4F4445 
ARM GAS  /tmp/ccU5UnMV.s 			page 375


 19708      5F414249 
 19709              	.LASF938:
 19710 1217 6C6F775F 		.ascii	"low_duty\000"
 19710      64757479 
 19710      00
 19711              	.LASF490:
 19712 1220 636C6561 		.ascii	"clear\000"
 19712      7200
 19713              	.LASF257:
 19714 1226 6379636C 		.ascii	"cycle_int_limit_running\000"
 19714      655F696E 
 19714      745F6C69 
 19714      6D69745F 
 19714      72756E6E 
 19715              	.LASF580:
 19716 123e 43435852 		.ascii	"CCXR\000"
 19716      00
 19717              	.LASF114:
 19718 1243 43414E5F 		.ascii	"CAN_TypeDef\000"
 19718      54797065 
 19718      44656600 
 19719              	.LASF791:
 19720 124f 5F6F6666 		.ascii	"_off_t\000"
 19720      5F7400
 19721              	.LASF685:
 19722 1256 72657376 		.ascii	"resvd4\000"
 19722      643400
 19723              	.LASF599:
 19724 125d 53445F53 		.ascii	"SD_STOP\000"
 19724      544F5000 
 19725              	.LASF676:
 19726 1265 72657376 		.ascii	"resvd8\000"
 19726      643800
 19727              	.LASF2:
 19728 126c 73697A65 		.ascii	"size_t\000"
 19728      5F7400
 19729              	.LASF877:
 19730 1273 5F6C6F63 		.ascii	"_localtime_buf\000"
 19730      616C7469 
 19730      6D655F62 
 19730      756600
 19731              	.LASF252:
 19732 1282 53454E53 		.ascii	"SENSOR_PORT_MODE_AS5047_SPI\000"
 19732      4F525F50 
 19732      4F52545F 
 19732      4D4F4445 
 19732      5F415335 
 19733              	.LASF796:
 19734 129e 5F5F636F 		.ascii	"__count\000"
 19734      756E7400 
 19735              	.LASF18:
 19736 12a6 75696E74 		.ascii	"uint8_t\000"
 19736      385F7400 
 19737              	.LASF680:
 19738 12ae 72657376 		.ascii	"resvd14\000"
 19738      64313400 
 19739              	.LASF961:
ARM GAS  /tmp/ccU5UnMV.s 			page 376


 19740 12b6 7072696E 		.ascii	"print_div\000"
 19740      745F6469 
 19740      7600
 19741              	.LASF681:
 19742 12c0 72657376 		.ascii	"resvd18\000"
 19742      64313800 
 19743              	.LASF453:
 19744 12c8 434F4D4D 		.ascii	"COMM_JUMP_TO_BOOTLOADER_ALL_CAN\000"
 19744      5F4A554D 
 19744      505F544F 
 19744      5F424F4F 
 19744      544C4F41 
 19745              	.LASF66:
 19746 12e8 725F6F6C 		.ascii	"r_older\000"
 19746      64657200 
 19747              	.LASF550:
 19748 12f0 5354445F 		.ascii	"STD_DUTY_CYCLE\000"
 19748      44555459 
 19748      5F435943 
 19748      4C4500
 19749              	.LASF36:
 19750 12ff 705F7072 		.ascii	"p_prev\000"
 19750      657600
 19751              	.LASF176:
 19752 1306 63665F6F 		.ascii	"cf_off_name\000"
 19752      66665F6E 
 19752      616D6500 
 19753              	.LASF420:
 19754 1312 434F4D4D 		.ascii	"COMM_DETECT_MOTOR_FLUX_LINKAGE\000"
 19754      5F444554 
 19754      4543545F 
 19754      4D4F544F 
 19754      525F464C 
 19755              	.LASF739:
 19756 1331 44494550 		.ascii	"DIEPEMPMSK\000"
 19756      454D504D 
 19756      534B00
 19757              	.LASF432:
 19758 133c 434F4D4D 		.ascii	"COMM_GPD_SET_FSW\000"
 19758      5F475044 
 19758      5F534554 
 19758      5F465357 
 19758      00
 19759              	.LASF308:
 19760 134d 6C6F5F63 		.ascii	"lo_current_motor_min_now\000"
 19760      75727265 
 19760      6E745F6D 
 19760      6F746F72 
 19760      5F6D696E 
 19761              	.LASF684:
 19762 1366 44494550 		.ascii	"DIEPCTL\000"
 19762      43544C00 
 19763              	.LASF288:
 19764 136e 6C5F6D61 		.ascii	"l_max_vin\000"
 19764      785F7669 
 19764      6E00
 19765              	.LASF192:
ARM GAS  /tmp/ccU5UnMV.s 			page 377


 19766 1378 656C5F77 		.ascii	"el_wflags\000"
 19766      666C6167 
 19766      7300
 19767              	.LASF941:
 19768 1382 68616C6C 		.ascii	"hall_res\000"
 19768      5F726573 
 19768      00
 19769              	.LASF640:
 19770 138b 6F746770 		.ascii	"otgparams\000"
 19770      6172616D 
 19770      7300
 19771              	.LASF151:
 19772 1395 65786974 		.ascii	"exitcode\000"
 19772      636F6465 
 19772      00
 19773              	.LASF510:
 19774 139e 50444461 		.ascii	"PDData\000"
 19774      746100
 19775              	.LASF256:
 19776 13a5 6379636C 		.ascii	"cycle_int_limit\000"
 19776      655F696E 
 19776      745F6C69 
 19776      6D697400 
 19777              	.LASF860:
 19778 13b5 5F637674 		.ascii	"_cvtbuf\000"
 19778      62756600 
 19779              	.LASF774:
 19780 13bd 6F75745F 		.ascii	"out_state\000"
 19780      73746174 
 19780      6500
 19781              	.LASF196:
 19782 13c7 696F5F71 		.ascii	"io_queue_t\000"
 19782      75657565 
 19782      5F7400
 19783              	.LASF850:
 19784 13d2 5F656D65 		.ascii	"_emergency\000"
 19784      7267656E 
 19784      637900
 19785              	.LASF538:
 19786 13dd 4932435F 		.ascii	"I2C_STOP\000"
 19786      53544F50 
 19786      00
 19787              	.LASF562:
 19788 13e6 61646472 		.ascii	"addr\000"
 19788      00
 19789              	.LASF546:
 19790 13eb 4F504D4F 		.ascii	"OPMODE_I2C\000"
 19790      44455F49 
 19790      324300
 19791              	.LASF99:
 19792 13f6 52463052 		.ascii	"RF0R\000"
 19792      00
 19793              	.LASF447:
 19794 13fb 434F4D4D 		.ascii	"COMM_EXT_NRF_ESB_SET_CH_ADDR\000"
 19794      5F455854 
 19794      5F4E5246 
 19794      5F455342 
ARM GAS  /tmp/ccU5UnMV.s 			page 378


 19794      5F534554 
 19795              	.LASF532:
 19796 1418 6572726F 		.ascii	"error_event\000"
 19796      725F6576 
 19796      656E7400 
 19797              	.LASF399:
 19798 1424 434F4D4D 		.ascii	"COMM_SET_DUTY\000"
 19798      5F534554 
 19798      5F445554 
 19798      5900
 19799              	.LASF493:
 19800 1432 4F535045 		.ascii	"OSPEEDR\000"
 19800      45445200 
 19801              	.LASF955:
 19802 143a 6572706D 		.ascii	"erpm_per_sec\000"
 19802      5F706572 
 19802      5F736563 
 19802      00
 19803              	.LASF708:
 19804 1447 72657376 		.ascii	"resvd30\000"
 19804      64333000 
 19805              	.LASF795:
 19806 144f 5F5F7763 		.ascii	"__wchb\000"
 19806      686200
 19807              	.LASF952:
 19808 1456 72706D5F 		.ascii	"rpm_avg\000"
 19808      61766700 
 19809              	.LASF709:
 19810 145e 72657376 		.ascii	"resvd34\000"
 19810      64333400 
 19811              	.LASF289:
 19812 1466 6C5F6261 		.ascii	"l_battery_cut_start\000"
 19812      74746572 
 19812      795F6375 
 19812      745F7374 
 19812      61727400 
 19813              	.LASF597:
 19814 147a 49435544 		.ascii	"ICUD4\000"
 19814      3400
 19815              	.LASF809:
 19816 1480 5F5F746D 		.ascii	"__tm_hour\000"
 19816      5F686F75 
 19816      7200
 19817              	.LASF907:
 19818 148a 636F6D6D 		.ascii	"command\000"
 19818      616E6400 
 19819              	.LASF290:
 19820 1492 6C5F6261 		.ascii	"l_battery_cut_end\000"
 19820      74746572 
 19820      795F6375 
 19820      745F656E 
 19820      6400
 19821              	.LASF787:
 19822 14a4 6D637077 		.ascii	"mcpwm_vzero\000"
 19822      6D5F767A 
 19822      65726F00 
 19823              	.LASF287:
ARM GAS  /tmp/ccU5UnMV.s 			page 379


 19824 14b0 6C5F6D69 		.ascii	"l_min_vin\000"
 19824      6E5F7669 
 19824      6E00
 19825              	.LASF244:
 19826 14ba 4641554C 		.ascii	"FAULT_CODE_BOOTING_FROM_WATCHDOG_RESET\000"
 19826      545F434F 
 19826      44455F42 
 19826      4F4F5449 
 19826      4E475F46 
 19827              	.LASF658:
 19828 14e1 5553425F 		.ascii	"USB_EP0_ERROR\000"
 19828      4550305F 
 19828      4552524F 
 19828      5200
 19829              	.LASF919:
 19830 14ef 7465726D 		.ascii	"terminal_process_string\000"
 19830      696E616C 
 19830      5F70726F 
 19830      63657373 
 19830      5F737472 
 19831              	.LASF996:
 19832 1507 74696D65 		.ascii	"timeout_get_timeout_msec\000"
 19832      6F75745F 
 19832      6765745F 
 19832      74696D65 
 19832      6F75745F 
 19833              	.LASF408:
 19834 1520 434F4D4D 		.ascii	"COMM_GET_MCCONF\000"
 19834      5F474554 
 19834      5F4D4343 
 19834      4F4E4600 
 19835              	.LASF793:
 19836 1530 77696E74 		.ascii	"wint_t\000"
 19836      5F7400
 19837              	.LASF456:
 19838 1537 434F4D4D 		.ascii	"COMM_PING_CAN\000"
 19838      5F50494E 
 19838      475F4341 
 19838      4E00
 19839              	.LASF329:
 19840 1545 666F635F 		.ascii	"foc_encoder_sincos_filter_constant\000"
 19840      656E636F 
 19840      6465725F 
 19840      73696E63 
 19840      6F735F66 
 19841              	.LASF100:
 19842 1568 52463152 		.ascii	"RF1R\000"
 19842      00
 19843              	.LASF406:
 19844 156d 434F4D4D 		.ascii	"COMM_SET_SERVO_POS\000"
 19844      5F534554 
 19844      5F534552 
 19844      564F5F50 
 19844      4F5300
 19845              	.LASF260:
 19846 1580 636F6D6D 		.ascii	"comm_time_sum_min_rpm\000"
 19846      5F74696D 
ARM GAS  /tmp/ccU5UnMV.s 			page 380


 19846      655F7375 
 19846      6D5F6D69 
 19846      6E5F7270 
 19847              	.LASF747:
 19848 1596 72657376 		.ascii	"resvdE04\000"
 19848      64453034 
 19848      00
 19849              	.LASF752:
 19850 159f 6E756D5F 		.ascii	"num_endpoints\000"
 19850      656E6470 
 19850      6F696E74 
 19850      7300
 19851              	.LASF425:
 19852 15ad 434F4D4D 		.ascii	"COMM_GET_DECODED_PPM\000"
 19852      5F474554 
 19852      5F444543 
 19852      4F444544 
 19852      5F50504D 
 19853              	.LASF760:
 19854 15c2 746F7473 		.ascii	"totsize\000"
 19854      697A6500 
 19855              	.LASF327:
 19856 15ca 666F635F 		.ascii	"foc_encoder_cos_offset\000"
 19856      656E636F 
 19856      6465725F 
 19856      636F735F 
 19856      6F666673 
 19857              	.LASF231:
 19858 15e1 4D4F544F 		.ascii	"MOTOR_TYPE_FOC\000"
 19858      525F5459 
 19858      50455F46 
 19858      4F4300
 19859              	.LASF245:
 19860 15f0 4641554C 		.ascii	"FAULT_CODE_ENCODER_SPI\000"
 19860      545F434F 
 19860      44455F45 
 19860      4E434F44 
 19860      45525F53 
 19861              	.LASF309:
 19862 1607 736C5F6D 		.ascii	"sl_min_erpm\000"
 19862      696E5F65 
 19862      72706D00 
 19863              	.LASF942:
 19864 1613 72706D5F 		.ascii	"rpm_dep\000"
 19864      64657000 
 19865              	.LASF135:
 19866 161b 43435231 		.ascii	"CCR1\000"
 19866      00
 19867              	.LASF136:
 19868 1620 43435232 		.ascii	"CCR2\000"
 19868      00
 19869              	.LASF137:
 19870 1625 43435233 		.ascii	"CCR3\000"
 19870      00
 19871              	.LASF138:
 19872 162a 43435234 		.ascii	"CCR4\000"
 19872      00
ARM GAS  /tmp/ccU5UnMV.s 			page 381


 19873              	.LASF674:
 19874 162f 75736267 		.ascii	"usbgetdescriptor_t\000"
 19874      65746465 
 19874      73637269 
 19874      70746F72 
 19874      5F7400
 19875              	.LASF845:
 19876 1642 5F657272 		.ascii	"_errno\000"
 19876      6E6F00
 19877              	.LASF377:
 19878 1649 6D5F7365 		.ascii	"m_sensor_port_mode\000"
 19878      6E736F72 
 19878      5F706F72 
 19878      745F6D6F 
 19878      646500
 19879              	.LASF653:
 19880 165c 5553425F 		.ascii	"USB_EP0_TX\000"
 19880      4550305F 
 19880      545800
 19881              	.LASF235:
 19882 1667 4641554C 		.ascii	"FAULT_CODE_OVER_VOLTAGE\000"
 19882      545F434F 
 19882      44455F4F 
 19882      5645525F 
 19882      564F4C54 
 19883              	.LASF375:
 19884 167f 6D5F6375 		.ascii	"m_current_backoff_gain\000"
 19884      7272656E 
 19884      745F6261 
 19884      636B6F66 
 19884      665F6761 
 19885              	.LASF810:
 19886 1696 5F5F746D 		.ascii	"__tm_mday\000"
 19886      5F6D6461 
 19886      7900
 19887              	.LASF378:
 19888 16a0 6D5F696E 		.ascii	"m_invert_direction\000"
 19888      76657274 
 19888      5F646972 
 19888      65637469 
 19888      6F6E00
 19889              	.LASF484:
 19890 16b3 69666372 		.ascii	"ifcr\000"
 19890      00
 19891              	.LASF772:
 19892 16b8 6F75745F 		.ascii	"out_maxsize\000"
 19892      6D617873 
 19892      697A6500 
 19893              	.LASF499:
 19894 16c4 73746D33 		.ascii	"stm32_gpio_t\000"
 19894      325F6770 
 19894      696F5F74 
 19894      00
 19895              	.LASF428:
 19896 16d1 434F4D4D 		.ascii	"COMM_FORWARD_CAN\000"
 19896      5F464F52 
 19896      57415244 
ARM GAS  /tmp/ccU5UnMV.s 			page 382


 19896      5F43414E 
 19896      00
 19897              	.LASF150:
 19898 16e2 7264796D 		.ascii	"rdymsg\000"
 19898      736700
 19899              	.LASF817:
 19900 16e9 5F666E61 		.ascii	"_fnargs\000"
 19900      72677300 
 19901              	.LASF90:
 19902 16f1 54445452 		.ascii	"TDTR\000"
 19902      00
 19903              	.LASF298:
 19904 16f6 6C5F6D61 		.ascii	"l_max_duty\000"
 19904      785F6475 
 19904      747900
 19905              	.LASF98:
 19906 1701 43414E5F 		.ascii	"CAN_FilterRegister_TypeDef\000"
 19906      46696C74 
 19906      65725265 
 19906      67697374 
 19906      65725F54 
 19907              	.LASF417:
 19908 171c 434F4D4D 		.ascii	"COMM_EXPERIMENT_SAMPLE\000"
 19908      5F455850 
 19908      4552494D 
 19908      454E545F 
 19908      53414D50 
 19909              	.LASF711:
 19910 1733 72657376 		.ascii	"resvd58\000"
 19910      64353800 
 19911              	.LASF761:
 19912 173b 55534249 		.ascii	"USBInEndpointState\000"
 19912      6E456E64 
 19912      706F696E 
 19912      74537461 
 19912      746500
 19913              	.LASF37:
 19914 174e 705F7072 		.ascii	"p_prio\000"
 19914      696F00
 19915              	.LASF443:
 19916 1755 434F4D4D 		.ascii	"COMM_SET_MCCONF_TEMP_SETUP\000"
 19916      5F534554 
 19916      5F4D4343 
 19916      4F4E465F 
 19916      54454D50 
 19917              	.LASF197:
 19918 1770 696F5F71 		.ascii	"io_queue\000"
 19918      75657565 
 19918      00
 19919              	.LASF507:
 19920 1779 50414461 		.ascii	"PAData\000"
 19920      746100
 19921              	.LASF1016:
 19922 1780 6D635F69 		.ascii	"mc_interface_get_fault\000"
 19922      6E746572 
 19922      66616365 
 19922      5F676574 
ARM GAS  /tmp/ccU5UnMV.s 			page 383


 19922      5F666175 
 19923              	.LASF15:
 19924 1797 5F5F7569 		.ascii	"__uint64_t\000"
 19924      6E743634 
 19924      5F7400
 19925              	.LASF346:
 19926 17a2 666F635F 		.ascii	"foc_sl_erpm\000"
 19926      736C5F65 
 19926      72706D00 
 19927              	.LASF802:
 19928 17ae 5F6E6578 		.ascii	"_next\000"
 19928      7400
 19929              	.LASF998:
 19930 17b4 74696D65 		.ascii	"timeout_reset\000"
 19930      6F75745F 
 19930      72657365 
 19930      7400
 19931              	.LASF743:
 19932 17c2 72657376 		.ascii	"resvd880\000"
 19932      64383830 
 19932      00
 19933              	.LASF657:
 19934 17cb 5553425F 		.ascii	"USB_EP0_SENDING_STS\000"
 19934      4550305F 
 19934      53454E44 
 19934      494E475F 
 19934      53545300 
 19935              	.LASF885:
 19936 17df 5F736967 		.ascii	"_signal_buf\000"
 19936      6E616C5F 
 19936      62756600 
 19937              	.LASF592:
 19938 17eb 70657269 		.ascii	"period_cb\000"
 19938      6F645F63 
 19938      6200
 19939              	.LASF543:
 19940 17f5 69326373 		.ascii	"i2cstate_t\000"
 19940      74617465 
 19940      5F7400
 19941              	.LASF831:
 19942 1800 5F636F6F 		.ascii	"_cookie\000"
 19942      6B696500 
 19943              	.LASF313:
 19944 1808 736C5F70 		.ascii	"sl_phase_advance_at_br\000"
 19944      68617365 
 19944      5F616476 
 19944      616E6365 
 19944      5F61745F 
 19945              	.LASF659:
 19946 181f 75736265 		.ascii	"usbep0state_t\000"
 19946      70307374 
 19946      6174655F 
 19946      7400
 19947              	.LASF102:
 19948 182d 7354784D 		.ascii	"sTxMailBox\000"
 19948      61696C42 
 19948      6F7800
ARM GAS  /tmp/ccU5UnMV.s 			page 384


 19949              	.LASF617:
 19950 1838 5350495F 		.ascii	"SPI_ACTIVE\000"
 19950      41435449 
 19950      564500
 19951              	.LASF200:
 19952 1843 715F6275 		.ascii	"q_buffer\000"
 19952      66666572 
 19952      00
 19953              	.LASF35:
 19954 184c 705F6E65 		.ascii	"p_next\000"
 19954      787400
 19955              	.LASF567:
 19956 1853 49324344 		.ascii	"I2CD2\000"
 19956      3200
 19957              	.LASF462:
 19958 1859 434F4D4D 		.ascii	"COMM_BM_WRITE_FLASH\000"
 19958      5F424D5F 
 19958      57524954 
 19958      455F464C 
 19958      41534800 
 19959              	.LASF627:
 19960 186d 55534244 		.ascii	"USBDriver\000"
 19960      72697665 
 19960      7200
 19961              	.LASF744:
 19962 1877 72657376 		.ascii	"resvd8C0\000"
 19962      64384330 
 19962      00
 19963              	.LASF782:
 19964 1880 55534243 		.ascii	"USBConfig\000"
 19964      6F6E6669 
 19964      6700
 19965              	.LASF687:
 19966 188a 72657376 		.ascii	"resvdC\000"
 19966      644300
 19967              	.LASF594:
 19968 1891 6368616E 		.ascii	"channel\000"
 19968      6E656C00 
 19969              	.LASF970:
 19970 1899 73746172 		.ascii	"start\000"
 19970      7400
 19971              	.LASF984:
 19972 189f 6D635F69 		.ascii	"mc_interface_set_configuration\000"
 19972      6E746572 
 19972      66616365 
 19972      5F736574 
 19972      5F636F6E 
 19973              	.LASF371:
 19974 18be 63635F67 		.ascii	"cc_gain\000"
 19974      61696E00 
 19975              	.LASF910:
 19976 18c6 7465726D 		.ascii	"terminal_callback_struct\000"
 19976      696E616C 
 19976      5F63616C 
 19976      6C626163 
 19976      6B5F7374 
 19977              	.LASF789:
ARM GAS  /tmp/ccU5UnMV.s 			page 385


 19978 18df 4144435F 		.ascii	"ADC_curr_norm_value\000"
 19978      63757272 
 19978      5F6E6F72 
 19978      6D5F7661 
 19978      6C756500 
 19979              	.LASF605:
 19980 18f3 6F717565 		.ascii	"oqueue\000"
 19980      756500
 19981              	.LASF26:
 19982 18fa 74726566 		.ascii	"trefs_t\000"
 19982      735F7400 
 19983              	.LASF53:
 19984 1902 705F6D70 		.ascii	"p_mpool\000"
 19984      6F6F6C00 
 19985              	.LASF273:
 19986 190a 70776D5F 		.ascii	"pwm_mode\000"
 19986      6D6F6465 
 19986      00
 19987              	.LASF275:
 19988 1913 6D6F746F 		.ascii	"motor_type\000"
 19988      725F7479 
 19988      706500
 19989              	.LASF304:
 19990 191e 6C6F5F63 		.ascii	"lo_current_min\000"
 19990      75727265 
 19990      6E745F6D 
 19990      696E00
 19991              	.LASF775:
 19992 192d 696E5F6D 		.ascii	"in_multiplier\000"
 19992      756C7469 
 19992      706C6965 
 19992      7200
 19993              	.LASF979:
 19994 193b 64727638 		.ascii	"drv8301_faults_to_string\000"
 19994      3330315F 
 19994      6661756C 
 19994      74735F74 
 19994      6F5F7374 
 19995              	.LASF311:
 19996 1954 736C5F6D 		.ascii	"sl_max_fullbreak_current_dir_change\000"
 19996      61785F66 
 19996      756C6C62 
 19996      7265616B 
 19996      5F637572 
 19997              	.LASF816:
 19998 1978 5F6F6E5F 		.ascii	"_on_exit_args\000"
 19998      65786974 
 19998      5F617267 
 19998      7300
 19999              	.LASF24:
 20000 1986 746D6F64 		.ascii	"tmode_t\000"
 20000      655F7400 
 20001              	.LASF854:
 20002 198e 5F5F636C 		.ascii	"__cleanup\000"
 20002      65616E75 
 20002      7000
 20003              	.LASF272:
ARM GAS  /tmp/ccU5UnMV.s 			page 386


 20004 1998 42415454 		.ascii	"BATTERY_TYPE\000"
 20004      4552595F 
 20004      54595045 
 20004      00
 20005              	.LASF825:
 20006 19a5 5F626173 		.ascii	"_base\000"
 20006      6500
 20007              	.LASF728:
 20008 19ab 44535453 		.ascii	"DSTS\000"
 20008      00
 20009              	.LASF342:
 20010 19b0 666F635F 		.ascii	"foc_sl_d_current_duty\000"
 20010      736C5F64 
 20010      5F637572 
 20010      72656E74 
 20010      5F647574 
 20011              	.LASF495:
 20012 19c6 42535252 		.ascii	"BSRR\000"
 20012      00
 20013              	.LASF141:
 20014 19cb 54494D5F 		.ascii	"TIM_TypeDef\000"
 20014      54797065 
 20014      44656600 
 20015              	.LASF780:
 20016 19d7 72657175 		.ascii	"requests_hook_cb\000"
 20016      65737473 
 20016      5F686F6F 
 20016      6B5F6362 
 20016      00
 20017              	.LASF890:
 20018 19e8 5F776372 		.ascii	"_wcrtomb_state\000"
 20018      746F6D62 
 20018      5F737461 
 20018      746500
 20019              	.LASF936:
 20020 19f7 63757272 		.ascii	"current2_samp\000"
 20020      656E7432 
 20020      5F73616D 
 20020      7000
 20021              	.LASF316:
 20022 1a05 68616C6C 		.ascii	"hall_table\000"
 20022      5F746162 
 20022      6C6500
 20023              	.LASF758:
 20024 1a10 74787369 		.ascii	"txsize\000"
 20024      7A6500
 20025              	.LASF963:
 20026 1a17 666F756E 		.ascii	"found\000"
 20026      6400
 20027              	.LASF1014:
 20028 1a1d 6D635F69 		.ascii	"mc_interface_get_last_sample_adc_isr_duration\000"
 20028      6E746572 
 20028      66616365 
 20028      5F676574 
 20028      5F6C6173 
 20029              	.LASF542:
 20030 1a4b 4932435F 		.ascii	"I2C_LOCKED\000"
ARM GAS  /tmp/ccU5UnMV.s 			page 387


 20030      4C4F434B 
 20030      454400
 20031              	.LASF591:
 20032 1a56 77696474 		.ascii	"width_cb\000"
 20032      685F6362 
 20032      00
 20033              	.LASF230:
 20034 1a5f 4D4F544F 		.ascii	"MOTOR_TYPE_DC\000"
 20034      525F5459 
 20034      50455F44 
 20034      4300
 20035              	.LASF935:
 20036 1a6d 63757272 		.ascii	"current1_samp\000"
 20036      656E7431 
 20036      5F73616D 
 20036      7000
 20037              	.LASF980:
 20038 1a7b 636F6E66 		.ascii	"conf_general_detect_motor_param\000"
 20038      5F67656E 
 20038      6572616C 
 20038      5F646574 
 20038      6563745F 
 20039              	.LASF648:
 20040 1a9b 5553425F 		.ascii	"USB_READY\000"
 20040      52454144 
 20040      5900
 20041              	.LASF613:
 20042 1aa5 72656164 		.ascii	"readt\000"
 20042      7400
 20043              	.LASF332:
 20044 1aab 666F635F 		.ascii	"foc_motor_flux_linkage\000"
 20044      6D6F746F 
 20044      725F666C 
 20044      75785F6C 
 20044      696E6B61 
 20045              	.LASF354:
 20046 1ac2 6770645F 		.ascii	"gpd_buffer_interpol\000"
 20046      62756666 
 20046      65725F69 
 20046      6E746572 
 20046      706F6C00 
 20047              	.LASF700:
 20048 1ad6 47525354 		.ascii	"GRSTCTL\000"
 20048      43544C00 
 20049              	.LASF312:
 20050 1ade 736C5F63 		.ascii	"sl_cycle_int_limit\000"
 20050      79636C65 
 20050      5F696E74 
 20050      5F6C696D 
 20050      697400
 20051              	.LASF17:
 20052 1af1 696E7438 		.ascii	"int8_t\000"
 20052      5F7400
 20053              	.LASF800:
 20054 1af8 5F5F554C 		.ascii	"__ULong\000"
 20054      6F6E6700 
 20055              	.LASF81:
ARM GAS  /tmp/ccU5UnMV.s 			page 388


 20056 1b00 70616E69 		.ascii	"panic_msg\000"
 20056      635F6D73 
 20056      6700
 20057              	.LASF618:
 20058 1b0a 5350495F 		.ascii	"SPI_COMPLETE\000"
 20058      434F4D50 
 20058      4C455445 
 20058      00
 20059              	.LASF840:
 20060 1b17 5F646174 		.ascii	"_data\000"
 20060      6100
 20061              	.LASF65:
 20062 1b1d 725F6E65 		.ascii	"r_newer\000"
 20062      77657200 
 20063              	.LASF400:
 20064 1b25 434F4D4D 		.ascii	"COMM_SET_CURRENT\000"
 20064      5F534554 
 20064      5F435552 
 20064      52454E54 
 20064      00
 20065              	.LASF665:
 20066 1b36 5553425F 		.ascii	"USB_EVENT_STALLED\000"
 20066      4556454E 
 20066      545F5354 
 20066      414C4C45 
 20066      4400
 20067              	.LASF241:
 20068 1b48 4641554C 		.ascii	"FAULT_CODE_GATE_DRIVER_OVER_VOLTAGE\000"
 20068      545F434F 
 20068      44455F47 
 20068      4154455F 
 20068      44524956 
 20069              	.LASF183:
 20070 1b6c 63686465 		.ascii	"chdebug_t\000"
 20070      6275675F 
 20070      7400
 20071              	.LASF764:
 20072 1b76 72787369 		.ascii	"rxsize\000"
 20072      7A6500
 20073              	.LASF571:
 20074 1b7d 4943555F 		.ascii	"ICU_WAITING\000"
 20074      57414954 
 20074      494E4700 
 20075              	.LASF258:
 20076 1b89 6379636C 		.ascii	"cycle_int_limit_max\000"
 20076      655F696E 
 20076      745F6C69 
 20076      6D69745F 
 20076      6D617800 
 20077              	.LASF662:
 20078 1b9d 5553425F 		.ascii	"USB_EVENT_CONFIGURED\000"
 20078      4556454E 
 20078      545F434F 
 20078      4E464947 
 20078      55524544 
 20079              	.LASF1002:
 20080 1bb2 6D637077 		.ascii	"mcpwm_foc_set_openloop\000"
ARM GAS  /tmp/ccU5UnMV.s 			page 389


 20080      6D5F666F 
 20080      635F7365 
 20080      745F6F70 
 20080      656E6C6F 
 20081              	.LASF982:
 20082 1bc9 6D637077 		.ascii	"mcpwm_get_rpm_dep\000"
 20082      6D5F6765 
 20082      745F7270 
 20082      6D5F6465 
 20082      7000
 20083              	.LASF610:
 20084 1bdb 70757474 		.ascii	"putt\000"
 20084      00
 20085              	.LASF27:
 20086 1be0 74736C69 		.ascii	"tslices_t\000"
 20086      6365735F 
 20086      7400
 20087              	.LASF439:
 20088 1bea 434F4D4D 		.ascii	"COMM_GPD_FILL_BUFFER_INT16\000"
 20088      5F475044 
 20088      5F46494C 
 20088      4C5F4255 
 20088      46464552 
 20089              	.LASF929:
 20090 1c05 64697231 		.ascii	"dir1\000"
 20090      00
 20091              	.LASF170:
 20092 1c0a 63685F74 		.ascii	"ch_timesize\000"
 20092      696D6573 
 20092      697A6500 
 20093              	.LASF930:
 20094 1c16 64697238 		.ascii	"dir8\000"
 20094      00
 20095              	.LASF472:
 20096 1c1b 6379636C 		.ascii	"cycles_running\000"
 20096      65735F72 
 20096      756E6E69 
 20096      6E6700
 20097              	.LASF644:
 20098 1c2a 77615F70 		.ascii	"wa_pump\000"
 20098      756D7000 
 20099              	.LASF195:
 20100 1c32 6576656E 		.ascii	"event_source_t\000"
 20100      745F736F 
 20100      75726365 
 20100      5F7400
 20101              	.LASF714:
 20102 1c41 72657376 		.ascii	"resvd140\000"
 20102      64313430 
 20102      00
 20103              	.LASF73:
 20104 1c4a 76745F64 		.ascii	"vt_delta\000"
 20104      656C7461 
 20104      00
 20105              	.LASF679:
 20106 1c53 48435453 		.ascii	"HCTSIZ\000"
 20106      495A00
ARM GAS  /tmp/ccU5UnMV.s 			page 390


 20107              	.LASF871:
 20108 1c5a 5F736565 		.ascii	"_seed\000"
 20108      6400
 20109              	.LASF271:
 20110 1c60 42415454 		.ascii	"BATTERY_TYPE_LEAD_ACID\000"
 20110      4552595F 
 20110      54595045 
 20110      5F4C4541 
 20110      445F4143 
 20111              	.LASF834:
 20112 1c77 5F736565 		.ascii	"_seek\000"
 20112      6B00
 20113              	.LASF663:
 20114 1c7d 5553425F 		.ascii	"USB_EVENT_SUSPEND\000"
 20114      4556454E 
 20114      545F5355 
 20114      5350454E 
 20114      4400
 20115              	.LASF270:
 20116 1c8f 42415454 		.ascii	"BATTERY_TYPE_LIIRON_2_6__3_6\000"
 20116      4552595F 
 20116      54595045 
 20116      5F4C4949 
 20116      524F4E5F 
 20117              	.LASF9:
 20118 1cac 73686F72 		.ascii	"short unsigned int\000"
 20118      7420756E 
 20118      7369676E 
 20118      65642069 
 20118      6E7400
 20119              	.LASF4:
 20120 1cbf 7369676E 		.ascii	"signed char\000"
 20120      65642063 
 20120      68617200 
 20121              	.LASF1001:
 20122 1ccb 636F6E66 		.ascii	"conf_general_measure_flux_linkage_openloop\000"
 20122      5F67656E 
 20122      6572616C 
 20122      5F6D6561 
 20122      73757265 
 20123              	.LASF903:
 20124 1cf6 5F5F6664 		.ascii	"__fdlibm_xopen\000"
 20124      6C69626D 
 20124      5F786F70 
 20124      656E00
 20125              	.LASF301:
 20126 1d05 6C5F6375 		.ascii	"l_current_max_scale\000"
 20126      7272656E 
 20126      745F6D61 
 20126      785F7363 
 20126      616C6500 
 20127              	.LASF45:
 20128 1d19 705F7072 		.ascii	"p_preempt\000"
 20128      65656D70 
 20128      7400
 20129              	.LASF283:
 20130 1d23 6C5F6D61 		.ascii	"l_max_erpm\000"
ARM GAS  /tmp/ccU5UnMV.s 			page 391


 20130      785F6572 
 20130      706D00
 20131              	.LASF46:
 20132 1d2e 705F7469 		.ascii	"p_time\000"
 20132      6D6500
 20133              	.LASF92:
 20134 1d35 54444852 		.ascii	"TDHR\000"
 20134      00
 20135              	.LASF656:
 20136 1d3a 5553425F 		.ascii	"USB_EP0_RX\000"
 20136      4550305F 
 20136      525800
 20137              	.LASF466:
 20138 1d45 63757272 		.ascii	"current\000"
 20138      656E7400 
 20139              	.LASF901:
 20140 1d4d 5F5F6664 		.ascii	"__fdlibm_ieee\000"
 20140      6C69626D 
 20140      5F696565 
 20140      6500
 20141              	.LASF637:
 20142 1d5b 73746174 		.ascii	"status\000"
 20142      757300
 20143              	.LASF785:
 20144 1d62 6D637077 		.ascii	"mcpwm_detect_voltages\000"
 20144      6D5F6465 
 20144      74656374 
 20144      5F766F6C 
 20144      74616765 
 20145              	.LASF669:
 20146 1d78 55534244 		.ascii	"USBDescriptor\000"
 20146      65736372 
 20146      6970746F 
 20146      7200
 20147              	.LASF858:
 20148 1d86 5F667265 		.ascii	"_freelist\000"
 20148      656C6973 
 20148      7400
 20149              	.LASF240:
 20150 1d90 4641554C 		.ascii	"FAULT_CODE_OVER_TEMP_MOTOR\000"
 20150      545F434F 
 20150      44455F4F 
 20150      5645525F 
 20150      54454D50 
 20151              	.LASF638:
 20152 1dab 61646472 		.ascii	"address\000"
 20152      65737300 
 20153              	.LASF228:
 20154 1db3 6F75745F 		.ascii	"out_aux_mode\000"
 20154      6175785F 
 20154      6D6F6465 
 20154      00
 20155              	.LASF48:
 20156 1dc0 705F6D73 		.ascii	"p_msgqueue\000"
 20156      67717565 
 20156      756500
 20157              	.LASF180:
ARM GAS  /tmp/ccU5UnMV.s 			page 392


 20158 1dcb 63665F6F 		.ascii	"cf_off_refs\000"
 20158      66665F72 
 20158      65667300 
 20159              	.LASF338:
 20160 1dd7 666F635F 		.ascii	"foc_duty_dowmramp_ki\000"
 20160      64757479 
 20160      5F646F77 
 20160      6D72616D 
 20160      705F6B69 
 20161              	.LASF162:
 20162 1dec 6D5F6F77 		.ascii	"m_owner\000"
 20162      6E657200 
 20163              	.LASF337:
 20164 1df4 666F635F 		.ascii	"foc_duty_dowmramp_kp\000"
 20164      64757479 
 20164      5F646F77 
 20164      6D72616D 
 20164      705F6B70 
 20165              	.LASF839:
 20166 1e09 5F6F6666 		.ascii	"_offset\000"
 20166      73657400 
 20167              	.LASF89:
 20168 1e11 53797374 		.ascii	"SystemCoreClock\000"
 20168      656D436F 
 20168      7265436C 
 20168      6F636B00 
 20169              	.LASF526:
 20170 1e21 73746174 		.ascii	"state\000"
 20170      6500
 20171              	.LASF168:
 20172 1e27 63685F76 		.ascii	"ch_version\000"
 20172      65727369 
 20172      6F6E00
 20173              	.LASF824:
 20174 1e32 5F5F7362 		.ascii	"__sbuf\000"
 20174      756600
 20175              	.LASF655:
 20176 1e39 5553425F 		.ascii	"USB_EP0_WAITING_STS\000"
 20176      4550305F 
 20176      57414954 
 20176      494E475F 
 20176      53545300 
 20177              	.LASF123:
 20178 1e4d 4932435F 		.ascii	"I2C_TypeDef\000"
 20178      54797065 
 20178      44656600 
 20179              	.LASF96:
 20180 1e59 52444852 		.ascii	"RDHR\000"
 20180      00
 20181              	.LASF868:
 20182 1e5e 5F6E696F 		.ascii	"_niobs\000"
 20182      627300
 20183              	.LASF873:
 20184 1e65 5F616464 		.ascii	"_add\000"
 20184      00
 20185              	.LASF140:
 20186 1e6a 444D4152 		.ascii	"DMAR\000"
ARM GAS  /tmp/ccU5UnMV.s 			page 393


 20186      00
 20187              	.LASF83:
 20188 1e6f 63685F73 		.ascii	"ch_system\000"
 20188      79737465 
 20188      6D00
 20189              	.LASF844:
 20190 1e79 5F726565 		.ascii	"_reent\000"
 20190      6E7400
 20191              	.LASF277:
 20192 1e80 6C5F6375 		.ascii	"l_current_max\000"
 20192      7272656E 
 20192      745F6D61 
 20192      7800
 20193              	.LASF884:
 20194 1e8e 5F6C3634 		.ascii	"_l64a_buf\000"
 20194      615F6275 
 20194      6600
 20195              	.LASF478:
 20196 1e98 64727638 		.ascii	"drv8301_faults\000"
 20196      3330315F 
 20196      6661756C 
 20196      747300
 20197              	.LASF302:
 20198 1ea7 6C5F6375 		.ascii	"l_current_min_scale\000"
 20198      7272656E 
 20198      745F6D69 
 20198      6E5F7363 
 20198      616C6500 
 20199              	.LASF876:
 20200 1ebb 5F617363 		.ascii	"_asctime_buf\000"
 20200      74696D65 
 20200      5F627566 
 20200      00
 20201              	.LASF794:
 20202 1ec8 5F5F7763 		.ascii	"__wch\000"
 20202      6800
 20203              	.LASF962:
 20204 1ece 6D61785F 		.ascii	"max_power_loss\000"
 20204      706F7765 
 20204      725F6C6F 
 20204      737300
 20205              	.LASF797:
 20206 1edd 5F5F7661 		.ascii	"__value\000"
 20206      6C756500 
 20207              	.LASF157:
 20208 1ee5 63685F73 		.ascii	"ch_semaphore\000"
 20208      656D6170 
 20208      686F7265 
 20208      00
 20209              	.LASF891:
 20210 1ef2 5F776373 		.ascii	"_wcsrtombs_state\000"
 20210      72746F6D 
 20210      62735F73 
 20210      74617465 
 20210      00
 20211              	.LASF434:
 20212 1f03 434F4D4D 		.ascii	"COMM_GPD_BUFFER_SIZE_LEFT\000"
ARM GAS  /tmp/ccU5UnMV.s 			page 394


 20212      5F475044 
 20212      5F425546 
 20212      4645525F 
 20212      53495A45 
 20213              	.LASF688:
 20214 1f1d 44494550 		.ascii	"DIEPTSIZ\000"
 20214      5453495A 
 20214      00
 20215              	.LASF966:
 20216 1f26 706F7274 		.ascii	"port_unlock\000"
 20216      5F756E6C 
 20216      6F636B00 
 20217              	.LASF58:
 20218 1f32 74687265 		.ascii	"threads_queue_t\000"
 20218      6164735F 
 20218      71756575 
 20218      655F7400 
 20219              	.LASF250:
 20220 1f42 53454E53 		.ascii	"SENSOR_PORT_MODE_HALL\000"
 20220      4F525F50 
 20220      4F52545F 
 20220      4D4F4445 
 20220      5F48414C 
 20221              	.LASF1029:
 20222 1f58 5F5F6664 		.ascii	"__fdlibm_version\000"
 20222      6C69626D 
 20222      5F766572 
 20222      73696F6E 
 20222      00
 20223              	.LASF788:
 20224 1f69 4144435F 		.ascii	"ADC_Value\000"
 20224      56616C75 
 20224      6500
 20225              	.LASF220:
 20226 1f73 464F435F 		.ascii	"FOC_SENSOR_MODE_SENSORLESS\000"
 20226      53454E53 
 20226      4F525F4D 
 20226      4F44455F 
 20226      53454E53 
 20227              	.LASF44:
 20228 1f8e 705F7265 		.ascii	"p_refs\000"
 20228      667300
 20229              	.LASF767:
 20230 1f95 65705F6D 		.ascii	"ep_mode\000"
 20230      6F646500 
 20231              	.LASF695:
 20232 1f9d 73746D33 		.ascii	"stm32_otg_out_ep_t\000"
 20232      325F6F74 
 20232      675F6F75 
 20232      745F6570 
 20232      5F7400
 20233              	.LASF219:
 20234 1fb0 6D635F73 		.ascii	"mc_sensor_mode\000"
 20234      656E736F 
 20234      725F6D6F 
 20234      646500
 20235              	.LASF91:
ARM GAS  /tmp/ccU5UnMV.s 			page 395


 20236 1fbf 54444C52 		.ascii	"TDLR\000"
 20236      00
 20237              	.LASF11:
 20238 1fc4 6C6F6E67 		.ascii	"long int\000"
 20238      20696E74 
 20238      00
 20239              	.LASF86:
 20240 1fcd 6D61696E 		.ascii	"mainthread\000"
 20240      74687265 
 20240      616400
 20241              	.LASF906:
 20242 1fd8 5F746572 		.ascii	"_terminal_callback_struct\000"
 20242      6D696E61 
 20242      6C5F6361 
 20242      6C6C6261 
 20242      636B5F73 
 20243              	.LASF1015:
 20244 1ff2 6D637077 		.ascii	"mcpwm_get_kv_filtered\000"
 20244      6D5F6765 
 20244      745F6B76 
 20244      5F66696C 
 20244      74657265 
 20245              	.LASF634:
 20246 2008 6570306E 		.ascii	"ep0n\000"
 20246      00
 20247              	.LASF263:
 20248 200d 6D635F72 		.ascii	"mc_rpm_dep_struct\000"
 20248      706D5F64 
 20248      65705F73 
 20248      74727563 
 20248      7400
 20249              	.LASF161:
 20250 201f 6D5F7175 		.ascii	"m_queue\000"
 20250      65756500 
 20251              	.LASF405:
 20252 2027 434F4D4D 		.ascii	"COMM_SET_DETECT\000"
 20252      5F534554 
 20252      5F444554 
 20252      45435400 
 20253              	.LASF514:
 20254 2037 50484461 		.ascii	"PHData\000"
 20254      746100
 20255              	.LASF517:
 20256 203e 696F706F 		.ascii	"ioportid_t\000"
 20256      72746964 
 20256      5F7400
 20257              	.LASF395:
 20258 2049 434F4D4D 		.ascii	"COMM_JUMP_TO_BOOTLOADER\000"
 20258      5F4A554D 
 20258      505F544F 
 20258      5F424F4F 
 20258      544C4F41 
 20259              	.LASF213:
 20260 2061 434F4D4D 		.ascii	"COMM_MODE_INTEGRATE\000"
 20260      5F4D4F44 
 20260      455F494E 
 20260      54454752 
ARM GAS  /tmp/ccU5UnMV.s 			page 396


 20260      41544500 
 20261              	.LASF715:
 20262 2075 48434647 		.ascii	"HCFG\000"
 20262      00
 20263              	.LASF784:
 20264 207a 6D637077 		.ascii	"mcpwm_detect_currents\000"
 20264      6D5F6465 
 20264      74656374 
 20264      5F637572 
 20264      72656E74 
 20265              	.LASF869:
 20266 2090 5F696F62 		.ascii	"_iobs\000"
 20266      7300
 20267              	.LASF626:
 20268 2096 53504944 		.ascii	"SPID1\000"
 20268      3100
 20269              	.LASF611:
 20270 209c 67657474 		.ascii	"gett\000"
 20270      00
 20271              	.LASF908:
 20272 20a1 68656C70 		.ascii	"help\000"
 20272      00
 20273              	.LASF445:
 20274 20a6 434F4D4D 		.ascii	"COMM_GET_VALUES_SETUP_SELECTIVE\000"
 20274      5F474554 
 20274      5F56414C 
 20274      5545535F 
 20274      53455455 
 20275              	.LASF153:
 20276 20c6 77747472 		.ascii	"wttrp\000"
 20276      7000
 20277              	.LASF203:
 20278 20cc 715F7264 		.ascii	"q_rdptr\000"
 20278      70747200 
 20279              	.LASF146:
 20280 20d4 636F6E74 		.ascii	"context\000"
 20280      65787400 
 20281              	.LASF608:
 20282 20dc 77726974 		.ascii	"write\000"
 20282      6500
 20283              	.LASF879:
 20284 20e2 5F72616E 		.ascii	"_rand_next\000"
 20284      645F6E65 
 20284      787400
 20285              	.LASF458:
 20286 20ed 434F4D4D 		.ascii	"COMM_TERMINAL_CMD_SYNC\000"
 20286      5F544552 
 20286      4D494E41 
 20286      4C5F434D 
 20286      445F5359 
 20287              	.LASF769:
 20288 2104 696E5F63 		.ascii	"in_cb\000"
 20288      6200
 20289              	.LASF386:
 20290 210a 73695F6D 		.ascii	"si_motor_poles\000"
 20290      6F746F72 
 20290      5F706F6C 
ARM GAS  /tmp/ccU5UnMV.s 			page 397


 20290      657300
 20291              	.LASF693:
 20292 2119 444F4550 		.ascii	"DOEPINT\000"
 20292      494E5400 
 20293              	.LASF496:
 20294 2121 4C434B52 		.ascii	"LCKR\000"
 20294      00
 20295              	.LASF324:
 20296 2126 666F635F 		.ascii	"foc_encoder_ratio\000"
 20296      656E636F 
 20296      6465725F 
 20296      72617469 
 20296      6F00
 20297              	.LASF601:
 20298 2138 73647374 		.ascii	"sdstate_t\000"
 20298      6174655F 
 20298      7400
 20299              	.LASF21:
 20300 2142 75696E74 		.ascii	"uint32_t\000"
 20300      33325F74 
 20300      00
 20301              	.LASF482:
 20302 214b 636F6E66 		.ascii	"conf_general_permanent_nrf_found\000"
 20302      5F67656E 
 20302      6572616C 
 20302      5F706572 
 20302      6D616E65 
 20303              	.LASF427:
 20304 216c 434F4D4D 		.ascii	"COMM_GET_DECODED_CHUK\000"
 20304      5F474554 
 20304      5F444543 
 20304      4F444544 
 20304      5F434855 
 20305              	.LASF803:
 20306 2182 5F6D6178 		.ascii	"_maxwds\000"
 20306      77647300 
 20307              	.LASF673:
 20308 218a 75736272 		.ascii	"usbreqhandler_t\000"
 20308      65716861 
 20308      6E646C65 
 20308      725F7400 
 20309              	.LASF95:
 20310 219a 52444C52 		.ascii	"RDLR\000"
 20310      00
 20311              	.LASF404:
 20312 219f 434F4D4D 		.ascii	"COMM_SET_HANDBRAKE\000"
 20312      5F534554 
 20312      5F48414E 
 20312      44425241 
 20312      4B4500
 20313              	.LASF804:
 20314 21b2 5F736967 		.ascii	"_sign\000"
 20314      6E00
 20315              	.LASF994:
 20316 21b8 6D635F69 		.ascii	"mc_interface_get_rpm\000"
 20316      6E746572 
 20316      66616365 
ARM GAS  /tmp/ccU5UnMV.s 			page 398


 20316      5F676574 
 20316      5F72706D 
 20317              	.LASF967:
 20318 21cd 706F7274 		.ascii	"port_lock\000"
 20318      5F6C6F63 
 20318      6B00
 20319              	.LASF1011:
 20320 21d7 73747274 		.ascii	"strtok\000"
 20320      6F6B00
 20321              	.LASF403:
 20322 21de 434F4D4D 		.ascii	"COMM_SET_POS\000"
 20322      5F534554 
 20322      5F504F53 
 20322      00
 20323              	.LASF144:
 20324 21eb 72656761 		.ascii	"regarm_t\000"
 20324      726D5F74 
 20324      00
 20325              	.LASF30:
 20326 21f4 6576656E 		.ascii	"eventmask_t\000"
 20326      746D6173 
 20326      6B5F7400 
 20327              	.LASF660:
 20328 2200 5553425F 		.ascii	"USB_EVENT_RESET\000"
 20328      4556454E 
 20328      545F5245 
 20328      53455400 
 20329              	.LASF954:
 20330 2210 69715F61 		.ascii	"iq_avg\000"
 20330      766700
 20331              	.LASF109:
 20332 2217 46464131 		.ascii	"FFA1R\000"
 20332      5200
 20333              	.LASF649:
 20334 221d 5553425F 		.ascii	"USB_SELECTED\000"
 20334      53454C45 
 20334      43544544 
 20334      00
 20335              	.LASF1024:
 20336 222a 656E636F 		.ascii	"encoder_sincos_get_signal_above_max_error_cnt\000"
 20336      6465725F 
 20336      73696E63 
 20336      6F735F67 
 20336      65745F73 
 20337              	.LASF13:
 20338 2258 6C6F6E67 		.ascii	"long unsigned int\000"
 20338      20756E73 
 20338      69676E65 
 20338      6420696E 
 20338      7400
 20339              	.LASF372:
 20340 226a 63635F72 		.ascii	"cc_ramp_step_max\000"
 20340      616D705F 
 20340      73746570 
 20340      5F6D6178 
 20340      00
 20341              	.LASF927:
ARM GAS  /tmp/ccU5UnMV.s 			page 399


 20342 227b 74315F63 		.ascii	"t1_cnt\000"
 20342      6E7400
 20343              	.LASF463:
 20344 2282 434F4D4D 		.ascii	"COMM_BM_REBOOT\000"
 20344      5F424D5F 
 20344      5245424F 
 20344      4F5400
 20345              	.LASF366:
 20346 2291 705F7069 		.ascii	"p_pid_kd\000"
 20346      645F6B64 
 20346      00
 20347              	.LASF365:
 20348 229a 705F7069 		.ascii	"p_pid_ki\000"
 20348      645F6B69 
 20348      00
 20349              	.LASF202:
 20350 22a3 715F7772 		.ascii	"q_wrptr\000"
 20350      70747200 
 20351              	.LASF364:
 20352 22ab 705F7069 		.ascii	"p_pid_kp\000"
 20352      645F6B70 
 20352      00
 20353              	.LASF246:
 20354 22b4 4641554C 		.ascii	"FAULT_CODE_ENCODER_SINCOS_BELOW_MIN_AMPLITUDE\000"
 20354      545F434F 
 20354      44455F45 
 20354      4E434F44 
 20354      45525F53 
 20355              	.LASF574:
 20356 22e2 49435544 		.ascii	"ICUDriver\000"
 20356      72697665 
 20356      7200
 20357              	.LASF476:
 20358 22ec 636F6D6D 		.ascii	"comm_step\000"
 20358      5F737465 
 20358      7000
 20359              	.LASF596:
 20360 22f6 49435543 		.ascii	"ICUConfig\000"
 20360      6F6E6669 
 20360      6700
 20361              	.LASF210:
 20362 2300 50574D5F 		.ascii	"PWM_MODE_SYNCHRONOUS\000"
 20362      4D4F4445 
 20362      5F53594E 
 20362      4348524F 
 20362      4E4F5553 
 20363              	.LASF382:
 20364 2315 6D5F626C 		.ascii	"m_bldc_f_sw_max\000"
 20364      64635F66 
 20364      5F73775F 
 20364      6D617800 
 20365              	.LASF1004:
 20366 2325 636F6D6D 		.ascii	"commands_send_packet_nrf\000"
 20366      616E6473 
 20366      5F73656E 
 20366      645F7061 
 20366      636B6574 
ARM GAS  /tmp/ccU5UnMV.s 			page 400


 20367              	.LASF268:
 20368 233e 64727638 		.ascii	"drv8301_oc_mode\000"
 20368      3330315F 
 20368      6F635F6D 
 20368      6F646500 
 20369              	.LASF350:
 20370 234e 666F635F 		.ascii	"foc_temp_comp\000"
 20370      74656D70 
 20370      5F636F6D 
 20370      7000
 20371              	.LASF530:
 20372 235c 72786675 		.ascii	"rxfull_event\000"
 20372      6C6C5F65 
 20372      76656E74 
 20372      00
 20373              	.LASF666:
 20374 2369 75736265 		.ascii	"usbevent_t\000"
 20374      76656E74 
 20374      5F7400
 20375              	.LASF835:
 20376 2374 5F636C6F 		.ascii	"_close\000"
 20376      736500
 20377              	.LASF164:
 20378 237b 63686172 		.ascii	"char\000"
 20378      00
 20379              	.LASF525:
 20380 2380 43414E43 		.ascii	"CANConfig\000"
 20380      6F6E6669 
 20380      6700
 20381              	.LASF511:
 20382 238a 50454461 		.ascii	"PEData\000"
 20382      746100
 20383              	.LASF62:
 20384 2391 725F7175 		.ascii	"r_queue\000"
 20384      65756500 
 20385              	.LASF867:
 20386 2399 5F676C75 		.ascii	"_glue\000"
 20386      6500
 20387              	.LASF315:
 20388 239f 736C5F62 		.ascii	"sl_bemf_coupling_k\000"
 20388      656D665F 
 20388      636F7570 
 20388      6C696E67 
 20388      5F6B00
 20389              	.LASF1019:
 20390 23b2 656E636F 		.ascii	"encoder_spi_get_val\000"
 20390      6465725F 
 20390      7370695F 
 20390      6765745F 
 20390      76616C00 
 20391              	.LASF957:
 20392 23c6 656E6162 		.ascii	"enabled\000"
 20392      6C656400 
 20393              	.LASF296:
 20394 23ce 6C5F7465 		.ascii	"l_temp_accel_dec\000"
 20394      6D705F61 
 20394      6363656C 
ARM GAS  /tmp/ccU5UnMV.s 			page 401


 20394      5F646563 
 20394      00
 20395              	.LASF394:
 20396 23df 434F4D4D 		.ascii	"COMM_FW_VERSION\000"
 20396      5F46575F 
 20396      56455253 
 20396      494F4E00 
 20397              	.LASF606:
 20398 23ef 75736172 		.ascii	"usart\000"
 20398      7400
 20399              	.LASF917:
 20400 23f5 7465726D 		.ascii	"terminal_add_fault_data\000"
 20400      696E616C 
 20400      5F616464 
 20400      5F666175 
 20400      6C745F64 
 20401              	.LASF863:
 20402 240d 5F736967 		.ascii	"_sig_func\000"
 20402      5F66756E 
 20402      6300
 20403              	.LASF205:
 20404 2417 715F6C69 		.ascii	"q_link\000"
 20404      6E6B00
 20405              	.LASF586:
 20406 241e 4943555F 		.ascii	"ICU_CHANNEL_1\000"
 20406      4348414E 
 20406      4E454C5F 
 20406      3100
 20407              	.LASF937:
 20408 242c 6D696E5F 		.ascii	"min_rpm\000"
 20408      72706D00 
 20409              	.LASF801:
 20410 2434 5F426967 		.ascii	"_Bigint\000"
 20410      696E7400 
 20411              	.LASF294:
 20412 243c 6C5F7465 		.ascii	"l_temp_motor_start\000"
 20412      6D705F6D 
 20412      6F746F72 
 20412      5F737461 
 20412      727400
 20413              	.LASF457:
 20414 244f 434F4D4D 		.ascii	"COMM_APP_DISABLE_OUTPUT\000"
 20414      5F415050 
 20414      5F444953 
 20414      41424C45 
 20414      5F4F5554 
 20415              	.LASF702:
 20416 2467 47494E54 		.ascii	"GINTMSK\000"
 20416      4D534B00 
 20417              	.LASF390:
 20418 246f 73695F62 		.ascii	"si_battery_cells\000"
 20418      61747465 
 20418      72795F63 
 20418      656C6C73 
 20418      00
 20419              	.LASF578:
 20420 2480 69637563 		.ascii	"icucallback_t\000"
ARM GAS  /tmp/ccU5UnMV.s 			page 402


 20420      616C6C62 
 20420      61636B5F 
 20420      7400
 20421              	.LASF707:
 20422 248e 484E5054 		.ascii	"HNPTXSTS\000"
 20422      58535453 
 20422      00
 20423              	.LASF973:
 20424 2497 63684865 		.ascii	"chHeapStatus\000"
 20424      61705374 
 20424      61747573 
 20424      00
 20425              	.LASF956:
 20426 24a4 6572706D 		.ascii	"erpm\000"
 20426      00
 20427              	.LASF465:
 20428 24a9 6661756C 		.ascii	"fault\000"
 20428      7400
 20429              	.LASF639:
 20430 24af 636F6E66 		.ascii	"configuration\000"
 20430      69677572 
 20430      6174696F 
 20430      6E00
 20431              	.LASF862:
 20432 24bd 5F617465 		.ascii	"_atexit0\000"
 20432      78697430 
 20432      00
 20433              	.LASF506:
 20434 24c6 73746D33 		.ascii	"stm32_gpio_setup_t\000"
 20434      325F6770 
 20434      696F5F73 
 20434      65747570 
 20434      5F7400
 20435              	.LASF583:
 20436 24d9 4943555F 		.ascii	"ICU_INPUT_ACTIVE_LOW\000"
 20436      494E5055 
 20436      545F4143 
 20436      54495645 
 20436      5F4C4F57 
 20437              	.LASF254:
 20438 24ee 53454E53 		.ascii	"SENSOR_PORT_MODE_SINCOS\000"
 20438      4F525F50 
 20438      4F52545F 
 20438      4D4F4445 
 20438      5F53494E 
 20439              	.LASF278:
 20440 2506 6C5F6375 		.ascii	"l_current_min\000"
 20440      7272656E 
 20440      745F6D69 
 20440      6E00
 20441              	.LASF489:
 20442 2514 5F73746D 		.ascii	"_stm32_dma_streams\000"
 20442      33325F64 
 20442      6D615F73 
 20442      74726561 
 20442      6D7300
 20443              	.LASF958:
ARM GAS  /tmp/ccU5UnMV.s 			page 403


 20444 2527 62756666 		.ascii	"buffer\000"
 20444      657200
 20445              	.LASF886:
 20446 252e 5F676574 		.ascii	"_getdate_err\000"
 20446      64617465 
 20446      5F657272 
 20446      00
 20447              	.LASF471:
 20448 253b 74616368 		.ascii	"tacho\000"
 20448      6F00
 20449              	.LASF585:
 20450 2541 69637566 		.ascii	"icufreq_t\000"
 20450      7265715F 
 20450      7400
 20451              	.LASF806:
 20452 254b 5F5F746D 		.ascii	"__tm\000"
 20452      00
 20453              	.LASF236:
 20454 2550 4641554C 		.ascii	"FAULT_CODE_UNDER_VOLTAGE\000"
 20454      545F434F 
 20454      44455F55 
 20454      4E444552 
 20454      5F564F4C 
 20455              	.LASF1010:
 20456 2569 636F6E66 		.ascii	"conf_general_detect_apply_all_foc_can\000"
 20456      5F67656E 
 20456      6572616C 
 20456      5F646574 
 20456      6563745F 
 20457              	.LASF421:
 20458 258f 434F4D4D 		.ascii	"COMM_DETECT_ENCODER\000"
 20458      5F444554 
 20458      4543545F 
 20458      454E434F 
 20458      44455200 
 20459              	.LASF498:
 20460 25a3 41465248 		.ascii	"AFRH\000"
 20460      00
 20461              	.LASF409:
 20462 25a8 434F4D4D 		.ascii	"COMM_GET_MCCONF_DEFAULT\000"
 20462      5F474554 
 20462      5F4D4343 
 20462      4F4E465F 
 20462      44454641 
 20463              	.LASF433:
 20464 25c0 434F4D4D 		.ascii	"COMM_GPD_BUFFER_NOTIFY\000"
 20464      5F475044 
 20464      5F425546 
 20464      4645525F 
 20464      4E4F5449 
 20465              	.LASF993:
 20466 25d7 6D637077 		.ascii	"mcpwm_foc_get_vq\000"
 20466      6D5F666F 
 20466      635F6765 
 20466      745F7671 
 20466      00
 20467              	.LASF398:
ARM GAS  /tmp/ccU5UnMV.s 			page 404


 20468 25e8 434F4D4D 		.ascii	"COMM_GET_VALUES\000"
 20468      5F474554 
 20468      5F56414C 
 20468      55455300 
 20469              	.LASF32:
 20470 25f8 636E745F 		.ascii	"cnt_t\000"
 20470      7400
 20471              	.LASF389:
 20472 25fe 73695F62 		.ascii	"si_battery_type\000"
 20472      61747465 
 20472      72795F74 
 20472      79706500 
 20473              	.LASF974:
 20474 260e 6368436F 		.ascii	"chCoreGetStatusX\000"
 20474      72654765 
 20474      74537461 
 20474      74757358 
 20474      00
 20475              	.LASF654:
 20476 261f 5553425F 		.ascii	"USB_EP0_WAITING_TX0\000"
 20476      4550305F 
 20476      57414954 
 20476      494E475F 
 20476      54583000 
 20477              	.LASF470:
 20478 2633 64757479 		.ascii	"duty\000"
 20478      00
 20479              	.LASF234:
 20480 2638 4641554C 		.ascii	"FAULT_CODE_NONE\000"
 20480      545F434F 
 20480      44455F4E 
 20480      4F4E4500 
 20481              	.LASF359:
 20482 2648 735F7069 		.ascii	"s_pid_ki\000"
 20482      645F6B69 
 20482      00
 20483              	.LASF683:
 20484 2651 73746D33 		.ascii	"stm32_otg_host_chn_t\000"
 20484      325F6F74 
 20484      675F686F 
 20484      73745F63 
 20484      686E5F74 
 20485              	.LASF317:
 20486 2666 68616C6C 		.ascii	"hall_sl_erpm\000"
 20486      5F736C5F 
 20486      6572706D 
 20486      00
 20487              	.LASF358:
 20488 2673 735F7069 		.ascii	"s_pid_kp\000"
 20488      645F6B70 
 20488      00
 20489              	.LASF415:
 20490 267c 434F4D4D 		.ascii	"COMM_PRINT\000"
 20490      5F505249 
 20490      4E5400
 20491              	.LASF497:
 20492 2687 4146524C 		.ascii	"AFRL\000"
ARM GAS  /tmp/ccU5UnMV.s 			page 405


 20492      00
 20493              	.LASF307:
 20494 268c 6C6F5F63 		.ascii	"lo_current_motor_max_now\000"
 20494      75727265 
 20494      6E745F6D 
 20494      6F746F72 
 20494      5F6D6178 
 20495              	.LASF925:
 20496 26a5 73697A65 		.ascii	"size\000"
 20496      00
 20497              	.LASF898:
 20498 26aa 5F696D70 		.ascii	"_impure_ptr\000"
 20498      7572655F 
 20498      70747200 
 20499              	.LASF181:
 20500 26b6 63665F6F 		.ascii	"cf_off_preempt\000"
 20500      66665F70 
 20500      7265656D 
 20500      707400
 20501              	.LASF995:
 20502 26c5 6D635F69 		.ascii	"mc_interface_get_tot_current_directional\000"
 20502      6E746572 
 20502      66616365 
 20502      5F676574 
 20502      5F746F74 
 20503              	.LASF692:
 20504 26ee 444F4550 		.ascii	"DOEPCTL\000"
 20504      43544C00 
 20505              	.LASF436:
 20506 26f6 434F4D4D 		.ascii	"COMM_GPD_OUTPUT_SAMPLE\000"
 20506      5F475044 
 20506      5F4F5554 
 20506      5055545F 
 20506      53414D50 
 20507              	.LASF678:
 20508 270d 4843494E 		.ascii	"HCINTMSK\000"
 20508      544D534B 
 20508      00
 20509              	.LASF836:
 20510 2716 5F756275 		.ascii	"_ubuf\000"
 20510      6600
 20511              	.LASF339:
 20512 271c 666F635F 		.ascii	"foc_openloop_rpm\000"
 20512      6F70656E 
 20512      6C6F6F70 
 20512      5F72706D 
 20512      00
 20513              	.LASF343:
 20514 272d 666F635F 		.ascii	"foc_sl_d_current_factor\000"
 20514      736C5F64 
 20514      5F637572 
 20514      72656E74 
 20514      5F666163 
 20515              	.LASF881:
 20516 2745 5F6D626C 		.ascii	"_mblen_state\000"
 20516      656E5F73 
 20516      74617465 
ARM GAS  /tmp/ccU5UnMV.s 			page 406


 20516      00
 20517              	.LASF864:
 20518 2752 5F5F7367 		.ascii	"__sglue\000"
 20518      6C756500 
 20519              	.LASF897:
 20520 275a 5F5F6C6F 		.ascii	"__locale_t\000"
 20520      63616C65 
 20520      5F7400
 20521              	.LASF336:
 20522 2765 666F635F 		.ascii	"foc_pll_ki\000"
 20522      706C6C5F 
 20522      6B6900
 20523              	.LASF335:
 20524 2770 666F635F 		.ascii	"foc_pll_kp\000"
 20524      706C6C5F 
 20524      6B7000
 20525              	.LASF726:
 20526 277b 44434647 		.ascii	"DCFG\000"
 20526      00
 20527              	.LASF990:
 20528 2780 6D637077 		.ascii	"mcpwm_foc_measure_res_ind\000"
 20528      6D5F666F 
 20528      635F6D65 
 20528      61737572 
 20528      655F7265 
 20529              	.LASF572:
 20530 279a 4943555F 		.ascii	"ICU_ACTIVE\000"
 20530      41435449 
 20530      564500
 20531              	.LASF944:
 20532 27a5 72617469 		.ascii	"ratio\000"
 20532      6F00
 20533              	.LASF1000:
 20534 27ab 6D635F69 		.ascii	"mc_interface_release_motor\000"
 20534      6E746572 
 20534      66616365 
 20534      5F72656C 
 20534      65617365 
 20535              	.LASF68:
 20536 27c6 76746675 		.ascii	"vtfunc_t\000"
 20536      6E635F74 
 20536      00
 20537              	.LASF97:
 20538 27cf 43414E5F 		.ascii	"CAN_FIFOMailBox_TypeDef\000"
 20538      4649464F 
 20538      4D61696C 
 20538      426F785F 
 20538      54797065 
 20539              	.LASF152:
 20540 27e7 77746F62 		.ascii	"wtobjp\000"
 20540      6A7000
 20541              	.LASF792:
 20542 27ee 5F66706F 		.ascii	"_fpos_t\000"
 20542      735F7400 
 20543              	.LASF829:
 20544 27f6 5F66696C 		.ascii	"_file\000"
 20544      6500
ARM GAS  /tmp/ccU5UnMV.s 			page 407


 20545              	.LASF261:
 20546 27fc 636F6D6D 		.ascii	"comms\000"
 20546      7300
 20547              	.LASF265:
 20548 2802 44525638 		.ascii	"DRV8301_OC_LATCH_SHUTDOWN\000"
 20548      3330315F 
 20548      4F435F4C 
 20548      41544348 
 20548      5F534855 
 20549              	.LASF52:
 20550 281c 705F7265 		.ascii	"p_realprio\000"
 20550      616C7072 
 20550      696F00
 20551              	.LASF429:
 20552 2827 434F4D4D 		.ascii	"COMM_SET_CHUCK_DATA\000"
 20552      5F534554 
 20552      5F434855 
 20552      434B5F44 
 20552      41544100 
 20553              	.LASF204:
 20554 283b 715F6E6F 		.ascii	"q_notify\000"
 20554      74696679 
 20554      00
 20555              	.LASF155:
 20556 2844 77746D74 		.ascii	"wtmtxp\000"
 20556      787000
 20557              	.LASF233:
 20558 284b 6D635F6D 		.ascii	"mc_motor_type\000"
 20558      6F746F72 
 20558      5F747970 
 20558      6500
 20559              	.LASF827:
 20560 2859 5F5F7346 		.ascii	"__sFILE\000"
 20560      494C4500 
 20561              	.LASF1006:
 20562 2861 6D637077 		.ascii	"mcpwm_foc_set_openloop_phase\000"
 20562      6D5F666F 
 20562      635F7365 
 20562      745F6F70 
 20562      656E6C6F 
 20563              	.LASF900:
 20564 287e 646F7562 		.ascii	"double\000"
 20564      6C6500
 20565              	.LASF823:
 20566 2885 5F666E73 		.ascii	"_fns\000"
 20566      00
 20567              	.LASF940:
 20568 288a 636F7570 		.ascii	"coupling_k\000"
 20568      6C696E67 
 20568      5F6B00
 20569              	.LASF899:
 20570 2895 5F676C6F 		.ascii	"_global_impure_ptr\000"
 20570      62616C5F 
 20570      696D7075 
 20570      72655F70 
 20570      747200
 20571              	.LASF1031:
ARM GAS  /tmp/ccU5UnMV.s 			page 408


 20572 28a8 63685654 		.ascii	"chVTGetSystemTimeX\000"
 20572      47657453 
 20572      79737465 
 20572      6D54696D 
 20572      655800
 20573              	.LASF411:
 20574 28bb 434F4D4D 		.ascii	"COMM_GET_APPCONF\000"
 20574      5F474554 
 20574      5F415050 
 20574      434F4E46 
 20574      00
 20575              	.LASF766:
 20576 28cc 5553424F 		.ascii	"USBOutEndpointState\000"
 20576      7574456E 
 20576      64706F69 
 20576      6E745374 
 20576      61746500 
 20577              	.LASF1033:
 20578 28e0 5F5F6275 		.ascii	"__builtin_memcpy\000"
 20578      696C7469 
 20578      6E5F6D65 
 20578      6D637079 
 20578      00
 20579              	.LASF722:
 20580 28f1 72657376 		.ascii	"resvd41C\000"
 20580      64343143 
 20580      00
 20581              	.LASF295:
 20582 28fa 6C5F7465 		.ascii	"l_temp_motor_end\000"
 20582      6D705F6D 
 20582      6F746F72 
 20582      5F656E64 
 20582      00
 20583              	.LASF798:
 20584 290b 5F6D6273 		.ascii	"_mbstate_t\000"
 20584      74617465 
 20584      5F7400
 20585              	.LASF892:
 20586 2916 5F685F65 		.ascii	"_h_errno\000"
 20586      72726E6F 
 20586      00
 20587              	.LASF351:
 20588 291f 666F635F 		.ascii	"foc_temp_comp_base_temp\000"
 20588      74656D70 
 20588      5F636F6D 
 20588      705F6261 
 20588      73655F74 
 20589              	.LASF94:
 20590 2937 52445452 		.ascii	"RDTR\000"
 20590      00
 20591              	.LASF276:
 20592 293c 73656E73 		.ascii	"sensor_mode\000"
 20592      6F725F6D 
 20592      6F646500 
 20593              	.LASF922:
 20594 2948 61726776 		.ascii	"argv\000"
 20594      00
ARM GAS  /tmp/ccU5UnMV.s 			page 409


 20595              	.LASF216:
 20596 294d 53454E53 		.ascii	"SENSOR_MODE_SENSORLESS\000"
 20596      4F525F4D 
 20596      4F44455F 
 20596      53454E53 
 20596      4F524C45 
 20597              	.LASF61:
 20598 2964 63685F72 		.ascii	"ch_ready_list\000"
 20598      65616479 
 20598      5F6C6973 
 20598      7400
 20599              	.LASF1030:
 20600 2972 63685654 		.ascii	"chVTTimeElapsedSinceX\000"
 20600      54696D65 
 20600      456C6170 
 20600      73656453 
 20600      696E6365 
 20601              	.LASF494:
 20602 2988 50555044 		.ascii	"PUPDR\000"
 20602      5200
 20603              	.LASF10:
 20604 298e 5F5F696E 		.ascii	"__int32_t\000"
 20604      7433325F 
 20604      7400
 20605              	.LASF12:
 20606 2998 5F5F7569 		.ascii	"__uint32_t\000"
 20606      6E743332 
 20606      5F7400
 20607              	.LASF576:
 20608 29a3 77636372 		.ascii	"wccrp\000"
 20608      7000
 20609              	.LASF80:
 20610 29a9 63685F73 		.ascii	"ch_system_debug\000"
 20610      79737465 
 20610      6D5F6465 
 20610      62756700 
 20611              	.LASF475:
 20612 29b9 74696D5F 		.ascii	"tim_top\000"
 20612      746F7000 
 20613              	.LASF918:
 20614 29c1 64617461 		.ascii	"data\000"
 20614      00
 20615              	.LASF733:
 20616 29c6 4441494E 		.ascii	"DAINTMSK\000"
 20616      544D534B 
 20616      00
 20617              	.LASF199:
 20618 29cf 715F636F 		.ascii	"q_counter\000"
 20618      756E7465 
 20618      7200
 20619              	.LASF652:
 20620 29d9 5553425F 		.ascii	"USB_EP0_WAITING_SETUP\000"
 20620      4550305F 
 20620      57414954 
 20620      494E475F 
 20620      53455455 
 20621              	.LASF820:
ARM GAS  /tmp/ccU5UnMV.s 			page 410


 20622 29ef 5F69735F 		.ascii	"_is_cxa\000"
 20622      63786100 
 20623              	.LASF505:
 20624 29f7 61667268 		.ascii	"afrh\000"
 20624      00
 20625              	.LASF569:
 20626 29fc 4943555F 		.ascii	"ICU_STOP\000"
 20626      53544F50 
 20626      00
 20627              	.LASF504:
 20628 2a05 6166726C 		.ascii	"afrl\000"
 20628      00
 20629              	.LASF756:
 20630 2a0a 71756575 		.ascii	"queue\000"
 20630      6500
 20631              	.LASF450:
 20632 2a10 434F4D4D 		.ascii	"COMM_EXT_NRF_SET_ENABLED\000"
 20632      5F455854 
 20632      5F4E5246 
 20632      5F534554 
 20632      5F454E41 
 20633              	.LASF381:
 20634 2a29 6D5F626C 		.ascii	"m_bldc_f_sw_min\000"
 20634      64635F66 
 20634      5F73775F 
 20634      6D696E00 
 20635              	.LASF635:
 20636 2a39 65703065 		.ascii	"ep0endcb\000"
 20636      6E646362 
 20636      00
 20637              	.LASF923:
 20638 2a42 6D63636F 		.ascii	"mcconf\000"
 20638      6E6600
 20639              	.LASF486:
 20640 2a49 73656C66 		.ascii	"selfindex\000"
 20640      696E6465 
 20640      7800
 20641              	.LASF705:
 20642 2a53 47525846 		.ascii	"GRXFSIZ\000"
 20642      53495A00 
 20643              	.LASF185:
 20644 2a5b 6D757465 		.ascii	"mutex_t\000"
 20644      785F7400 
 20645              	.LASF435:
 20646 2a63 434F4D4D 		.ascii	"COMM_GPD_FILL_BUFFER\000"
 20646      5F475044 
 20646      5F46494C 
 20646      4C5F4255 
 20646      46464552 
 20647              	.LASF857:
 20648 2a78 5F703573 		.ascii	"_p5s\000"
 20648      00
 20649              	.LASF50:
 20650 2a7d 705F6570 		.ascii	"p_epending\000"
 20650      656E6469 
 20650      6E6700
 20651              	.LASF242:
ARM GAS  /tmp/ccU5UnMV.s 			page 411


 20652 2a88 4641554C 		.ascii	"FAULT_CODE_GATE_DRIVER_UNDER_VOLTAGE\000"
 20652      545F434F 
 20652      44455F47 
 20652      4154455F 
 20652      44524956 
 20653              	.LASF491:
 20654 2aad 4D4F4445 		.ascii	"MODER\000"
 20654      5200
 20655              	.LASF575:
 20656 2ab3 636C6F63 		.ascii	"clock\000"
 20656      6B00
 20657              	.LASF909:
 20658 2ab9 6172675F 		.ascii	"arg_names\000"
 20658      6E616D65 
 20658      7300
 20659              	.LASF460:
 20660 2ac3 434F4D4D 		.ascii	"COMM_BM_CONNECT\000"
 20660      5F424D5F 
 20660      434F4E4E 
 20660      45435400 
 20661              	.LASF340:
 20662 2ad3 666F635F 		.ascii	"foc_sl_openloop_hyst\000"
 20662      736C5F6F 
 20662      70656E6C 
 20662      6F6F705F 
 20662      68797374 
 20663              	.LASF101:
 20664 2ae8 52455345 		.ascii	"RESERVED0\000"
 20664      52564544 
 20664      3000
 20665              	.LASF104:
 20666 2af2 52455345 		.ascii	"RESERVED1\000"
 20666      52564544 
 20666      3100
 20667              	.LASF106:
 20668 2afc 52455345 		.ascii	"RESERVED2\000"
 20668      52564544 
 20668      3200
 20669              	.LASF108:
 20670 2b06 52455345 		.ascii	"RESERVED3\000"
 20670      52564544 
 20670      3300
 20671              	.LASF110:
 20672 2b10 52455345 		.ascii	"RESERVED4\000"
 20672      52564544 
 20672      3400
 20673              	.LASF112:
 20674 2b1a 52455345 		.ascii	"RESERVED5\000"
 20674      52564544 
 20674      3500
 20675              	.LASF777:
 20676 2b24 55534245 		.ascii	"USBEndpointConfig\000"
 20676      6E64706F 
 20676      696E7443 
 20676      6F6E6669 
 20676      6700
 20677              	.LASF529:
ARM GAS  /tmp/ccU5UnMV.s 			page 412


 20678 2b36 72787175 		.ascii	"rxqueue\000"
 20678      65756500 
 20679              	.LASF449:
 20680 2b3e 434F4D4D 		.ascii	"COMM_EXT_NRF_ESB_RX_DATA\000"
 20680      5F455854 
 20680      5F4E5246 
 20680      5F455342 
 20680      5F52585F 
 20681              	.LASF724:
 20682 2b57 72657376 		.ascii	"resvd444\000"
 20682      64343434 
 20682      00
 20683              	.LASF518:
 20684 2b60 70616C5F 		.ascii	"pal_default_config\000"
 20684      64656661 
 20684      756C745F 
 20684      636F6E66 
 20684      696700
 20685              	.LASF426:
 20686 2b73 434F4D4D 		.ascii	"COMM_GET_DECODED_ADC\000"
 20686      5F474554 
 20686      5F444543 
 20686      4F444544 
 20686      5F414443 
 20687              	.LASF410:
 20688 2b88 434F4D4D 		.ascii	"COMM_SET_APPCONF\000"
 20688      5F534554 
 20688      5F415050 
 20688      434F4E46 
 20688      00
 20689              	.LASF189:
 20690 2b99 656C5F6C 		.ascii	"el_listener\000"
 20690      69737465 
 20690      6E657200 
 20691              	.LASF755:
 20692 2ba5 6C696E65 		.ascii	"linear\000"
 20692      617200
 20693              	.LASF468:
 20694 2bac 766F6C74 		.ascii	"voltage\000"
 20694      61676500 
 20695              	.LASF305:
 20696 2bb4 6C6F5F69 		.ascii	"lo_in_current_max\000"
 20696      6E5F6375 
 20696      7272656E 
 20696      745F6D61 
 20696      7800
 20697              	.LASF992:
 20698 2bc6 63685468 		.ascii	"chThdSleep\000"
 20698      64536C65 
 20698      657000
 20699              	.LASF418:
 20700 2bd1 434F4D4D 		.ascii	"COMM_DETECT_MOTOR_PARAM\000"
 20700      5F444554 
 20700      4543545F 
 20700      4D4F544F 
 20700      525F5041 
 20701              	.LASF931:
ARM GAS  /tmp/ccU5UnMV.s 			page 413


 20702 2be9 64757479 		.ascii	"duty1\000"
 20702      3100
 20703              	.LASF932:
 20704 2bef 64757479 		.ascii	"duty2\000"
 20704      3200
 20705              	.LASF933:
 20706 2bf5 64757479 		.ascii	"duty3\000"
 20706      3300
 20707              	.LASF581:
 20708 2bfb 73746D33 		.ascii	"stm32_tim_t\000"
 20708      325F7469 
 20708      6D5F7400 
 20709              	.LASF924:
 20710 2c07 6D63636F 		.ascii	"mcconf_old\000"
 20710      6E665F6F 
 20710      6C6400
 20711              	.LASF63:
 20712 2c12 725F7072 		.ascii	"r_prio\000"
 20712      696F00
 20713              	.LASF641:
 20714 2c19 706D6E65 		.ascii	"pmnext\000"
 20714      787400
 20715              	.LASF344:
 20716 2c20 666F635F 		.ascii	"foc_sensor_mode\000"
 20716      73656E73 
 20716      6F725F6D 
 20716      6F646500 
 20717              	.LASF1021:
 20718 2c30 656E636F 		.ascii	"encoder_spi_get_error_rate\000"
 20718      6465725F 
 20718      7370695F 
 20718      6765745F 
 20718      6572726F 
 20719              	.LASF88:
 20720 2c4b 49544D5F 		.ascii	"ITM_RxBuffer\000"
 20720      52784275 
 20720      66666572 
 20720      00
 20721              	.LASF587:
 20722 2c58 4943555F 		.ascii	"ICU_CHANNEL_2\000"
 20722      4348414E 
 20722      4E454C5F 
 20722      3200
 20723              	.LASF222:
 20724 2c66 464F435F 		.ascii	"FOC_SENSOR_MODE_HALL\000"
 20724      53454E53 
 20724      4F525F4D 
 20724      4F44455F 
 20724      48414C4C 
 20725              	.LASF16:
 20726 2c7b 6C6F6E67 		.ascii	"long long unsigned int\000"
 20726      206C6F6E 
 20726      6720756E 
 20726      7369676E 
 20726      65642069 
 20727              	.LASF148:
 20728 2c92 6F666673 		.ascii	"offset\000"
ARM GAS  /tmp/ccU5UnMV.s 			page 414


 20728      657400
 20729              	.LASF367:
 20730 2c99 705F7069 		.ascii	"p_pid_kd_filter\000"
 20730      645F6B64 
 20730      5F66696C 
 20730      74657200 
 20731              	.LASF321:
 20732 2ca9 666F635F 		.ascii	"foc_dt_us\000"
 20732      64745F75 
 20732      7300
 20733              	.LASF349:
 20734 2cb3 666F635F 		.ascii	"foc_sat_comp\000"
 20734      7361745F 
 20734      636F6D70 
 20734      00
 20735              	.LASF968:
 20736 2cc0 63685379 		.ascii	"chSysUnlock\000"
 20736      73556E6C 
 20736      6F636B00 
 20737              	.LASF115:
 20738 2ccc 4E445452 		.ascii	"NDTR\000"
 20738      00
 20739              	.LASF194:
 20740 2cd1 65735F6E 		.ascii	"es_next\000"
 20740      65787400 
 20741              	.LASF878:
 20742 2cd9 5F67616D 		.ascii	"_gamma_signgam\000"
 20742      6D615F73 
 20742      69676E67 
 20742      616D00
 20743              	.LASF690:
 20744 2ce8 72657376 		.ascii	"resvd1C\000"
 20744      64314300 
 20745              	.LASF87:
 20746 2cf0 69646C65 		.ascii	"idle_thread_wa\000"
 20746      5F746872 
 20746      6561645F 
 20746      776100
 20747              	.LASF686:
 20748 2cff 44494550 		.ascii	"DIEPINT\000"
 20748      494E5400 
 20749              	.LASF573:
 20750 2d07 69637573 		.ascii	"icustate_t\000"
 20750      74617465 
 20750      5F7400
 20751              	.LASF129:
 20752 2d12 5350495F 		.ascii	"SPI_TypeDef\000"
 20752      54797065 
 20752      44656600 
 20753              	.LASF74:
 20754 2d1e 76745F66 		.ascii	"vt_func\000"
 20754      756E6300 
 20755              	.LASF130:
 20756 2d26 534D4352 		.ascii	"SMCR\000"
 20756      00
 20757              	.LASF477:
 20758 2d2b 74656D70 		.ascii	"temperature\000"
ARM GAS  /tmp/ccU5UnMV.s 			page 415


 20758      65726174 
 20758      75726500 
 20759              	.LASF731:
 20760 2d37 444F4550 		.ascii	"DOEPMSK\000"
 20760      4D534B00 
 20761              	.LASF401:
 20762 2d3f 434F4D4D 		.ascii	"COMM_SET_CURRENT_BRAKE\000"
 20762      5F534554 
 20762      5F435552 
 20762      52454E54 
 20762      5F425241 
 20763              	.LASF70:
 20764 2d56 63685F76 		.ascii	"ch_virtual_timer\000"
 20764      69727475 
 20764      616C5F74 
 20764      696D6572 
 20764      00
 20765              	.LASF43:
 20766 2d67 705F666C 		.ascii	"p_flags\000"
 20766      61677300 
 20767              	.LASF407:
 20768 2d6f 434F4D4D 		.ascii	"COMM_SET_MCCONF\000"
 20768      5F534554 
 20768      5F4D4343 
 20768      4F4E4600 
 20769              	.LASF156:
 20770 2d7f 65776D61 		.ascii	"ewmask\000"
 20770      736B00
 20771              	.LASF1009:
 20772 2d86 6D635F69 		.ascii	"mc_interface_get_configuration\000"
 20772      6E746572 
 20772      66616365 
 20772      5F676574 
 20772      5F636F6E 
 20773              	.LASF269:
 20774 2da5 42415454 		.ascii	"BATTERY_TYPE_LIION_3_0__4_2\000"
 20774      4552595F 
 20774      54595045 
 20774      5F4C4949 
 20774      4F4E5F33 
 20775              	.LASF402:
 20776 2dc1 434F4D4D 		.ascii	"COMM_SET_RPM\000"
 20776      5F534554 
 20776      5F52504D 
 20776      00
 20777              	.LASF191:
 20778 2dce 656C5F66 		.ascii	"el_flags\000"
 20778      6C616773 
 20778      00
 20779              	.LASF193:
 20780 2dd7 6576656E 		.ascii	"event_source\000"
 20780      745F736F 
 20780      75726365 
 20780      00
 20781              	.LASF431:
 20782 2de4 434F4D4D 		.ascii	"COMM_NRF_START_PAIRING\000"
 20782      5F4E5246 
ARM GAS  /tmp/ccU5UnMV.s 			page 416


 20782      5F535441 
 20782      52545F50 
 20782      41495249 
 20783              	.LASF51:
 20784 2dfb 705F6D74 		.ascii	"p_mtxlist\000"
 20784      786C6973 
 20784      7400
 20785              	.LASF314:
 20786 2e05 736C5F63 		.ascii	"sl_cycle_int_rpm_br\000"
 20786      79636C65 
 20786      5F696E74 
 20786      5F72706D 
 20786      5F627200 
 20787              	.LASF536:
 20788 2e19 43414E44 		.ascii	"CAND1\000"
 20788      3100
 20789              	.LASF107:
 20790 2e1f 46533152 		.ascii	"FS1R\000"
 20790      00
 20791              	.LASF25:
 20792 2e24 74737461 		.ascii	"tstate_t\000"
 20792      74655F74 
 20792      00
 20793              	.LASF620:
 20794 2e2d 53504944 		.ascii	"SPIDriver\000"
 20794      72697665 
 20794      7200
 20795              	.LASF732:
 20796 2e37 4441494E 		.ascii	"DAINT\000"
 20796      5400
 20797              	.LASF625:
 20798 2e3d 53504943 		.ascii	"SPIConfig\000"
 20798      6F6E6669 
 20798      6700
 20799              	.LASF851:
 20800 2e47 5F756E73 		.ascii	"_unspecified_locale_info\000"
 20800      70656369 
 20800      66696564 
 20800      5F6C6F63 
 20800      616C655F 
 20801              	.LASF503:
 20802 2e60 70757064 		.ascii	"pupdr\000"
 20802      7200
 20803              	.LASF383:
 20804 2e66 6D5F6463 		.ascii	"m_dc_f_sw\000"
 20804      5F665F73 
 20804      7700
 20805              	.LASF348:
 20806 2e70 666F635F 		.ascii	"foc_sample_high_current\000"
 20806      73616D70 
 20806      6C655F68 
 20806      6967685F 
 20806      63757272 
 20807              	.LASF682:
 20808 2e88 72657376 		.ascii	"resvd1c\000"
 20808      64316300 
 20809              	.LASF628:
ARM GAS  /tmp/ccU5UnMV.s 			page 417


 20810 2e90 7472616E 		.ascii	"transmitting\000"
 20810      736D6974 
 20810      74696E67 
 20810      00
 20811              	.LASF215:
 20812 2e9d 6D635F63 		.ascii	"mc_comm_mode\000"
 20812      6F6D6D5F 
 20812      6D6F6465 
 20812      00
 20813              	.LASF474:
 20814 2eaa 74696D5F 		.ascii	"tim_current_samp\000"
 20814      63757272 
 20814      656E745F 
 20814      73616D70 
 20814      00
 20815              	.LASF41:
 20816 2ebb 705F6E61 		.ascii	"p_name\000"
 20816      6D6500
 20817              	.LASF853:
 20818 2ec2 5F5F7364 		.ascii	"__sdidinit\000"
 20818      6964696E 
 20818      697400
 20819              	.LASF602:
 20820 2ecd 53657269 		.ascii	"SerialDriver\000"
 20820      616C4472 
 20820      69766572 
 20820      00
 20821              	.LASF904:
 20822 2eda 5F5F6664 		.ascii	"__fdlibm_posix\000"
 20822      6C69626D 
 20822      5F706F73 
 20822      697800
 20823              	.LASF651:
 20824 2ee9 75736273 		.ascii	"usbstate_t\000"
 20824      74617465 
 20824      5F7400
 20825              	.LASF694:
 20826 2ef4 444F4550 		.ascii	"DOEPTSIZ\000"
 20826      5453495A 
 20826      00
 20827              	.LASF467:
 20828 2efd 63757272 		.ascii	"current_filtered\000"
 20828      656E745F 
 20828      66696C74 
 20828      65726564 
 20828      00
 20829              	.LASF912:
 20830 2f0e 6661756C 		.ascii	"fault_vec_write\000"
 20830      745F7665 
 20830      635F7772 
 20830      69746500 
 20831              	.LASF1008:
 20832 2f1e 636F6D6D 		.ascii	"comm_can_ping\000"
 20832      5F63616E 
 20832      5F70696E 
 20832      6700
 20833              	.LASF799:
ARM GAS  /tmp/ccU5UnMV.s 			page 418


 20834 2f2c 5F666C6F 		.ascii	"_flock_t\000"
 20834      636B5F74 
 20834      00
 20835              	.LASF76:
 20836 2f35 76697274 		.ascii	"virtual_timers_list_t\000"
 20836      75616C5F 
 20836      74696D65 
 20836      72735F6C 
 20836      6973745F 
 20837              	.LASF1025:
 20838 2f4b 656E636F 		.ascii	"encoder_sincos_get_signal_above_max_error_rate\000"
 20838      6465725F 
 20838      73696E63 
 20838      6F735F67 
 20838      65745F73 
 20839              	.LASF209:
 20840 2f7a 50574D5F 		.ascii	"PWM_MODE_NONSYNCHRONOUS_HISW\000"
 20840      4D4F4445 
 20840      5F4E4F4E 
 20840      53594E43 
 20840      48524F4E 
 20841              	.LASF267:
 20842 2f97 44525638 		.ascii	"DRV8301_OC_DISABLED\000"
 20842      3330315F 
 20842      4F435F44 
 20842      49534142 
 20842      4C454400 
 20843              	.LASF438:
 20844 2fab 434F4D4D 		.ascii	"COMM_GPD_FILL_BUFFER_INT8\000"
 20844      5F475044 
 20844      5F46494C 
 20844      4C5F4255 
 20844      46464552 
 20845              	.LASF500:
 20846 2fc5 6D6F6465 		.ascii	"moder\000"
 20846      7200
 20847              	.LASF430:
 20848 2fcb 434F4D4D 		.ascii	"COMM_CUSTOM_APP_DATA\000"
 20848      5F435553 
 20848      544F4D5F 
 20848      4150505F 
 20848      44415441 
 20849              	.LASF416:
 20850 2fe0 434F4D4D 		.ascii	"COMM_ROTOR_POSITION\000"
 20850      5F524F54 
 20850      4F525F50 
 20850      4F534954 
 20850      494F4E00 
 20851              	.LASF225:
 20852 2ff4 4F55545F 		.ascii	"OUT_AUX_MODE_ON_AFTER_2S\000"
 20852      4155585F 
 20852      4D4F4445 
 20852      5F4F4E5F 
 20852      41465445 
 20853              	.LASF158:
 20854 300d 735F7175 		.ascii	"s_queue\000"
 20854      65756500 
ARM GAS  /tmp/ccU5UnMV.s 			page 419


 20855              	.LASF127:
 20856 3015 49325343 		.ascii	"I2SCFGR\000"
 20856      46475200 
 20857              	.LASF249:
 20858 301d 6D635F66 		.ascii	"mc_fault_code\000"
 20858      61756C74 
 20858      5F636F64 
 20858      6500
 20859              	.LASF374:
 20860 302b 6D5F6475 		.ascii	"m_duty_ramp_step\000"
 20860      74795F72 
 20860      616D705F 
 20860      73746570 
 20860      00
 20861              	.LASF393:
 20862 303c 6D635F63 		.ascii	"mc_configuration\000"
 20862      6F6E6669 
 20862      67757261 
 20862      74696F6E 
 20862      00
 20863              	.LASF527:
 20864 304d 636F6E66 		.ascii	"config\000"
 20864      696700
 20865              	.LASF165:
 20866 3054 63685F69 		.ascii	"ch_identifier\000"
 20866      64656E74 
 20866      69666965 
 20866      7200
 20867              	.LASF612:
 20868 3062 77726974 		.ascii	"writet\000"
 20868      657400
 20869              	.LASF452:
 20870 3069 434F4D4D 		.ascii	"COMM_DETECT_APPLY_ALL_FOC\000"
 20870      5F444554 
 20870      4543545F 
 20870      4150504C 
 20870      595F414C 
 20871              	.LASF14:
 20872 3083 6C6F6E67 		.ascii	"long long int\000"
 20872      206C6F6E 
 20872      6720696E 
 20872      7400
 20873              	.LASF712:
 20874 3091 48505458 		.ascii	"HPTXFSIZ\000"
 20874      4653495A 
 20874      00
 20875              	.LASF172:
 20876 309a 63665F6F 		.ascii	"cf_off_prio\000"
 20876      66665F70 
 20876      72696F00 
 20877              	.LASF843:
 20878 30a6 5F666C61 		.ascii	"_flags2\000"
 20878      67733200 
 20879              	.LASF920:
 20880 30ae 6B4D6178 		.ascii	"kMaxArgs\000"
 20880      41726773 
 20880      00
ARM GAS  /tmp/ccU5UnMV.s 			page 420


 20881              	.LASF893:
 20882 30b7 5F6E6578 		.ascii	"_nextf\000"
 20882      746600
 20883              	.LASF915:
 20884 30be 63616C6C 		.ascii	"callback_num\000"
 20884      6261636B 
 20884      5F6E756D 
 20884      00
 20885              	.LASF262:
 20886 30cb 74696D65 		.ascii	"time_at_comm\000"
 20886      5F61745F 
 20886      636F6D6D 
 20886      00
 20887              	.LASF414:
 20888 30d8 434F4D4D 		.ascii	"COMM_TERMINAL_CMD\000"
 20888      5F544552 
 20888      4D494E41 
 20888      4C5F434D 
 20888      4400
 20889              	.LASF300:
 20890 30ea 6C5F7761 		.ascii	"l_watt_min\000"
 20890      74745F6D 
 20890      696E00
 20891              	.LASF584:
 20892 30f5 6963756D 		.ascii	"icumode_t\000"
 20892      6F64655F 
 20892      7400
 20893              	.LASF1013:
 20894 30ff 6D635F69 		.ascii	"mc_interface_get_last_inj_adc_isr_duration\000"
 20894      6E746572 
 20894      66616365 
 20894      5F676574 
 20894      5F6C6173 
 20895              	.LASF1028:
 20896 312a 2F686F6D 		.ascii	"/home/patrick/vesc/bldc\000"
 20896      652F7061 
 20896      74726963 
 20896      6B2F7665 
 20896      73632F62 
 20897              	.LASF661:
 20898 3142 5553425F 		.ascii	"USB_EVENT_ADDRESS\000"
 20898      4556454E 
 20898      545F4144 
 20898      44524553 
 20898      5300
 20899              	.LASF779:
 20900 3154 6765745F 		.ascii	"get_descriptor_cb\000"
 20900      64657363 
 20900      72697074 
 20900      6F725F63 
 20900      6200
 20901              	.LASF286:
 20902 3166 6C5F6D61 		.ascii	"l_max_erpm_fbrake_cc\000"
 20902      785F6572 
 20902      706D5F66 
 20902      6272616B 
 20902      655F6363 
ARM GAS  /tmp/ccU5UnMV.s 			page 421


 20903              	.LASF852:
 20904 317b 5F6C6F63 		.ascii	"_locale\000"
 20904      616C6500 
 20905              	.LASF31:
 20906 3183 6576656E 		.ascii	"eventflags_t\000"
 20906      74666C61 
 20906      67735F74 
 20906      00
 20907              	.LASF616:
 20908 3190 5350495F 		.ascii	"SPI_READY\000"
 20908      52454144 
 20908      5900
 20909              	.LASF412:
 20910 319a 434F4D4D 		.ascii	"COMM_GET_APPCONF_DEFAULT\000"
 20910      5F474554 
 20910      5F415050 
 20910      434F4E46 
 20910      5F444546 
 20911              	.LASF748:
 20912 31b3 4649464F 		.ascii	"FIFO\000"
 20912      00
 20913              	.LASF939:
 20914 31b8 6379636C 		.ascii	"cycle_integrator\000"
 20914      655F696E 
 20914      74656772 
 20914      61746F72 
 20914      00
 20915              	.LASF985:
 20916 31c9 6D637077 		.ascii	"mcpwm_foc_encoder_detect\000"
 20916      6D5F666F 
 20916      635F656E 
 20916      636F6465 
 20916      725F6465 
 20917              	.LASF103:
 20918 31e2 73464946 		.ascii	"sFIFOMailBox\000"
 20918      4F4D6169 
 20918      6C426F78 
 20918      00
 20919              	.LASF983:
 20920 31ef 636F6D6D 		.ascii	"comm_can_get_status_msg_index\000"
 20920      5F63616E 
 20920      5F676574 
 20920      5F737461 
 20920      7475735F 
 20921              	.LASF945:
 20922 320d 696E7665 		.ascii	"inverted\000"
 20922      72746564 
 20922      00
 20923              	.LASF444:
 20924 3216 434F4D4D 		.ascii	"COMM_GET_VALUES_SELECTIVE\000"
 20924      5F474554 
 20924      5F56414C 
 20924      5545535F 
 20924      53454C45 
 20925              	.LASF991:
 20926 3230 6D635F69 		.ascii	"mc_interface_set_duty\000"
 20926      6E746572 
ARM GAS  /tmp/ccU5UnMV.s 			page 422


 20926      66616365 
 20926      5F736574 
 20926      5F647574 
 20927              	.LASF727:
 20928 3246 4443544C 		.ascii	"DCTL\000"
 20928      00
 20929              	.LASF754:
 20930 324b 74786275 		.ascii	"txbuf\000"
 20930      6600
 20931              	.LASF746:
 20932 3251 50434743 		.ascii	"PCGCCTL\000"
 20932      43544C00 
 20933              	.LASF664:
 20934 3259 5553425F 		.ascii	"USB_EVENT_WAKEUP\000"
 20934      4556454E 
 20934      545F5741 
 20934      4B455550 
 20934      00
 20935              	.LASF969:
 20936 326a 5F5F7365 		.ascii	"__set_BASEPRI\000"
 20936      745F4241 
 20936      53455052 
 20936      4900
 20937              	.LASF999:
 20938 3278 74696D65 		.ascii	"timeout_configure\000"
 20938      6F75745F 
 20938      636F6E66 
 20938      69677572 
 20938      6500
 20939              	.LASF279:
 20940 328a 6C5F696E 		.ascii	"l_in_current_max\000"
 20940      5F637572 
 20940      72656E74 
 20940      5F6D6178 
 20940      00
 20941              	.LASF40:
 20942 329b 705F6F6C 		.ascii	"p_older\000"
 20942      64657200 
 20943              	.LASF515:
 20944 32a3 50494461 		.ascii	"PIData\000"
 20944      746100
 20945              	.LASF776:
 20946 32aa 73657475 		.ascii	"setup_buf\000"
 20946      705F6275 
 20946      6600
 20947              	.LASF623:
 20948 32b4 7373706F 		.ascii	"ssport\000"
 20948      727400
 20949              	.LASF352:
 20950 32bb 666F635F 		.ascii	"foc_current_filter_const\000"
 20950      63757272 
 20950      656E745F 
 20950      66696C74 
 20950      65725F63 
 20951              	.LASF568:
 20952 32d4 4943555F 		.ascii	"ICU_UNINIT\000"
 20952      554E494E 
ARM GAS  /tmp/ccU5UnMV.s 			page 423


 20952      495400
 20953              	.LASF54:
 20954 32df 74687265 		.ascii	"thread_reference_t\000"
 20954      61645F72 
 20954      65666572 
 20954      656E6365 
 20954      5F7400
 20955              	.LASF368:
 20956 32f2 705F7069 		.ascii	"p_pid_ang_div\000"
 20956      645F616E 
 20956      675F6469 
 20956      7600
 20957              	.LASF226:
 20958 3300 4F55545F 		.ascii	"OUT_AUX_MODE_ON_AFTER_5S\000"
 20958      4155585F 
 20958      4D4F4445 
 20958      5F4F4E5F 
 20958      41465445 
 20959              	.LASF977:
 20960 3319 63685265 		.ascii	"chRegNextThread\000"
 20960      674E6578 
 20960      74546872 
 20960      65616400 
 20961              	.LASF345:
 20962 3329 666F635F 		.ascii	"foc_hall_table\000"
 20962      68616C6C 
 20962      5F746162 
 20962      6C6500
 20963              	.LASF629:
 20964 3338 72656365 		.ascii	"receiving\000"
 20964      6976696E 
 20964      6700
 20965              	.LASF232:
 20966 3342 4D4F544F 		.ascii	"MOTOR_TYPE_GPD\000"
 20966      525F5459 
 20966      50455F47 
 20966      504400
 20967              	.LASF1003:
 20968 3351 6D637077 		.ascii	"mcpwm_foc_set_openloop_duty\000"
 20968      6D5F666F 
 20968      635F7365 
 20968      745F6F70 
 20968      656E6C6F 
 20969              	.LASF866:
 20970 336d 5F5F4649 		.ascii	"__FILE\000"
 20970      4C4500
 20971              	.LASF590:
 20972 3374 66726571 		.ascii	"frequency\000"
 20972      75656E63 
 20972      7900
 20973              	.LASF341:
 20974 337e 666F635F 		.ascii	"foc_sl_openloop_time\000"
 20974      736C5F6F 
 20974      70656E6C 
 20974      6F6F705F 
 20974      74696D65 
 20975              	.LASF149:
ARM GAS  /tmp/ccU5UnMV.s 			page 424


 20976 3393 746D5F63 		.ascii	"tm_calibration_t\000"
 20976      616C6962 
 20976      72617469 
 20976      6F6E5F74 
 20976      00
 20977              	.LASF3:
 20978 33a4 5F5F696E 		.ascii	"__int8_t\000"
 20978      74385F74 
 20978      00
 20979              	.LASF306:
 20980 33ad 6C6F5F69 		.ascii	"lo_in_current_min\000"
 20980      6E5F6375 
 20980      7272656E 
 20980      745F6D69 
 20980      6E00
 20981              	.LASF773:
 20982 33bf 696E5F73 		.ascii	"in_state\000"
 20982      74617465 
 20982      00
 20983              	.LASF480:
 20984 33c8 72785F74 		.ascii	"rx_time\000"
 20984      696D6500 
 20985              	.LASF142:
 20986 33d0 47545052 		.ascii	"GTPR\000"
 20986      00
 20987              	.LASF437:
 20988 33d5 434F4D4D 		.ascii	"COMM_GPD_SET_MODE\000"
 20988      5F475044 
 20988      5F534554 
 20988      5F4D4F44 
 20988      4500
 20989              	.LASF166:
 20990 33e7 63685F7A 		.ascii	"ch_zero\000"
 20990      65726F00 
 20991              	.LASF297:
 20992 33ef 6C5F6D69 		.ascii	"l_min_duty\000"
 20992      6E5F6475 
 20992      747900
 20993              	.LASF551:
 20994 33fa 46415354 		.ascii	"FAST_DUTY_CYCLE_2\000"
 20994      5F445554 
 20994      595F4359 
 20994      434C455F 
 20994      3200
 20995              	.LASF171:
 20996 340c 63685F74 		.ascii	"ch_threadsize\000"
 20996      68726561 
 20996      6473697A 
 20996      6500
 20997              	.LASF122:
 20998 341a 464C5452 		.ascii	"FLTR\000"
 20998      00
 20999              	.LASF253:
 21000 341f 53454E53 		.ascii	"SENSOR_PORT_MODE_AD2S1205\000"
 21000      4F525F50 
 21000      4F52545F 
 21000      4D4F4445 
ARM GAS  /tmp/ccU5UnMV.s 			page 425


 21000      5F414432 
 21001              	.LASF255:
 21002 3439 73656E73 		.ascii	"sensor_port_mode\000"
 21002      6F725F70 
 21002      6F72745F 
 21002      6D6F6465 
 21002      00
 21003              	.LASF905:
 21004 344a 5F5F6664 		.ascii	"__fdlib_version\000"
 21004      6C69625F 
 21004      76657273 
 21004      696F6E00 
 21005              	.LASF132:
 21006 345a 43434D52 		.ascii	"CCMR1\000"
 21006      3100
 21007              	.LASF133:
 21008 3460 43434D52 		.ascii	"CCMR2\000"
 21008      3200
 21009              	.LASF579:
 21010 3466 43434D52 		.ascii	"CCMR3\000"
 21010      3300
 21011              	.LASF223:
 21012 346c 6D635F66 		.ascii	"mc_foc_sensor_mode\000"
 21012      6F635F73 
 21012      656E736F 
 21012      725F6D6F 
 21012      646500
 21013              	.LASF1:
 21014 347f 756E7369 		.ascii	"unsigned int\000"
 21014      676E6564 
 21014      20696E74 
 21014      00
 21015              	.LASF880:
 21016 348c 5F723438 		.ascii	"_r48\000"
 21016      00
 21017              	.LASF716:
 21018 3491 48464952 		.ascii	"HFIR\000"
 21018      00
 21019              	.LASF646:
 21020 3496 5553425F 		.ascii	"USB_UNINIT\000"
 21020      554E494E 
 21020      495400
 21021              	.LASF483:
 21022 34a1 73747265 		.ascii	"stream\000"
 21022      616D00
 21023              	.LASF549:
 21024 34a8 6932636F 		.ascii	"i2copmode_t\000"
 21024      706D6F64 
 21024      655F7400 
 21025              	.LASF972:
 21026 34b4 73747263 		.ascii	"strcmp\000"
 21026      6D7000
 21027              	.LASF1012:
 21028 34bb 6D637077 		.ascii	"mcpwm_get_last_adc_isr_duration\000"
 21028      6D5F6765 
 21028      745F6C61 
 21028      73745F61 
ARM GAS  /tmp/ccU5UnMV.s 			page 426


 21028      64635F69 
 21029              	.LASF461:
 21030 34db 434F4D4D 		.ascii	"COMM_BM_ERASE_FLASH_ALL\000"
 21030      5F424D5F 
 21030      45524153 
 21030      455F464C 
 21030      4153485F 
 21031              	.LASF872:
 21032 34f3 5F6D756C 		.ascii	"_mult\000"
 21032      7400
 21033              	.LASF7:
 21034 34f9 73686F72 		.ascii	"short int\000"
 21034      7420696E 
 21034      7400
 21035              	.LASF347:
 21036 3503 666F635F 		.ascii	"foc_sample_v0_v7\000"
 21036      73616D70 
 21036      6C655F76 
 21036      305F7637 
 21036      00
 21037              	.LASF670:
 21038 3514 75736263 		.ascii	"usbcallback_t\000"
 21038      616C6C62 
 21038      61636B5F 
 21038      7400
 21039              	.LASF786:
 21040 3522 6D637077 		.ascii	"mcpwm_detect_currents_diff\000"
 21040      6D5F6465 
 21040      74656374 
 21040      5F637572 
 21040      72656E74 
 21041              	.LASF699:
 21042 353d 47555342 		.ascii	"GUSBCFG\000"
 21042      43464700 
 21043              	.LASF143:
 21044 3545 55534152 		.ascii	"USART_TypeDef\000"
 21044      545F5479 
 21044      70654465 
 21044      6600
 21045              	.LASF208:
 21046 3553 6F757470 		.ascii	"output_queue_t\000"
 21046      75745F71 
 21046      75657565 
 21046      5F7400
 21047              	.LASF479:
 21048 3562 6661756C 		.ascii	"fault_data\000"
 21048      745F6461 
 21048      746100
 21049              	.LASF229:
 21050 356d 4D4F544F 		.ascii	"MOTOR_TYPE_BLDC\000"
 21050      525F5459 
 21050      50455F42 
 21050      4C444300 
 21051              	.LASF870:
 21052 357d 5F72616E 		.ascii	"_rand48\000"
 21052      64343800 
 21053              	.LASF749:
ARM GAS  /tmp/ccU5UnMV.s 			page 427


 21054 3585 73746D33 		.ascii	"stm32_otg_t\000"
 21054      325F6F74 
 21054      675F7400 
 21055              	.LASF556:
 21056 3591 64757479 		.ascii	"duty_cycle\000"
 21056      5F637963 
 21056      6C6500
 21057              	.LASF423:
 21058 359c 434F4D4D 		.ascii	"COMM_REBOOT\000"
 21058      5F524542 
 21058      4F4F5400 
 21059              	.LASF667:
 21060 35a8 75645F73 		.ascii	"ud_size\000"
 21060      697A6500 
 21061              	.LASF771:
 21062 35b0 696E5F6D 		.ascii	"in_maxsize\000"
 21062      61787369 
 21062      7A6500
 21063              	.LASF512:
 21064 35bb 50464461 		.ascii	"PFData\000"
 21064      746100
 21065              	.LASF913:
 21066 35c2 63616C6C 		.ascii	"callbacks\000"
 21066      6261636B 
 21066      7300
 21067              	.LASF42:
 21068 35cc 705F7374 		.ascii	"p_state\000"
 21068      61746500 
 21069              	.LASF988:
 21070 35d4 6D637077 		.ascii	"mcpwm_foc_measure_inductance\000"
 21070      6D5F666F 
 21070      635F6D65 
 21070      61737572 
 21070      655F696E 
 21071              	.LASF57:
 21072 35f1 63685F74 		.ascii	"ch_threads_list\000"
 21072      68726561 
 21072      64735F6C 
 21072      69737400 
 21073              	.LASF214:
 21074 3601 434F4D4D 		.ascii	"COMM_MODE_DELAY\000"
 21074      5F4D4F44 
 21074      455F4445 
 21074      4C415900 
 21075              	.LASF934:
 21076 3611 766F6C74 		.ascii	"voltage_samp\000"
 21076      6167655F 
 21076      73616D70 
 21076      00
 21077              	.LASF385:
 21078 361e 6D5F6F75 		.ascii	"m_out_aux_mode\000"
 21078      745F6175 
 21078      785F6D6F 
 21078      646500
 21079              	.LASF119:
 21080 362d 4F415231 		.ascii	"OAR1\000"
 21080      00
ARM GAS  /tmp/ccU5UnMV.s 			page 428


 21081              	.LASF120:
 21082 3632 4F415232 		.ascii	"OAR2\000"
 21082      00
 21083              	.LASF600:
 21084 3637 53445F52 		.ascii	"SD_READY\000"
 21084      45414459 
 21084      00
 21085              	.LASF376:
 21086 3640 6D5F656E 		.ascii	"m_encoder_counts\000"
 21086      636F6465 
 21086      725F636F 
 21086      756E7473 
 21086      00
 21087              		.ident	"GCC: (GNU Tools for Arm Embedded Processors 7-2018-q3-update) 7.3.1 20180622 (release) [AR
ARM GAS  /tmp/ccU5UnMV.s 			page 429


DEFINED SYMBOLS
                            *ABS*:0000000000000000 terminal.c
     /tmp/ccU5UnMV.s:20     .text.terminal_process_string:0000000000000000 $t
     /tmp/ccU5UnMV.s:28     .text.terminal_process_string:0000000000000000 terminal_process_string
     /tmp/ccU5UnMV.s:494    .text.terminal_process_string:00000000000002a0 $d
     /tmp/ccU5UnMV.s:541    .text.terminal_process_string:0000000000000350 $t
     /tmp/ccU5UnMV.s:1011   .text.terminal_process_string:0000000000000644 $d
     /tmp/ccU5UnMV.s:1062   .text.terminal_process_string:00000000000006fc $t
     /tmp/ccU5UnMV.s:1565   .text.terminal_process_string:0000000000000a00 $d
     /tmp/ccU5UnMV.s:1605   .text.terminal_process_string:0000000000000a90 $t
     /tmp/ccU5UnMV.s:2085   .text.terminal_process_string:0000000000000dbc $d
     /tmp/ccU5UnMV.s:2107   .text.terminal_process_string:0000000000000e08 $t
     /tmp/ccU5UnMV.s:2572   .text.terminal_process_string:000000000000110c $d
     /tmp/ccU5UnMV.s:2609   .text.terminal_process_string:0000000000001198 $t
     /tmp/ccU5UnMV.s:2950   .text.terminal_process_string:00000000000013d4 $d
     /tmp/ccU5UnMV.s:2986   .text.terminal_process_string:0000000000001450 $t
     /tmp/ccU5UnMV.s:3390   .text.terminal_process_string:0000000000001690 $d
     /tmp/ccU5UnMV.s:3477   .text.terminal_add_fault_data:0000000000000000 $t
     /tmp/ccU5UnMV.s:3485   .text.terminal_add_fault_data:0000000000000000 terminal_add_fault_data
     /tmp/ccU5UnMV.s:3538   .text.terminal_add_fault_data:000000000000003c $d
     /tmp/ccU5UnMV.s:3544   .text.terminal_register_command_callback:0000000000000000 $t
     /tmp/ccU5UnMV.s:3552   .text.terminal_register_command_callback:0000000000000000 terminal_register_command_callback
     /tmp/ccU5UnMV.s:3672   .text.terminal_register_command_callback:000000000000007c $d
     /tmp/ccU5UnMV.s:3678   .bss.callback_write:0000000000000000 $d
     /tmp/ccU5UnMV.s:3682   .bss.callback_write:0000000000000000 callback_write
     /tmp/ccU5UnMV.s:3685   .bss.callbacks:0000000000000000 $d
     /tmp/ccU5UnMV.s:3689   .bss.callbacks:0000000000000000 callbacks
     /tmp/ccU5UnMV.s:3692   .bss.fault_vec:0000000000000000 $d
     /tmp/ccU5UnMV.s:3696   .bss.fault_vec:0000000000000000 fault_vec
     /tmp/ccU5UnMV.s:3699   .bss.fault_vec_write:0000000000000000 $d
     /tmp/ccU5UnMV.s:3703   .bss.fault_vec_write:0000000000000000 fault_vec_write
     /tmp/ccU5UnMV.s:3706   .bss.mcconf.13222:0000000000000000 $d
     /tmp/ccU5UnMV.s:3710   .bss.mcconf.13222:0000000000000000 mcconf.13222
     /tmp/ccU5UnMV.s:3713   .bss.mcconf_old.13223:0000000000000000 $d
     /tmp/ccU5UnMV.s:3717   .bss.mcconf_old.13223:0000000000000000 mcconf_old.13223
     /tmp/ccU5UnMV.s:3720   .rodata.states.13227:0000000000000000 $d
     /tmp/ccU5UnMV.s:3724   .rodata.states.13227:0000000000000000 states.13227
     /tmp/ccU5UnMV.s:3742   .rodata.str1.4:0000000000000000 $d
     /tmp/ccU5UnMV.s:3787   .rodata.terminal_process_string.str1.4:0000000000000000 $d

UNDEFINED SYMBOLS
__aeabi_f2d
__aeabi_dmul
strtok
mc_interface_get_configuration
memcpy
strcmp
commands_printf
mcpwm_get_last_adc_isr_duration
mc_interface_get_last_inj_adc_isr_duration
mc_interface_get_last_sample_adc_isr_duration
mc_interface_set_duty
mcpwm_get_kv_filtered
mc_interface_get_fault
mc_interface_fault_to_string
chHeapStatus
chCoreGetStatusX
ARM GAS  /tmp/ccU5UnMV.s 			page 430


chRegFirstThread
chRegNextThread
ch
drv8301_faults_to_string
mc_interface_get_rpm
mc_interface_get_tachometer_value
sscanf
conf_general_detect_motor_param
ADC_Value
encoder_is_configured
mc_interface_set_configuration
mcpwm_foc_encoder_detect
mcpwm_foc_measure_resistance
mcpwm_foc_measure_inductance
comm_can_get_status_msg_index
mcpwm_get_rpm_dep
conf_general_measure_flux_linkage
timeout_get_timeout_msec
timeout_get_brake_current
timeout_reset
timeout_configure
chThdSleep
mcpwm_foc_get_vq
mc_interface_get_tot_current_directional
mc_interface_release_motor
mcpwm_foc_measure_res_ind
conf_general_measure_flux_linkage_openloop
mcpwm_foc_print_state
mcpwm_foc_set_openloop
mcpwm_foc_set_openloop_duty
commands_send_packet_nrf
conf_general_autodetect_apply_sensors_foc
mcpwm_foc_set_openloop_phase
conf_general_detect_apply_all_foc
conf_general_permanent_nrf_found
comm_can_ping
conf_general_detect_apply_all_foc_can
encoder_spi_get_val
encoder_spi_get_error_cnt
encoder_spi_get_error_rate
encoder_sincos_get_signal_below_min_error_cnt
encoder_sincos_get_signal_below_min_error_rate
encoder_sincos_get_signal_above_max_error_cnt
encoder_sincos_get_signal_above_max_error_rate
