ARM GAS  /tmp/cc35GiRr.s 			page 1


   1              		.cpu cortex-m4
   2              		.eabi_attribute 27, 1
   3              		.eabi_attribute 28, 1
   4              		.eabi_attribute 20, 1
   5              		.eabi_attribute 21, 1
   6              		.eabi_attribute 23, 3
   7              		.eabi_attribute 24, 1
   8              		.eabi_attribute 25, 1
   9              		.eabi_attribute 26, 1
  10              		.eabi_attribute 30, 2
  11              		.eabi_attribute 34, 1
  12              		.eabi_attribute 18, 4
  13              		.file	"timeout.c"
  14              		.text
  15              	.Ltext0:
  16              		.cfi_sections	.debug_frame
  17              		.section	.text.timeout_thread,"ax",%progbits
  18              		.align	1
  19              		.p2align 4,,15
  20              		.syntax unified
  21              		.thumb
  22              		.thumb_func
  23              		.fpu fpv4-sp-d16
  24              		.type	timeout_thread, %function
  25              	timeout_thread:
  26              	.LFB229:
  27              		.file 1 "timeout.c"
  28              		.loc 1 152 0
  29              		.cfi_startproc
  30              		@ args = 0, pretend = 0, frame = 0
  31              		@ frame_needed = 0, uses_anonymous_args = 0
  32              	.LVL0:
  33 0000 2DE9F84F 		push	{r3, r4, r5, r6, r7, r8, r9, r10, fp, lr}
  34              		.cfi_def_cfa_offset 40
  35              		.cfi_offset 3, -40
  36              		.cfi_offset 4, -36
  37              		.cfi_offset 5, -32
  38              		.cfi_offset 6, -28
  39              		.cfi_offset 7, -24
  40              		.cfi_offset 8, -20
  41              		.cfi_offset 9, -16
  42              		.cfi_offset 10, -12
  43              		.cfi_offset 11, -8
  44              		.cfi_offset 14, -4
  45              	.LBB49:
  46              	.LBB50:
  47              		.file 2 "ChibiOS_3.0.2/os/rt/include/chregistry.h"
  48              		.loc 2 135 0
  49 0004 224E     		ldr	r6, .L21
  50 0006 234A     		ldr	r2, .L21+4
  51 0008 B369     		ldr	r3, [r6, #24]
  52 000a 234C     		ldr	r4, .L21+8
  53 000c DFF89090 		ldr	r9, .L21+16
  54 0010 DFF890A0 		ldr	r10, .L21+20
  55 0014 214D     		ldr	r5, .L21+12
  56 0016 DFF890B0 		ldr	fp, .L21+24
  57              	.LBE50:
ARM GAS  /tmp/cc35GiRr.s 			page 2


  58              	.LBE49:
  59              	.LBB52:
  60              		.loc 1 158 0
  61 001a DFF89080 		ldr	r8, .L21+28
  62              	.LBE52:
  63              	.LBB60:
  64              	.LBB51:
  65              		.loc 2 135 0
  66 001e 9A61     		str	r2, [r3, #24]
  67              	.LBE51:
  68              	.LBE60:
  69              	.LBB61:
  70              		.loc 1 163 0
  71 0020 0027     		movs	r7, #0
  72              	.LVL1:
  73              	.L8:
  74              		.loc 1 158 0
  75 0022 2368     		ldr	r3, [r4]
  76 0024 7BB1     		cbz	r3, .L2
  77              		.loc 1 158 0 is_stmt 0 discriminator 1
  78 0026 D9F80000 		ldr	r0, [r9]
  79              	.LVL2:
  80              	.LBB53:
  81              	.LBB54:
  82              	.LBB55:
  83              	.LBB56:
  84              		.file 3 "ChibiOS_3.0.2/os/rt/include/chvt.h"
  85              		.loc 3 231 0 is_stmt 1 discriminator 1
  86 002a B16A     		ldr	r1, [r6, #40]
  87              	.LVL3:
  88              	.LBE56:
  89              	.LBE55:
  90              	.LBE54:
  91              	.LBE53:
  92              		.loc 1 158 0 discriminator 1
  93 002c 2368     		ldr	r3, [r4]
  94 002e 42F21072 		movw	r2, #10000
  95 0032 02FB03F3 		mul	r3, r2, r3
  96 0036 03F2E733 		addw	r3, r3, #999
  97              	.LBB58:
  98              	.LBB57:
  99              		.loc 3 267 0 discriminator 1
 100 003a 091A     		subs	r1, r1, r0
 101              	.LBE57:
 102              	.LBE58:
 103              		.loc 1 158 0 discriminator 1
 104 003c A8FB0323 		umull	r2, r3, r8, r3
 105 0040 B1EB931F 		cmp	r1, r3, lsr #6
 106 0044 18D8     		bhi	.L19
 107              	.L2:
 108              		.loc 1 163 0
 109 0046 2F70     		strb	r7, [r5]
 110              	.L3:
 111              	.LVL4:
 112              		.loc 1 171 0
 113 0048 DBF80030 		ldr	r3, [fp]
 114              	.LVL5:
ARM GAS  /tmp/cc35GiRr.s 			page 3


 115              		.loc 1 175 0
 116 004c DBF80410 		ldr	r1, [fp, #4]
 117 0050 11B1     		cbz	r1, .L4
 118              		.loc 1 171 0
 119 0052 191C     		adds	r1, r3, #0
 120 0054 18BF     		it	ne
 121 0056 0121     		movne	r1, #1
 122              	.L4:
 123              	.LVL6:
 124              		.loc 1 179 0
 125 0058 DBF80830 		ldr	r3, [fp, #8]
 126              		.loc 1 180 0
 127 005c 002B     		cmp	r3, #0
 128 005e 08BF     		it	eq
 129 0060 0021     		moveq	r1, #0
 130              	.LVL7:
 131              	.LBB59:
 132              		.loc 1 183 0
 133 0062 0023     		movs	r3, #0
 134              	.LVL8:
 135              	.L6:
 136              		.loc 1 184 0 discriminator 3
 137 0064 4BF82370 		str	r7, [fp, r3, lsl #2]
 138              		.loc 1 183 0 discriminator 3
 139 0068 0133     		adds	r3, r3, #1
 140              	.LVL9:
 141 006a 0A2B     		cmp	r3, #10
 142 006c FAD1     		bne	.L6
 143              	.LBE59:
 144              		.loc 1 187 0
 145 006e 61B9     		cbnz	r1, .L20
 146              	.LVL10:
 147              	.L7:
 148              		.loc 1 196 0
 149 0070 6420     		movs	r0, #100
 150 0072 FFF7FEFF 		bl	chThdSleep
 151              	.LVL11:
 152              	.LBE61:
 153              		.loc 1 157 0
 154 0076 D4E7     		b	.L8
 155              	.L19:
 156              	.LBB62:
 157              		.loc 1 159 0
 158 0078 FFF7FEFF 		bl	mc_interface_unlock
 159              	.LVL12:
 160              		.loc 1 160 0
 161 007c 9AED000A 		vldr.32	s0, [r10]
 162 0080 FFF7FEFF 		bl	mc_interface_set_brake_current
 163              	.LVL13:
 164              		.loc 1 161 0
 165 0084 0123     		movs	r3, #1
 166 0086 2B70     		strb	r3, [r5]
 167 0088 DEE7     		b	.L3
 168              	.LVL14:
 169              	.L20:
 170              		.loc 1 189 0
 171 008a FFF7FEFF 		bl	IWDG_ReloadCounter
ARM GAS  /tmp/cc35GiRr.s 			page 4


 172              	.LVL15:
 173 008e EFE7     		b	.L7
 174              	.L22:
 175              		.align	2
 176              	.L21:
 177 0090 00000000 		.word	ch
 178 0094 00000000 		.word	.LC0
 179 0098 00000000 		.word	.LANCHOR0
 180 009c 00000000 		.word	.LANCHOR3
 181 00a0 00000000 		.word	.LANCHOR1
 182 00a4 00000000 		.word	.LANCHOR2
 183 00a8 00000000 		.word	.LANCHOR4
 184 00ac D34D6210 		.word	274877907
 185              	.LBE62:
 186              		.cfi_endproc
 187              	.LFE229:
 188              		.size	timeout_thread, .-timeout_thread
 189              		.section	.text.timeout_init,"ax",%progbits
 190              		.align	1
 191              		.p2align 4,,15
 192              		.global	timeout_init
 193              		.syntax unified
 194              		.thumb
 195              		.thumb_func
 196              		.fpu fpv4-sp-d16
 197              		.type	timeout_init, %function
 198              	timeout_init:
 199              	.LFB219:
 200              		.loc 1 35 0
 201              		.cfi_startproc
 202              		@ args = 0, pretend = 0, frame = 0
 203              		@ frame_needed = 0, uses_anonymous_args = 0
 204 0000 30B5     		push	{r4, r5, lr}
 205              		.cfi_def_cfa_offset 12
 206              		.cfi_offset 4, -12
 207              		.cfi_offset 5, -8
 208              		.cfi_offset 14, -4
 209              		.loc 1 36 0
 210 0002 1448     		ldr	r0, .L25
 211              		.loc 1 38 0
 212 0004 144A     		ldr	r2, .L25+4
 213              		.loc 1 39 0
 214 0006 154B     		ldr	r3, .L25+8
 215              		.loc 1 37 0
 216 0008 154D     		ldr	r5, .L25+12
 217              		.loc 1 36 0
 218 000a 4FF47A74 		mov	r4, #1000
 219              		.loc 1 35 0
 220 000e 83B0     		sub	sp, sp, #12
 221              		.cfi_def_cfa_offset 24
 222              		.loc 1 38 0
 223 0010 0021     		movs	r1, #0
 224              		.loc 1 36 0
 225 0012 0460     		str	r4, [r0]
 226              		.loc 1 37 0
 227 0014 0024     		movs	r4, #0
 228              		.loc 1 41 0
ARM GAS  /tmp/cc35GiRr.s 			page 5


 229 0016 45F25550 		movw	r0, #21845
 230              		.loc 1 37 0
 231 001a 2C60     		str	r4, [r5]
 232              		.loc 1 38 0
 233 001c 1160     		str	r1, [r2]	@ float
 234              		.loc 1 39 0
 235 001e 1C70     		strb	r4, [r3]
 236              		.loc 1 41 0
 237 0020 FFF7FEFF 		bl	IWDG_WriteAccessCmd
 238              	.LVL16:
 239              		.loc 1 44 0
 240 0024 2046     		mov	r0, r4
 241 0026 FFF7FEFF 		bl	IWDG_SetPrescaler
 242              	.LVL17:
 243              		.loc 1 65 0
 244 002a 8C20     		movs	r0, #140
 245 002c FFF7FEFF 		bl	IWDG_SetReload
 246              	.LVL18:
 247              		.loc 1 67 0
 248 0030 FFF7FEFF 		bl	IWDG_ReloadCounter
 249              	.LVL19:
 250              		.loc 1 70 0
 251 0034 FFF7FEFF 		bl	IWDG_Enable
 252              	.LVL20:
 253              		.loc 1 72 0
 254 0038 6420     		movs	r0, #100
 255 003a FFF7FEFF 		bl	chThdSleep
 256              	.LVL21:
 257              		.loc 1 74 0
 258 003e 0094     		str	r4, [sp]
 259 0040 084B     		ldr	r3, .L25+16
 260 0042 0948     		ldr	r0, .L25+20
 261 0044 4022     		movs	r2, #64
 262 0046 4FF46671 		mov	r1, #920
 263 004a FFF7FEFF 		bl	chThdCreateStatic
 264              	.LVL22:
 265              		.loc 1 75 0
 266 004e 03B0     		add	sp, sp, #12
 267              		.cfi_def_cfa_offset 12
 268              		@ sp needed
 269 0050 30BD     		pop	{r4, r5, pc}
 270              	.L26:
 271 0052 00BF     		.align	2
 272              	.L25:
 273 0054 00000000 		.word	.LANCHOR0
 274 0058 00000000 		.word	.LANCHOR2
 275 005c 00000000 		.word	.LANCHOR3
 276 0060 00000000 		.word	.LANCHOR1
 277 0064 00000000 		.word	timeout_thread
 278 0068 00000000 		.word	.LANCHOR5
 279              		.cfi_endproc
 280              	.LFE219:
 281              		.size	timeout_init, .-timeout_init
 282              		.section	.text.timeout_configure,"ax",%progbits
 283              		.align	1
 284              		.p2align 4,,15
 285              		.global	timeout_configure
ARM GAS  /tmp/cc35GiRr.s 			page 6


 286              		.syntax unified
 287              		.thumb
 288              		.thumb_func
 289              		.fpu fpv4-sp-d16
 290              		.type	timeout_configure, %function
 291              	timeout_configure:
 292              	.LFB220:
 293              		.loc 1 77 0
 294              		.cfi_startproc
 295              		@ args = 0, pretend = 0, frame = 0
 296              		@ frame_needed = 0, uses_anonymous_args = 0
 297              		@ link register save eliminated.
 298              	.LVL23:
 299              		.loc 1 78 0
 300 0000 024A     		ldr	r2, .L28
 301              		.loc 1 79 0
 302 0002 034B     		ldr	r3, .L28+4
 303              		.loc 1 78 0
 304 0004 1060     		str	r0, [r2]
 305              		.loc 1 79 0
 306 0006 83ED000A 		vstr.32	s0, [r3]
 307              		.loc 1 80 0
 308 000a 7047     		bx	lr
 309              	.L29:
 310              		.align	2
 311              	.L28:
 312 000c 00000000 		.word	.LANCHOR0
 313 0010 00000000 		.word	.LANCHOR2
 314              		.cfi_endproc
 315              	.LFE220:
 316              		.size	timeout_configure, .-timeout_configure
 317              		.section	.text.timeout_reset,"ax",%progbits
 318              		.align	1
 319              		.p2align 4,,15
 320              		.global	timeout_reset
 321              		.syntax unified
 322              		.thumb
 323              		.thumb_func
 324              		.fpu fpv4-sp-d16
 325              		.type	timeout_reset, %function
 326              	timeout_reset:
 327              	.LFB221:
 328              		.loc 1 82 0
 329              		.cfi_startproc
 330              		@ args = 0, pretend = 0, frame = 0
 331              		@ frame_needed = 0, uses_anonymous_args = 0
 332              		@ link register save eliminated.
 333              	.LVL24:
 334              	.LBB63:
 335              	.LBB64:
 336              	.LBB65:
 337              	.LBB66:
 338              	.LBB67:
 339              	.LBB68:
 340              		.file 4 "ChibiOS_3.0.2/os/ext/CMSIS/include/core_cmFunc.h"
 341              		.loc 4 546 0
 342 0000 2023     		movs	r3, #32
ARM GAS  /tmp/cc35GiRr.s 			page 7


 343              		.syntax unified
 344              	@ 546 "ChibiOS_3.0.2/os/ext/CMSIS/include/core_cmFunc.h" 1
 345 0002 83F31188 		MSR basepri, r3
 346              	@ 0 "" 2
 347              	.LVL25:
 348              		.thumb
 349              		.syntax unified
 350              	.LBE68:
 351              	.LBE67:
 352              	.LBE66:
 353              	.LBE65:
 354              	.LBB69:
 355              	.LBB70:
 356              		.loc 3 231 0
 357 0006 044A     		ldr	r2, .L31
 358              	.LBE70:
 359              	.LBE69:
 360              	.LBB72:
 361              	.LBB73:
 362              	.LBB74:
 363              	.LBB75:
 364              	.LBB76:
 365              		.loc 4 546 0
 366 0008 0023     		movs	r3, #0
 367              	.LBE76:
 368              	.LBE75:
 369              	.LBE74:
 370              	.LBE73:
 371              	.LBE72:
 372              	.LBB81:
 373              	.LBB71:
 374              		.loc 3 231 0
 375 000a 926A     		ldr	r2, [r2, #40]
 376              	.LVL26:
 377              	.LBE71:
 378              	.LBE81:
 379              	.LBB82:
 380              	.LBB80:
 381              	.LBB79:
 382              	.LBB78:
 383              	.LBB77:
 384              		.loc 4 546 0
 385              		.syntax unified
 386              	@ 546 "ChibiOS_3.0.2/os/ext/CMSIS/include/core_cmFunc.h" 1
 387 000c 83F31188 		MSR basepri, r3
 388              	@ 0 "" 2
 389              	.LVL27:
 390              		.thumb
 391              		.syntax unified
 392              	.LBE77:
 393              	.LBE78:
 394              	.LBE79:
 395              	.LBE80:
 396              	.LBE82:
 397              	.LBE64:
 398              	.LBE63:
 399              		.loc 1 83 0
ARM GAS  /tmp/cc35GiRr.s 			page 8


 400 0010 024B     		ldr	r3, .L31+4
 401 0012 1A60     		str	r2, [r3]
 402              		.loc 1 84 0
 403 0014 7047     		bx	lr
 404              	.L32:
 405 0016 00BF     		.align	2
 406              	.L31:
 407 0018 00000000 		.word	ch
 408 001c 00000000 		.word	.LANCHOR1
 409              		.cfi_endproc
 410              	.LFE221:
 411              		.size	timeout_reset, .-timeout_reset
 412              		.section	.text.timeout_has_timeout,"ax",%progbits
 413              		.align	1
 414              		.p2align 4,,15
 415              		.global	timeout_has_timeout
 416              		.syntax unified
 417              		.thumb
 418              		.thumb_func
 419              		.fpu fpv4-sp-d16
 420              		.type	timeout_has_timeout, %function
 421              	timeout_has_timeout:
 422              	.LFB222:
 423              		.loc 1 86 0
 424              		.cfi_startproc
 425              		@ args = 0, pretend = 0, frame = 0
 426              		@ frame_needed = 0, uses_anonymous_args = 0
 427              		@ link register save eliminated.
 428              		.loc 1 87 0
 429 0000 014B     		ldr	r3, .L34
 430 0002 1878     		ldrb	r0, [r3]	@ zero_extendqisi2
 431              		.loc 1 88 0
 432 0004 7047     		bx	lr
 433              	.L35:
 434 0006 00BF     		.align	2
 435              	.L34:
 436 0008 00000000 		.word	.LANCHOR3
 437              		.cfi_endproc
 438              	.LFE222:
 439              		.size	timeout_has_timeout, .-timeout_has_timeout
 440              		.section	.text.timeout_get_timeout_msec,"ax",%progbits
 441              		.align	1
 442              		.p2align 4,,15
 443              		.global	timeout_get_timeout_msec
 444              		.syntax unified
 445              		.thumb
 446              		.thumb_func
 447              		.fpu fpv4-sp-d16
 448              		.type	timeout_get_timeout_msec, %function
 449              	timeout_get_timeout_msec:
 450              	.LFB223:
 451              		.loc 1 90 0
 452              		.cfi_startproc
 453              		@ args = 0, pretend = 0, frame = 0
 454              		@ frame_needed = 0, uses_anonymous_args = 0
 455              		@ link register save eliminated.
 456              		.loc 1 91 0
ARM GAS  /tmp/cc35GiRr.s 			page 9


 457 0000 014B     		ldr	r3, .L37
 458 0002 1868     		ldr	r0, [r3]
 459              		.loc 1 92 0
 460 0004 7047     		bx	lr
 461              	.L38:
 462 0006 00BF     		.align	2
 463              	.L37:
 464 0008 00000000 		.word	.LANCHOR0
 465              		.cfi_endproc
 466              	.LFE223:
 467              		.size	timeout_get_timeout_msec, .-timeout_get_timeout_msec
 468              		.section	.text.timeout_get_brake_current,"ax",%progbits
 469              		.align	1
 470              		.p2align 4,,15
 471              		.global	timeout_get_brake_current
 472              		.syntax unified
 473              		.thumb
 474              		.thumb_func
 475              		.fpu fpv4-sp-d16
 476              		.type	timeout_get_brake_current, %function
 477              	timeout_get_brake_current:
 478              	.LFB224:
 479              		.loc 1 94 0
 480              		.cfi_startproc
 481              		@ args = 0, pretend = 0, frame = 0
 482              		@ frame_needed = 0, uses_anonymous_args = 0
 483              		@ link register save eliminated.
 484              		.loc 1 95 0
 485 0000 014B     		ldr	r3, .L40
 486 0002 93ED000A 		vldr.32	s0, [r3]
 487              		.loc 1 96 0
 488 0006 7047     		bx	lr
 489              	.L41:
 490              		.align	2
 491              	.L40:
 492 0008 00000000 		.word	.LANCHOR2
 493              		.cfi_endproc
 494              	.LFE224:
 495              		.size	timeout_get_brake_current, .-timeout_get_brake_current
 496              		.section	.text.timeout_feed_WDT,"ax",%progbits
 497              		.align	1
 498              		.p2align 4,,15
 499              		.global	timeout_feed_WDT
 500              		.syntax unified
 501              		.thumb
 502              		.thumb_func
 503              		.fpu fpv4-sp-d16
 504              		.type	timeout_feed_WDT, %function
 505              	timeout_feed_WDT:
 506              	.LFB225:
 507              		.loc 1 98 0
 508              		.cfi_startproc
 509              		@ args = 0, pretend = 0, frame = 0
 510              		@ frame_needed = 0, uses_anonymous_args = 0
 511              		@ link register save eliminated.
 512              	.LVL28:
 513              		.loc 1 99 0
ARM GAS  /tmp/cc35GiRr.s 			page 10


 514 0000 034A     		ldr	r2, .L43
 515 0002 52F82030 		ldr	r3, [r2, r0, lsl #2]
 516 0006 0133     		adds	r3, r3, #1
 517 0008 42F82030 		str	r3, [r2, r0, lsl #2]
 518              		.loc 1 100 0
 519 000c 7047     		bx	lr
 520              	.L44:
 521 000e 00BF     		.align	2
 522              	.L43:
 523 0010 00000000 		.word	.LANCHOR4
 524              		.cfi_endproc
 525              	.LFE225:
 526              		.size	timeout_feed_WDT, .-timeout_feed_WDT
 527              		.section	.text.timeout_configure_IWDT_slowest,"ax",%progbits
 528              		.align	1
 529              		.p2align 4,,15
 530              		.global	timeout_configure_IWDT_slowest
 531              		.syntax unified
 532              		.thumb
 533              		.thumb_func
 534              		.fpu fpv4-sp-d16
 535              		.type	timeout_configure_IWDT_slowest, %function
 536              	timeout_configure_IWDT_slowest:
 537              	.LFB226:
 538              		.loc 1 102 0
 539              		.cfi_startproc
 540              		@ args = 0, pretend = 0, frame = 0
 541              		@ frame_needed = 0, uses_anonymous_args = 0
 542 0000 10B5     		push	{r4, lr}
 543              		.cfi_def_cfa_offset 8
 544              		.cfi_offset 4, -8
 545              		.cfi_offset 14, -4
 546              		.loc 1 103 0
 547 0002 104C     		ldr	r4, .L51
 548 0004 01E0     		b	.L46
 549              	.L47:
 550              		.loc 1 105 0
 551 0006 FFF7FEFF 		bl	IWDG_ReloadCounter
 552              	.LVL29:
 553              	.L46:
 554              		.loc 1 103 0
 555 000a E368     		ldr	r3, [r4, #12]
 556 000c 9807     		lsls	r0, r3, #30
 557 000e FAD4     		bmi	.L47
 558              		.loc 1 103 0 is_stmt 0 discriminator 1
 559 0010 E368     		ldr	r3, [r4, #12]
 560 0012 D907     		lsls	r1, r3, #31
 561 0014 F7D4     		bmi	.L47
 562              		.loc 1 109 0 is_stmt 1
 563 0016 45F25550 		movw	r0, #21845
 564 001a FFF7FEFF 		bl	IWDG_WriteAccessCmd
 565              	.LVL30:
 566              		.loc 1 111 0
 567 001e 4FF47A60 		mov	r0, #4000
 568 0022 FFF7FEFF 		bl	IWDG_SetReload
 569              	.LVL31:
 570              		.loc 1 112 0
ARM GAS  /tmp/cc35GiRr.s 			page 11


 571 0026 0620     		movs	r0, #6
 572 0028 FFF7FEFF 		bl	IWDG_SetPrescaler
 573              	.LVL32:
 574              		.loc 1 115 0
 575 002c 054C     		ldr	r4, .L51
 576 002e 01E0     		b	.L48
 577              	.L49:
 578              		.loc 1 117 0
 579 0030 FFF7FEFF 		bl	IWDG_ReloadCounter
 580              	.LVL33:
 581              	.L48:
 582              		.loc 1 115 0
 583 0034 E368     		ldr	r3, [r4, #12]
 584 0036 9A07     		lsls	r2, r3, #30
 585 0038 FAD4     		bmi	.L49
 586              		.loc 1 115 0 is_stmt 0 discriminator 1
 587 003a E368     		ldr	r3, [r4, #12]
 588 003c DB07     		lsls	r3, r3, #31
 589 003e F7D4     		bmi	.L49
 590              		.loc 1 119 0 is_stmt 1
 591 0040 10BD     		pop	{r4, pc}
 592              	.L52:
 593 0042 00BF     		.align	2
 594              	.L51:
 595 0044 00300040 		.word	1073754112
 596              		.cfi_endproc
 597              	.LFE226:
 598              		.size	timeout_configure_IWDT_slowest, .-timeout_configure_IWDT_slowest
 599              		.section	.text.timeout_configure_IWDT,"ax",%progbits
 600              		.align	1
 601              		.p2align 4,,15
 602              		.global	timeout_configure_IWDT
 603              		.syntax unified
 604              		.thumb
 605              		.thumb_func
 606              		.fpu fpv4-sp-d16
 607              		.type	timeout_configure_IWDT, %function
 608              	timeout_configure_IWDT:
 609              	.LFB227:
 610              		.loc 1 121 0
 611              		.cfi_startproc
 612              		@ args = 0, pretend = 0, frame = 0
 613              		@ frame_needed = 0, uses_anonymous_args = 0
 614 0000 38B5     		push	{r3, r4, r5, lr}
 615              		.cfi_def_cfa_offset 16
 616              		.cfi_offset 3, -16
 617              		.cfi_offset 4, -12
 618              		.cfi_offset 5, -8
 619              		.cfi_offset 14, -4
 620              		.loc 1 122 0
 621 0002 104D     		ldr	r5, .L59
 622 0004 01E0     		b	.L54
 623              	.L55:
 624              		.loc 1 124 0
 625 0006 FFF7FEFF 		bl	IWDG_ReloadCounter
 626              	.LVL34:
 627              	.L54:
ARM GAS  /tmp/cc35GiRr.s 			page 12


 628              		.loc 1 122 0
 629 000a EB68     		ldr	r3, [r5, #12]
 630 000c 9907     		lsls	r1, r3, #30
 631 000e FAD4     		bmi	.L55
 632              		.loc 1 122 0 is_stmt 0 discriminator 1
 633 0010 EC68     		ldr	r4, [r5, #12]
 634 0012 14F00104 		ands	r4, r4, #1
 635 0016 F6D1     		bne	.L55
 636              		.loc 1 128 0 is_stmt 1
 637 0018 45F25550 		movw	r0, #21845
 638 001c FFF7FEFF 		bl	IWDG_WriteAccessCmd
 639              	.LVL35:
 640              		.loc 1 130 0
 641 0020 8C20     		movs	r0, #140
 642 0022 FFF7FEFF 		bl	IWDG_SetReload
 643              	.LVL36:
 644              		.loc 1 131 0
 645 0026 2046     		mov	r0, r4
 646 0028 FFF7FEFF 		bl	IWDG_SetPrescaler
 647              	.LVL37:
 648              		.loc 1 134 0
 649 002c 054C     		ldr	r4, .L59
 650 002e 01E0     		b	.L56
 651              	.L57:
 652              		.loc 1 136 0
 653 0030 FFF7FEFF 		bl	IWDG_ReloadCounter
 654              	.LVL38:
 655              	.L56:
 656              		.loc 1 134 0
 657 0034 E368     		ldr	r3, [r4, #12]
 658 0036 9A07     		lsls	r2, r3, #30
 659 0038 FAD4     		bmi	.L57
 660              		.loc 1 134 0 is_stmt 0 discriminator 1
 661 003a E368     		ldr	r3, [r4, #12]
 662 003c DB07     		lsls	r3, r3, #31
 663 003e F7D4     		bmi	.L57
 664              		.loc 1 138 0 is_stmt 1
 665 0040 38BD     		pop	{r3, r4, r5, pc}
 666              	.L60:
 667 0042 00BF     		.align	2
 668              	.L59:
 669 0044 00300040 		.word	1073754112
 670              		.cfi_endproc
 671              	.LFE227:
 672              		.size	timeout_configure_IWDT, .-timeout_configure_IWDT
 673              		.section	.text.timeout_had_IWDG_reset,"ax",%progbits
 674              		.align	1
 675              		.p2align 4,,15
 676              		.global	timeout_had_IWDG_reset
 677              		.syntax unified
 678              		.thumb
 679              		.thumb_func
 680              		.fpu fpv4-sp-d16
 681              		.type	timeout_had_IWDG_reset, %function
 682              	timeout_had_IWDG_reset:
 683              	.LFB228:
 684              		.loc 1 140 0
ARM GAS  /tmp/cc35GiRr.s 			page 13


 685              		.cfi_startproc
 686              		@ args = 0, pretend = 0, frame = 0
 687              		@ frame_needed = 0, uses_anonymous_args = 0
 688 0000 08B5     		push	{r3, lr}
 689              		.cfi_def_cfa_offset 8
 690              		.cfi_offset 3, -8
 691              		.cfi_offset 14, -4
 692              		.loc 1 142 0
 693 0002 7D20     		movs	r0, #125
 694 0004 FFF7FEFF 		bl	RCC_GetFlagStatus
 695              	.LVL39:
 696 0008 00B9     		cbnz	r0, .L65
 697              		.loc 1 150 0
 698 000a 08BD     		pop	{r3, pc}
 699              	.L65:
 700              		.loc 1 145 0
 701 000c FFF7FEFF 		bl	RCC_ClearFlag
 702              	.LVL40:
 703              		.loc 1 146 0
 704 0010 0120     		movs	r0, #1
 705              		.loc 1 150 0
 706 0012 08BD     		pop	{r3, pc}
 707              		.cfi_endproc
 708              	.LFE228:
 709              		.size	timeout_had_IWDG_reset, .-timeout_had_IWDG_reset
 710              		.section	.bss.feed_counter,"aw",%nobits
 711              		.align	2
 712              		.set	.LANCHOR4,. + 0
 713              		.type	feed_counter, %object
 714              		.size	feed_counter, 40
 715              	feed_counter:
 716 0000 00000000 		.space	40
 716      00000000 
 716      00000000 
 716      00000000 
 716      00000000 
 717              		.section	.bss.has_timeout,"aw",%nobits
 718              		.set	.LANCHOR3,. + 0
 719              		.type	has_timeout, %object
 720              		.size	has_timeout, 1
 721              	has_timeout:
 722 0000 00       		.space	1
 723              		.section	.bss.last_update_time,"aw",%nobits
 724              		.align	2
 725              		.set	.LANCHOR1,. + 0
 726              		.type	last_update_time, %object
 727              		.size	last_update_time, 4
 728              	last_update_time:
 729 0000 00000000 		.space	4
 730              		.section	.bss.timeout_brake_current,"aw",%nobits
 731              		.align	2
 732              		.set	.LANCHOR2,. + 0
 733              		.type	timeout_brake_current, %object
 734              		.size	timeout_brake_current, 4
 735              	timeout_brake_current:
 736 0000 00000000 		.space	4
 737              		.section	.bss.timeout_msec,"aw",%nobits
ARM GAS  /tmp/cc35GiRr.s 			page 14


 738              		.align	2
 739              		.set	.LANCHOR0,. + 0
 740              		.type	timeout_msec, %object
 741              		.size	timeout_msec, 4
 742              	timeout_msec:
 743 0000 00000000 		.space	4
 744              		.section	.bss.timeout_thread_wa,"aw",%nobits
 745              		.align	3
 746              		.set	.LANCHOR5,. + 0
 747              		.type	timeout_thread_wa, %object
 748              		.size	timeout_thread_wa, 920
 749              	timeout_thread_wa:
 750 0000 00000000 		.space	920
 750      00000000 
 750      00000000 
 750      00000000 
 750      00000000 
 751              		.section	.rodata.timeout_thread.str1.4,"aMS",%progbits,1
 752              		.align	2
 753              	.LC0:
 754 0000 54696D65 		.ascii	"Timeout\000"
 754      6F757400 
 755              		.text
 756              	.Letext0:
 757              		.file 5 "/usr/lib/gcc/arm-none-eabi/7.3.1/include/stddef.h"
 758              		.file 6 "/usr/arm-none-eabi/include/machine/_default_types.h"
 759              		.file 7 "/usr/arm-none-eabi/include/sys/_stdint.h"
 760              		.file 8 "ChibiOS_3.0.2/os/rt/ports/ARMCMx/compilers/GCC/chtypes.h"
 761              		.file 9 "ChibiOS_3.0.2/os/rt/include/chsystypes.h"
 762              		.file 10 "ChibiOS_3.0.2/os/rt/include/chschd.h"
 763              		.file 11 "ChibiOS_3.0.2/os/ext/CMSIS/include/core_cm4.h"
 764              		.file 12 "ChibiOS_3.0.2/os/ext/CMSIS/ST/system_stm32f4xx.h"
 765              		.file 13 "ChibiOS_3.0.2/os/ext/CMSIS/ST/stm32f407xx.h"
 766              		.file 14 "ChibiOS_3.0.2/os/rt/ports/ARMCMx/chcore.h"
 767              		.file 15 "ChibiOS_3.0.2/os/rt/ports/ARMCMx/chcore_v7m.h"
 768              		.file 16 "ChibiOS_3.0.2/os/rt/include/chtm.h"
 769              		.file 17 "ChibiOS_3.0.2/os/rt/include/chsem.h"
 770              		.file 18 "ChibiOS_3.0.2/os/rt/include/chmtx.h"
 771              		.file 19 "ChibiOS_3.0.2/os/ext/CMSIS/ST/stm32f4xx.h"
 772              		.file 20 "timeout.h"
 773              		.file 21 "conf_general.h"
 774              		.file 22 "mc_interface.h"
 775              		.file 23 "ChibiOS_3.0.2/os/rt/include/chsys.h"
 776              		.file 24 "ChibiOS_3.0.2/os/rt/include/chthreads.h"
 777              		.file 25 "ChibiOS_3.0.2/ext/stdperiph_stm32f4/inc/stm32f4xx_iwdg.h"
 778              		.file 26 "ChibiOS_3.0.2/ext/stdperiph_stm32f4/inc/stm32f4xx_rcc.h"