ARM GAS  /tmp/ccH4KobB.s 			page 1


   1              		.cpu cortex-m4
   2              		.eabi_attribute 27, 1
   3              		.eabi_attribute 28, 1
   4              		.eabi_attribute 20, 1
   5              		.eabi_attribute 21, 1
   6              		.eabi_attribute 23, 3
   7              		.eabi_attribute 24, 1
   8              		.eabi_attribute 25, 1
   9              		.eabi_attribute 26, 1
  10              		.eabi_attribute 30, 2
  11              		.eabi_attribute 34, 1
  12              		.eabi_attribute 18, 4
  13              		.file	"usb_lld.c"
  14              		.text
  15              	.Ltext0:
  16              		.cfi_sections	.debug_frame
  17              		.section	.text.usb_lld_pump,"ax",%progbits
  18              		.align	1
  19              		.p2align 4,,15
  20              		.global	usb_lld_pump
  21              		.syntax unified
  22              		.thumb
  23              		.thumb_func
  24              		.fpu fpv4-sp-d16
  25              		.type	usb_lld_pump, %function
  26              	usb_lld_pump:
  27              	.LFB292:
  28              		.file 1 "ChibiOS_3.0.2/os/hal/ports/STM32/LLD/OTGv1/usb_lld.c"
  29              		.loc 1 1294 0
  30              		.cfi_startproc
  31              		@ args = 0, pretend = 0, frame = 24
  32              		@ frame_needed = 0, uses_anonymous_args = 0
  33              	.LVL0:
  34 0000 2DE9F04F 		push	{r4, r5, r6, r7, r8, r9, r10, fp, lr}
  35              		.cfi_def_cfa_offset 36
  36              		.cfi_offset 4, -36
  37              		.cfi_offset 5, -32
  38              		.cfi_offset 6, -28
  39              		.cfi_offset 7, -24
  40              		.cfi_offset 8, -20
  41              		.cfi_offset 9, -16
  42              		.cfi_offset 10, -12
  43              		.cfi_offset 11, -8
  44              		.cfi_offset 14, -4
  45              	.LBB422:
  46              	.LBB423:
  47              		.file 2 "ChibiOS_3.0.2/os/rt/include/chregistry.h"
  48              		.loc 2 135 0
  49 0004 B84B     		ldr	r3, .L115
  50 0006 B949     		ldr	r1, .L115+4
  51 0008 9A69     		ldr	r2, [r3, #24]
  52              	.LVL1:
  53              	.LBE423:
  54              	.LBE422:
  55              		.loc 1 1296 0
  56 000a 056D     		ldr	r5, [r0, #80]
  57              	.LVL2:
ARM GAS  /tmp/ccH4KobB.s 			page 2


  58              	.LBB425:
  59              	.LBB424:
  60              		.loc 2 135 0
  61 000c 9161     		str	r1, [r2, #24]
  62              	.LVL3:
  63              	.LBE424:
  64              	.LBE425:
  65              		.loc 1 1294 0
  66 000e 87B0     		sub	sp, sp, #28
  67              		.cfi_def_cfa_offset 64
  68              	.LBB426:
  69              	.LBB427:
  70              	.LBB428:
  71              	.LBB429:
  72              	.LBB430:
  73              		.file 3 "ChibiOS_3.0.2/os/ext/CMSIS/include/core_cmFunc.h"
  74              		.loc 3 546 0
  75 0010 2023     		movs	r3, #32
  76              		.syntax unified
  77              	@ 546 "ChibiOS_3.0.2/os/ext/CMSIS/include/core_cmFunc.h" 1
  78 0012 83F31188 		MSR basepri, r3
  79              	@ 0 "" 2
  80              	.LVL4:
  81              		.thumb
  82              		.syntax unified
  83              	.LBE430:
  84              	.LBE429:
  85              	.LBE428:
  86              	.LBE427:
  87              	.LBE426:
  88              	.LBB431:
  89              	.LBB432:
  90              	.LBB433:
  91              	.LBB434:
  92              	.LBB435:
  93              	.LBB436:
  94              	.LBB437:
  95              	.LBB438:
  96              	.LBB439:
  97              	.LBB440:
  98 0016 0093     		str	r3, [sp]
  99 0018 00F16003 		add	r3, r0, #96
 100 001c A946     		mov	r9, r5
 101 001e 0593     		str	r3, [sp, #20]
 102 0020 0546     		mov	r5, r0
 103              	.LVL5:
 104              	.L51:
 105              	.LBE440:
 106              	.LBE439:
 107              	.LBE438:
 108              	.LBE437:
 109              	.LBE436:
 110              	.LBE435:
 111              	.LBE434:
 112              	.LBE433:
 113              	.LBE432:
 114              		.loc 1 1307 0
ARM GAS  /tmp/ccH4KobB.s 			page 3


 115 0022 2B78     		ldrb	r3, [r5]	@ zero_extendqisi2
 116 0024 012B     		cmp	r3, #1
 117 0026 05D0     		beq	.L2
 118              		.loc 1 1307 0 is_stmt 0 discriminator 1
 119 0028 EB6D     		ldr	r3, [r5, #92]
 120 002a 63B9     		cbnz	r3, .L3
 121              		.loc 1 1308 0 is_stmt 1
 122 002c D9F81430 		ldr	r3, [r9, #20]
 123 0030 DB06     		lsls	r3, r3, #27
 124 0032 08D4     		bmi	.L3
 125              	.L2:
 126              		.loc 1 1309 0
 127 0034 D9F81830 		ldr	r3, [r9, #24]
 128              	.LBB477:
 129              	.LBB478:
 130              		.file 4 "ChibiOS_3.0.2/os/hal/osal/rt/osal.h"
 131              		.loc 4 688 0
 132 0038 0598     		ldr	r0, [sp, #20]
 133              	.LBE478:
 134              	.LBE477:
 135              		.loc 1 1309 0
 136 003a 43F01003 		orr	r3, r3, #16
 137 003e C9F81830 		str	r3, [r9, #24]
 138              	.LBB480:
 139              	.LBB479:
 140              		.loc 4 688 0
 141 0042 FFF7FEFF 		bl	chThdSuspendS
 142              	.LVL6:
 143              	.L3:
 144              	.LBE479:
 145              	.LBE480:
 146              	.LBB481:
 147              	.LBB482:
 148              	.LBB483:
 149              	.LBB484:
 150              	.LBB485:
 151              	.LBB486:
 152              		.loc 3 546 0
 153 0046 0023     		movs	r3, #0
 154              		.syntax unified
 155              	@ 546 "ChibiOS_3.0.2/os/ext/CMSIS/include/core_cmFunc.h" 1
 156 0048 83F31188 		MSR basepri, r3
 157              	@ 0 "" 2
 158              	.LVL7:
 159              		.thumb
 160              		.syntax unified
 161              	.LBE486:
 162              	.LBE485:
 163              	.LBE484:
 164              	.LBE483:
 165              	.LBE482:
 166              	.LBE481:
 167              		.loc 1 1315 0
 168 004c 9A46     		mov	r10, r3
 169              	.LVL8:
 170              	.L5:
 171              		.loc 1 1318 0
ARM GAS  /tmp/ccH4KobB.s 			page 4


 172 004e D9F81430 		ldr	r3, [r9, #20]
 173 0052 13F01003 		ands	r3, r3, #16
 174 0056 58D0     		beq	.L108
 175              	.L25:
 176              	.LVL9:
 177              	.LBB487:
 178              	.LBB473:
 179              		.loc 1 437 0
 180 0058 2A6D     		ldr	r2, [r5, #80]
 181 005a 136A     		ldr	r3, [r2, #32]
 182              	.LVL10:
 183              		.loc 1 438 0
 184 005c 03F4F011 		and	r1, r3, #1966080
 185 0060 B1F5802F 		cmp	r1, #262144
 186 0064 24D0     		beq	.L6
 187 0066 B1F5402F 		cmp	r1, #786432
 188 006a F0D1     		bne	.L5
 189              	.LVL11:
 190              		.loc 1 443 0
 191 006c 03F00F01 		and	r1, r3, #15
 192              	.LVL12:
 193              		.loc 1 444 0
 194 0070 05EB8101 		add	r1, r5, r1, lsl #2
 195              	.LVL13:
 196              		.loc 1 442 0
 197 0074 C3F30A13 		ubfx	r3, r3, #4, #11
 198              	.LVL14:
 199              		.loc 1 444 0
 200 0078 C968     		ldr	r1, [r1, #12]
 201              	.LBB459:
 202              	.LBB460:
 203              		.loc 1 356 0
 204 007a 0333     		adds	r3, r3, #3
 205              		.loc 1 358 0
 206 007c 9B08     		lsrs	r3, r3, #2
 207              	.LBE460:
 208              	.LBE459:
 209              		.loc 1 444 0
 210 007e 0C6A     		ldr	r4, [r1, #32]
 211              	.LVL15:
 212              	.LBB465:
 213              	.LBB464:
 214              		.loc 1 358 0
 215 0080 E5D0     		beq	.L5
 216 0082 02F58052 		add	r2, r2, #4096
 217              	.LVL16:
 218              		.loc 1 357 0
 219 0086 0221     		movs	r1, #2
 220              	.LVL17:
 221              	.LBB461:
 222              		.loc 1 359 0
 223 0088 1668     		ldr	r6, [r2]
 224              	.LVL18:
 225 008a 581E     		subs	r0, r3, #1
 226              		.loc 1 360 0
 227 008c 49B1     		cbz	r1, .L109
 228              	.L10:
ARM GAS  /tmp/ccH4KobB.s 			page 5


 229              		.loc 1 365 0
 230 008e 0346     		mov	r3, r0
 231              		.loc 1 363 0
 232 0090 44F8046B 		str	r6, [r4], #4
 233              	.LVL19:
 234              		.loc 1 365 0
 235 0094 0139     		subs	r1, r1, #1
 236              	.LVL20:
 237              	.LBE461:
 238              		.loc 1 358 0
 239 0096 002B     		cmp	r3, #0
 240 0098 D9D0     		beq	.L5
 241              	.LVL21:
 242              	.L107:
 243              	.LBB462:
 244              		.loc 1 359 0
 245 009a 1668     		ldr	r6, [r2]
 246              	.LVL22:
 247 009c 581E     		subs	r0, r3, #1
 248              		.loc 1 360 0
 249 009e 0029     		cmp	r1, #0
 250 00a0 F5D1     		bne	.L10
 251              	.L109:
 252              	.LVL23:
 253              	.LBE462:
 254              		.loc 1 358 0
 255 00a2 0028     		cmp	r0, #0
 256 00a4 D3D0     		beq	.L5
 257 00a6 023B     		subs	r3, r3, #2
 258              	.LBB463:
 259              		.loc 1 359 0
 260 00a8 1068     		ldr	r0, [r2]
 261              	.LVL24:
 262              	.LBE463:
 263              		.loc 1 358 0
 264 00aa 002B     		cmp	r3, #0
 265 00ac F5D1     		bne	.L107
 266 00ae CEE7     		b	.L5
 267              	.LVL25:
 268              	.L6:
 269              	.LBE464:
 270              	.LBE465:
 271              		.loc 1 449 0
 272 00b0 03F00F06 		and	r6, r3, #15
 273 00b4 05EB8606 		add	r6, r5, r6, lsl #2
 274              		.loc 1 448 0
 275 00b8 C3F30A14 		ubfx	r4, r3, #4, #11
 276              	.LVL26:
 277              		.loc 1 450 0
 278 00bc F368     		ldr	r3, [r6, #12]
 279              	.LVL27:
 280 00be 9F69     		ldr	r7, [r3, #24]
 281 00c0 3B78     		ldrb	r3, [r7]	@ zero_extendqisi2
 282 00c2 F868     		ldr	r0, [r7, #12]
 283 00c4 002B     		cmp	r3, #0
 284 00c6 3BD1     		bne	.L110
 285              		.loc 1 461 0
ARM GAS  /tmp/ccH4KobB.s 			page 6


 286 00c8 D7E9011C 		ldrd	r1, ip, [r7, #4]
 287              	.LVL28:
 288              	.LBB466:
 289              	.LBB467:
 290              		.loc 1 357 0
 291 00cc CE1C     		adds	r6, r1, #3
 292              		.loc 1 356 0
 293 00ce E11C     		adds	r1, r4, #3
 294              	.LVL29:
 295              		.loc 1 357 0
 296 00d0 A6EB0C06 		sub	r6, r6, ip
 297              		.loc 1 358 0
 298 00d4 8908     		lsrs	r1, r1, #2
 299              		.loc 1 357 0
 300 00d6 4FEA9606 		lsr	r6, r6, #2
 301              	.LVL30:
 302              		.loc 1 358 0
 303 00da 0DD0     		beq	.L21
 304 00dc 02F58052 		add	r2, r2, #4096
 305              	.LVL31:
 306 00e0 8646     		mov	lr, r0
 307 00e2 9046     		mov	r8, r2
 308              	.LVL32:
 309              	.L24:
 310              	.LBB468:
 311              		.loc 1 359 0
 312 00e4 D8F80020 		ldr	r2, [r8]
 313              	.LVL33:
 314 00e8 4B1E     		subs	r3, r1, #1
 315              		.loc 1 360 0
 316 00ea 0EB3     		cbz	r6, .L111
 317              		.loc 1 365 0
 318 00ec 1946     		mov	r1, r3
 319              	.LVL34:
 320              		.loc 1 363 0
 321 00ee 4EF8042B 		str	r2, [lr], #4
 322              	.LVL35:
 323              		.loc 1 365 0
 324 00f2 013E     		subs	r6, r6, #1
 325              	.LVL36:
 326              	.LBE468:
 327              		.loc 1 358 0
 328 00f4 0029     		cmp	r1, #0
 329 00f6 F5D1     		bne	.L24
 330              	.LVL37:
 331              	.L21:
 332              	.LBE467:
 333              	.LBE466:
 334              		.loc 1 462 0
 335 00f8 2044     		add	r0, r0, r4
 336 00fa F860     		str	r0, [r7, #12]
 337              	.L20:
 338              	.LBE473:
 339              	.LBE487:
 340              		.loc 1 1318 0
 341 00fc D9F81430 		ldr	r3, [r9, #20]
 342              	.LBB488:
ARM GAS  /tmp/ccH4KobB.s 			page 7


 343              	.LBB474:
 344              		.loc 1 464 0
 345 0100 6444     		add	r4, r4, ip
 346              	.LVL38:
 347              	.LBE474:
 348              	.LBE488:
 349              		.loc 1 1318 0
 350 0102 13F01003 		ands	r3, r3, #16
 351              	.LBB489:
 352              	.LBB475:
 353              		.loc 1 464 0
 354 0106 BC60     		str	r4, [r7, #8]
 355              	.LBE475:
 356              	.LBE489:
 357              		.loc 1 1318 0
 358 0108 A6D1     		bne	.L25
 359              	.LVL39:
 360              	.L108:
 361              		.loc 1 1322 0
 362 010a 0126     		movs	r6, #1
 363              		.loc 1 1323 0
 364 010c EA6D     		ldr	r2, [r5, #92]
 365              		.loc 1 1322 0
 366 010e 06FA0AF6 		lsl	r6, r6, r10
 367              	.LVL40:
 368              		.loc 1 1323 0
 369 0112 1642     		tst	r6, r2
 370 0114 50D1     		bne	.L100
 371 0116 0AF10103 		add	r3, r10, #1
 372 011a 0293     		str	r3, [sp, #8]
 373              	.LVL41:
 374              	.L26:
 375              		.loc 1 1315 0 discriminator 2
 376 011c 6B6D     		ldr	r3, [r5, #84]
 377 011e 9DF808A0 		ldrb	r10, [sp, #8]	@ zero_extendqisi2
 378              	.LVL42:
 379 0122 9B68     		ldr	r3, [r3, #8]
 380 0124 9A45     		cmp	r10, r3
 381 0126 92D9     		bls	.L5
 382              	.LVL43:
 383              	.LBB490:
 384              	.LBB491:
 385              	.LBB492:
 386              	.LBB493:
 387              	.LBB494:
 388              		.loc 3 546 0
 389 0128 009B     		ldr	r3, [sp]
 390              		.syntax unified
 391              	@ 546 "ChibiOS_3.0.2/os/ext/CMSIS/include/core_cmFunc.h" 1
 392 012a 83F31188 		MSR basepri, r3
 393              	@ 0 "" 2
 394              	.LVL44:
 395              		.thumb
 396              		.syntax unified
 397 012e 78E7     		b	.L51
 398              	.LVL45:
 399              	.L111:
ARM GAS  /tmp/ccH4KobB.s 			page 8


 400              	.LBE494:
 401              	.LBE493:
 402              	.LBE492:
 403              	.LBE491:
 404              	.LBE490:
 405              	.LBB495:
 406              	.LBB476:
 407              	.LBB471:
 408              	.LBB470:
 409              		.loc 1 358 0
 410 0130 002B     		cmp	r3, #0
 411 0132 E1D0     		beq	.L21
 412 0134 0239     		subs	r1, r1, #2
 413              	.LVL46:
 414              	.LBB469:
 415              		.loc 1 359 0
 416 0136 D8F80030 		ldr	r3, [r8]
 417              	.LVL47:
 418              	.LBE469:
 419              		.loc 1 358 0
 420 013a 0029     		cmp	r1, #0
 421 013c D2D1     		bne	.L24
 422 013e DBE7     		b	.L21
 423              	.LVL48:
 424              	.L110:
 425              	.LBE470:
 426              	.LBE471:
 427              	.LBB472:
 428              	.LBB458:
 429              		.loc 1 386 0
 430 0140 3CB3     		cbz	r4, .L14
 431 0142 4169     		ldr	r1, [r0, #20]
 432 0144 02F58052 		add	r2, r2, #4096
 433              	.LVL49:
 434 0148 A446     		mov	ip, r4
 435              	.LVL50:
 436              	.L15:
 437              	.LBB445:
 438              		.loc 1 390 0
 439 014a BCF1030F 		cmp	ip, #3
 440 014e 07D9     		bls	.L16
 441              	.LVL51:
 442              	.L112:
 443              	.LBB446:
 444              		.loc 1 396 0
 445 0150 0369     		ldr	r3, [r0, #16]
 446 0152 8B42     		cmp	r3, r1
 447 0154 04D8     		bhi	.L16
 448              		.loc 1 397 0
 449 0156 C168     		ldr	r1, [r0, #12]
 450 0158 4161     		str	r1, [r0, #20]
 451              	.LVL52:
 452              	.LBE446:
 453              		.loc 1 390 0
 454 015a BCF1030F 		cmp	ip, #3
 455 015e F7D8     		bhi	.L112
 456              	.LVL53:
ARM GAS  /tmp/ccH4KobB.s 			page 9


 457              	.L16:
 458              		.loc 1 408 0
 459 0160 D2F800E0 		ldr	lr, [r2]
 460              	.LVL54:
 461 0164 0023     		movs	r3, #0
 462              	.LVL55:
 463              	.L19:
 464              		.loc 1 411 0
 465 0166 2EFA03F7 		lsr	r7, lr, r3
 466 016a 01F10108 		add	r8, r1, #1
 467 016e C0F81480 		str	r8, [r0, #20]
 468 0172 0F70     		strb	r7, [r1]
 469              		.loc 1 412 0
 470 0174 D0E90417 		ldrd	r1, r7, [r0, #16]
 471 0178 8F42     		cmp	r7, r1
 472              		.loc 1 413 0
 473 017a 24BF     		itt	cs
 474 017c C168     		ldrcs	r1, [r0, #12]
 475 017e 4161     		strcs	r1, [r0, #20]
 476              		.loc 1 410 0
 477 0180 BCF1010C 		subs	ip, ip, #1
 478              	.LVL56:
 479 0184 03F10803 		add	r3, r3, #8
 480 0188 03D0     		beq	.L14
 481 018a 202B     		cmp	r3, #32
 482 018c 4169     		ldr	r1, [r0, #20]
 483 018e EAD1     		bne	.L19
 484 0190 DBE7     		b	.L15
 485              	.LVL57:
 486              	.L14:
 487              	.LBE445:
 488              	.LBB447:
 489              	.LBB444:
 490              	.LBB443:
 491              	.LBB442:
 492              	.LBB441:
 493              		.loc 3 546 0
 494 0192 009B     		ldr	r3, [sp]
 495              		.syntax unified
 496              	@ 546 "ChibiOS_3.0.2/os/ext/CMSIS/include/core_cmFunc.h" 1
 497 0194 83F31188 		MSR basepri, r3
 498              	@ 0 "" 2
 499              	.LVL58:
 500              		.thumb
 501              		.syntax unified
 502              	.LBE441:
 503              	.LBE442:
 504              	.LBE443:
 505              	.LBE444:
 506              	.LBE447:
 507              		.loc 1 421 0
 508 0198 8368     		ldr	r3, [r0, #8]
 509 019a 2344     		add	r3, r3, r4
 510 019c 8360     		str	r3, [r0, #8]
 511              	.LVL59:
 512              	.LBB448:
 513              	.LBB449:
ARM GAS  /tmp/ccH4KobB.s 			page 10


 514              		.loc 4 810 0
 515 019e 0021     		movs	r1, #0
 516 01a0 FFF7FEFF 		bl	chThdDequeueAllI
 517              	.LVL60:
 518              	.LBE449:
 519              	.LBE448:
 520              	.LBB450:
 521              	.LBB451:
 522              		.loc 4 600 0
 523 01a4 FFF7FEFF 		bl	chSchRescheduleS
 524              	.LVL61:
 525              	.LBE451:
 526              	.LBE450:
 527              	.LBB452:
 528              	.LBB453:
 529              	.LBB454:
 530              	.LBB455:
 531              	.LBB456:
 532              	.LBB457:
 533              		.loc 3 546 0
 534 01a8 0023     		movs	r3, #0
 535              		.syntax unified
 536              	@ 546 "ChibiOS_3.0.2/os/ext/CMSIS/include/core_cmFunc.h" 1
 537 01aa 83F31188 		MSR basepri, r3
 538              	@ 0 "" 2
 539              	.LVL62:
 540              		.thumb
 541              		.syntax unified
 542 01ae F368     		ldr	r3, [r6, #12]
 543 01b0 9F69     		ldr	r7, [r3, #24]
 544 01b2 D7F808C0 		ldr	ip, [r7, #8]
 545 01b6 A1E7     		b	.L20
 546              	.LVL63:
 547              	.L100:
 548              	.LBE457:
 549              	.LBE456:
 550              	.LBE455:
 551              	.LBE454:
 552              	.LBE453:
 553              	.LBE452:
 554              	.LBE458:
 555              	.LBE472:
 556              	.LBE476:
 557              	.LBE495:
 558              	.LBB496:
 559              	.LBB497:
 560              	.LBB498:
 561              	.LBB499:
 562              	.LBB500:
 563              	.LBB501:
 564 01b8 009A     		ldr	r2, [sp]
 565              		.syntax unified
 566              	@ 546 "ChibiOS_3.0.2/os/ext/CMSIS/include/core_cmFunc.h" 1
 567 01ba 82F31188 		MSR basepri, r2
 568              	@ 0 "" 2
 569              	.LVL64:
 570              		.thumb
ARM GAS  /tmp/ccH4KobB.s 			page 11


 571              		.syntax unified
 572              	.LBE501:
 573              	.LBE500:
 574              	.LBE499:
 575              	.LBE498:
 576              	.LBE497:
 577              		.loc 1 1334 0
 578 01be D9F80810 		ldr	r1, [r9, #8]
 579              		.loc 1 1335 0
 580 01c2 EA6D     		ldr	r2, [r5, #92]
 581              		.loc 1 1334 0
 582 01c4 21F00101 		bic	r1, r1, #1
 583              		.loc 1 1335 0
 584 01c8 22EA0602 		bic	r2, r2, r6
 585              		.loc 1 1334 0
 586 01cc C9F80810 		str	r1, [r9, #8]
 587              		.loc 1 1335 0
 588 01d0 EA65     		str	r2, [r5, #92]
 589              	.LVL65:
 590              	.LBB502:
 591              	.LBB503:
 592              	.LBB504:
 593              	.LBB505:
 594              	.LBB506:
 595              	.LBB507:
 596              		.loc 3 546 0
 597              		.syntax unified
 598              	@ 546 "ChibiOS_3.0.2/os/ext/CMSIS/include/core_cmFunc.h" 1
 599 01d2 83F31188 		MSR basepri, r3
 600              	@ 0 "" 2
 601              	.LVL66:
 602              		.thumb
 603              		.syntax unified
 604 01d6 05EB8A03 		add	r3, r5, r10, lsl #2
 605 01da 1F46     		mov	r7, r3
 606              	.LBE507:
 607              	.LBE506:
 608              	.LBE505:
 609              	.LBE504:
 610              	.LBE503:
 611              	.LBE502:
 612              	.LBB508:
 613              	.LBB509:
 614              		.loc 1 488 0
 615 01dc D968     		ldr	r1, [r3, #12]
 616 01de 4A69     		ldr	r2, [r1, #20]
 617 01e0 D2E90130 		ldrd	r3, r0, [r2, #4]
 618 01e4 9842     		cmp	r0, r3
 619 01e6 80F0B680 		bcs	.L113
 620              		.loc 1 498 0
 621 01ea D5F850E0 		ldr	lr, [r5, #80]
 622              		.loc 1 493 0
 623 01ee 0C8A     		ldrh	r4, [r1, #16]
 624              		.loc 1 498 0
 625 01f0 4FEA4A18 		lsl	r8, r10, #5
 626 01f4 0EEB080C 		add	ip, lr, r8
 627              		.loc 1 492 0
ARM GAS  /tmp/ccH4KobB.s 			page 12


 628 01f8 1B1A     		subs	r3, r3, r0
 629              	.LVL67:
 630              		.loc 1 498 0
 631 01fa DCF81809 		ldr	r0, [ip, #2328]
 632 01fe 9C42     		cmp	r4, r3
 633 0200 28BF     		it	cs
 634 0202 1C46     		movcs	r4, r3
 635              	.LVL68:
 636 0204 83B2     		uxth	r3, r0
 637 0206 B4EB830F 		cmp	r4, r3, lsl #2
 638 020a 00F2B180 		bhi	.L29
 639 020e 0AF10103 		add	r3, r10, #1
 640 0212 0293     		str	r3, [sp, #8]
 641 0214 1B03     		lsls	r3, r3, #12
 642 0216 CDE90396 		strd	r9, r6, [sp, #12]
 643 021a 0193     		str	r3, [sp, #4]
 644 021c B946     		mov	r9, r7
 645              	.LVL69:
 646              	.L30:
 647 021e 019E     		ldr	r6, [sp, #4]
 648              		.loc 1 505 0
 649 0220 1378     		ldrb	r3, [r2]	@ zero_extendqisi2
 650 0222 D068     		ldr	r0, [r2, #12]
 651 0224 B644     		add	lr, lr, r6
 652 0226 002B     		cmp	r3, #0
 653 0228 7ED0     		beq	.L33
 654              	.LVL70:
 655              	.LBB510:
 656              	.LBB511:
 657              		.loc 1 274 0
 658 022a FCB1     		cbz	r4, .L34
 659 022c D0F810B0 		ldr	fp, [r0, #16]
 660              	.LBB512:
 661              	.LBB513:
 662              		.loc 1 280 0
 663 0230 2246     		mov	r2, r4
 664              	.LVL71:
 665              	.L44:
 666              	.LBE513:
 667              		.loc 1 278 0
 668 0232 9708     		lsrs	r7, r2, #2
 669              	.LVL72:
 670 0234 8369     		ldr	r3, [r0, #24]
 671 0236 5ED0     		beq	.L35
 672              	.LVL73:
 673              	.LBB518:
 674              		.loc 1 280 0
 675 0238 BBEB0301 		subs	r1, fp, r3
 676 023c 48BF     		it	mi
 677 023e 0331     		addmi	r1, r1, #3
 678 0240 8E10     		asrs	r6, r1, #2
 679              		.loc 1 282 0
 680 0242 BE42     		cmp	r6, r7
 681 0244 28BF     		it	cs
 682 0246 3E46     		movcs	r6, r7
 683              	.LVL74:
 684 0248 B100     		lsls	r1, r6, #2
ARM GAS  /tmp/ccH4KobB.s 			page 13


 685 024a 521A     		subs	r2, r2, r1
 686              	.LVL75:
 687              	.LBB514:
 688              	.LBB515:
 689              		.loc 1 233 0
 690 024c 002E     		cmp	r6, #0
 691 024e 7CD0     		beq	.L54
 692 0250 1944     		add	r1, r1, r3
 693              	.LVL76:
 694              	.L38:
 695              		.loc 1 236 0
 696 0252 53F8046B 		ldr	r6, [r3], #4
 697              	.LVL77:
 698 0256 CEF80060 		str	r6, [lr]
 699              	.LVL78:
 700              		.loc 1 233 0
 701 025a 8B42     		cmp	r3, r1
 702 025c F9D1     		bne	.L38
 703              	.LVL79:
 704              	.L37:
 705              	.LBE515:
 706              	.LBE514:
 707              		.loc 1 284 0
 708 025e 5945     		cmp	r1, fp
 709              		.loc 1 283 0
 710 0260 8161     		str	r1, [r0, #24]
 711              	.LVL80:
 712              		.loc 1 284 0
 713 0262 45D3     		bcc	.L39
 714              		.loc 1 285 0
 715 0264 C368     		ldr	r3, [r0, #12]
 716 0266 8361     		str	r3, [r0, #24]
 717              	.LBE518:
 718              	.LBE512:
 719              		.loc 1 274 0
 720 0268 002A     		cmp	r2, #0
 721 026a E2D1     		bne	.L44
 722              	.LVL81:
 723              	.L34:
 724              	.LBB520:
 725              	.LBB521:
 726              	.LBB522:
 727              	.LBB523:
 728              	.LBB524:
 729              		.loc 3 546 0
 730 026c 009B     		ldr	r3, [sp]
 731              		.syntax unified
 732              	@ 546 "ChibiOS_3.0.2/os/ext/CMSIS/include/core_cmFunc.h" 1
 733 026e 83F31188 		MSR basepri, r3
 734              	@ 0 "" 2
 735              	.LVL82:
 736              		.thumb
 737              		.syntax unified
 738              	.LBE524:
 739              	.LBE523:
 740              	.LBE522:
 741              	.LBE521:
ARM GAS  /tmp/ccH4KobB.s 			page 14


 742              	.LBE520:
 743              		.loc 1 310 0
 744 0272 8368     		ldr	r3, [r0, #8]
 745 0274 2344     		add	r3, r3, r4
 746 0276 8360     		str	r3, [r0, #8]
 747              	.LVL83:
 748              	.LBB525:
 749              	.LBB526:
 750              		.loc 4 810 0
 751 0278 0021     		movs	r1, #0
 752 027a FFF7FEFF 		bl	chThdDequeueAllI
 753              	.LVL84:
 754              	.LBE526:
 755              	.LBE525:
 756              	.LBB527:
 757              	.LBB528:
 758              		.loc 4 600 0
 759 027e FFF7FEFF 		bl	chSchRescheduleS
 760              	.LVL85:
 761              	.LBE528:
 762              	.LBE527:
 763              	.LBB529:
 764              	.LBB530:
 765              	.LBB531:
 766              	.LBB532:
 767              	.LBB533:
 768              	.LBB534:
 769              		.loc 3 546 0
 770 0282 0023     		movs	r3, #0
 771              		.syntax unified
 772              	@ 546 "ChibiOS_3.0.2/os/ext/CMSIS/include/core_cmFunc.h" 1
 773 0284 83F31188 		MSR basepri, r3
 774              	@ 0 "" 2
 775              	.LVL86:
 776              		.thumb
 777              		.syntax unified
 778 0288 D9F80C10 		ldr	r1, [r9, #12]
 779              	.LVL87:
 780              	.L45:
 781              	.LBE534:
 782              	.LBE533:
 783              	.LBE532:
 784              	.LBE531:
 785              	.LBE530:
 786              	.LBE529:
 787              	.LBE511:
 788              	.LBE510:
 789              		.loc 1 521 0
 790 028c 4A69     		ldr	r2, [r1, #20]
 791              		.loc 1 488 0
 792 028e D2E90103 		ldrd	r0, r3, [r2, #4]
 793              		.loc 1 521 0
 794 0292 1C44     		add	r4, r4, r3
 795              	.LVL88:
 796              		.loc 1 488 0
 797 0294 A042     		cmp	r0, r4
 798              		.loc 1 521 0
ARM GAS  /tmp/ccH4KobB.s 			page 15


 799 0296 9460     		str	r4, [r2, #8]
 800              		.loc 1 488 0
 801 0298 59D9     		bls	.L114
 802              		.loc 1 498 0
 803 029a D5F850E0 		ldr	lr, [r5, #80]
 804              		.loc 1 493 0
 805 029e B1F810C0 		ldrh	ip, [r1, #16]
 806              		.loc 1 498 0
 807 02a2 0EEB080A 		add	r10, lr, r8
 808              		.loc 1 492 0
 809 02a6 041B     		subs	r4, r0, r4
 810              	.LVL89:
 811              		.loc 1 498 0
 812 02a8 DAF81839 		ldr	r3, [r10, #2328]
 813 02ac 6445     		cmp	r4, ip
 814 02ae 28BF     		it	cs
 815 02b0 6446     		movcs	r4, ip
 816              	.LVL90:
 817 02b2 9BB2     		uxth	r3, r3
 818 02b4 B4EB830F 		cmp	r4, r3, lsl #2
 819 02b8 B1D9     		bls	.L30
 820 02ba DDE90396 		ldrd	r9, r6, [sp, #12]
 821              		.loc 1 499 0
 822 02be 0022     		movs	r2, #0
 823              	.LVL91:
 824              	.L32:
 825              	.LBE509:
 826              	.LBE508:
 827              	.LBB546:
 828              	.LBB547:
 829              	.LBB548:
 830              	.LBB549:
 831              	.LBB550:
 832              		.loc 3 546 0
 833 02c0 009B     		ldr	r3, [sp]
 834              		.syntax unified
 835              	@ 546 "ChibiOS_3.0.2/os/ext/CMSIS/include/core_cmFunc.h" 1
 836 02c2 83F31188 		MSR basepri, r3
 837              	@ 0 "" 2
 838              	.LVL92:
 839              		.thumb
 840              		.syntax unified
 841              	.LBE550:
 842              	.LBE549:
 843              	.LBE548:
 844              	.LBE547:
 845              	.LBE546:
 846              		.loc 1 1341 0
 847 02c6 D9F80830 		ldr	r3, [r9, #8]
 848 02ca 43F00103 		orr	r3, r3, #1
 849 02ce C9F80830 		str	r3, [r9, #8]
 850              		.loc 1 1342 0
 851 02d2 22B9     		cbnz	r2, .L28
 852              	.LVL93:
 853              	.L31:
 854              		.loc 1 1343 0
 855 02d4 D9F83438 		ldr	r3, [r9, #2100]
ARM GAS  /tmp/ccH4KobB.s 			page 16


 856 02d8 1E43     		orrs	r6, r6, r3
 857 02da C9F83468 		str	r6, [r9, #2100]
 858              	.L28:
 859              	.LVL94:
 860              	.LBB559:
 861              	.LBB560:
 862              	.LBB561:
 863              	.LBB562:
 864              	.LBB563:
 865              	.LBB564:
 866              		.loc 3 546 0
 867 02de 0023     		movs	r3, #0
 868              		.syntax unified
 869              	@ 546 "ChibiOS_3.0.2/os/ext/CMSIS/include/core_cmFunc.h" 1
 870 02e0 83F31188 		MSR basepri, r3
 871              	@ 0 "" 2
 872              	.LVL95:
 873              		.thumb
 874              		.syntax unified
 875 02e4 1AE7     		b	.L26
 876              	.L116:
 877 02e6 00BF     		.align	2
 878              	.L115:
 879 02e8 00000000 		.word	ch
 880 02ec 00000000 		.word	.LC0
 881              	.LVL96:
 882              	.L39:
 883              	.LBE564:
 884              	.LBE563:
 885              	.LBE562:
 886              	.LBE561:
 887              	.LBE560:
 888              	.LBE559:
 889              	.LBB565:
 890              	.LBB545:
 891              	.LBB539:
 892              	.LBB537:
 893              	.LBB535:
 894              		.loc 1 292 0
 895 02f0 002A     		cmp	r2, #0
 896 02f2 BBD0     		beq	.L34
 897 02f4 0B46     		mov	r3, r1
 898              	.L35:
 899 02f6 0021     		movs	r1, #0
 900 02f8 0E46     		mov	r6, r1
 901              	.LVL97:
 902              	.L43:
 903              		.loc 1 299 0
 904 02fa 5F1C     		adds	r7, r3, #1
 905 02fc 8761     		str	r7, [r0, #24]
 906 02fe 1B78     		ldrb	r3, [r3]	@ zero_extendqisi2
 907              		.loc 1 300 0
 908 0300 5F45     		cmp	r7, fp
 909              		.loc 1 299 0
 910 0302 03FA01F3 		lsl	r3, r3, r1
 911 0306 46EA0306 		orr	r6, r6, r3
 912              	.LVL98:
ARM GAS  /tmp/ccH4KobB.s 			page 17


 913              		.loc 1 301 0
 914 030a 24BF     		itt	cs
 915 030c C368     		ldrcs	r3, [r0, #12]
 916 030e 8361     		strcs	r3, [r0, #24]
 917              		.loc 1 298 0
 918 0310 013A     		subs	r2, r2, #1
 919              	.LVL99:
 920 0312 04D0     		beq	.L42
 921 0314 1829     		cmp	r1, #24
 922 0316 02D0     		beq	.L42
 923 0318 0831     		adds	r1, r1, #8
 924 031a 8369     		ldr	r3, [r0, #24]
 925 031c EDE7     		b	.L43
 926              	.L42:
 927              		.loc 1 305 0
 928 031e CEF80060 		str	r6, [lr]
 929              	.LBE535:
 930              		.loc 1 274 0
 931 0322 002A     		cmp	r2, #0
 932 0324 85D1     		bne	.L44
 933 0326 A1E7     		b	.L34
 934              	.LVL100:
 935              	.L33:
 936              	.LBE537:
 937              	.LBE539:
 938              	.LBB540:
 939              	.LBB541:
 940              		.loc 1 256 0
 941 0328 E31C     		adds	r3, r4, #3
 942              	.LVL101:
 943              	.LBB542:
 944              	.LBB543:
 945              		.loc 1 233 0
 946 032a 9B08     		lsrs	r3, r3, #2
 947              	.LVL102:
 948 032c 0AD0     		beq	.L46
 949 032e 00EB8301 		add	r1, r0, r3, lsl #2
 950 0332 0346     		mov	r3, r0
 951              	.LVL103:
 952              	.L47:
 953              		.loc 1 236 0
 954 0334 53F8046B 		ldr	r6, [r3], #4
 955              	.LVL104:
 956 0338 CEF80060 		str	r6, [lr]
 957              	.LVL105:
 958              		.loc 1 233 0
 959 033c 8B42     		cmp	r3, r1
 960 033e F9D1     		bne	.L47
 961 0340 D9F80C10 		ldr	r1, [r9, #12]
 962              	.LVL106:
 963              	.L46:
 964              	.LBE543:
 965              	.LBE542:
 966              	.LBE541:
 967              	.LBE540:
 968              		.loc 1 516 0
 969 0344 2044     		add	r0, r0, r4
ARM GAS  /tmp/ccH4KobB.s 			page 18


 970 0346 D060     		str	r0, [r2, #12]
 971 0348 A0E7     		b	.L45
 972              	.LVL107:
 973              	.L54:
 974              	.LBB544:
 975              	.LBB538:
 976              	.LBB536:
 977              	.LBB519:
 978              	.LBB517:
 979              	.LBB516:
 980              		.loc 1 233 0
 981 034a 1946     		mov	r1, r3
 982 034c 87E7     		b	.L37
 983              	.LVL108:
 984              	.L114:
 985 034e DDE90396 		ldrd	r9, r6, [sp, #12]
 986              	.LBE516:
 987              	.LBE517:
 988              	.LBE519:
 989              	.LBE536:
 990              	.LBE538:
 991              	.LBE544:
 992              		.loc 1 489 0
 993 0352 0122     		movs	r2, #1
 994 0354 B4E7     		b	.L32
 995              	.LVL109:
 996              	.L113:
 997              	.LBE545:
 998              	.LBE565:
 999              	.LBB566:
 1000              	.LBB557:
 1001              	.LBB555:
 1002              	.LBB553:
 1003              	.LBB551:
 1004              		.loc 3 546 0
 1005 0356 009B     		ldr	r3, [sp]
 1006              		.syntax unified
 1007              	@ 546 "ChibiOS_3.0.2/os/ext/CMSIS/include/core_cmFunc.h" 1
 1008 0358 83F31188 		MSR basepri, r3
 1009              	@ 0 "" 2
 1010              	.LVL110:
 1011              		.thumb
 1012              		.syntax unified
 1013              	.LBE551:
 1014              	.LBE553:
 1015              	.LBE555:
 1016              	.LBE557:
 1017              	.LBE566:
 1018              		.loc 1 1341 0
 1019 035c D9F80830 		ldr	r3, [r9, #8]
 1020 0360 0AF10102 		add	r2, r10, #1
 1021 0364 43F00103 		orr	r3, r3, #1
 1022 0368 0292     		str	r2, [sp, #8]
 1023 036a C9F80830 		str	r3, [r9, #8]
 1024 036e B6E7     		b	.L28
 1025              	.LVL111:
 1026              	.L29:
ARM GAS  /tmp/ccH4KobB.s 			page 19


 1027              	.LBB567:
 1028              	.LBB558:
 1029              	.LBB556:
 1030              	.LBB554:
 1031              	.LBB552:
 1032              		.loc 3 546 0
 1033 0370 009B     		ldr	r3, [sp]
 1034              		.syntax unified
 1035              	@ 546 "ChibiOS_3.0.2/os/ext/CMSIS/include/core_cmFunc.h" 1
 1036 0372 83F31188 		MSR basepri, r3
 1037              	@ 0 "" 2
 1038              	.LVL112:
 1039              		.thumb
 1040              		.syntax unified
 1041              	.LBE552:
 1042              	.LBE554:
 1043              	.LBE556:
 1044              	.LBE558:
 1045              	.LBE567:
 1046              		.loc 1 1341 0
 1047 0376 D9F80830 		ldr	r3, [r9, #8]
 1048 037a 0AF10102 		add	r2, r10, #1
 1049 037e 43F00103 		orr	r3, r3, #1
 1050 0382 0292     		str	r2, [sp, #8]
 1051 0384 C9F80830 		str	r3, [r9, #8]
 1052 0388 A4E7     		b	.L31
 1053              	.LBE496:
 1054              	.LBE431:
 1055              		.cfi_endproc
 1056              	.LFE292:
 1057              		.size	usb_lld_pump, .-usb_lld_pump
 1058 038a 00BF     		.section	.text.otg_disable_ep.isra.0,"ax",%progbits
 1059              		.align	1
 1060              		.p2align 4,,15
 1061              		.syntax unified
 1062              		.thumb
 1063              		.thumb_func
 1064              		.fpu fpv4-sp-d16
 1065              		.type	otg_disable_ep.isra.0, %function
 1066              	otg_disable_ep.isra.0:
 1067              	.LFB293:
 1068              		.loc 1 132 0
 1069              		.cfi_startproc
 1070              		@ args = 0, pretend = 0, frame = 0
 1071              		@ frame_needed = 0, uses_anonymous_args = 0
 1072              	.LVL113:
 1073 0000 8B68     		ldr	r3, [r1, #8]
 1074 0002 F0B5     		push	{r4, r5, r6, r7, lr}
 1075              		.cfi_def_cfa_offset 20
 1076              		.cfi_offset 4, -20
 1077              		.cfi_offset 5, -16
 1078              		.cfi_offset 6, -12
 1079              		.cfi_offset 7, -8
 1080              		.cfi_offset 14, -4
 1081              		.loc 1 136 0
 1082 0004 0024     		movs	r4, #0
 1083 0006 03F1010C 		add	ip, r3, #1
ARM GAS  /tmp/ccH4KobB.s 			page 20


 1084              		.loc 1 147 0
 1085 000a 2546     		mov	r5, r4
 1086              		.loc 1 141 0
 1087 000c 4FF0804E 		mov	lr, #1073741824
 1088              		.loc 1 149 0
 1089 0010 4FF0FF36 		mov	r6, #-1
 1090 0014 14E0     		b	.L124
 1091              	.LVL114:
 1092              	.L118:
 1093              		.loc 1 147 0
 1094 0016 C2F80059 		str	r5, [r2, #2304]
 1095              	.L120:
 1096              		.loc 1 148 0
 1097 001a C118     		adds	r1, r0, r3
 1098 001c C1F81059 		str	r5, [r1, #2320]
 1099              		.loc 1 149 0
 1100 0020 C1F80869 		str	r6, [r1, #2312]
 1101              		.loc 1 155 0
 1102 0024 D2F8007B 		ldr	r7, [r2, #2816]
 1103 0028 002F     		cmp	r7, #0
 1104 002a 17DB     		blt	.L131
 1105              		.loc 1 162 0
 1106 002c C2F8005B 		str	r5, [r2, #2816]
 1107              	.L123:
 1108              		.loc 1 163 0
 1109 0030 0344     		add	r3, r3, r0
 1110              		.loc 1 136 0
 1111 0032 0134     		adds	r4, r4, #1
 1112              	.LVL115:
 1113 0034 6445     		cmp	r4, ip
 1114              		.loc 1 163 0
 1115 0036 C3F8105B 		str	r5, [r3, #2832]
 1116              		.loc 1 164 0
 1117 003a C3F8086B 		str	r6, [r3, #2824]
 1118              		.loc 1 136 0
 1119 003e 14D0     		beq	.L132
 1120              	.LVL116:
 1121              	.L124:
 1122 0040 6301     		lsls	r3, r4, #5
 1123 0042 C218     		adds	r2, r0, r3
 1124              		.loc 1 140 0
 1125 0044 D2F80019 		ldr	r1, [r2, #2304]
 1126 0048 0029     		cmp	r1, #0
 1127 004a E4DA     		bge	.L118
 1128              		.loc 1 141 0
 1129 004c C2F800E9 		str	lr, [r2, #2304]
 1130              		.loc 1 143 0
 1131 0050 1746     		mov	r7, r2
 1132              	.L119:
 1133 0052 D7F80819 		ldr	r1, [r7, #2312]
 1134 0056 8907     		lsls	r1, r1, #30
 1135 0058 FBD5     		bpl	.L119
 1136 005a DEE7     		b	.L120
 1137              	.L131:
 1138              		.loc 1 156 0
 1139 005c C2F800EB 		str	lr, [r2, #2816]
 1140              	.L122:
ARM GAS  /tmp/ccH4KobB.s 			page 21


 1141              		.loc 1 158 0
 1142 0060 D1F8082B 		ldr	r2, [r1, #2824]
 1143 0064 D206     		lsls	r2, r2, #27
 1144 0066 FBD5     		bpl	.L122
 1145 0068 E2E7     		b	.L123
 1146              	.L132:
 1147              		.loc 1 166 0
 1148 006a 4FF00113 		mov	r3, #65537
 1149 006e C0F81C38 		str	r3, [r0, #2076]
 1150              		.loc 1 167 0
 1151 0072 F0BD     		pop	{r4, r5, r6, r7, pc}
 1152              		.cfi_endproc
 1153              	.LFE293:
 1154              		.size	otg_disable_ep.isra.0, .-otg_disable_ep.isra.0
 1155              		.section	.text.usb_lld_init,"ax",%progbits
 1156              		.align	1
 1157              		.p2align 4,,15
 1158              		.global	usb_lld_init
 1159              		.syntax unified
 1160              		.thumb
 1161              		.thumb_func
 1162              		.fpu fpv4-sp-d16
 1163              		.type	usb_lld_init, %function
 1164              	usb_lld_init:
 1165              	.LFB274:
 1166              		.loc 1 744 0
 1167              		.cfi_startproc
 1168              		@ args = 0, pretend = 0, frame = 0
 1169              		@ frame_needed = 0, uses_anonymous_args = 0
 1170 0000 10B5     		push	{r4, lr}
 1171              		.cfi_def_cfa_offset 8
 1172              		.cfi_offset 4, -8
 1173              		.cfi_offset 14, -4
 1174              		.loc 1 748 0
 1175 0002 064C     		ldr	r4, .L135
 1176 0004 2046     		mov	r0, r4
 1177 0006 FFF7FEFF 		bl	usbObjectInit
 1178              	.LVL117:
 1179              		.loc 1 750 0
 1180 000a 4FF0A043 		mov	r3, #1342177280
 1181              		.loc 1 751 0
 1182 000e 044A     		ldr	r2, .L135+4
 1183              		.loc 1 750 0
 1184 0010 2365     		str	r3, [r4, #80]
 1185              		.loc 1 749 0
 1186 0012 0023     		movs	r3, #0
 1187              		.loc 1 751 0
 1188 0014 6265     		str	r2, [r4, #84]
 1189              		.loc 1 754 0
 1190 0016 C4E91833 		strd	r3, r3, [r4, #96]
 1191              		.loc 1 794 0
 1192 001a 10BD     		pop	{r4, pc}
 1193              	.L136:
 1194              		.align	2
 1195              	.L135:
 1196 001c 00000000 		.word	.LANCHOR0
 1197 0020 00000000 		.word	.LANCHOR1
ARM GAS  /tmp/ccH4KobB.s 			page 22


 1198              		.cfi_endproc
 1199              	.LFE274:
 1200              		.size	usb_lld_init, .-usb_lld_init
 1201              		.section	.text.usb_lld_start,"ax",%progbits
 1202              		.align	1
 1203              		.p2align 4,,15
 1204              		.global	usb_lld_start
 1205              		.syntax unified
 1206              		.thumb
 1207              		.thumb_func
 1208              		.fpu fpv4-sp-d16
 1209              		.type	usb_lld_start, %function
 1210              	usb_lld_start:
 1211              	.LFB275:
 1212              		.loc 1 806 0
 1213              		.cfi_startproc
 1214              		@ args = 0, pretend = 0, frame = 0
 1215              		@ frame_needed = 0, uses_anonymous_args = 0
 1216              	.LVL118:
 1217              		.loc 1 809 0
 1218 0000 0378     		ldrb	r3, [r0]	@ zero_extendqisi2
 1219 0002 012B     		cmp	r3, #1
 1220 0004 00D0     		beq	.L152
 1221 0006 7047     		bx	lr
 1222              	.L152:
 1223              		.loc 1 806 0
 1224 0008 70B5     		push	{r4, r5, r6, lr}
 1225              		.cfi_def_cfa_offset 16
 1226              		.cfi_offset 4, -16
 1227              		.cfi_offset 5, -12
 1228              		.cfi_offset 6, -8
 1229              		.cfi_offset 14, -4
 1230              		.loc 1 812 0
 1231 000a 314B     		ldr	r3, .L156
 1232              		.loc 1 807 0
 1233 000c 066D     		ldr	r6, [r0, #80]
 1234              		.loc 1 812 0
 1235 000e 9842     		cmp	r0, r3
 1236              		.loc 1 806 0
 1237 0010 82B0     		sub	sp, sp, #8
 1238              		.cfi_def_cfa_offset 24
 1239 0012 0546     		mov	r5, r0
 1240              		.loc 1 812 0
 1241 0014 3BD0     		beq	.L153
 1242              		.loc 1 807 0
 1243 0016 3446     		mov	r4, r6
 1244              	.LVL119:
 1245              	.L139:
 1246              		.loc 1 836 0
 1247 0018 0023     		movs	r3, #0
 1248              		.loc 1 841 0
 1249 001a 2E4A     		ldr	r2, .L156+4
 1250              		.loc 1 836 0
 1251 001c EB65     		str	r3, [r5, #92]
 1252              		.loc 1 844 0
 1253 001e 2E49     		ldr	r1, .L156+8
 1254              		.loc 1 841 0
ARM GAS  /tmp/ccH4KobB.s 			page 23


 1255 0020 F260     		str	r2, [r6, #12]
 1256              		.loc 1 851 0
 1257 0022 4FF43412 		mov	r2, #2949120
 1258              		.loc 1 844 0
 1259 0026 C6F80018 		str	r1, [r6, #2048]
 1260              	.LBB576:
 1261              	.LBB577:
 1262              	.LBB578:
 1263              	.LBB579:
 1264              		.loc 4 573 0
 1265 002a 2020     		movs	r0, #32
 1266              	.LBE579:
 1267              	.LBE578:
 1268              	.LBE577:
 1269              	.LBE576:
 1270              		.loc 1 847 0
 1271 002c C6F8003E 		str	r3, [r6, #3584]
 1272              		.loc 1 851 0
 1273 0030 B263     		str	r2, [r6, #56]
 1274              	.LVL120:
 1275              	.LBB585:
 1276              	.LBB584:
 1277              	.LBB581:
 1278              	.LBB580:
 1279              		.loc 4 573 0
 1280 0032 FFF7FEFF 		bl	chSysPolledDelayX
 1281              	.LVL121:
 1282              	.LBE580:
 1283              	.LBE581:
 1284              		.loc 1 121 0
 1285 0036 0123     		movs	r3, #1
 1286 0038 2361     		str	r3, [r4, #16]
 1287              	.L140:
 1288              		.loc 1 122 0
 1289 003a 2369     		ldr	r3, [r4, #16]
 1290 003c DB07     		lsls	r3, r3, #31
 1291 003e FCD4     		bmi	.L140
 1292              	.LVL122:
 1293              	.LBB582:
 1294              	.LBB583:
 1295              		.loc 4 573 0
 1296 0040 0C20     		movs	r0, #12
 1297 0042 FFF7FEFF 		bl	chSysPolledDelayX
 1298              	.LVL123:
 1299              	.L141:
 1300              	.LBE583:
 1301              	.LBE582:
 1302              		.loc 1 128 0
 1303 0046 2369     		ldr	r3, [r4, #16]
 1304 0048 002B     		cmp	r3, #0
 1305 004a FCDA     		bge	.L141
 1306              	.LBE584:
 1307              	.LBE585:
 1308              		.loc 1 861 0
 1309 004c 0024     		movs	r4, #0
 1310 004e B460     		str	r4, [r6, #8]
 1311              		.loc 1 864 0
ARM GAS  /tmp/ccH4KobB.s 			page 24


 1312 0050 D5E91401 		ldrd	r0, r1, [r5, #80]
 1313 0054 FFF7FEFF 		bl	otg_disable_ep.isra.0
 1314              	.LVL124:
 1315              		.loc 1 871 0
 1316 0058 6B68     		ldr	r3, [r5, #4]
 1317              		.loc 1 868 0
 1318 005a C6F81048 		str	r4, [r6, #2064]
 1319              		.loc 1 871 0
 1320 005e DB68     		ldr	r3, [r3, #12]
 1321              		.loc 1 869 0
 1322 0060 C6F81448 		str	r4, [r6, #2068]
 1323              		.loc 1 870 0
 1324 0064 C6F81C48 		str	r4, [r6, #2076]
 1325              		.loc 1 871 0
 1326 0068 6BB1     		cbz	r3, .L154
 1327              		.loc 1 875 0
 1328 006a 43F20803 		movw	r3, #12296
 1329 006e B361     		str	r3, [r6, #24]
 1330              	.L143:
 1331              		.loc 1 881 0
 1332 0070 6B6E     		ldr	r3, [r5, #100]
 1333              		.loc 1 877 0
 1334 0072 4FF0FF32 		mov	r2, #-1
 1335 0076 7261     		str	r2, [r6, #20]
 1336              		.loc 1 881 0
 1337 0078 D3B1     		cbz	r3, .L155
 1338              	.L144:
 1339              		.loc 1 891 0
 1340 007a B368     		ldr	r3, [r6, #8]
 1341 007c 43F00103 		orr	r3, r3, #1
 1342 0080 B360     		str	r3, [r6, #8]
 1343              		.loc 1 893 0
 1344 0082 02B0     		add	sp, sp, #8
 1345              		.cfi_remember_state
 1346              		.cfi_def_cfa_offset 16
 1347              		@ sp needed
 1348 0084 70BD     		pop	{r4, r5, r6, pc}
 1349              	.LVL125:
 1350              	.L154:
 1351              		.cfi_restore_state
 1352              		.loc 1 872 0
 1353 0086 4FF44053 		mov	r3, #12288
 1354 008a B361     		str	r3, [r6, #24]
 1355 008c F0E7     		b	.L143
 1356              	.LVL126:
 1357              	.L153:
 1358              		.loc 1 814 0
 1359 008e 134B     		ldr	r3, .L156+12
 1360 0090 5A6B     		ldr	r2, [r3, #52]
 1361 0092 42F08002 		orr	r2, r2, #128
 1362 0096 5A63     		str	r2, [r3, #52]
 1363              		.loc 1 815 0
 1364 0098 5A69     		ldr	r2, [r3, #20]
 1365 009a 0020     		movs	r0, #0
 1366              	.LVL127:
 1367 009c 42F08002 		orr	r2, r2, #128
 1368 00a0 5A61     		str	r2, [r3, #20]
ARM GAS  /tmp/ccH4KobB.s 			page 25


 1369              		.loc 1 818 0
 1370 00a2 0E21     		movs	r1, #14
 1371              		.loc 1 815 0
 1372 00a4 5861     		str	r0, [r3, #20]
 1373              		.loc 1 818 0
 1374 00a6 4320     		movs	r0, #67
 1375 00a8 FFF7FEFF 		bl	nvicEnableVector
 1376              	.LVL128:
 1377 00ac 2C6D     		ldr	r4, [r5, #80]
 1378 00ae B3E7     		b	.L139
 1379              	.LVL129:
 1380              	.L155:
 1381              		.loc 1 882 0
 1382 00b0 0B4B     		ldr	r3, .L156+16
 1383 00b2 0095     		str	r5, [sp]
 1384 00b4 0222     		movs	r2, #2
 1385 00b6 4FF40671 		mov	r1, #536
 1386 00ba 05F16800 		add	r0, r5, #104
 1387 00be FFF7FEFF 		bl	chThdCreateI
 1388              	.LVL130:
 1389 00c2 6866     		str	r0, [r5, #100]
 1390              	.LVL131:
 1391              	.LBB586:
 1392              	.LBB587:
 1393              		.file 5 "ChibiOS_3.0.2/os/rt/include/chthreads.h"
 1394              		.loc 5 249 0
 1395 00c4 FFF7FEFF 		bl	chSchReadyI
 1396              	.LVL132:
 1397              	.LBE587:
 1398              	.LBE586:
 1399              		.loc 1 886 0
 1400 00c8 FFF7FEFF 		bl	chSchRescheduleS
 1401              	.LVL133:
 1402 00cc D5E7     		b	.L144
 1403              	.L157:
 1404 00ce 00BF     		.align	2
 1405              	.L156:
 1406 00d0 00000000 		.word	.LANCHOR0
 1407 00d4 40140040 		.word	1073747008
 1408 00d8 03002002 		.word	35651587
 1409 00dc 00380240 		.word	1073887232
 1410 00e0 00000000 		.word	usb_lld_pump
 1411              		.cfi_endproc
 1412              	.LFE275:
 1413              		.size	usb_lld_start, .-usb_lld_start
 1414              		.section	.text.usb_lld_stop,"ax",%progbits
 1415              		.align	1
 1416              		.p2align 4,,15
 1417              		.global	usb_lld_stop
 1418              		.syntax unified
 1419              		.thumb
 1420              		.thumb_func
 1421              		.fpu fpv4-sp-d16
 1422              		.type	usb_lld_stop, %function
 1423              	usb_lld_stop:
 1424              	.LFB276:
 1425              		.loc 1 902 0
ARM GAS  /tmp/ccH4KobB.s 			page 26


 1426              		.cfi_startproc
 1427              		@ args = 0, pretend = 0, frame = 0
 1428              		@ frame_needed = 0, uses_anonymous_args = 0
 1429              	.LVL134:
 1430 0000 38B5     		push	{r3, r4, r5, lr}
 1431              		.cfi_def_cfa_offset 16
 1432              		.cfi_offset 3, -16
 1433              		.cfi_offset 4, -12
 1434              		.cfi_offset 5, -8
 1435              		.cfi_offset 14, -4
 1436              		.loc 1 906 0
 1437 0002 0378     		ldrb	r3, [r0]	@ zero_extendqisi2
 1438 0004 012B     		cmp	r3, #1
 1439 0006 0ED0     		beq	.L158
 1440              		.loc 1 910 0
 1441 0008 D0E91451 		ldrd	r5, r1, [r0, #80]
 1442 000c 0446     		mov	r4, r0
 1443 000e 2846     		mov	r0, r5
 1444              	.LVL135:
 1445 0010 FFF7FEFF 		bl	otg_disable_ep.isra.0
 1446              	.LVL136:
 1447              		.loc 1 919 0
 1448 0014 094A     		ldr	r2, .L164
 1449              		.loc 1 912 0
 1450 0016 0023     		movs	r3, #0
 1451              		.loc 1 919 0
 1452 0018 9442     		cmp	r4, r2
 1453              		.loc 1 912 0
 1454 001a E365     		str	r3, [r4, #92]
 1455              		.loc 1 914 0
 1456 001c C5F81C38 		str	r3, [r5, #2076]
 1457              		.loc 1 915 0
 1458 0020 AB60     		str	r3, [r5, #8]
 1459              		.loc 1 916 0
 1460 0022 AB63     		str	r3, [r5, #56]
 1461              		.loc 1 919 0
 1462 0024 00D0     		beq	.L163
 1463              	.LVL137:
 1464              	.L158:
 1465              		.loc 1 932 0
 1466 0026 38BD     		pop	{r3, r4, r5, pc}
 1467              	.LVL138:
 1468              	.L163:
 1469              		.loc 1 920 0
 1470 0028 4320     		movs	r0, #67
 1471 002a FFF7FEFF 		bl	nvicDisableVector
 1472              	.LVL139:
 1473              		.loc 1 921 0
 1474 002e 044A     		ldr	r2, .L164+4
 1475 0030 536B     		ldr	r3, [r2, #52]
 1476 0032 23F08003 		bic	r3, r3, #128
 1477 0036 5363     		str	r3, [r2, #52]
 1478              		.loc 1 932 0
 1479 0038 38BD     		pop	{r3, r4, r5, pc}
 1480              	.LVL140:
 1481              	.L165:
 1482 003a 00BF     		.align	2
ARM GAS  /tmp/ccH4KobB.s 			page 27


 1483              	.L164:
 1484 003c 00000000 		.word	.LANCHOR0
 1485 0040 00380240 		.word	1073887232
 1486              		.cfi_endproc
 1487              	.LFE276:
 1488              		.size	usb_lld_stop, .-usb_lld_stop
 1489              		.section	.text.usb_lld_reset,"ax",%progbits
 1490              		.align	1
 1491              		.p2align 4,,15
 1492              		.global	usb_lld_reset
 1493              		.syntax unified
 1494              		.thumb
 1495              		.thumb_func
 1496              		.fpu fpv4-sp-d16
 1497              		.type	usb_lld_reset, %function
 1498              	usb_lld_reset:
 1499              	.LFB277:
 1500              		.loc 1 941 0
 1501              		.cfi_startproc
 1502              		@ args = 0, pretend = 0, frame = 0
 1503              		@ frame_needed = 0, uses_anonymous_args = 0
 1504              	.LVL141:
 1505 0000 F8B5     		push	{r3, r4, r5, r6, r7, lr}
 1506              		.cfi_def_cfa_offset 24
 1507              		.cfi_offset 3, -24
 1508              		.cfi_offset 4, -20
 1509              		.cfi_offset 5, -16
 1510              		.cfi_offset 6, -12
 1511              		.cfi_offset 7, -8
 1512              		.cfi_offset 14, -4
 1513              		.loc 1 943 0
 1514 0002 056D     		ldr	r5, [r0, #80]
 1515              	.LVL142:
 1516              	.LBB588:
 1517              	.LBB589:
 1518              		.loc 1 182 0
 1519 0004 2023     		movs	r3, #32
 1520              	.LBE589:
 1521              	.LBE588:
 1522              		.loc 1 941 0
 1523 0006 0646     		mov	r6, r0
 1524              	.LVL143:
 1525              	.LBB593:
 1526              	.LBB592:
 1527              		.loc 1 182 0
 1528 0008 2B61     		str	r3, [r5, #16]
 1529              	.L167:
 1530              		.loc 1 183 0
 1531 000a 2C69     		ldr	r4, [r5, #16]
 1532 000c 14F02004 		ands	r4, r4, #32
 1533 0010 FBD1     		bne	.L167
 1534              	.LVL144:
 1535              	.LBB590:
 1536              	.LBB591:
 1537              		.loc 4 573 0
 1538 0012 0C20     		movs	r0, #12
 1539              	.LVL145:
ARM GAS  /tmp/ccH4KobB.s 			page 28


 1540 0014 FFF7FEFF 		bl	chSysPolledDelayX
 1541              	.LVL146:
 1542              	.LBE591:
 1543              	.LBE590:
 1544              	.LBE592:
 1545              	.LBE593:
 1546              		.loc 1 949 0
 1547 0018 776D     		ldr	r7, [r6, #84]
 1548 001a BA68     		ldr	r2, [r7, #8]
 1549 001c 2346     		mov	r3, r4
 1550              		.loc 1 950 0
 1551 001e 4FF00060 		mov	r0, #134217728
 1552 0022 541C     		adds	r4, r2, #1
 1553              		.loc 1 952 0
 1554 0024 FF21     		movs	r1, #255
 1555              	.LVL147:
 1556              	.L168:
 1557 0026 05EB4312 		add	r2, r5, r3, lsl #5
 1558              		.loc 1 949 0 discriminator 3
 1559 002a 0133     		adds	r3, r3, #1
 1560              	.LVL148:
 1561 002c 9C42     		cmp	r4, r3
 1562              		.loc 1 950 0 discriminator 3
 1563 002e C2F80009 		str	r0, [r2, #2304]
 1564              		.loc 1 951 0 discriminator 3
 1565 0032 C2F8000B 		str	r0, [r2, #2816]
 1566              		.loc 1 952 0 discriminator 3
 1567 0036 C2F80819 		str	r1, [r2, #2312]
 1568              		.loc 1 953 0 discriminator 3
 1569 003a C2F8081B 		str	r1, [r2, #2824]
 1570              		.loc 1 949 0 discriminator 3
 1571 003e F2D1     		bne	.L168
 1572              	.LBB594:
 1573              	.LBB595:
 1574              		.loc 1 198 0
 1575 0040 3B68     		ldr	r3, [r7]
 1576              	.LVL149:
 1577              	.LBE595:
 1578              	.LBE594:
 1579              		.loc 1 958 0
 1580 0042 4FF00112 		mov	r2, #65537
 1581              		.loc 1 957 0
 1582 0046 4FF0FF31 		mov	r1, #-1
 1583 004a C5F81818 		str	r1, [r5, #2072]
 1584              		.loc 1 958 0
 1585 004e C5F81C28 		str	r2, [r5, #2076]
 1586              	.LVL150:
 1587              	.LBB597:
 1588              	.LBB596:
 1589              		.loc 1 198 0
 1590 0052 B365     		str	r3, [r6, #88]
 1591              	.LBE596:
 1592              	.LBE597:
 1593              		.loc 1 964 0
 1594 0054 3B68     		ldr	r3, [r7]
 1595              		.loc 1 965 0
 1596 0056 326D     		ldr	r2, [r6, #80]
ARM GAS  /tmp/ccH4KobB.s 			page 29


 1597              	.LVL151:
 1598              		.loc 1 964 0
 1599 0058 6B62     		str	r3, [r5, #36]
 1600              	.LBB598:
 1601              	.LBB599:
 1602              		.loc 1 172 0
 1603 005a 1023     		movs	r3, #16
 1604 005c 1361     		str	r3, [r2, #16]
 1605              	.L169:
 1606              		.loc 1 173 0
 1607 005e 1469     		ldr	r4, [r2, #16]
 1608 0060 14F01004 		ands	r4, r4, #16
 1609 0064 FBD1     		bne	.L169
 1610              	.LVL152:
 1611              	.LBB600:
 1612              	.LBB601:
 1613              		.loc 4 573 0
 1614 0066 0C20     		movs	r0, #12
 1615 0068 FFF7FEFF 		bl	chSysPolledDelayX
 1616              	.LVL153:
 1617              	.LBE601:
 1618              	.LBE600:
 1619              	.LBE599:
 1620              	.LBE598:
 1621              		.loc 1 968 0
 1622 006c D5F80038 		ldr	r3, [r5, #2048]
 1623              		.loc 1 978 0
 1624 0070 104A     		ldr	r2, .L174
 1625              		.loc 1 976 0
 1626 0072 1149     		ldr	r1, .L174+4
 1627              		.loc 1 968 0
 1628 0074 23F4FE63 		bic	r3, r3, #2032
 1629 0078 C5F80038 		str	r3, [r5, #2048]
 1630              		.loc 1 971 0
 1631 007c AB69     		ldr	r3, [r5, #24]
 1632 007e 43F44023 		orr	r3, r3, #786432
 1633 0082 43F01003 		orr	r3, r3, #16
 1634 0086 AB61     		str	r3, [r5, #24]
 1635              		.loc 1 972 0
 1636 0088 0923     		movs	r3, #9
 1637 008a C5F81038 		str	r3, [r5, #2064]
 1638              		.loc 1 973 0
 1639 008e C5F81438 		str	r3, [r5, #2068]
 1640              		.loc 1 976 0
 1641 0092 F160     		str	r1, [r6, #12]
 1642              		.loc 1 977 0
 1643 0094 C5F8104B 		str	r4, [r5, #2832]
 1644              		.loc 1 978 0
 1645 0098 C5F8002B 		str	r2, [r5, #2816]
 1646              		.loc 1 980 0
 1647 009c C5F81049 		str	r4, [r5, #2320]
 1648              		.loc 1 981 0
 1649 00a0 C5F80029 		str	r2, [r5, #2304]
 1650              	.LVL154:
 1651              	.LBB602:
 1652              	.LBB603:
 1653              		.loc 1 212 0
ARM GAS  /tmp/ccH4KobB.s 			page 30


 1654 00a4 B36D     		ldr	r3, [r6, #88]
 1655              	.LVL155:
 1656              		.loc 1 213 0
 1657 00a6 03F11002 		add	r2, r3, #16
 1658              	.LBE603:
 1659              	.LBE602:
 1660              		.loc 1 983 0
 1661 00aa 43F48013 		orr	r3, r3, #1048576
 1662              	.LVL156:
 1663              	.LBB605:
 1664              	.LBB604:
 1665              		.loc 1 213 0
 1666 00ae B265     		str	r2, [r6, #88]
 1667              	.LVL157:
 1668              	.LBE604:
 1669              	.LBE605:
 1670              		.loc 1 983 0
 1671 00b0 AB62     		str	r3, [r5, #40]
 1672              		.loc 1 986 0
 1673 00b2 F8BD     		pop	{r3, r4, r5, r6, r7, pc}
 1674              	.LVL158:
 1675              	.L175:
 1676              		.align	2
 1677              	.L174:
 1678 00b4 40800010 		.word	268468288
 1679 00b8 00000000 		.word	.LANCHOR2
 1680              		.cfi_endproc
 1681              	.LFE277:
 1682              		.size	usb_lld_reset, .-usb_lld_reset
 1683              		.section	.text.usb_lld_set_address,"ax",%progbits
 1684              		.align	1
 1685              		.p2align 4,,15
 1686              		.global	usb_lld_set_address
 1687              		.syntax unified
 1688              		.thumb
 1689              		.thumb_func
 1690              		.fpu fpv4-sp-d16
 1691              		.type	usb_lld_set_address, %function
 1692              	usb_lld_set_address:
 1693              	.LFB278:
 1694              		.loc 1 995 0
 1695              		.cfi_startproc
 1696              		@ args = 0, pretend = 0, frame = 0
 1697              		@ frame_needed = 0, uses_anonymous_args = 0
 1698              		@ link register save eliminated.
 1699              	.LVL159:
 1700              		.loc 1 996 0
 1701 0000 026D     		ldr	r2, [r0, #80]
 1702              	.LVL160:
 1703              		.loc 1 998 0
 1704 0002 90F84E10 		ldrb	r1, [r0, #78]	@ zero_extendqisi2
 1705 0006 D2F80038 		ldr	r3, [r2, #2048]
 1706 000a 23F4FE63 		bic	r3, r3, #2032
 1707 000e 43EA0113 		orr	r3, r3, r1, lsl #4
 1708 0012 C2F80038 		str	r3, [r2, #2048]
 1709              		.loc 1 999 0
 1710 0016 7047     		bx	lr
ARM GAS  /tmp/ccH4KobB.s 			page 31


 1711              		.cfi_endproc
 1712              	.LFE278:
 1713              		.size	usb_lld_set_address, .-usb_lld_set_address
 1714              		.section	.text.usb_lld_init_endpoint,"ax",%progbits
 1715              		.align	1
 1716              		.p2align 4,,15
 1717              		.global	usb_lld_init_endpoint
 1718              		.syntax unified
 1719              		.thumb
 1720              		.thumb_func
 1721              		.fpu fpv4-sp-d16
 1722              		.type	usb_lld_init_endpoint, %function
 1723              	usb_lld_init_endpoint:
 1724              	.LFB279:
 1725              		.loc 1 1009 0
 1726              		.cfi_startproc
 1727              		@ args = 0, pretend = 0, frame = 0
 1728              		@ frame_needed = 0, uses_anonymous_args = 0
 1729              	.LVL161:
 1730 0000 2DE9F843 		push	{r3, r4, r5, r6, r7, r8, r9, lr}
 1731              		.cfi_def_cfa_offset 32
 1732              		.cfi_offset 3, -32
 1733              		.cfi_offset 4, -28
 1734              		.cfi_offset 5, -24
 1735              		.cfi_offset 6, -20
 1736              		.cfi_offset 7, -16
 1737              		.cfi_offset 8, -12
 1738              		.cfi_offset 9, -8
 1739              		.cfi_offset 14, -4
 1740 0004 0FFA81F8 		sxth	r8, r1
 1741 0008 00EB8807 		add	r7, r0, r8, lsl #2
 1742              		.loc 1 1009 0
 1743 000c 0D46     		mov	r5, r1
 1744              	.LVL162:
 1745              		.loc 1 1014 0
 1746 000e FB68     		ldr	r3, [r7, #12]
 1747 0010 1A68     		ldr	r2, [r3]
 1748 0012 02F00302 		and	r2, r2, #3
 1749 0016 022A     		cmp	r2, #2
 1750 0018 00F09780 		beq	.L179
 1751 001c 032A     		cmp	r2, #3
 1752 001e 00F09180 		beq	.L180
 1753              		.loc 1 1016 0
 1754 0022 4B4C     		ldr	r4, .L193
 1755 0024 4B49     		ldr	r1, .L193+4
 1756              	.LVL163:
 1757 0026 012A     		cmp	r2, #1
 1758 0028 0CBF     		ite	eq
 1759 002a A146     		moveq	r9, r4
 1760 002c 8946     		movne	r9, r1
 1761              	.L181:
 1762              		.loc 1 1011 0
 1763 002e 046D     		ldr	r4, [r0, #80]
 1764              	.LVL164:
 1765              		.loc 1 1033 0
 1766 0030 DE68     		ldr	r6, [r3, #12]
 1767              		.loc 1 1032 0
ARM GAS  /tmp/ccH4KobB.s 			page 32


 1768 0032 6901     		lsls	r1, r5, #5
 1769 0034 6218     		adds	r2, r4, r1
 1770 0036 4FF0000C 		mov	ip, #0
 1771 003a C2F810CB 		str	ip, [r2, #2832]
 1772 003e 05F11002 		add	r2, r5, #16
 1773 0042 4FF0010C 		mov	ip, #1
 1774 0046 0CFA02F2 		lsl	r2, ip, r2
 1775              		.loc 1 1033 0
 1776 004a 002E     		cmp	r6, #0
 1777 004c 4BD0     		beq	.L182
 1778              		.loc 1 1034 0
 1779 004e B3F812C0 		ldrh	ip, [r3, #18]
 1780 0052 05F15806 		add	r6, r5, #88
 1781 0056 7601     		lsls	r6, r6, #5
 1782 0058 4CEA090C 		orr	ip, ip, r9
 1783 005c 44F806C0 		str	ip, [r4, r6]
 1784              		.loc 1 1035 0
 1785 0060 D4F81C68 		ldr	r6, [r4, #2076]
 1786 0064 3243     		orrs	r2, r2, r6
 1787 0066 C4F81C28 		str	r2, [r4, #2076]
 1788              	.L183:
 1789              		.loc 1 1043 0
 1790 006a 6618     		adds	r6, r4, r1
 1791              		.loc 1 1044 0
 1792 006c D3F808C0 		ldr	ip, [r3, #8]
 1793              		.loc 1 1043 0
 1794 0070 0022     		movs	r2, #0
 1795 0072 A901     		lsls	r1, r5, #6
 1796 0074 C6F81029 		str	r2, [r6, #2320]
 1797 0078 41F02001 		orr	r1, r1, #32
 1798 007c 6A1E     		subs	r2, r5, #1
 1799              		.loc 1 1044 0
 1800 007e BCF1000F 		cmp	ip, #0
 1801 0082 3FD0     		beq	.L184
 1802              		.loc 1 1047 0
 1803 0084 B3F81CC0 		ldrh	ip, [r3, #28]
 1804              		.loc 1 1046 0
 1805 0088 1E8A     		ldrh	r6, [r3, #16]
 1806              		.loc 1 1047 0
 1807 008a BCF1010F 		cmp	ip, #1
 1808              		.loc 1 1046 0
 1809 008e 4FEA9603 		lsr	r3, r6, #2
 1810              	.LVL165:
 1811              		.loc 1 1049 0
 1812 0092 02F14002 		add	r2, r2, #64
 1813              	.LBB606:
 1814              	.LBB607:
 1815              		.loc 1 212 0
 1816 0096 866D     		ldr	r6, [r0, #88]
 1817              	.LBE607:
 1818              	.LBE606:
 1819              		.loc 1 1048 0
 1820 0098 88BF     		it	hi
 1821 009a 0CFB03F3 		mulhi	r3, ip, r3
 1822              	.LVL166:
 1823              		.loc 1 1049 0
 1824 009e 04EB8202 		add	r2, r4, r2, lsl #2
ARM GAS  /tmp/ccH4KobB.s 			page 33


 1825              	.LBB610:
 1826              	.LBB608:
 1827              		.loc 1 213 0
 1828 00a2 03EB060C 		add	ip, r3, r6
 1829              	.LBE608:
 1830              	.LBE610:
 1831              		.loc 1 1049 0
 1832 00a6 46EA0343 		orr	r3, r6, r3, lsl #16
 1833              	.LVL167:
 1834              	.LBB611:
 1835              	.LBB609:
 1836              		.loc 1 213 0
 1837 00aa C0F858C0 		str	ip, [r0, #88]
 1838              	.LVL168:
 1839              	.LBE609:
 1840              	.LBE611:
 1841              		.loc 1 1049 0
 1842 00ae 5360     		str	r3, [r2, #4]
 1843              	.LVL169:
 1844              	.LBB612:
 1845              	.LBB613:
 1846              		.loc 1 182 0
 1847 00b0 2161     		str	r1, [r4, #16]
 1848              	.L186:
 1849              		.loc 1 183 0
 1850 00b2 2369     		ldr	r3, [r4, #16]
 1851 00b4 9A06     		lsls	r2, r3, #26
 1852 00b6 FCD4     		bmi	.L186
 1853              	.LVL170:
 1854              	.LBB614:
 1855              	.LBB615:
 1856              		.loc 4 573 0
 1857 00b8 0C20     		movs	r0, #12
 1858              	.LVL171:
 1859 00ba FFF7FEFF 		bl	chSysPolledDelayX
 1860              	.LVL172:
 1861              	.LBE615:
 1862              	.LBE614:
 1863              	.LBE613:
 1864              	.LBE612:
 1865              		.loc 1 1055 0
 1866 00be FB68     		ldr	r3, [r7, #12]
 1867 00c0 1A8A     		ldrh	r2, [r3, #16]
 1868              		.loc 1 1053 0
 1869 00c2 05F14803 		add	r3, r5, #72
 1870              		.loc 1 1054 0
 1871 00c6 42EA8552 		orr	r2, r2, r5, lsl #22
 1872              		.loc 1 1053 0
 1873 00ca 5B01     		lsls	r3, r3, #5
 1874              		.loc 1 1054 0
 1875 00cc 42EA0902 		orr	r2, r2, r9
 1876              		.loc 1 1053 0
 1877 00d0 E250     		str	r2, [r4, r3]
 1878              		.loc 1 1056 0
 1879 00d2 0121     		movs	r1, #1
 1880 00d4 D4F81C38 		ldr	r3, [r4, #2076]
 1881 00d8 01FA05F5 		lsl	r5, r1, r5
ARM GAS  /tmp/ccH4KobB.s 			page 34


 1882 00dc 1D43     		orrs	r5, r5, r3
 1883 00de C4F81C58 		str	r5, [r4, #2076]
 1884              		.loc 1 1064 0
 1885 00e2 BDE8F883 		pop	{r3, r4, r5, r6, r7, r8, r9, pc}
 1886              	.LVL173:
 1887              	.L182:
 1888 00e6 04EB481C 		add	ip, r4, r8, lsl #5
 1889              		.loc 1 1038 0
 1890 00ea DCF8006B 		ldr	r6, [ip, #2816]
 1891 00ee 26F40046 		bic	r6, r6, #32768
 1892 00f2 CCF8006B 		str	r6, [ip, #2816]
 1893              		.loc 1 1039 0
 1894 00f6 D4F81C68 		ldr	r6, [r4, #2076]
 1895 00fa 26EA0202 		bic	r2, r6, r2
 1896 00fe C4F81C28 		str	r2, [r4, #2076]
 1897 0102 B2E7     		b	.L183
 1898              	.L184:
 1899              		.loc 1 1059 0
 1900 0104 05F13F03 		add	r3, r5, #63
 1901 0108 04EB8303 		add	r3, r4, r3, lsl #2
 1902 010c 124A     		ldr	r2, .L193+8
 1903 010e 5A60     		str	r2, [r3, #4]
 1904              	.LVL174:
 1905              	.LBB616:
 1906              	.LBB617:
 1907              		.loc 1 182 0
 1908 0110 2161     		str	r1, [r4, #16]
 1909              	.L188:
 1910              		.loc 1 183 0
 1911 0112 2369     		ldr	r3, [r4, #16]
 1912 0114 9B06     		lsls	r3, r3, #26
 1913 0116 FCD4     		bmi	.L188
 1914              	.LVL175:
 1915 0118 04EB4818 		add	r8, r4, r8, lsl #5
 1916              	.LBB618:
 1917              	.LBB619:
 1918              		.loc 4 573 0
 1919 011c 0C20     		movs	r0, #12
 1920              	.LVL176:
 1921 011e FFF7FEFF 		bl	chSysPolledDelayX
 1922              	.LVL177:
 1923              	.LBE619:
 1924              	.LBE618:
 1925              	.LBE617:
 1926              	.LBE616:
 1927              		.loc 1 1061 0
 1928 0122 D8F80039 		ldr	r3, [r8, #2304]
 1929 0126 23F40043 		bic	r3, r3, #32768
 1930 012a C8F80039 		str	r3, [r8, #2304]
 1931              		.loc 1 1062 0
 1932 012e D4F81C38 		ldr	r3, [r4, #2076]
 1933 0132 0121     		movs	r1, #1
 1934 0134 01FA05F5 		lsl	r5, r1, r5
 1935 0138 23EA0505 		bic	r5, r3, r5
 1936 013c C4F81C58 		str	r5, [r4, #2076]
 1937              		.loc 1 1064 0
 1938 0140 BDE8F883 		pop	{r3, r4, r5, r6, r7, r8, r9, pc}
ARM GAS  /tmp/ccH4KobB.s 			page 35


 1939              	.LVL178:
 1940              	.L180:
 1941              		.loc 1 1025 0
 1942 0144 DFF81490 		ldr	r9, .L193+12
 1943              		.loc 1 1026 0
 1944 0148 71E7     		b	.L181
 1945              	.LVL179:
 1946              	.L179:
 1947              		.loc 1 1022 0
 1948 014a DFF81490 		ldr	r9, .L193+16
 1949              		.loc 1 1023 0
 1950 014e 6EE7     		b	.L181
 1951              	.L194:
 1952              		.align	2
 1953              	.L193:
 1954 0150 00800410 		.word	268730368
 1955 0154 00800010 		.word	268468224
 1956 0158 00040002 		.word	33555456
 1957 015c 00800C10 		.word	269254656
 1958 0160 00800810 		.word	268992512
 1959              		.cfi_endproc
 1960              	.LFE279:
 1961              		.size	usb_lld_init_endpoint, .-usb_lld_init_endpoint
 1962              		.section	.text.usb_lld_disable_endpoints,"ax",%progbits
 1963              		.align	1
 1964              		.p2align 4,,15
 1965              		.global	usb_lld_disable_endpoints
 1966              		.syntax unified
 1967              		.thumb
 1968              		.thumb_func
 1969              		.fpu fpv4-sp-d16
 1970              		.type	usb_lld_disable_endpoints, %function
 1971              	usb_lld_disable_endpoints:
 1972              	.LFB280:
 1973              		.loc 1 1073 0
 1974              		.cfi_startproc
 1975              		@ args = 0, pretend = 0, frame = 0
 1976              		@ frame_needed = 0, uses_anonymous_args = 0
 1977              		@ link register save eliminated.
 1978              	.LVL180:
 1979              		.loc 1 1073 0
 1980 0000 0346     		mov	r3, r0
 1981              		.loc 1 1079 0
 1982 0002 D0E91401 		ldrd	r0, r1, [r0, #80]
 1983              	.LVL181:
 1984              	.LBB620:
 1985              	.LBB621:
 1986              		.loc 1 198 0
 1987 0006 0A68     		ldr	r2, [r1]
 1988 0008 9A65     		str	r2, [r3, #88]
 1989              	.LBE621:
 1990              	.LBE620:
 1991              		.loc 1 1079 0
 1992 000a FFF7FEBF 		b	otg_disable_ep.isra.0
 1993              	.LVL182:
 1994              		.cfi_endproc
 1995              	.LFE280:
ARM GAS  /tmp/ccH4KobB.s 			page 36


 1996              		.size	usb_lld_disable_endpoints, .-usb_lld_disable_endpoints
 1997 000e 00BF     		.section	.text.usb_lld_get_status_out,"ax",%progbits
 1998              		.align	1
 1999              		.p2align 4,,15
 2000              		.global	usb_lld_get_status_out
 2001              		.syntax unified
 2002              		.thumb
 2003              		.thumb_func
 2004              		.fpu fpv4-sp-d16
 2005              		.type	usb_lld_get_status_out, %function
 2006              	usb_lld_get_status_out:
 2007              	.LFB281:
 2008              		.loc 1 1094 0
 2009              		.cfi_startproc
 2010              		@ args = 0, pretend = 0, frame = 0
 2011              		@ frame_needed = 0, uses_anonymous_args = 0
 2012              		@ link register save eliminated.
 2013              	.LVL183:
 2014              		.loc 1 1099 0
 2015 0000 5831     		adds	r1, r1, #88
 2016              	.LVL184:
 2017 0002 036D     		ldr	r3, [r0, #80]
 2018 0004 4901     		lsls	r1, r1, #5
 2019 0006 5B58     		ldr	r3, [r3, r1]
 2020              	.LVL185:
 2021              		.loc 1 1100 0
 2022 0008 13F40040 		ands	r0, r3, #32768
 2023              	.LVL186:
 2024 000c 04D0     		beq	.L197
 2025              		.loc 1 1102 0
 2026 000e 13F4001F 		tst	r3, #2097152
 2027              		.loc 1 1104 0
 2028 0012 14BF     		ite	ne
 2029 0014 0120     		movne	r0, #1
 2030 0016 0220     		moveq	r0, #2
 2031              	.L197:
 2032              		.loc 1 1105 0
 2033 0018 7047     		bx	lr
 2034              		.cfi_endproc
 2035              	.LFE281:
 2036              		.size	usb_lld_get_status_out, .-usb_lld_get_status_out
 2037 001a 00BF     		.section	.text.usb_lld_get_status_in,"ax",%progbits
 2038              		.align	1
 2039              		.p2align 4,,15
 2040              		.global	usb_lld_get_status_in
 2041              		.syntax unified
 2042              		.thumb
 2043              		.thumb_func
 2044              		.fpu fpv4-sp-d16
 2045              		.type	usb_lld_get_status_in, %function
 2046              	usb_lld_get_status_in:
 2047              	.LFB282:
 2048              		.loc 1 1119 0
 2049              		.cfi_startproc
 2050              		@ args = 0, pretend = 0, frame = 0
 2051              		@ frame_needed = 0, uses_anonymous_args = 0
 2052              		@ link register save eliminated.
ARM GAS  /tmp/ccH4KobB.s 			page 37


 2053              	.LVL187:
 2054              		.loc 1 1124 0
 2055 0000 4831     		adds	r1, r1, #72
 2056              	.LVL188:
 2057 0002 036D     		ldr	r3, [r0, #80]
 2058 0004 4901     		lsls	r1, r1, #5
 2059 0006 5B58     		ldr	r3, [r3, r1]
 2060              	.LVL189:
 2061              		.loc 1 1125 0
 2062 0008 13F40040 		ands	r0, r3, #32768
 2063              	.LVL190:
 2064 000c 04D0     		beq	.L201
 2065              		.loc 1 1127 0
 2066 000e 13F4001F 		tst	r3, #2097152
 2067              		.loc 1 1129 0
 2068 0012 14BF     		ite	ne
 2069 0014 0120     		movne	r0, #1
 2070 0016 0220     		moveq	r0, #2
 2071              	.L201:
 2072              		.loc 1 1130 0
 2073 0018 7047     		bx	lr
 2074              		.cfi_endproc
 2075              	.LFE282:
 2076              		.size	usb_lld_get_status_in, .-usb_lld_get_status_in
 2077 001a 00BF     		.section	.text.usb_lld_read_setup,"ax",%progbits
 2078              		.align	1
 2079              		.p2align 4,,15
 2080              		.global	usb_lld_read_setup
 2081              		.syntax unified
 2082              		.thumb
 2083              		.thumb_func
 2084              		.fpu fpv4-sp-d16
 2085              		.type	usb_lld_read_setup, %function
 2086              	usb_lld_read_setup:
 2087              	.LFB283:
 2088              		.loc 1 1146 0
 2089              		.cfi_startproc
 2090              		@ args = 0, pretend = 0, frame = 0
 2091              		@ frame_needed = 0, uses_anonymous_args = 0
 2092              		@ link register save eliminated.
 2093              	.LVL191:
 2094              		.loc 1 1148 0
 2095 0000 00EB8101 		add	r1, r0, r1, lsl #2
 2096              	.LVL192:
 2097 0004 CB68     		ldr	r3, [r1, #12]
 2098 0006 1B6A     		ldr	r3, [r3, #32]
 2099 0008 1968     		ldr	r1, [r3]	@ unaligned
 2100 000a 5B68     		ldr	r3, [r3, #4]	@ unaligned
 2101 000c 5360     		str	r3, [r2, #4]	@ unaligned
 2102 000e 1160     		str	r1, [r2]	@ unaligned
 2103              		.loc 1 1149 0
 2104 0010 7047     		bx	lr
 2105              		.cfi_endproc
 2106              	.LFE283:
 2107              		.size	usb_lld_read_setup, .-usb_lld_read_setup
 2108 0012 00BF     		.section	.text.usb_lld_prepare_receive,"ax",%progbits
 2109              		.align	1
ARM GAS  /tmp/ccH4KobB.s 			page 38


 2110              		.p2align 4,,15
 2111              		.global	usb_lld_prepare_receive
 2112              		.syntax unified
 2113              		.thumb
 2114              		.thumb_func
 2115              		.fpu fpv4-sp-d16
 2116              		.type	usb_lld_prepare_receive, %function
 2117              	usb_lld_prepare_receive:
 2118              	.LFB284:
 2119              		.loc 1 1159 0
 2120              		.cfi_startproc
 2121              		@ args = 0, pretend = 0, frame = 0
 2122              		@ frame_needed = 0, uses_anonymous_args = 0
 2123              		@ link register save eliminated.
 2124              	.LVL193:
 2125              		.loc 1 1161 0
 2126 0000 00EB8103 		add	r3, r0, r1, lsl #2
 2127              		.loc 1 1159 0
 2128 0004 70B4     		push	{r4, r5, r6}
 2129              		.cfi_def_cfa_offset 12
 2130              		.cfi_offset 4, -12
 2131              		.cfi_offset 5, -8
 2132              		.cfi_offset 6, -4
 2133              		.loc 1 1161 0
 2134 0006 DE68     		ldr	r6, [r3, #12]
 2135 0008 B569     		ldr	r5, [r6, #24]
 2136              	.LVL194:
 2137              		.loc 1 1164 0
 2138 000a 6A68     		ldr	r2, [r5, #4]
 2139 000c 2A61     		str	r2, [r5, #16]
 2140              		.loc 1 1165 0
 2141 000e 29B9     		cbnz	r1, .L210
 2142              		.loc 1 1165 0 is_stmt 0 discriminator 1
 2143 0010 402A     		cmp	r2, #64
 2144 0012 03D9     		bls	.L210
 2145              		.loc 1 1166 0 is_stmt 1
 2146 0014 4022     		movs	r2, #64
 2147 0016 094C     		ldr	r4, .L211
 2148 0018 6A60     		str	r2, [r5, #4]
 2149 001a 01E0     		b	.L207
 2150              	.L210:
 2151 001c 42F0C044 		orr	r4, r2, #1610612736
 2152              	.L207:
 2153              		.loc 1 1168 0
 2154 0020 758A     		ldrh	r5, [r6, #18]
 2155              	.LVL195:
 2156              		.loc 1 1170 0
 2157 0022 006D     		ldr	r0, [r0, #80]
 2158              	.LVL196:
 2159              		.loc 1 1168 0
 2160 0024 6B1E     		subs	r3, r5, #1
 2161              		.loc 1 1170 0
 2162 0026 00EB4111 		add	r1, r0, r1, lsl #5
 2163              	.LVL197:
 2164              		.loc 1 1168 0
 2165 002a 1344     		add	r3, r3, r2
 2166 002c B3FBF5F3 		udiv	r3, r3, r5
ARM GAS  /tmp/ccH4KobB.s 			page 39


 2167              		.loc 1 1170 0
 2168 0030 44EAC343 		orr	r3, r4, r3, lsl #19
 2169 0034 C1F8103B 		str	r3, [r1, #2832]
 2170              		.loc 1 1173 0
 2171 0038 70BC     		pop	{r4, r5, r6}
 2172              		.cfi_restore 6
 2173              		.cfi_restore 5
 2174              		.cfi_restore 4
 2175              		.cfi_def_cfa_offset 0
 2176              	.LVL198:
 2177 003a 7047     		bx	lr
 2178              	.L212:
 2179              		.align	2
 2180              	.L211:
 2181 003c 40000060 		.word	1610612800
 2182              		.cfi_endproc
 2183              	.LFE284:
 2184              		.size	usb_lld_prepare_receive, .-usb_lld_prepare_receive
 2185              		.section	.text.otg_epout_handler.constprop.7,"ax",%progbits
 2186              		.align	1
 2187              		.p2align 4,,15
 2188              		.syntax unified
 2189              		.thumb
 2190              		.thumb_func
 2191              		.fpu fpv4-sp-d16
 2192              		.type	otg_epout_handler.constprop.7, %function
 2193              	otg_epout_handler.constprop.7:
 2194              	.LFB300:
 2195              		.loc 1 581 0
 2196              		.cfi_startproc
 2197              		@ args = 0, pretend = 0, frame = 0
 2198              		@ frame_needed = 0, uses_anonymous_args = 0
 2199              	.LVL199:
 2200 0000 2DE9F041 		push	{r4, r5, r6, r7, r8, lr}
 2201              		.cfi_def_cfa_offset 24
 2202              		.cfi_offset 4, -24
 2203              		.cfi_offset 5, -20
 2204              		.cfi_offset 6, -16
 2205              		.cfi_offset 7, -12
 2206              		.cfi_offset 8, -8
 2207              		.cfi_offset 14, -4
 2208              		.loc 1 582 0
 2209 0004 244E     		ldr	r6, .L231
 2210 0006 376D     		ldr	r7, [r6, #80]
 2211              	.LVL200:
 2212              		.loc 1 583 0
 2213 0008 07EB4013 		add	r3, r7, r0, lsl #5
 2214              		.loc 1 581 0
 2215 000c 0546     		mov	r5, r0
 2216              		.loc 1 583 0
 2217 000e D3F8084B 		ldr	r4, [r3, #2824]
 2218              	.LVL201:
 2219              		.loc 1 586 0
 2220 0012 C3F8084B 		str	r4, [r3, #2824]
 2221              		.loc 1 588 0
 2222 0016 2007     		lsls	r0, r4, #28
 2223              	.LVL202:
ARM GAS  /tmp/ccH4KobB.s 			page 40


 2224 0018 0AD5     		bpl	.L214
 2225 001a D7F81438 		ldr	r3, [r7, #2068]
 2226 001e 1907     		lsls	r1, r3, #28
 2227 0020 06D5     		bpl	.L214
 2228              		.loc 1 591 0
 2229 0022 06EB8503 		add	r3, r6, r5, lsl #2
 2230 0026 2946     		mov	r1, r5
 2231 0028 DB68     		ldr	r3, [r3, #12]
 2232 002a 3046     		mov	r0, r6
 2233 002c 5B68     		ldr	r3, [r3, #4]
 2234 002e 9847     		blx	r3
 2235              	.LVL203:
 2236              	.L214:
 2237              		.loc 1 594 0
 2238 0030 E207     		lsls	r2, r4, #31
 2239 0032 2ED5     		bpl	.L213
 2240 0034 D7F81438 		ldr	r3, [r7, #2068]
 2241 0038 DB07     		lsls	r3, r3, #31
 2242 003a 2AD5     		bpl	.L213
 2243              	.LBB622:
 2244              		.loc 1 596 0
 2245 003c 06EB8503 		add	r3, r6, r5, lsl #2
 2246 0040 D968     		ldr	r1, [r3, #12]
 2247 0042 8B69     		ldr	r3, [r1, #24]
 2248              	.LVL204:
 2249              		.loc 1 598 0
 2250 0044 5868     		ldr	r0, [r3, #4]
 2251 0046 1A69     		ldr	r2, [r3, #16]
 2252 0048 9042     		cmp	r0, r2
 2253 004a 0CD3     		bcc	.L230
 2254              		.loc 1 611 0
 2255 004c 7389     		ldrh	r3, [r6, #10]
 2256              	.LVL205:
 2257 004e CC68     		ldr	r4, [r1, #12]
 2258              	.LVL206:
 2259 0050 1148     		ldr	r0, .L231
 2260 0052 0122     		movs	r2, #1
 2261 0054 AA40     		lsls	r2, r2, r5
 2262 0056 23EA0203 		bic	r3, r3, r2
 2263 005a 7381     		strh	r3, [r6, #10]	@ movhi
 2264 005c 2946     		mov	r1, r5
 2265              	.LVL207:
 2266 005e 2346     		mov	r3, r4
 2267              	.LBE622:
 2268              		.loc 1 614 0
 2269 0060 BDE8F041 		pop	{r4, r5, r6, r7, r8, lr}
 2270              		.cfi_remember_state
 2271              		.cfi_restore 14
 2272              		.cfi_restore 8
 2273              		.cfi_restore 7
 2274              		.cfi_restore 6
 2275              		.cfi_restore 5
 2276              		.cfi_restore 4
 2277              		.cfi_def_cfa_offset 0
 2278              	.LVL208:
 2279              	.LBB635:
 2280              		.loc 1 611 0
ARM GAS  /tmp/ccH4KobB.s 			page 41


 2281 0064 1847     		bx	r3	@ indirect register sibling call
 2282              	.LVL209:
 2283              	.L230:
 2284              		.cfi_restore_state
 2285              		.loc 1 602 0
 2286 0066 121A     		subs	r2, r2, r0
 2287              		.loc 1 603 0
 2288 0068 0024     		movs	r4, #0
 2289              	.LVL210:
 2290 006a C3E90124 		strd	r2, r4, [r3, #4]
 2291              		.loc 1 604 0
 2292 006e 2946     		mov	r1, r5
 2293 0070 0948     		ldr	r0, .L231
 2294 0072 FFF7FEFF 		bl	usb_lld_prepare_receive
 2295              	.LVL211:
 2296              	.LBB623:
 2297              	.LBB624:
 2298              	.LBB625:
 2299              	.LBB626:
 2300              	.LBB627:
 2301              		.loc 3 546 0
 2302 0076 2023     		movs	r3, #32
 2303              		.syntax unified
 2304              	@ 546 "ChibiOS_3.0.2/os/ext/CMSIS/include/core_cmFunc.h" 1
 2305 0078 83F31188 		MSR basepri, r3
 2306              	@ 0 "" 2
 2307              	.LVL212:
 2308              		.thumb
 2309              		.syntax unified
 2310 007c 336D     		ldr	r3, [r6, #80]
 2311 007e 03EB4515 		add	r5, r3, r5, lsl #5
 2312              	.LVL213:
 2313              	.LBE627:
 2314              	.LBE626:
 2315              	.LBE625:
 2316              	.LBE624:
 2317              	.LBE623:
 2318              	.LBB628:
 2319              	.LBB629:
 2320              		.loc 1 1214 0
 2321 0082 D5F8003B 		ldr	r3, [r5, #2816]
 2322 0086 43F08063 		orr	r3, r3, #67108864
 2323 008a C5F8003B 		str	r3, [r5, #2816]
 2324              	.LVL214:
 2325              	.LBE629:
 2326              	.LBE628:
 2327              	.LBB630:
 2328              	.LBB631:
 2329              	.LBB632:
 2330              	.LBB633:
 2331              	.LBB634:
 2332              		.loc 3 546 0
 2333              		.syntax unified
 2334              	@ 546 "ChibiOS_3.0.2/os/ext/CMSIS/include/core_cmFunc.h" 1
 2335 008e 84F31188 		MSR basepri, r4
 2336              	@ 0 "" 2
 2337              	.LVL215:
ARM GAS  /tmp/ccH4KobB.s 			page 42


 2338              		.thumb
 2339              		.syntax unified
 2340              	.L213:
 2341              	.LBE634:
 2342              	.LBE633:
 2343              	.LBE632:
 2344              	.LBE631:
 2345              	.LBE630:
 2346              	.LBE635:
 2347              		.loc 1 614 0
 2348 0092 BDE8F081 		pop	{r4, r5, r6, r7, r8, pc}
 2349              	.LVL216:
 2350              	.L232:
 2351 0096 00BF     		.align	2
 2352              	.L231:
 2353 0098 00000000 		.word	.LANCHOR0
 2354              		.cfi_endproc
 2355              	.LFE300:
 2356              		.size	otg_epout_handler.constprop.7, .-otg_epout_handler.constprop.7
 2357              		.section	.text.usb_lld_prepare_transmit,"ax",%progbits
 2358              		.align	1
 2359              		.p2align 4,,15
 2360              		.global	usb_lld_prepare_transmit
 2361              		.syntax unified
 2362              		.thumb
 2363              		.thumb_func
 2364              		.fpu fpv4-sp-d16
 2365              		.type	usb_lld_prepare_transmit, %function
 2366              	usb_lld_prepare_transmit:
 2367              	.LFB285:
 2368              		.loc 1 1183 0
 2369              		.cfi_startproc
 2370              		@ args = 0, pretend = 0, frame = 0
 2371              		@ frame_needed = 0, uses_anonymous_args = 0
 2372              		@ link register save eliminated.
 2373              	.LVL217:
 2374              		.loc 1 1184 0
 2375 0000 00EB8103 		add	r3, r0, r1, lsl #2
 2376              		.loc 1 1183 0
 2377 0004 10B4     		push	{r4}
 2378              		.cfi_def_cfa_offset 4
 2379              		.cfi_offset 4, -4
 2380              		.loc 1 1184 0
 2381 0006 DC68     		ldr	r4, [r3, #12]
 2382 0008 026D     		ldr	r2, [r0, #80]
 2383 000a 6069     		ldr	r0, [r4, #20]
 2384              	.LVL218:
 2385              		.loc 1 1187 0
 2386 000c 4368     		ldr	r3, [r0, #4]
 2387 000e 0361     		str	r3, [r0, #16]
 2388              		.loc 1 1188 0
 2389 0010 9BB1     		cbz	r3, .L238
 2390              	.LBB636:
 2391              		.loc 1 1193 0
 2392 0012 69B1     		cbz	r1, .L239
 2393              	.L236:
 2394              		.loc 1 1197 0
ARM GAS  /tmp/ccH4KobB.s 			page 43


 2395 0014 208A     		ldrh	r0, [r4, #16]
 2396              	.LVL219:
 2397              	.LBE636:
 2398              		.loc 1 1202 0
 2399 0016 5DF8044B 		ldr	r4, [sp], #4
 2400              		.cfi_remember_state
 2401              		.cfi_restore 4
 2402              		.cfi_def_cfa_offset 0
 2403              	.LVL220:
 2404              	.LBB637:
 2405              		.loc 1 1199 0
 2406 001a 02EB4112 		add	r2, r2, r1, lsl #5
 2407              		.loc 1 1197 0
 2408 001e 411E     		subs	r1, r0, #1
 2409              	.LVL221:
 2410 0020 1944     		add	r1, r1, r3
 2411 0022 B1FBF0F1 		udiv	r1, r1, r0
 2412              		.loc 1 1199 0
 2413 0026 43EAC143 		orr	r3, r3, r1, lsl #19
 2414              	.LVL222:
 2415 002a C2F81039 		str	r3, [r2, #2320]
 2416              	.LBE637:
 2417              		.loc 1 1202 0
 2418 002e 7047     		bx	lr
 2419              	.LVL223:
 2420              	.L239:
 2421              		.cfi_restore_state
 2422              	.LBB638:
 2423              		.loc 1 1193 0 discriminator 1
 2424 0030 402B     		cmp	r3, #64
 2425              		.loc 1 1194 0 discriminator 1
 2426 0032 84BF     		itt	hi
 2427 0034 4023     		movhi	r3, #64
 2428 0036 4360     		strhi	r3, [r0, #4]
 2429 0038 ECE7     		b	.L236
 2430              	.L238:
 2431              	.LBE638:
 2432              		.loc 1 1190 0
 2433 003a 02EB4112 		add	r2, r2, r1, lsl #5
 2434 003e 4FF40023 		mov	r3, #524288
 2435 0042 C2F81039 		str	r3, [r2, #2320]
 2436              		.loc 1 1202 0
 2437 0046 5DF8044B 		ldr	r4, [sp], #4
 2438              		.cfi_restore 4
 2439              		.cfi_def_cfa_offset 0
 2440 004a 7047     		bx	lr
 2441              		.cfi_endproc
 2442              	.LFE285:
 2443              		.size	usb_lld_prepare_transmit, .-usb_lld_prepare_transmit
 2444              		.section	.text.otg_epin_handler.constprop.8,"ax",%progbits
 2445              		.align	1
 2446              		.p2align 4,,15
 2447              		.syntax unified
 2448              		.thumb
 2449              		.thumb_func
 2450              		.fpu fpv4-sp-d16
 2451              		.type	otg_epin_handler.constprop.8, %function
ARM GAS  /tmp/ccH4KobB.s 			page 44


 2452              	otg_epin_handler.constprop.8:
 2453              	.LFB299:
 2454              		.loc 1 533 0
 2455              		.cfi_startproc
 2456              		@ args = 0, pretend = 0, frame = 0
 2457              		@ frame_needed = 0, uses_anonymous_args = 0
 2458              	.LVL224:
 2459 0000 2DE9F041 		push	{r4, r5, r6, r7, r8, lr}
 2460              		.cfi_def_cfa_offset 24
 2461              		.cfi_offset 4, -24
 2462              		.cfi_offset 5, -20
 2463              		.cfi_offset 6, -16
 2464              		.cfi_offset 7, -12
 2465              		.cfi_offset 8, -8
 2466              		.cfi_offset 14, -4
 2467              		.loc 1 534 0
 2468 0004 304E     		ldr	r6, .L259
 2469 0006 356D     		ldr	r5, [r6, #80]
 2470              	.LVL225:
 2471              		.loc 1 535 0
 2472 0008 05EB4013 		add	r3, r5, r0, lsl #5
 2473              		.loc 1 533 0
 2474 000c 0746     		mov	r7, r0
 2475              		.loc 1 535 0
 2476 000e D3F80849 		ldr	r4, [r3, #2312]
 2477              	.LVL226:
 2478              		.loc 1 537 0
 2479 0012 C3F80849 		str	r4, [r3, #2312]
 2480              		.loc 1 542 0
 2481 0016 E107     		lsls	r1, r4, #31
 2482 0018 16D5     		bpl	.L241
 2483 001a D5F81038 		ldr	r3, [r5, #2064]
 2484 001e DA07     		lsls	r2, r3, #31
 2485 0020 12D5     		bpl	.L241
 2486              	.LBB639:
 2487              		.loc 1 544 0
 2488 0022 06EB8003 		add	r3, r6, r0, lsl #2
 2489 0026 D968     		ldr	r1, [r3, #12]
 2490 0028 4B69     		ldr	r3, [r1, #20]
 2491              	.LVL227:
 2492              		.loc 1 546 0
 2493 002a 5868     		ldr	r0, [r3, #4]
 2494              	.LVL228:
 2495 002c 1A69     		ldr	r2, [r3, #16]
 2496 002e 9042     		cmp	r0, r2
 2497 0030 2AD3     		bcc	.L257
 2498              		.loc 1 559 0
 2499 0032 3389     		ldrh	r3, [r6, #8]
 2500              	.LVL229:
 2501 0034 D1F80880 		ldr	r8, [r1, #8]
 2502 0038 0122     		movs	r2, #1
 2503 003a BA40     		lsls	r2, r2, r7
 2504 003c 23EA0203 		bic	r3, r3, r2
 2505 0040 3381     		strh	r3, [r6, #8]	@ movhi
 2506 0042 3946     		mov	r1, r7
 2507              	.LVL230:
 2508 0044 3046     		mov	r0, r6
ARM GAS  /tmp/ccH4KobB.s 			page 45


 2509 0046 C047     		blx	r8
 2510              	.LVL231:
 2511              	.L241:
 2512              	.LBE639:
 2513              		.loc 1 562 0
 2514 0048 2306     		lsls	r3, r4, #24
 2515 004a 06D5     		bpl	.L240
 2516              		.loc 1 563 0
 2517 004c 0123     		movs	r3, #1
 2518 004e D5F83428 		ldr	r2, [r5, #2100]
 2519 0052 03FA07F7 		lsl	r7, r3, r7
 2520              		.loc 1 562 0
 2521 0056 1742     		tst	r7, r2
 2522 0058 01D1     		bne	.L258
 2523              	.L240:
 2524              		.loc 1 571 0
 2525 005a BDE8F081 		pop	{r4, r5, r6, r7, r8, pc}
 2526              	.LVL232:
 2527              	.L258:
 2528              	.LBB654:
 2529              	.LBB655:
 2530              	.LBB656:
 2531              	.LBB657:
 2532              	.LBB658:
 2533              	.LBB659:
 2534              		.loc 3 546 0
 2535 005e 2023     		movs	r3, #32
 2536              		.syntax unified
 2537              	@ 546 "ChibiOS_3.0.2/os/ext/CMSIS/include/core_cmFunc.h" 1
 2538 0060 83F31188 		MSR basepri, r3
 2539              	@ 0 "" 2
 2540              	.LVL233:
 2541              		.thumb
 2542              		.syntax unified
 2543              	.LBE659:
 2544              	.LBE658:
 2545              	.LBE657:
 2546              	.LBE656:
 2547              	.LBE655:
 2548              	.LBE654:
 2549              		.loc 1 567 0
 2550 0064 D5F83428 		ldr	r2, [r5, #2100]
 2551              		.loc 1 566 0
 2552 0068 F36D     		ldr	r3, [r6, #92]
 2553              	.LBB660:
 2554              	.LBB661:
 2555              		.loc 4 728 0
 2556 006a 1848     		ldr	r0, .L259+4
 2557              	.LBE661:
 2558              	.LBE660:
 2559              		.loc 1 567 0
 2560 006c 22EA0702 		bic	r2, r2, r7
 2561 0070 C5F83428 		str	r2, [r5, #2100]
 2562              	.LVL234:
 2563              		.loc 1 566 0
 2564 0074 1F43     		orrs	r7, r7, r3
 2565              	.LBB664:
ARM GAS  /tmp/ccH4KobB.s 			page 46


 2566              	.LBB662:
 2567              		.loc 4 728 0
 2568 0076 0021     		movs	r1, #0
 2569              	.LBE662:
 2570              	.LBE664:
 2571              		.loc 1 566 0
 2572 0078 F765     		str	r7, [r6, #92]
 2573              	.LBB665:
 2574              	.LBB663:
 2575              		.loc 4 728 0
 2576 007a FFF7FEFF 		bl	chThdResumeI
 2577              	.LVL235:
 2578              	.LBE663:
 2579              	.LBE665:
 2580              	.LBB666:
 2581              	.LBB667:
 2582              	.LBB668:
 2583              	.LBB669:
 2584              	.LBB670:
 2585              	.LBB671:
 2586              		.loc 3 546 0
 2587 007e 0023     		movs	r3, #0
 2588              		.syntax unified
 2589              	@ 546 "ChibiOS_3.0.2/os/ext/CMSIS/include/core_cmFunc.h" 1
 2590 0080 83F31188 		MSR basepri, r3
 2591              	@ 0 "" 2
 2592              	.LVL236:
 2593              		.thumb
 2594              		.syntax unified
 2595              	.LBE671:
 2596              	.LBE670:
 2597              	.LBE669:
 2598              	.LBE668:
 2599              	.LBE667:
 2600              	.LBE666:
 2601              		.loc 1 571 0
 2602 0084 BDE8F081 		pop	{r4, r5, r6, r7, r8, pc}
 2603              	.LVL237:
 2604              	.L257:
 2605              	.LBB672:
 2606              		.loc 1 550 0
 2607 0088 121A     		subs	r2, r2, r0
 2608              		.loc 1 551 0
 2609 008a 4FF00008 		mov	r8, #0
 2610 008e C3E90128 		strd	r2, r8, [r3, #4]
 2611              		.loc 1 552 0
 2612 0092 3946     		mov	r1, r7
 2613 0094 3046     		mov	r0, r6
 2614 0096 FFF7FEFF 		bl	usb_lld_prepare_transmit
 2615              	.LVL238:
 2616              	.LBB640:
 2617              	.LBB641:
 2618              	.LBB642:
 2619              	.LBB643:
 2620              	.LBB644:
 2621              	.LBB645:
 2622              		.loc 3 546 0
ARM GAS  /tmp/ccH4KobB.s 			page 47


 2623 009a 2023     		movs	r3, #32
 2624              		.syntax unified
 2625              	@ 546 "ChibiOS_3.0.2/os/ext/CMSIS/include/core_cmFunc.h" 1
 2626 009c 83F31188 		MSR basepri, r3
 2627              	@ 0 "" 2
 2628              	.LVL239:
 2629              		.thumb
 2630              		.syntax unified
 2631              	.LBE645:
 2632              	.LBE644:
 2633              	.LBE643:
 2634              	.LBE642:
 2635              	.LBE641:
 2636              	.LBE640:
 2637              	.LBB646:
 2638              	.LBB647:
 2639              		.loc 1 1227 0
 2640 00a0 326D     		ldr	r2, [r6, #80]
 2641 00a2 02EB4710 		add	r0, r2, r7, lsl #5
 2642              		.loc 1 1228 0
 2643 00a6 0123     		movs	r3, #1
 2644              		.loc 1 1227 0
 2645 00a8 D0F80019 		ldr	r1, [r0, #2304]
 2646 00ac 41F00441 		orr	r1, r1, #-2080374784
 2647 00b0 C0F80019 		str	r1, [r0, #2304]
 2648              		.loc 1 1228 0
 2649 00b4 D2F83418 		ldr	r1, [r2, #2100]
 2650 00b8 BB40     		lsls	r3, r3, r7
 2651 00ba 0B43     		orrs	r3, r3, r1
 2652 00bc C2F83438 		str	r3, [r2, #2100]
 2653              	.LVL240:
 2654              	.LBE647:
 2655              	.LBE646:
 2656              	.LBB648:
 2657              	.LBB649:
 2658              	.LBB650:
 2659              	.LBB651:
 2660              	.LBB652:
 2661              	.LBB653:
 2662              		.loc 3 546 0
 2663              		.syntax unified
 2664              	@ 546 "ChibiOS_3.0.2/os/ext/CMSIS/include/core_cmFunc.h" 1
 2665 00c0 88F31188 		MSR basepri, r8
 2666              	@ 0 "" 2
 2667              	.LVL241:
 2668              		.thumb
 2669              		.syntax unified
 2670 00c4 C0E7     		b	.L241
 2671              	.L260:
 2672 00c6 00BF     		.align	2
 2673              	.L259:
 2674 00c8 00000000 		.word	.LANCHOR0
 2675 00cc 60000000 		.word	.LANCHOR0+96
 2676              	.LBE653:
 2677              	.LBE652:
 2678              	.LBE651:
 2679              	.LBE650:
ARM GAS  /tmp/ccH4KobB.s 			page 48


 2680              	.LBE649:
 2681              	.LBE648:
 2682              	.LBE672:
 2683              		.cfi_endproc
 2684              	.LFE299:
 2685              		.size	otg_epin_handler.constprop.8, .-otg_epin_handler.constprop.8
 2686              		.section	.text.Vector14C,"ax",%progbits
 2687              		.align	1
 2688              		.p2align 4,,15
 2689              		.global	Vector14C
 2690              		.syntax unified
 2691              		.thumb
 2692              		.thumb_func
 2693              		.fpu fpv4-sp-d16
 2694              		.type	Vector14C, %function
 2695              	Vector14C:
 2696              	.LFB273:
 2697              		.loc 1 706 0
 2698              		.cfi_startproc
 2699              		@ args = 0, pretend = 0, frame = 0
 2700              		@ frame_needed = 0, uses_anonymous_args = 0
 2701              	.LVL242:
 2702 0000 70B5     		push	{r4, r5, r6, lr}
 2703              		.cfi_def_cfa_offset 16
 2704              		.cfi_offset 4, -16
 2705              		.cfi_offset 5, -12
 2706              		.cfi_offset 6, -8
 2707              		.cfi_offset 14, -4
 2708              	.LBB689:
 2709              	.LBB690:
 2710              		.loc 1 624 0
 2711 0002 3A4D     		ldr	r5, .L330
 2712 0004 2E6D     		ldr	r6, [r5, #80]
 2713              	.LVL243:
 2714              		.loc 1 627 0
 2715 0006 7469     		ldr	r4, [r6, #20]
 2716              	.LVL244:
 2717              		.loc 1 628 0
 2718 0008 B369     		ldr	r3, [r6, #24]
 2719 000a 1C40     		ands	r4, r4, r3
 2720              	.LVL245:
 2721              		.loc 1 632 0
 2722 000c E104     		lsls	r1, r4, #19
 2723              		.loc 1 629 0
 2724 000e 7461     		str	r4, [r6, #20]
 2725              		.loc 1 632 0
 2726 0010 26D4     		bmi	.L320
 2727              	.L263:
 2728              		.loc 1 638 0
 2729 0012 A204     		lsls	r2, r4, #18
 2730              		.loc 1 639 0
 2731 0014 48BF     		it	mi
 2732 0016 D6F80838 		ldrmi	r3, [r6, #2056]
 2733              		.loc 1 643 0
 2734 001a 2307     		lsls	r3, r4, #28
 2735 001c 04D5     		bpl	.L266
 2736              		.loc 1 644 0
ARM GAS  /tmp/ccH4KobB.s 			page 49


 2737 001e 6B68     		ldr	r3, [r5, #4]
 2738 0020 DB68     		ldr	r3, [r3, #12]
 2739 0022 0BB1     		cbz	r3, .L266
 2740 0024 3148     		ldr	r0, .L330
 2741 0026 9847     		blx	r3
 2742              	.LVL246:
 2743              	.L266:
 2744              		.loc 1 648 0
 2745 0028 E506     		lsls	r5, r4, #27
 2746 002a 24D4     		bmi	.L321
 2747              	.L267:
 2748              		.loc 1 659 0
 2749 002c 6003     		lsls	r0, r4, #13
 2750              		.loc 1 658 0
 2751 002e D6F81858 		ldr	r5, [r6, #2072]
 2752              	.LVL247:
 2753              		.loc 1 659 0
 2754 0032 07D5     		bpl	.L269
 2755              		.loc 1 660 0
 2756 0034 E907     		lsls	r1, r5, #31
 2757 0036 4FD4     		bmi	.L322
 2758              		.loc 1 662 0
 2759 0038 AA07     		lsls	r2, r5, #30
 2760 003a 42D4     		bmi	.L323
 2761              	.L271:
 2762              		.loc 1 664 0
 2763 003c 6B07     		lsls	r3, r5, #29
 2764 003e 45D4     		bmi	.L324
 2765              	.L272:
 2766              		.loc 1 666 0
 2767 0040 2E07     		lsls	r6, r5, #28
 2768              	.LVL248:
 2769 0042 4FD4     		bmi	.L325
 2770              	.L269:
 2771              		.loc 1 675 0
 2772 0044 2403     		lsls	r4, r4, #12
 2773              	.LVL249:
 2774 0046 07D5     		bpl	.L275
 2775              		.loc 1 676 0
 2776 0048 E803     		lsls	r0, r5, #15
 2777 004a 2AD4     		bmi	.L326
 2778              		.loc 1 678 0
 2779 004c A903     		lsls	r1, r5, #14
 2780 004e 2DD4     		bmi	.L327
 2781              	.L277:
 2782              		.loc 1 680 0
 2783 0050 6A03     		lsls	r2, r5, #13
 2784 0052 30D4     		bmi	.L328
 2785              	.L278:
 2786              		.loc 1 682 0
 2787 0054 2B03     		lsls	r3, r5, #12
 2788 0056 1DD4     		bmi	.L329
 2789              	.L275:
 2790              	.LVL250:
 2791              	.LBE690:
 2792              	.LBE689:
 2793              		.loc 1 713 0
ARM GAS  /tmp/ccH4KobB.s 			page 50


 2794 0058 BDE87040 		pop	{r4, r5, r6, lr}
 2795              		.cfi_remember_state
 2796              		.cfi_restore 14
 2797              		.cfi_restore 6
 2798              		.cfi_restore 5
 2799              		.cfi_restore 4
 2800              		.cfi_def_cfa_offset 0
 2801              		.loc 1 712 0
 2802 005c FFF7FEBF 		b	_port_irq_epilogue
 2803              	.LVL251:
 2804              	.L320:
 2805              		.cfi_restore_state
 2806              	.LBB709:
 2807              	.LBB707:
 2808              		.loc 1 633 0
 2809 0060 2846     		mov	r0, r5
 2810 0062 FFF7FEFF 		bl	_usb_reset
 2811              	.LVL252:
 2812              		.loc 1 634 0
 2813 0066 6B68     		ldr	r3, [r5, #4]
 2814 0068 1B68     		ldr	r3, [r3]
 2815 006a 002B     		cmp	r3, #0
 2816 006c D1D0     		beq	.L263
 2817 006e 0021     		movs	r1, #0
 2818 0070 2846     		mov	r0, r5
 2819 0072 9847     		blx	r3
 2820              	.LVL253:
 2821 0074 CDE7     		b	.L263
 2822              	.L321:
 2823              	.LVL254:
 2824              	.LBB691:
 2825              	.LBB692:
 2826              	.LBB693:
 2827              	.LBB694:
 2828              	.LBB695:
 2829              	.LBB696:
 2830              		.loc 3 546 0
 2831 0076 2023     		movs	r3, #32
 2832              		.syntax unified
 2833              	@ 546 "ChibiOS_3.0.2/os/ext/CMSIS/include/core_cmFunc.h" 1
 2834 0078 83F31188 		MSR basepri, r3
 2835              	@ 0 "" 2
 2836              	.LVL255:
 2837              		.thumb
 2838              		.syntax unified
 2839              	.LBE696:
 2840              	.LBE695:
 2841              	.LBE694:
 2842              	.LBE693:
 2843              	.LBE692:
 2844              	.LBE691:
 2845              		.loc 1 652 0
 2846 007c B369     		ldr	r3, [r6, #24]
 2847              	.LBB697:
 2848              	.LBB698:
 2849              		.loc 4 728 0
 2850 007e 1C48     		ldr	r0, .L330+4
ARM GAS  /tmp/ccH4KobB.s 			page 51


 2851              	.LBE698:
 2852              	.LBE697:
 2853              		.loc 1 652 0
 2854 0080 23F01003 		bic	r3, r3, #16
 2855 0084 B361     		str	r3, [r6, #24]
 2856              	.LVL256:
 2857              	.LBB700:
 2858              	.LBB699:
 2859              		.loc 4 728 0
 2860 0086 0021     		movs	r1, #0
 2861 0088 FFF7FEFF 		bl	chThdResumeI
 2862              	.LVL257:
 2863              	.LBE699:
 2864              	.LBE700:
 2865              	.LBB701:
 2866              	.LBB702:
 2867              	.LBB703:
 2868              	.LBB704:
 2869              	.LBB705:
 2870              	.LBB706:
 2871              		.loc 3 546 0
 2872 008c 0023     		movs	r3, #0
 2873              		.syntax unified
 2874              	@ 546 "ChibiOS_3.0.2/os/ext/CMSIS/include/core_cmFunc.h" 1
 2875 008e 83F31188 		MSR basepri, r3
 2876              	@ 0 "" 2
 2877              	.LVL258:
 2878              		.thumb
 2879              		.syntax unified
 2880 0092 CBE7     		b	.L267
 2881              	.LVL259:
 2882              	.L329:
 2883              	.LBE706:
 2884              	.LBE705:
 2885              	.LBE704:
 2886              	.LBE703:
 2887              	.LBE702:
 2888              	.LBE701:
 2889              		.loc 1 683 0
 2890 0094 0320     		movs	r0, #3
 2891 0096 FFF7FEFF 		bl	otg_epout_handler.constprop.7
 2892              	.LVL260:
 2893              	.LBE707:
 2894              	.LBE709:
 2895              		.loc 1 713 0
 2896 009a BDE87040 		pop	{r4, r5, r6, lr}
 2897              		.cfi_remember_state
 2898              		.cfi_restore 14
 2899              		.cfi_restore 6
 2900              		.cfi_restore 5
 2901              		.cfi_restore 4
 2902              		.cfi_def_cfa_offset 0
 2903              		.loc 1 712 0
 2904 009e FFF7FEBF 		b	_port_irq_epilogue
 2905              	.LVL261:
 2906              	.L326:
 2907              		.cfi_restore_state
ARM GAS  /tmp/ccH4KobB.s 			page 52


 2908              	.LBB710:
 2909              	.LBB708:
 2910              		.loc 1 677 0
 2911 00a2 0020     		movs	r0, #0
 2912 00a4 FFF7FEFF 		bl	otg_epout_handler.constprop.7
 2913              	.LVL262:
 2914              		.loc 1 678 0
 2915 00a8 A903     		lsls	r1, r5, #14
 2916 00aa D1D5     		bpl	.L277
 2917              	.L327:
 2918              		.loc 1 679 0
 2919 00ac 0120     		movs	r0, #1
 2920 00ae FFF7FEFF 		bl	otg_epout_handler.constprop.7
 2921              	.LVL263:
 2922              		.loc 1 680 0
 2923 00b2 6A03     		lsls	r2, r5, #13
 2924 00b4 CED5     		bpl	.L278
 2925              	.L328:
 2926              		.loc 1 681 0
 2927 00b6 0220     		movs	r0, #2
 2928 00b8 FFF7FEFF 		bl	otg_epout_handler.constprop.7
 2929              	.LVL264:
 2930              		.loc 1 682 0
 2931 00bc 2B03     		lsls	r3, r5, #12
 2932 00be CBD5     		bpl	.L275
 2933 00c0 E8E7     		b	.L329
 2934              	.LVL265:
 2935              	.L323:
 2936              		.loc 1 663 0
 2937 00c2 0120     		movs	r0, #1
 2938 00c4 FFF7FEFF 		bl	otg_epin_handler.constprop.8
 2939              	.LVL266:
 2940              		.loc 1 664 0
 2941 00c8 6B07     		lsls	r3, r5, #29
 2942 00ca B9D5     		bpl	.L272
 2943              	.L324:
 2944              		.loc 1 665 0
 2945 00cc 0220     		movs	r0, #2
 2946 00ce FFF7FEFF 		bl	otg_epin_handler.constprop.8
 2947              	.LVL267:
 2948              		.loc 1 666 0
 2949 00d2 2E07     		lsls	r6, r5, #28
 2950              	.LVL268:
 2951 00d4 B6D5     		bpl	.L269
 2952 00d6 05E0     		b	.L325
 2953              	.LVL269:
 2954              	.L322:
 2955              		.loc 1 661 0
 2956 00d8 0020     		movs	r0, #0
 2957 00da FFF7FEFF 		bl	otg_epin_handler.constprop.8
 2958              	.LVL270:
 2959              		.loc 1 662 0
 2960 00de AA07     		lsls	r2, r5, #30
 2961 00e0 ACD5     		bpl	.L271
 2962 00e2 EEE7     		b	.L323
 2963              	.LVL271:
 2964              	.L325:
ARM GAS  /tmp/ccH4KobB.s 			page 53


 2965              		.loc 1 667 0
 2966 00e4 0320     		movs	r0, #3
 2967 00e6 FFF7FEFF 		bl	otg_epin_handler.constprop.8
 2968              	.LVL272:
 2969 00ea ABE7     		b	.L269
 2970              	.L331:
 2971              		.align	2
 2972              	.L330:
 2973 00ec 00000000 		.word	.LANCHOR0
 2974 00f0 60000000 		.word	.LANCHOR0+96
 2975              	.LBE708:
 2976              	.LBE710:
 2977              		.cfi_endproc
 2978              	.LFE273:
 2979              		.size	Vector14C, .-Vector14C
 2980              		.section	.text.usb_lld_start_out,"ax",%progbits
 2981              		.align	1
 2982              		.p2align 4,,15
 2983              		.global	usb_lld_start_out
 2984              		.syntax unified
 2985              		.thumb
 2986              		.thumb_func
 2987              		.fpu fpv4-sp-d16
 2988              		.type	usb_lld_start_out, %function
 2989              	usb_lld_start_out:
 2990              	.LFB286:
 2991              		.loc 1 1212 0
 2992              		.cfi_startproc
 2993              		@ args = 0, pretend = 0, frame = 0
 2994              		@ frame_needed = 0, uses_anonymous_args = 0
 2995              		@ link register save eliminated.
 2996              	.LVL273:
 2997 0000 036D     		ldr	r3, [r0, #80]
 2998 0002 03EB4111 		add	r1, r3, r1, lsl #5
 2999              	.LVL274:
 3000              		.loc 1 1214 0
 3001 0006 D1F8003B 		ldr	r3, [r1, #2816]
 3002 000a 43F08063 		orr	r3, r3, #67108864
 3003 000e C1F8003B 		str	r3, [r1, #2816]
 3004              		.loc 1 1215 0
 3005 0012 7047     		bx	lr
 3006              		.cfi_endproc
 3007              	.LFE286:
 3008              		.size	usb_lld_start_out, .-usb_lld_start_out
 3009              		.section	.text.usb_lld_start_in,"ax",%progbits
 3010              		.align	1
 3011              		.p2align 4,,15
 3012              		.global	usb_lld_start_in
 3013              		.syntax unified
 3014              		.thumb
 3015              		.thumb_func
 3016              		.fpu fpv4-sp-d16
 3017              		.type	usb_lld_start_in, %function
 3018              	usb_lld_start_in:
 3019              	.LFB287:
 3020              		.loc 1 1225 0
 3021              		.cfi_startproc
ARM GAS  /tmp/ccH4KobB.s 			page 54


 3022              		@ args = 0, pretend = 0, frame = 0
 3023              		@ frame_needed = 0, uses_anonymous_args = 0
 3024              		@ link register save eliminated.
 3025              	.LVL275:
 3026              		.loc 1 1227 0
 3027 0000 026D     		ldr	r2, [r0, #80]
 3028              		.loc 1 1225 0
 3029 0002 10B4     		push	{r4}
 3030              		.cfi_def_cfa_offset 4
 3031              		.cfi_offset 4, -4
 3032 0004 02EB4114 		add	r4, r2, r1, lsl #5
 3033              		.loc 1 1228 0
 3034 0008 0123     		movs	r3, #1
 3035              		.loc 1 1227 0
 3036 000a D4F80009 		ldr	r0, [r4, #2304]
 3037              	.LVL276:
 3038 000e 40F00440 		orr	r0, r0, #-2080374784
 3039 0012 C4F80009 		str	r0, [r4, #2304]
 3040              		.loc 1 1228 0
 3041 0016 D2F83408 		ldr	r0, [r2, #2100]
 3042              		.loc 1 1229 0
 3043 001a 5DF8044B 		ldr	r4, [sp], #4
 3044              		.cfi_restore 4
 3045              		.cfi_def_cfa_offset 0
 3046              		.loc 1 1228 0
 3047 001e 03FA01F1 		lsl	r1, r3, r1
 3048              	.LVL277:
 3049 0022 0143     		orrs	r1, r1, r0
 3050 0024 C2F83418 		str	r1, [r2, #2100]
 3051              		.loc 1 1229 0
 3052 0028 7047     		bx	lr
 3053              		.cfi_endproc
 3054              	.LFE287:
 3055              		.size	usb_lld_start_in, .-usb_lld_start_in
 3056 002a 00BF     		.section	.text.usb_lld_stall_out,"ax",%progbits
 3057              		.align	1
 3058              		.p2align 4,,15
 3059              		.global	usb_lld_stall_out
 3060              		.syntax unified
 3061              		.thumb
 3062              		.thumb_func
 3063              		.fpu fpv4-sp-d16
 3064              		.type	usb_lld_stall_out, %function
 3065              	usb_lld_stall_out:
 3066              	.LFB288:
 3067              		.loc 1 1239 0
 3068              		.cfi_startproc
 3069              		@ args = 0, pretend = 0, frame = 0
 3070              		@ frame_needed = 0, uses_anonymous_args = 0
 3071              		@ link register save eliminated.
 3072              	.LVL278:
 3073 0000 036D     		ldr	r3, [r0, #80]
 3074 0002 03EB4111 		add	r1, r3, r1, lsl #5
 3075              	.LVL279:
 3076              		.loc 1 1241 0
 3077 0006 D1F8003B 		ldr	r3, [r1, #2816]
 3078 000a 43F40013 		orr	r3, r3, #2097152
ARM GAS  /tmp/ccH4KobB.s 			page 55


 3079 000e C1F8003B 		str	r3, [r1, #2816]
 3080              		.loc 1 1242 0
 3081 0012 7047     		bx	lr
 3082              		.cfi_endproc
 3083              	.LFE288:
 3084              		.size	usb_lld_stall_out, .-usb_lld_stall_out
 3085              		.section	.text.usb_lld_stall_in,"ax",%progbits
 3086              		.align	1
 3087              		.p2align 4,,15
 3088              		.global	usb_lld_stall_in
 3089              		.syntax unified
 3090              		.thumb
 3091              		.thumb_func
 3092              		.fpu fpv4-sp-d16
 3093              		.type	usb_lld_stall_in, %function
 3094              	usb_lld_stall_in:
 3095              	.LFB289:
 3096              		.loc 1 1252 0
 3097              		.cfi_startproc
 3098              		@ args = 0, pretend = 0, frame = 0
 3099              		@ frame_needed = 0, uses_anonymous_args = 0
 3100              		@ link register save eliminated.
 3101              	.LVL280:
 3102 0000 036D     		ldr	r3, [r0, #80]
 3103 0002 03EB4111 		add	r1, r3, r1, lsl #5
 3104              	.LVL281:
 3105              		.loc 1 1254 0
 3106 0006 D1F80039 		ldr	r3, [r1, #2304]
 3107 000a 43F40013 		orr	r3, r3, #2097152
 3108 000e C1F80039 		str	r3, [r1, #2304]
 3109              		.loc 1 1255 0
 3110 0012 7047     		bx	lr
 3111              		.cfi_endproc
 3112              	.LFE289:
 3113              		.size	usb_lld_stall_in, .-usb_lld_stall_in
 3114              		.section	.text.usb_lld_clear_out,"ax",%progbits
 3115              		.align	1
 3116              		.p2align 4,,15
 3117              		.global	usb_lld_clear_out
 3118              		.syntax unified
 3119              		.thumb
 3120              		.thumb_func
 3121              		.fpu fpv4-sp-d16
 3122              		.type	usb_lld_clear_out, %function
 3123              	usb_lld_clear_out:
 3124              	.LFB290:
 3125              		.loc 1 1265 0
 3126              		.cfi_startproc
 3127              		@ args = 0, pretend = 0, frame = 0
 3128              		@ frame_needed = 0, uses_anonymous_args = 0
 3129              		@ link register save eliminated.
 3130              	.LVL282:
 3131 0000 036D     		ldr	r3, [r0, #80]
 3132 0002 03EB4111 		add	r1, r3, r1, lsl #5
 3133              	.LVL283:
 3134              		.loc 1 1267 0
 3135 0006 D1F8003B 		ldr	r3, [r1, #2816]
ARM GAS  /tmp/ccH4KobB.s 			page 56


 3136 000a 23F40013 		bic	r3, r3, #2097152
 3137 000e C1F8003B 		str	r3, [r1, #2816]
 3138              		.loc 1 1268 0
 3139 0012 7047     		bx	lr
 3140              		.cfi_endproc
 3141              	.LFE290:
 3142              		.size	usb_lld_clear_out, .-usb_lld_clear_out
 3143              		.section	.text.usb_lld_clear_in,"ax",%progbits
 3144              		.align	1
 3145              		.p2align 4,,15
 3146              		.global	usb_lld_clear_in
 3147              		.syntax unified
 3148              		.thumb
 3149              		.thumb_func
 3150              		.fpu fpv4-sp-d16
 3151              		.type	usb_lld_clear_in, %function
 3152              	usb_lld_clear_in:
 3153              	.LFB291:
 3154              		.loc 1 1278 0
 3155              		.cfi_startproc
 3156              		@ args = 0, pretend = 0, frame = 0
 3157              		@ frame_needed = 0, uses_anonymous_args = 0
 3158              		@ link register save eliminated.
 3159              	.LVL284:
 3160 0000 036D     		ldr	r3, [r0, #80]
 3161 0002 03EB4111 		add	r1, r3, r1, lsl #5
 3162              	.LVL285:
 3163              		.loc 1 1280 0
 3164 0006 D1F80039 		ldr	r3, [r1, #2304]
 3165 000a 23F40013 		bic	r3, r3, #2097152
 3166 000e C1F80039 		str	r3, [r1, #2304]
 3167              		.loc 1 1281 0
 3168 0012 7047     		bx	lr
 3169              		.cfi_endproc
 3170              	.LFE291:
 3171              		.size	usb_lld_clear_in, .-usb_lld_clear_in
 3172              		.global	USBD1
 3173              		.section	.bss.USBD1,"aw",%nobits
 3174              		.align	3
 3175              		.set	.LANCHOR0,. + 0
 3176              		.type	USBD1, %object
 3177              		.size	USBD1, 640
 3178              	USBD1:
 3179 0000 00000000 		.space	640
 3179      00000000 
 3179      00000000 
 3179      00000000 
 3179      00000000 
 3180              		.section	.bss.ep0_state,"aw",%nobits
 3181              		.align	2
 3182              		.type	ep0_state, %object
 3183              		.size	ep0_state, 20
 3184              	ep0_state:
 3185 0000 00000000 		.space	20
 3185      00000000 
 3185      00000000 
 3185      00000000 
ARM GAS  /tmp/ccH4KobB.s 			page 57


 3185      00000000 
 3186              		.section	.bss.ep0setup_buffer,"aw",%nobits
 3187              		.align	2
 3188              		.type	ep0setup_buffer, %object
 3189              		.size	ep0setup_buffer, 8
 3190              	ep0setup_buffer:
 3191 0000 00000000 		.space	8
 3191      00000000 
 3192              		.section	.rodata.ep0config,"a",%progbits
 3193              		.align	2
 3194              		.set	.LANCHOR2,. + 0
 3195              		.type	ep0config, %object
 3196              		.size	ep0config, 36
 3197              	ep0config:
 3198 0000 00000000 		.word	0
 3199 0004 00000000 		.word	_usb_ep0setup
 3200 0008 00000000 		.word	_usb_ep0in
 3201 000c 00000000 		.word	_usb_ep0out
 3202 0010 4000     		.short	64
 3203 0012 4000     		.short	64
 3204 0014 00000000 		.word	ep0_state
 3205 0018 00000000 		.word	ep0_state
 3206 001c 0100     		.short	1
 3207 001e 0000     		.space	2
 3208 0020 00000000 		.word	ep0setup_buffer
 3209              		.section	.rodata.fsparams,"a",%progbits
 3210              		.align	2
 3211              		.set	.LANCHOR1,. + 0
 3212              		.type	fsparams, %object
 3213              		.size	fsparams, 12
 3214              	fsparams:
 3215 0000 00010000 		.word	256
 3216 0004 40010000 		.word	320
 3217 0008 03000000 		.word	3
 3218              		.section	.rodata.usb_lld_pump.str1.4,"aMS",%progbits,1
 3219              		.align	2
 3220              	.LC0:
 3221 0000 7573625F 		.ascii	"usb_lld_pump\000"
 3221      6C6C645F 
 3221      70756D70 
 3221      00
 3222              		.text
 3223              	.Letext0:
 3224              		.file 6 "/usr/lib/gcc/arm-none-eabi/7.3.1/include/stddef.h"
 3225              		.file 7 "/usr/arm-none-eabi/include/machine/_default_types.h"
 3226              		.file 8 "/usr/arm-none-eabi/include/sys/lock.h"
 3227              		.file 9 "/usr/arm-none-eabi/include/sys/_types.h"
 3228              		.file 10 "/usr/arm-none-eabi/include/sys/reent.h"
 3229              		.file 11 "/usr/arm-none-eabi/include/sys/_stdint.h"
 3230              		.file 12 "ChibiOS_3.0.2/os/rt/ports/ARMCMx/compilers/GCC/chtypes.h"
 3231              		.file 13 "ChibiOS_3.0.2/os/rt/include/chsystypes.h"
 3232              		.file 14 "ChibiOS_3.0.2/os/rt/include/chschd.h"
 3233              		.file 15 "ChibiOS_3.0.2/os/ext/CMSIS/include/core_cm4.h"
 3234              		.file 16 "ChibiOS_3.0.2/os/ext/CMSIS/ST/system_stm32f4xx.h"
 3235              		.file 17 "ChibiOS_3.0.2/os/ext/CMSIS/ST/stm32f407xx.h"
 3236              		.file 18 "ChibiOS_3.0.2/os/rt/ports/ARMCMx/chcore.h"
 3237              		.file 19 "ChibiOS_3.0.2/os/rt/ports/ARMCMx/chcore_v7m.h"
ARM GAS  /tmp/ccH4KobB.s 			page 58


 3238              		.file 20 "ChibiOS_3.0.2/os/rt/include/chtm.h"
 3239              		.file 21 "ChibiOS_3.0.2/os/rt/include/chsem.h"
 3240              		.file 22 "ChibiOS_3.0.2/os/rt/include/chmtx.h"
 3241              		.file 23 "ChibiOS_3.0.2/os/rt/include/chevents.h"
 3242              		.file 24 "ChibiOS_3.0.2/os/rt/include/chqueues.h"
 3243              		.file 25 "./conf_general.h"
 3244              		.file 26 "ChibiOS_3.0.2/os/hal/ports/STM32/STM32F4xx/stm32_dma.h"
 3245              		.file 27 "ChibiOS_3.0.2/os/hal/ports/STM32/LLD/GPIOv2/pal_lld.h"
 3246              		.file 28 "ChibiOS_3.0.2/os/hal/include/can.h"
 3247              		.file 29 "ChibiOS_3.0.2/os/hal/ports/STM32/LLD/can_lld.h"
 3248              		.file 30 "ChibiOS_3.0.2/os/hal/include/i2c.h"
 3249              		.file 31 "ChibiOS_3.0.2/os/hal/ports/STM32/LLD/I2Cv1/i2c_lld.h"
 3250              		.file 32 "ChibiOS_3.0.2/os/hal/include/icu.h"
 3251              		.file 33 "ChibiOS_3.0.2/os/hal/ports/STM32/LLD/TIMv1/icu_lld.h"
 3252              		.file 34 "ChibiOS_3.0.2/os/hal/ports/STM32/LLD/TIMv1/stm32_tim.h"
 3253              		.file 35 "ChibiOS_3.0.2/os/hal/include/serial.h"
 3254              		.file 36 "ChibiOS_3.0.2/os/hal/ports/STM32/LLD/USARTv1/serial_lld.h"
 3255              		.file 37 "ChibiOS_3.0.2/os/hal/include/spi.h"
 3256              		.file 38 "ChibiOS_3.0.2/os/hal/ports/STM32/LLD/SPIv1/spi_lld.h"
 3257              		.file 39 "ChibiOS_3.0.2/os/hal/include/usb.h"
 3258              		.file 40 "ChibiOS_3.0.2/os/hal/ports/STM32/LLD/OTGv1/usb_lld.h"
 3259              		.file 41 "ChibiOS_3.0.2/os/hal/ports/STM32/LLD/OTGv1/stm32_otg.h"
 3260              		.file 42 "ChibiOS_3.0.2/os/rt/include/chsys.h"
 3261              		.file 43 "ChibiOS_3.0.2/os/hal/ports/common/ARMCMx/nvic.h"
 3262              		.section	.debug_info,"",%progbits
 3263              	.Ldebug_info0:
 3264 0000 074B0000 		.4byte	0x4b07
 3265 0004 0400     		.2byte	0x4
 3266 0006 00000000 		.4byte	.Ldebug_abbrev0
 3267 000a 04       		.byte	0x4
 3268 000b 01       		.uleb128 0x1
 3269 000c 6D090000 		.4byte	.LASF732
 3270 0010 0C       		.byte	0xc
 3271 0011 4C1E0000 		.4byte	.LASF733
 3272 0015 601C0000 		.4byte	.LASF734
 3273 0019 E8020000 		.4byte	.Ldebug_ranges0+0x2e8
 3274 001d 00000000 		.4byte	0
 3275 0021 00000000 		.4byte	.Ldebug_line0
 3276 0025 02       		.uleb128 0x2
 3277 0026 04       		.byte	0x4
 3278 0027 07       		.byte	0x7
 3279 0028 E01D0000 		.4byte	.LASF0
 3280 002c 03       		.uleb128 0x3
 3281 002d 04       		.byte	0x4
 3282 002e 05       		.byte	0x5
 3283 002f 696E7400 		.ascii	"int\000"
 3284 0033 04       		.uleb128 0x4
 3285 0034 810B0000 		.4byte	.LASF2
 3286 0038 06       		.byte	0x6
 3287 0039 D8       		.byte	0xd8
 3288 003a 25000000 		.4byte	0x25
 3289 003e 05       		.uleb128 0x5
 3290 003f 33000000 		.4byte	0x33
 3291 0043 02       		.uleb128 0x2
 3292 0044 01       		.byte	0x1
 3293 0045 06       		.byte	0x6
 3294 0046 96110000 		.4byte	.LASF1
ARM GAS  /tmp/ccH4KobB.s 			page 59


 3295 004a 04       		.uleb128 0x4
 3296 004b 9B000000 		.4byte	.LASF3
 3297 004f 07       		.byte	0x7
 3298 0050 2B       		.byte	0x2b
 3299 0051 55000000 		.4byte	0x55
 3300 0055 02       		.uleb128 0x2
 3301 0056 01       		.byte	0x1
 3302 0057 08       		.byte	0x8
 3303 0058 7B070000 		.4byte	.LASF4
 3304 005c 02       		.uleb128 0x2
 3305 005d 02       		.byte	0x2
 3306 005e 05       		.byte	0x5
 3307 005f 341E0000 		.4byte	.LASF5
 3308 0063 04       		.uleb128 0x4
 3309 0064 22060000 		.4byte	.LASF6
 3310 0068 07       		.byte	0x7
 3311 0069 39       		.byte	0x39
 3312 006a 6E000000 		.4byte	0x6e
 3313 006e 02       		.uleb128 0x2
 3314 006f 02       		.byte	0x2
 3315 0070 07       		.byte	0x7
 3316 0071 83110000 		.4byte	.LASF7
 3317 0075 04       		.uleb128 0x4
 3318 0076 15180000 		.4byte	.LASF8
 3319 007a 07       		.byte	0x7
 3320 007b 4D       		.byte	0x4d
 3321 007c 80000000 		.4byte	0x80
 3322 0080 02       		.uleb128 0x2
 3323 0081 04       		.byte	0x4
 3324 0082 05       		.byte	0x5
 3325 0083 71130000 		.4byte	.LASF9
 3326 0087 04       		.uleb128 0x4
 3327 0088 1F180000 		.4byte	.LASF10
 3328 008c 07       		.byte	0x7
 3329 008d 4F       		.byte	0x4f
 3330 008e 92000000 		.4byte	0x92
 3331 0092 02       		.uleb128 0x2
 3332 0093 04       		.byte	0x4
 3333 0094 07       		.byte	0x7
 3334 0095 D5140000 		.4byte	.LASF11
 3335 0099 02       		.uleb128 0x2
 3336 009a 08       		.byte	0x8
 3337 009b 05       		.byte	0x5
 3338 009c 081C0000 		.4byte	.LASF12
 3339 00a0 04       		.uleb128 0x4
 3340 00a1 570E0000 		.4byte	.LASF13
 3341 00a5 07       		.byte	0x7
 3342 00a6 69       		.byte	0x69
 3343 00a7 AB000000 		.4byte	0xab
 3344 00ab 02       		.uleb128 0x2
 3345 00ac 08       		.byte	0x8
 3346 00ad 07       		.byte	0x7
 3347 00ae B4190000 		.4byte	.LASF14
 3348 00b2 04       		.uleb128 0x4
 3349 00b3 F3050000 		.4byte	.LASF15
 3350 00b7 08       		.byte	0x8
 3351 00b8 22       		.byte	0x22
ARM GAS  /tmp/ccH4KobB.s 			page 60


 3352 00b9 BD000000 		.4byte	0xbd
 3353 00bd 06       		.uleb128 0x6
 3354 00be 04       		.byte	0x4
 3355 00bf C3000000 		.4byte	0xc3
 3356 00c3 07       		.uleb128 0x7
 3357 00c4 A0040000 		.4byte	.LASF122
 3358 00c8 04       		.uleb128 0x4
 3359 00c9 640B0000 		.4byte	.LASF16
 3360 00cd 09       		.byte	0x9
 3361 00ce 2C       		.byte	0x2c
 3362 00cf 80000000 		.4byte	0x80
 3363 00d3 04       		.uleb128 0x4
 3364 00d4 79170000 		.4byte	.LASF17
 3365 00d8 09       		.byte	0x9
 3366 00d9 72       		.byte	0x72
 3367 00da 80000000 		.4byte	0x80
 3368 00de 08       		.uleb128 0x8
 3369 00df 370D0000 		.4byte	.LASF18
 3370 00e3 06       		.byte	0x6
 3371 00e4 6501     		.2byte	0x165
 3372 00e6 25000000 		.4byte	0x25
 3373 00ea 09       		.uleb128 0x9
 3374 00eb 04       		.byte	0x4
 3375 00ec 09       		.byte	0x9
 3376 00ed A6       		.byte	0xa6
 3377 00ee 09010000 		.4byte	0x109
 3378 00f2 0A       		.uleb128 0xa
 3379 00f3 F5120000 		.4byte	.LASF19
 3380 00f7 09       		.byte	0x9
 3381 00f8 A8       		.byte	0xa8
 3382 00f9 DE000000 		.4byte	0xde
 3383 00fd 0A       		.uleb128 0xa
 3384 00fe E50C0000 		.4byte	.LASF20
 3385 0102 09       		.byte	0x9
 3386 0103 A9       		.byte	0xa9
 3387 0104 09010000 		.4byte	0x109
 3388 0108 00       		.byte	0
 3389 0109 0B       		.uleb128 0xb
 3390 010a 55000000 		.4byte	0x55
 3391 010e 19010000 		.4byte	0x119
 3392 0112 0C       		.uleb128 0xc
 3393 0113 25000000 		.4byte	0x25
 3394 0117 03       		.byte	0x3
 3395 0118 00       		.byte	0
 3396 0119 0D       		.uleb128 0xd
 3397 011a 08       		.byte	0x8
 3398 011b 09       		.byte	0x9
 3399 011c A3       		.byte	0xa3
 3400 011d 3A010000 		.4byte	0x13a
 3401 0121 0E       		.uleb128 0xe
 3402 0122 A00B0000 		.4byte	.LASF21
 3403 0126 09       		.byte	0x9
 3404 0127 A5       		.byte	0xa5
 3405 0128 2C000000 		.4byte	0x2c
 3406 012c 00       		.byte	0
 3407 012d 0E       		.uleb128 0xe
 3408 012e 49180000 		.4byte	.LASF22
ARM GAS  /tmp/ccH4KobB.s 			page 61


 3409 0132 09       		.byte	0x9
 3410 0133 AA       		.byte	0xaa
 3411 0134 EA000000 		.4byte	0xea
 3412 0138 04       		.byte	0x4
 3413 0139 00       		.byte	0
 3414 013a 04       		.uleb128 0x4
 3415 013b CC170000 		.4byte	.LASF23
 3416 013f 09       		.byte	0x9
 3417 0140 AB       		.byte	0xab
 3418 0141 19010000 		.4byte	0x119
 3419 0145 04       		.uleb128 0x4
 3420 0146 9C1B0000 		.4byte	.LASF24
 3421 014a 09       		.byte	0x9
 3422 014b AF       		.byte	0xaf
 3423 014c B2000000 		.4byte	0xb2
 3424 0150 0F       		.uleb128 0xf
 3425 0151 04       		.byte	0x4
 3426 0152 06       		.uleb128 0x6
 3427 0153 04       		.byte	0x4
 3428 0154 58010000 		.4byte	0x158
 3429 0158 02       		.uleb128 0x2
 3430 0159 01       		.byte	0x1
 3431 015a 08       		.byte	0x8
 3432 015b 58150000 		.4byte	.LASF25
 3433 015f 10       		.uleb128 0x10
 3434 0160 58010000 		.4byte	0x158
 3435 0164 04       		.uleb128 0x4
 3436 0165 2E100000 		.4byte	.LASF26
 3437 0169 0A       		.byte	0xa
 3438 016a 16       		.byte	0x16
 3439 016b 92000000 		.4byte	0x92
 3440 016f 11       		.uleb128 0x11
 3441 0170 CE150000 		.4byte	.LASF31
 3442 0174 18       		.byte	0x18
 3443 0175 0A       		.byte	0xa
 3444 0176 2F       		.byte	0x2f
 3445 0177 C2010000 		.4byte	0x1c2
 3446 017b 0E       		.uleb128 0xe
 3447 017c 730E0000 		.4byte	.LASF27
 3448 0180 0A       		.byte	0xa
 3449 0181 31       		.byte	0x31
 3450 0182 C2010000 		.4byte	0x1c2
 3451 0186 00       		.byte	0
 3452 0187 12       		.uleb128 0x12
 3453 0188 5F6B00   		.ascii	"_k\000"
 3454 018b 0A       		.byte	0xa
 3455 018c 32       		.byte	0x32
 3456 018d 2C000000 		.4byte	0x2c
 3457 0191 04       		.byte	0x4
 3458 0192 0E       		.uleb128 0xe
 3459 0193 56140000 		.4byte	.LASF28
 3460 0197 0A       		.byte	0xa
 3461 0198 32       		.byte	0x32
 3462 0199 2C000000 		.4byte	0x2c
 3463 019d 08       		.byte	0x8
 3464 019e 0E       		.uleb128 0xe
 3465 019f 891D0000 		.4byte	.LASF29
ARM GAS  /tmp/ccH4KobB.s 			page 62


 3466 01a3 0A       		.byte	0xa
 3467 01a4 32       		.byte	0x32
 3468 01a5 2C000000 		.4byte	0x2c
 3469 01a9 0C       		.byte	0xc
 3470 01aa 0E       		.uleb128 0xe
 3471 01ab 02080000 		.4byte	.LASF30
 3472 01af 0A       		.byte	0xa
 3473 01b0 32       		.byte	0x32
 3474 01b1 2C000000 		.4byte	0x2c
 3475 01b5 10       		.byte	0x10
 3476 01b6 12       		.uleb128 0x12
 3477 01b7 5F7800   		.ascii	"_x\000"
 3478 01ba 0A       		.byte	0xa
 3479 01bb 33       		.byte	0x33
 3480 01bc C8010000 		.4byte	0x1c8
 3481 01c0 14       		.byte	0x14
 3482 01c1 00       		.byte	0
 3483 01c2 06       		.uleb128 0x6
 3484 01c3 04       		.byte	0x4
 3485 01c4 6F010000 		.4byte	0x16f
 3486 01c8 0B       		.uleb128 0xb
 3487 01c9 64010000 		.4byte	0x164
 3488 01cd D8010000 		.4byte	0x1d8
 3489 01d1 0C       		.uleb128 0xc
 3490 01d2 25000000 		.4byte	0x25
 3491 01d6 00       		.byte	0
 3492 01d7 00       		.byte	0
 3493 01d8 11       		.uleb128 0x11
 3494 01d9 7B050000 		.4byte	.LASF32
 3495 01dd 24       		.byte	0x24
 3496 01de 0A       		.byte	0xa
 3497 01df 37       		.byte	0x37
 3498 01e0 51020000 		.4byte	0x251
 3499 01e4 0E       		.uleb128 0xe
 3500 01e5 790F0000 		.4byte	.LASF33
 3501 01e9 0A       		.byte	0xa
 3502 01ea 39       		.byte	0x39
 3503 01eb 2C000000 		.4byte	0x2c
 3504 01ef 00       		.byte	0
 3505 01f0 0E       		.uleb128 0xe
 3506 01f1 981D0000 		.4byte	.LASF34
 3507 01f5 0A       		.byte	0xa
 3508 01f6 3A       		.byte	0x3a
 3509 01f7 2C000000 		.4byte	0x2c
 3510 01fb 04       		.byte	0x4
 3511 01fc 0E       		.uleb128 0xe
 3512 01fd 0F0D0000 		.4byte	.LASF35
 3513 0201 0A       		.byte	0xa
 3514 0202 3B       		.byte	0x3b
 3515 0203 2C000000 		.4byte	0x2c
 3516 0207 08       		.byte	0x8
 3517 0208 0E       		.uleb128 0xe
 3518 0209 B10D0000 		.4byte	.LASF36
 3519 020d 0A       		.byte	0xa
 3520 020e 3C       		.byte	0x3c
 3521 020f 2C000000 		.4byte	0x2c
 3522 0213 0C       		.byte	0xc
ARM GAS  /tmp/ccH4KobB.s 			page 63


 3523 0214 0E       		.uleb128 0xe
 3524 0215 28010000 		.4byte	.LASF37
 3525 0219 0A       		.byte	0xa
 3526 021a 3D       		.byte	0x3d
 3527 021b 2C000000 		.4byte	0x2c
 3528 021f 10       		.byte	0x10
 3529 0220 0E       		.uleb128 0xe
 3530 0221 DB080000 		.4byte	.LASF38
 3531 0225 0A       		.byte	0xa
 3532 0226 3E       		.byte	0x3e
 3533 0227 2C000000 		.4byte	0x2c
 3534 022b 14       		.byte	0x14
 3535 022c 0E       		.uleb128 0xe
 3536 022d 10070000 		.4byte	.LASF39
 3537 0231 0A       		.byte	0xa
 3538 0232 3F       		.byte	0x3f
 3539 0233 2C000000 		.4byte	0x2c
 3540 0237 18       		.byte	0x18
 3541 0238 0E       		.uleb128 0xe
 3542 0239 D6050000 		.4byte	.LASF40
 3543 023d 0A       		.byte	0xa
 3544 023e 40       		.byte	0x40
 3545 023f 2C000000 		.4byte	0x2c
 3546 0243 1C       		.byte	0x1c
 3547 0244 0E       		.uleb128 0xe
 3548 0245 1A070000 		.4byte	.LASF41
 3549 0249 0A       		.byte	0xa
 3550 024a 41       		.byte	0x41
 3551 024b 2C000000 		.4byte	0x2c
 3552 024f 20       		.byte	0x20
 3553 0250 00       		.byte	0
 3554 0251 13       		.uleb128 0x13
 3555 0252 900F0000 		.4byte	.LASF42
 3556 0256 0801     		.2byte	0x108
 3557 0258 0A       		.byte	0xa
 3558 0259 4A       		.byte	0x4a
 3559 025a 91020000 		.4byte	0x291
 3560 025e 0E       		.uleb128 0xe
 3561 025f EA0D0000 		.4byte	.LASF43
 3562 0263 0A       		.byte	0xa
 3563 0264 4B       		.byte	0x4b
 3564 0265 91020000 		.4byte	0x291
 3565 0269 00       		.byte	0
 3566 026a 0E       		.uleb128 0xe
 3567 026b F4060000 		.4byte	.LASF44
 3568 026f 0A       		.byte	0xa
 3569 0270 4C       		.byte	0x4c
 3570 0271 91020000 		.4byte	0x291
 3571 0275 80       		.byte	0x80
 3572 0276 14       		.uleb128 0x14
 3573 0277 31010000 		.4byte	.LASF45
 3574 027b 0A       		.byte	0xa
 3575 027c 4E       		.byte	0x4e
 3576 027d 64010000 		.4byte	0x164
 3577 0281 0001     		.2byte	0x100
 3578 0283 14       		.uleb128 0x14
 3579 0284 67180000 		.4byte	.LASF46
ARM GAS  /tmp/ccH4KobB.s 			page 64


 3580 0288 0A       		.byte	0xa
 3581 0289 51       		.byte	0x51
 3582 028a 64010000 		.4byte	0x164
 3583 028e 0401     		.2byte	0x104
 3584 0290 00       		.byte	0
 3585 0291 0B       		.uleb128 0xb
 3586 0292 50010000 		.4byte	0x150
 3587 0296 A1020000 		.4byte	0x2a1
 3588 029a 0C       		.uleb128 0xc
 3589 029b 25000000 		.4byte	0x25
 3590 029f 1F       		.byte	0x1f
 3591 02a0 00       		.byte	0
 3592 02a1 13       		.uleb128 0x13
 3593 02a2 C1000000 		.4byte	.LASF47
 3594 02a6 9001     		.2byte	0x190
 3595 02a8 0A       		.byte	0xa
 3596 02a9 5D       		.byte	0x5d
 3597 02aa DF020000 		.4byte	0x2df
 3598 02ae 0E       		.uleb128 0xe
 3599 02af 730E0000 		.4byte	.LASF27
 3600 02b3 0A       		.byte	0xa
 3601 02b4 5E       		.byte	0x5e
 3602 02b5 DF020000 		.4byte	0x2df
 3603 02b9 00       		.byte	0
 3604 02ba 0E       		.uleb128 0xe
 3605 02bb 4D010000 		.4byte	.LASF48
 3606 02bf 0A       		.byte	0xa
 3607 02c0 5F       		.byte	0x5f
 3608 02c1 2C000000 		.4byte	0x2c
 3609 02c5 04       		.byte	0x4
 3610 02c6 0E       		.uleb128 0xe
 3611 02c7 AA170000 		.4byte	.LASF49
 3612 02cb 0A       		.byte	0xa
 3613 02cc 61       		.byte	0x61
 3614 02cd E5020000 		.4byte	0x2e5
 3615 02d1 08       		.byte	0x8
 3616 02d2 0E       		.uleb128 0xe
 3617 02d3 900F0000 		.4byte	.LASF42
 3618 02d7 0A       		.byte	0xa
 3619 02d8 62       		.byte	0x62
 3620 02d9 51020000 		.4byte	0x251
 3621 02dd 88       		.byte	0x88
 3622 02de 00       		.byte	0
 3623 02df 06       		.uleb128 0x6
 3624 02e0 04       		.byte	0x4
 3625 02e1 A1020000 		.4byte	0x2a1
 3626 02e5 0B       		.uleb128 0xb
 3627 02e6 F5020000 		.4byte	0x2f5
 3628 02ea F5020000 		.4byte	0x2f5
 3629 02ee 0C       		.uleb128 0xc
 3630 02ef 25000000 		.4byte	0x25
 3631 02f3 1F       		.byte	0x1f
 3632 02f4 00       		.byte	0
 3633 02f5 06       		.uleb128 0x6
 3634 02f6 04       		.byte	0x4
 3635 02f7 FB020000 		.4byte	0x2fb
 3636 02fb 15       		.uleb128 0x15
ARM GAS  /tmp/ccH4KobB.s 			page 65


 3637 02fc 11       		.uleb128 0x11
 3638 02fd 7F120000 		.4byte	.LASF50
 3639 0301 08       		.byte	0x8
 3640 0302 0A       		.byte	0xa
 3641 0303 75       		.byte	0x75
 3642 0304 21030000 		.4byte	0x321
 3643 0308 0E       		.uleb128 0xe
 3644 0309 09050000 		.4byte	.LASF51
 3645 030d 0A       		.byte	0xa
 3646 030e 76       		.byte	0x76
 3647 030f 21030000 		.4byte	0x321
 3648 0313 00       		.byte	0
 3649 0314 0E       		.uleb128 0xe
 3650 0315 17080000 		.4byte	.LASF52
 3651 0319 0A       		.byte	0xa
 3652 031a 77       		.byte	0x77
 3653 031b 2C000000 		.4byte	0x2c
 3654 031f 04       		.byte	0x4
 3655 0320 00       		.byte	0
 3656 0321 06       		.uleb128 0x6
 3657 0322 04       		.byte	0x4
 3658 0323 55000000 		.4byte	0x55
 3659 0327 11       		.uleb128 0x11
 3660 0328 A2170000 		.4byte	.LASF53
 3661 032c 68       		.byte	0x68
 3662 032d 0A       		.byte	0xa
 3663 032e B5       		.byte	0xb5
 3664 032f 51040000 		.4byte	0x451
 3665 0333 12       		.uleb128 0x12
 3666 0334 5F7000   		.ascii	"_p\000"
 3667 0337 0A       		.byte	0xa
 3668 0338 B6       		.byte	0xb6
 3669 0339 21030000 		.4byte	0x321
 3670 033d 00       		.byte	0
 3671 033e 12       		.uleb128 0x12
 3672 033f 5F7200   		.ascii	"_r\000"
 3673 0342 0A       		.byte	0xa
 3674 0343 B7       		.byte	0xb7
 3675 0344 2C000000 		.4byte	0x2c
 3676 0348 04       		.byte	0x4
 3677 0349 12       		.uleb128 0x12
 3678 034a 5F7700   		.ascii	"_w\000"
 3679 034d 0A       		.byte	0xa
 3680 034e B8       		.byte	0xb8
 3681 034f 2C000000 		.4byte	0x2c
 3682 0353 08       		.byte	0x8
 3683 0354 0E       		.uleb128 0xe
 3684 0355 94010000 		.4byte	.LASF54
 3685 0359 0A       		.byte	0xa
 3686 035a B9       		.byte	0xb9
 3687 035b 5C000000 		.4byte	0x5c
 3688 035f 0C       		.byte	0xc
 3689 0360 0E       		.uleb128 0xe
 3690 0361 81170000 		.4byte	.LASF55
 3691 0365 0A       		.byte	0xa
 3692 0366 BA       		.byte	0xba
 3693 0367 5C000000 		.4byte	0x5c
ARM GAS  /tmp/ccH4KobB.s 			page 66


 3694 036b 0E       		.byte	0xe
 3695 036c 12       		.uleb128 0x12
 3696 036d 5F626600 		.ascii	"_bf\000"
 3697 0371 0A       		.byte	0xa
 3698 0372 BB       		.byte	0xbb
 3699 0373 FC020000 		.4byte	0x2fc
 3700 0377 10       		.byte	0x10
 3701 0378 0E       		.uleb128 0xe
 3702 0379 B6030000 		.4byte	.LASF56
 3703 037d 0A       		.byte	0xa
 3704 037e BC       		.byte	0xbc
 3705 037f 2C000000 		.4byte	0x2c
 3706 0383 18       		.byte	0x18
 3707 0384 0E       		.uleb128 0xe
 3708 0385 AE0E0000 		.4byte	.LASF57
 3709 0389 0A       		.byte	0xa
 3710 038a C3       		.byte	0xc3
 3711 038b 50010000 		.4byte	0x150
 3712 038f 1C       		.byte	0x1c
 3713 0390 0E       		.uleb128 0xe
 3714 0391 811E0000 		.4byte	.LASF58
 3715 0395 0A       		.byte	0xa
 3716 0396 C5       		.byte	0xc5
 3717 0397 AC050000 		.4byte	0x5ac
 3718 039b 20       		.byte	0x20
 3719 039c 0E       		.uleb128 0xe
 3720 039d 48080000 		.4byte	.LASF59
 3721 03a1 0A       		.byte	0xa
 3722 03a2 C7       		.byte	0xc7
 3723 03a3 DB050000 		.4byte	0x5db
 3724 03a7 24       		.byte	0x24
 3725 03a8 0E       		.uleb128 0xe
 3726 03a9 63110000 		.4byte	.LASF60
 3727 03ad 0A       		.byte	0xa
 3728 03ae CA       		.byte	0xca
 3729 03af FF050000 		.4byte	0x5ff
 3730 03b3 28       		.byte	0x28
 3731 03b4 0E       		.uleb128 0xe
 3732 03b5 4C150000 		.4byte	.LASF61
 3733 03b9 0A       		.byte	0xa
 3734 03ba CB       		.byte	0xcb
 3735 03bb 19060000 		.4byte	0x619
 3736 03bf 2C       		.byte	0x2c
 3737 03c0 12       		.uleb128 0x12
 3738 03c1 5F756200 		.ascii	"_ub\000"
 3739 03c5 0A       		.byte	0xa
 3740 03c6 CE       		.byte	0xce
 3741 03c7 FC020000 		.4byte	0x2fc
 3742 03cb 30       		.byte	0x30
 3743 03cc 12       		.uleb128 0x12
 3744 03cd 5F757000 		.ascii	"_up\000"
 3745 03d1 0A       		.byte	0xa
 3746 03d2 CF       		.byte	0xcf
 3747 03d3 21030000 		.4byte	0x321
 3748 03d7 38       		.byte	0x38
 3749 03d8 12       		.uleb128 0x12
 3750 03d9 5F757200 		.ascii	"_ur\000"
ARM GAS  /tmp/ccH4KobB.s 			page 67


 3751 03dd 0A       		.byte	0xa
 3752 03de D0       		.byte	0xd0
 3753 03df 2C000000 		.4byte	0x2c
 3754 03e3 3C       		.byte	0x3c
 3755 03e4 0E       		.uleb128 0xe
 3756 03e5 12170000 		.4byte	.LASF62
 3757 03e9 0A       		.byte	0xa
 3758 03ea D3       		.byte	0xd3
 3759 03eb 1F060000 		.4byte	0x61f
 3760 03ef 40       		.byte	0x40
 3761 03f0 0E       		.uleb128 0xe
 3762 03f1 30020000 		.4byte	.LASF63
 3763 03f5 0A       		.byte	0xa
 3764 03f6 D4       		.byte	0xd4
 3765 03f7 2F060000 		.4byte	0x62f
 3766 03fb 43       		.byte	0x43
 3767 03fc 12       		.uleb128 0x12
 3768 03fd 5F6C6200 		.ascii	"_lb\000"
 3769 0401 0A       		.byte	0xa
 3770 0402 D7       		.byte	0xd7
 3771 0403 FC020000 		.4byte	0x2fc
 3772 0407 44       		.byte	0x44
 3773 0408 0E       		.uleb128 0xe
 3774 0409 00170000 		.4byte	.LASF64
 3775 040d 0A       		.byte	0xa
 3776 040e DA       		.byte	0xda
 3777 040f 2C000000 		.4byte	0x2c
 3778 0413 4C       		.byte	0x4c
 3779 0414 0E       		.uleb128 0xe
 3780 0415 35120000 		.4byte	.LASF65
 3781 0419 0A       		.byte	0xa
 3782 041a DB       		.byte	0xdb
 3783 041b C8000000 		.4byte	0xc8
 3784 041f 50       		.byte	0x50
 3785 0420 0E       		.uleb128 0xe
 3786 0421 16040000 		.4byte	.LASF66
 3787 0425 0A       		.byte	0xa
 3788 0426 DE       		.byte	0xde
 3789 0427 6F040000 		.4byte	0x46f
 3790 042b 54       		.byte	0x54
 3791 042c 0E       		.uleb128 0xe
 3792 042d 2A020000 		.4byte	.LASF67
 3793 0431 0A       		.byte	0xa
 3794 0432 E2       		.byte	0xe2
 3795 0433 45010000 		.4byte	0x145
 3796 0437 58       		.byte	0x58
 3797 0438 0E       		.uleb128 0xe
 3798 0439 B8000000 		.4byte	.LASF68
 3799 043d 0A       		.byte	0xa
 3800 043e E4       		.byte	0xe4
 3801 043f 3A010000 		.4byte	0x13a
 3802 0443 5C       		.byte	0x5c
 3803 0444 0E       		.uleb128 0xe
 3804 0445 3D1C0000 		.4byte	.LASF69
 3805 0449 0A       		.byte	0xa
 3806 044a E5       		.byte	0xe5
 3807 044b 2C000000 		.4byte	0x2c
ARM GAS  /tmp/ccH4KobB.s 			page 68


 3808 044f 64       		.byte	0x64
 3809 0450 00       		.byte	0
 3810 0451 16       		.uleb128 0x16
 3811 0452 2C000000 		.4byte	0x2c
 3812 0456 6F040000 		.4byte	0x46f
 3813 045a 17       		.uleb128 0x17
 3814 045b 6F040000 		.4byte	0x46f
 3815 045f 17       		.uleb128 0x17
 3816 0460 50010000 		.4byte	0x150
 3817 0464 17       		.uleb128 0x17
 3818 0465 52010000 		.4byte	0x152
 3819 0469 17       		.uleb128 0x17
 3820 046a 2C000000 		.4byte	0x2c
 3821 046e 00       		.byte	0
 3822 046f 06       		.uleb128 0x6
 3823 0470 04       		.byte	0x4
 3824 0471 7A040000 		.4byte	0x47a
 3825 0475 10       		.uleb128 0x10
 3826 0476 6F040000 		.4byte	0x46f
 3827 047a 18       		.uleb128 0x18
 3828 047b B6040000 		.4byte	.LASF70
 3829 047f 2804     		.2byte	0x428
 3830 0481 0A       		.byte	0xa
 3831 0482 6002     		.2byte	0x260
 3832 0484 AC050000 		.4byte	0x5ac
 3833 0488 19       		.uleb128 0x19
 3834 0489 960D0000 		.4byte	.LASF71
 3835 048d 0A       		.byte	0xa
 3836 048e 6202     		.2byte	0x262
 3837 0490 2C000000 		.4byte	0x2c
 3838 0494 00       		.byte	0
 3839 0495 19       		.uleb128 0x19
 3840 0496 EE0A0000 		.4byte	.LASF72
 3841 049a 0A       		.byte	0xa
 3842 049b 6702     		.2byte	0x267
 3843 049d 86060000 		.4byte	0x686
 3844 04a1 04       		.byte	0x4
 3845 04a2 19       		.uleb128 0x19
 3846 04a3 89070000 		.4byte	.LASF73
 3847 04a7 0A       		.byte	0xa
 3848 04a8 6702     		.2byte	0x267
 3849 04aa 86060000 		.4byte	0x686
 3850 04ae 08       		.byte	0x8
 3851 04af 19       		.uleb128 0x19
 3852 04b0 CE060000 		.4byte	.LASF74
 3853 04b4 0A       		.byte	0xa
 3854 04b5 6702     		.2byte	0x267
 3855 04b7 86060000 		.4byte	0x686
 3856 04bb 0C       		.byte	0xc
 3857 04bc 19       		.uleb128 0x19
 3858 04bd 48010000 		.4byte	.LASF75
 3859 04c1 0A       		.byte	0xa
 3860 04c2 6902     		.2byte	0x269
 3861 04c4 2C000000 		.4byte	0x2c
 3862 04c8 10       		.byte	0x10
 3863 04c9 19       		.uleb128 0x19
 3864 04ca D2130000 		.4byte	.LASF76
ARM GAS  /tmp/ccH4KobB.s 			page 69


 3865 04ce 0A       		.byte	0xa
 3866 04cf 6A02     		.2byte	0x26a
 3867 04d1 68080000 		.4byte	0x868
 3868 04d5 14       		.byte	0x14
 3869 04d6 19       		.uleb128 0x19
 3870 04d7 ED1A0000 		.4byte	.LASF77
 3871 04db 0A       		.byte	0xa
 3872 04dc 6D02     		.2byte	0x26d
 3873 04de 2C000000 		.4byte	0x2c
 3874 04e2 30       		.byte	0x30
 3875 04e3 19       		.uleb128 0x19
 3876 04e4 9B1C0000 		.4byte	.LASF78
 3877 04e8 0A       		.byte	0xa
 3878 04e9 6E02     		.2byte	0x26e
 3879 04eb 7D080000 		.4byte	0x87d
 3880 04ef 34       		.byte	0x34
 3881 04f0 19       		.uleb128 0x19
 3882 04f1 371B0000 		.4byte	.LASF79
 3883 04f5 0A       		.byte	0xa
 3884 04f6 7002     		.2byte	0x270
 3885 04f8 2C000000 		.4byte	0x2c
 3886 04fc 38       		.byte	0x38
 3887 04fd 19       		.uleb128 0x19
 3888 04fe 3F170000 		.4byte	.LASF80
 3889 0502 0A       		.byte	0xa
 3890 0503 7202     		.2byte	0x272
 3891 0505 8E080000 		.4byte	0x88e
 3892 0509 3C       		.byte	0x3c
 3893 050a 19       		.uleb128 0x19
 3894 050b D6060000 		.4byte	.LASF81
 3895 050f 0A       		.byte	0xa
 3896 0510 7502     		.2byte	0x275
 3897 0512 C2010000 		.4byte	0x1c2
 3898 0516 40       		.byte	0x40
 3899 0517 19       		.uleb128 0x19
 3900 0518 BF060000 		.4byte	.LASF82
 3901 051c 0A       		.byte	0xa
 3902 051d 7602     		.2byte	0x276
 3903 051f 2C000000 		.4byte	0x2c
 3904 0523 44       		.byte	0x44
 3905 0524 19       		.uleb128 0x19
 3906 0525 A3180000 		.4byte	.LASF83
 3907 0529 0A       		.byte	0xa
 3908 052a 7702     		.2byte	0x277
 3909 052c C2010000 		.4byte	0x1c2
 3910 0530 48       		.byte	0x48
 3911 0531 19       		.uleb128 0x19
 3912 0532 EA110000 		.4byte	.LASF84
 3913 0536 0A       		.byte	0xa
 3914 0537 7802     		.2byte	0x278
 3915 0539 94080000 		.4byte	0x894
 3916 053d 4C       		.byte	0x4c
 3917 053e 19       		.uleb128 0x19
 3918 053f C2010000 		.4byte	.LASF85
 3919 0543 0A       		.byte	0xa
 3920 0544 7B02     		.2byte	0x27b
 3921 0546 2C000000 		.4byte	0x2c
ARM GAS  /tmp/ccH4KobB.s 			page 70


 3922 054a 50       		.byte	0x50
 3923 054b 19       		.uleb128 0x19
 3924 054c 670C0000 		.4byte	.LASF86
 3925 0550 0A       		.byte	0xa
 3926 0551 7C02     		.2byte	0x27c
 3927 0553 52010000 		.4byte	0x152
 3928 0557 54       		.byte	0x54
 3929 0558 19       		.uleb128 0x19
 3930 0559 3E0D0000 		.4byte	.LASF87
 3931 055d 0A       		.byte	0xa
 3932 055e 9F02     		.2byte	0x29f
 3933 0560 46080000 		.4byte	0x846
 3934 0564 58       		.byte	0x58
 3935 0565 1A       		.uleb128 0x1a
 3936 0566 C1000000 		.4byte	.LASF47
 3937 056a 0A       		.byte	0xa
 3938 056b A302     		.2byte	0x2a3
 3939 056d DF020000 		.4byte	0x2df
 3940 0571 4801     		.2byte	0x148
 3941 0573 1A       		.uleb128 0x1a
 3942 0574 0B160000 		.4byte	.LASF88
 3943 0578 0A       		.byte	0xa
 3944 0579 A402     		.2byte	0x2a4
 3945 057b A1020000 		.4byte	0x2a1
 3946 057f 4C01     		.2byte	0x14c
 3947 0581 1A       		.uleb128 0x1a
 3948 0582 EE010000 		.4byte	.LASF89
 3949 0586 0A       		.byte	0xa
 3950 0587 A802     		.2byte	0x2a8
 3951 0589 A5080000 		.4byte	0x8a5
 3952 058d DC02     		.2byte	0x2dc
 3953 058f 1A       		.uleb128 0x1a
 3954 0590 2C170000 		.4byte	.LASF90
 3955 0594 0A       		.byte	0xa
 3956 0595 AD02     		.2byte	0x2ad
 3957 0597 4B060000 		.4byte	0x64b
 3958 059b E002     		.2byte	0x2e0
 3959 059d 1A       		.uleb128 0x1a
 3960 059e FB040000 		.4byte	.LASF91
 3961 05a2 0A       		.byte	0xa
 3962 05a3 AF02     		.2byte	0x2af
 3963 05a5 B1080000 		.4byte	0x8b1
 3964 05a9 EC02     		.2byte	0x2ec
 3965 05ab 00       		.byte	0
 3966 05ac 06       		.uleb128 0x6
 3967 05ad 04       		.byte	0x4
 3968 05ae 51040000 		.4byte	0x451
 3969 05b2 16       		.uleb128 0x16
 3970 05b3 2C000000 		.4byte	0x2c
 3971 05b7 D0050000 		.4byte	0x5d0
 3972 05bb 17       		.uleb128 0x17
 3973 05bc 6F040000 		.4byte	0x46f
 3974 05c0 17       		.uleb128 0x17
 3975 05c1 50010000 		.4byte	0x150
 3976 05c5 17       		.uleb128 0x17
 3977 05c6 D0050000 		.4byte	0x5d0
 3978 05ca 17       		.uleb128 0x17
ARM GAS  /tmp/ccH4KobB.s 			page 71


 3979 05cb 2C000000 		.4byte	0x2c
 3980 05cf 00       		.byte	0
 3981 05d0 06       		.uleb128 0x6
 3982 05d1 04       		.byte	0x4
 3983 05d2 5F010000 		.4byte	0x15f
 3984 05d6 05       		.uleb128 0x5
 3985 05d7 D0050000 		.4byte	0x5d0
 3986 05db 06       		.uleb128 0x6
 3987 05dc 04       		.byte	0x4
 3988 05dd B2050000 		.4byte	0x5b2
 3989 05e1 16       		.uleb128 0x16
 3990 05e2 D3000000 		.4byte	0xd3
 3991 05e6 FF050000 		.4byte	0x5ff
 3992 05ea 17       		.uleb128 0x17
 3993 05eb 6F040000 		.4byte	0x46f
 3994 05ef 17       		.uleb128 0x17
 3995 05f0 50010000 		.4byte	0x150
 3996 05f4 17       		.uleb128 0x17
 3997 05f5 D3000000 		.4byte	0xd3
 3998 05f9 17       		.uleb128 0x17
 3999 05fa 2C000000 		.4byte	0x2c
 4000 05fe 00       		.byte	0
 4001 05ff 06       		.uleb128 0x6
 4002 0600 04       		.byte	0x4
 4003 0601 E1050000 		.4byte	0x5e1
 4004 0605 16       		.uleb128 0x16
 4005 0606 2C000000 		.4byte	0x2c
 4006 060a 19060000 		.4byte	0x619
 4007 060e 17       		.uleb128 0x17
 4008 060f 6F040000 		.4byte	0x46f
 4009 0613 17       		.uleb128 0x17
 4010 0614 50010000 		.4byte	0x150
 4011 0618 00       		.byte	0
 4012 0619 06       		.uleb128 0x6
 4013 061a 04       		.byte	0x4
 4014 061b 05060000 		.4byte	0x605
 4015 061f 0B       		.uleb128 0xb
 4016 0620 55000000 		.4byte	0x55
 4017 0624 2F060000 		.4byte	0x62f
 4018 0628 0C       		.uleb128 0xc
 4019 0629 25000000 		.4byte	0x25
 4020 062d 02       		.byte	0x2
 4021 062e 00       		.byte	0
 4022 062f 0B       		.uleb128 0xb
 4023 0630 55000000 		.4byte	0x55
 4024 0634 3F060000 		.4byte	0x63f
 4025 0638 0C       		.uleb128 0xc
 4026 0639 25000000 		.4byte	0x25
 4027 063d 00       		.byte	0
 4028 063e 00       		.byte	0
 4029 063f 08       		.uleb128 0x8
 4030 0640 641D0000 		.4byte	.LASF92
 4031 0644 0A       		.byte	0xa
 4032 0645 1F01     		.2byte	0x11f
 4033 0647 27030000 		.4byte	0x327
 4034 064b 1B       		.uleb128 0x1b
 4035 064c 76150000 		.4byte	.LASF93
ARM GAS  /tmp/ccH4KobB.s 			page 72


 4036 0650 0C       		.byte	0xc
 4037 0651 0A       		.byte	0xa
 4038 0652 2301     		.2byte	0x123
 4039 0654 80060000 		.4byte	0x680
 4040 0658 19       		.uleb128 0x19
 4041 0659 730E0000 		.4byte	.LASF27
 4042 065d 0A       		.byte	0xa
 4043 065e 2501     		.2byte	0x125
 4044 0660 80060000 		.4byte	0x680
 4045 0664 00       		.byte	0
 4046 0665 19       		.uleb128 0x19
 4047 0666 620D0000 		.4byte	.LASF94
 4048 066a 0A       		.byte	0xa
 4049 066b 2601     		.2byte	0x126
 4050 066d 2C000000 		.4byte	0x2c
 4051 0671 04       		.byte	0x4
 4052 0672 19       		.uleb128 0x19
 4053 0673 CC130000 		.4byte	.LASF95
 4054 0677 0A       		.byte	0xa
 4055 0678 2701     		.2byte	0x127
 4056 067a 86060000 		.4byte	0x686
 4057 067e 08       		.byte	0x8
 4058 067f 00       		.byte	0
 4059 0680 06       		.uleb128 0x6
 4060 0681 04       		.byte	0x4
 4061 0682 4B060000 		.4byte	0x64b
 4062 0686 06       		.uleb128 0x6
 4063 0687 04       		.byte	0x4
 4064 0688 3F060000 		.4byte	0x63f
 4065 068c 1B       		.uleb128 0x1b
 4066 068d AC1E0000 		.4byte	.LASF96
 4067 0691 0E       		.byte	0xe
 4068 0692 0A       		.byte	0xa
 4069 0693 3F01     		.2byte	0x13f
 4070 0695 C1060000 		.4byte	0x6c1
 4071 0699 19       		.uleb128 0x19
 4072 069a 5D110000 		.4byte	.LASF97
 4073 069e 0A       		.byte	0xa
 4074 069f 4001     		.2byte	0x140
 4075 06a1 C1060000 		.4byte	0x6c1
 4076 06a5 00       		.byte	0
 4077 06a6 19       		.uleb128 0x19
 4078 06a7 3B090000 		.4byte	.LASF98
 4079 06ab 0A       		.byte	0xa
 4080 06ac 4101     		.2byte	0x141
 4081 06ae C1060000 		.4byte	0x6c1
 4082 06b2 06       		.byte	0x6
 4083 06b3 19       		.uleb128 0x19
 4084 06b4 18030000 		.4byte	.LASF99
 4085 06b8 0A       		.byte	0xa
 4086 06b9 4201     		.2byte	0x142
 4087 06bb 6E000000 		.4byte	0x6e
 4088 06bf 0C       		.byte	0xc
 4089 06c0 00       		.byte	0
 4090 06c1 0B       		.uleb128 0xb
 4091 06c2 6E000000 		.4byte	0x6e
 4092 06c6 D1060000 		.4byte	0x6d1
ARM GAS  /tmp/ccH4KobB.s 			page 73


 4093 06ca 0C       		.uleb128 0xc
 4094 06cb 25000000 		.4byte	0x25
 4095 06cf 02       		.byte	0x2
 4096 06d0 00       		.byte	0
 4097 06d1 1C       		.uleb128 0x1c
 4098 06d2 D0       		.byte	0xd0
 4099 06d3 0A       		.byte	0xa
 4100 06d4 8002     		.2byte	0x280
 4101 06d6 D2070000 		.4byte	0x7d2
 4102 06da 19       		.uleb128 0x19
 4103 06db 3C060000 		.4byte	.LASF100
 4104 06df 0A       		.byte	0xa
 4105 06e0 8202     		.2byte	0x282
 4106 06e2 25000000 		.4byte	0x25
 4107 06e6 00       		.byte	0
 4108 06e7 19       		.uleb128 0x19
 4109 06e8 F2100000 		.4byte	.LASF101
 4110 06ec 0A       		.byte	0xa
 4111 06ed 8302     		.2byte	0x283
 4112 06ef 52010000 		.4byte	0x152
 4113 06f3 04       		.byte	0x4
 4114 06f4 19       		.uleb128 0x19
 4115 06f5 D0120000 		.4byte	.LASF102
 4116 06f9 0A       		.byte	0xa
 4117 06fa 8402     		.2byte	0x284
 4118 06fc D2070000 		.4byte	0x7d2
 4119 0700 08       		.byte	0x8
 4120 0701 19       		.uleb128 0x19
 4121 0702 880B0000 		.4byte	.LASF103
 4122 0706 0A       		.byte	0xa
 4123 0707 8502     		.2byte	0x285
 4124 0709 D8010000 		.4byte	0x1d8
 4125 070d 24       		.byte	0x24
 4126 070e 19       		.uleb128 0x19
 4127 070f 0E1A0000 		.4byte	.LASF104
 4128 0713 0A       		.byte	0xa
 4129 0714 8602     		.2byte	0x286
 4130 0716 2C000000 		.4byte	0x2c
 4131 071a 48       		.byte	0x48
 4132 071b 19       		.uleb128 0x19
 4133 071c FD130000 		.4byte	.LASF105
 4134 0720 0A       		.byte	0xa
 4135 0721 8702     		.2byte	0x287
 4136 0723 AB000000 		.4byte	0xab
 4137 0727 50       		.byte	0x50
 4138 0728 19       		.uleb128 0x19
 4139 0729 ED1D0000 		.4byte	.LASF106
 4140 072d 0A       		.byte	0xa
 4141 072e 8802     		.2byte	0x288
 4142 0730 8C060000 		.4byte	0x68c
 4143 0734 58       		.byte	0x58
 4144 0735 19       		.uleb128 0x19
 4145 0736 1F170000 		.4byte	.LASF107
 4146 073a 0A       		.byte	0xa
 4147 073b 8902     		.2byte	0x289
 4148 073d 3A010000 		.4byte	0x13a
 4149 0741 68       		.byte	0x68
ARM GAS  /tmp/ccH4KobB.s 			page 74


 4150 0742 19       		.uleb128 0x19
 4151 0743 21050000 		.4byte	.LASF108
 4152 0747 0A       		.byte	0xa
 4153 0748 8A02     		.2byte	0x28a
 4154 074a 3A010000 		.4byte	0x13a
 4155 074e 70       		.byte	0x70
 4156 074f 19       		.uleb128 0x19
 4157 0750 94130000 		.4byte	.LASF109
 4158 0754 0A       		.byte	0xa
 4159 0755 8B02     		.2byte	0x28b
 4160 0757 3A010000 		.4byte	0x13a
 4161 075b 78       		.byte	0x78
 4162 075c 19       		.uleb128 0x19
 4163 075d 9A120000 		.4byte	.LASF110
 4164 0761 0A       		.byte	0xa
 4165 0762 8C02     		.2byte	0x28c
 4166 0764 E2070000 		.4byte	0x7e2
 4167 0768 80       		.byte	0x80
 4168 0769 19       		.uleb128 0x19
 4169 076a 8D0E0000 		.4byte	.LASF111
 4170 076e 0A       		.byte	0xa
 4171 076f 8D02     		.2byte	0x28d
 4172 0771 F2070000 		.4byte	0x7f2
 4173 0775 88       		.byte	0x88
 4174 0776 19       		.uleb128 0x19
 4175 0777 5F160000 		.4byte	.LASF112
 4176 077b 0A       		.byte	0xa
 4177 077c 8E02     		.2byte	0x28e
 4178 077e 2C000000 		.4byte	0x2c
 4179 0782 A0       		.byte	0xa0
 4180 0783 19       		.uleb128 0x19
 4181 0784 910A0000 		.4byte	.LASF113
 4182 0788 0A       		.byte	0xa
 4183 0789 8F02     		.2byte	0x28f
 4184 078b 3A010000 		.4byte	0x13a
 4185 078f A4       		.byte	0xa4
 4186 0790 19       		.uleb128 0x19
 4187 0791 EC0C0000 		.4byte	.LASF114
 4188 0795 0A       		.byte	0xa
 4189 0796 9002     		.2byte	0x290
 4190 0798 3A010000 		.4byte	0x13a
 4191 079c AC       		.byte	0xac
 4192 079d 19       		.uleb128 0x19
 4193 079e D7070000 		.4byte	.LASF115
 4194 07a2 0A       		.byte	0xa
 4195 07a3 9102     		.2byte	0x291
 4196 07a5 3A010000 		.4byte	0x13a
 4197 07a9 B4       		.byte	0xb4
 4198 07aa 19       		.uleb128 0x19
 4199 07ab E40F0000 		.4byte	.LASF116
 4200 07af 0A       		.byte	0xa
 4201 07b0 9202     		.2byte	0x292
 4202 07b2 3A010000 		.4byte	0x13a
 4203 07b6 BC       		.byte	0xbc
 4204 07b7 19       		.uleb128 0x19
 4205 07b8 08130000 		.4byte	.LASF117
 4206 07bc 0A       		.byte	0xa
ARM GAS  /tmp/ccH4KobB.s 			page 75


 4207 07bd 9302     		.2byte	0x293
 4208 07bf 3A010000 		.4byte	0x13a
 4209 07c3 C4       		.byte	0xc4
 4210 07c4 19       		.uleb128 0x19
 4211 07c5 D7170000 		.4byte	.LASF118
 4212 07c9 0A       		.byte	0xa
 4213 07ca 9402     		.2byte	0x294
 4214 07cc 2C000000 		.4byte	0x2c
 4215 07d0 CC       		.byte	0xcc
 4216 07d1 00       		.byte	0
 4217 07d2 0B       		.uleb128 0xb
 4218 07d3 58010000 		.4byte	0x158
 4219 07d7 E2070000 		.4byte	0x7e2
 4220 07db 0C       		.uleb128 0xc
 4221 07dc 25000000 		.4byte	0x25
 4222 07e0 19       		.byte	0x19
 4223 07e1 00       		.byte	0
 4224 07e2 0B       		.uleb128 0xb
 4225 07e3 58010000 		.4byte	0x158
 4226 07e7 F2070000 		.4byte	0x7f2
 4227 07eb 0C       		.uleb128 0xc
 4228 07ec 25000000 		.4byte	0x25
 4229 07f0 07       		.byte	0x7
 4230 07f1 00       		.byte	0
 4231 07f2 0B       		.uleb128 0xb
 4232 07f3 58010000 		.4byte	0x158
 4233 07f7 02080000 		.4byte	0x802
 4234 07fb 0C       		.uleb128 0xc
 4235 07fc 25000000 		.4byte	0x25
 4236 0800 17       		.byte	0x17
 4237 0801 00       		.byte	0
 4238 0802 1C       		.uleb128 0x1c
 4239 0803 F0       		.byte	0xf0
 4240 0804 0A       		.byte	0xa
 4241 0805 9902     		.2byte	0x299
 4242 0807 26080000 		.4byte	0x826
 4243 080b 19       		.uleb128 0x19
 4244 080c F0130000 		.4byte	.LASF119
 4245 0810 0A       		.byte	0xa
 4246 0811 9C02     		.2byte	0x29c
 4247 0813 26080000 		.4byte	0x826
 4248 0817 00       		.byte	0
 4249 0818 19       		.uleb128 0x19
 4250 0819 F50A0000 		.4byte	.LASF120
 4251 081d 0A       		.byte	0xa
 4252 081e 9D02     		.2byte	0x29d
 4253 0820 36080000 		.4byte	0x836
 4254 0824 78       		.byte	0x78
 4255 0825 00       		.byte	0
 4256 0826 0B       		.uleb128 0xb
 4257 0827 21030000 		.4byte	0x321
 4258 082b 36080000 		.4byte	0x836
 4259 082f 0C       		.uleb128 0xc
 4260 0830 25000000 		.4byte	0x25
 4261 0834 1D       		.byte	0x1d
 4262 0835 00       		.byte	0
 4263 0836 0B       		.uleb128 0xb
ARM GAS  /tmp/ccH4KobB.s 			page 76


 4264 0837 25000000 		.4byte	0x25
 4265 083b 46080000 		.4byte	0x846
 4266 083f 0C       		.uleb128 0xc
 4267 0840 25000000 		.4byte	0x25
 4268 0844 1D       		.byte	0x1d
 4269 0845 00       		.byte	0
 4270 0846 1D       		.uleb128 0x1d
 4271 0847 F0       		.byte	0xf0
 4272 0848 0A       		.byte	0xa
 4273 0849 7E02     		.2byte	0x27e
 4274 084b 68080000 		.4byte	0x868
 4275 084f 1E       		.uleb128 0x1e
 4276 0850 B6040000 		.4byte	.LASF70
 4277 0854 0A       		.byte	0xa
 4278 0855 9502     		.2byte	0x295
 4279 0857 D1060000 		.4byte	0x6d1
 4280 085b 1E       		.uleb128 0x1e
 4281 085c 46020000 		.4byte	.LASF121
 4282 0860 0A       		.byte	0xa
 4283 0861 9E02     		.2byte	0x29e
 4284 0863 02080000 		.4byte	0x802
 4285 0867 00       		.byte	0
 4286 0868 0B       		.uleb128 0xb
 4287 0869 58010000 		.4byte	0x158
 4288 086d 78080000 		.4byte	0x878
 4289 0871 0C       		.uleb128 0xc
 4290 0872 25000000 		.4byte	0x25
 4291 0876 18       		.byte	0x18
 4292 0877 00       		.byte	0
 4293 0878 07       		.uleb128 0x7
 4294 0879 34170000 		.4byte	.LASF123
 4295 087d 06       		.uleb128 0x6
 4296 087e 04       		.byte	0x4
 4297 087f 78080000 		.4byte	0x878
 4298 0883 1F       		.uleb128 0x1f
 4299 0884 8E080000 		.4byte	0x88e
 4300 0888 17       		.uleb128 0x17
 4301 0889 6F040000 		.4byte	0x46f
 4302 088d 00       		.byte	0
 4303 088e 06       		.uleb128 0x6
 4304 088f 04       		.byte	0x4
 4305 0890 83080000 		.4byte	0x883
 4306 0894 06       		.uleb128 0x6
 4307 0895 04       		.byte	0x4
 4308 0896 C2010000 		.4byte	0x1c2
 4309 089a 1F       		.uleb128 0x1f
 4310 089b A5080000 		.4byte	0x8a5
 4311 089f 17       		.uleb128 0x17
 4312 08a0 2C000000 		.4byte	0x2c
 4313 08a4 00       		.byte	0
 4314 08a5 06       		.uleb128 0x6
 4315 08a6 04       		.byte	0x4
 4316 08a7 AB080000 		.4byte	0x8ab
 4317 08ab 06       		.uleb128 0x6
 4318 08ac 04       		.byte	0x4
 4319 08ad 9A080000 		.4byte	0x89a
 4320 08b1 0B       		.uleb128 0xb
ARM GAS  /tmp/ccH4KobB.s 			page 77


 4321 08b2 3F060000 		.4byte	0x63f
 4322 08b6 C1080000 		.4byte	0x8c1
 4323 08ba 0C       		.uleb128 0xc
 4324 08bb 25000000 		.4byte	0x25
 4325 08bf 02       		.byte	0x2
 4326 08c0 00       		.byte	0
 4327 08c1 20       		.uleb128 0x20
 4328 08c2 E5160000 		.4byte	.LASF124
 4329 08c6 0A       		.byte	0xa
 4330 08c7 2E03     		.2byte	0x32e
 4331 08c9 6F040000 		.4byte	0x46f
 4332 08cd 20       		.uleb128 0x20
 4333 08ce CA1A0000 		.4byte	.LASF125
 4334 08d2 0A       		.byte	0xa
 4335 08d3 2F03     		.2byte	0x32f
 4336 08d5 75040000 		.4byte	0x475
 4337 08d9 04       		.uleb128 0x4
 4338 08da A80B0000 		.4byte	.LASF126
 4339 08de 0B       		.byte	0xb
 4340 08df 18       		.byte	0x18
 4341 08e0 4A000000 		.4byte	0x4a
 4342 08e4 10       		.uleb128 0x10
 4343 08e5 D9080000 		.4byte	0x8d9
 4344 08e9 04       		.uleb128 0x4
 4345 08ea 7E010000 		.4byte	.LASF127
 4346 08ee 0B       		.byte	0xb
 4347 08ef 24       		.byte	0x24
 4348 08f0 63000000 		.4byte	0x63
 4349 08f4 04       		.uleb128 0x4
 4350 08f5 F0020000 		.4byte	.LASF128
 4351 08f9 0B       		.byte	0xb
 4352 08fa 2C       		.byte	0x2c
 4353 08fb 75000000 		.4byte	0x75
 4354 08ff 05       		.uleb128 0x5
 4355 0900 F4080000 		.4byte	0x8f4
 4356 0904 04       		.uleb128 0x4
 4357 0905 2C140000 		.4byte	.LASF129
 4358 0909 0B       		.byte	0xb
 4359 090a 30       		.byte	0x30
 4360 090b 87000000 		.4byte	0x87
 4361 090f 05       		.uleb128 0x5
 4362 0910 04090000 		.4byte	0x904
 4363 0914 04       		.uleb128 0x4
 4364 0915 A7080000 		.4byte	.LASF130
 4365 0919 0B       		.byte	0xb
 4366 091a 3C       		.byte	0x3c
 4367 091b A0000000 		.4byte	0xa0
 4368 091f 04       		.uleb128 0x4
 4369 0920 2A0B0000 		.4byte	.LASF131
 4370 0924 0C       		.byte	0xc
 4371 0925 45       		.byte	0x45
 4372 0926 04090000 		.4byte	0x904
 4373 092a 04       		.uleb128 0x4
 4374 092b A60F0000 		.4byte	.LASF132
 4375 092f 0C       		.byte	0xc
 4376 0930 48       		.byte	0x48
 4377 0931 D9080000 		.4byte	0x8d9
ARM GAS  /tmp/ccH4KobB.s 			page 78


 4378 0935 04       		.uleb128 0x4
 4379 0936 C11A0000 		.4byte	.LASF133
 4380 093a 0C       		.byte	0xc
 4381 093b 49       		.byte	0x49
 4382 093c D9080000 		.4byte	0x8d9
 4383 0940 04       		.uleb128 0x4
 4384 0941 4C0F0000 		.4byte	.LASF134
 4385 0945 0C       		.byte	0xc
 4386 0946 4A       		.byte	0x4a
 4387 0947 D9080000 		.4byte	0x8d9
 4388 094b 04       		.uleb128 0x4
 4389 094c E8100000 		.4byte	.LASF135
 4390 0950 0C       		.byte	0xc
 4391 0951 4B       		.byte	0x4b
 4392 0952 D9080000 		.4byte	0x8d9
 4393 0956 04       		.uleb128 0x4
 4394 0957 62050000 		.4byte	.LASF136
 4395 095b 0C       		.byte	0xc
 4396 095c 4C       		.byte	0x4c
 4397 095d 04090000 		.4byte	0x904
 4398 0961 04       		.uleb128 0x4
 4399 0962 3C000000 		.4byte	.LASF137
 4400 0966 0C       		.byte	0xc
 4401 0967 4D       		.byte	0x4d
 4402 0968 F4080000 		.4byte	0x8f4
 4403 096c 04       		.uleb128 0x4
 4404 096d 86140000 		.4byte	.LASF138
 4405 0971 0C       		.byte	0xc
 4406 0972 4F       		.byte	0x4f
 4407 0973 04090000 		.4byte	0x904
 4408 0977 04       		.uleb128 0x4
 4409 0978 A31C0000 		.4byte	.LASF139
 4410 097c 0C       		.byte	0xc
 4411 097d 50       		.byte	0x50
 4412 097e 04090000 		.4byte	0x904
 4413 0982 04       		.uleb128 0x4
 4414 0983 87160000 		.4byte	.LASF140
 4415 0987 0C       		.byte	0xc
 4416 0988 51       		.byte	0x51
 4417 0989 F4080000 		.4byte	0x8f4
 4418 098d 04       		.uleb128 0x4
 4419 098e 04030000 		.4byte	.LASF141
 4420 0992 0D       		.byte	0xd
 4421 0993 33       		.byte	0x33
 4422 0994 04090000 		.4byte	0x904
 4423 0998 05       		.uleb128 0x5
 4424 0999 8D090000 		.4byte	0x98d
 4425 099d 04       		.uleb128 0x4
 4426 099e AB020000 		.4byte	.LASF142
 4427 09a2 0D       		.byte	0xd
 4428 09a3 3F       		.byte	0x3f
 4429 09a4 A8090000 		.4byte	0x9a8
 4430 09a8 11       		.uleb128 0x11
 4431 09a9 BB070000 		.4byte	.LASF143
 4432 09ad 48       		.byte	0x48
 4433 09ae 0E       		.byte	0xe
 4434 09af C2       		.byte	0xc2
ARM GAS  /tmp/ccH4KobB.s 			page 79


 4435 09b0 AD0A0000 		.4byte	0xaad
 4436 09b4 0E       		.uleb128 0xe
 4437 09b5 020F0000 		.4byte	.LASF144
 4438 09b9 0E       		.byte	0xe
 4439 09ba C3       		.byte	0xc3
 4440 09bb B80A0000 		.4byte	0xab8
 4441 09bf 00       		.byte	0
 4442 09c0 0E       		.uleb128 0xe
 4443 09c1 E40B0000 		.4byte	.LASF145
 4444 09c5 0E       		.byte	0xe
 4445 09c6 C5       		.byte	0xc5
 4446 09c7 B80A0000 		.4byte	0xab8
 4447 09cb 04       		.byte	0x4
 4448 09cc 0E       		.uleb128 0xe
 4449 09cd 400E0000 		.4byte	.LASF146
 4450 09d1 0E       		.byte	0xe
 4451 09d2 C7       		.byte	0xc7
 4452 09d3 56090000 		.4byte	0x956
 4453 09d7 08       		.byte	0x8
 4454 09d8 0E       		.uleb128 0xe
 4455 09d9 3B080000 		.4byte	.LASF147
 4456 09dd 0E       		.byte	0xe
 4457 09de C8       		.byte	0xc8
 4458 09df 2C130000 		.4byte	0x132c
 4459 09e3 0C       		.byte	0xc
 4460 09e4 0E       		.uleb128 0xe
 4461 09e5 F8010000 		.4byte	.LASF148
 4462 09e9 0E       		.byte	0xe
 4463 09ea CA       		.byte	0xca
 4464 09eb B80A0000 		.4byte	0xab8
 4465 09ef 10       		.byte	0x10
 4466 09f0 0E       		.uleb128 0xe
 4467 09f1 141D0000 		.4byte	.LASF149
 4468 09f5 0E       		.byte	0xe
 4469 09f6 CB       		.byte	0xcb
 4470 09f7 B80A0000 		.4byte	0xab8
 4471 09fb 14       		.byte	0x14
 4472 09fc 0E       		.uleb128 0xe
 4473 09fd 301B0000 		.4byte	.LASF150
 4474 0a01 0E       		.byte	0xe
 4475 0a02 D2       		.byte	0xd2
 4476 0a03 D0050000 		.4byte	0x5d0
 4477 0a07 18       		.byte	0x18
 4478 0a08 0E       		.uleb128 0xe
 4479 0a09 081F0000 		.4byte	.LASF151
 4480 0a0d 0E       		.byte	0xe
 4481 0a0e DD       		.byte	0xdd
 4482 0a0f 35090000 		.4byte	0x935
 4483 0a13 1C       		.byte	0x1c
 4484 0a14 0E       		.uleb128 0xe
 4485 0a15 871A0000 		.4byte	.LASF152
 4486 0a19 0E       		.byte	0xe
 4487 0a1a E1       		.byte	0xe1
 4488 0a1b 2A090000 		.4byte	0x92a
 4489 0a1f 1D       		.byte	0x1d
 4490 0a20 0E       		.uleb128 0xe
 4491 0a21 4A130000 		.4byte	.LASF153
ARM GAS  /tmp/ccH4KobB.s 			page 80


 4492 0a25 0E       		.byte	0xe
 4493 0a26 E6       		.byte	0xe6
 4494 0a27 40090000 		.4byte	0x940
 4495 0a2b 1E       		.byte	0x1e
 4496 0a2c 0E       		.uleb128 0xe
 4497 0a2d A2110000 		.4byte	.LASF154
 4498 0a31 0E       		.byte	0xe
 4499 0a32 EC       		.byte	0xec
 4500 0a33 4B090000 		.4byte	0x94b
 4501 0a37 1F       		.byte	0x1f
 4502 0a38 0E       		.uleb128 0xe
 4503 0a39 AC110000 		.4byte	.LASF155
 4504 0a3d 0E       		.byte	0xe
 4505 0a3e F3       		.byte	0xf3
 4506 0a3f 98090000 		.4byte	0x998
 4507 0a43 20       		.byte	0x20
 4508 0a44 21       		.uleb128 0x21
 4509 0a45 705F7500 		.ascii	"p_u\000"
 4510 0a49 0E       		.byte	0xe
 4511 0a4a 3101     		.2byte	0x131
 4512 0a4c AC140000 		.4byte	0x14ac
 4513 0a50 24       		.byte	0x24
 4514 0a51 19       		.uleb128 0x19
 4515 0a52 3C040000 		.4byte	.LASF156
 4516 0a56 0E       		.byte	0xe
 4517 0a57 3601     		.2byte	0x136
 4518 0a59 BE0A0000 		.4byte	0xabe
 4519 0a5d 28       		.byte	0x28
 4520 0a5e 19       		.uleb128 0x19
 4521 0a5f 09120000 		.4byte	.LASF157
 4522 0a63 0E       		.byte	0xe
 4523 0a64 3C01     		.2byte	0x13c
 4524 0a66 E20A0000 		.4byte	0xae2
 4525 0a6a 2C       		.byte	0x2c
 4526 0a6b 19       		.uleb128 0x19
 4527 0a6c 36060000 		.4byte	.LASF158
 4528 0a70 0E       		.byte	0xe
 4529 0a71 4001     		.2byte	0x140
 4530 0a73 61090000 		.4byte	0x961
 4531 0a77 34       		.byte	0x34
 4532 0a78 19       		.uleb128 0x19
 4533 0a79 A8180000 		.4byte	.LASF159
 4534 0a7d 0E       		.byte	0xe
 4535 0a7e 4601     		.2byte	0x146
 4536 0a80 6C090000 		.4byte	0x96c
 4537 0a84 38       		.byte	0x38
 4538 0a85 19       		.uleb128 0x19
 4539 0a86 AC1A0000 		.4byte	.LASF160
 4540 0a8a 0E       		.byte	0xe
 4541 0a8b 4D01     		.2byte	0x14d
 4542 0a8d 6B150000 		.4byte	0x156b
 4543 0a91 3C       		.byte	0x3c
 4544 0a92 19       		.uleb128 0x19
 4545 0a93 87170000 		.4byte	.LASF161
 4546 0a97 0E       		.byte	0xe
 4547 0a98 5101     		.2byte	0x151
 4548 0a9a 56090000 		.4byte	0x956
ARM GAS  /tmp/ccH4KobB.s 			page 81


 4549 0a9e 40       		.byte	0x40
 4550 0a9f 19       		.uleb128 0x19
 4551 0aa0 540F0000 		.4byte	.LASF162
 4552 0aa4 0E       		.byte	0xe
 4553 0aa5 5801     		.2byte	0x158
 4554 0aa7 50010000 		.4byte	0x150
 4555 0aab 44       		.byte	0x44
 4556 0aac 00       		.byte	0
 4557 0aad 04       		.uleb128 0x4
 4558 0aae 471D0000 		.4byte	.LASF163
 4559 0ab2 0D       		.byte	0xd
 4560 0ab3 44       		.byte	0x44
 4561 0ab4 B80A0000 		.4byte	0xab8
 4562 0ab8 06       		.uleb128 0x6
 4563 0ab9 04       		.byte	0x4
 4564 0aba 9D090000 		.4byte	0x99d
 4565 0abe 04       		.uleb128 0x4
 4566 0abf 72040000 		.4byte	.LASF164
 4567 0ac3 0D       		.byte	0xd
 4568 0ac4 49       		.byte	0x49
 4569 0ac5 C90A0000 		.4byte	0xac9
 4570 0ac9 11       		.uleb128 0x11
 4571 0aca 101F0000 		.4byte	.LASF165
 4572 0ace 04       		.byte	0x4
 4573 0acf 0E       		.byte	0xe
 4574 0ad0 B0       		.byte	0xb0
 4575 0ad1 E20A0000 		.4byte	0xae2
 4576 0ad5 0E       		.uleb128 0xe
 4577 0ad6 020F0000 		.4byte	.LASF144
 4578 0ada 0E       		.byte	0xe
 4579 0adb B1       		.byte	0xb1
 4580 0adc B80A0000 		.4byte	0xab8
 4581 0ae0 00       		.byte	0
 4582 0ae1 00       		.byte	0
 4583 0ae2 04       		.uleb128 0x4
 4584 0ae3 3A130000 		.4byte	.LASF166
 4585 0ae7 0D       		.byte	0xd
 4586 0ae8 50       		.byte	0x50
 4587 0ae9 ED0A0000 		.4byte	0xaed
 4588 0aed 11       		.uleb128 0x11
 4589 0aee D0010000 		.4byte	.LASF167
 4590 0af2 08       		.byte	0x8
 4591 0af3 0E       		.byte	0xe
 4592 0af4 B7       		.byte	0xb7
 4593 0af5 120B0000 		.4byte	0xb12
 4594 0af9 0E       		.uleb128 0xe
 4595 0afa 020F0000 		.4byte	.LASF144
 4596 0afe 0E       		.byte	0xe
 4597 0aff B8       		.byte	0xb8
 4598 0b00 B80A0000 		.4byte	0xab8
 4599 0b04 00       		.byte	0
 4600 0b05 0E       		.uleb128 0xe
 4601 0b06 E40B0000 		.4byte	.LASF145
 4602 0b0a 0E       		.byte	0xe
 4603 0b0b B9       		.byte	0xb9
 4604 0b0c B80A0000 		.4byte	0xab8
 4605 0b10 04       		.byte	0x4
ARM GAS  /tmp/ccH4KobB.s 			page 82


 4606 0b11 00       		.byte	0
 4607 0b12 04       		.uleb128 0x4
 4608 0b13 AE070000 		.4byte	.LASF168
 4609 0b17 0D       		.byte	0xd
 4610 0b18 57       		.byte	0x57
 4611 0b19 1D0B0000 		.4byte	0xb1d
 4612 0b1d 1B       		.uleb128 0x1b
 4613 0b1e 01180000 		.4byte	.LASF169
 4614 0b22 1C       		.byte	0x1c
 4615 0b23 0E       		.byte	0xe
 4616 0b24 9001     		.2byte	0x190
 4617 0b26 790B0000 		.4byte	0xb79
 4618 0b2a 19       		.uleb128 0x19
 4619 0b2b 6E150000 		.4byte	.LASF170
 4620 0b2f 0E       		.byte	0xe
 4621 0b30 9101     		.2byte	0x191
 4622 0b32 E20A0000 		.4byte	0xae2
 4623 0b36 00       		.byte	0
 4624 0b37 19       		.uleb128 0x19
 4625 0b38 8B190000 		.4byte	.LASF171
 4626 0b3c 0E       		.byte	0xe
 4627 0b3d 9201     		.2byte	0x192
 4628 0b3f 56090000 		.4byte	0x956
 4629 0b43 08       		.byte	0x8
 4630 0b44 19       		.uleb128 0x19
 4631 0b45 1C0B0000 		.4byte	.LASF172
 4632 0b49 0E       		.byte	0xe
 4633 0b4a 9401     		.2byte	0x194
 4634 0b4c 2C130000 		.4byte	0x132c
 4635 0b50 0C       		.byte	0xc
 4636 0b51 19       		.uleb128 0x19
 4637 0b52 4D100000 		.4byte	.LASF173
 4638 0b56 0E       		.byte	0xe
 4639 0b57 9701     		.2byte	0x197
 4640 0b59 B80A0000 		.4byte	0xab8
 4641 0b5d 10       		.byte	0x10
 4642 0b5e 19       		.uleb128 0x19
 4643 0b5f DC0B0000 		.4byte	.LASF174
 4644 0b63 0E       		.byte	0xe
 4645 0b64 9801     		.2byte	0x198
 4646 0b66 B80A0000 		.4byte	0xab8
 4647 0b6a 14       		.byte	0x14
 4648 0b6b 19       		.uleb128 0x19
 4649 0b6c 8C0D0000 		.4byte	.LASF175
 4650 0b70 0E       		.byte	0xe
 4651 0b71 9B01     		.2byte	0x19b
 4652 0b73 B80A0000 		.4byte	0xab8
 4653 0b77 18       		.byte	0x18
 4654 0b78 00       		.byte	0
 4655 0b79 04       		.uleb128 0x4
 4656 0b7a 51170000 		.4byte	.LASF176
 4657 0b7e 0D       		.byte	0xd
 4658 0b7f 5C       		.byte	0x5c
 4659 0b80 840B0000 		.4byte	0xb84
 4660 0b84 06       		.uleb128 0x6
 4661 0b85 04       		.byte	0x4
 4662 0b86 8A0B0000 		.4byte	0xb8a
ARM GAS  /tmp/ccH4KobB.s 			page 83


 4663 0b8a 1F       		.uleb128 0x1f
 4664 0b8b 950B0000 		.4byte	0xb95
 4665 0b8f 17       		.uleb128 0x17
 4666 0b90 50010000 		.4byte	0x150
 4667 0b94 00       		.byte	0
 4668 0b95 04       		.uleb128 0x4
 4669 0b96 0C0B0000 		.4byte	.LASF177
 4670 0b9a 0D       		.byte	0xd
 4671 0b9b 61       		.byte	0x61
 4672 0b9c A00B0000 		.4byte	0xba0
 4673 0ba0 1B       		.uleb128 0x1b
 4674 0ba1 761A0000 		.4byte	.LASF178
 4675 0ba5 14       		.byte	0x14
 4676 0ba6 0E       		.byte	0xe
 4677 0ba7 6B01     		.2byte	0x16b
 4678 0ba9 EF0B0000 		.4byte	0xbef
 4679 0bad 19       		.uleb128 0x19
 4680 0bae 220B0000 		.4byte	.LASF179
 4681 0bb2 0E       		.byte	0xe
 4682 0bb3 6C01     		.2byte	0x16c
 4683 0bb5 71150000 		.4byte	0x1571
 4684 0bb9 00       		.byte	0
 4685 0bba 19       		.uleb128 0x19
 4686 0bbb 63070000 		.4byte	.LASF180
 4687 0bbf 0E       		.byte	0xe
 4688 0bc0 6D01     		.2byte	0x16d
 4689 0bc2 71150000 		.4byte	0x1571
 4690 0bc6 04       		.byte	0x4
 4691 0bc7 19       		.uleb128 0x19
 4692 0bc8 3E110000 		.4byte	.LASF181
 4693 0bcc 0E       		.byte	0xe
 4694 0bcd 6E01     		.2byte	0x16e
 4695 0bcf 8D090000 		.4byte	0x98d
 4696 0bd3 08       		.byte	0x8
 4697 0bd4 19       		.uleb128 0x19
 4698 0bd5 531A0000 		.4byte	.LASF182
 4699 0bd9 0E       		.byte	0xe
 4700 0bda 6F01     		.2byte	0x16f
 4701 0bdc 790B0000 		.4byte	0xb79
 4702 0be0 0C       		.byte	0xc
 4703 0be1 19       		.uleb128 0x19
 4704 0be2 41080000 		.4byte	.LASF183
 4705 0be6 0E       		.byte	0xe
 4706 0be7 7101     		.2byte	0x171
 4707 0be9 50010000 		.4byte	0x150
 4708 0bed 10       		.byte	0x10
 4709 0bee 00       		.byte	0
 4710 0bef 04       		.uleb128 0x4
 4711 0bf0 A51B0000 		.4byte	.LASF184
 4712 0bf4 0D       		.byte	0xd
 4713 0bf5 66       		.byte	0x66
 4714 0bf6 FA0B0000 		.4byte	0xbfa
 4715 0bfa 1B       		.uleb128 0x1b
 4716 0bfb CA020000 		.4byte	.LASF185
 4717 0bff 10       		.byte	0x10
 4718 0c00 0E       		.byte	0xe
 4719 0c01 7B01     		.2byte	0x17b
ARM GAS  /tmp/ccH4KobB.s 			page 84


 4720 0c03 3C0C0000 		.4byte	0xc3c
 4721 0c07 19       		.uleb128 0x19
 4722 0c08 220B0000 		.4byte	.LASF179
 4723 0c0c 0E       		.byte	0xe
 4724 0c0d 7C01     		.2byte	0x17c
 4725 0c0f 71150000 		.4byte	0x1571
 4726 0c13 00       		.byte	0
 4727 0c14 19       		.uleb128 0x19
 4728 0c15 63070000 		.4byte	.LASF180
 4729 0c19 0E       		.byte	0xe
 4730 0c1a 7E01     		.2byte	0x17e
 4731 0c1c 71150000 		.4byte	0x1571
 4732 0c20 04       		.byte	0x4
 4733 0c21 19       		.uleb128 0x19
 4734 0c22 3E110000 		.4byte	.LASF181
 4735 0c26 0E       		.byte	0xe
 4736 0c27 8001     		.2byte	0x180
 4737 0c29 8D090000 		.4byte	0x98d
 4738 0c2d 08       		.byte	0x8
 4739 0c2e 19       		.uleb128 0x19
 4740 0c2f FE000000 		.4byte	.LASF186
 4741 0c33 0E       		.byte	0xe
 4742 0c34 8201     		.2byte	0x182
 4743 0c36 98090000 		.4byte	0x998
 4744 0c3a 0C       		.byte	0xc
 4745 0c3b 00       		.byte	0
 4746 0c3c 04       		.uleb128 0x4
 4747 0c3d 1D080000 		.4byte	.LASF187
 4748 0c41 0D       		.byte	0xd
 4749 0c42 6B       		.byte	0x6b
 4750 0c43 470C0000 		.4byte	0xc47
 4751 0c47 1B       		.uleb128 0x1b
 4752 0c48 30180000 		.4byte	.LASF188
 4753 0c4c 04       		.byte	0x4
 4754 0c4d 0E       		.byte	0xe
 4755 0c4e A201     		.2byte	0x1a2
 4756 0c50 620C0000 		.4byte	0xc62
 4757 0c54 19       		.uleb128 0x19
 4758 0c55 36100000 		.4byte	.LASF189
 4759 0c59 0E       		.byte	0xe
 4760 0c5a AA01     		.2byte	0x1aa
 4761 0c5c D6050000 		.4byte	0x5d6
 4762 0c60 00       		.byte	0
 4763 0c61 00       		.byte	0
 4764 0c62 04       		.uleb128 0x4
 4765 0c63 8F000000 		.4byte	.LASF190
 4766 0c67 0D       		.byte	0xd
 4767 0c68 70       		.byte	0x70
 4768 0c69 6D0C0000 		.4byte	0xc6d
 4769 0c6d 18       		.uleb128 0x18
 4770 0c6e BB120000 		.4byte	.LASF191
 4771 0c72 5802     		.2byte	0x258
 4772 0c74 0E       		.byte	0xe
 4773 0c75 C201     		.2byte	0x1c2
 4774 0c77 C90C0000 		.4byte	0xcc9
 4775 0c7b 19       		.uleb128 0x19
 4776 0c7c 6C040000 		.4byte	.LASF192
ARM GAS  /tmp/ccH4KobB.s 			page 85


 4777 0c80 0E       		.byte	0xe
 4778 0c81 C601     		.2byte	0x1c6
 4779 0c83 120B0000 		.4byte	0xb12
 4780 0c87 00       		.byte	0
 4781 0c88 19       		.uleb128 0x19
 4782 0c89 1C040000 		.4byte	.LASF193
 4783 0c8d 0E       		.byte	0xe
 4784 0c8e CA01     		.2byte	0x1ca
 4785 0c90 EF0B0000 		.4byte	0xbef
 4786 0c94 1C       		.byte	0x1c
 4787 0c95 21       		.uleb128 0x21
 4788 0c96 64626700 		.ascii	"dbg\000"
 4789 0c9a 0E       		.byte	0xe
 4790 0c9b CE01     		.2byte	0x1ce
 4791 0c9d 3C0C0000 		.4byte	0xc3c
 4792 0ca1 2C       		.byte	0x2c
 4793 0ca2 19       		.uleb128 0x19
 4794 0ca3 7A130000 		.4byte	.LASF194
 4795 0ca7 0E       		.byte	0xe
 4796 0ca8 D201     		.2byte	0x1d2
 4797 0caa 9D090000 		.4byte	0x99d
 4798 0cae 30       		.byte	0x30
 4799 0caf 21       		.uleb128 0x21
 4800 0cb0 746D00   		.ascii	"tm\000"
 4801 0cb3 0E       		.byte	0xe
 4802 0cb4 D701     		.2byte	0x1d7
 4803 0cb6 A1140000 		.4byte	0x14a1
 4804 0cba 78       		.byte	0x78
 4805 0cbb 19       		.uleb128 0x19
 4806 0cbc 251A0000 		.4byte	.LASF195
 4807 0cc0 0E       		.byte	0xe
 4808 0cc1 E301     		.2byte	0x1e3
 4809 0cc3 77150000 		.4byte	0x1577
 4810 0cc7 80       		.byte	0x80
 4811 0cc8 00       		.byte	0
 4812 0cc9 0B       		.uleb128 0xb
 4813 0cca 04090000 		.4byte	0x904
 4814 0cce D90C0000 		.4byte	0xcd9
 4815 0cd2 0C       		.uleb128 0xc
 4816 0cd3 25000000 		.4byte	0x25
 4817 0cd7 01       		.byte	0x1
 4818 0cd8 00       		.byte	0
 4819 0cd9 0B       		.uleb128 0xb
 4820 0cda 04090000 		.4byte	0x904
 4821 0cde E90C0000 		.4byte	0xce9
 4822 0ce2 0C       		.uleb128 0xc
 4823 0ce3 25000000 		.4byte	0x25
 4824 0ce7 07       		.byte	0x7
 4825 0ce8 00       		.byte	0
 4826 0ce9 20       		.uleb128 0x20
 4827 0cea 99190000 		.4byte	.LASF196
 4828 0cee 0F       		.byte	0xf
 4829 0cef A706     		.2byte	0x6a7
 4830 0cf1 FF080000 		.4byte	0x8ff
 4831 0cf5 22       		.uleb128 0x22
 4832 0cf6 3D120000 		.4byte	.LASF197
 4833 0cfa 10       		.byte	0x10
ARM GAS  /tmp/ccH4KobB.s 			page 86


 4834 0cfb 4C       		.byte	0x4c
 4835 0cfc 04090000 		.4byte	0x904
 4836 0d00 0D       		.uleb128 0xd
 4837 0d01 10       		.byte	0x10
 4838 0d02 11       		.byte	0x11
 4839 0d03 E9       		.byte	0xe9
 4840 0d04 390D0000 		.4byte	0xd39
 4841 0d08 12       		.uleb128 0x12
 4842 0d09 54495200 		.ascii	"TIR\000"
 4843 0d0d 11       		.byte	0x11
 4844 0d0e EB       		.byte	0xeb
 4845 0d0f 0F090000 		.4byte	0x90f
 4846 0d13 00       		.byte	0
 4847 0d14 0E       		.uleb128 0xe
 4848 0d15 F20D0000 		.4byte	.LASF198
 4849 0d19 11       		.byte	0x11
 4850 0d1a EC       		.byte	0xec
 4851 0d1b 0F090000 		.4byte	0x90f
 4852 0d1f 04       		.byte	0x4
 4853 0d20 0E       		.uleb128 0xe
 4854 0d21 6C130000 		.4byte	.LASF199
 4855 0d25 11       		.byte	0x11
 4856 0d26 ED       		.byte	0xed
 4857 0d27 0F090000 		.4byte	0x90f
 4858 0d2b 08       		.byte	0x8
 4859 0d2c 0E       		.uleb128 0xe
 4860 0d2d B3110000 		.4byte	.LASF200
 4861 0d31 11       		.byte	0x11
 4862 0d32 EE       		.byte	0xee
 4863 0d33 0F090000 		.4byte	0x90f
 4864 0d37 0C       		.byte	0xc
 4865 0d38 00       		.byte	0
 4866 0d39 04       		.uleb128 0x4
 4867 0d3a 56040000 		.4byte	.LASF201
 4868 0d3e 11       		.byte	0x11
 4869 0d3f EF       		.byte	0xef
 4870 0d40 000D0000 		.4byte	0xd00
 4871 0d44 0D       		.uleb128 0xd
 4872 0d45 10       		.byte	0x10
 4873 0d46 11       		.byte	0x11
 4874 0d47 F5       		.byte	0xf5
 4875 0d48 7D0D0000 		.4byte	0xd7d
 4876 0d4c 12       		.uleb128 0x12
 4877 0d4d 52495200 		.ascii	"RIR\000"
 4878 0d51 11       		.byte	0x11
 4879 0d52 F7       		.byte	0xf7
 4880 0d53 0F090000 		.4byte	0x90f
 4881 0d57 00       		.byte	0
 4882 0d58 0E       		.uleb128 0xe
 4883 0d59 E0170000 		.4byte	.LASF202
 4884 0d5d 11       		.byte	0x11
 4885 0d5e F8       		.byte	0xf8
 4886 0d5f 0F090000 		.4byte	0x90f
 4887 0d63 04       		.byte	0x4
 4888 0d64 0E       		.uleb128 0xe
 4889 0d65 6E140000 		.4byte	.LASF203
 4890 0d69 11       		.byte	0x11
ARM GAS  /tmp/ccH4KobB.s 			page 87


 4891 0d6a F9       		.byte	0xf9
 4892 0d6b 0F090000 		.4byte	0x90f
 4893 0d6f 08       		.byte	0x8
 4894 0d70 0E       		.uleb128 0xe
 4895 0d71 B1120000 		.4byte	.LASF204
 4896 0d75 11       		.byte	0x11
 4897 0d76 FA       		.byte	0xfa
 4898 0d77 0F090000 		.4byte	0x90f
 4899 0d7b 0C       		.byte	0xc
 4900 0d7c 00       		.byte	0
 4901 0d7d 04       		.uleb128 0x4
 4902 0d7e 5A170000 		.4byte	.LASF205
 4903 0d82 11       		.byte	0x11
 4904 0d83 FB       		.byte	0xfb
 4905 0d84 440D0000 		.4byte	0xd44
 4906 0d88 1C       		.uleb128 0x1c
 4907 0d89 08       		.byte	0x8
 4908 0d8a 11       		.byte	0x11
 4909 0d8b 0101     		.2byte	0x101
 4910 0d8d AC0D0000 		.4byte	0xdac
 4911 0d91 21       		.uleb128 0x21
 4912 0d92 46523100 		.ascii	"FR1\000"
 4913 0d96 11       		.byte	0x11
 4914 0d97 0301     		.2byte	0x103
 4915 0d99 0F090000 		.4byte	0x90f
 4916 0d9d 00       		.byte	0
 4917 0d9e 21       		.uleb128 0x21
 4918 0d9f 46523200 		.ascii	"FR2\000"
 4919 0da3 11       		.byte	0x11
 4920 0da4 0401     		.2byte	0x104
 4921 0da6 0F090000 		.4byte	0x90f
 4922 0daa 04       		.byte	0x4
 4923 0dab 00       		.byte	0
 4924 0dac 08       		.uleb128 0x8
 4925 0dad 0A0E0000 		.4byte	.LASF206
 4926 0db1 11       		.byte	0x11
 4927 0db2 0501     		.2byte	0x105
 4928 0db4 880D0000 		.4byte	0xd88
 4929 0db8 23       		.uleb128 0x23
 4930 0db9 2003     		.2byte	0x320
 4931 0dbb 11       		.byte	0x11
 4932 0dbc 0B01     		.2byte	0x10b
 4933 0dbe EE0E0000 		.4byte	0xeee
 4934 0dc2 21       		.uleb128 0x21
 4935 0dc3 4D435200 		.ascii	"MCR\000"
 4936 0dc7 11       		.byte	0x11
 4937 0dc8 0D01     		.2byte	0x10d
 4938 0dca 0F090000 		.4byte	0x90f
 4939 0dce 00       		.byte	0
 4940 0dcf 21       		.uleb128 0x21
 4941 0dd0 4D535200 		.ascii	"MSR\000"
 4942 0dd4 11       		.byte	0x11
 4943 0dd5 0E01     		.2byte	0x10e
 4944 0dd7 0F090000 		.4byte	0x90f
 4945 0ddb 04       		.byte	0x4
 4946 0ddc 21       		.uleb128 0x21
 4947 0ddd 54535200 		.ascii	"TSR\000"
ARM GAS  /tmp/ccH4KobB.s 			page 88


 4948 0de1 11       		.byte	0x11
 4949 0de2 0F01     		.2byte	0x10f
 4950 0de4 0F090000 		.4byte	0x90f
 4951 0de8 08       		.byte	0x8
 4952 0de9 19       		.uleb128 0x19
 4953 0dea B30C0000 		.4byte	.LASF207
 4954 0dee 11       		.byte	0x11
 4955 0def 1001     		.2byte	0x110
 4956 0df1 0F090000 		.4byte	0x90f
 4957 0df5 0C       		.byte	0xc
 4958 0df6 19       		.uleb128 0x19
 4959 0df7 A8140000 		.4byte	.LASF208
 4960 0dfb 11       		.byte	0x11
 4961 0dfc 1101     		.2byte	0x111
 4962 0dfe 0F090000 		.4byte	0x90f
 4963 0e02 10       		.byte	0x10
 4964 0e03 21       		.uleb128 0x21
 4965 0e04 49455200 		.ascii	"IER\000"
 4966 0e08 11       		.byte	0x11
 4967 0e09 1201     		.2byte	0x112
 4968 0e0b 0F090000 		.4byte	0x90f
 4969 0e0f 14       		.byte	0x14
 4970 0e10 21       		.uleb128 0x21
 4971 0e11 45535200 		.ascii	"ESR\000"
 4972 0e15 11       		.byte	0x11
 4973 0e16 1301     		.2byte	0x113
 4974 0e18 0F090000 		.4byte	0x90f
 4975 0e1c 18       		.byte	0x18
 4976 0e1d 21       		.uleb128 0x21
 4977 0e1e 42545200 		.ascii	"BTR\000"
 4978 0e22 11       		.byte	0x11
 4979 0e23 1401     		.2byte	0x114
 4980 0e25 0F090000 		.4byte	0x90f
 4981 0e29 1C       		.byte	0x1c
 4982 0e2a 19       		.uleb128 0x19
 4983 0e2b E3180000 		.4byte	.LASF209
 4984 0e2f 11       		.byte	0x11
 4985 0e30 1501     		.2byte	0x115
 4986 0e32 EE0E0000 		.4byte	0xeee
 4987 0e36 20       		.byte	0x20
 4988 0e37 1A       		.uleb128 0x1a
 4989 0e38 DA0E0000 		.4byte	.LASF210
 4990 0e3c 11       		.byte	0x11
 4991 0e3d 1601     		.2byte	0x116
 4992 0e3f FE0E0000 		.4byte	0xefe
 4993 0e43 8001     		.2byte	0x180
 4994 0e45 1A       		.uleb128 0x1a
 4995 0e46 D51C0000 		.4byte	.LASF211
 4996 0e4a 11       		.byte	0x11
 4997 0e4b 1701     		.2byte	0x117
 4998 0e4d 0E0F0000 		.4byte	0xf0e
 4999 0e51 B001     		.2byte	0x1b0
 5000 0e53 1A       		.uleb128 0x1a
 5001 0e54 ED180000 		.4byte	.LASF212
 5002 0e58 11       		.byte	0x11
 5003 0e59 1801     		.2byte	0x118
 5004 0e5b 1E0F0000 		.4byte	0xf1e
ARM GAS  /tmp/ccH4KobB.s 			page 89


 5005 0e5f D001     		.2byte	0x1d0
 5006 0e61 24       		.uleb128 0x24
 5007 0e62 464D5200 		.ascii	"FMR\000"
 5008 0e66 11       		.byte	0x11
 5009 0e67 1901     		.2byte	0x119
 5010 0e69 0F090000 		.4byte	0x90f
 5011 0e6d 0002     		.2byte	0x200
 5012 0e6f 1A       		.uleb128 0x1a
 5013 0e70 B9080000 		.4byte	.LASF213
 5014 0e74 11       		.byte	0x11
 5015 0e75 1A01     		.2byte	0x11a
 5016 0e77 0F090000 		.4byte	0x90f
 5017 0e7b 0402     		.2byte	0x204
 5018 0e7d 1A       		.uleb128 0x1a
 5019 0e7e F7180000 		.4byte	.LASF214
 5020 0e82 11       		.byte	0x11
 5021 0e83 1B01     		.2byte	0x11b
 5022 0e85 04090000 		.4byte	0x904
 5023 0e89 0802     		.2byte	0x208
 5024 0e8b 1A       		.uleb128 0x1a
 5025 0e8c BC1A0000 		.4byte	.LASF215
 5026 0e90 11       		.byte	0x11
 5027 0e91 1C01     		.2byte	0x11c
 5028 0e93 0F090000 		.4byte	0x90f
 5029 0e97 0C02     		.2byte	0x20c
 5030 0e99 1A       		.uleb128 0x1a
 5031 0e9a 01190000 		.4byte	.LASF216
 5032 0e9e 11       		.byte	0x11
 5033 0e9f 1D01     		.2byte	0x11d
 5034 0ea1 04090000 		.4byte	0x904
 5035 0ea5 1002     		.2byte	0x210
 5036 0ea7 1A       		.uleb128 0x1a
 5037 0ea8 A2140000 		.4byte	.LASF217
 5038 0eac 11       		.byte	0x11
 5039 0ead 1E01     		.2byte	0x11e
 5040 0eaf 0F090000 		.4byte	0x90f
 5041 0eb3 1402     		.2byte	0x214
 5042 0eb5 1A       		.uleb128 0x1a
 5043 0eb6 0B190000 		.4byte	.LASF218
 5044 0eba 11       		.byte	0x11
 5045 0ebb 1F01     		.2byte	0x11f
 5046 0ebd 04090000 		.4byte	0x904
 5047 0ec1 1802     		.2byte	0x218
 5048 0ec3 1A       		.uleb128 0x1a
 5049 0ec4 4C030000 		.4byte	.LASF219
 5050 0ec8 11       		.byte	0x11
 5051 0ec9 2001     		.2byte	0x120
 5052 0ecb 0F090000 		.4byte	0x90f
 5053 0ecf 1C02     		.2byte	0x21c
 5054 0ed1 1A       		.uleb128 0x1a
 5055 0ed2 15190000 		.4byte	.LASF220
 5056 0ed6 11       		.byte	0x11
 5057 0ed7 2101     		.2byte	0x121
 5058 0ed9 D90C0000 		.4byte	0xcd9
 5059 0edd 2002     		.2byte	0x220
 5060 0edf 1A       		.uleb128 0x1a
 5061 0ee0 EB040000 		.4byte	.LASF221
ARM GAS  /tmp/ccH4KobB.s 			page 90


 5062 0ee4 11       		.byte	0x11
 5063 0ee5 2201     		.2byte	0x122
 5064 0ee7 2E0F0000 		.4byte	0xf2e
 5065 0eeb 4002     		.2byte	0x240
 5066 0eed 00       		.byte	0
 5067 0eee 0B       		.uleb128 0xb
 5068 0eef 04090000 		.4byte	0x904
 5069 0ef3 FE0E0000 		.4byte	0xefe
 5070 0ef7 0C       		.uleb128 0xc
 5071 0ef8 25000000 		.4byte	0x25
 5072 0efc 57       		.byte	0x57
 5073 0efd 00       		.byte	0
 5074 0efe 0B       		.uleb128 0xb
 5075 0eff 390D0000 		.4byte	0xd39
 5076 0f03 0E0F0000 		.4byte	0xf0e
 5077 0f07 0C       		.uleb128 0xc
 5078 0f08 25000000 		.4byte	0x25
 5079 0f0c 02       		.byte	0x2
 5080 0f0d 00       		.byte	0
 5081 0f0e 0B       		.uleb128 0xb
 5082 0f0f 7D0D0000 		.4byte	0xd7d
 5083 0f13 1E0F0000 		.4byte	0xf1e
 5084 0f17 0C       		.uleb128 0xc
 5085 0f18 25000000 		.4byte	0x25
 5086 0f1c 01       		.byte	0x1
 5087 0f1d 00       		.byte	0
 5088 0f1e 0B       		.uleb128 0xb
 5089 0f1f 04090000 		.4byte	0x904
 5090 0f23 2E0F0000 		.4byte	0xf2e
 5091 0f27 0C       		.uleb128 0xc
 5092 0f28 25000000 		.4byte	0x25
 5093 0f2c 0B       		.byte	0xb
 5094 0f2d 00       		.byte	0
 5095 0f2e 0B       		.uleb128 0xb
 5096 0f2f AC0D0000 		.4byte	0xdac
 5097 0f33 3E0F0000 		.4byte	0xf3e
 5098 0f37 0C       		.uleb128 0xc
 5099 0f38 25000000 		.4byte	0x25
 5100 0f3c 1B       		.byte	0x1b
 5101 0f3d 00       		.byte	0
 5102 0f3e 08       		.uleb128 0x8
 5103 0f3f 580B0000 		.4byte	.LASF222
 5104 0f43 11       		.byte	0x11
 5105 0f44 2301     		.2byte	0x123
 5106 0f46 B80D0000 		.4byte	0xdb8
 5107 0f4a 1C       		.uleb128 0x1c
 5108 0f4b 18       		.byte	0x18
 5109 0f4c 11       		.byte	0x11
 5110 0f4d 6B01     		.2byte	0x16b
 5111 0f4f A10F0000 		.4byte	0xfa1
 5112 0f53 21       		.uleb128 0x21
 5113 0f54 435200   		.ascii	"CR\000"
 5114 0f57 11       		.byte	0x11
 5115 0f58 6D01     		.2byte	0x16d
 5116 0f5a 0F090000 		.4byte	0x90f
 5117 0f5e 00       		.byte	0
 5118 0f5f 19       		.uleb128 0x19
ARM GAS  /tmp/ccH4KobB.s 			page 91


 5119 0f60 011A0000 		.4byte	.LASF223
 5120 0f64 11       		.byte	0x11
 5121 0f65 6E01     		.2byte	0x16e
 5122 0f67 0F090000 		.4byte	0x90f
 5123 0f6b 04       		.byte	0x4
 5124 0f6c 21       		.uleb128 0x21
 5125 0f6d 50415200 		.ascii	"PAR\000"
 5126 0f71 11       		.byte	0x11
 5127 0f72 6F01     		.2byte	0x16f
 5128 0f74 0F090000 		.4byte	0x90f
 5129 0f78 08       		.byte	0x8
 5130 0f79 19       		.uleb128 0x19
 5131 0f7a 1D030000 		.4byte	.LASF224
 5132 0f7e 11       		.byte	0x11
 5133 0f7f 7001     		.2byte	0x170
 5134 0f81 0F090000 		.4byte	0x90f
 5135 0f85 0C       		.byte	0xc
 5136 0f86 19       		.uleb128 0x19
 5137 0f87 6A060000 		.4byte	.LASF225
 5138 0f8b 11       		.byte	0x11
 5139 0f8c 7101     		.2byte	0x171
 5140 0f8e 0F090000 		.4byte	0x90f
 5141 0f92 10       		.byte	0x10
 5142 0f93 21       		.uleb128 0x21
 5143 0f94 46435200 		.ascii	"FCR\000"
 5144 0f98 11       		.byte	0x11
 5145 0f99 7201     		.2byte	0x172
 5146 0f9b 0F090000 		.4byte	0x90f
 5147 0f9f 14       		.byte	0x14
 5148 0fa0 00       		.byte	0
 5149 0fa1 08       		.uleb128 0x8
 5150 0fa2 74060000 		.4byte	.LASF226
 5151 0fa6 11       		.byte	0x11
 5152 0fa7 7301     		.2byte	0x173
 5153 0fa9 4A0F0000 		.4byte	0xf4a
 5154 0fad 0B       		.uleb128 0xb
 5155 0fae 0F090000 		.4byte	0x90f
 5156 0fb2 BD0F0000 		.4byte	0xfbd
 5157 0fb6 0C       		.uleb128 0xc
 5158 0fb7 25000000 		.4byte	0x25
 5159 0fbb 01       		.byte	0x1
 5160 0fbc 00       		.byte	0
 5161 0fbd 05       		.uleb128 0x5
 5162 0fbe AD0F0000 		.4byte	0xfad
 5163 0fc2 0B       		.uleb128 0xb
 5164 0fc3 0F090000 		.4byte	0x90f
 5165 0fc7 D20F0000 		.4byte	0xfd2
 5166 0fcb 0C       		.uleb128 0xc
 5167 0fcc 25000000 		.4byte	0x25
 5168 0fd0 03       		.byte	0x3
 5169 0fd1 00       		.byte	0
 5170 0fd2 05       		.uleb128 0x5
 5171 0fd3 C20F0000 		.4byte	0xfc2
 5172 0fd7 1C       		.uleb128 0x1c
 5173 0fd8 28       		.byte	0x28
 5174 0fd9 11       		.byte	0x11
 5175 0fda 3F02     		.2byte	0x23f
ARM GAS  /tmp/ccH4KobB.s 			page 92


 5176 0fdc 62100000 		.4byte	0x1062
 5177 0fe0 21       		.uleb128 0x21
 5178 0fe1 43523100 		.ascii	"CR1\000"
 5179 0fe5 11       		.byte	0x11
 5180 0fe6 4102     		.2byte	0x241
 5181 0fe8 0F090000 		.4byte	0x90f
 5182 0fec 00       		.byte	0
 5183 0fed 21       		.uleb128 0x21
 5184 0fee 43523200 		.ascii	"CR2\000"
 5185 0ff2 11       		.byte	0x11
 5186 0ff3 4202     		.2byte	0x242
 5187 0ff5 0F090000 		.4byte	0x90f
 5188 0ff9 04       		.byte	0x4
 5189 0ffa 19       		.uleb128 0x19
 5190 0ffb 201F0000 		.4byte	.LASF227
 5191 0fff 11       		.byte	0x11
 5192 1000 4302     		.2byte	0x243
 5193 1002 0F090000 		.4byte	0x90f
 5194 1006 08       		.byte	0x8
 5195 1007 19       		.uleb128 0x19
 5196 1008 251F0000 		.4byte	.LASF228
 5197 100c 11       		.byte	0x11
 5198 100d 4402     		.2byte	0x244
 5199 100f 0F090000 		.4byte	0x90f
 5200 1013 0C       		.byte	0xc
 5201 1014 21       		.uleb128 0x21
 5202 1015 445200   		.ascii	"DR\000"
 5203 1018 11       		.byte	0x11
 5204 1019 4502     		.2byte	0x245
 5205 101b 0F090000 		.4byte	0x90f
 5206 101f 10       		.byte	0x10
 5207 1020 21       		.uleb128 0x21
 5208 1021 53523100 		.ascii	"SR1\000"
 5209 1025 11       		.byte	0x11
 5210 1026 4602     		.2byte	0x246
 5211 1028 0F090000 		.4byte	0x90f
 5212 102c 14       		.byte	0x14
 5213 102d 21       		.uleb128 0x21
 5214 102e 53523200 		.ascii	"SR2\000"
 5215 1032 11       		.byte	0x11
 5216 1033 4702     		.2byte	0x247
 5217 1035 0F090000 		.4byte	0x90f
 5218 1039 18       		.byte	0x18
 5219 103a 21       		.uleb128 0x21
 5220 103b 43435200 		.ascii	"CCR\000"
 5221 103f 11       		.byte	0x11
 5222 1040 4802     		.2byte	0x248
 5223 1042 0F090000 		.4byte	0x90f
 5224 1046 1C       		.byte	0x1c
 5225 1047 19       		.uleb128 0x19
 5226 1048 2D040000 		.4byte	.LASF229
 5227 104c 11       		.byte	0x11
 5228 104d 4902     		.2byte	0x249
 5229 104f 0F090000 		.4byte	0x90f
 5230 1053 20       		.byte	0x20
 5231 1054 19       		.uleb128 0x19
 5232 1055 C91D0000 		.4byte	.LASF230
ARM GAS  /tmp/ccH4KobB.s 			page 93


 5233 1059 11       		.byte	0x11
 5234 105a 4A02     		.2byte	0x24a
 5235 105c 0F090000 		.4byte	0x90f
 5236 1060 24       		.byte	0x24
 5237 1061 00       		.byte	0
 5238 1062 08       		.uleb128 0x8
 5239 1063 5C0F0000 		.4byte	.LASF231
 5240 1067 11       		.byte	0x11
 5241 1068 4B02     		.2byte	0x24b
 5242 106a D70F0000 		.4byte	0xfd7
 5243 106e 1C       		.uleb128 0x1c
 5244 106f 88       		.byte	0x88
 5245 1070 11       		.byte	0x11
 5246 1071 6702     		.2byte	0x267
 5247 1073 FD110000 		.4byte	0x11fd
 5248 1077 21       		.uleb128 0x21
 5249 1078 435200   		.ascii	"CR\000"
 5250 107b 11       		.byte	0x11
 5251 107c 6902     		.2byte	0x269
 5252 107e 0F090000 		.4byte	0x90f
 5253 1082 00       		.byte	0
 5254 1083 19       		.uleb128 0x19
 5255 1084 49170000 		.4byte	.LASF232
 5256 1088 11       		.byte	0x11
 5257 1089 6A02     		.2byte	0x26a
 5258 108b 0F090000 		.4byte	0x90f
 5259 108f 04       		.byte	0x4
 5260 1090 19       		.uleb128 0x19
 5261 1091 19110000 		.4byte	.LASF233
 5262 1095 11       		.byte	0x11
 5263 1096 6B02     		.2byte	0x26b
 5264 1098 0F090000 		.4byte	0x90f
 5265 109c 08       		.byte	0x8
 5266 109d 21       		.uleb128 0x21
 5267 109e 43495200 		.ascii	"CIR\000"
 5268 10a2 11       		.byte	0x11
 5269 10a3 6C02     		.2byte	0x26c
 5270 10a5 0F090000 		.4byte	0x90f
 5271 10a9 0C       		.byte	0xc
 5272 10aa 19       		.uleb128 0x19
 5273 10ab ED1E0000 		.4byte	.LASF234
 5274 10af 11       		.byte	0x11
 5275 10b0 6D02     		.2byte	0x26d
 5276 10b2 0F090000 		.4byte	0x90f
 5277 10b6 10       		.byte	0x10
 5278 10b7 19       		.uleb128 0x19
 5279 10b8 5D090000 		.4byte	.LASF235
 5280 10bc 11       		.byte	0x11
 5281 10bd 6E02     		.2byte	0x26e
 5282 10bf 0F090000 		.4byte	0x90f
 5283 10c3 14       		.byte	0x14
 5284 10c4 19       		.uleb128 0x19
 5285 10c5 A2130000 		.4byte	.LASF236
 5286 10c9 11       		.byte	0x11
 5287 10ca 6F02     		.2byte	0x26f
 5288 10cc 0F090000 		.4byte	0x90f
 5289 10d0 18       		.byte	0x18
ARM GAS  /tmp/ccH4KobB.s 			page 94


 5290 10d1 19       		.uleb128 0x19
 5291 10d2 E3180000 		.4byte	.LASF209
 5292 10d6 11       		.byte	0x11
 5293 10d7 7002     		.2byte	0x270
 5294 10d9 04090000 		.4byte	0x904
 5295 10dd 1C       		.byte	0x1c
 5296 10de 19       		.uleb128 0x19
 5297 10df 85030000 		.4byte	.LASF237
 5298 10e3 11       		.byte	0x11
 5299 10e4 7102     		.2byte	0x271
 5300 10e6 0F090000 		.4byte	0x90f
 5301 10ea 20       		.byte	0x20
 5302 10eb 19       		.uleb128 0x19
 5303 10ec F90E0000 		.4byte	.LASF238
 5304 10f0 11       		.byte	0x11
 5305 10f1 7202     		.2byte	0x272
 5306 10f3 0F090000 		.4byte	0x90f
 5307 10f7 24       		.byte	0x24
 5308 10f8 19       		.uleb128 0x19
 5309 10f9 ED180000 		.4byte	.LASF212
 5310 10fd 11       		.byte	0x11
 5311 10fe 7302     		.2byte	0x273
 5312 1100 C90C0000 		.4byte	0xcc9
 5313 1104 28       		.byte	0x28
 5314 1105 19       		.uleb128 0x19
 5315 1106 75100000 		.4byte	.LASF239
 5316 110a 11       		.byte	0x11
 5317 110b 7402     		.2byte	0x274
 5318 110d 0F090000 		.4byte	0x90f
 5319 1111 30       		.byte	0x30
 5320 1112 19       		.uleb128 0x19
 5321 1113 E51E0000 		.4byte	.LASF240
 5322 1117 11       		.byte	0x11
 5323 1118 7502     		.2byte	0x275
 5324 111a 0F090000 		.4byte	0x90f
 5325 111e 34       		.byte	0x34
 5326 111f 19       		.uleb128 0x19
 5327 1120 AE0F0000 		.4byte	.LASF241
 5328 1124 11       		.byte	0x11
 5329 1125 7602     		.2byte	0x276
 5330 1127 0F090000 		.4byte	0x90f
 5331 112b 38       		.byte	0x38
 5332 112c 19       		.uleb128 0x19
 5333 112d F7180000 		.4byte	.LASF214
 5334 1131 11       		.byte	0x11
 5335 1132 7702     		.2byte	0x277
 5336 1134 04090000 		.4byte	0x904
 5337 1138 3C       		.byte	0x3c
 5338 1139 19       		.uleb128 0x19
 5339 113a F5150000 		.4byte	.LASF242
 5340 113e 11       		.byte	0x11
 5341 113f 7802     		.2byte	0x278
 5342 1141 0F090000 		.4byte	0x90f
 5343 1145 40       		.byte	0x40
 5344 1146 19       		.uleb128 0x19
 5345 1147 6A050000 		.4byte	.LASF243
 5346 114b 11       		.byte	0x11
ARM GAS  /tmp/ccH4KobB.s 			page 95


 5347 114c 7902     		.2byte	0x279
 5348 114e 0F090000 		.4byte	0x90f
 5349 1152 44       		.byte	0x44
 5350 1153 19       		.uleb128 0x19
 5351 1154 01190000 		.4byte	.LASF216
 5352 1158 11       		.byte	0x11
 5353 1159 7A02     		.2byte	0x27a
 5354 115b C90C0000 		.4byte	0xcc9
 5355 115f 48       		.byte	0x48
 5356 1160 19       		.uleb128 0x19
 5357 1161 D2190000 		.4byte	.LASF244
 5358 1165 11       		.byte	0x11
 5359 1166 7B02     		.2byte	0x27b
 5360 1168 0F090000 		.4byte	0x90f
 5361 116c 50       		.byte	0x50
 5362 116d 19       		.uleb128 0x19
 5363 116e 31080000 		.4byte	.LASF245
 5364 1172 11       		.byte	0x11
 5365 1173 7C02     		.2byte	0x27c
 5366 1175 0F090000 		.4byte	0x90f
 5367 1179 54       		.byte	0x54
 5368 117a 19       		.uleb128 0x19
 5369 117b F8070000 		.4byte	.LASF246
 5370 117f 11       		.byte	0x11
 5371 1180 7D02     		.2byte	0x27d
 5372 1182 0F090000 		.4byte	0x90f
 5373 1186 58       		.byte	0x58
 5374 1187 19       		.uleb128 0x19
 5375 1188 0B190000 		.4byte	.LASF218
 5376 118c 11       		.byte	0x11
 5377 118d 7E02     		.2byte	0x27e
 5378 118f 04090000 		.4byte	0x904
 5379 1193 5C       		.byte	0x5c
 5380 1194 19       		.uleb128 0x19
 5381 1195 3B0F0000 		.4byte	.LASF247
 5382 1199 11       		.byte	0x11
 5383 119a 7F02     		.2byte	0x27f
 5384 119c 0F090000 		.4byte	0x90f
 5385 11a0 60       		.byte	0x60
 5386 11a1 19       		.uleb128 0x19
 5387 11a2 681B0000 		.4byte	.LASF248
 5388 11a6 11       		.byte	0x11
 5389 11a7 8002     		.2byte	0x280
 5390 11a9 0F090000 		.4byte	0x90f
 5391 11ad 64       		.byte	0x64
 5392 11ae 19       		.uleb128 0x19
 5393 11af 15190000 		.4byte	.LASF220
 5394 11b3 11       		.byte	0x11
 5395 11b4 8102     		.2byte	0x281
 5396 11b6 C90C0000 		.4byte	0xcc9
 5397 11ba 68       		.byte	0x68
 5398 11bb 19       		.uleb128 0x19
 5399 11bc FC170000 		.4byte	.LASF249
 5400 11c0 11       		.byte	0x11
 5401 11c1 8202     		.2byte	0x282
 5402 11c3 0F090000 		.4byte	0x90f
 5403 11c7 70       		.byte	0x70
ARM GAS  /tmp/ccH4KobB.s 			page 96


 5404 11c8 21       		.uleb128 0x21
 5405 11c9 43535200 		.ascii	"CSR\000"
 5406 11cd 11       		.byte	0x11
 5407 11ce 8302     		.2byte	0x283
 5408 11d0 0F090000 		.4byte	0x90f
 5409 11d4 74       		.byte	0x74
 5410 11d5 19       		.uleb128 0x19
 5411 11d6 1F190000 		.4byte	.LASF250
 5412 11da 11       		.byte	0x11
 5413 11db 8402     		.2byte	0x284
 5414 11dd C90C0000 		.4byte	0xcc9
 5415 11e1 78       		.byte	0x78
 5416 11e2 19       		.uleb128 0x19
 5417 11e3 D0110000 		.4byte	.LASF251
 5418 11e7 11       		.byte	0x11
 5419 11e8 8502     		.2byte	0x285
 5420 11ea 0F090000 		.4byte	0x90f
 5421 11ee 80       		.byte	0x80
 5422 11ef 19       		.uleb128 0x19
 5423 11f0 C5120000 		.4byte	.LASF252
 5424 11f4 11       		.byte	0x11
 5425 11f5 8602     		.2byte	0x286
 5426 11f7 0F090000 		.4byte	0x90f
 5427 11fb 84       		.byte	0x84
 5428 11fc 00       		.byte	0
 5429 11fd 08       		.uleb128 0x8
 5430 11fe 1C010000 		.4byte	.LASF253
 5431 1202 11       		.byte	0x11
 5432 1203 8802     		.2byte	0x288
 5433 1205 6E100000 		.4byte	0x106e
 5434 1209 1C       		.uleb128 0x1c
 5435 120a 24       		.byte	0x24
 5436 120b 11       		.byte	0x11
 5437 120c DB02     		.2byte	0x2db
 5438 120e 86120000 		.4byte	0x1286
 5439 1212 21       		.uleb128 0x21
 5440 1213 43523100 		.ascii	"CR1\000"
 5441 1217 11       		.byte	0x11
 5442 1218 DD02     		.2byte	0x2dd
 5443 121a 0F090000 		.4byte	0x90f
 5444 121e 00       		.byte	0
 5445 121f 21       		.uleb128 0x21
 5446 1220 43523200 		.ascii	"CR2\000"
 5447 1224 11       		.byte	0x11
 5448 1225 DE02     		.2byte	0x2de
 5449 1227 0F090000 		.4byte	0x90f
 5450 122b 04       		.byte	0x4
 5451 122c 21       		.uleb128 0x21
 5452 122d 535200   		.ascii	"SR\000"
 5453 1230 11       		.byte	0x11
 5454 1231 DF02     		.2byte	0x2df
 5455 1233 0F090000 		.4byte	0x90f
 5456 1237 08       		.byte	0x8
 5457 1238 21       		.uleb128 0x21
 5458 1239 445200   		.ascii	"DR\000"
 5459 123c 11       		.byte	0x11
 5460 123d E002     		.2byte	0x2e0
ARM GAS  /tmp/ccH4KobB.s 			page 97


 5461 123f 0F090000 		.4byte	0x90f
 5462 1243 0C       		.byte	0xc
 5463 1244 19       		.uleb128 0x19
 5464 1245 04060000 		.4byte	.LASF254
 5465 1249 11       		.byte	0x11
 5466 124a E102     		.2byte	0x2e1
 5467 124c 0F090000 		.4byte	0x90f
 5468 1250 10       		.byte	0x10
 5469 1251 19       		.uleb128 0x19
 5470 1252 2E090000 		.4byte	.LASF255
 5471 1256 11       		.byte	0x11
 5472 1257 E202     		.2byte	0x2e2
 5473 1259 0F090000 		.4byte	0x90f
 5474 125d 14       		.byte	0x14
 5475 125e 19       		.uleb128 0x19
 5476 125f 4F080000 		.4byte	.LASF256
 5477 1263 11       		.byte	0x11
 5478 1264 E302     		.2byte	0x2e3
 5479 1266 0F090000 		.4byte	0x90f
 5480 126a 18       		.byte	0x18
 5481 126b 19       		.uleb128 0x19
 5482 126c EB1B0000 		.4byte	.LASF257
 5483 1270 11       		.byte	0x11
 5484 1271 E402     		.2byte	0x2e4
 5485 1273 0F090000 		.4byte	0x90f
 5486 1277 1C       		.byte	0x1c
 5487 1278 19       		.uleb128 0x19
 5488 1279 E5050000 		.4byte	.LASF258
 5489 127d 11       		.byte	0x11
 5490 127e E502     		.2byte	0x2e5
 5491 1280 0F090000 		.4byte	0x90f
 5492 1284 20       		.byte	0x20
 5493 1285 00       		.byte	0
 5494 1286 08       		.uleb128 0x8
 5495 1287 471A0000 		.4byte	.LASF259
 5496 128b 11       		.byte	0x11
 5497 128c E602     		.2byte	0x2e6
 5498 128e 09120000 		.4byte	0x1209
 5499 1292 1C       		.uleb128 0x1c
 5500 1293 1C       		.byte	0x1c
 5501 1294 11       		.byte	0x11
 5502 1295 0903     		.2byte	0x309
 5503 1297 F5120000 		.4byte	0x12f5
 5504 129b 21       		.uleb128 0x21
 5505 129c 535200   		.ascii	"SR\000"
 5506 129f 11       		.byte	0x11
 5507 12a0 0B03     		.2byte	0x30b
 5508 12a2 0F090000 		.4byte	0x90f
 5509 12a6 00       		.byte	0
 5510 12a7 21       		.uleb128 0x21
 5511 12a8 445200   		.ascii	"DR\000"
 5512 12ab 11       		.byte	0x11
 5513 12ac 0C03     		.2byte	0x30c
 5514 12ae 0F090000 		.4byte	0x90f
 5515 12b2 04       		.byte	0x4
 5516 12b3 21       		.uleb128 0x21
 5517 12b4 42525200 		.ascii	"BRR\000"
ARM GAS  /tmp/ccH4KobB.s 			page 98


 5518 12b8 11       		.byte	0x11
 5519 12b9 0D03     		.2byte	0x30d
 5520 12bb 0F090000 		.4byte	0x90f
 5521 12bf 08       		.byte	0x8
 5522 12c0 21       		.uleb128 0x21
 5523 12c1 43523100 		.ascii	"CR1\000"
 5524 12c5 11       		.byte	0x11
 5525 12c6 0E03     		.2byte	0x30e
 5526 12c8 0F090000 		.4byte	0x90f
 5527 12cc 0C       		.byte	0xc
 5528 12cd 21       		.uleb128 0x21
 5529 12ce 43523200 		.ascii	"CR2\000"
 5530 12d2 11       		.byte	0x11
 5531 12d3 0F03     		.2byte	0x30f
 5532 12d5 0F090000 		.4byte	0x90f
 5533 12d9 10       		.byte	0x10
 5534 12da 21       		.uleb128 0x21
 5535 12db 43523300 		.ascii	"CR3\000"
 5536 12df 11       		.byte	0x11
 5537 12e0 1003     		.2byte	0x310
 5538 12e2 0F090000 		.4byte	0x90f
 5539 12e6 14       		.byte	0x14
 5540 12e7 19       		.uleb128 0x19
 5541 12e8 D00C0000 		.4byte	.LASF260
 5542 12ec 11       		.byte	0x11
 5543 12ed 1103     		.2byte	0x311
 5544 12ef 0F090000 		.4byte	0x90f
 5545 12f3 18       		.byte	0x18
 5546 12f4 00       		.byte	0
 5547 12f5 08       		.uleb128 0x8
 5548 12f6 8F1E0000 		.4byte	.LASF261
 5549 12fa 11       		.byte	0x11
 5550 12fb 1203     		.2byte	0x312
 5551 12fd 92120000 		.4byte	0x1292
 5552 1301 0B       		.uleb128 0xb
 5553 1302 0F090000 		.4byte	0x90f
 5554 1306 11130000 		.4byte	0x1311
 5555 130a 0C       		.uleb128 0xc
 5556 130b 25000000 		.4byte	0x25
 5557 130f 0E       		.byte	0xe
 5558 1310 00       		.byte	0
 5559 1311 05       		.uleb128 0x5
 5560 1312 01130000 		.4byte	0x1301
 5561 1316 04       		.uleb128 0x4
 5562 1317 7D140000 		.4byte	.LASF262
 5563 131b 12       		.byte	0x12
 5564 131c 65       		.byte	0x65
 5565 131d 50010000 		.4byte	0x150
 5566 1321 04       		.uleb128 0x4
 5567 1322 3E070000 		.4byte	.LASF263
 5568 1326 12       		.byte	0x12
 5569 1327 6D       		.byte	0x6d
 5570 1328 14090000 		.4byte	0x914
 5571 132c 11       		.uleb128 0x11
 5572 132d 9E0F0000 		.4byte	.LASF264
 5573 1331 04       		.byte	0x4
 5574 1332 12       		.byte	0x12
ARM GAS  /tmp/ccH4KobB.s 			page 99


 5575 1333 89       		.byte	0x89
 5576 1334 45130000 		.4byte	0x1345
 5577 1338 12       		.uleb128 0x12
 5578 1339 72313300 		.ascii	"r13\000"
 5579 133d 12       		.byte	0x12
 5580 133e 8A       		.byte	0x8a
 5581 133f 86140000 		.4byte	0x1486
 5582 1343 00       		.byte	0
 5583 1344 00       		.byte	0
 5584 1345 11       		.uleb128 0x11
 5585 1346 09000000 		.4byte	.LASF265
 5586 134a 64       		.byte	0x64
 5587 134b 13       		.byte	0x13
 5588 134c F4       		.byte	0xf4
 5589 134d 86140000 		.4byte	0x1486
 5590 1351 12       		.uleb128 0x12
 5591 1352 73313600 		.ascii	"s16\000"
 5592 1356 13       		.byte	0x13
 5593 1357 F6       		.byte	0xf6
 5594 1358 16130000 		.4byte	0x1316
 5595 135c 00       		.byte	0
 5596 135d 12       		.uleb128 0x12
 5597 135e 73313700 		.ascii	"s17\000"
 5598 1362 13       		.byte	0x13
 5599 1363 F7       		.byte	0xf7
 5600 1364 16130000 		.4byte	0x1316
 5601 1368 04       		.byte	0x4
 5602 1369 12       		.uleb128 0x12
 5603 136a 73313800 		.ascii	"s18\000"
 5604 136e 13       		.byte	0x13
 5605 136f F8       		.byte	0xf8
 5606 1370 16130000 		.4byte	0x1316
 5607 1374 08       		.byte	0x8
 5608 1375 12       		.uleb128 0x12
 5609 1376 73313900 		.ascii	"s19\000"
 5610 137a 13       		.byte	0x13
 5611 137b F9       		.byte	0xf9
 5612 137c 16130000 		.4byte	0x1316
 5613 1380 0C       		.byte	0xc
 5614 1381 12       		.uleb128 0x12
 5615 1382 73323000 		.ascii	"s20\000"
 5616 1386 13       		.byte	0x13
 5617 1387 FA       		.byte	0xfa
 5618 1388 16130000 		.4byte	0x1316
 5619 138c 10       		.byte	0x10
 5620 138d 12       		.uleb128 0x12
 5621 138e 73323100 		.ascii	"s21\000"
 5622 1392 13       		.byte	0x13
 5623 1393 FB       		.byte	0xfb
 5624 1394 16130000 		.4byte	0x1316
 5625 1398 14       		.byte	0x14
 5626 1399 12       		.uleb128 0x12
 5627 139a 73323200 		.ascii	"s22\000"
 5628 139e 13       		.byte	0x13
 5629 139f FC       		.byte	0xfc
 5630 13a0 16130000 		.4byte	0x1316
 5631 13a4 18       		.byte	0x18
ARM GAS  /tmp/ccH4KobB.s 			page 100


 5632 13a5 12       		.uleb128 0x12
 5633 13a6 73323300 		.ascii	"s23\000"
 5634 13aa 13       		.byte	0x13
 5635 13ab FD       		.byte	0xfd
 5636 13ac 16130000 		.4byte	0x1316
 5637 13b0 1C       		.byte	0x1c
 5638 13b1 12       		.uleb128 0x12
 5639 13b2 73323400 		.ascii	"s24\000"
 5640 13b6 13       		.byte	0x13
 5641 13b7 FE       		.byte	0xfe
 5642 13b8 16130000 		.4byte	0x1316
 5643 13bc 20       		.byte	0x20
 5644 13bd 12       		.uleb128 0x12
 5645 13be 73323500 		.ascii	"s25\000"
 5646 13c2 13       		.byte	0x13
 5647 13c3 FF       		.byte	0xff
 5648 13c4 16130000 		.4byte	0x1316
 5649 13c8 24       		.byte	0x24
 5650 13c9 21       		.uleb128 0x21
 5651 13ca 73323600 		.ascii	"s26\000"
 5652 13ce 13       		.byte	0x13
 5653 13cf 0001     		.2byte	0x100
 5654 13d1 16130000 		.4byte	0x1316
 5655 13d5 28       		.byte	0x28
 5656 13d6 21       		.uleb128 0x21
 5657 13d7 73323700 		.ascii	"s27\000"
 5658 13db 13       		.byte	0x13
 5659 13dc 0101     		.2byte	0x101
 5660 13de 16130000 		.4byte	0x1316
 5661 13e2 2C       		.byte	0x2c
 5662 13e3 21       		.uleb128 0x21
 5663 13e4 73323800 		.ascii	"s28\000"
 5664 13e8 13       		.byte	0x13
 5665 13e9 0201     		.2byte	0x102
 5666 13eb 16130000 		.4byte	0x1316
 5667 13ef 30       		.byte	0x30
 5668 13f0 21       		.uleb128 0x21
 5669 13f1 73323900 		.ascii	"s29\000"
 5670 13f5 13       		.byte	0x13
 5671 13f6 0301     		.2byte	0x103
 5672 13f8 16130000 		.4byte	0x1316
 5673 13fc 34       		.byte	0x34
 5674 13fd 21       		.uleb128 0x21
 5675 13fe 73333000 		.ascii	"s30\000"
 5676 1402 13       		.byte	0x13
 5677 1403 0401     		.2byte	0x104
 5678 1405 16130000 		.4byte	0x1316
 5679 1409 38       		.byte	0x38
 5680 140a 21       		.uleb128 0x21
 5681 140b 73333100 		.ascii	"s31\000"
 5682 140f 13       		.byte	0x13
 5683 1410 0501     		.2byte	0x105
 5684 1412 16130000 		.4byte	0x1316
 5685 1416 3C       		.byte	0x3c
 5686 1417 21       		.uleb128 0x21
 5687 1418 723400   		.ascii	"r4\000"
 5688 141b 13       		.byte	0x13
ARM GAS  /tmp/ccH4KobB.s 			page 101


 5689 141c 0701     		.2byte	0x107
 5690 141e 16130000 		.4byte	0x1316
 5691 1422 40       		.byte	0x40
 5692 1423 21       		.uleb128 0x21
 5693 1424 723500   		.ascii	"r5\000"
 5694 1427 13       		.byte	0x13
 5695 1428 0801     		.2byte	0x108
 5696 142a 16130000 		.4byte	0x1316
 5697 142e 44       		.byte	0x44
 5698 142f 21       		.uleb128 0x21
 5699 1430 723600   		.ascii	"r6\000"
 5700 1433 13       		.byte	0x13
 5701 1434 0901     		.2byte	0x109
 5702 1436 16130000 		.4byte	0x1316
 5703 143a 48       		.byte	0x48
 5704 143b 21       		.uleb128 0x21
 5705 143c 723700   		.ascii	"r7\000"
 5706 143f 13       		.byte	0x13
 5707 1440 0A01     		.2byte	0x10a
 5708 1442 16130000 		.4byte	0x1316
 5709 1446 4C       		.byte	0x4c
 5710 1447 21       		.uleb128 0x21
 5711 1448 723800   		.ascii	"r8\000"
 5712 144b 13       		.byte	0x13
 5713 144c 0B01     		.2byte	0x10b
 5714 144e 16130000 		.4byte	0x1316
 5715 1452 50       		.byte	0x50
 5716 1453 21       		.uleb128 0x21
 5717 1454 723900   		.ascii	"r9\000"
 5718 1457 13       		.byte	0x13
 5719 1458 0C01     		.2byte	0x10c
 5720 145a 16130000 		.4byte	0x1316
 5721 145e 54       		.byte	0x54
 5722 145f 21       		.uleb128 0x21
 5723 1460 72313000 		.ascii	"r10\000"
 5724 1464 13       		.byte	0x13
 5725 1465 0D01     		.2byte	0x10d
 5726 1467 16130000 		.4byte	0x1316
 5727 146b 58       		.byte	0x58
 5728 146c 21       		.uleb128 0x21
 5729 146d 72313100 		.ascii	"r11\000"
 5730 1471 13       		.byte	0x13
 5731 1472 0E01     		.2byte	0x10e
 5732 1474 16130000 		.4byte	0x1316
 5733 1478 5C       		.byte	0x5c
 5734 1479 21       		.uleb128 0x21
 5735 147a 6C7200   		.ascii	"lr\000"
 5736 147d 13       		.byte	0x13
 5737 147e 0F01     		.2byte	0x10f
 5738 1480 16130000 		.4byte	0x1316
 5739 1484 60       		.byte	0x60
 5740 1485 00       		.byte	0
 5741 1486 06       		.uleb128 0x6
 5742 1487 04       		.byte	0x4
 5743 1488 45130000 		.4byte	0x1345
 5744 148c 0D       		.uleb128 0xd
 5745 148d 04       		.byte	0x4
ARM GAS  /tmp/ccH4KobB.s 			page 102


 5746 148e 14       		.byte	0x14
 5747 148f 38       		.byte	0x38
 5748 1490 A1140000 		.4byte	0x14a1
 5749 1494 0E       		.uleb128 0xe
 5750 1495 CB190000 		.4byte	.LASF266
 5751 1499 14       		.byte	0x14
 5752 149a 3C       		.byte	0x3c
 5753 149b 1F090000 		.4byte	0x91f
 5754 149f 00       		.byte	0
 5755 14a0 00       		.byte	0
 5756 14a1 04       		.uleb128 0x4
 5757 14a2 81040000 		.4byte	.LASF267
 5758 14a6 14       		.byte	0x14
 5759 14a7 3D       		.byte	0x3d
 5760 14a8 8C140000 		.4byte	0x148c
 5761 14ac 09       		.uleb128 0x9
 5762 14ad 04       		.byte	0x4
 5763 14ae 0E       		.byte	0xe
 5764 14af FA       		.byte	0xfa
 5765 14b0 09150000 		.4byte	0x1509
 5766 14b4 1E       		.uleb128 0x1e
 5767 14b5 E30D0000 		.4byte	.LASF268
 5768 14b9 0E       		.byte	0xe
 5769 14ba 0101     		.2byte	0x101
 5770 14bc 61090000 		.4byte	0x961
 5771 14c0 1E       		.uleb128 0x1e
 5772 14c1 300C0000 		.4byte	.LASF269
 5773 14c5 0E       		.byte	0xe
 5774 14c6 0801     		.2byte	0x108
 5775 14c8 61090000 		.4byte	0x961
 5776 14cc 1E       		.uleb128 0x1e
 5777 14cd 72170000 		.4byte	.LASF270
 5778 14d1 0E       		.byte	0xe
 5779 14d2 0F01     		.2byte	0x10f
 5780 14d4 50010000 		.4byte	0x150
 5781 14d8 1E       		.uleb128 0x1e
 5782 14d9 E2130000 		.4byte	.LASF271
 5783 14dd 0E       		.byte	0xe
 5784 14de 1601     		.2byte	0x116
 5785 14e0 09150000 		.4byte	0x1509
 5786 14e4 1E       		.uleb128 0x1e
 5787 14e5 A5000000 		.4byte	.LASF272
 5788 14e9 0E       		.byte	0xe
 5789 14ea 1E01     		.2byte	0x11e
 5790 14ec 34150000 		.4byte	0x1534
 5791 14f0 1E       		.uleb128 0x1e
 5792 14f1 9B170000 		.4byte	.LASF273
 5793 14f5 0E       		.byte	0xe
 5794 14f6 2701     		.2byte	0x127
 5795 14f8 6B150000 		.4byte	0x156b
 5796 14fc 1E       		.uleb128 0x1e
 5797 14fd 8F1A0000 		.4byte	.LASF274
 5798 1501 0E       		.byte	0xe
 5799 1502 2F01     		.2byte	0x12f
 5800 1504 6C090000 		.4byte	0x96c
 5801 1508 00       		.byte	0
 5802 1509 06       		.uleb128 0x6
ARM GAS  /tmp/ccH4KobB.s 			page 103


 5803 150a 04       		.byte	0x4
 5804 150b AD0A0000 		.4byte	0xaad
 5805 150f 11       		.uleb128 0x11
 5806 1510 FB120000 		.4byte	.LASF275
 5807 1514 0C       		.byte	0xc
 5808 1515 15       		.byte	0x15
 5809 1516 34       		.byte	0x34
 5810 1517 34150000 		.4byte	0x1534
 5811 151b 0E       		.uleb128 0xe
 5812 151c E31B0000 		.4byte	.LASF276
 5813 1520 15       		.byte	0x15
 5814 1521 35       		.byte	0x35
 5815 1522 E20A0000 		.4byte	0xae2
 5816 1526 00       		.byte	0
 5817 1527 0E       		.uleb128 0xe
 5818 1528 A8070000 		.4byte	.LASF277
 5819 152c 15       		.byte	0x15
 5820 152d 37       		.byte	0x37
 5821 152e 82090000 		.4byte	0x982
 5822 1532 08       		.byte	0x8
 5823 1533 00       		.byte	0
 5824 1534 06       		.uleb128 0x6
 5825 1535 04       		.byte	0x4
 5826 1536 0F150000 		.4byte	0x150f
 5827 153a 11       		.uleb128 0x11
 5828 153b 41090000 		.4byte	.LASF278
 5829 153f 10       		.byte	0x10
 5830 1540 16       		.byte	0x16
 5831 1541 39       		.byte	0x39
 5832 1542 6B150000 		.4byte	0x156b
 5833 1546 0E       		.uleb128 0xe
 5834 1547 FA0F0000 		.4byte	.LASF279
 5835 154b 16       		.byte	0x16
 5836 154c 3A       		.byte	0x3a
 5837 154d E20A0000 		.4byte	0xae2
 5838 1551 00       		.byte	0
 5839 1552 0E       		.uleb128 0xe
 5840 1553 2D120000 		.4byte	.LASF280
 5841 1557 16       		.byte	0x16
 5842 1558 3C       		.byte	0x3c
 5843 1559 B80A0000 		.4byte	0xab8
 5844 155d 08       		.byte	0x8
 5845 155e 0E       		.uleb128 0xe
 5846 155f 3A010000 		.4byte	.LASF281
 5847 1563 16       		.byte	0x16
 5848 1564 3E       		.byte	0x3e
 5849 1565 A9160000 		.4byte	0x16a9
 5850 1569 0C       		.byte	0xc
 5851 156a 00       		.byte	0
 5852 156b 06       		.uleb128 0x6
 5853 156c 04       		.byte	0x4
 5854 156d 3A150000 		.4byte	0x153a
 5855 1571 06       		.uleb128 0x6
 5856 1572 04       		.byte	0x4
 5857 1573 950B0000 		.4byte	0xb95
 5858 1577 0B       		.uleb128 0xb
 5859 1578 21130000 		.4byte	0x1321
ARM GAS  /tmp/ccH4KobB.s 			page 104


 5860 157c 87150000 		.4byte	0x1587
 5861 1580 0C       		.uleb128 0xc
 5862 1581 25000000 		.4byte	0x25
 5863 1585 3A       		.byte	0x3a
 5864 1586 00       		.byte	0
 5865 1587 25       		.uleb128 0x25
 5866 1588 636800   		.ascii	"ch\000"
 5867 158b 0E       		.byte	0xe
 5868 158c 0902     		.2byte	0x209
 5869 158e 620C0000 		.4byte	0xc62
 5870 1592 0D       		.uleb128 0xd
 5871 1593 16       		.byte	0x16
 5872 1594 02       		.byte	0x2
 5873 1595 34       		.byte	0x34
 5874 1596 73160000 		.4byte	0x1673
 5875 159a 0E       		.uleb128 0xe
 5876 159b F31B0000 		.4byte	.LASF282
 5877 159f 02       		.byte	0x2
 5878 15a0 35       		.byte	0x35
 5879 15a1 73160000 		.4byte	0x1673
 5880 15a5 00       		.byte	0
 5881 15a6 0E       		.uleb128 0xe
 5882 15a7 A11D0000 		.4byte	.LASF283
 5883 15ab 02       		.byte	0x2
 5884 15ac 36       		.byte	0x36
 5885 15ad D9080000 		.4byte	0x8d9
 5886 15b1 04       		.byte	0x4
 5887 15b2 0E       		.uleb128 0xe
 5888 15b3 5F020000 		.4byte	.LASF284
 5889 15b7 02       		.byte	0x2
 5890 15b8 37       		.byte	0x37
 5891 15b9 D9080000 		.4byte	0x8d9
 5892 15bd 05       		.byte	0x5
 5893 15be 0E       		.uleb128 0xe
 5894 15bf 74120000 		.4byte	.LASF285
 5895 15c3 02       		.byte	0x2
 5896 15c4 38       		.byte	0x38
 5897 15c5 E9080000 		.4byte	0x8e9
 5898 15c9 06       		.byte	0x6
 5899 15ca 0E       		.uleb128 0xe
 5900 15cb 15000000 		.4byte	.LASF286
 5901 15cf 02       		.byte	0x2
 5902 15d0 39       		.byte	0x39
 5903 15d1 D9080000 		.4byte	0x8d9
 5904 15d5 08       		.byte	0x8
 5905 15d6 0E       		.uleb128 0xe
 5906 15d7 FF100000 		.4byte	.LASF287
 5907 15db 02       		.byte	0x2
 5908 15dc 3A       		.byte	0x3a
 5909 15dd D9080000 		.4byte	0x8d9
 5910 15e1 09       		.byte	0x9
 5911 15e2 0E       		.uleb128 0xe
 5912 15e3 BB1D0000 		.4byte	.LASF288
 5913 15e7 02       		.byte	0x2
 5914 15e8 3B       		.byte	0x3b
 5915 15e9 D9080000 		.4byte	0x8d9
 5916 15ed 0A       		.byte	0xa
ARM GAS  /tmp/ccH4KobB.s 			page 105


 5917 15ee 0E       		.uleb128 0xe
 5918 15ef 311C0000 		.4byte	.LASF289
 5919 15f3 02       		.byte	0x2
 5920 15f4 3C       		.byte	0x3c
 5921 15f5 D9080000 		.4byte	0x8d9
 5922 15f9 0B       		.byte	0xb
 5923 15fa 0E       		.uleb128 0xe
 5924 15fb 8C1B0000 		.4byte	.LASF290
 5925 15ff 02       		.byte	0x2
 5926 1600 3D       		.byte	0x3d
 5927 1601 D9080000 		.4byte	0x8d9
 5928 1605 0C       		.byte	0xc
 5929 1606 0E       		.uleb128 0xe
 5930 1607 A50A0000 		.4byte	.LASF291
 5931 160b 02       		.byte	0x2
 5932 160c 3E       		.byte	0x3e
 5933 160d D9080000 		.4byte	0x8d9
 5934 1611 0D       		.byte	0xd
 5935 1612 0E       		.uleb128 0xe
 5936 1613 BD040000 		.4byte	.LASF292
 5937 1617 02       		.byte	0x2
 5938 1618 3F       		.byte	0x3f
 5939 1619 D9080000 		.4byte	0x8d9
 5940 161d 0E       		.byte	0xe
 5941 161e 0E       		.uleb128 0xe
 5942 161f EB0B0000 		.4byte	.LASF293
 5943 1623 02       		.byte	0x2
 5944 1624 40       		.byte	0x40
 5945 1625 D9080000 		.4byte	0x8d9
 5946 1629 0F       		.byte	0xf
 5947 162a 0E       		.uleb128 0xe
 5948 162b 690D0000 		.4byte	.LASF294
 5949 162f 02       		.byte	0x2
 5950 1630 41       		.byte	0x41
 5951 1631 D9080000 		.4byte	0x8d9
 5952 1635 10       		.byte	0x10
 5953 1636 0E       		.uleb128 0xe
 5954 1637 20120000 		.4byte	.LASF295
 5955 163b 02       		.byte	0x2
 5956 163c 43       		.byte	0x43
 5957 163d D9080000 		.4byte	0x8d9
 5958 1641 11       		.byte	0x11
 5959 1642 0E       		.uleb128 0xe
 5960 1643 1D020000 		.4byte	.LASF296
 5961 1647 02       		.byte	0x2
 5962 1648 44       		.byte	0x44
 5963 1649 D9080000 		.4byte	0x8d9
 5964 164d 12       		.byte	0x12
 5965 164e 0E       		.uleb128 0xe
 5966 164f 14120000 		.4byte	.LASF297
 5967 1653 02       		.byte	0x2
 5968 1654 45       		.byte	0x45
 5969 1655 D9080000 		.4byte	0x8d9
 5970 1659 13       		.byte	0x13
 5971 165a 0E       		.uleb128 0xe
 5972 165b F1160000 		.4byte	.LASF298
 5973 165f 02       		.byte	0x2
ARM GAS  /tmp/ccH4KobB.s 			page 106


 5974 1660 46       		.byte	0x46
 5975 1661 D9080000 		.4byte	0x8d9
 5976 1665 14       		.byte	0x14
 5977 1666 0E       		.uleb128 0xe
 5978 1667 83000000 		.4byte	.LASF299
 5979 166b 02       		.byte	0x2
 5980 166c 48       		.byte	0x48
 5981 166d D9080000 		.4byte	0x8d9
 5982 1671 15       		.byte	0x15
 5983 1672 00       		.byte	0
 5984 1673 0B       		.uleb128 0xb
 5985 1674 58010000 		.4byte	0x158
 5986 1678 83160000 		.4byte	0x1683
 5987 167c 0C       		.uleb128 0xc
 5988 167d 25000000 		.4byte	0x25
 5989 1681 03       		.byte	0x3
 5990 1682 00       		.byte	0
 5991 1683 04       		.uleb128 0x4
 5992 1684 7D100000 		.4byte	.LASF300
 5993 1688 02       		.byte	0x2
 5994 1689 49       		.byte	0x49
 5995 168a 92150000 		.4byte	0x1592
 5996 168e 10       		.uleb128 0x10
 5997 168f 83160000 		.4byte	0x1683
 5998 1693 22       		.uleb128 0x22
 5999 1694 B0080000 		.4byte	.LASF301
 6000 1698 02       		.byte	0x2
 6001 1699 6E       		.byte	0x6e
 6002 169a 8E160000 		.4byte	0x168e
 6003 169e 04       		.uleb128 0x4
 6004 169f 9B180000 		.4byte	.LASF302
 6005 16a3 16       		.byte	0x16
 6006 16a4 34       		.byte	0x34
 6007 16a5 3A150000 		.4byte	0x153a
 6008 16a9 06       		.uleb128 0x6
 6009 16aa 04       		.byte	0x4
 6010 16ab 9E160000 		.4byte	0x169e
 6011 16af 04       		.uleb128 0x4
 6012 16b0 E5080000 		.4byte	.LASF303
 6013 16b4 17       		.byte	0x17
 6014 16b5 34       		.byte	0x34
 6015 16b6 BA160000 		.4byte	0x16ba
 6016 16ba 11       		.uleb128 0x11
 6017 16bb 91070000 		.4byte	.LASF304
 6018 16bf 14       		.byte	0x14
 6019 16c0 17       		.byte	0x17
 6020 16c1 39       		.byte	0x39
 6021 16c2 03170000 		.4byte	0x1703
 6022 16c6 0E       		.uleb128 0xe
 6023 16c7 B0010000 		.4byte	.LASF305
 6024 16cb 17       		.byte	0x17
 6025 16cc 3A       		.byte	0x3a
 6026 16cd 03170000 		.4byte	0x1703
 6027 16d1 00       		.byte	0
 6028 16d2 0E       		.uleb128 0xe
 6029 16d3 5F190000 		.4byte	.LASF306
 6030 16d7 17       		.byte	0x17
ARM GAS  /tmp/ccH4KobB.s 			page 107


 6031 16d8 3D       		.byte	0x3d
 6032 16d9 B80A0000 		.4byte	0xab8
 6033 16dd 04       		.byte	0x4
 6034 16de 0E       		.uleb128 0xe
 6035 16df B4020000 		.4byte	.LASF307
 6036 16e3 17       		.byte	0x17
 6037 16e4 3F       		.byte	0x3f
 6038 16e5 6C090000 		.4byte	0x96c
 6039 16e9 08       		.byte	0x8
 6040 16ea 0E       		.uleb128 0xe
 6041 16eb 961A0000 		.4byte	.LASF308
 6042 16ef 17       		.byte	0x17
 6043 16f0 41       		.byte	0x41
 6044 16f1 77090000 		.4byte	0x977
 6045 16f5 0C       		.byte	0xc
 6046 16f6 0E       		.uleb128 0xe
 6047 16f7 1C0C0000 		.4byte	.LASF309
 6048 16fb 17       		.byte	0x17
 6049 16fc 43       		.byte	0x43
 6050 16fd 77090000 		.4byte	0x977
 6051 1701 10       		.byte	0x10
 6052 1702 00       		.byte	0
 6053 1703 06       		.uleb128 0x6
 6054 1704 04       		.byte	0x4
 6055 1705 AF160000 		.4byte	0x16af
 6056 1709 11       		.uleb128 0x11
 6057 170a 9F1A0000 		.4byte	.LASF310
 6058 170e 04       		.byte	0x4
 6059 170f 17       		.byte	0x17
 6060 1710 4A       		.byte	0x4a
 6061 1711 22170000 		.4byte	0x1722
 6062 1715 0E       		.uleb128 0xe
 6063 1716 061A0000 		.4byte	.LASF311
 6064 171a 17       		.byte	0x17
 6065 171b 4B       		.byte	0x4b
 6066 171c 03170000 		.4byte	0x1703
 6067 1720 00       		.byte	0
 6068 1721 00       		.byte	0
 6069 1722 04       		.uleb128 0x4
 6070 1723 26110000 		.4byte	.LASF312
 6071 1727 17       		.byte	0x17
 6072 1728 4E       		.byte	0x4e
 6073 1729 09170000 		.4byte	0x1709
 6074 172d 04       		.uleb128 0x4
 6075 172e 790C0000 		.4byte	.LASF313
 6076 1732 18       		.byte	0x18
 6077 1733 3F       		.byte	0x3f
 6078 1734 38170000 		.4byte	0x1738
 6079 1738 11       		.uleb128 0x11
 6080 1739 470E0000 		.4byte	.LASF314
 6081 173d 24       		.byte	0x24
 6082 173e 18       		.byte	0x18
 6083 173f 4D       		.byte	0x4d
 6084 1740 A5170000 		.4byte	0x17a5
 6085 1744 0E       		.uleb128 0xe
 6086 1745 4C040000 		.4byte	.LASF315
 6087 1749 18       		.byte	0x18
ARM GAS  /tmp/ccH4KobB.s 			page 108


 6088 174a 4E       		.byte	0x4e
 6089 174b E20A0000 		.4byte	0xae2
 6090 174f 00       		.byte	0
 6091 1750 0E       		.uleb128 0xe
 6092 1751 AB130000 		.4byte	.LASF316
 6093 1755 18       		.byte	0x18
 6094 1756 4F       		.byte	0x4f
 6095 1757 3E000000 		.4byte	0x3e
 6096 175b 08       		.byte	0x8
 6097 175c 0E       		.uleb128 0xe
 6098 175d F00E0000 		.4byte	.LASF317
 6099 1761 18       		.byte	0x18
 6100 1762 50       		.byte	0x50
 6101 1763 C7170000 		.4byte	0x17c7
 6102 1767 0C       		.byte	0xc
 6103 1768 0E       		.uleb128 0xe
 6104 1769 B0030000 		.4byte	.LASF318
 6105 176d 18       		.byte	0x18
 6106 176e 51       		.byte	0x51
 6107 176f C7170000 		.4byte	0x17c7
 6108 1773 10       		.byte	0x10
 6109 1774 0E       		.uleb128 0xe
 6110 1775 06150000 		.4byte	.LASF319
 6111 1779 18       		.byte	0x18
 6112 177a 53       		.byte	0x53
 6113 177b C7170000 		.4byte	0x17c7
 6114 177f 14       		.byte	0x14
 6115 1780 0E       		.uleb128 0xe
 6116 1781 E8130000 		.4byte	.LASF320
 6117 1785 18       		.byte	0x18
 6118 1786 54       		.byte	0x54
 6119 1787 C7170000 		.4byte	0x17c7
 6120 178b 18       		.byte	0x18
 6121 178c 0E       		.uleb128 0xe
 6122 178d 92170000 		.4byte	.LASF321
 6123 1791 18       		.byte	0x18
 6124 1792 55       		.byte	0x55
 6125 1793 A5170000 		.4byte	0x17a5
 6126 1797 1C       		.byte	0x1c
 6127 1798 0E       		.uleb128 0xe
 6128 1799 9D150000 		.4byte	.LASF322
 6129 179d 18       		.byte	0x18
 6130 179e 56       		.byte	0x56
 6131 179f 50010000 		.4byte	0x150
 6132 17a3 20       		.byte	0x20
 6133 17a4 00       		.byte	0
 6134 17a5 04       		.uleb128 0x4
 6135 17a6 7B030000 		.4byte	.LASF323
 6136 17aa 18       		.byte	0x18
 6137 17ab 42       		.byte	0x42
 6138 17ac B0170000 		.4byte	0x17b0
 6139 17b0 06       		.uleb128 0x6
 6140 17b1 04       		.byte	0x4
 6141 17b2 B6170000 		.4byte	0x17b6
 6142 17b6 1F       		.uleb128 0x1f
 6143 17b7 C1170000 		.4byte	0x17c1
 6144 17bb 17       		.uleb128 0x17
ARM GAS  /tmp/ccH4KobB.s 			page 109


 6145 17bc C1170000 		.4byte	0x17c1
 6146 17c0 00       		.byte	0
 6147 17c1 06       		.uleb128 0x6
 6148 17c2 04       		.byte	0x4
 6149 17c3 2D170000 		.4byte	0x172d
 6150 17c7 06       		.uleb128 0x6
 6151 17c8 04       		.byte	0x4
 6152 17c9 D9080000 		.4byte	0x8d9
 6153 17cd 04       		.uleb128 0x4
 6154 17ce 92040000 		.4byte	.LASF324
 6155 17d2 18       		.byte	0x18
 6156 17d3 64       		.byte	0x64
 6157 17d4 2D170000 		.4byte	0x172d
 6158 17d8 04       		.uleb128 0x4
 6159 17d9 9D1E0000 		.4byte	.LASF325
 6160 17dd 18       		.byte	0x18
 6161 17de 71       		.byte	0x71
 6162 17df 2D170000 		.4byte	0x172d
 6163 17e3 16       		.uleb128 0x16
 6164 17e4 33000000 		.4byte	0x33
 6165 17e8 FC170000 		.4byte	0x17fc
 6166 17ec 17       		.uleb128 0x17
 6167 17ed 50010000 		.4byte	0x150
 6168 17f1 17       		.uleb128 0x17
 6169 17f2 FC170000 		.4byte	0x17fc
 6170 17f6 17       		.uleb128 0x17
 6171 17f7 33000000 		.4byte	0x33
 6172 17fb 00       		.byte	0
 6173 17fc 06       		.uleb128 0x6
 6174 17fd 04       		.byte	0x4
 6175 17fe E4080000 		.4byte	0x8e4
 6176 1802 06       		.uleb128 0x6
 6177 1803 04       		.byte	0x4
 6178 1804 E3170000 		.4byte	0x17e3
 6179 1808 16       		.uleb128 0x16
 6180 1809 33000000 		.4byte	0x33
 6181 180d 21180000 		.4byte	0x1821
 6182 1811 17       		.uleb128 0x17
 6183 1812 50010000 		.4byte	0x150
 6184 1816 17       		.uleb128 0x17
 6185 1817 C7170000 		.4byte	0x17c7
 6186 181b 17       		.uleb128 0x17
 6187 181c 33000000 		.4byte	0x33
 6188 1820 00       		.byte	0
 6189 1821 06       		.uleb128 0x6
 6190 1822 04       		.byte	0x4
 6191 1823 08180000 		.4byte	0x1808
 6192 1827 16       		.uleb128 0x16
 6193 1828 61090000 		.4byte	0x961
 6194 182c 3B180000 		.4byte	0x183b
 6195 1830 17       		.uleb128 0x17
 6196 1831 50010000 		.4byte	0x150
 6197 1835 17       		.uleb128 0x17
 6198 1836 D9080000 		.4byte	0x8d9
 6199 183a 00       		.byte	0
 6200 183b 06       		.uleb128 0x6
 6201 183c 04       		.byte	0x4
ARM GAS  /tmp/ccH4KobB.s 			page 110


 6202 183d 27180000 		.4byte	0x1827
 6203 1841 16       		.uleb128 0x16
 6204 1842 61090000 		.4byte	0x961
 6205 1846 50180000 		.4byte	0x1850
 6206 184a 17       		.uleb128 0x17
 6207 184b 50010000 		.4byte	0x150
 6208 184f 00       		.byte	0
 6209 1850 06       		.uleb128 0x6
 6210 1851 04       		.byte	0x4
 6211 1852 41180000 		.4byte	0x1841
 6212 1856 02       		.uleb128 0x2
 6213 1857 04       		.byte	0x4
 6214 1858 04       		.byte	0x4
 6215 1859 07080000 		.4byte	.LASF326
 6216 185d 02       		.uleb128 0x2
 6217 185e 01       		.byte	0x1
 6218 185f 02       		.byte	0x2
 6219 1860 AC000000 		.4byte	.LASF327
 6220 1864 0B       		.uleb128 0xb
 6221 1865 D9080000 		.4byte	0x8d9
 6222 1869 74180000 		.4byte	0x1874
 6223 186d 0C       		.uleb128 0xc
 6224 186e 25000000 		.4byte	0x25
 6225 1872 07       		.byte	0x7
 6226 1873 00       		.byte	0
 6227 1874 22       		.uleb128 0x22
 6228 1875 35140000 		.4byte	.LASF328
 6229 1879 19       		.byte	0x19
 6230 187a E7       		.byte	0xe7
 6231 187b 5D180000 		.4byte	0x185d
 6232 187f 0D       		.uleb128 0xd
 6233 1880 0C       		.byte	0xc
 6234 1881 1A       		.byte	0x1a
 6235 1882 DA       		.byte	0xda
 6236 1883 C4180000 		.4byte	0x18c4
 6237 1887 0E       		.uleb128 0xe
 6238 1888 091E0000 		.4byte	.LASF329
 6239 188c 1A       		.byte	0x1a
 6240 188d DB       		.byte	0xdb
 6241 188e C4180000 		.4byte	0x18c4
 6242 1892 00       		.byte	0
 6243 1893 0E       		.uleb128 0xe
 6244 1894 BB0D0000 		.4byte	.LASF330
 6245 1898 1A       		.byte	0x1a
 6246 1899 DC       		.byte	0xdc
 6247 189a CA180000 		.4byte	0x18ca
 6248 189e 04       		.byte	0x4
 6249 189f 0E       		.uleb128 0xe
 6250 18a0 8E030000 		.4byte	.LASF331
 6251 18a4 1A       		.byte	0x1a
 6252 18a5 DD       		.byte	0xdd
 6253 18a6 D9080000 		.4byte	0x8d9
 6254 18aa 08       		.byte	0x8
 6255 18ab 0E       		.uleb128 0xe
 6256 18ac 91180000 		.4byte	.LASF332
 6257 18b0 1A       		.byte	0x1a
 6258 18b1 DF       		.byte	0xdf
ARM GAS  /tmp/ccH4KobB.s 			page 111


 6259 18b2 D9080000 		.4byte	0x8d9
 6260 18b6 09       		.byte	0x9
 6261 18b7 0E       		.uleb128 0xe
 6262 18b8 E1020000 		.4byte	.LASF333
 6263 18bc 1A       		.byte	0x1a
 6264 18bd E0       		.byte	0xe0
 6265 18be D9080000 		.4byte	0x8d9
 6266 18c2 0A       		.byte	0xa
 6267 18c3 00       		.byte	0
 6268 18c4 06       		.uleb128 0x6
 6269 18c5 04       		.byte	0x4
 6270 18c6 A10F0000 		.4byte	0xfa1
 6271 18ca 06       		.uleb128 0x6
 6272 18cb 04       		.byte	0x4
 6273 18cc 0F090000 		.4byte	0x90f
 6274 18d0 04       		.uleb128 0x4
 6275 18d1 C00F0000 		.4byte	.LASF334
 6276 18d5 1A       		.byte	0x1a
 6277 18d6 E1       		.byte	0xe1
 6278 18d7 7F180000 		.4byte	0x187f
 6279 18db 10       		.uleb128 0x10
 6280 18dc D0180000 		.4byte	0x18d0
 6281 18e0 0B       		.uleb128 0xb
 6282 18e1 DB180000 		.4byte	0x18db
 6283 18e5 F0180000 		.4byte	0x18f0
 6284 18e9 0C       		.uleb128 0xc
 6285 18ea 25000000 		.4byte	0x25
 6286 18ee 0F       		.byte	0xf
 6287 18ef 00       		.byte	0
 6288 18f0 10       		.uleb128 0x10
 6289 18f1 E0180000 		.4byte	0x18e0
 6290 18f5 20       		.uleb128 0x20
 6291 18f6 4C160000 		.4byte	.LASF335
 6292 18fa 1A       		.byte	0x1a
 6293 18fb BB01     		.2byte	0x1bb
 6294 18fd F0180000 		.4byte	0x18f0
 6295 1901 16       		.uleb128 0x16
 6296 1902 61090000 		.4byte	0x961
 6297 1906 1A190000 		.4byte	0x191a
 6298 190a 17       		.uleb128 0x17
 6299 190b 50010000 		.4byte	0x150
 6300 190f 17       		.uleb128 0x17
 6301 1910 D9080000 		.4byte	0x8d9
 6302 1914 17       		.uleb128 0x17
 6303 1915 8D090000 		.4byte	0x98d
 6304 1919 00       		.byte	0
 6305 191a 06       		.uleb128 0x6
 6306 191b 04       		.byte	0x4
 6307 191c 01190000 		.4byte	0x1901
 6308 1920 16       		.uleb128 0x16
 6309 1921 61090000 		.4byte	0x961
 6310 1925 34190000 		.4byte	0x1934
 6311 1929 17       		.uleb128 0x17
 6312 192a 50010000 		.4byte	0x150
 6313 192e 17       		.uleb128 0x17
 6314 192f 8D090000 		.4byte	0x98d
 6315 1933 00       		.byte	0
ARM GAS  /tmp/ccH4KobB.s 			page 112


 6316 1934 06       		.uleb128 0x6
 6317 1935 04       		.byte	0x4
 6318 1936 20190000 		.4byte	0x1920
 6319 193a 16       		.uleb128 0x16
 6320 193b 33000000 		.4byte	0x33
 6321 193f 58190000 		.4byte	0x1958
 6322 1943 17       		.uleb128 0x17
 6323 1944 50010000 		.4byte	0x150
 6324 1948 17       		.uleb128 0x17
 6325 1949 FC170000 		.4byte	0x17fc
 6326 194d 17       		.uleb128 0x17
 6327 194e 33000000 		.4byte	0x33
 6328 1952 17       		.uleb128 0x17
 6329 1953 8D090000 		.4byte	0x98d
 6330 1957 00       		.byte	0
 6331 1958 06       		.uleb128 0x6
 6332 1959 04       		.byte	0x4
 6333 195a 3A190000 		.4byte	0x193a
 6334 195e 16       		.uleb128 0x16
 6335 195f 33000000 		.4byte	0x33
 6336 1963 7C190000 		.4byte	0x197c
 6337 1967 17       		.uleb128 0x17
 6338 1968 50010000 		.4byte	0x150
 6339 196c 17       		.uleb128 0x17
 6340 196d C7170000 		.4byte	0x17c7
 6341 1971 17       		.uleb128 0x17
 6342 1972 33000000 		.4byte	0x33
 6343 1976 17       		.uleb128 0x17
 6344 1977 8D090000 		.4byte	0x98d
 6345 197b 00       		.byte	0
 6346 197c 06       		.uleb128 0x6
 6347 197d 04       		.byte	0x4
 6348 197e 5E190000 		.4byte	0x195e
 6349 1982 0D       		.uleb128 0xd
 6350 1983 04       		.byte	0x4
 6351 1984 1B       		.byte	0x1b
 6352 1985 B3       		.byte	0xb3
 6353 1986 A3190000 		.4byte	0x19a3
 6354 198a 12       		.uleb128 0x12
 6355 198b 73657400 		.ascii	"set\000"
 6356 198f 1B       		.byte	0x1b
 6357 1990 B4       		.byte	0xb4
 6358 1991 E9080000 		.4byte	0x8e9
 6359 1995 00       		.byte	0
 6360 1996 0E       		.uleb128 0xe
 6361 1997 4D0B0000 		.4byte	.LASF336
 6362 199b 1B       		.byte	0x1b
 6363 199c B5       		.byte	0xb5
 6364 199d E9080000 		.4byte	0x8e9
 6365 19a1 02       		.byte	0x2
 6366 19a2 00       		.byte	0
 6367 19a3 09       		.uleb128 0x9
 6368 19a4 04       		.byte	0x4
 6369 19a5 1B       		.byte	0x1b
 6370 19a6 B1       		.byte	0xb1
 6371 19a7 BE190000 		.4byte	0x19be
 6372 19ab 26       		.uleb128 0x26
ARM GAS  /tmp/ccH4KobB.s 			page 113


 6373 19ac 5700     		.ascii	"W\000"
 6374 19ae 1B       		.byte	0x1b
 6375 19af B2       		.byte	0xb2
 6376 19b0 04090000 		.4byte	0x904
 6377 19b4 26       		.uleb128 0x26
 6378 19b5 4800     		.ascii	"H\000"
 6379 19b7 1B       		.byte	0x1b
 6380 19b8 B6       		.byte	0xb6
 6381 19b9 82190000 		.4byte	0x1982
 6382 19bd 00       		.byte	0
 6383 19be 05       		.uleb128 0x5
 6384 19bf A3190000 		.4byte	0x19a3
 6385 19c3 0D       		.uleb128 0xd
 6386 19c4 2C       		.byte	0x2c
 6387 19c5 1B       		.byte	0x1b
 6388 19c6 A9       		.byte	0xa9
 6389 19c7 501A0000 		.4byte	0x1a50
 6390 19cb 0E       		.uleb128 0xe
 6391 19cc CB180000 		.4byte	.LASF337
 6392 19d0 1B       		.byte	0x1b
 6393 19d1 AB       		.byte	0xab
 6394 19d2 0F090000 		.4byte	0x90f
 6395 19d6 00       		.byte	0
 6396 19d7 0E       		.uleb128 0xe
 6397 19d8 84020000 		.4byte	.LASF338
 6398 19dc 1B       		.byte	0x1b
 6399 19dd AC       		.byte	0xac
 6400 19de 0F090000 		.4byte	0x90f
 6401 19e2 04       		.byte	0x4
 6402 19e3 0E       		.uleb128 0xe
 6403 19e4 D50C0000 		.4byte	.LASF339
 6404 19e8 1B       		.byte	0x1b
 6405 19e9 AD       		.byte	0xad
 6406 19ea 0F090000 		.4byte	0x90f
 6407 19ee 08       		.byte	0x8
 6408 19ef 0E       		.uleb128 0xe
 6409 19f0 0F180000 		.4byte	.LASF340
 6410 19f4 1B       		.byte	0x1b
 6411 19f5 AE       		.byte	0xae
 6412 19f6 0F090000 		.4byte	0x90f
 6413 19fa 0C       		.byte	0xc
 6414 19fb 12       		.uleb128 0x12
 6415 19fc 49445200 		.ascii	"IDR\000"
 6416 1a00 1B       		.byte	0x1b
 6417 1a01 AF       		.byte	0xaf
 6418 1a02 0F090000 		.4byte	0x90f
 6419 1a06 10       		.byte	0x10
 6420 1a07 12       		.uleb128 0x12
 6421 1a08 4F445200 		.ascii	"ODR\000"
 6422 1a0c 1B       		.byte	0x1b
 6423 1a0d B0       		.byte	0xb0
 6424 1a0e 0F090000 		.4byte	0x90f
 6425 1a12 14       		.byte	0x14
 6426 1a13 0E       		.uleb128 0xe
 6427 1a14 BB0F0000 		.4byte	.LASF341
 6428 1a18 1B       		.byte	0x1b
 6429 1a19 B7       		.byte	0xb7
ARM GAS  /tmp/ccH4KobB.s 			page 114


 6430 1a1a BE190000 		.4byte	0x19be
 6431 1a1e 18       		.byte	0x18
 6432 1a1f 0E       		.uleb128 0xe
 6433 1a20 1D140000 		.4byte	.LASF342
 6434 1a24 1B       		.byte	0x1b
 6435 1a25 B8       		.byte	0xb8
 6436 1a26 0F090000 		.4byte	0x90f
 6437 1a2a 1C       		.byte	0x1c
 6438 1a2b 0E       		.uleb128 0xe
 6439 1a2c E0160000 		.4byte	.LASF343
 6440 1a30 1B       		.byte	0x1b
 6441 1a31 B9       		.byte	0xb9
 6442 1a32 0F090000 		.4byte	0x90f
 6443 1a36 20       		.byte	0x20
 6444 1a37 0E       		.uleb128 0xe
 6445 1a38 DB160000 		.4byte	.LASF344
 6446 1a3c 1B       		.byte	0x1b
 6447 1a3d BA       		.byte	0xba
 6448 1a3e 0F090000 		.4byte	0x90f
 6449 1a42 24       		.byte	0x24
 6450 1a43 12       		.uleb128 0x12
 6451 1a44 42525200 		.ascii	"BRR\000"
 6452 1a48 1B       		.byte	0x1b
 6453 1a49 BB       		.byte	0xbb
 6454 1a4a 0F090000 		.4byte	0x90f
 6455 1a4e 28       		.byte	0x28
 6456 1a4f 00       		.byte	0
 6457 1a50 04       		.uleb128 0x4
 6458 1a51 D60D0000 		.4byte	.LASF345
 6459 1a55 1B       		.byte	0x1b
 6460 1a56 BC       		.byte	0xbc
 6461 1a57 C3190000 		.4byte	0x19c3
 6462 1a5b 0D       		.uleb128 0xd
 6463 1a5c 1C       		.byte	0x1c
 6464 1a5d 1B       		.byte	0x1b
 6465 1a5e C1       		.byte	0xc1
 6466 1a5f B81A0000 		.4byte	0x1ab8
 6467 1a63 0E       		.uleb128 0xe
 6468 1a64 D31B0000 		.4byte	.LASF346
 6469 1a68 1B       		.byte	0x1b
 6470 1a69 C3       		.byte	0xc3
 6471 1a6a 04090000 		.4byte	0x904
 6472 1a6e 00       		.byte	0
 6473 1a6f 0E       		.uleb128 0xe
 6474 1a70 6F020000 		.4byte	.LASF347
 6475 1a74 1B       		.byte	0x1b
 6476 1a75 C5       		.byte	0xc5
 6477 1a76 04090000 		.4byte	0x904
 6478 1a7a 04       		.byte	0x4
 6479 1a7b 0E       		.uleb128 0xe
 6480 1a7c A0010000 		.4byte	.LASF348
 6481 1a80 1B       		.byte	0x1b
 6482 1a81 C7       		.byte	0xc7
 6483 1a82 04090000 		.4byte	0x904
 6484 1a86 08       		.byte	0x8
 6485 1a87 0E       		.uleb128 0xe
 6486 1a88 061B0000 		.4byte	.LASF349
ARM GAS  /tmp/ccH4KobB.s 			page 115


 6487 1a8c 1B       		.byte	0x1b
 6488 1a8d C9       		.byte	0xc9
 6489 1a8e 04090000 		.4byte	0x904
 6490 1a92 0C       		.byte	0xc
 6491 1a93 12       		.uleb128 0x12
 6492 1a94 6F647200 		.ascii	"odr\000"
 6493 1a98 1B       		.byte	0x1b
 6494 1a99 CB       		.byte	0xcb
 6495 1a9a 04090000 		.4byte	0x904
 6496 1a9e 10       		.byte	0x10
 6497 1a9f 0E       		.uleb128 0xe
 6498 1aa0 7D180000 		.4byte	.LASF350
 6499 1aa4 1B       		.byte	0x1b
 6500 1aa5 CD       		.byte	0xcd
 6501 1aa6 04090000 		.4byte	0x904
 6502 1aaa 14       		.byte	0x14
 6503 1aab 0E       		.uleb128 0xe
 6504 1aac 6F180000 		.4byte	.LASF351
 6505 1ab0 1B       		.byte	0x1b
 6506 1ab1 CF       		.byte	0xcf
 6507 1ab2 04090000 		.4byte	0x904
 6508 1ab6 18       		.byte	0x18
 6509 1ab7 00       		.byte	0
 6510 1ab8 04       		.uleb128 0x4
 6511 1ab9 14160000 		.4byte	.LASF352
 6512 1abd 1B       		.byte	0x1b
 6513 1abe D0       		.byte	0xd0
 6514 1abf 5B1A0000 		.4byte	0x1a5b
 6515 1ac3 0D       		.uleb128 0xd
 6516 1ac4 FC       		.byte	0xfc
 6517 1ac5 1B       		.byte	0x1b
 6518 1ac6 D9       		.byte	0xd9
 6519 1ac7 381B0000 		.4byte	0x1b38
 6520 1acb 0E       		.uleb128 0xe
 6521 1acc 500E0000 		.4byte	.LASF353
 6522 1ad0 1B       		.byte	0x1b
 6523 1ad1 DC       		.byte	0xdc
 6524 1ad2 B81A0000 		.4byte	0x1ab8
 6525 1ad6 00       		.byte	0
 6526 1ad7 0E       		.uleb128 0xe
 6527 1ad8 4E020000 		.4byte	.LASF354
 6528 1adc 1B       		.byte	0x1b
 6529 1add E0       		.byte	0xe0
 6530 1ade B81A0000 		.4byte	0x1ab8
 6531 1ae2 1C       		.byte	0x1c
 6532 1ae3 0E       		.uleb128 0xe
 6533 1ae4 41010000 		.4byte	.LASF355
 6534 1ae8 1B       		.byte	0x1b
 6535 1ae9 E4       		.byte	0xe4
 6536 1aea B81A0000 		.4byte	0x1ab8
 6537 1aee 38       		.byte	0x38
 6538 1aef 0E       		.uleb128 0xe
 6539 1af0 390C0000 		.4byte	.LASF356
 6540 1af4 1B       		.byte	0x1b
 6541 1af5 E8       		.byte	0xe8
 6542 1af6 B81A0000 		.4byte	0x1ab8
 6543 1afa 54       		.byte	0x54
ARM GAS  /tmp/ccH4KobB.s 			page 116


 6544 1afb 0E       		.uleb128 0xe
 6545 1afc 67150000 		.4byte	.LASF357
 6546 1b00 1B       		.byte	0x1b
 6547 1b01 EC       		.byte	0xec
 6548 1b02 B81A0000 		.4byte	0x1ab8
 6549 1b06 70       		.byte	0x70
 6550 1b07 0E       		.uleb128 0xe
 6551 1b08 011F0000 		.4byte	.LASF358
 6552 1b0c 1B       		.byte	0x1b
 6553 1b0d F0       		.byte	0xf0
 6554 1b0e B81A0000 		.4byte	0x1ab8
 6555 1b12 8C       		.byte	0x8c
 6556 1b13 0E       		.uleb128 0xe
 6557 1b14 66090000 		.4byte	.LASF359
 6558 1b18 1B       		.byte	0x1b
 6559 1b19 F4       		.byte	0xf4
 6560 1b1a B81A0000 		.4byte	0x1ab8
 6561 1b1e A8       		.byte	0xa8
 6562 1b1f 0E       		.uleb128 0xe
 6563 1b20 B5130000 		.4byte	.LASF360
 6564 1b24 1B       		.byte	0x1b
 6565 1b25 F8       		.byte	0xf8
 6566 1b26 B81A0000 		.4byte	0x1ab8
 6567 1b2a C4       		.byte	0xc4
 6568 1b2b 0E       		.uleb128 0xe
 6569 1b2c 1C1D0000 		.4byte	.LASF361
 6570 1b30 1B       		.byte	0x1b
 6571 1b31 FC       		.byte	0xfc
 6572 1b32 B81A0000 		.4byte	0x1ab8
 6573 1b36 E0       		.byte	0xe0
 6574 1b37 00       		.byte	0
 6575 1b38 04       		.uleb128 0x4
 6576 1b39 BE080000 		.4byte	.LASF362
 6577 1b3d 1B       		.byte	0x1b
 6578 1b3e FE       		.byte	0xfe
 6579 1b3f C31A0000 		.4byte	0x1ac3
 6580 1b43 10       		.uleb128 0x10
 6581 1b44 381B0000 		.4byte	0x1b38
 6582 1b48 08       		.uleb128 0x8
 6583 1b49 BC130000 		.4byte	.LASF363
 6584 1b4d 1B       		.byte	0x1b
 6585 1b4e 1B01     		.2byte	0x11b
 6586 1b50 541B0000 		.4byte	0x1b54
 6587 1b54 06       		.uleb128 0x6
 6588 1b55 04       		.byte	0x4
 6589 1b56 501A0000 		.4byte	0x1a50
 6590 1b5a 20       		.uleb128 0x20
 6591 1b5b 4C190000 		.4byte	.LASF364
 6592 1b5f 1B       		.byte	0x1b
 6593 1b60 DA01     		.2byte	0x1da
 6594 1b62 431B0000 		.4byte	0x1b43
 6595 1b66 27       		.uleb128 0x27
 6596 1b67 07       		.byte	0x7
 6597 1b68 01       		.byte	0x1
 6598 1b69 55000000 		.4byte	0x55
 6599 1b6d 1C       		.byte	0x1c
 6600 1b6e 5F       		.byte	0x5f
ARM GAS  /tmp/ccH4KobB.s 			page 117


 6601 1b6f 921B0000 		.4byte	0x1b92
 6602 1b73 28       		.uleb128 0x28
 6603 1b74 C90B0000 		.4byte	.LASF365
 6604 1b78 00       		.byte	0
 6605 1b79 28       		.uleb128 0x28
 6606 1b7a 7A000000 		.4byte	.LASF366
 6607 1b7e 01       		.byte	0x1
 6608 1b7f 28       		.uleb128 0x28
 6609 1b80 26000000 		.4byte	.LASF367
 6610 1b84 02       		.byte	0x2
 6611 1b85 28       		.uleb128 0x28
 6612 1b86 BA140000 		.4byte	.LASF368
 6613 1b8a 03       		.byte	0x3
 6614 1b8b 28       		.uleb128 0x28
 6615 1b8c 0D080000 		.4byte	.LASF369
 6616 1b90 04       		.byte	0x4
 6617 1b91 00       		.byte	0
 6618 1b92 04       		.uleb128 0x4
 6619 1b93 E0040000 		.4byte	.LASF370
 6620 1b97 1C       		.byte	0x1c
 6621 1b98 65       		.byte	0x65
 6622 1b99 661B0000 		.4byte	0x1b66
 6623 1b9d 0D       		.uleb128 0xd
 6624 1b9e 08       		.byte	0x8
 6625 1b9f 1D       		.byte	0x1d
 6626 1ba0 F4       		.byte	0xf4
 6627 1ba1 BF1B0000 		.4byte	0x1bbf
 6628 1ba5 12       		.uleb128 0x12
 6629 1ba6 6D637200 		.ascii	"mcr\000"
 6630 1baa 1D       		.byte	0x1d
 6631 1bab FA       		.byte	0xfa
 6632 1bac 04090000 		.4byte	0x904
 6633 1bb0 00       		.byte	0
 6634 1bb1 21       		.uleb128 0x21
 6635 1bb2 62747200 		.ascii	"btr\000"
 6636 1bb6 1D       		.byte	0x1d
 6637 1bb7 0001     		.2byte	0x100
 6638 1bb9 04090000 		.4byte	0x904
 6639 1bbd 04       		.byte	0x4
 6640 1bbe 00       		.byte	0
 6641 1bbf 08       		.uleb128 0x8
 6642 1bc0 5D150000 		.4byte	.LASF371
 6643 1bc4 1D       		.byte	0x1d
 6644 1bc5 0101     		.2byte	0x101
 6645 1bc7 9D1B0000 		.4byte	0x1b9d
 6646 1bcb 10       		.uleb128 0x10
 6647 1bcc BF1B0000 		.4byte	0x1bbf
 6648 1bd0 1C       		.uleb128 0x1c
 6649 1bd1 30       		.byte	0x30
 6650 1bd2 1D       		.byte	0x1d
 6651 1bd3 0601     		.2byte	0x106
 6652 1bd5 5C1C0000 		.4byte	0x1c5c
 6653 1bd9 19       		.uleb128 0x19
 6654 1bda 6E120000 		.4byte	.LASF372
 6655 1bde 1D       		.byte	0x1d
 6656 1bdf 0A01     		.2byte	0x10a
 6657 1be1 921B0000 		.4byte	0x1b92
ARM GAS  /tmp/ccH4KobB.s 			page 118


 6658 1be5 00       		.byte	0
 6659 1be6 19       		.uleb128 0x19
 6660 1be7 18170000 		.4byte	.LASF373
 6661 1beb 1D       		.byte	0x1d
 6662 1bec 0E01     		.2byte	0x10e
 6663 1bee 5C1C0000 		.4byte	0x1c5c
 6664 1bf2 04       		.byte	0x4
 6665 1bf3 19       		.uleb128 0x19
 6666 1bf4 A0070000 		.4byte	.LASF374
 6667 1bf8 1D       		.byte	0x1d
 6668 1bf9 1201     		.2byte	0x112
 6669 1bfb E20A0000 		.4byte	0xae2
 6670 1bff 08       		.byte	0x8
 6671 1c00 19       		.uleb128 0x19
 6672 1c01 3B190000 		.4byte	.LASF375
 6673 1c05 1D       		.byte	0x1d
 6674 1c06 1601     		.2byte	0x116
 6675 1c08 E20A0000 		.4byte	0xae2
 6676 1c0c 10       		.byte	0x10
 6677 1c0d 19       		.uleb128 0x19
 6678 1c0e 34150000 		.4byte	.LASF376
 6679 1c12 1D       		.byte	0x1d
 6680 1c13 2301     		.2byte	0x123
 6681 1c15 22170000 		.4byte	0x1722
 6682 1c19 18       		.byte	0x18
 6683 1c1a 19       		.uleb128 0x19
 6684 1c1b 4F090000 		.4byte	.LASF377
 6685 1c1f 1D       		.byte	0x1d
 6686 1c20 2A01     		.2byte	0x12a
 6687 1c22 22170000 		.4byte	0x1722
 6688 1c26 1C       		.byte	0x1c
 6689 1c27 19       		.uleb128 0x19
 6690 1c28 C40C0000 		.4byte	.LASF378
 6691 1c2c 1D       		.byte	0x1d
 6692 1c2d 3001     		.2byte	0x130
 6693 1c2f 22170000 		.4byte	0x1722
 6694 1c33 20       		.byte	0x20
 6695 1c34 19       		.uleb128 0x19
 6696 1c35 BE020000 		.4byte	.LASF379
 6697 1c39 1D       		.byte	0x1d
 6698 1c3a 3501     		.2byte	0x135
 6699 1c3c 22170000 		.4byte	0x1722
 6700 1c40 24       		.byte	0x24
 6701 1c41 19       		.uleb128 0x19
 6702 1c42 56070000 		.4byte	.LASF380
 6703 1c46 1D       		.byte	0x1d
 6704 1c47 3901     		.2byte	0x139
 6705 1c49 22170000 		.4byte	0x1722
 6706 1c4d 28       		.byte	0x28
 6707 1c4e 21       		.uleb128 0x21
 6708 1c4f 63616E00 		.ascii	"can\000"
 6709 1c53 1D       		.byte	0x1d
 6710 1c54 3F01     		.2byte	0x13f
 6711 1c56 621C0000 		.4byte	0x1c62
 6712 1c5a 2C       		.byte	0x2c
 6713 1c5b 00       		.byte	0
 6714 1c5c 06       		.uleb128 0x6
ARM GAS  /tmp/ccH4KobB.s 			page 119


 6715 1c5d 04       		.byte	0x4
 6716 1c5e CB1B0000 		.4byte	0x1bcb
 6717 1c62 06       		.uleb128 0x6
 6718 1c63 04       		.byte	0x4
 6719 1c64 3E0F0000 		.4byte	0xf3e
 6720 1c68 08       		.uleb128 0x8
 6721 1c69 0E030000 		.4byte	.LASF381
 6722 1c6d 1D       		.byte	0x1d
 6723 1c6e 4001     		.2byte	0x140
 6724 1c70 D01B0000 		.4byte	0x1bd0
 6725 1c74 20       		.uleb128 0x20
 6726 1c75 B61A0000 		.4byte	.LASF382
 6727 1c79 1D       		.byte	0x1d
 6728 1c7a 4B01     		.2byte	0x14b
 6729 1c7c 681C0000 		.4byte	0x1c68
 6730 1c80 27       		.uleb128 0x27
 6731 1c81 07       		.byte	0x7
 6732 1c82 01       		.byte	0x1
 6733 1c83 55000000 		.4byte	0x55
 6734 1c87 1E       		.byte	0x1e
 6735 1c88 4C       		.byte	0x4c
 6736 1c89 B21C0000 		.4byte	0x1cb2
 6737 1c8d 28       		.uleb128 0x28
 6738 1c8e 4D050000 		.4byte	.LASF383
 6739 1c92 00       		.byte	0
 6740 1c93 28       		.uleb128 0x28
 6741 1c94 920C0000 		.4byte	.LASF384
 6742 1c98 01       		.byte	0x1
 6743 1c99 28       		.uleb128 0x28
 6744 1c9a CC050000 		.4byte	.LASF385
 6745 1c9e 02       		.byte	0x2
 6746 1c9f 28       		.uleb128 0x28
 6747 1ca0 D3030000 		.4byte	.LASF386
 6748 1ca4 03       		.byte	0x3
 6749 1ca5 28       		.uleb128 0x28
 6750 1ca6 9D020000 		.4byte	.LASF387
 6751 1caa 04       		.byte	0x4
 6752 1cab 28       		.uleb128 0x28
 6753 1cac 02100000 		.4byte	.LASF388
 6754 1cb0 05       		.byte	0x5
 6755 1cb1 00       		.byte	0
 6756 1cb2 04       		.uleb128 0x4
 6757 1cb3 A30E0000 		.4byte	.LASF389
 6758 1cb7 1E       		.byte	0x1e
 6759 1cb8 53       		.byte	0x53
 6760 1cb9 801C0000 		.4byte	0x1c80
 6761 1cbd 08       		.uleb128 0x8
 6762 1cbe 8A130000 		.4byte	.LASF390
 6763 1cc2 1F       		.byte	0x1f
 6764 1cc3 6A01     		.2byte	0x16a
 6765 1cc5 E9080000 		.4byte	0x8e9
 6766 1cc9 08       		.uleb128 0x8
 6767 1cca 2A030000 		.4byte	.LASF391
 6768 1cce 1F       		.byte	0x1f
 6769 1ccf 6F01     		.2byte	0x16f
 6770 1cd1 04090000 		.4byte	0x904
 6771 1cd5 29       		.uleb128 0x29
ARM GAS  /tmp/ccH4KobB.s 			page 120


 6772 1cd6 07       		.byte	0x7
 6773 1cd7 01       		.byte	0x1
 6774 1cd8 55000000 		.4byte	0x55
 6775 1cdc 1F       		.byte	0x1f
 6776 1cdd 7401     		.2byte	0x174
 6777 1cdf F61C0000 		.4byte	0x1cf6
 6778 1ce3 28       		.uleb128 0x28
 6779 1ce4 E1030000 		.4byte	.LASF392
 6780 1ce8 01       		.byte	0x1
 6781 1ce9 28       		.uleb128 0x28
 6782 1cea 42000000 		.4byte	.LASF393
 6783 1cee 02       		.byte	0x2
 6784 1cef 28       		.uleb128 0x28
 6785 1cf0 C5070000 		.4byte	.LASF394
 6786 1cf4 03       		.byte	0x3
 6787 1cf5 00       		.byte	0
 6788 1cf6 08       		.uleb128 0x8
 6789 1cf7 101E0000 		.4byte	.LASF395
 6790 1cfb 1F       		.byte	0x1f
 6791 1cfc 7801     		.2byte	0x178
 6792 1cfe D51C0000 		.4byte	0x1cd5
 6793 1d02 29       		.uleb128 0x29
 6794 1d03 07       		.byte	0x7
 6795 1d04 01       		.byte	0x1
 6796 1d05 55000000 		.4byte	0x55
 6797 1d09 1F       		.byte	0x1f
 6798 1d0a 7D01     		.2byte	0x17d
 6799 1d0c 231D0000 		.4byte	0x1d23
 6800 1d10 28       		.uleb128 0x28
 6801 1d11 A7040000 		.4byte	.LASF396
 6802 1d15 01       		.byte	0x1
 6803 1d16 28       		.uleb128 0x28
 6804 1d17 A91D0000 		.4byte	.LASF397
 6805 1d1b 02       		.byte	0x2
 6806 1d1c 28       		.uleb128 0x28
 6807 1d1d 69080000 		.4byte	.LASF398
 6808 1d21 03       		.byte	0x3
 6809 1d22 00       		.byte	0
 6810 1d23 08       		.uleb128 0x8
 6811 1d24 89050000 		.4byte	.LASF399
 6812 1d28 1F       		.byte	0x1f
 6813 1d29 8101     		.2byte	0x181
 6814 1d2b 021D0000 		.4byte	0x1d02
 6815 1d2f 1C       		.uleb128 0x1c
 6816 1d30 0C       		.byte	0xc
 6817 1d31 1F       		.byte	0x1f
 6818 1d32 8601     		.2byte	0x186
 6819 1d34 601D0000 		.4byte	0x1d60
 6820 1d38 19       		.uleb128 0x19
 6821 1d39 19050000 		.4byte	.LASF400
 6822 1d3d 1F       		.byte	0x1f
 6823 1d3e 8801     		.2byte	0x188
 6824 1d40 F61C0000 		.4byte	0x1cf6
 6825 1d44 00       		.byte	0
 6826 1d45 19       		.uleb128 0x19
 6827 1d46 F8020000 		.4byte	.LASF401
 6828 1d4a 1F       		.byte	0x1f
ARM GAS  /tmp/ccH4KobB.s 			page 121


 6829 1d4b 8901     		.2byte	0x189
 6830 1d4d 04090000 		.4byte	0x904
 6831 1d51 04       		.byte	0x4
 6832 1d52 19       		.uleb128 0x19
 6833 1d53 D21E0000 		.4byte	.LASF402
 6834 1d57 1F       		.byte	0x1f
 6835 1d58 8C01     		.2byte	0x18c
 6836 1d5a 231D0000 		.4byte	0x1d23
 6837 1d5e 08       		.byte	0x8
 6838 1d5f 00       		.byte	0
 6839 1d60 08       		.uleb128 0x8
 6840 1d61 74010000 		.4byte	.LASF403
 6841 1d65 1F       		.byte	0x1f
 6842 1d66 8E01     		.2byte	0x18e
 6843 1d68 2F1D0000 		.4byte	0x1d2f
 6844 1d6c 10       		.uleb128 0x10
 6845 1d6d 601D0000 		.4byte	0x1d60
 6846 1d71 08       		.uleb128 0x8
 6847 1d72 C9030000 		.4byte	.LASF404
 6848 1d76 1F       		.byte	0x1f
 6849 1d77 9301     		.2byte	0x193
 6850 1d79 7D1D0000 		.4byte	0x1d7d
 6851 1d7d 1B       		.uleb128 0x1b
 6852 1d7e C9030000 		.4byte	.LASF404
 6853 1d82 38       		.byte	0x38
 6854 1d83 1F       		.byte	0x1f
 6855 1d84 9801     		.2byte	0x198
 6856 1d86 1A1E0000 		.4byte	0x1e1a
 6857 1d8a 19       		.uleb128 0x19
 6858 1d8b 6E120000 		.4byte	.LASF372
 6859 1d8f 1F       		.byte	0x1f
 6860 1d90 9C01     		.2byte	0x19c
 6861 1d92 B21C0000 		.4byte	0x1cb2
 6862 1d96 00       		.byte	0
 6863 1d97 19       		.uleb128 0x19
 6864 1d98 18170000 		.4byte	.LASF373
 6865 1d9c 1F       		.byte	0x1f
 6866 1d9d A001     		.2byte	0x1a0
 6867 1d9f 1A1E0000 		.4byte	0x1e1a
 6868 1da3 04       		.byte	0x4
 6869 1da4 19       		.uleb128 0x19
 6870 1da5 E9000000 		.4byte	.LASF405
 6871 1da9 1F       		.byte	0x1f
 6872 1daa A401     		.2byte	0x1a4
 6873 1dac C91C0000 		.4byte	0x1cc9
 6874 1db0 08       		.byte	0x8
 6875 1db1 19       		.uleb128 0x19
 6876 1db2 320B0000 		.4byte	.LASF406
 6877 1db6 1F       		.byte	0x1f
 6878 1db7 A901     		.2byte	0x1a9
 6879 1db9 9E160000 		.4byte	0x169e
 6880 1dbd 0C       		.byte	0xc
 6881 1dbe 19       		.uleb128 0x19
 6882 1dbf A1050000 		.4byte	.LASF407
 6883 1dc3 1F       		.byte	0x1f
 6884 1dc4 B201     		.2byte	0x1b2
 6885 1dc6 AD0A0000 		.4byte	0xaad
ARM GAS  /tmp/ccH4KobB.s 			page 122


 6886 1dca 1C       		.byte	0x1c
 6887 1dcb 19       		.uleb128 0x19
 6888 1dcc 9B0C0000 		.4byte	.LASF408
 6889 1dd0 1F       		.byte	0x1f
 6890 1dd1 B601     		.2byte	0x1b6
 6891 1dd3 BD1C0000 		.4byte	0x1cbd
 6892 1dd7 20       		.byte	0x20
 6893 1dd8 19       		.uleb128 0x19
 6894 1dd9 B5060000 		.4byte	.LASF409
 6895 1ddd 1F       		.byte	0x1f
 6896 1dde BA01     		.2byte	0x1ba
 6897 1de0 04090000 		.4byte	0x904
 6898 1de4 24       		.byte	0x24
 6899 1de5 19       		.uleb128 0x19
 6900 1de6 06070000 		.4byte	.LASF410
 6901 1dea 1F       		.byte	0x1f
 6902 1deb BE01     		.2byte	0x1be
 6903 1ded 04090000 		.4byte	0x904
 6904 1df1 28       		.byte	0x28
 6905 1df2 19       		.uleb128 0x19
 6906 1df3 B2000000 		.4byte	.LASF411
 6907 1df7 1F       		.byte	0x1f
 6908 1df8 C201     		.2byte	0x1c2
 6909 1dfa 201E0000 		.4byte	0x1e20
 6910 1dfe 2C       		.byte	0x2c
 6911 1dff 19       		.uleb128 0x19
 6912 1e00 87010000 		.4byte	.LASF412
 6913 1e04 1F       		.byte	0x1f
 6914 1e05 C601     		.2byte	0x1c6
 6915 1e07 201E0000 		.4byte	0x1e20
 6916 1e0b 30       		.byte	0x30
 6917 1e0c 21       		.uleb128 0x21
 6918 1e0d 69326300 		.ascii	"i2c\000"
 6919 1e11 1F       		.byte	0x1f
 6920 1e12 CA01     		.2byte	0x1ca
 6921 1e14 261E0000 		.4byte	0x1e26
 6922 1e18 34       		.byte	0x34
 6923 1e19 00       		.byte	0
 6924 1e1a 06       		.uleb128 0x6
 6925 1e1b 04       		.byte	0x4
 6926 1e1c 6C1D0000 		.4byte	0x1d6c
 6927 1e20 06       		.uleb128 0x6
 6928 1e21 04       		.byte	0x4
 6929 1e22 DB180000 		.4byte	0x18db
 6930 1e26 06       		.uleb128 0x6
 6931 1e27 04       		.byte	0x4
 6932 1e28 62100000 		.4byte	0x1062
 6933 1e2c 20       		.uleb128 0x20
 6934 1e2d 090F0000 		.4byte	.LASF413
 6935 1e31 1F       		.byte	0x1f
 6936 1e32 E401     		.2byte	0x1e4
 6937 1e34 711D0000 		.4byte	0x1d71
 6938 1e38 27       		.uleb128 0x27
 6939 1e39 07       		.byte	0x7
 6940 1e3a 01       		.byte	0x1
 6941 1e3b 55000000 		.4byte	0x55
 6942 1e3f 20       		.byte	0x20
ARM GAS  /tmp/ccH4KobB.s 			page 123


 6943 1e40 31       		.byte	0x31
 6944 1e41 641E0000 		.4byte	0x1e64
 6945 1e45 28       		.uleb128 0x28
 6946 1e46 3C1D0000 		.4byte	.LASF414
 6947 1e4a 00       		.byte	0
 6948 1e4b 28       		.uleb128 0x28
 6949 1e4c 74180000 		.4byte	.LASF415
 6950 1e50 01       		.byte	0x1
 6951 1e51 28       		.uleb128 0x28
 6952 1e52 23040000 		.4byte	.LASF416
 6953 1e56 02       		.byte	0x2
 6954 1e57 28       		.uleb128 0x28
 6955 1e58 BB100000 		.4byte	.LASF417
 6956 1e5c 03       		.byte	0x3
 6957 1e5d 28       		.uleb128 0x28
 6958 1e5e 11010000 		.4byte	.LASF418
 6959 1e62 04       		.byte	0x4
 6960 1e63 00       		.byte	0
 6961 1e64 04       		.uleb128 0x4
 6962 1e65 3C1A0000 		.4byte	.LASF419
 6963 1e69 20       		.byte	0x20
 6964 1e6a 37       		.byte	0x37
 6965 1e6b 381E0000 		.4byte	0x1e38
 6966 1e6f 04       		.uleb128 0x4
 6967 1e70 0E150000 		.4byte	.LASF420
 6968 1e74 20       		.byte	0x20
 6969 1e75 3C       		.byte	0x3c
 6970 1e76 7A1E0000 		.4byte	0x1e7a
 6971 1e7a 1B       		.uleb128 0x1b
 6972 1e7b 0E150000 		.4byte	.LASF420
 6973 1e7f 18       		.byte	0x18
 6974 1e80 21       		.byte	0x21
 6975 1e81 3101     		.2byte	0x131
 6976 1e83 D61E0000 		.4byte	0x1ed6
 6977 1e87 19       		.uleb128 0x19
 6978 1e88 6E120000 		.4byte	.LASF372
 6979 1e8c 21       		.byte	0x21
 6980 1e8d 3501     		.2byte	0x135
 6981 1e8f 641E0000 		.4byte	0x1e64
 6982 1e93 00       		.byte	0
 6983 1e94 19       		.uleb128 0x19
 6984 1e95 18170000 		.4byte	.LASF373
 6985 1e99 21       		.byte	0x21
 6986 1e9a 3901     		.2byte	0x139
 6987 1e9c DB200000 		.4byte	0x20db
 6988 1ea0 04       		.byte	0x4
 6989 1ea1 19       		.uleb128 0x19
 6990 1ea2 470B0000 		.4byte	.LASF421
 6991 1ea6 21       		.byte	0x21
 6992 1ea7 4101     		.2byte	0x141
 6993 1ea9 04090000 		.4byte	0x904
 6994 1ead 08       		.byte	0x8
 6995 1eae 21       		.uleb128 0x21
 6996 1eaf 74696D00 		.ascii	"tim\000"
 6997 1eb3 21       		.byte	0x21
 6998 1eb4 4501     		.2byte	0x145
 6999 1eb6 E1200000 		.4byte	0x20e1
ARM GAS  /tmp/ccH4KobB.s 			page 124


 7000 1eba 0C       		.byte	0xc
 7001 1ebb 19       		.uleb128 0x19
 7002 1ebc 2A180000 		.4byte	.LASF422
 7003 1ec0 21       		.byte	0x21
 7004 1ec1 4901     		.2byte	0x149
 7005 1ec3 CA180000 		.4byte	0x18ca
 7006 1ec7 10       		.byte	0x10
 7007 1ec8 19       		.uleb128 0x19
 7008 1ec9 46040000 		.4byte	.LASF423
 7009 1ecd 21       		.byte	0x21
 7010 1ece 4D01     		.2byte	0x14d
 7011 1ed0 CA180000 		.4byte	0x18ca
 7012 1ed4 14       		.byte	0x14
 7013 1ed5 00       		.byte	0
 7014 1ed6 04       		.uleb128 0x4
 7015 1ed7 DE150000 		.4byte	.LASF424
 7016 1edb 20       		.byte	0x20
 7017 1edc 43       		.byte	0x43
 7018 1edd E11E0000 		.4byte	0x1ee1
 7019 1ee1 06       		.uleb128 0x6
 7020 1ee2 04       		.byte	0x4
 7021 1ee3 E71E0000 		.4byte	0x1ee7
 7022 1ee7 1F       		.uleb128 0x1f
 7023 1ee8 F21E0000 		.4byte	0x1ef2
 7024 1eec 17       		.uleb128 0x17
 7025 1eed F21E0000 		.4byte	0x1ef2
 7026 1ef1 00       		.byte	0
 7027 1ef2 06       		.uleb128 0x6
 7028 1ef3 04       		.byte	0x4
 7029 1ef4 6F1E0000 		.4byte	0x1e6f
 7030 1ef8 1C       		.uleb128 0x1c
 7031 1ef9 60       		.byte	0x60
 7032 1efa 22       		.byte	0x22
 7033 1efb 9E01     		.2byte	0x19e
 7034 1efd 04200000 		.4byte	0x2004
 7035 1f01 21       		.uleb128 0x21
 7036 1f02 43523100 		.ascii	"CR1\000"
 7037 1f06 22       		.byte	0x22
 7038 1f07 9F01     		.2byte	0x19f
 7039 1f09 0F090000 		.4byte	0x90f
 7040 1f0d 00       		.byte	0
 7041 1f0e 21       		.uleb128 0x21
 7042 1f0f 43523200 		.ascii	"CR2\000"
 7043 1f13 22       		.byte	0x22
 7044 1f14 A001     		.2byte	0x1a0
 7045 1f16 0F090000 		.4byte	0x90f
 7046 1f1a 04       		.byte	0x4
 7047 1f1b 19       		.uleb128 0x19
 7048 1f1c 5B1A0000 		.4byte	.LASF425
 7049 1f20 22       		.byte	0x22
 7050 1f21 A101     		.2byte	0x1a1
 7051 1f23 0F090000 		.4byte	0x90f
 7052 1f27 08       		.byte	0x8
 7053 1f28 19       		.uleb128 0x19
 7054 1f29 2C080000 		.4byte	.LASF426
 7055 1f2d 22       		.byte	0x22
 7056 1f2e A201     		.2byte	0x1a2
ARM GAS  /tmp/ccH4KobB.s 			page 125


 7057 1f30 0F090000 		.4byte	0x90f
 7058 1f34 0C       		.byte	0xc
 7059 1f35 21       		.uleb128 0x21
 7060 1f36 535200   		.ascii	"SR\000"
 7061 1f39 22       		.byte	0x22
 7062 1f3a A301     		.2byte	0x1a3
 7063 1f3c 0F090000 		.4byte	0x90f
 7064 1f40 10       		.byte	0x10
 7065 1f41 21       		.uleb128 0x21
 7066 1f42 45475200 		.ascii	"EGR\000"
 7067 1f46 22       		.byte	0x22
 7068 1f47 A401     		.2byte	0x1a4
 7069 1f49 0F090000 		.4byte	0x90f
 7070 1f4d 14       		.byte	0x14
 7071 1f4e 19       		.uleb128 0x19
 7072 1f4f CE1D0000 		.4byte	.LASF427
 7073 1f53 22       		.byte	0x22
 7074 1f54 A501     		.2byte	0x1a5
 7075 1f56 0F090000 		.4byte	0x90f
 7076 1f5a 18       		.byte	0x18
 7077 1f5b 19       		.uleb128 0x19
 7078 1f5c D41D0000 		.4byte	.LASF428
 7079 1f60 22       		.byte	0x22
 7080 1f61 A601     		.2byte	0x1a6
 7081 1f63 0F090000 		.4byte	0x90f
 7082 1f67 1C       		.byte	0x1c
 7083 1f68 19       		.uleb128 0x19
 7084 1f69 E0050000 		.4byte	.LASF429
 7085 1f6d 22       		.byte	0x22
 7086 1f6e A701     		.2byte	0x1a7
 7087 1f70 0F090000 		.4byte	0x90f
 7088 1f74 20       		.byte	0x20
 7089 1f75 21       		.uleb128 0x21
 7090 1f76 434E5400 		.ascii	"CNT\000"
 7091 1f7a 22       		.byte	0x22
 7092 1f7b A801     		.2byte	0x1a8
 7093 1f7d 0F090000 		.4byte	0x90f
 7094 1f81 24       		.byte	0x24
 7095 1f82 21       		.uleb128 0x21
 7096 1f83 50534300 		.ascii	"PSC\000"
 7097 1f87 22       		.byte	0x22
 7098 1f88 A901     		.2byte	0x1a9
 7099 1f8a 0F090000 		.4byte	0x90f
 7100 1f8e 28       		.byte	0x28
 7101 1f8f 21       		.uleb128 0x21
 7102 1f90 41525200 		.ascii	"ARR\000"
 7103 1f94 22       		.byte	0x22
 7104 1f95 AA01     		.2byte	0x1aa
 7105 1f97 0F090000 		.4byte	0x90f
 7106 1f9b 2C       		.byte	0x2c
 7107 1f9c 21       		.uleb128 0x21
 7108 1f9d 52435200 		.ascii	"RCR\000"
 7109 1fa1 22       		.byte	0x22
 7110 1fa2 AB01     		.2byte	0x1ab
 7111 1fa4 0F090000 		.4byte	0x90f
 7112 1fa8 30       		.byte	0x30
 7113 1fa9 21       		.uleb128 0x21
ARM GAS  /tmp/ccH4KobB.s 			page 126


 7114 1faa 43435200 		.ascii	"CCR\000"
 7115 1fae 22       		.byte	0x22
 7116 1faf AC01     		.2byte	0x1ac
 7117 1fb1 D20F0000 		.4byte	0xfd2
 7118 1fb5 34       		.byte	0x34
 7119 1fb6 19       		.uleb128 0x19
 7120 1fb7 5D010000 		.4byte	.LASF430
 7121 1fbb 22       		.byte	0x22
 7122 1fbc AD01     		.2byte	0x1ad
 7123 1fbe 0F090000 		.4byte	0x90f
 7124 1fc2 44       		.byte	0x44
 7125 1fc3 21       		.uleb128 0x21
 7126 1fc4 44435200 		.ascii	"DCR\000"
 7127 1fc8 22       		.byte	0x22
 7128 1fc9 AE01     		.2byte	0x1ae
 7129 1fcb 0F090000 		.4byte	0x90f
 7130 1fcf 48       		.byte	0x48
 7131 1fd0 19       		.uleb128 0x19
 7132 1fd1 B6120000 		.4byte	.LASF431
 7133 1fd5 22       		.byte	0x22
 7134 1fd6 AF01     		.2byte	0x1af
 7135 1fd8 0F090000 		.4byte	0x90f
 7136 1fdc 4C       		.byte	0x4c
 7137 1fdd 21       		.uleb128 0x21
 7138 1fde 4F5200   		.ascii	"OR\000"
 7139 1fe1 22       		.byte	0x22
 7140 1fe2 B001     		.2byte	0x1b0
 7141 1fe4 0F090000 		.4byte	0x90f
 7142 1fe8 50       		.byte	0x50
 7143 1fe9 19       		.uleb128 0x19
 7144 1fea DA1D0000 		.4byte	.LASF432
 7145 1fee 22       		.byte	0x22
 7146 1fef B101     		.2byte	0x1b1
 7147 1ff1 0F090000 		.4byte	0x90f
 7148 1ff5 54       		.byte	0x54
 7149 1ff6 19       		.uleb128 0x19
 7150 1ff7 530B0000 		.4byte	.LASF433
 7151 1ffb 22       		.byte	0x22
 7152 1ffc B201     		.2byte	0x1b2
 7153 1ffe BD0F0000 		.4byte	0xfbd
 7154 2002 58       		.byte	0x58
 7155 2003 00       		.byte	0
 7156 2004 08       		.uleb128 0x8
 7157 2005 72190000 		.4byte	.LASF434
 7158 2009 22       		.byte	0x22
 7159 200a B301     		.2byte	0x1b3
 7160 200c F81E0000 		.4byte	0x1ef8
 7161 2010 27       		.uleb128 0x27
 7162 2011 07       		.byte	0x7
 7163 2012 01       		.byte	0x1
 7164 2013 55000000 		.4byte	0x55
 7165 2017 21       		.byte	0x21
 7166 2018 EE       		.byte	0xee
 7167 2019 2A200000 		.4byte	0x202a
 7168 201d 28       		.uleb128 0x28
 7169 201e DE060000 		.4byte	.LASF435
 7170 2022 00       		.byte	0
ARM GAS  /tmp/ccH4KobB.s 			page 127


 7171 2023 28       		.uleb128 0x28
 7172 2024 37160000 		.4byte	.LASF436
 7173 2028 01       		.byte	0x1
 7174 2029 00       		.byte	0
 7175 202a 04       		.uleb128 0x4
 7176 202b 561C0000 		.4byte	.LASF437
 7177 202f 21       		.byte	0x21
 7178 2030 F1       		.byte	0xf1
 7179 2031 10200000 		.4byte	0x2010
 7180 2035 04       		.uleb128 0x4
 7181 2036 6C160000 		.4byte	.LASF438
 7182 203a 21       		.byte	0x21
 7183 203b F6       		.byte	0xf6
 7184 203c 04090000 		.4byte	0x904
 7185 2040 27       		.uleb128 0x27
 7186 2041 07       		.byte	0x7
 7187 2042 01       		.byte	0x1
 7188 2043 55000000 		.4byte	0x55
 7189 2047 21       		.byte	0x21
 7190 2048 FB       		.byte	0xfb
 7191 2049 5A200000 		.4byte	0x205a
 7192 204d 28       		.uleb128 0x28
 7193 204e B3150000 		.4byte	.LASF439
 7194 2052 00       		.byte	0
 7195 2053 28       		.uleb128 0x28
 7196 2054 A6190000 		.4byte	.LASF440
 7197 2058 01       		.byte	0x1
 7198 2059 00       		.byte	0
 7199 205a 04       		.uleb128 0x4
 7200 205b D3040000 		.4byte	.LASF441
 7201 205f 21       		.byte	0x21
 7202 2060 FE       		.byte	0xfe
 7203 2061 40200000 		.4byte	0x2040
 7204 2065 1C       		.uleb128 0x1c
 7205 2066 1C       		.byte	0x1c
 7206 2067 21       		.byte	0x21
 7207 2068 0901     		.2byte	0x109
 7208 206a CA200000 		.4byte	0x20ca
 7209 206e 19       		.uleb128 0x19
 7210 206f C9060000 		.4byte	.LASF442
 7211 2073 21       		.byte	0x21
 7212 2074 0D01     		.2byte	0x10d
 7213 2076 2A200000 		.4byte	0x202a
 7214 207a 00       		.byte	0
 7215 207b 19       		.uleb128 0x19
 7216 207c 6B1D0000 		.4byte	.LASF443
 7217 2080 21       		.byte	0x21
 7218 2081 1301     		.2byte	0x113
 7219 2083 35200000 		.4byte	0x2035
 7220 2087 04       		.byte	0x4
 7221 2088 19       		.uleb128 0x19
 7222 2089 0D100000 		.4byte	.LASF444
 7223 208d 21       		.byte	0x21
 7224 208e 1701     		.2byte	0x117
 7225 2090 D61E0000 		.4byte	0x1ed6
 7226 2094 08       		.byte	0x8
 7227 2095 19       		.uleb128 0x19
ARM GAS  /tmp/ccH4KobB.s 			page 128


 7228 2096 990E0000 		.4byte	.LASF445
 7229 209a 21       		.byte	0x21
 7230 209b 1B01     		.2byte	0x11b
 7231 209d D61E0000 		.4byte	0x1ed6
 7232 20a1 0C       		.byte	0xc
 7233 20a2 19       		.uleb128 0x19
 7234 20a3 9B080000 		.4byte	.LASF446
 7235 20a7 21       		.byte	0x21
 7236 20a8 1F01     		.2byte	0x11f
 7237 20aa D61E0000 		.4byte	0x1ed6
 7238 20ae 10       		.byte	0x10
 7239 20af 19       		.uleb128 0x19
 7240 20b0 330F0000 		.4byte	.LASF447
 7241 20b4 21       		.byte	0x21
 7242 20b5 2501     		.2byte	0x125
 7243 20b7 5A200000 		.4byte	0x205a
 7244 20bb 14       		.byte	0x14
 7245 20bc 19       		.uleb128 0x19
 7246 20bd FE0A0000 		.4byte	.LASF448
 7247 20c1 21       		.byte	0x21
 7248 20c2 2B01     		.2byte	0x12b
 7249 20c4 04090000 		.4byte	0x904
 7250 20c8 18       		.byte	0x18
 7251 20c9 00       		.byte	0
 7252 20ca 08       		.uleb128 0x8
 7253 20cb 18150000 		.4byte	.LASF449
 7254 20cf 21       		.byte	0x21
 7255 20d0 2C01     		.2byte	0x12c
 7256 20d2 65200000 		.4byte	0x2065
 7257 20d6 10       		.uleb128 0x10
 7258 20d7 CA200000 		.4byte	0x20ca
 7259 20db 06       		.uleb128 0x6
 7260 20dc 04       		.byte	0x4
 7261 20dd D6200000 		.4byte	0x20d6
 7262 20e1 06       		.uleb128 0x6
 7263 20e2 04       		.byte	0x4
 7264 20e3 04200000 		.4byte	0x2004
 7265 20e7 20       		.uleb128 0x20
 7266 20e8 FB0C0000 		.4byte	.LASF450
 7267 20ec 21       		.byte	0x21
 7268 20ed 8A01     		.2byte	0x18a
 7269 20ef 6F1E0000 		.4byte	0x1e6f
 7270 20f3 27       		.uleb128 0x27
 7271 20f4 07       		.byte	0x7
 7272 20f5 01       		.byte	0x1
 7273 20f6 55000000 		.4byte	0x55
 7274 20fa 23       		.byte	0x23
 7275 20fb 55       		.byte	0x55
 7276 20fc 13210000 		.4byte	0x2113
 7277 2100 28       		.uleb128 0x28
 7278 2101 58050000 		.4byte	.LASF451
 7279 2105 00       		.byte	0
 7280 2106 28       		.uleb128 0x28
 7281 2107 720B0000 		.4byte	.LASF452
 7282 210b 01       		.byte	0x1
 7283 210c 28       		.uleb128 0x28
 7284 210d 2A1F0000 		.4byte	.LASF453
ARM GAS  /tmp/ccH4KobB.s 			page 129


 7285 2111 02       		.byte	0x2
 7286 2112 00       		.byte	0
 7287 2113 04       		.uleb128 0x4
 7288 2114 22140000 		.4byte	.LASF454
 7289 2118 23       		.byte	0x23
 7290 2119 59       		.byte	0x59
 7291 211a F3200000 		.4byte	0x20f3
 7292 211e 04       		.uleb128 0x4
 7293 211f 421B0000 		.4byte	.LASF455
 7294 2123 23       		.byte	0x23
 7295 2124 5E       		.byte	0x5e
 7296 2125 29210000 		.4byte	0x2129
 7297 2129 13       		.uleb128 0x13
 7298 212a 421B0000 		.4byte	.LASF455
 7299 212e 5801     		.2byte	0x158
 7300 2130 23       		.byte	0x23
 7301 2131 78       		.byte	0x78
 7302 2132 96210000 		.4byte	0x2196
 7303 2136 12       		.uleb128 0x12
 7304 2137 766D7400 		.ascii	"vmt\000"
 7305 213b 23       		.byte	0x23
 7306 213c 7A       		.byte	0x7a
 7307 213d 2C220000 		.4byte	0x222c
 7308 2141 00       		.byte	0
 7309 2142 0E       		.uleb128 0xe
 7310 2143 20000000 		.4byte	.LASF456
 7311 2147 23       		.byte	0x23
 7312 2148 7B       		.byte	0x7b
 7313 2149 22170000 		.4byte	0x1722
 7314 214d 04       		.byte	0x4
 7315 214e 0E       		.uleb128 0xe
 7316 214f 6E120000 		.4byte	.LASF372
 7317 2153 23       		.byte	0x23
 7318 2154 7B       		.byte	0x7b
 7319 2155 13210000 		.4byte	0x2113
 7320 2159 08       		.byte	0x8
 7321 215a 0E       		.uleb128 0xe
 7322 215b 08140000 		.4byte	.LASF457
 7323 215f 23       		.byte	0x23
 7324 2160 7B       		.byte	0x7b
 7325 2161 CD170000 		.4byte	0x17cd
 7326 2165 0C       		.byte	0xc
 7327 2166 0E       		.uleb128 0xe
 7328 2167 450F0000 		.4byte	.LASF458
 7329 216b 23       		.byte	0x23
 7330 216c 7B       		.byte	0x7b
 7331 216d D8170000 		.4byte	0x17d8
 7332 2171 30       		.byte	0x30
 7333 2172 12       		.uleb128 0x12
 7334 2173 696200   		.ascii	"ib\000"
 7335 2176 23       		.byte	0x23
 7336 2177 7B       		.byte	0x7b
 7337 2178 32220000 		.4byte	0x2232
 7338 217c 54       		.byte	0x54
 7339 217d 12       		.uleb128 0x12
 7340 217e 6F6200   		.ascii	"ob\000"
 7341 2181 23       		.byte	0x23
ARM GAS  /tmp/ccH4KobB.s 			page 130


 7342 2182 7B       		.byte	0x7b
 7343 2183 32220000 		.4byte	0x2232
 7344 2187 D4       		.byte	0xd4
 7345 2188 14       		.uleb128 0x14
 7346 2189 97150000 		.4byte	.LASF459
 7347 218d 23       		.byte	0x23
 7348 218e 7B       		.byte	0x7b
 7349 218f 42220000 		.4byte	0x2242
 7350 2193 5401     		.2byte	0x154
 7351 2195 00       		.byte	0
 7352 2196 25       		.uleb128 0x25
 7353 2197 53443300 		.ascii	"SD3\000"
 7354 219b 24       		.byte	0x24
 7355 219c 1501     		.2byte	0x115
 7356 219e 1E210000 		.4byte	0x211e
 7357 21a2 25       		.uleb128 0x25
 7358 21a3 53443400 		.ascii	"SD4\000"
 7359 21a7 24       		.byte	0x24
 7360 21a8 1801     		.2byte	0x118
 7361 21aa 1E210000 		.4byte	0x211e
 7362 21ae 25       		.uleb128 0x25
 7363 21af 53443600 		.ascii	"SD6\000"
 7364 21b3 24       		.byte	0x24
 7365 21b4 1E01     		.2byte	0x11e
 7366 21b6 1E210000 		.4byte	0x211e
 7367 21ba 11       		.uleb128 0x11
 7368 21bb 190D0000 		.4byte	.LASF460
 7369 21bf 20       		.byte	0x20
 7370 21c0 23       		.byte	0x23
 7371 21c1 6D       		.byte	0x6d
 7372 21c2 27220000 		.4byte	0x2227
 7373 21c6 0E       		.uleb128 0xe
 7374 21c7 F7130000 		.4byte	.LASF461
 7375 21cb 23       		.byte	0x23
 7376 21cc 6E       		.byte	0x6e
 7377 21cd 02180000 		.4byte	0x1802
 7378 21d1 00       		.byte	0
 7379 21d2 0E       		.uleb128 0xe
 7380 21d3 52010000 		.4byte	.LASF462
 7381 21d7 23       		.byte	0x23
 7382 21d8 6E       		.byte	0x6e
 7383 21d9 21180000 		.4byte	0x1821
 7384 21dd 04       		.byte	0x4
 7385 21de 12       		.uleb128 0x12
 7386 21df 70757400 		.ascii	"put\000"
 7387 21e3 23       		.byte	0x23
 7388 21e4 6E       		.byte	0x6e
 7389 21e5 3B180000 		.4byte	0x183b
 7390 21e9 08       		.byte	0x8
 7391 21ea 12       		.uleb128 0x12
 7392 21eb 67657400 		.ascii	"get\000"
 7393 21ef 23       		.byte	0x23
 7394 21f0 6E       		.byte	0x6e
 7395 21f1 50180000 		.4byte	0x1850
 7396 21f5 0C       		.byte	0xc
 7397 21f6 0E       		.uleb128 0xe
 7398 21f7 E3100000 		.4byte	.LASF463
ARM GAS  /tmp/ccH4KobB.s 			page 131


 7399 21fb 23       		.byte	0x23
 7400 21fc 6E       		.byte	0x6e
 7401 21fd 1A190000 		.4byte	0x191a
 7402 2201 10       		.byte	0x10
 7403 2202 0E       		.uleb128 0xe
 7404 2203 DD130000 		.4byte	.LASF464
 7405 2207 23       		.byte	0x23
 7406 2208 6E       		.byte	0x6e
 7407 2209 34190000 		.4byte	0x1934
 7408 220d 14       		.byte	0x14
 7409 220e 0E       		.uleb128 0xe
 7410 220f 011C0000 		.4byte	.LASF465
 7411 2213 23       		.byte	0x23
 7412 2214 6E       		.byte	0x6e
 7413 2215 58190000 		.4byte	0x1958
 7414 2219 18       		.byte	0x18
 7415 221a 0E       		.uleb128 0xe
 7416 221b 20100000 		.4byte	.LASF466
 7417 221f 23       		.byte	0x23
 7418 2220 6E       		.byte	0x6e
 7419 2221 7C190000 		.4byte	0x197c
 7420 2225 1C       		.byte	0x1c
 7421 2226 00       		.byte	0
 7422 2227 10       		.uleb128 0x10
 7423 2228 BA210000 		.4byte	0x21ba
 7424 222c 06       		.uleb128 0x6
 7425 222d 04       		.byte	0x4
 7426 222e 27220000 		.4byte	0x2227
 7427 2232 0B       		.uleb128 0xb
 7428 2233 D9080000 		.4byte	0x8d9
 7429 2237 42220000 		.4byte	0x2242
 7430 223b 0C       		.uleb128 0xc
 7431 223c 25000000 		.4byte	0x25
 7432 2240 7F       		.byte	0x7f
 7433 2241 00       		.byte	0
 7434 2242 06       		.uleb128 0x6
 7435 2243 04       		.byte	0x4
 7436 2244 F5120000 		.4byte	0x12f5
 7437 2248 27       		.uleb128 0x27
 7438 2249 07       		.byte	0x7
 7439 224a 01       		.byte	0x1
 7440 224b 55000000 		.4byte	0x55
 7441 224f 25       		.byte	0x25
 7442 2250 46       		.byte	0x46
 7443 2251 74220000 		.4byte	0x2274
 7444 2255 28       		.uleb128 0x28
 7445 2256 B9050000 		.4byte	.LASF467
 7446 225a 00       		.byte	0
 7447 225b 28       		.uleb128 0x28
 7448 225c 36020000 		.4byte	.LASF468
 7449 2260 01       		.byte	0x1
 7450 2261 28       		.uleb128 0x28
 7451 2262 B01C0000 		.4byte	.LASF469
 7452 2266 02       		.byte	0x2
 7453 2267 28       		.uleb128 0x28
 7454 2268 E50E0000 		.4byte	.LASF470
 7455 226c 03       		.byte	0x3
ARM GAS  /tmp/ccH4KobB.s 			page 132


 7456 226d 28       		.uleb128 0x28
 7457 226e 40100000 		.4byte	.LASF471
 7458 2272 04       		.byte	0x4
 7459 2273 00       		.byte	0
 7460 2274 04       		.uleb128 0x4
 7461 2275 8B020000 		.4byte	.LASF472
 7462 2279 25       		.byte	0x25
 7463 227a 4C       		.byte	0x4c
 7464 227b 48220000 		.4byte	0x2248
 7465 227f 08       		.uleb128 0x8
 7466 2280 D91B0000 		.4byte	.LASF473
 7467 2284 26       		.byte	0x26
 7468 2285 9601     		.2byte	0x196
 7469 2287 8B220000 		.4byte	0x228b
 7470 228b 1B       		.uleb128 0x1b
 7471 228c D91B0000 		.4byte	.LASF473
 7472 2290 30       		.byte	0x30
 7473 2291 26       		.byte	0x26
 7474 2292 BA01     		.2byte	0x1ba
 7475 2294 0E230000 		.4byte	0x230e
 7476 2298 19       		.uleb128 0x19
 7477 2299 6E120000 		.4byte	.LASF372
 7478 229d 26       		.byte	0x26
 7479 229e BE01     		.2byte	0x1be
 7480 22a0 74220000 		.4byte	0x2274
 7481 22a4 00       		.byte	0
 7482 22a5 19       		.uleb128 0x19
 7483 22a6 18170000 		.4byte	.LASF373
 7484 22aa 26       		.byte	0x26
 7485 22ab C201     		.2byte	0x1c2
 7486 22ad 80230000 		.4byte	0x2380
 7487 22b1 04       		.byte	0x4
 7488 22b2 19       		.uleb128 0x19
 7489 22b3 A1050000 		.4byte	.LASF407
 7490 22b7 26       		.byte	0x26
 7491 22b8 C701     		.2byte	0x1c7
 7492 22ba AD0A0000 		.4byte	0xaad
 7493 22be 08       		.byte	0x8
 7494 22bf 19       		.uleb128 0x19
 7495 22c0 320B0000 		.4byte	.LASF406
 7496 22c4 26       		.byte	0x26
 7497 22c5 CD01     		.2byte	0x1cd
 7498 22c7 9E160000 		.4byte	0x169e
 7499 22cb 0C       		.byte	0xc
 7500 22cc 21       		.uleb128 0x21
 7501 22cd 73706900 		.ascii	"spi\000"
 7502 22d1 26       		.byte	0x26
 7503 22d2 D601     		.2byte	0x1d6
 7504 22d4 86230000 		.4byte	0x2386
 7505 22d8 1C       		.byte	0x1c
 7506 22d9 19       		.uleb128 0x19
 7507 22da B2000000 		.4byte	.LASF411
 7508 22de 26       		.byte	0x26
 7509 22df DA01     		.2byte	0x1da
 7510 22e1 201E0000 		.4byte	0x1e20
 7511 22e5 20       		.byte	0x20
 7512 22e6 19       		.uleb128 0x19
ARM GAS  /tmp/ccH4KobB.s 			page 133


 7513 22e7 87010000 		.4byte	.LASF412
 7514 22eb 26       		.byte	0x26
 7515 22ec DE01     		.2byte	0x1de
 7516 22ee 201E0000 		.4byte	0x1e20
 7517 22f2 24       		.byte	0x24
 7518 22f3 19       		.uleb128 0x19
 7519 22f4 B5060000 		.4byte	.LASF409
 7520 22f8 26       		.byte	0x26
 7521 22f9 E201     		.2byte	0x1e2
 7522 22fb 04090000 		.4byte	0x904
 7523 22ff 28       		.byte	0x28
 7524 2300 19       		.uleb128 0x19
 7525 2301 06070000 		.4byte	.LASF410
 7526 2305 26       		.byte	0x26
 7527 2306 E601     		.2byte	0x1e6
 7528 2308 04090000 		.4byte	0x904
 7529 230c 2C       		.byte	0x2c
 7530 230d 00       		.byte	0
 7531 230e 08       		.uleb128 0x8
 7532 230f F0000000 		.4byte	.LASF474
 7533 2313 26       		.byte	0x26
 7534 2314 9E01     		.2byte	0x19e
 7535 2316 1A230000 		.4byte	0x231a
 7536 231a 06       		.uleb128 0x6
 7537 231b 04       		.byte	0x4
 7538 231c 20230000 		.4byte	0x2320
 7539 2320 1F       		.uleb128 0x1f
 7540 2321 2B230000 		.4byte	0x232b
 7541 2325 17       		.uleb128 0x17
 7542 2326 2B230000 		.4byte	0x232b
 7543 232a 00       		.byte	0
 7544 232b 06       		.uleb128 0x6
 7545 232c 04       		.byte	0x4
 7546 232d 7F220000 		.4byte	0x227f
 7547 2331 1C       		.uleb128 0x1c
 7548 2332 0C       		.byte	0xc
 7549 2333 26       		.byte	0x26
 7550 2334 A301     		.2byte	0x1a3
 7551 2336 6F230000 		.4byte	0x236f
 7552 233a 19       		.uleb128 0x19
 7553 233b 6B070000 		.4byte	.LASF475
 7554 233f 26       		.byte	0x26
 7555 2340 A701     		.2byte	0x1a7
 7556 2342 0E230000 		.4byte	0x230e
 7557 2346 00       		.byte	0
 7558 2347 19       		.uleb128 0x19
 7559 2348 351D0000 		.4byte	.LASF476
 7560 234c 26       		.byte	0x26
 7561 234d AC01     		.2byte	0x1ac
 7562 234f 481B0000 		.4byte	0x1b48
 7563 2353 04       		.byte	0x4
 7564 2354 19       		.uleb128 0x19
 7565 2355 00070000 		.4byte	.LASF477
 7566 2359 26       		.byte	0x26
 7567 235a B001     		.2byte	0x1b0
 7568 235c E9080000 		.4byte	0x8e9
 7569 2360 08       		.byte	0x8
ARM GAS  /tmp/ccH4KobB.s 			page 134


 7570 2361 21       		.uleb128 0x21
 7571 2362 63723100 		.ascii	"cr1\000"
 7572 2366 26       		.byte	0x26
 7573 2367 B401     		.2byte	0x1b4
 7574 2369 E9080000 		.4byte	0x8e9
 7575 236d 0A       		.byte	0xa
 7576 236e 00       		.byte	0
 7577 236f 08       		.uleb128 0x8
 7578 2370 E31A0000 		.4byte	.LASF478
 7579 2374 26       		.byte	0x26
 7580 2375 B501     		.2byte	0x1b5
 7581 2377 31230000 		.4byte	0x2331
 7582 237b 10       		.uleb128 0x10
 7583 237c 6F230000 		.4byte	0x236f
 7584 2380 06       		.uleb128 0x6
 7585 2381 04       		.byte	0x4
 7586 2382 7B230000 		.4byte	0x237b
 7587 2386 06       		.uleb128 0x6
 7588 2387 04       		.byte	0x4
 7589 2388 86120000 		.4byte	0x1286
 7590 238c 20       		.uleb128 0x20
 7591 238d EF190000 		.4byte	.LASF479
 7592 2391 26       		.byte	0x26
 7593 2392 F201     		.2byte	0x1f2
 7594 2394 7F220000 		.4byte	0x227f
 7595 2398 04       		.uleb128 0x4
 7596 2399 0F0F0000 		.4byte	.LASF480
 7597 239d 27       		.byte	0x27
 7598 239e FA       		.byte	0xfa
 7599 239f A3230000 		.4byte	0x23a3
 7600 23a3 18       		.uleb128 0x18
 7601 23a4 0F0F0000 		.4byte	.LASF480
 7602 23a8 8002     		.2byte	0x280
 7603 23aa 28       		.byte	0x28
 7604 23ab 7701     		.2byte	0x177
 7605 23ad CF240000 		.4byte	0x24cf
 7606 23b1 19       		.uleb128 0x19
 7607 23b2 6E120000 		.4byte	.LASF372
 7608 23b6 28       		.byte	0x28
 7609 23b7 7B01     		.2byte	0x17b
 7610 23b9 07250000 		.4byte	0x2507
 7611 23bd 00       		.byte	0
 7612 23be 19       		.uleb128 0x19
 7613 23bf 18170000 		.4byte	.LASF373
 7614 23c3 28       		.byte	0x28
 7615 23c4 7F01     		.2byte	0x17f
 7616 23c6 572E0000 		.4byte	0x2e57
 7617 23ca 04       		.byte	0x4
 7618 23cb 19       		.uleb128 0x19
 7619 23cc 0C1B0000 		.4byte	.LASF481
 7620 23d0 28       		.byte	0x28
 7621 23d1 8301     		.2byte	0x183
 7622 23d3 E9080000 		.4byte	0x8e9
 7623 23d7 08       		.byte	0x8
 7624 23d8 19       		.uleb128 0x19
 7625 23d9 5A1D0000 		.4byte	.LASF482
 7626 23dd 28       		.byte	0x28
ARM GAS  /tmp/ccH4KobB.s 			page 135


 7627 23de 8701     		.2byte	0x187
 7628 23e0 E9080000 		.4byte	0x8e9
 7629 23e4 0A       		.byte	0xa
 7630 23e5 21       		.uleb128 0x21
 7631 23e6 65706300 		.ascii	"epc\000"
 7632 23ea 28       		.byte	0x28
 7633 23eb 8B01     		.2byte	0x18b
 7634 23ed 5D2E0000 		.4byte	0x2e5d
 7635 23f1 0C       		.byte	0xc
 7636 23f2 19       		.uleb128 0x19
 7637 23f3 B8010000 		.4byte	.LASF483
 7638 23f7 28       		.byte	0x28
 7639 23f8 9201     		.2byte	0x192
 7640 23fa 732E0000 		.4byte	0x2e73
 7641 23fe 1C       		.byte	0x1c
 7642 23ff 19       		.uleb128 0x19
 7643 2400 D20A0000 		.4byte	.LASF484
 7644 2404 28       		.byte	0x28
 7645 2405 9901     		.2byte	0x199
 7646 2407 732E0000 		.4byte	0x2e73
 7647 240b 28       		.byte	0x28
 7648 240c 19       		.uleb128 0x19
 7649 240d A80D0000 		.4byte	.LASF485
 7650 2411 28       		.byte	0x28
 7651 2412 9D01     		.2byte	0x19d
 7652 2414 79250000 		.4byte	0x2579
 7653 2418 34       		.byte	0x34
 7654 2419 19       		.uleb128 0x19
 7655 241a A1160000 		.4byte	.LASF486
 7656 241e 28       		.byte	0x28
 7657 241f A101     		.2byte	0x1a1
 7658 2421 C7170000 		.4byte	0x17c7
 7659 2425 38       		.byte	0x38
 7660 2426 19       		.uleb128 0x19
 7661 2427 85130000 		.4byte	.LASF487
 7662 242b 28       		.byte	0x28
 7663 242c A501     		.2byte	0x1a5
 7664 242e 33000000 		.4byte	0x33
 7665 2432 3C       		.byte	0x3c
 7666 2433 19       		.uleb128 0x19
 7667 2434 88180000 		.4byte	.LASF488
 7668 2438 28       		.byte	0x28
 7669 2439 A901     		.2byte	0x1a9
 7670 243b F9250000 		.4byte	0x25f9
 7671 243f 40       		.byte	0x40
 7672 2440 19       		.uleb128 0x19
 7673 2441 B3050000 		.4byte	.LASF489
 7674 2445 28       		.byte	0x28
 7675 2446 AD01     		.2byte	0x1ad
 7676 2448 64180000 		.4byte	0x1864
 7677 244c 44       		.byte	0x44
 7678 244d 19       		.uleb128 0x19
 7679 244e C9110000 		.4byte	.LASF490
 7680 2452 28       		.byte	0x28
 7681 2453 B101     		.2byte	0x1b1
 7682 2455 E9080000 		.4byte	0x8e9
 7683 2459 4C       		.byte	0x4c
ARM GAS  /tmp/ccH4KobB.s 			page 136


 7684 245a 19       		.uleb128 0x19
 7685 245b 01120000 		.4byte	.LASF491
 7686 245f 28       		.byte	0x28
 7687 2460 B501     		.2byte	0x1b5
 7688 2462 D9080000 		.4byte	0x8d9
 7689 2466 4E       		.byte	0x4e
 7690 2467 19       		.uleb128 0x19
 7691 2468 FD150000 		.4byte	.LASF492
 7692 246c 28       		.byte	0x28
 7693 246d B901     		.2byte	0x1b9
 7694 246f D9080000 		.4byte	0x8d9
 7695 2473 4F       		.byte	0x4f
 7696 2474 21       		.uleb128 0x21
 7697 2475 6F746700 		.ascii	"otg\000"
 7698 2479 28       		.byte	0x28
 7699 247a C101     		.2byte	0x1c1
 7700 247c 832E0000 		.4byte	0x2e83
 7701 2480 50       		.byte	0x50
 7702 2481 19       		.uleb128 0x19
 7703 2482 260C0000 		.4byte	.LASF493
 7704 2486 28       		.byte	0x28
 7705 2487 C501     		.2byte	0x1c5
 7706 2489 892E0000 		.4byte	0x2e89
 7707 248d 54       		.byte	0x54
 7708 248e 19       		.uleb128 0x19
 7709 248f 92190000 		.4byte	.LASF494
 7710 2493 28       		.byte	0x28
 7711 2494 C901     		.2byte	0x1c9
 7712 2496 04090000 		.4byte	0x904
 7713 249a 58       		.byte	0x58
 7714 249b 19       		.uleb128 0x19
 7715 249c 3D0B0000 		.4byte	.LASF495
 7716 24a0 28       		.byte	0x28
 7717 24a1 CD01     		.2byte	0x1cd
 7718 24a3 04090000 		.4byte	0x904
 7719 24a7 5C       		.byte	0x5c
 7720 24a8 19       		.uleb128 0x19
 7721 24a9 6F060000 		.4byte	.LASF496
 7722 24ad 28       		.byte	0x28
 7723 24ae D101     		.2byte	0x1d1
 7724 24b0 AD0A0000 		.4byte	0xaad
 7725 24b4 60       		.byte	0x60
 7726 24b5 21       		.uleb128 0x21
 7727 24b6 747200   		.ascii	"tr\000"
 7728 24b9 28       		.byte	0x28
 7729 24ba D601     		.2byte	0x1d6
 7730 24bc AD0A0000 		.4byte	0xaad
 7731 24c0 64       		.byte	0x64
 7732 24c1 19       		.uleb128 0x19
 7733 24c2 1E110000 		.4byte	.LASF497
 7734 24c6 28       		.byte	0x28
 7735 24c7 DA01     		.2byte	0x1da
 7736 24c9 8F2E0000 		.4byte	0x2e8f
 7737 24cd 68       		.byte	0x68
 7738 24ce 00       		.byte	0
 7739 24cf 04       		.uleb128 0x4
 7740 24d0 09010000 		.4byte	.LASF498
ARM GAS  /tmp/ccH4KobB.s 			page 137


 7741 24d4 27       		.byte	0x27
 7742 24d5 FF       		.byte	0xff
 7743 24d6 D9080000 		.4byte	0x8d9
 7744 24da 29       		.uleb128 0x29
 7745 24db 07       		.byte	0x7
 7746 24dc 01       		.byte	0x1
 7747 24dd 55000000 		.4byte	0x55
 7748 24e1 27       		.byte	0x27
 7749 24e2 0401     		.2byte	0x104
 7750 24e4 07250000 		.4byte	0x2507
 7751 24e8 28       		.uleb128 0x28
 7752 24e9 F71D0000 		.4byte	.LASF499
 7753 24ed 00       		.byte	0
 7754 24ee 28       		.uleb128 0x28
 7755 24ef 00000000 		.4byte	.LASF500
 7756 24f3 01       		.byte	0x1
 7757 24f4 28       		.uleb128 0x28
 7758 24f5 16100000 		.4byte	.LASF501
 7759 24f9 02       		.byte	0x2
 7760 24fa 28       		.uleb128 0x28
 7761 24fb AD140000 		.4byte	.LASF502
 7762 24ff 03       		.byte	0x3
 7763 2500 28       		.uleb128 0x28
 7764 2501 92060000 		.4byte	.LASF503
 7765 2505 04       		.byte	0x4
 7766 2506 00       		.byte	0
 7767 2507 08       		.uleb128 0x8
 7768 2508 541B0000 		.4byte	.LASF504
 7769 250c 27       		.byte	0x27
 7770 250d 0A01     		.2byte	0x10a
 7771 250f DA240000 		.4byte	0x24da
 7772 2513 29       		.uleb128 0x29
 7773 2514 07       		.byte	0x7
 7774 2515 01       		.byte	0x1
 7775 2516 55000000 		.4byte	0x55
 7776 251a 27       		.byte	0x27
 7777 251b 0F01     		.2byte	0x10f
 7778 251d 34250000 		.4byte	0x2534
 7779 2521 28       		.uleb128 0x28
 7780 2522 B3180000 		.4byte	.LASF505
 7781 2526 00       		.byte	0
 7782 2527 28       		.uleb128 0x28
 7783 2528 020C0000 		.4byte	.LASF506
 7784 252c 01       		.byte	0x1
 7785 252d 28       		.uleb128 0x28
 7786 252e 3B030000 		.4byte	.LASF507
 7787 2532 02       		.byte	0x2
 7788 2533 00       		.byte	0
 7789 2534 08       		.uleb128 0x8
 7790 2535 76020000 		.4byte	.LASF508
 7791 2539 27       		.byte	0x27
 7792 253a 1301     		.2byte	0x113
 7793 253c 13250000 		.4byte	0x2513
 7794 2540 29       		.uleb128 0x29
 7795 2541 07       		.byte	0x7
 7796 2542 01       		.byte	0x1
 7797 2543 55000000 		.4byte	0x55
ARM GAS  /tmp/ccH4KobB.s 			page 138


 7798 2547 27       		.byte	0x27
 7799 2548 1801     		.2byte	0x118
 7800 254a 79250000 		.4byte	0x2579
 7801 254e 28       		.uleb128 0x28
 7802 254f 51180000 		.4byte	.LASF509
 7803 2553 00       		.byte	0
 7804 2554 28       		.uleb128 0x28
 7805 2555 9D0D0000 		.4byte	.LASF510
 7806 2559 01       		.byte	0x1
 7807 255a 28       		.uleb128 0x28
 7808 255b 8D160000 		.4byte	.LASF511
 7809 255f 02       		.byte	0x2
 7810 2560 28       		.uleb128 0x28
 7811 2561 86120000 		.4byte	.LASF512
 7812 2565 03       		.byte	0x3
 7813 2566 28       		.uleb128 0x28
 7814 2567 BE110000 		.4byte	.LASF513
 7815 256b 04       		.byte	0x4
 7816 256c 28       		.uleb128 0x28
 7817 256d 790E0000 		.4byte	.LASF514
 7818 2571 05       		.byte	0x5
 7819 2572 28       		.uleb128 0x28
 7820 2573 290D0000 		.4byte	.LASF515
 7821 2577 06       		.byte	0x6
 7822 2578 00       		.byte	0
 7823 2579 08       		.uleb128 0x8
 7824 257a CC0E0000 		.4byte	.LASF516
 7825 257e 27       		.byte	0x27
 7826 257f 2001     		.2byte	0x120
 7827 2581 40250000 		.4byte	0x2540
 7828 2585 29       		.uleb128 0x29
 7829 2586 07       		.byte	0x7
 7830 2587 01       		.byte	0x1
 7831 2588 55000000 		.4byte	0x55
 7832 258c 27       		.byte	0x27
 7833 258d 2501     		.2byte	0x125
 7834 258f B8250000 		.4byte	0x25b8
 7835 2593 28       		.uleb128 0x28
 7836 2594 92140000 		.4byte	.LASF517
 7837 2598 00       		.byte	0
 7838 2599 28       		.uleb128 0x28
 7839 259a 22150000 		.4byte	.LASF518
 7840 259e 01       		.byte	0x1
 7841 259f 28       		.uleb128 0x28
 7842 25a0 CE100000 		.4byte	.LASF519
 7843 25a4 02       		.byte	0x2
 7844 25a5 28       		.uleb128 0x28
 7845 25a6 69110000 		.4byte	.LASF520
 7846 25aa 03       		.byte	0x3
 7847 25ab 28       		.uleb128 0x28
 7848 25ac F51C0000 		.4byte	.LASF521
 7849 25b0 04       		.byte	0x4
 7850 25b1 28       		.uleb128 0x28
 7851 25b2 55100000 		.4byte	.LASF522
 7852 25b6 05       		.byte	0x5
 7853 25b7 00       		.byte	0
 7854 25b8 08       		.uleb128 0x8
ARM GAS  /tmp/ccH4KobB.s 			page 139


 7855 25b9 41150000 		.4byte	.LASF523
 7856 25bd 27       		.byte	0x27
 7857 25be 2C01     		.2byte	0x12c
 7858 25c0 85250000 		.4byte	0x2585
 7859 25c4 1C       		.uleb128 0x1c
 7860 25c5 08       		.byte	0x8
 7861 25c6 27       		.byte	0x27
 7862 25c7 3101     		.2byte	0x131
 7863 25c9 E8250000 		.4byte	0x25e8
 7864 25cd 19       		.uleb128 0x19
 7865 25ce DD1E0000 		.4byte	.LASF524
 7866 25d2 27       		.byte	0x27
 7867 25d3 3501     		.2byte	0x135
 7868 25d5 33000000 		.4byte	0x33
 7869 25d9 00       		.byte	0
 7870 25da 19       		.uleb128 0x19
 7871 25db BF030000 		.4byte	.LASF525
 7872 25df 27       		.byte	0x27
 7873 25e0 3901     		.2byte	0x139
 7874 25e2 FC170000 		.4byte	0x17fc
 7875 25e6 04       		.byte	0x4
 7876 25e7 00       		.byte	0
 7877 25e8 08       		.uleb128 0x8
 7878 25e9 D6110000 		.4byte	.LASF526
 7879 25ed 27       		.byte	0x27
 7880 25ee 3A01     		.2byte	0x13a
 7881 25f0 C4250000 		.4byte	0x25c4
 7882 25f4 10       		.uleb128 0x10
 7883 25f5 E8250000 		.4byte	0x25e8
 7884 25f9 08       		.uleb128 0x8
 7885 25fa 3E1E0000 		.4byte	.LASF527
 7886 25fe 27       		.byte	0x27
 7887 25ff 4201     		.2byte	0x142
 7888 2601 05260000 		.4byte	0x2605
 7889 2605 06       		.uleb128 0x6
 7890 2606 04       		.byte	0x4
 7891 2607 0B260000 		.4byte	0x260b
 7892 260b 1F       		.uleb128 0x1f
 7893 260c 16260000 		.4byte	0x2616
 7894 2610 17       		.uleb128 0x17
 7895 2611 16260000 		.4byte	0x2616
 7896 2615 00       		.byte	0
 7897 2616 06       		.uleb128 0x6
 7898 2617 04       		.byte	0x4
 7899 2618 98230000 		.4byte	0x2398
 7900 261c 08       		.uleb128 0x8
 7901 261d 06040000 		.4byte	.LASF528
 7902 2621 27       		.byte	0x27
 7903 2622 4B01     		.2byte	0x14b
 7904 2624 28260000 		.4byte	0x2628
 7905 2628 06       		.uleb128 0x6
 7906 2629 04       		.byte	0x4
 7907 262a 2E260000 		.4byte	0x262e
 7908 262e 1F       		.uleb128 0x1f
 7909 262f 3E260000 		.4byte	0x263e
 7910 2633 17       		.uleb128 0x17
 7911 2634 16260000 		.4byte	0x2616
ARM GAS  /tmp/ccH4KobB.s 			page 140


 7912 2638 17       		.uleb128 0x17
 7913 2639 CF240000 		.4byte	0x24cf
 7914 263d 00       		.byte	0
 7915 263e 08       		.uleb128 0x8
 7916 263f CE080000 		.4byte	.LASF529
 7917 2643 27       		.byte	0x27
 7918 2644 5401     		.2byte	0x154
 7919 2646 4A260000 		.4byte	0x264a
 7920 264a 06       		.uleb128 0x6
 7921 264b 04       		.byte	0x4
 7922 264c 50260000 		.4byte	0x2650
 7923 2650 1F       		.uleb128 0x1f
 7924 2651 60260000 		.4byte	0x2660
 7925 2655 17       		.uleb128 0x17
 7926 2656 16260000 		.4byte	0x2616
 7927 265a 17       		.uleb128 0x17
 7928 265b B8250000 		.4byte	0x25b8
 7929 265f 00       		.byte	0
 7930 2660 08       		.uleb128 0x8
 7931 2661 5E140000 		.4byte	.LASF530
 7932 2665 27       		.byte	0x27
 7933 2666 6001     		.2byte	0x160
 7934 2668 6C260000 		.4byte	0x266c
 7935 266c 06       		.uleb128 0x6
 7936 266d 04       		.byte	0x4
 7937 266e 72260000 		.4byte	0x2672
 7938 2672 16       		.uleb128 0x16
 7939 2673 5D180000 		.4byte	0x185d
 7940 2677 81260000 		.4byte	0x2681
 7941 267b 17       		.uleb128 0x17
 7942 267c 16260000 		.4byte	0x2616
 7943 2680 00       		.byte	0
 7944 2681 08       		.uleb128 0x8
 7945 2682 790D0000 		.4byte	.LASF531
 7946 2686 27       		.byte	0x27
 7947 2687 6501     		.2byte	0x165
 7948 2689 8D260000 		.4byte	0x268d
 7949 268d 06       		.uleb128 0x6
 7950 268e 04       		.byte	0x4
 7951 268f 93260000 		.4byte	0x2693
 7952 2693 16       		.uleb128 0x16
 7953 2694 B1260000 		.4byte	0x26b1
 7954 2698 B1260000 		.4byte	0x26b1
 7955 269c 17       		.uleb128 0x17
 7956 269d 16260000 		.4byte	0x2616
 7957 26a1 17       		.uleb128 0x17
 7958 26a2 D9080000 		.4byte	0x8d9
 7959 26a6 17       		.uleb128 0x17
 7960 26a7 D9080000 		.4byte	0x8d9
 7961 26ab 17       		.uleb128 0x17
 7962 26ac E9080000 		.4byte	0x8e9
 7963 26b0 00       		.byte	0
 7964 26b1 06       		.uleb128 0x6
 7965 26b2 04       		.byte	0x4
 7966 26b3 F4250000 		.4byte	0x25f4
 7967 26b7 0D       		.uleb128 0xd
 7968 26b8 20       		.byte	0x20
ARM GAS  /tmp/ccH4KobB.s 			page 141


 7969 26b9 29       		.byte	0x29
 7970 26ba 35       		.byte	0x35
 7971 26bb 20270000 		.4byte	0x2720
 7972 26bf 0E       		.uleb128 0xe
 7973 26c0 96020000 		.4byte	.LASF532
 7974 26c4 29       		.byte	0x29
 7975 26c5 36       		.byte	0x36
 7976 26c6 0F090000 		.4byte	0x90f
 7977 26ca 00       		.byte	0
 7978 26cb 0E       		.uleb128 0xe
 7979 26cc 7A0B0000 		.4byte	.LASF533
 7980 26d0 29       		.byte	0x29
 7981 26d1 38       		.byte	0x38
 7982 26d2 0F090000 		.4byte	0x90f
 7983 26d6 04       		.byte	0x4
 7984 26d7 0E       		.uleb128 0xe
 7985 26d8 05020000 		.4byte	.LASF534
 7986 26dc 29       		.byte	0x29
 7987 26dd 39       		.byte	0x39
 7988 26de 0F090000 		.4byte	0x90f
 7989 26e2 08       		.byte	0x8
 7990 26e3 0E       		.uleb128 0xe
 7991 26e4 09170000 		.4byte	.LASF535
 7992 26e8 29       		.byte	0x29
 7993 26e9 3A       		.byte	0x3a
 7994 26ea 0F090000 		.4byte	0x90f
 7995 26ee 0C       		.byte	0xc
 7996 26ef 0E       		.uleb128 0xe
 7997 26f0 C7100000 		.4byte	.LASF536
 7998 26f4 29       		.byte	0x29
 7999 26f5 3C       		.byte	0x3c
 8000 26f6 0F090000 		.4byte	0x90f
 8001 26fa 10       		.byte	0x10
 8002 26fb 0E       		.uleb128 0xe
 8003 26fc C10B0000 		.4byte	.LASF537
 8004 2700 29       		.byte	0x29
 8005 2701 3E       		.byte	0x3e
 8006 2702 0F090000 		.4byte	0x90f
 8007 2706 14       		.byte	0x14
 8008 2707 0E       		.uleb128 0xe
 8009 2708 D40B0000 		.4byte	.LASF538
 8010 270c 29       		.byte	0x29
 8011 270d 3F       		.byte	0x3f
 8012 270e 0F090000 		.4byte	0x90f
 8013 2712 18       		.byte	0x18
 8014 2713 0E       		.uleb128 0xe
 8015 2714 22030000 		.4byte	.LASF539
 8016 2718 29       		.byte	0x29
 8017 2719 40       		.byte	0x40
 8018 271a 0F090000 		.4byte	0x90f
 8019 271e 1C       		.byte	0x1c
 8020 271f 00       		.byte	0
 8021 2720 04       		.uleb128 0x4
 8022 2721 A9160000 		.4byte	.LASF540
 8023 2725 29       		.byte	0x29
 8024 2726 41       		.byte	0x41
 8025 2727 B7260000 		.4byte	0x26b7
ARM GAS  /tmp/ccH4KobB.s 			page 142


 8026 272b 0D       		.uleb128 0xd
 8027 272c 20       		.byte	0x20
 8028 272d 29       		.byte	0x29
 8029 272e 46       		.byte	0x46
 8030 272f 94270000 		.4byte	0x2794
 8031 2733 0E       		.uleb128 0xe
 8032 2734 140C0000 		.4byte	.LASF541
 8033 2738 29       		.byte	0x29
 8034 2739 47       		.byte	0x47
 8035 273a 0F090000 		.4byte	0x90f
 8036 273e 00       		.byte	0
 8037 273f 0E       		.uleb128 0xe
 8038 2740 6B0B0000 		.4byte	.LASF542
 8039 2744 29       		.byte	0x29
 8040 2745 49       		.byte	0x49
 8041 2746 0F090000 		.4byte	0x90f
 8042 274a 04       		.byte	0x4
 8043 274b 0E       		.uleb128 0xe
 8044 274c 341A0000 		.4byte	.LASF543
 8045 2750 29       		.byte	0x29
 8046 2751 4A       		.byte	0x4a
 8047 2752 0F090000 		.4byte	0x90f
 8048 2756 08       		.byte	0x8
 8049 2757 0E       		.uleb128 0xe
 8050 2758 2C0F0000 		.4byte	.LASF544
 8051 275c 29       		.byte	0x29
 8052 275d 4C       		.byte	0x4c
 8053 275e 0F090000 		.4byte	0x90f
 8054 2762 0C       		.byte	0xc
 8055 2763 0E       		.uleb128 0xe
 8056 2764 25130000 		.4byte	.LASF545
 8057 2768 29       		.byte	0x29
 8058 2769 4D       		.byte	0x4d
 8059 276a 0F090000 		.4byte	0x90f
 8060 276e 10       		.byte	0x10
 8061 276f 0E       		.uleb128 0xe
 8062 2770 C10B0000 		.4byte	.LASF537
 8063 2774 29       		.byte	0x29
 8064 2775 4F       		.byte	0x4f
 8065 2776 0F090000 		.4byte	0x90f
 8066 277a 14       		.byte	0x14
 8067 277b 0E       		.uleb128 0xe
 8068 277c C4050000 		.4byte	.LASF546
 8069 2780 29       		.byte	0x29
 8070 2781 50       		.byte	0x50
 8071 2782 0F090000 		.4byte	0x90f
 8072 2786 18       		.byte	0x18
 8073 2787 0E       		.uleb128 0xe
 8074 2788 1D1A0000 		.4byte	.LASF547
 8075 278c 29       		.byte	0x29
 8076 278d 52       		.byte	0x52
 8077 278e 0F090000 		.4byte	0x90f
 8078 2792 1C       		.byte	0x1c
 8079 2793 00       		.byte	0
 8080 2794 04       		.uleb128 0x4
 8081 2795 9D060000 		.4byte	.LASF548
 8082 2799 29       		.byte	0x29
ARM GAS  /tmp/ccH4KobB.s 			page 143


 8083 279a 53       		.byte	0x53
 8084 279b 2B270000 		.4byte	0x272b
 8085 279f 0D       		.uleb128 0xd
 8086 27a0 20       		.byte	0x20
 8087 27a1 29       		.byte	0x29
 8088 27a2 58       		.byte	0x58
 8089 27a3 08280000 		.4byte	0x2808
 8090 27a7 0E       		.uleb128 0xe
 8091 27a8 7B110000 		.4byte	.LASF549
 8092 27ac 29       		.byte	0x29
 8093 27ad 59       		.byte	0x59
 8094 27ae 0F090000 		.4byte	0x90f
 8095 27b2 00       		.byte	0
 8096 27b3 0E       		.uleb128 0xe
 8097 27b4 6B0B0000 		.4byte	.LASF542
 8098 27b8 29       		.byte	0x29
 8099 27b9 5B       		.byte	0x5b
 8100 27ba 0F090000 		.4byte	0x90f
 8101 27be 04       		.byte	0x4
 8102 27bf 0E       		.uleb128 0xe
 8103 27c0 15140000 		.4byte	.LASF550
 8104 27c4 29       		.byte	0x29
 8105 27c5 5C       		.byte	0x5c
 8106 27c6 0F090000 		.4byte	0x90f
 8107 27ca 08       		.byte	0x8
 8108 27cb 0E       		.uleb128 0xe
 8109 27cc 2C0F0000 		.4byte	.LASF544
 8110 27d0 29       		.byte	0x29
 8111 27d1 5E       		.byte	0x5e
 8112 27d2 0F090000 		.4byte	0x90f
 8113 27d6 0C       		.byte	0xc
 8114 27d7 0E       		.uleb128 0xe
 8115 27d8 5F1B0000 		.4byte	.LASF551
 8116 27dc 29       		.byte	0x29
 8117 27dd 5F       		.byte	0x5f
 8118 27de 0F090000 		.4byte	0x90f
 8119 27e2 10       		.byte	0x10
 8120 27e3 0E       		.uleb128 0xe
 8121 27e4 C10B0000 		.4byte	.LASF537
 8122 27e8 29       		.byte	0x29
 8123 27e9 61       		.byte	0x61
 8124 27ea 0F090000 		.4byte	0x90f
 8125 27ee 14       		.byte	0x14
 8126 27ef 0E       		.uleb128 0xe
 8127 27f0 D40B0000 		.4byte	.LASF538
 8128 27f4 29       		.byte	0x29
 8129 27f5 62       		.byte	0x62
 8130 27f6 0F090000 		.4byte	0x90f
 8131 27fa 18       		.byte	0x18
 8132 27fb 0E       		.uleb128 0xe
 8133 27fc 1D1A0000 		.4byte	.LASF547
 8134 2800 29       		.byte	0x29
 8135 2801 63       		.byte	0x63
 8136 2802 0F090000 		.4byte	0x90f
 8137 2806 1C       		.byte	0x1c
 8138 2807 00       		.byte	0
 8139 2808 04       		.uleb128 0x4
ARM GAS  /tmp/ccH4KobB.s 			page 144


 8140 2809 59130000 		.4byte	.LASF552
 8141 280d 29       		.byte	0x29
 8142 280e 64       		.byte	0x64
 8143 280f 9F270000 		.4byte	0x279f
 8144 2813 2A       		.uleb128 0x2a
 8145 2814 00100100 		.4byte	0x11000
 8146 2818 29       		.byte	0x29
 8147 2819 69       		.byte	0x69
 8148 281a F02A0000 		.4byte	0x2af0
 8149 281e 0E       		.uleb128 0xe
 8150 281f FE030000 		.4byte	.LASF553
 8151 2823 29       		.byte	0x29
 8152 2824 6A       		.byte	0x6a
 8153 2825 0F090000 		.4byte	0x90f
 8154 2829 00       		.byte	0
 8155 282a 0E       		.uleb128 0xe
 8156 282b BA0A0000 		.4byte	.LASF554
 8157 282f 29       		.byte	0x29
 8158 2830 6B       		.byte	0x6b
 8159 2831 0F090000 		.4byte	0x90f
 8160 2835 04       		.byte	0x4
 8161 2836 0E       		.uleb128 0xe
 8162 2837 EB050000 		.4byte	.LASF555
 8163 283b 29       		.byte	0x29
 8164 283c 6C       		.byte	0x6c
 8165 283d 0F090000 		.4byte	0x90f
 8166 2841 08       		.byte	0x8
 8167 2842 0E       		.uleb128 0xe
 8168 2843 871E0000 		.4byte	.LASF556
 8169 2847 29       		.byte	0x29
 8170 2848 6D       		.byte	0x6d
 8171 2849 0F090000 		.4byte	0x90f
 8172 284d 0C       		.byte	0xc
 8173 284e 0E       		.uleb128 0xe
 8174 284f 26100000 		.4byte	.LASF557
 8175 2853 29       		.byte	0x29
 8176 2854 6E       		.byte	0x6e
 8177 2855 0F090000 		.4byte	0x90f
 8178 2859 10       		.byte	0x10
 8179 285a 0E       		.uleb128 0xe
 8180 285b E8020000 		.4byte	.LASF558
 8181 285f 29       		.byte	0x29
 8182 2860 6F       		.byte	0x6f
 8183 2861 0F090000 		.4byte	0x90f
 8184 2865 14       		.byte	0x14
 8185 2866 0E       		.uleb128 0xe
 8186 2867 D6150000 		.4byte	.LASF559
 8187 286b 29       		.byte	0x29
 8188 286c 70       		.byte	0x70
 8189 286d 0F090000 		.4byte	0x90f
 8190 2871 18       		.byte	0x18
 8191 2872 0E       		.uleb128 0xe
 8192 2873 51060000 		.4byte	.LASF560
 8193 2877 29       		.byte	0x29
 8194 2878 71       		.byte	0x71
 8195 2879 0F090000 		.4byte	0x90f
 8196 287d 1C       		.byte	0x1c
ARM GAS  /tmp/ccH4KobB.s 			page 145


 8197 287e 0E       		.uleb128 0xe
 8198 287f 49060000 		.4byte	.LASF561
 8199 2883 29       		.byte	0x29
 8200 2884 73       		.byte	0x73
 8201 2885 0F090000 		.4byte	0x90f
 8202 2889 20       		.byte	0x20
 8203 288a 0E       		.uleb128 0xe
 8204 288b 8F150000 		.4byte	.LASF562
 8205 288f 29       		.byte	0x29
 8206 2890 75       		.byte	0x75
 8207 2891 0F090000 		.4byte	0x90f
 8208 2895 24       		.byte	0x24
 8209 2896 0E       		.uleb128 0xe
 8210 2897 6B000000 		.4byte	.LASF563
 8211 289b 29       		.byte	0x29
 8212 289c 76       		.byte	0x76
 8213 289d 0F090000 		.4byte	0x90f
 8214 28a1 28       		.byte	0x28
 8215 28a2 0E       		.uleb128 0xe
 8216 28a3 EC150000 		.4byte	.LASF564
 8217 28a7 29       		.byte	0x29
 8218 28a8 78       		.byte	0x78
 8219 28a9 0F090000 		.4byte	0x90f
 8220 28ad 2C       		.byte	0x2c
 8221 28ae 0E       		.uleb128 0xe
 8222 28af DD0C0000 		.4byte	.LASF565
 8223 28b3 29       		.byte	0x29
 8224 28b4 7A       		.byte	0x7a
 8225 28b5 0F090000 		.4byte	0x90f
 8226 28b9 30       		.byte	0x30
 8227 28ba 0E       		.uleb128 0xe
 8228 28bb 2D1D0000 		.4byte	.LASF566
 8229 28bf 29       		.byte	0x29
 8230 28c0 7B       		.byte	0x7b
 8231 28c1 0F090000 		.4byte	0x90f
 8232 28c5 34       		.byte	0x34
 8233 28c6 0E       		.uleb128 0xe
 8234 28c7 57010000 		.4byte	.LASF567
 8235 28cb 29       		.byte	0x29
 8236 28cc 7C       		.byte	0x7c
 8237 28cd 0F090000 		.4byte	0x90f
 8238 28d1 38       		.byte	0x38
 8239 28d2 12       		.uleb128 0x12
 8240 28d3 43494400 		.ascii	"CID\000"
 8241 28d7 29       		.byte	0x29
 8242 28d8 7D       		.byte	0x7d
 8243 28d9 0F090000 		.4byte	0x90f
 8244 28dd 3C       		.byte	0x3c
 8245 28de 0E       		.uleb128 0xe
 8246 28df 250E0000 		.4byte	.LASF568
 8247 28e3 29       		.byte	0x29
 8248 28e4 7E       		.byte	0x7e
 8249 28e5 002B0000 		.4byte	0x2b00
 8250 28e9 40       		.byte	0x40
 8251 28ea 14       		.uleb128 0x14
 8252 28eb 161C0000 		.4byte	.LASF569
 8253 28ef 29       		.byte	0x29
ARM GAS  /tmp/ccH4KobB.s 			page 146


 8254 28f0 7F       		.byte	0x7f
 8255 28f1 0F090000 		.4byte	0x90f
 8256 28f5 0001     		.2byte	0x100
 8257 28f7 14       		.uleb128 0x14
 8258 28f8 A8010000 		.4byte	.LASF570
 8259 28fc 29       		.byte	0x29
 8260 28fd 81       		.byte	0x81
 8261 28fe 11130000 		.4byte	0x1311
 8262 2902 0401     		.2byte	0x104
 8263 2904 14       		.uleb128 0x14
 8264 2905 35110000 		.4byte	.LASF571
 8265 2909 29       		.byte	0x29
 8266 290a 83       		.byte	0x83
 8267 290b 152B0000 		.4byte	0x2b15
 8268 290f 4001     		.2byte	0x140
 8269 2911 14       		.uleb128 0x14
 8270 2912 C7130000 		.4byte	.LASF572
 8271 2916 29       		.byte	0x29
 8272 2917 84       		.byte	0x84
 8273 2918 0F090000 		.4byte	0x90f
 8274 291c 0004     		.2byte	0x400
 8275 291e 14       		.uleb128 0x14
 8276 291f F21D0000 		.4byte	.LASF573
 8277 2923 29       		.byte	0x29
 8278 2924 85       		.byte	0x85
 8279 2925 0F090000 		.4byte	0x90f
 8280 2929 0404     		.2byte	0x404
 8281 292b 14       		.uleb128 0x14
 8282 292c 75030000 		.4byte	.LASF574
 8283 2930 29       		.byte	0x29
 8284 2931 86       		.byte	0x86
 8285 2932 0F090000 		.4byte	0x90f
 8286 2936 0804     		.2byte	0x408
 8287 2938 14       		.uleb128 0x14
 8288 2939 030B0000 		.4byte	.LASF575
 8289 293d 29       		.byte	0x29
 8290 293e 88       		.byte	0x88
 8291 293f 0F090000 		.4byte	0x90f
 8292 2943 0C04     		.2byte	0x40c
 8293 2945 14       		.uleb128 0x14
 8294 2946 67020000 		.4byte	.LASF576
 8295 294a 29       		.byte	0x29
 8296 294b 89       		.byte	0x89
 8297 294c 0F090000 		.4byte	0x90f
 8298 2950 1004     		.2byte	0x410
 8299 2952 14       		.uleb128 0x14
 8300 2953 35030000 		.4byte	.LASF577
 8301 2957 29       		.byte	0x29
 8302 2958 8B       		.byte	0x8b
 8303 2959 0F090000 		.4byte	0x90f
 8304 295d 1404     		.2byte	0x414
 8305 295f 14       		.uleb128 0x14
 8306 2960 C90A0000 		.4byte	.LASF578
 8307 2964 29       		.byte	0x29
 8308 2965 8D       		.byte	0x8d
 8309 2966 0F090000 		.4byte	0x90f
 8310 296a 1804     		.2byte	0x418
ARM GAS  /tmp/ccH4KobB.s 			page 147


 8311 296c 14       		.uleb128 0x14
 8312 296d C3170000 		.4byte	.LASF579
 8313 2971 29       		.byte	0x29
 8314 2972 8F       		.byte	0x8f
 8315 2973 2A2B0000 		.4byte	0x2b2a
 8316 2977 1C04     		.2byte	0x41c
 8317 2979 14       		.uleb128 0x14
 8318 297a 00020000 		.4byte	.LASF580
 8319 297e 29       		.byte	0x29
 8320 297f 90       		.byte	0x90
 8321 2980 0F090000 		.4byte	0x90f
 8322 2984 4004     		.2byte	0x440
 8323 2986 14       		.uleb128 0x14
 8324 2987 43190000 		.4byte	.LASF581
 8325 298b 29       		.byte	0x29
 8326 298c 92       		.byte	0x92
 8327 298d 3F2B0000 		.4byte	0x2b3f
 8328 2991 4404     		.2byte	0x444
 8329 2993 2B       		.uleb128 0x2b
 8330 2994 686300   		.ascii	"hc\000"
 8331 2997 29       		.byte	0x29
 8332 2998 93       		.byte	0x93
 8333 2999 442B0000 		.4byte	0x2b44
 8334 299d 0005     		.2byte	0x500
 8335 299f 14       		.uleb128 0x14
 8336 29a0 D7000000 		.4byte	.LASF582
 8337 29a4 29       		.byte	0x29
 8338 29a5 94       		.byte	0x94
 8339 29a6 642B0000 		.4byte	0x2b64
 8340 29aa 0007     		.2byte	0x700
 8341 29ac 14       		.uleb128 0x14
 8342 29ad C6180000 		.4byte	.LASF583
 8343 29b1 29       		.byte	0x29
 8344 29b2 95       		.byte	0x95
 8345 29b3 0F090000 		.4byte	0x90f
 8346 29b7 0008     		.2byte	0x800
 8347 29b9 14       		.uleb128 0x14
 8348 29ba E21C0000 		.4byte	.LASF584
 8349 29be 29       		.byte	0x29
 8350 29bf 96       		.byte	0x96
 8351 29c0 0F090000 		.4byte	0x90f
 8352 29c4 0408     		.2byte	0x804
 8353 29c6 14       		.uleb128 0x14
 8354 29c7 B60F0000 		.4byte	.LASF585
 8355 29cb 29       		.byte	0x29
 8356 29cc 97       		.byte	0x97
 8357 29cd 0F090000 		.4byte	0x90f
 8358 29d1 0808     		.2byte	0x808
 8359 29d3 14       		.uleb128 0x14
 8360 29d4 EC030000 		.4byte	.LASF586
 8361 29d8 29       		.byte	0x29
 8362 29d9 98       		.byte	0x98
 8363 29da 0F090000 		.4byte	0x90f
 8364 29de 0C08     		.2byte	0x80c
 8365 29e0 14       		.uleb128 0x14
 8366 29e1 B20A0000 		.4byte	.LASF587
 8367 29e5 29       		.byte	0x29
ARM GAS  /tmp/ccH4KobB.s 			page 148


 8368 29e6 99       		.byte	0x99
 8369 29e7 0F090000 		.4byte	0x90f
 8370 29eb 1008     		.2byte	0x810
 8371 29ed 14       		.uleb128 0x14
 8372 29ee 601A0000 		.4byte	.LASF588
 8373 29f2 29       		.byte	0x29
 8374 29f3 9B       		.byte	0x9b
 8375 29f4 0F090000 		.4byte	0x90f
 8376 29f8 1408     		.2byte	0x814
 8377 29fa 14       		.uleb128 0x14
 8378 29fb DD1A0000 		.4byte	.LASF589
 8379 29ff 29       		.byte	0x29
 8380 2a00 9D       		.byte	0x9d
 8381 2a01 0F090000 		.4byte	0x90f
 8382 2a05 1808     		.2byte	0x818
 8383 2a07 14       		.uleb128 0x14
 8384 2a08 40180000 		.4byte	.LASF590
 8385 2a0c 29       		.byte	0x29
 8386 2a0d 9F       		.byte	0x9f
 8387 2a0e 0F090000 		.4byte	0x90f
 8388 2a12 1C08     		.2byte	0x81c
 8389 2a14 14       		.uleb128 0x14
 8390 2a15 00050000 		.4byte	.LASF591
 8391 2a19 29       		.byte	0x29
 8392 2a1a A1       		.byte	0xa1
 8393 2a1b 0F090000 		.4byte	0x90f
 8394 2a1f 2008     		.2byte	0x820
 8395 2a21 14       		.uleb128 0x14
 8396 2a22 33040000 		.4byte	.LASF592
 8397 2a26 29       		.byte	0x29
 8398 2a27 A2       		.byte	0xa2
 8399 2a28 0F090000 		.4byte	0x90f
 8400 2a2c 2408     		.2byte	0x824
 8401 2a2e 14       		.uleb128 0x14
 8402 2a2f E0000000 		.4byte	.LASF593
 8403 2a33 29       		.byte	0x29
 8404 2a34 A3       		.byte	0xa3
 8405 2a35 0F090000 		.4byte	0x90f
 8406 2a39 2808     		.2byte	0x828
 8407 2a3b 14       		.uleb128 0x14
 8408 2a3c A8050000 		.4byte	.LASF594
 8409 2a40 29       		.byte	0x29
 8410 2a41 A5       		.byte	0xa5
 8411 2a42 0F090000 		.4byte	0x90f
 8412 2a46 2C08     		.2byte	0x82c
 8413 2a48 14       		.uleb128 0x14
 8414 2a49 72050000 		.4byte	.LASF595
 8415 2a4d 29       		.byte	0x29
 8416 2a4e A7       		.byte	0xa7
 8417 2a4f 0F090000 		.4byte	0x90f
 8418 2a53 3008     		.2byte	0x830
 8419 2a55 14       		.uleb128 0x14
 8420 2a56 F70B0000 		.4byte	.LASF596
 8421 2a5a 29       		.byte	0x29
 8422 2a5b A8       		.byte	0xa8
 8423 2a5c 0F090000 		.4byte	0x90f
 8424 2a60 3408     		.2byte	0x834
ARM GAS  /tmp/ccH4KobB.s 			page 149


 8425 2a62 14       		.uleb128 0x14
 8426 2a63 80050000 		.4byte	.LASF597
 8427 2a67 29       		.byte	0x29
 8428 2a68 AA       		.byte	0xaa
 8429 2a69 0F090000 		.4byte	0x90f
 8430 2a6d 3808     		.2byte	0x838
 8431 2a6f 14       		.uleb128 0x14
 8432 2a70 98050000 		.4byte	.LASF598
 8433 2a74 29       		.byte	0x29
 8434 2a75 AB       		.byte	0xab
 8435 2a76 0F090000 		.4byte	0x90f
 8436 2a7a 3C08     		.2byte	0x83c
 8437 2a7c 14       		.uleb128 0x14
 8438 2a7d FB050000 		.4byte	.LASF599
 8439 2a81 29       		.byte	0x29
 8440 2a82 AC       		.byte	0xac
 8441 2a83 792B0000 		.4byte	0x2b79
 8442 2a87 4008     		.2byte	0x840
 8443 2a89 14       		.uleb128 0x14
 8444 2a8a 970B0000 		.4byte	.LASF600
 8445 2a8e 29       		.byte	0x29
 8446 2a8f AD       		.byte	0xad
 8447 2a90 792B0000 		.4byte	0x2b79
 8448 2a94 8008     		.2byte	0x880
 8449 2a96 14       		.uleb128 0x14
 8450 2a97 190F0000 		.4byte	.LASF601
 8451 2a9b 29       		.byte	0x29
 8452 2a9c AE       		.byte	0xae
 8453 2a9d 792B0000 		.4byte	0x2b79
 8454 2aa1 C008     		.2byte	0x8c0
 8455 2aa3 2B       		.uleb128 0x2b
 8456 2aa4 696500   		.ascii	"ie\000"
 8457 2aa7 29       		.byte	0x29
 8458 2aa8 AF       		.byte	0xaf
 8459 2aa9 7E2B0000 		.4byte	0x2b7e
 8460 2aad 0009     		.2byte	0x900
 8461 2aaf 2B       		.uleb128 0x2b
 8462 2ab0 6F6500   		.ascii	"oe\000"
 8463 2ab3 29       		.byte	0x29
 8464 2ab4 B0       		.byte	0xb0
 8465 2ab5 8E2B0000 		.4byte	0x2b8e
 8466 2ab9 000B     		.2byte	0xb00
 8467 2abb 14       		.uleb128 0x14
 8468 2abc 25090000 		.4byte	.LASF602
 8469 2ac0 29       		.byte	0x29
 8470 2ac1 B1       		.byte	0xb1
 8471 2ac2 642B0000 		.4byte	0x2b64
 8472 2ac6 000D     		.2byte	0xd00
 8473 2ac8 14       		.uleb128 0x14
 8474 2ac9 ED1C0000 		.4byte	.LASF603
 8475 2acd 29       		.byte	0x29
 8476 2ace B2       		.byte	0xb2
 8477 2acf 0F090000 		.4byte	0x90f
 8478 2ad3 000E     		.2byte	0xe00
 8479 2ad5 14       		.uleb128 0x14
 8480 2ad6 430D0000 		.4byte	.LASF604
 8481 2ada 29       		.byte	0x29
ARM GAS  /tmp/ccH4KobB.s 			page 150


 8482 2adb B4       		.byte	0xb4
 8483 2adc AE2B0000 		.4byte	0x2bae
 8484 2ae0 040E     		.2byte	0xe04
 8485 2ae2 14       		.uleb128 0x14
 8486 2ae3 D01C0000 		.4byte	.LASF605
 8487 2ae7 29       		.byte	0x29
 8488 2ae8 B5       		.byte	0xb5
 8489 2ae9 CA2B0000 		.4byte	0x2bca
 8490 2aed 0010     		.2byte	0x1000
 8491 2aef 00       		.byte	0
 8492 2af0 0B       		.uleb128 0xb
 8493 2af1 0F090000 		.4byte	0x90f
 8494 2af5 002B0000 		.4byte	0x2b00
 8495 2af9 0C       		.uleb128 0xc
 8496 2afa 25000000 		.4byte	0x25
 8497 2afe 2F       		.byte	0x2f
 8498 2aff 00       		.byte	0
 8499 2b00 05       		.uleb128 0x5
 8500 2b01 F02A0000 		.4byte	0x2af0
 8501 2b05 0B       		.uleb128 0xb
 8502 2b06 0F090000 		.4byte	0x90f
 8503 2b0a 152B0000 		.4byte	0x2b15
 8504 2b0e 0C       		.uleb128 0xc
 8505 2b0f 25000000 		.4byte	0x25
 8506 2b13 AF       		.byte	0xaf
 8507 2b14 00       		.byte	0
 8508 2b15 05       		.uleb128 0x5
 8509 2b16 052B0000 		.4byte	0x2b05
 8510 2b1a 0B       		.uleb128 0xb
 8511 2b1b 0F090000 		.4byte	0x90f
 8512 2b1f 2A2B0000 		.4byte	0x2b2a
 8513 2b23 0C       		.uleb128 0xc
 8514 2b24 25000000 		.4byte	0x25
 8515 2b28 08       		.byte	0x8
 8516 2b29 00       		.byte	0
 8517 2b2a 05       		.uleb128 0x5
 8518 2b2b 1A2B0000 		.4byte	0x2b1a
 8519 2b2f 0B       		.uleb128 0xb
 8520 2b30 0F090000 		.4byte	0x90f
 8521 2b34 3F2B0000 		.4byte	0x2b3f
 8522 2b38 0C       		.uleb128 0xc
 8523 2b39 25000000 		.4byte	0x25
 8524 2b3d 2E       		.byte	0x2e
 8525 2b3e 00       		.byte	0
 8526 2b3f 05       		.uleb128 0x5
 8527 2b40 2F2B0000 		.4byte	0x2b2f
 8528 2b44 0B       		.uleb128 0xb
 8529 2b45 20270000 		.4byte	0x2720
 8530 2b49 542B0000 		.4byte	0x2b54
 8531 2b4d 0C       		.uleb128 0xc
 8532 2b4e 25000000 		.4byte	0x25
 8533 2b52 0F       		.byte	0xf
 8534 2b53 00       		.byte	0
 8535 2b54 0B       		.uleb128 0xb
 8536 2b55 0F090000 		.4byte	0x90f
 8537 2b59 642B0000 		.4byte	0x2b64
 8538 2b5d 0C       		.uleb128 0xc
ARM GAS  /tmp/ccH4KobB.s 			page 151


 8539 2b5e 25000000 		.4byte	0x25
 8540 2b62 3F       		.byte	0x3f
 8541 2b63 00       		.byte	0
 8542 2b64 05       		.uleb128 0x5
 8543 2b65 542B0000 		.4byte	0x2b54
 8544 2b69 0B       		.uleb128 0xb
 8545 2b6a 0F090000 		.4byte	0x90f
 8546 2b6e 792B0000 		.4byte	0x2b79
 8547 2b72 0C       		.uleb128 0xc
 8548 2b73 25000000 		.4byte	0x25
 8549 2b77 0F       		.byte	0xf
 8550 2b78 00       		.byte	0
 8551 2b79 05       		.uleb128 0x5
 8552 2b7a 692B0000 		.4byte	0x2b69
 8553 2b7e 0B       		.uleb128 0xb
 8554 2b7f 94270000 		.4byte	0x2794
 8555 2b83 8E2B0000 		.4byte	0x2b8e
 8556 2b87 0C       		.uleb128 0xc
 8557 2b88 25000000 		.4byte	0x25
 8558 2b8c 0F       		.byte	0xf
 8559 2b8d 00       		.byte	0
 8560 2b8e 0B       		.uleb128 0xb
 8561 2b8f 08280000 		.4byte	0x2808
 8562 2b93 9E2B0000 		.4byte	0x2b9e
 8563 2b97 0C       		.uleb128 0xc
 8564 2b98 25000000 		.4byte	0x25
 8565 2b9c 0F       		.byte	0xf
 8566 2b9d 00       		.byte	0
 8567 2b9e 0B       		.uleb128 0xb
 8568 2b9f 0F090000 		.4byte	0x90f
 8569 2ba3 AE2B0000 		.4byte	0x2bae
 8570 2ba7 0C       		.uleb128 0xc
 8571 2ba8 25000000 		.4byte	0x25
 8572 2bac 7E       		.byte	0x7e
 8573 2bad 00       		.byte	0
 8574 2bae 05       		.uleb128 0x5
 8575 2baf 9E2B0000 		.4byte	0x2b9e
 8576 2bb3 0B       		.uleb128 0xb
 8577 2bb4 0F090000 		.4byte	0x90f
 8578 2bb8 CA2B0000 		.4byte	0x2bca
 8579 2bbc 0C       		.uleb128 0xc
 8580 2bbd 25000000 		.4byte	0x25
 8581 2bc1 0F       		.byte	0xf
 8582 2bc2 2C       		.uleb128 0x2c
 8583 2bc3 25000000 		.4byte	0x25
 8584 2bc7 FF03     		.2byte	0x3ff
 8585 2bc9 00       		.byte	0
 8586 2bca 05       		.uleb128 0x5
 8587 2bcb B32B0000 		.4byte	0x2bb3
 8588 2bcf 04       		.uleb128 0x4
 8589 2bd0 B41E0000 		.4byte	.LASF606
 8590 2bd4 29       		.byte	0x29
 8591 2bd5 B6       		.byte	0xb6
 8592 2bd6 13280000 		.4byte	0x2813
 8593 2bda 0D       		.uleb128 0xd
 8594 2bdb 0C       		.byte	0xc
 8595 2bdc 28       		.byte	0x28
ARM GAS  /tmp/ccH4KobB.s 			page 152


 8596 2bdd C6       		.byte	0xc6
 8597 2bde 072C0000 		.4byte	0x2c07
 8598 2be2 0E       		.uleb128 0xe
 8599 2be3 49070000 		.4byte	.LASF607
 8600 2be7 28       		.byte	0x28
 8601 2be8 C7       		.byte	0xc7
 8602 2be9 04090000 		.4byte	0x904
 8603 2bed 00       		.byte	0
 8604 2bee 0E       		.uleb128 0xe
 8605 2bef F6080000 		.4byte	.LASF608
 8606 2bf3 28       		.byte	0x28
 8607 2bf4 C8       		.byte	0xc8
 8608 2bf5 04090000 		.4byte	0x904
 8609 2bf9 04       		.byte	0x4
 8610 2bfa 0E       		.uleb128 0xe
 8611 2bfb 4C0D0000 		.4byte	.LASF609
 8612 2bff 28       		.byte	0x28
 8613 2c00 C9       		.byte	0xc9
 8614 2c01 04090000 		.4byte	0x904
 8615 2c05 08       		.byte	0x8
 8616 2c06 00       		.byte	0
 8617 2c07 04       		.uleb128 0x4
 8618 2c08 12090000 		.4byte	.LASF610
 8619 2c0c 28       		.byte	0x28
 8620 2c0d CA       		.byte	0xca
 8621 2c0e DA2B0000 		.4byte	0x2bda
 8622 2c12 10       		.uleb128 0x10
 8623 2c13 072C0000 		.4byte	0x2c07
 8624 2c17 0D       		.uleb128 0xd
 8625 2c18 04       		.byte	0x4
 8626 2c19 28       		.byte	0x28
 8627 2c1a DD       		.byte	0xdd
 8628 2c1b 2C2C0000 		.4byte	0x2c2c
 8629 2c1f 0E       		.uleb128 0xe
 8630 2c20 E71C0000 		.4byte	.LASF611
 8631 2c24 28       		.byte	0x28
 8632 2c25 E1       		.byte	0xe1
 8633 2c26 FC170000 		.4byte	0x17fc
 8634 2c2a 00       		.byte	0
 8635 2c2b 00       		.byte	0
 8636 2c2c 0D       		.uleb128 0xd
 8637 2c2d 04       		.byte	0x4
 8638 2c2e 28       		.byte	0x28
 8639 2c2f E3       		.byte	0xe3
 8640 2c30 412C0000 		.4byte	0x2c41
 8641 2c34 0E       		.uleb128 0xe
 8642 2c35 A0070000 		.4byte	.LASF374
 8643 2c39 28       		.byte	0x28
 8644 2c3a E7       		.byte	0xe7
 8645 2c3b 412C0000 		.4byte	0x2c41
 8646 2c3f 00       		.byte	0
 8647 2c40 00       		.byte	0
 8648 2c41 06       		.uleb128 0x6
 8649 2c42 04       		.byte	0x4
 8650 2c43 D8170000 		.4byte	0x17d8
 8651 2c47 09       		.uleb128 0x9
 8652 2c48 04       		.byte	0x4
ARM GAS  /tmp/ccH4KobB.s 			page 153


 8653 2c49 28       		.byte	0x28
 8654 2c4a DC       		.byte	0xdc
 8655 2c4b 662C0000 		.4byte	0x2c66
 8656 2c4f 0A       		.uleb128 0xa
 8657 2c50 6B190000 		.4byte	.LASF612
 8658 2c54 28       		.byte	0x28
 8659 2c55 E2       		.byte	0xe2
 8660 2c56 172C0000 		.4byte	0x2c17
 8661 2c5a 0A       		.uleb128 0xa
 8662 2c5b 82180000 		.4byte	.LASF613
 8663 2c5f 28       		.byte	0x28
 8664 2c60 E8       		.byte	0xe8
 8665 2c61 2C2C0000 		.4byte	0x2c2c
 8666 2c65 00       		.byte	0
 8667 2c66 0D       		.uleb128 0xd
 8668 2c67 14       		.byte	0x14
 8669 2c68 28       		.byte	0x28
 8670 2c69 CF       		.byte	0xcf
 8671 2c6a AB2C0000 		.4byte	0x2cab
 8672 2c6e 0E       		.uleb128 0xe
 8673 2c6f 2D060000 		.4byte	.LASF614
 8674 2c73 28       		.byte	0x28
 8675 2c74 D3       		.byte	0xd3
 8676 2c75 5D180000 		.4byte	0x185d
 8677 2c79 00       		.byte	0
 8678 2c7a 0E       		.uleb128 0xe
 8679 2c7b F30F0000 		.4byte	.LASF615
 8680 2c7f 28       		.byte	0x28
 8681 2c80 D7       		.byte	0xd7
 8682 2c81 33000000 		.4byte	0x33
 8683 2c85 04       		.byte	0x4
 8684 2c86 0E       		.uleb128 0xe
 8685 2c87 C8080000 		.4byte	.LASF616
 8686 2c8b 28       		.byte	0x28
 8687 2c8c DB       		.byte	0xdb
 8688 2c8d 33000000 		.4byte	0x33
 8689 2c91 08       		.byte	0x8
 8690 2c92 0E       		.uleb128 0xe
 8691 2c93 C9060000 		.4byte	.LASF442
 8692 2c97 28       		.byte	0x28
 8693 2c98 E9       		.byte	0xe9
 8694 2c99 472C0000 		.4byte	0x2c47
 8695 2c9d 0C       		.byte	0xc
 8696 2c9e 0E       		.uleb128 0xe
 8697 2c9f 5A0D0000 		.4byte	.LASF617
 8698 2ca3 28       		.byte	0x28
 8699 2ca4 ED       		.byte	0xed
 8700 2ca5 33000000 		.4byte	0x33
 8701 2ca9 10       		.byte	0x10
 8702 2caa 00       		.byte	0
 8703 2cab 04       		.uleb128 0x4
 8704 2cac 2D0E0000 		.4byte	.LASF618
 8705 2cb0 28       		.byte	0x28
 8706 2cb1 EE       		.byte	0xee
 8707 2cb2 662C0000 		.4byte	0x2c66
 8708 2cb6 1C       		.uleb128 0x1c
 8709 2cb7 04       		.byte	0x4
ARM GAS  /tmp/ccH4KobB.s 			page 154


 8710 2cb8 28       		.byte	0x28
 8711 2cb9 0101     		.2byte	0x101
 8712 2cbb CD2C0000 		.4byte	0x2ccd
 8713 2cbf 19       		.uleb128 0x19
 8714 2cc0 35090000 		.4byte	.LASF619
 8715 2cc4 28       		.byte	0x28
 8716 2cc5 0501     		.2byte	0x105
 8717 2cc7 C7170000 		.4byte	0x17c7
 8718 2ccb 00       		.byte	0
 8719 2ccc 00       		.byte	0
 8720 2ccd 1C       		.uleb128 0x1c
 8721 2cce 04       		.byte	0x4
 8722 2ccf 28       		.byte	0x28
 8723 2cd0 0701     		.2byte	0x107
 8724 2cd2 E42C0000 		.4byte	0x2ce4
 8725 2cd6 19       		.uleb128 0x19
 8726 2cd7 3B190000 		.4byte	.LASF375
 8727 2cdb 28       		.byte	0x28
 8728 2cdc 0B01     		.2byte	0x10b
 8729 2cde E42C0000 		.4byte	0x2ce4
 8730 2ce2 00       		.byte	0
 8731 2ce3 00       		.byte	0
 8732 2ce4 06       		.uleb128 0x6
 8733 2ce5 04       		.byte	0x4
 8734 2ce6 CD170000 		.4byte	0x17cd
 8735 2cea 1D       		.uleb128 0x1d
 8736 2ceb 04       		.byte	0x4
 8737 2cec 28       		.byte	0x28
 8738 2ced 0001     		.2byte	0x100
 8739 2cef 0C2D0000 		.4byte	0x2d0c
 8740 2cf3 1E       		.uleb128 0x1e
 8741 2cf4 6B190000 		.4byte	.LASF612
 8742 2cf8 28       		.byte	0x28
 8743 2cf9 0601     		.2byte	0x106
 8744 2cfb B62C0000 		.4byte	0x2cb6
 8745 2cff 1E       		.uleb128 0x1e
 8746 2d00 82180000 		.4byte	.LASF613
 8747 2d04 28       		.byte	0x28
 8748 2d05 0C01     		.2byte	0x10c
 8749 2d07 CD2C0000 		.4byte	0x2ccd
 8750 2d0b 00       		.byte	0
 8751 2d0c 0D       		.uleb128 0xd
 8752 2d0d 14       		.byte	0x14
 8753 2d0e 28       		.byte	0x28
 8754 2d0f F3       		.byte	0xf3
 8755 2d10 532D0000 		.4byte	0x2d53
 8756 2d14 0E       		.uleb128 0xe
 8757 2d15 CA040000 		.4byte	.LASF620
 8758 2d19 28       		.byte	0x28
 8759 2d1a F7       		.byte	0xf7
 8760 2d1b 5D180000 		.4byte	0x185d
 8761 2d1f 00       		.byte	0
 8762 2d20 0E       		.uleb128 0xe
 8763 2d21 9A100000 		.4byte	.LASF621
 8764 2d25 28       		.byte	0x28
 8765 2d26 FB       		.byte	0xfb
 8766 2d27 33000000 		.4byte	0x33
ARM GAS  /tmp/ccH4KobB.s 			page 155


 8767 2d2b 04       		.byte	0x4
 8768 2d2c 0E       		.uleb128 0xe
 8769 2d2d AF060000 		.4byte	.LASF622
 8770 2d31 28       		.byte	0x28
 8771 2d32 FF       		.byte	0xff
 8772 2d33 33000000 		.4byte	0x33
 8773 2d37 08       		.byte	0x8
 8774 2d38 19       		.uleb128 0x19
 8775 2d39 C9060000 		.4byte	.LASF442
 8776 2d3d 28       		.byte	0x28
 8777 2d3e 0D01     		.2byte	0x10d
 8778 2d40 EA2C0000 		.4byte	0x2cea
 8779 2d44 0C       		.byte	0xc
 8780 2d45 19       		.uleb128 0x19
 8781 2d46 5A0D0000 		.4byte	.LASF617
 8782 2d4a 28       		.byte	0x28
 8783 2d4b 1101     		.2byte	0x111
 8784 2d4d 33000000 		.4byte	0x33
 8785 2d51 10       		.byte	0x10
 8786 2d52 00       		.byte	0
 8787 2d53 08       		.uleb128 0x8
 8788 2d54 AF170000 		.4byte	.LASF623
 8789 2d58 28       		.byte	0x28
 8790 2d59 1201     		.2byte	0x112
 8791 2d5b 0C2D0000 		.4byte	0x2d0c
 8792 2d5f 1C       		.uleb128 0x1c
 8793 2d60 24       		.byte	0x24
 8794 2d61 28       		.byte	0x28
 8795 2d62 1801     		.2byte	0x118
 8796 2d64 EB2D0000 		.4byte	0x2deb
 8797 2d68 19       		.uleb128 0x19
 8798 2d69 51130000 		.4byte	.LASF624
 8799 2d6d 28       		.byte	0x28
 8800 2d6e 1C01     		.2byte	0x11c
 8801 2d70 04090000 		.4byte	0x904
 8802 2d74 00       		.byte	0
 8803 2d75 19       		.uleb128 0x19
 8804 2d76 72070000 		.4byte	.LASF625
 8805 2d7a 28       		.byte	0x28
 8806 2d7b 2701     		.2byte	0x127
 8807 2d7d 1C260000 		.4byte	0x261c
 8808 2d81 04       		.byte	0x4
 8809 2d82 19       		.uleb128 0x19
 8810 2d83 0F140000 		.4byte	.LASF626
 8811 2d87 28       		.byte	0x28
 8812 2d88 2D01     		.2byte	0x12d
 8813 2d8a 1C260000 		.4byte	0x261c
 8814 2d8e 08       		.byte	0x8
 8815 2d8f 19       		.uleb128 0x19
 8816 2d90 C20A0000 		.4byte	.LASF627
 8817 2d94 28       		.byte	0x28
 8818 2d95 3301     		.2byte	0x133
 8819 2d97 1C260000 		.4byte	0x261c
 8820 2d9b 0C       		.byte	0xc
 8821 2d9c 19       		.uleb128 0x19
 8822 2d9d F61E0000 		.4byte	.LASF628
 8823 2da1 28       		.byte	0x28
ARM GAS  /tmp/ccH4KobB.s 			page 156


 8824 2da2 3901     		.2byte	0x139
 8825 2da4 E9080000 		.4byte	0x8e9
 8826 2da8 10       		.byte	0x10
 8827 2da9 19       		.uleb128 0x19
 8828 2daa CA0D0000 		.4byte	.LASF629
 8829 2dae 28       		.byte	0x28
 8830 2daf 3F01     		.2byte	0x13f
 8831 2db1 E9080000 		.4byte	0x8e9
 8832 2db5 12       		.byte	0x12
 8833 2db6 19       		.uleb128 0x19
 8834 2db7 8F1D0000 		.4byte	.LASF630
 8835 2dbb 28       		.byte	0x28
 8836 2dbc 4401     		.2byte	0x144
 8837 2dbe EB2D0000 		.4byte	0x2deb
 8838 2dc2 14       		.byte	0x14
 8839 2dc3 19       		.uleb128 0x19
 8840 2dc4 6F0C0000 		.4byte	.LASF631
 8841 2dc8 28       		.byte	0x28
 8842 2dc9 4901     		.2byte	0x149
 8843 2dcb F12D0000 		.4byte	0x2df1
 8844 2dcf 18       		.byte	0x18
 8845 2dd0 19       		.uleb128 0x19
 8846 2dd1 820F0000 		.4byte	.LASF632
 8847 2dd5 28       		.byte	0x28
 8848 2dd6 5001     		.2byte	0x150
 8849 2dd8 E9080000 		.4byte	0x8e9
 8850 2ddc 1C       		.byte	0x1c
 8851 2ddd 19       		.uleb128 0x19
 8852 2dde 231D0000 		.4byte	.LASF633
 8853 2de2 28       		.byte	0x28
 8854 2de3 5601     		.2byte	0x156
 8855 2de5 C7170000 		.4byte	0x17c7
 8856 2de9 20       		.byte	0x20
 8857 2dea 00       		.byte	0
 8858 2deb 06       		.uleb128 0x6
 8859 2dec 04       		.byte	0x4
 8860 2ded AB2C0000 		.4byte	0x2cab
 8861 2df1 06       		.uleb128 0x6
 8862 2df2 04       		.byte	0x4
 8863 2df3 532D0000 		.4byte	0x2d53
 8864 2df7 08       		.uleb128 0x8
 8865 2df8 29190000 		.4byte	.LASF634
 8866 2dfc 28       		.byte	0x28
 8867 2dfd 5701     		.2byte	0x157
 8868 2dff 5F2D0000 		.4byte	0x2d5f
 8869 2e03 10       		.uleb128 0x10
 8870 2e04 F72D0000 		.4byte	0x2df7
 8871 2e08 1C       		.uleb128 0x1c
 8872 2e09 10       		.byte	0x10
 8873 2e0a 28       		.byte	0x28
 8874 2e0b 5C01     		.2byte	0x15c
 8875 2e0d 462E0000 		.4byte	0x2e46
 8876 2e11 19       		.uleb128 0x19
 8877 2e12 F5030000 		.4byte	.LASF635
 8878 2e16 28       		.byte	0x28
 8879 2e17 6101     		.2byte	0x161
 8880 2e19 3E260000 		.4byte	0x263e
ARM GAS  /tmp/ccH4KobB.s 			page 157


 8881 2e1d 00       		.byte	0
 8882 2e1e 19       		.uleb128 0x19
 8883 2e1f 891C0000 		.4byte	.LASF636
 8884 2e23 28       		.byte	0x28
 8885 2e24 6601     		.2byte	0x166
 8886 2e26 81260000 		.4byte	0x2681
 8887 2e2a 04       		.byte	0x4
 8888 2e2b 19       		.uleb128 0x19
 8889 2e2c D30F0000 		.4byte	.LASF637
 8890 2e30 28       		.byte	0x28
 8891 2e31 6C01     		.2byte	0x16c
 8892 2e33 60260000 		.4byte	0x2660
 8893 2e37 08       		.byte	0x8
 8894 2e38 19       		.uleb128 0x19
 8895 2e39 8D010000 		.4byte	.LASF638
 8896 2e3d 28       		.byte	0x28
 8897 2e3e 7001     		.2byte	0x170
 8898 2e40 F9250000 		.4byte	0x25f9
 8899 2e44 0C       		.byte	0xc
 8900 2e45 00       		.byte	0
 8901 2e46 08       		.uleb128 0x8
 8902 2e47 220F0000 		.4byte	.LASF639
 8903 2e4b 28       		.byte	0x28
 8904 2e4c 7201     		.2byte	0x172
 8905 2e4e 082E0000 		.4byte	0x2e08
 8906 2e52 10       		.uleb128 0x10
 8907 2e53 462E0000 		.4byte	0x2e46
 8908 2e57 06       		.uleb128 0x6
 8909 2e58 04       		.byte	0x4
 8910 2e59 522E0000 		.4byte	0x2e52
 8911 2e5d 0B       		.uleb128 0xb
 8912 2e5e 6D2E0000 		.4byte	0x2e6d
 8913 2e62 6D2E0000 		.4byte	0x2e6d
 8914 2e66 0C       		.uleb128 0xc
 8915 2e67 25000000 		.4byte	0x25
 8916 2e6b 03       		.byte	0x3
 8917 2e6c 00       		.byte	0
 8918 2e6d 06       		.uleb128 0x6
 8919 2e6e 04       		.byte	0x4
 8920 2e6f 032E0000 		.4byte	0x2e03
 8921 2e73 0B       		.uleb128 0xb
 8922 2e74 50010000 		.4byte	0x150
 8923 2e78 832E0000 		.4byte	0x2e83
 8924 2e7c 0C       		.uleb128 0xc
 8925 2e7d 25000000 		.4byte	0x25
 8926 2e81 02       		.byte	0x2
 8927 2e82 00       		.byte	0
 8928 2e83 06       		.uleb128 0x6
 8929 2e84 04       		.byte	0x4
 8930 2e85 CF2B0000 		.4byte	0x2bcf
 8931 2e89 06       		.uleb128 0x6
 8932 2e8a 04       		.byte	0x4
 8933 2e8b 122C0000 		.4byte	0x2c12
 8934 2e8f 0B       		.uleb128 0xb
 8935 2e90 21130000 		.4byte	0x1321
 8936 2e94 9F2E0000 		.4byte	0x2e9f
 8937 2e98 0C       		.uleb128 0xc
ARM GAS  /tmp/ccH4KobB.s 			page 158


 8938 2e99 25000000 		.4byte	0x25
 8939 2e9d 42       		.byte	0x42
 8940 2e9e 00       		.byte	0
 8941 2e9f 20       		.uleb128 0x20
 8942 2ea0 74000000 		.4byte	.LASF640
 8943 2ea4 28       		.byte	0x28
 8944 2ea5 0602     		.2byte	0x206
 8945 2ea7 98230000 		.4byte	0x2398
 8946 2eab 2D       		.uleb128 0x2d
 8947 2eac 9F2E0000 		.4byte	0x2e9f
 8948 2eb0 01       		.byte	0x1
 8949 2eb1 2E       		.byte	0x2e
 8950 2eb2 05       		.uleb128 0x5
 8951 2eb3 03       		.byte	0x3
 8952 2eb4 00000000 		.4byte	USBD1
 8953 2eb8 09       		.uleb128 0x9
 8954 2eb9 14       		.byte	0x14
 8955 2eba 01       		.byte	0x1
 8956 2ebb 3F       		.byte	0x3f
 8957 2ebc D62E0000 		.4byte	0x2ed6
 8958 2ec0 26       		.uleb128 0x26
 8959 2ec1 696E00   		.ascii	"in\000"
 8960 2ec4 01       		.byte	0x1
 8961 2ec5 43       		.byte	0x43
 8962 2ec6 AB2C0000 		.4byte	0x2cab
 8963 2eca 26       		.uleb128 0x26
 8964 2ecb 6F757400 		.ascii	"out\000"
 8965 2ecf 01       		.byte	0x1
 8966 2ed0 47       		.byte	0x47
 8967 2ed1 532D0000 		.4byte	0x2d53
 8968 2ed5 00       		.byte	0
 8969 2ed6 2E       		.uleb128 0x2e
 8970 2ed7 27160000 		.4byte	.LASF641
 8971 2edb 01       		.byte	0x1
 8972 2edc 48       		.byte	0x48
 8973 2edd B82E0000 		.4byte	0x2eb8
 8974 2ee1 05       		.uleb128 0x5
 8975 2ee2 03       		.byte	0x3
 8976 2ee3 00000000 		.4byte	ep0_state
 8977 2ee7 2E       		.uleb128 0x2e
 8978 2ee8 E8070000 		.4byte	.LASF642
 8979 2eec 01       		.byte	0x1
 8980 2eed 4D       		.byte	0x4d
 8981 2eee 64180000 		.4byte	0x1864
 8982 2ef2 05       		.uleb128 0x5
 8983 2ef3 03       		.byte	0x3
 8984 2ef4 00000000 		.4byte	ep0setup_buffer
 8985 2ef8 2E       		.uleb128 0x2e
 8986 2ef9 55020000 		.4byte	.LASF643
 8987 2efd 01       		.byte	0x1
 8988 2efe 52       		.byte	0x52
 8989 2eff 032E0000 		.4byte	0x2e03
 8990 2f03 05       		.uleb128 0x5
 8991 2f04 03       		.byte	0x3
 8992 2f05 00000000 		.4byte	ep0config
 8993 2f09 2E       		.uleb128 0x2e
 8994 2f0a 2F050000 		.4byte	.LASF644
ARM GAS  /tmp/ccH4KobB.s 			page 159


 8995 2f0e 01       		.byte	0x1
 8996 2f0f 60       		.byte	0x60
 8997 2f10 122C0000 		.4byte	0x2c12
 8998 2f14 05       		.uleb128 0x5
 8999 2f15 03       		.byte	0x3
 9000 2f16 00000000 		.4byte	fsparams
 9001 2f1a 2F       		.uleb128 0x2f
 9002 2f1b C1150000 		.4byte	.LASF648
 9003 2f1f 01       		.byte	0x1
 9004 2f20 0E05     		.2byte	0x50e
 9005 2f22 00000000 		.4byte	.LFB292
 9006 2f26 8A030000 		.4byte	.LFE292-.LFB292
 9007 2f2a 01       		.uleb128 0x1
 9008 2f2b 9C       		.byte	0x9c
 9009 2f2c B5360000 		.4byte	0x36b5
 9010 2f30 30       		.uleb128 0x30
 9011 2f31 7000     		.ascii	"p\000"
 9012 2f33 01       		.byte	0x1
 9013 2f34 0E05     		.2byte	0x50e
 9014 2f36 50010000 		.4byte	0x150
 9015 2f3a 00000000 		.4byte	.LLST0
 9016 2f3e 31       		.uleb128 0x31
 9017 2f3f 4F1B0000 		.4byte	.LASF645
 9018 2f43 01       		.byte	0x1
 9019 2f44 0F05     		.2byte	0x50f
 9020 2f46 16260000 		.4byte	0x2616
 9021 2f4a 1E000000 		.4byte	.LLST1
 9022 2f4e 31       		.uleb128 0x31
 9023 2f4f 82160000 		.4byte	.LASF646
 9024 2f53 01       		.byte	0x1
 9025 2f54 1005     		.2byte	0x510
 9026 2f56 832E0000 		.4byte	0x2e83
 9027 2f5a 3C000000 		.4byte	.LLST2
 9028 2f5e 32       		.uleb128 0x32
 9029 2f5f 16000000 		.4byte	.LBB431
 9030 2f63 74030000 		.4byte	.LBE431-.LBB431
 9031 2f67 49360000 		.4byte	0x3649
 9032 2f6b 33       		.uleb128 0x33
 9033 2f6c 657000   		.ascii	"ep\000"
 9034 2f6f 01       		.byte	0x1
 9035 2f70 1705     		.2byte	0x517
 9036 2f72 CF240000 		.4byte	0x24cf
 9037 2f76 4F000000 		.4byte	.LLST5
 9038 2f7a 31       		.uleb128 0x31
 9039 2f7b FF140000 		.4byte	.LASF647
 9040 2f7f 01       		.byte	0x1
 9041 2f80 1805     		.2byte	0x518
 9042 2f82 04090000 		.4byte	0x904
 9043 2f86 6E000000 		.4byte	.LLST6
 9044 2f8a 32       		.uleb128 0x32
 9045 2f8b B8010000 		.4byte	.LBB496
 9046 2f8f D2010000 		.4byte	.LBE496-.LBB496
 9047 2f93 1E330000 		.4byte	0x331e
 9048 2f97 34       		.uleb128 0x34
 9049 2f98 0A060000 		.4byte	.LASF670
 9050 2f9c 01       		.byte	0x1
 9051 2f9d 2C05     		.2byte	0x52c
ARM GAS  /tmp/ccH4KobB.s 			page 160


 9052 2f9f 5D180000 		.4byte	0x185d
 9053 2fa3 35       		.uleb128 0x35
 9054 2fa4 7B450000 		.4byte	0x457b
 9055 2fa8 B8010000 		.4byte	.LBB497
 9056 2fac 06000000 		.4byte	.LBE497-.LBB497
 9057 2fb0 01       		.byte	0x1
 9058 2fb1 2E05     		.2byte	0x52e
 9059 2fb3 F42F0000 		.4byte	0x2ff4
 9060 2fb7 36       		.uleb128 0x36
 9061 2fb8 06460000 		.4byte	0x4606
 9062 2fbc B8010000 		.4byte	.LBB498
 9063 2fc0 06000000 		.4byte	.LBE498-.LBB498
 9064 2fc4 04       		.byte	0x4
 9065 2fc5 ED01     		.2byte	0x1ed
 9066 2fc7 36       		.uleb128 0x36
 9067 2fc8 2A460000 		.4byte	0x462a
 9068 2fcc B8010000 		.4byte	.LBB499
 9069 2fd0 06000000 		.4byte	.LBE499-.LBB499
 9070 2fd4 2A       		.byte	0x2a
 9071 2fd5 5C01     		.2byte	0x15c
 9072 2fd7 36       		.uleb128 0x36
 9073 2fd8 33460000 		.4byte	0x4633
 9074 2fdc B8010000 		.4byte	.LBB500
 9075 2fe0 06000000 		.4byte	.LBE500-.LBB500
 9076 2fe4 13       		.byte	0x13
 9077 2fe5 BF01     		.2byte	0x1bf
 9078 2fe7 37       		.uleb128 0x37
 9079 2fe8 40460000 		.4byte	0x4640
 9080 2fec AF000000 		.4byte	.LLST35
 9081 2ff0 00       		.byte	0
 9082 2ff1 00       		.byte	0
 9083 2ff2 00       		.byte	0
 9084 2ff3 00       		.byte	0
 9085 2ff4 35       		.uleb128 0x35
 9086 2ff5 72450000 		.4byte	0x4572
 9087 2ff9 D2010000 		.4byte	.LBB502
 9088 2ffd 0A000000 		.4byte	.LBE502-.LBB502
 9089 3001 01       		.byte	0x1
 9090 3002 3805     		.2byte	0x538
 9091 3004 4F300000 		.4byte	0x304f
 9092 3008 36       		.uleb128 0x36
 9093 3009 EB450000 		.4byte	0x45eb
 9094 300d D2010000 		.4byte	.LBB503
 9095 3011 0A000000 		.4byte	.LBE503-.LBB503
 9096 3015 04       		.byte	0x4
 9097 3016 F801     		.2byte	0x1f8
 9098 3018 38       		.uleb128 0x38
 9099 3019 D2010000 		.4byte	.LBB504
 9100 301d 0A000000 		.4byte	.LBE504-.LBB504
 9101 3021 36       		.uleb128 0x36
 9102 3022 21460000 		.4byte	0x4621
 9103 3026 D2010000 		.4byte	.LBB505
 9104 302a 0A000000 		.4byte	.LBE505-.LBB505
 9105 302e 2A       		.byte	0x2a
 9106 302f 7301     		.2byte	0x173
 9107 3031 36       		.uleb128 0x36
 9108 3032 33460000 		.4byte	0x4633
ARM GAS  /tmp/ccH4KobB.s 			page 161


 9109 3036 D2010000 		.4byte	.LBB506
 9110 303a 0A000000 		.4byte	.LBE506-.LBB506
 9111 303e 13       		.byte	0x13
 9112 303f CD01     		.2byte	0x1cd
 9113 3041 37       		.uleb128 0x37
 9114 3042 40460000 		.4byte	0x4640
 9115 3046 C4000000 		.4byte	.LLST36
 9116 304a 00       		.byte	0
 9117 304b 00       		.byte	0
 9118 304c 00       		.byte	0
 9119 304d 00       		.byte	0
 9120 304e 00       		.byte	0
 9121 304f 39       		.uleb128 0x39
 9122 3050 7D410000 		.4byte	0x417d
 9123 3054 DC010000 		.4byte	.LBB508
 9124 3058 F8000000 		.4byte	.Ldebug_ranges0+0xf8
 9125 305c 01       		.byte	0x1
 9126 305d 3A05     		.2byte	0x53a
 9127 305f 75320000 		.4byte	0x3275
 9128 3063 3A       		.uleb128 0x3a
 9129 3064 9A410000 		.4byte	0x419a
 9130 3068 37       		.uleb128 0x37
 9131 3069 8E410000 		.4byte	0x418e
 9132 306d D8000000 		.4byte	.LLST37
 9133 3071 3B       		.uleb128 0x3b
 9134 3072 A5410000 		.4byte	0x41a5
 9135 3076 F8000000 		.4byte	.Ldebug_ranges0+0xf8
 9136 307a 3C       		.uleb128 0x3c
 9137 307b A6410000 		.4byte	0x41a6
 9138 307f F6000000 		.4byte	.LLST38
 9139 3083 39       		.uleb128 0x39
 9140 3084 EE420000 		.4byte	0x42ee
 9141 3088 2A020000 		.4byte	.LBB510
 9142 308c 10010000 		.4byte	.Ldebug_ranges0+0x110
 9143 3090 01       		.byte	0x1
 9144 3091 FB01     		.2byte	0x1fb
 9145 3093 23320000 		.4byte	0x3223
 9146 3097 37       		.uleb128 0x37
 9147 3098 13430000 		.4byte	0x4313
 9148 309c 2A010000 		.4byte	.LLST39
 9149 30a0 37       		.uleb128 0x37
 9150 30a1 07430000 		.4byte	0x4307
 9151 30a5 53010000 		.4byte	.LLST40
 9152 30a9 3A       		.uleb128 0x3a
 9153 30aa FB420000 		.4byte	0x42fb
 9154 30ae 3D       		.uleb128 0x3d
 9155 30af 10010000 		.4byte	.Ldebug_ranges0+0x110
 9156 30b3 3C       		.uleb128 0x3c
 9157 30b4 1D430000 		.4byte	0x431d
 9158 30b8 67010000 		.4byte	.LLST41
 9159 30bc 3E       		.uleb128 0x3e
 9160 30bd 29430000 		.4byte	0x4329
 9161 30c1 30010000 		.4byte	.Ldebug_ranges0+0x130
 9162 30c5 25310000 		.4byte	0x3125
 9163 30c9 3C       		.uleb128 0x3c
 9164 30ca 2A430000 		.4byte	0x432a
 9165 30ce B3010000 		.4byte	.LLST42
ARM GAS  /tmp/ccH4KobB.s 			page 162


 9166 30d2 3F       		.uleb128 0x3f
 9167 30d3 34430000 		.4byte	0x4334
 9168 30d7 3C       		.uleb128 0x3c
 9169 30d8 3E430000 		.4byte	0x433e
 9170 30dc C6010000 		.4byte	.LLST43
 9171 30e0 3B       		.uleb128 0x3b
 9172 30e1 49430000 		.4byte	0x4349
 9173 30e5 50010000 		.4byte	.Ldebug_ranges0+0x150
 9174 30e9 3C       		.uleb128 0x3c
 9175 30ea 4A430000 		.4byte	0x434a
 9176 30ee FE010000 		.4byte	.LLST44
 9177 30f2 3C       		.uleb128 0x3c
 9178 30f3 56430000 		.4byte	0x4356
 9179 30f7 73020000 		.4byte	.LLST45
 9180 30fb 40       		.uleb128 0x40
 9181 30fc 91430000 		.4byte	0x4391
 9182 3100 4C020000 		.4byte	.LBB514
 9183 3104 70010000 		.4byte	.Ldebug_ranges0+0x170
 9184 3108 01       		.byte	0x1
 9185 3109 1B01     		.2byte	0x11b
 9186 310b 37       		.uleb128 0x37
 9187 310c B7430000 		.4byte	0x43b7
 9188 3110 B2020000 		.4byte	.LLST46
 9189 3114 37       		.uleb128 0x37
 9190 3115 AC430000 		.4byte	0x43ac
 9191 3119 D0020000 		.4byte	.LLST47
 9192 311d 3A       		.uleb128 0x3a
 9193 311e A1430000 		.4byte	0x43a1
 9194 3122 00       		.byte	0
 9195 3123 00       		.byte	0
 9196 3124 00       		.byte	0
 9197 3125 35       		.uleb128 0x35
 9198 3126 7B450000 		.4byte	0x457b
 9199 312a 6C020000 		.4byte	.LBB520
 9200 312e 06000000 		.4byte	.LBE520-.LBB520
 9201 3132 01       		.byte	0x1
 9202 3133 3501     		.2byte	0x135
 9203 3135 76310000 		.4byte	0x3176
 9204 3139 36       		.uleb128 0x36
 9205 313a 06460000 		.4byte	0x4606
 9206 313e 6C020000 		.4byte	.LBB521
 9207 3142 06000000 		.4byte	.LBE521-.LBB521
 9208 3146 04       		.byte	0x4
 9209 3147 ED01     		.2byte	0x1ed
 9210 3149 36       		.uleb128 0x36
 9211 314a 2A460000 		.4byte	0x462a
 9212 314e 6C020000 		.4byte	.LBB522
 9213 3152 06000000 		.4byte	.LBE522-.LBB522
 9214 3156 2A       		.byte	0x2a
 9215 3157 5C01     		.2byte	0x15c
 9216 3159 36       		.uleb128 0x36
 9217 315a 33460000 		.4byte	0x4633
 9218 315e 6C020000 		.4byte	.LBB523
 9219 3162 06000000 		.4byte	.LBE523-.LBB523
 9220 3166 13       		.byte	0x13
 9221 3167 BF01     		.2byte	0x1bf
 9222 3169 37       		.uleb128 0x37
ARM GAS  /tmp/ccH4KobB.s 			page 163


 9223 316a 40460000 		.4byte	0x4640
 9224 316e FB020000 		.4byte	.LLST48
 9225 3172 00       		.byte	0
 9226 3173 00       		.byte	0
 9227 3174 00       		.byte	0
 9228 3175 00       		.byte	0
 9229 3176 35       		.uleb128 0x35
 9230 3177 CD440000 		.4byte	0x44cd
 9231 317b 78020000 		.4byte	.LBB525
 9232 317f 06000000 		.4byte	.LBE525-.LBB525
 9233 3183 01       		.byte	0x1
 9234 3184 3701     		.2byte	0x137
 9235 3186 AC310000 		.4byte	0x31ac
 9236 318a 37       		.uleb128 0x37
 9237 318b E6440000 		.4byte	0x44e6
 9238 318f 10030000 		.4byte	.LLST49
 9239 3193 37       		.uleb128 0x37
 9240 3194 DA440000 		.4byte	0x44da
 9241 3198 24030000 		.4byte	.LLST50
 9242 319c 41       		.uleb128 0x41
 9243 319d 7E020000 		.4byte	.LVL84
 9244 31a1 804A0000 		.4byte	0x4a80
 9245 31a5 42       		.uleb128 0x42
 9246 31a6 01       		.uleb128 0x1
 9247 31a7 51       		.byte	0x51
 9248 31a8 01       		.uleb128 0x1
 9249 31a9 30       		.byte	0x30
 9250 31aa 00       		.byte	0
 9251 31ab 00       		.byte	0
 9252 31ac 35       		.uleb128 0x35
 9253 31ad 3D450000 		.4byte	0x453d
 9254 31b1 7E020000 		.4byte	.LBB527
 9255 31b5 04000000 		.4byte	.LBE527-.LBB527
 9256 31b9 01       		.byte	0x1
 9257 31ba 3801     		.2byte	0x138
 9258 31bc CA310000 		.4byte	0x31ca
 9259 31c0 43       		.uleb128 0x43
 9260 31c1 82020000 		.4byte	.LVL85
 9261 31c5 8B4A0000 		.4byte	0x4a8b
 9262 31c9 00       		.byte	0
 9263 31ca 36       		.uleb128 0x36
 9264 31cb 72450000 		.4byte	0x4572
 9265 31cf 82020000 		.4byte	.LBB529
 9266 31d3 0A000000 		.4byte	.LBE529-.LBB529
 9267 31d7 01       		.byte	0x1
 9268 31d8 3901     		.2byte	0x139
 9269 31da 36       		.uleb128 0x36
 9270 31db EB450000 		.4byte	0x45eb
 9271 31df 82020000 		.4byte	.LBB530
 9272 31e3 0A000000 		.4byte	.LBE530-.LBB530
 9273 31e7 04       		.byte	0x4
 9274 31e8 F801     		.2byte	0x1f8
 9275 31ea 38       		.uleb128 0x38
 9276 31eb 82020000 		.4byte	.LBB531
 9277 31ef 0A000000 		.4byte	.LBE531-.LBB531
 9278 31f3 36       		.uleb128 0x36
 9279 31f4 21460000 		.4byte	0x4621
ARM GAS  /tmp/ccH4KobB.s 			page 164


 9280 31f8 82020000 		.4byte	.LBB532
 9281 31fc 0A000000 		.4byte	.LBE532-.LBB532
 9282 3200 2A       		.byte	0x2a
 9283 3201 7301     		.2byte	0x173
 9284 3203 36       		.uleb128 0x36
 9285 3204 33460000 		.4byte	0x4633
 9286 3208 82020000 		.4byte	.LBB533
 9287 320c 0A000000 		.4byte	.LBE533-.LBB533
 9288 3210 13       		.byte	0x13
 9289 3211 CD01     		.2byte	0x1cd
 9290 3213 37       		.uleb128 0x37
 9291 3214 40460000 		.4byte	0x4640
 9292 3218 37030000 		.4byte	.LLST51
 9293 321c 00       		.byte	0
 9294 321d 00       		.byte	0
 9295 321e 00       		.byte	0
 9296 321f 00       		.byte	0
 9297 3220 00       		.byte	0
 9298 3221 00       		.byte	0
 9299 3222 00       		.byte	0
 9300 3223 36       		.uleb128 0x36
 9301 3224 65430000 		.4byte	0x4365
 9302 3228 28030000 		.4byte	.LBB540
 9303 322c 1C000000 		.4byte	.LBE540-.LBB540
 9304 3230 01       		.byte	0x1
 9305 3231 0102     		.2byte	0x201
 9306 3233 37       		.uleb128 0x37
 9307 3234 87430000 		.4byte	0x4387
 9308 3238 4B030000 		.4byte	.LLST52
 9309 323c 37       		.uleb128 0x37
 9310 323d 7C430000 		.4byte	0x437c
 9311 3241 5E030000 		.4byte	.LLST53
 9312 3245 3A       		.uleb128 0x3a
 9313 3246 71430000 		.4byte	0x4371
 9314 324a 36       		.uleb128 0x36
 9315 324b 91430000 		.4byte	0x4391
 9316 324f 2A030000 		.4byte	.LBB542
 9317 3253 1A000000 		.4byte	.LBE542-.LBB542
 9318 3257 01       		.byte	0x1
 9319 3258 0001     		.2byte	0x100
 9320 325a 37       		.uleb128 0x37
 9321 325b B7430000 		.4byte	0x43b7
 9322 325f 72030000 		.4byte	.LLST54
 9323 3263 37       		.uleb128 0x37
 9324 3264 AC430000 		.4byte	0x43ac
 9325 3268 94030000 		.4byte	.LLST55
 9326 326c 3A       		.uleb128 0x3a
 9327 326d A1430000 		.4byte	0x43a1
 9328 3271 00       		.byte	0
 9329 3272 00       		.byte	0
 9330 3273 00       		.byte	0
 9331 3274 00       		.byte	0
 9332 3275 39       		.uleb128 0x39
 9333 3276 7B450000 		.4byte	0x457b
 9334 327a C0020000 		.4byte	.LBB546
 9335 327e 88010000 		.4byte	.Ldebug_ranges0+0x188
 9336 3282 01       		.byte	0x1
ARM GAS  /tmp/ccH4KobB.s 			page 165


 9337 3283 3C05     		.2byte	0x53c
 9338 3285 C6320000 		.4byte	0x32c6
 9339 3289 40       		.uleb128 0x40
 9340 328a 06460000 		.4byte	0x4606
 9341 328e C0020000 		.4byte	.LBB547
 9342 3292 88010000 		.4byte	.Ldebug_ranges0+0x188
 9343 3296 04       		.byte	0x4
 9344 3297 ED01     		.2byte	0x1ed
 9345 3299 40       		.uleb128 0x40
 9346 329a 2A460000 		.4byte	0x462a
 9347 329e C0020000 		.4byte	.LBB548
 9348 32a2 88010000 		.4byte	.Ldebug_ranges0+0x188
 9349 32a6 2A       		.byte	0x2a
 9350 32a7 5C01     		.2byte	0x15c
 9351 32a9 40       		.uleb128 0x40
 9352 32aa 33460000 		.4byte	0x4633
 9353 32ae C0020000 		.4byte	.LBB549
 9354 32b2 88010000 		.4byte	.Ldebug_ranges0+0x188
 9355 32b6 13       		.byte	0x13
 9356 32b7 BF01     		.2byte	0x1bf
 9357 32b9 37       		.uleb128 0x37
 9358 32ba 40460000 		.4byte	0x4640
 9359 32be CB030000 		.4byte	.LLST56
 9360 32c2 00       		.byte	0
 9361 32c3 00       		.byte	0
 9362 32c4 00       		.byte	0
 9363 32c5 00       		.byte	0
 9364 32c6 36       		.uleb128 0x36
 9365 32c7 72450000 		.4byte	0x4572
 9366 32cb DE020000 		.4byte	.LBB559
 9367 32cf 12000000 		.4byte	.LBE559-.LBB559
 9368 32d3 01       		.byte	0x1
 9369 32d4 4005     		.2byte	0x540
 9370 32d6 36       		.uleb128 0x36
 9371 32d7 EB450000 		.4byte	0x45eb
 9372 32db DE020000 		.4byte	.LBB560
 9373 32df 12000000 		.4byte	.LBE560-.LBB560
 9374 32e3 04       		.byte	0x4
 9375 32e4 F801     		.2byte	0x1f8
 9376 32e6 38       		.uleb128 0x38
 9377 32e7 DE020000 		.4byte	.LBB561
 9378 32eb 12000000 		.4byte	.LBE561-.LBB561
 9379 32ef 36       		.uleb128 0x36
 9380 32f0 21460000 		.4byte	0x4621
 9381 32f4 DE020000 		.4byte	.LBB562
 9382 32f8 12000000 		.4byte	.LBE562-.LBB562
 9383 32fc 2A       		.byte	0x2a
 9384 32fd 7301     		.2byte	0x173
 9385 32ff 36       		.uleb128 0x36
 9386 3300 33460000 		.4byte	0x4633
 9387 3304 DE020000 		.4byte	.LBB563
 9388 3308 12000000 		.4byte	.LBE563-.LBB563
 9389 330c 13       		.byte	0x13
 9390 330d CD01     		.2byte	0x1cd
 9391 330f 37       		.uleb128 0x37
 9392 3310 40460000 		.4byte	0x4640
 9393 3314 FA030000 		.4byte	.LLST57
ARM GAS  /tmp/ccH4KobB.s 			page 166


 9394 3318 00       		.byte	0
 9395 3319 00       		.byte	0
 9396 331a 00       		.byte	0
 9397 331b 00       		.byte	0
 9398 331c 00       		.byte	0
 9399 331d 00       		.byte	0
 9400 331e 39       		.uleb128 0x39
 9401 331f B2410000 		.4byte	0x41b2
 9402 3323 16000000 		.4byte	.LBB432
 9403 3327 18000000 		.4byte	.Ldebug_ranges0+0x18
 9404 332b 01       		.byte	0x1
 9405 332c 2705     		.2byte	0x527
 9406 332e 75350000 		.4byte	0x3575
 9407 3332 37       		.uleb128 0x37
 9408 3333 BF410000 		.4byte	0x41bf
 9409 3337 0E040000 		.4byte	.LLST7
 9410 333b 3D       		.uleb128 0x3d
 9411 333c 18000000 		.4byte	.Ldebug_ranges0+0x18
 9412 3340 3C       		.uleb128 0x3c
 9413 3341 CB410000 		.4byte	0x41cb
 9414 3345 2C040000 		.4byte	.LLST8
 9415 3349 3C       		.uleb128 0x3c
 9416 334a D7410000 		.4byte	0x41d7
 9417 334e 4A040000 		.4byte	.LLST9
 9418 3352 3C       		.uleb128 0x3c
 9419 3353 E3410000 		.4byte	0x41e3
 9420 3357 7B040000 		.4byte	.LLST10
 9421 335b 39       		.uleb128 0x39
 9422 335c EF410000 		.4byte	0x41ef
 9423 3360 16000000 		.4byte	.LBB434
 9424 3364 48000000 		.4byte	.Ldebug_ranges0+0x48
 9425 3368 01       		.byte	0x1
 9426 3369 C401     		.2byte	0x1c4
 9427 336b E3340000 		.4byte	0x34e3
 9428 336f 37       		.uleb128 0x37
 9429 3370 14420000 		.4byte	0x4214
 9430 3374 BB040000 		.4byte	.LLST11
 9431 3378 37       		.uleb128 0x37
 9432 3379 08420000 		.4byte	0x4208
 9433 337d CE040000 		.4byte	.LLST12
 9434 3381 37       		.uleb128 0x37
 9435 3382 FC410000 		.4byte	0x41fc
 9436 3386 E2040000 		.4byte	.LLST13
 9437 338a 3D       		.uleb128 0x3d
 9438 338b 48000000 		.4byte	.Ldebug_ranges0+0x48
 9439 338f 3C       		.uleb128 0x3c
 9440 3390 1E420000 		.4byte	0x421e
 9441 3394 03050000 		.4byte	.LLST14
 9442 3398 39       		.uleb128 0x39
 9443 3399 7B450000 		.4byte	0x457b
 9444 339d 16000000 		.4byte	.LBB436
 9445 33a1 60000000 		.4byte	.Ldebug_ranges0+0x60
 9446 33a5 01       		.byte	0x1
 9447 33a6 A401     		.2byte	0x1a4
 9448 33a8 E9330000 		.4byte	0x33e9
 9449 33ac 40       		.uleb128 0x40
 9450 33ad 06460000 		.4byte	0x4606
ARM GAS  /tmp/ccH4KobB.s 			page 167


 9451 33b1 16000000 		.4byte	.LBB437
 9452 33b5 60000000 		.4byte	.Ldebug_ranges0+0x60
 9453 33b9 04       		.byte	0x4
 9454 33ba ED01     		.2byte	0x1ed
 9455 33bc 40       		.uleb128 0x40
 9456 33bd 2A460000 		.4byte	0x462a
 9457 33c1 16000000 		.4byte	.LBB438
 9458 33c5 60000000 		.4byte	.Ldebug_ranges0+0x60
 9459 33c9 2A       		.byte	0x2a
 9460 33ca 5C01     		.2byte	0x15c
 9461 33cc 40       		.uleb128 0x40
 9462 33cd 33460000 		.4byte	0x4633
 9463 33d1 16000000 		.4byte	.LBB439
 9464 33d5 60000000 		.4byte	.Ldebug_ranges0+0x60
 9465 33d9 13       		.byte	0x13
 9466 33da BF01     		.2byte	0x1bf
 9467 33dc 37       		.uleb128 0x37
 9468 33dd 40460000 		.4byte	0x4640
 9469 33e1 39050000 		.4byte	.LLST15
 9470 33e5 00       		.byte	0
 9471 33e6 00       		.byte	0
 9472 33e7 00       		.byte	0
 9473 33e8 00       		.byte	0
 9474 33e9 44       		.uleb128 0x44
 9475 33ea 2A420000 		.4byte	0x422a
 9476 33ee 4A010000 		.4byte	.LBB445
 9477 33f2 48000000 		.4byte	.LBE445-.LBB445
 9478 33f6 36340000 		.4byte	0x3436
 9479 33fa 3C       		.uleb128 0x3c
 9480 33fb 2B420000 		.4byte	0x422b
 9481 33ff 4E050000 		.4byte	.LLST16
 9482 3403 3C       		.uleb128 0x3c
 9483 3404 35420000 		.4byte	0x4235
 9484 3408 61050000 		.4byte	.LLST17
 9485 340c 3C       		.uleb128 0x3c
 9486 340d 3F420000 		.4byte	0x423f
 9487 3411 75050000 		.4byte	.LLST18
 9488 3415 45       		.uleb128 0x45
 9489 3416 4A420000 		.4byte	0x424a
 9490 341a 50010000 		.4byte	.LBB446
 9491 341e 0A000000 		.4byte	.LBE446-.LBB446
 9492 3422 3C       		.uleb128 0x3c
 9493 3423 4B420000 		.4byte	0x424b
 9494 3427 9B050000 		.4byte	.LLST19
 9495 342b 3C       		.uleb128 0x3c
 9496 342c 57420000 		.4byte	0x4257
 9497 3430 9B050000 		.4byte	.LLST19
 9498 3434 00       		.byte	0
 9499 3435 00       		.byte	0
 9500 3436 35       		.uleb128 0x35
 9501 3437 CD440000 		.4byte	0x44cd
 9502 343b 9E010000 		.4byte	.LBB448
 9503 343f 06000000 		.4byte	.LBE448-.LBB448
 9504 3443 01       		.byte	0x1
 9505 3444 A601     		.2byte	0x1a6
 9506 3446 6C340000 		.4byte	0x346c
 9507 344a 37       		.uleb128 0x37
ARM GAS  /tmp/ccH4KobB.s 			page 168


 9508 344b E6440000 		.4byte	0x44e6
 9509 344f AF050000 		.4byte	.LLST21
 9510 3453 37       		.uleb128 0x37
 9511 3454 DA440000 		.4byte	0x44da
 9512 3458 C3050000 		.4byte	.LLST22
 9513 345c 41       		.uleb128 0x41
 9514 345d A4010000 		.4byte	.LVL60
 9515 3461 804A0000 		.4byte	0x4a80
 9516 3465 42       		.uleb128 0x42
 9517 3466 01       		.uleb128 0x1
 9518 3467 51       		.byte	0x51
 9519 3468 01       		.uleb128 0x1
 9520 3469 30       		.byte	0x30
 9521 346a 00       		.byte	0
 9522 346b 00       		.byte	0
 9523 346c 35       		.uleb128 0x35
 9524 346d 3D450000 		.4byte	0x453d
 9525 3471 A4010000 		.4byte	.LBB450
 9526 3475 04000000 		.4byte	.LBE450-.LBB450
 9527 3479 01       		.byte	0x1
 9528 347a A701     		.2byte	0x1a7
 9529 347c 8A340000 		.4byte	0x348a
 9530 3480 43       		.uleb128 0x43
 9531 3481 A8010000 		.4byte	.LVL61
 9532 3485 8B4A0000 		.4byte	0x4a8b
 9533 3489 00       		.byte	0
 9534 348a 36       		.uleb128 0x36
 9535 348b 72450000 		.4byte	0x4572
 9536 348f A8010000 		.4byte	.LBB452
 9537 3493 10000000 		.4byte	.LBE452-.LBB452
 9538 3497 01       		.byte	0x1
 9539 3498 A801     		.2byte	0x1a8
 9540 349a 36       		.uleb128 0x36
 9541 349b EB450000 		.4byte	0x45eb
 9542 349f A8010000 		.4byte	.LBB453
 9543 34a3 10000000 		.4byte	.LBE453-.LBB453
 9544 34a7 04       		.byte	0x4
 9545 34a8 F801     		.2byte	0x1f8
 9546 34aa 38       		.uleb128 0x38
 9547 34ab A8010000 		.4byte	.LBB454
 9548 34af 10000000 		.4byte	.LBE454-.LBB454
 9549 34b3 36       		.uleb128 0x36
 9550 34b4 21460000 		.4byte	0x4621
 9551 34b8 A8010000 		.4byte	.LBB455
 9552 34bc 10000000 		.4byte	.LBE455-.LBB455
 9553 34c0 2A       		.byte	0x2a
 9554 34c1 7301     		.2byte	0x173
 9555 34c3 36       		.uleb128 0x36
 9556 34c4 33460000 		.4byte	0x4633
 9557 34c8 A8010000 		.4byte	.LBB456
 9558 34cc 10000000 		.4byte	.LBE456-.LBB456
 9559 34d0 13       		.byte	0x13
 9560 34d1 CD01     		.2byte	0x1cd
 9561 34d3 37       		.uleb128 0x37
 9562 34d4 40460000 		.4byte	0x4640
 9563 34d8 D6050000 		.4byte	.LLST23
 9564 34dc 00       		.byte	0
ARM GAS  /tmp/ccH4KobB.s 			page 169


 9565 34dd 00       		.byte	0
 9566 34de 00       		.byte	0
 9567 34df 00       		.byte	0
 9568 34e0 00       		.byte	0
 9569 34e1 00       		.byte	0
 9570 34e2 00       		.byte	0
 9571 34e3 39       		.uleb128 0x39
 9572 34e4 66420000 		.4byte	0x4266
 9573 34e8 7A000000 		.4byte	.LBB459
 9574 34ec 78000000 		.4byte	.Ldebug_ranges0+0x78
 9575 34f0 01       		.byte	0x1
 9576 34f1 BC01     		.2byte	0x1bc
 9577 34f3 2B350000 		.4byte	0x352b
 9578 34f7 37       		.uleb128 0x37
 9579 34f8 95420000 		.4byte	0x4295
 9580 34fc EA050000 		.4byte	.LLST24
 9581 3500 3A       		.uleb128 0x3a
 9582 3501 8B420000 		.4byte	0x428b
 9583 3505 37       		.uleb128 0x37
 9584 3506 7F420000 		.4byte	0x427f
 9585 350a 20060000 		.4byte	.LLST25
 9586 350e 37       		.uleb128 0x37
 9587 350f 73420000 		.4byte	0x4273
 9588 3513 33060000 		.4byte	.LLST26
 9589 3517 3B       		.uleb128 0x3b
 9590 3518 A1420000 		.4byte	0x42a1
 9591 351c 90000000 		.4byte	.Ldebug_ranges0+0x90
 9592 3520 3C       		.uleb128 0x3c
 9593 3521 A2420000 		.4byte	0x42a2
 9594 3525 54060000 		.4byte	.LLST27
 9595 3529 00       		.byte	0
 9596 352a 00       		.byte	0
 9597 352b 40       		.uleb128 0x40
 9598 352c 66420000 		.4byte	0x4266
 9599 3530 CC000000 		.4byte	.LBB466
 9600 3534 B0000000 		.4byte	.Ldebug_ranges0+0xb0
 9601 3538 01       		.byte	0x1
 9602 3539 C901     		.2byte	0x1c9
 9603 353b 37       		.uleb128 0x37
 9604 353c 95420000 		.4byte	0x4295
 9605 3540 72060000 		.4byte	.LLST28
 9606 3544 37       		.uleb128 0x37
 9607 3545 8B420000 		.4byte	0x428b
 9608 3549 AD060000 		.4byte	.LLST29
 9609 354d 37       		.uleb128 0x37
 9610 354e 7F420000 		.4byte	0x427f
 9611 3552 F0060000 		.4byte	.LLST30
 9612 3556 37       		.uleb128 0x37
 9613 3557 73420000 		.4byte	0x4273
 9614 355b 1A070000 		.4byte	.LLST31
 9615 355f 3B       		.uleb128 0x3b
 9616 3560 A1420000 		.4byte	0x42a1
 9617 3564 C8000000 		.4byte	.Ldebug_ranges0+0xc8
 9618 3568 3C       		.uleb128 0x3c
 9619 3569 A2420000 		.4byte	0x42a2
 9620 356d 51070000 		.4byte	.LLST32
 9621 3571 00       		.byte	0
ARM GAS  /tmp/ccH4KobB.s 			page 170


 9622 3572 00       		.byte	0
 9623 3573 00       		.byte	0
 9624 3574 00       		.byte	0
 9625 3575 39       		.uleb128 0x39
 9626 3576 1F450000 		.4byte	0x451f
 9627 357a 38000000 		.4byte	.LBB477
 9628 357e E0000000 		.4byte	.Ldebug_ranges0+0xe0
 9629 3582 01       		.byte	0x1
 9630 3583 1E05     		.2byte	0x51e
 9631 3585 A0350000 		.4byte	0x35a0
 9632 3589 3A       		.uleb128 0x3a
 9633 358a 30450000 		.4byte	0x4530
 9634 358e 41       		.uleb128 0x41
 9635 358f 46000000 		.4byte	.LVL6
 9636 3593 974A0000 		.4byte	0x4a97
 9637 3597 42       		.uleb128 0x42
 9638 3598 01       		.uleb128 0x1
 9639 3599 50       		.byte	0x50
 9640 359a 03       		.uleb128 0x3
 9641 359b 91       		.byte	0x91
 9642 359c 54       		.sleb128 -44
 9643 359d 06       		.byte	0x6
 9644 359e 00       		.byte	0
 9645 359f 00       		.byte	0
 9646 35a0 35       		.uleb128 0x35
 9647 35a1 72450000 		.4byte	0x4572
 9648 35a5 46000000 		.4byte	.LBB481
 9649 35a9 06000000 		.4byte	.LBE481-.LBB481
 9650 35ad 01       		.byte	0x1
 9651 35ae 2005     		.2byte	0x520
 9652 35b0 FB350000 		.4byte	0x35fb
 9653 35b4 36       		.uleb128 0x36
 9654 35b5 EB450000 		.4byte	0x45eb
 9655 35b9 46000000 		.4byte	.LBB482
 9656 35bd 06000000 		.4byte	.LBE482-.LBB482
 9657 35c1 04       		.byte	0x4
 9658 35c2 F801     		.2byte	0x1f8
 9659 35c4 38       		.uleb128 0x38
 9660 35c5 46000000 		.4byte	.LBB483
 9661 35c9 06000000 		.4byte	.LBE483-.LBB483
 9662 35cd 36       		.uleb128 0x36
 9663 35ce 21460000 		.4byte	0x4621
 9664 35d2 46000000 		.4byte	.LBB484
 9665 35d6 06000000 		.4byte	.LBE484-.LBB484
 9666 35da 2A       		.byte	0x2a
 9667 35db 7301     		.2byte	0x173
 9668 35dd 36       		.uleb128 0x36
 9669 35de 33460000 		.4byte	0x4633
 9670 35e2 46000000 		.4byte	.LBB485
 9671 35e6 06000000 		.4byte	.LBE485-.LBB485
 9672 35ea 13       		.byte	0x13
 9673 35eb CD01     		.2byte	0x1cd
 9674 35ed 37       		.uleb128 0x37
 9675 35ee 40460000 		.4byte	0x4640
 9676 35f2 6F070000 		.4byte	.LLST33
 9677 35f6 00       		.byte	0
 9678 35f7 00       		.byte	0
ARM GAS  /tmp/ccH4KobB.s 			page 171


 9679 35f8 00       		.byte	0
 9680 35f9 00       		.byte	0
 9681 35fa 00       		.byte	0
 9682 35fb 36       		.uleb128 0x36
 9683 35fc 7B450000 		.4byte	0x457b
 9684 3600 28010000 		.4byte	.LBB490
 9685 3604 08000000 		.4byte	.LBE490-.LBB490
 9686 3608 01       		.byte	0x1
 9687 3609 4305     		.2byte	0x543
 9688 360b 36       		.uleb128 0x36
 9689 360c 06460000 		.4byte	0x4606
 9690 3610 28010000 		.4byte	.LBB491
 9691 3614 08000000 		.4byte	.LBE491-.LBB491
 9692 3618 04       		.byte	0x4
 9693 3619 ED01     		.2byte	0x1ed
 9694 361b 36       		.uleb128 0x36
 9695 361c 2A460000 		.4byte	0x462a
 9696 3620 28010000 		.4byte	.LBB492
 9697 3624 08000000 		.4byte	.LBE492-.LBB492
 9698 3628 2A       		.byte	0x2a
 9699 3629 5C01     		.2byte	0x15c
 9700 362b 36       		.uleb128 0x36
 9701 362c 33460000 		.4byte	0x4633
 9702 3630 28010000 		.4byte	.LBB493
 9703 3634 08000000 		.4byte	.LBE493-.LBB493
 9704 3638 13       		.byte	0x13
 9705 3639 BF01     		.2byte	0x1bf
 9706 363b 37       		.uleb128 0x37
 9707 363c 40460000 		.4byte	0x4640
 9708 3640 83070000 		.4byte	.LLST34
 9709 3644 00       		.byte	0
 9710 3645 00       		.byte	0
 9711 3646 00       		.byte	0
 9712 3647 00       		.byte	0
 9713 3648 00       		.byte	0
 9714 3649 39       		.uleb128 0x39
 9715 364a 84450000 		.4byte	0x4584
 9716 364e 04000000 		.4byte	.LBB422
 9717 3652 00000000 		.4byte	.Ldebug_ranges0+0
 9718 3656 01       		.byte	0x1
 9719 3657 1305     		.2byte	0x513
 9720 3659 67360000 		.4byte	0x3667
 9721 365d 37       		.uleb128 0x37
 9722 365e 90450000 		.4byte	0x4590
 9723 3662 98070000 		.4byte	.LLST3
 9724 3666 00       		.byte	0
 9725 3667 36       		.uleb128 0x36
 9726 3668 7B450000 		.4byte	0x457b
 9727 366c 10000000 		.4byte	.LBB426
 9728 3670 06000000 		.4byte	.LBE426-.LBB426
 9729 3674 01       		.byte	0x1
 9730 3675 1505     		.2byte	0x515
 9731 3677 36       		.uleb128 0x36
 9732 3678 06460000 		.4byte	0x4606
 9733 367c 10000000 		.4byte	.LBB427
 9734 3680 06000000 		.4byte	.LBE427-.LBB427
 9735 3684 04       		.byte	0x4
ARM GAS  /tmp/ccH4KobB.s 			page 172


 9736 3685 ED01     		.2byte	0x1ed
 9737 3687 36       		.uleb128 0x36
 9738 3688 2A460000 		.4byte	0x462a
 9739 368c 10000000 		.4byte	.LBB428
 9740 3690 06000000 		.4byte	.LBE428-.LBB428
 9741 3694 2A       		.byte	0x2a
 9742 3695 5C01     		.2byte	0x15c
 9743 3697 36       		.uleb128 0x36
 9744 3698 33460000 		.4byte	0x4633
 9745 369c 10000000 		.4byte	.LBB429
 9746 36a0 06000000 		.4byte	.LBE429-.LBB429
 9747 36a4 13       		.byte	0x13
 9748 36a5 BF01     		.2byte	0x1bf
 9749 36a7 37       		.uleb128 0x37
 9750 36a8 40460000 		.4byte	0x4640
 9751 36ac B0070000 		.4byte	.LLST4
 9752 36b0 00       		.byte	0
 9753 36b1 00       		.byte	0
 9754 36b2 00       		.byte	0
 9755 36b3 00       		.byte	0
 9756 36b4 00       		.byte	0
 9757 36b5 2F       		.uleb128 0x2f
 9758 36b6 DD0A0000 		.4byte	.LASF649
 9759 36ba 01       		.byte	0x1
 9760 36bb FE04     		.2byte	0x4fe
 9761 36bd 00000000 		.4byte	.LFB291
 9762 36c1 14000000 		.4byte	.LFE291-.LFB291
 9763 36c5 01       		.uleb128 0x1
 9764 36c6 9C       		.byte	0x9c
 9765 36c7 E9360000 		.4byte	0x36e9
 9766 36cb 46       		.uleb128 0x46
 9767 36cc 4F1B0000 		.4byte	.LASF645
 9768 36d0 01       		.byte	0x1
 9769 36d1 FE04     		.2byte	0x4fe
 9770 36d3 16260000 		.4byte	0x2616
 9771 36d7 01       		.uleb128 0x1
 9772 36d8 50       		.byte	0x50
 9773 36d9 30       		.uleb128 0x30
 9774 36da 657000   		.ascii	"ep\000"
 9775 36dd 01       		.byte	0x1
 9776 36de FE04     		.2byte	0x4fe
 9777 36e0 CF240000 		.4byte	0x24cf
 9778 36e4 C5070000 		.4byte	.LLST145
 9779 36e8 00       		.byte	0
 9780 36e9 2F       		.uleb128 0x2f
 9781 36ea 1F1C0000 		.4byte	.LASF650
 9782 36ee 01       		.byte	0x1
 9783 36ef F104     		.2byte	0x4f1
 9784 36f1 00000000 		.4byte	.LFB290
 9785 36f5 14000000 		.4byte	.LFE290-.LFB290
 9786 36f9 01       		.uleb128 0x1
 9787 36fa 9C       		.byte	0x9c
 9788 36fb 1D370000 		.4byte	0x371d
 9789 36ff 46       		.uleb128 0x46
 9790 3700 4F1B0000 		.4byte	.LASF645
 9791 3704 01       		.byte	0x1
 9792 3705 F104     		.2byte	0x4f1
ARM GAS  /tmp/ccH4KobB.s 			page 173


 9793 3707 16260000 		.4byte	0x2616
 9794 370b 01       		.uleb128 0x1
 9795 370c 50       		.byte	0x50
 9796 370d 30       		.uleb128 0x30
 9797 370e 657000   		.ascii	"ep\000"
 9798 3711 01       		.byte	0x1
 9799 3712 F104     		.2byte	0x4f1
 9800 3714 CF240000 		.4byte	0x24cf
 9801 3718 E6070000 		.4byte	.LLST144
 9802 371c 00       		.byte	0
 9803 371d 2F       		.uleb128 0x2f
 9804 371e 620E0000 		.4byte	.LASF651
 9805 3722 01       		.byte	0x1
 9806 3723 E404     		.2byte	0x4e4
 9807 3725 00000000 		.4byte	.LFB289
 9808 3729 14000000 		.4byte	.LFE289-.LFB289
 9809 372d 01       		.uleb128 0x1
 9810 372e 9C       		.byte	0x9c
 9811 372f 51370000 		.4byte	0x3751
 9812 3733 46       		.uleb128 0x46
 9813 3734 4F1B0000 		.4byte	.LASF645
 9814 3738 01       		.byte	0x1
 9815 3739 E404     		.2byte	0x4e4
 9816 373b 16260000 		.4byte	0x2616
 9817 373f 01       		.uleb128 0x1
 9818 3740 50       		.byte	0x50
 9819 3741 30       		.uleb128 0x30
 9820 3742 657000   		.ascii	"ep\000"
 9821 3745 01       		.byte	0x1
 9822 3746 E404     		.2byte	0x4e4
 9823 3748 CF240000 		.4byte	0x24cf
 9824 374c 07080000 		.4byte	.LLST143
 9825 3750 00       		.byte	0
 9826 3751 2F       		.uleb128 0x2f
 9827 3752 C01E0000 		.4byte	.LASF652
 9828 3756 01       		.byte	0x1
 9829 3757 D704     		.2byte	0x4d7
 9830 3759 00000000 		.4byte	.LFB288
 9831 375d 14000000 		.4byte	.LFE288-.LFB288
 9832 3761 01       		.uleb128 0x1
 9833 3762 9C       		.byte	0x9c
 9834 3763 85370000 		.4byte	0x3785
 9835 3767 46       		.uleb128 0x46
 9836 3768 4F1B0000 		.4byte	.LASF645
 9837 376c 01       		.byte	0x1
 9838 376d D704     		.2byte	0x4d7
 9839 376f 16260000 		.4byte	0x2616
 9840 3773 01       		.uleb128 0x1
 9841 3774 50       		.byte	0x50
 9842 3775 30       		.uleb128 0x30
 9843 3776 657000   		.ascii	"ep\000"
 9844 3779 01       		.byte	0x1
 9845 377a D704     		.2byte	0x4d7
 9846 377c CF240000 		.4byte	0x24cf
 9847 3780 28080000 		.4byte	.LLST142
 9848 3784 00       		.byte	0
 9849 3785 47       		.uleb128 0x47
ARM GAS  /tmp/ccH4KobB.s 			page 174


 9850 3786 B00B0000 		.4byte	.LASF653
 9851 378a 01       		.byte	0x1
 9852 378b C904     		.2byte	0x4c9
 9853 378d 01       		.byte	0x1
 9854 378e AA370000 		.4byte	0x37aa
 9855 3792 48       		.uleb128 0x48
 9856 3793 4F1B0000 		.4byte	.LASF645
 9857 3797 01       		.byte	0x1
 9858 3798 C904     		.2byte	0x4c9
 9859 379a 16260000 		.4byte	0x2616
 9860 379e 49       		.uleb128 0x49
 9861 379f 657000   		.ascii	"ep\000"
 9862 37a2 01       		.byte	0x1
 9863 37a3 C904     		.2byte	0x4c9
 9864 37a5 CF240000 		.4byte	0x24cf
 9865 37a9 00       		.byte	0
 9866 37aa 47       		.uleb128 0x47
 9867 37ab 89080000 		.4byte	.LASF654
 9868 37af 01       		.byte	0x1
 9869 37b0 BC04     		.2byte	0x4bc
 9870 37b2 01       		.byte	0x1
 9871 37b3 CF370000 		.4byte	0x37cf
 9872 37b7 48       		.uleb128 0x48
 9873 37b8 4F1B0000 		.4byte	.LASF645
 9874 37bc 01       		.byte	0x1
 9875 37bd BC04     		.2byte	0x4bc
 9876 37bf 16260000 		.4byte	0x2616
 9877 37c3 49       		.uleb128 0x49
 9878 37c4 657000   		.ascii	"ep\000"
 9879 37c7 01       		.byte	0x1
 9880 37c8 BC04     		.2byte	0x4bc
 9881 37ca CF240000 		.4byte	0x24cf
 9882 37ce 00       		.byte	0
 9883 37cf 2F       		.uleb128 0x2f
 9884 37d0 25070000 		.4byte	.LASF655
 9885 37d4 01       		.byte	0x1
 9886 37d5 9F04     		.2byte	0x49f
 9887 37d7 00000000 		.4byte	.LFB285
 9888 37db 4C000000 		.4byte	.LFE285-.LFB285
 9889 37df 01       		.uleb128 0x1
 9890 37e0 9C       		.byte	0x9c
 9891 37e1 2B380000 		.4byte	0x382b
 9892 37e5 4A       		.uleb128 0x4a
 9893 37e6 4F1B0000 		.4byte	.LASF645
 9894 37ea 01       		.byte	0x1
 9895 37eb 9F04     		.2byte	0x49f
 9896 37ed 16260000 		.4byte	0x2616
 9897 37f1 49080000 		.4byte	.LLST117
 9898 37f5 30       		.uleb128 0x30
 9899 37f6 657000   		.ascii	"ep\000"
 9900 37f9 01       		.byte	0x1
 9901 37fa 9F04     		.2byte	0x49f
 9902 37fc CF240000 		.4byte	0x24cf
 9903 3800 6A080000 		.4byte	.LLST118
 9904 3804 33       		.uleb128 0x33
 9905 3805 69737000 		.ascii	"isp\000"
 9906 3809 01       		.byte	0x1
ARM GAS  /tmp/ccH4KobB.s 			page 175


 9907 380a A004     		.2byte	0x4a0
 9908 380c EB2D0000 		.4byte	0x2deb
 9909 3810 96080000 		.4byte	.LLST119
 9910 3814 3D       		.uleb128 0x3d
 9911 3815 58020000 		.4byte	.Ldebug_ranges0+0x258
 9912 3819 31       		.uleb128 0x31
 9913 381a 53150000 		.4byte	.LASF656
 9914 381e 01       		.byte	0x1
 9915 381f AD04     		.2byte	0x4ad
 9916 3821 04090000 		.4byte	0x904
 9917 3825 D7080000 		.4byte	.LLST120
 9918 3829 00       		.byte	0
 9919 382a 00       		.byte	0
 9920 382b 2F       		.uleb128 0x2f
 9921 382c E7140000 		.4byte	.LASF657
 9922 3830 01       		.byte	0x1
 9923 3831 8704     		.2byte	0x487
 9924 3833 00000000 		.4byte	.LFB284
 9925 3837 40000000 		.4byte	.LFE284-.LFB284
 9926 383b 01       		.uleb128 0x1
 9927 383c 9C       		.byte	0x9c
 9928 383d 81380000 		.4byte	0x3881
 9929 3841 4A       		.uleb128 0x4a
 9930 3842 4F1B0000 		.4byte	.LASF645
 9931 3846 01       		.byte	0x1
 9932 3847 8704     		.2byte	0x487
 9933 3849 16260000 		.4byte	0x2616
 9934 384d FA080000 		.4byte	.LLST105
 9935 3851 30       		.uleb128 0x30
 9936 3852 657000   		.ascii	"ep\000"
 9937 3855 01       		.byte	0x1
 9938 3856 8704     		.2byte	0x487
 9939 3858 CF240000 		.4byte	0x24cf
 9940 385c 1B090000 		.4byte	.LLST106
 9941 3860 31       		.uleb128 0x31
 9942 3861 53150000 		.4byte	.LASF656
 9943 3865 01       		.byte	0x1
 9944 3866 8804     		.2byte	0x488
 9945 3868 04090000 		.4byte	0x904
 9946 386c 3C090000 		.4byte	.LLST107
 9947 3870 33       		.uleb128 0x33
 9948 3871 6F737000 		.ascii	"osp\000"
 9949 3875 01       		.byte	0x1
 9950 3876 8904     		.2byte	0x489
 9951 3878 F12D0000 		.4byte	0x2df1
 9952 387c 5F090000 		.4byte	.LLST108
 9953 3880 00       		.byte	0
 9954 3881 2F       		.uleb128 0x2f
 9955 3882 56080000 		.4byte	.LASF658
 9956 3886 01       		.byte	0x1
 9957 3887 7A04     		.2byte	0x47a
 9958 3889 00000000 		.4byte	.LFB283
 9959 388d 12000000 		.4byte	.LFE283-.LFB283
 9960 3891 01       		.uleb128 0x1
 9961 3892 9C       		.byte	0x9c
 9962 3893 C3380000 		.4byte	0x38c3
 9963 3897 46       		.uleb128 0x46
ARM GAS  /tmp/ccH4KobB.s 			page 176


 9964 3898 4F1B0000 		.4byte	.LASF645
 9965 389c 01       		.byte	0x1
 9966 389d 7A04     		.2byte	0x47a
 9967 389f 16260000 		.4byte	0x2616
 9968 38a3 01       		.uleb128 0x1
 9969 38a4 50       		.byte	0x50
 9970 38a5 30       		.uleb128 0x30
 9971 38a6 657000   		.ascii	"ep\000"
 9972 38a9 01       		.byte	0x1
 9973 38aa 7A04     		.2byte	0x47a
 9974 38ac CF240000 		.4byte	0x24cf
 9975 38b0 7E090000 		.4byte	.LLST104
 9976 38b4 4B       		.uleb128 0x4b
 9977 38b5 62756600 		.ascii	"buf\000"
 9978 38b9 01       		.byte	0x1
 9979 38ba 7A04     		.2byte	0x47a
 9980 38bc C7170000 		.4byte	0x17c7
 9981 38c0 01       		.uleb128 0x1
 9982 38c1 52       		.byte	0x52
 9983 38c2 00       		.byte	0
 9984 38c3 4C       		.uleb128 0x4c
 9985 38c4 47110000 		.4byte	.LASF659
 9986 38c8 01       		.byte	0x1
 9987 38c9 5F04     		.2byte	0x45f
 9988 38cb 34250000 		.4byte	0x2534
 9989 38cf 00000000 		.4byte	.LFB282
 9990 38d3 1A000000 		.4byte	.LFE282-.LFB282
 9991 38d7 01       		.uleb128 0x1
 9992 38d8 9C       		.byte	0x9c
 9993 38d9 0B390000 		.4byte	0x390b
 9994 38dd 4A       		.uleb128 0x4a
 9995 38de 4F1B0000 		.4byte	.LASF645
 9996 38e2 01       		.byte	0x1
 9997 38e3 5F04     		.2byte	0x45f
 9998 38e5 16260000 		.4byte	0x2616
 9999 38e9 9F090000 		.4byte	.LLST102
 10000 38ed 30       		.uleb128 0x30
 10001 38ee 657000   		.ascii	"ep\000"
 10002 38f1 01       		.byte	0x1
 10003 38f2 5F04     		.2byte	0x45f
 10004 38f4 CF240000 		.4byte	0x24cf
 10005 38f8 C0090000 		.4byte	.LLST103
 10006 38fc 4D       		.uleb128 0x4d
 10007 38fd 63746C00 		.ascii	"ctl\000"
 10008 3901 01       		.byte	0x1
 10009 3902 6004     		.2byte	0x460
 10010 3904 04090000 		.4byte	0x904
 10011 3908 01       		.uleb128 0x1
 10012 3909 53       		.byte	0x53
 10013 390a 00       		.byte	0
 10014 390b 4C       		.uleb128 0x4c
 10015 390c 191B0000 		.4byte	.LASF660
 10016 3910 01       		.byte	0x1
 10017 3911 4604     		.2byte	0x446
 10018 3913 34250000 		.4byte	0x2534
 10019 3917 00000000 		.4byte	.LFB281
 10020 391b 1A000000 		.4byte	.LFE281-.LFB281
ARM GAS  /tmp/ccH4KobB.s 			page 177


 10021 391f 01       		.uleb128 0x1
 10022 3920 9C       		.byte	0x9c
 10023 3921 53390000 		.4byte	0x3953
 10024 3925 4A       		.uleb128 0x4a
 10025 3926 4F1B0000 		.4byte	.LASF645
 10026 392a 01       		.byte	0x1
 10027 392b 4604     		.2byte	0x446
 10028 392d 16260000 		.4byte	0x2616
 10029 3931 E1090000 		.4byte	.LLST100
 10030 3935 30       		.uleb128 0x30
 10031 3936 657000   		.ascii	"ep\000"
 10032 3939 01       		.byte	0x1
 10033 393a 4604     		.2byte	0x446
 10034 393c CF240000 		.4byte	0x24cf
 10035 3940 020A0000 		.4byte	.LLST101
 10036 3944 4D       		.uleb128 0x4d
 10037 3945 63746C00 		.ascii	"ctl\000"
 10038 3949 01       		.byte	0x1
 10039 394a 4704     		.2byte	0x447
 10040 394c 04090000 		.4byte	0x904
 10041 3950 01       		.uleb128 0x1
 10042 3951 53       		.byte	0x53
 10043 3952 00       		.byte	0
 10044 3953 2F       		.uleb128 0x2f
 10045 3954 A1100000 		.4byte	.LASF661
 10046 3958 01       		.byte	0x1
 10047 3959 3104     		.2byte	0x431
 10048 395b 00000000 		.4byte	.LFB280
 10049 395f 0E000000 		.4byte	.LFE280-.LFB280
 10050 3963 01       		.uleb128 0x1
 10051 3964 9C       		.byte	0x9c
 10052 3965 B2390000 		.4byte	0x39b2
 10053 3969 4A       		.uleb128 0x4a
 10054 396a 4F1B0000 		.4byte	.LASF645
 10055 396e 01       		.byte	0x1
 10056 396f 3104     		.2byte	0x431
 10057 3971 16260000 		.4byte	0x2616
 10058 3975 230A0000 		.4byte	.LLST99
 10059 3979 35       		.uleb128 0x35
 10060 397a 15440000 		.4byte	0x4415
 10061 397e 06000000 		.4byte	.LBB620
 10062 3982 04000000 		.4byte	.LBE620-.LBB620
 10063 3986 01       		.byte	0x1
 10064 3987 3404     		.2byte	0x434
 10065 3989 98390000 		.4byte	0x3998
 10066 398d 3A       		.uleb128 0x3a
 10067 398e 21440000 		.4byte	0x4421
 10068 3992 3A       		.uleb128 0x3a
 10069 3993 21440000 		.4byte	0x4421
 10070 3997 00       		.byte	0
 10071 3998 4E       		.uleb128 0x4e
 10072 3999 0E000000 		.4byte	.LVL182
 10073 399d 4D460000 		.4byte	0x464d
 10074 39a1 42       		.uleb128 0x42
 10075 39a2 01       		.uleb128 0x1
 10076 39a3 50       		.byte	0x50
 10077 39a4 02       		.uleb128 0x2
ARM GAS  /tmp/ccH4KobB.s 			page 178


 10078 39a5 70       		.byte	0x70
 10079 39a6 00       		.sleb128 0
 10080 39a7 4F       		.uleb128 0x4f
 10081 39a8 8A440000 		.4byte	0x448a
 10082 39ac 03       		.uleb128 0x3
 10083 39ad F3       		.byte	0xf3
 10084 39ae 01       		.uleb128 0x1
 10085 39af 50       		.byte	0x50
 10086 39b0 00       		.byte	0
 10087 39b1 00       		.byte	0
 10088 39b2 2F       		.uleb128 0x2f
 10089 39b3 BA1C0000 		.4byte	.LASF662
 10090 39b7 01       		.byte	0x1
 10091 39b8 F103     		.2byte	0x3f1
 10092 39ba 00000000 		.4byte	.LFB279
 10093 39be 64010000 		.4byte	.LFE279-.LFB279
 10094 39c2 01       		.uleb128 0x1
 10095 39c3 9C       		.byte	0x9c
 10096 39c4 0E3B0000 		.4byte	0x3b0e
 10097 39c8 4A       		.uleb128 0x4a
 10098 39c9 4F1B0000 		.4byte	.LASF645
 10099 39cd 01       		.byte	0x1
 10100 39ce F103     		.2byte	0x3f1
 10101 39d0 16260000 		.4byte	0x2616
 10102 39d4 4F0A0000 		.4byte	.LLST83
 10103 39d8 30       		.uleb128 0x30
 10104 39d9 657000   		.ascii	"ep\000"
 10105 39dc 01       		.byte	0x1
 10106 39dd F103     		.2byte	0x3f1
 10107 39df CF240000 		.4byte	0x24cf
 10108 39e3 940A0000 		.4byte	.LLST84
 10109 39e7 33       		.uleb128 0x33
 10110 39e8 63746C00 		.ascii	"ctl\000"
 10111 39ec 01       		.byte	0x1
 10112 39ed F203     		.2byte	0x3f2
 10113 39ef 04090000 		.4byte	0x904
 10114 39f3 C00A0000 		.4byte	.LLST85
 10115 39f7 31       		.uleb128 0x31
 10116 39f8 B8110000 		.4byte	.LASF663
 10117 39fc 01       		.byte	0x1
 10118 39fd F203     		.2byte	0x3f2
 10119 39ff 04090000 		.4byte	0x904
 10120 3a03 F30A0000 		.4byte	.LLST86
 10121 3a07 31       		.uleb128 0x31
 10122 3a08 82160000 		.4byte	.LASF646
 10123 3a0c 01       		.byte	0x1
 10124 3a0d F303     		.2byte	0x3f3
 10125 3a0f 832E0000 		.4byte	0x2e83
 10126 3a13 060B0000 		.4byte	.LLST87
 10127 3a17 39       		.uleb128 0x39
 10128 3a18 C1430000 		.4byte	0x43c1
 10129 3a1c 96000000 		.4byte	.LBB606
 10130 3a20 20020000 		.4byte	.Ldebug_ranges0+0x220
 10131 3a24 01       		.byte	0x1
 10132 3a25 1A04     		.2byte	0x41a
 10133 3a27 4D3A0000 		.4byte	0x3a4d
 10134 3a2b 37       		.uleb128 0x37
ARM GAS  /tmp/ccH4KobB.s 			page 179


 10135 3a2c D1430000 		.4byte	0x43d1
 10136 3a30 530B0000 		.4byte	.LLST88
 10137 3a34 37       		.uleb128 0x37
 10138 3a35 DC430000 		.4byte	0x43dc
 10139 3a39 740B0000 		.4byte	.LLST89
 10140 3a3d 3D       		.uleb128 0x3d
 10141 3a3e 20020000 		.4byte	.Ldebug_ranges0+0x220
 10142 3a42 3C       		.uleb128 0x3c
 10143 3a43 E7430000 		.4byte	0x43e7
 10144 3a47 870B0000 		.4byte	.LLST90
 10145 3a4b 00       		.byte	0
 10146 3a4c 00       		.byte	0
 10147 3a4d 35       		.uleb128 0x35
 10148 3a4e 2D440000 		.4byte	0x442d
 10149 3a52 B0000000 		.4byte	.LBB612
 10150 3a56 0E000000 		.4byte	.LBE612-.LBB612
 10151 3a5a 01       		.byte	0x1
 10152 3a5b 1B04     		.2byte	0x41b
 10153 3a5d AF3A0000 		.4byte	0x3aaf
 10154 3a61 37       		.uleb128 0x37
 10155 3a62 39440000 		.4byte	0x4439
 10156 3a66 9A0B0000 		.4byte	.LLST91
 10157 3a6a 37       		.uleb128 0x37
 10158 3a6b 44440000 		.4byte	0x4444
 10159 3a6f BB0B0000 		.4byte	.LLST92
 10160 3a73 38       		.uleb128 0x38
 10161 3a74 B0000000 		.4byte	.LBB613
 10162 3a78 0E000000 		.4byte	.LBE613-.LBB613
 10163 3a7c 3C       		.uleb128 0x3c
 10164 3a7d 4F440000 		.4byte	0x444f
 10165 3a81 D30B0000 		.4byte	.LLST93
 10166 3a85 50       		.uleb128 0x50
 10167 3a86 46450000 		.4byte	0x4546
 10168 3a8a B8000000 		.4byte	.LBB614
 10169 3a8e 06000000 		.4byte	.LBE614-.LBB614
 10170 3a92 01       		.byte	0x1
 10171 3a93 BA       		.byte	0xba
 10172 3a94 37       		.uleb128 0x37
 10173 3a95 53450000 		.4byte	0x4553
 10174 3a99 F70B0000 		.4byte	.LLST94
 10175 3a9d 41       		.uleb128 0x41
 10176 3a9e BE000000 		.4byte	.LVL172
 10177 3aa2 A24A0000 		.4byte	0x4aa2
 10178 3aa6 42       		.uleb128 0x42
 10179 3aa7 01       		.uleb128 0x1
 10180 3aa8 50       		.byte	0x50
 10181 3aa9 01       		.uleb128 0x1
 10182 3aaa 3C       		.byte	0x3c
 10183 3aab 00       		.byte	0
 10184 3aac 00       		.byte	0
 10185 3aad 00       		.byte	0
 10186 3aae 00       		.byte	0
 10187 3aaf 36       		.uleb128 0x36
 10188 3ab0 2D440000 		.4byte	0x442d
 10189 3ab4 10010000 		.4byte	.LBB616
 10190 3ab8 12000000 		.4byte	.LBE616-.LBB616
 10191 3abc 01       		.byte	0x1
ARM GAS  /tmp/ccH4KobB.s 			page 180


 10192 3abd 2404     		.2byte	0x424
 10193 3abf 37       		.uleb128 0x37
 10194 3ac0 39440000 		.4byte	0x4439
 10195 3ac4 0B0C0000 		.4byte	.LLST95
 10196 3ac8 37       		.uleb128 0x37
 10197 3ac9 44440000 		.4byte	0x4444
 10198 3acd 2C0C0000 		.4byte	.LLST96
 10199 3ad1 38       		.uleb128 0x38
 10200 3ad2 10010000 		.4byte	.LBB617
 10201 3ad6 12000000 		.4byte	.LBE617-.LBB617
 10202 3ada 3C       		.uleb128 0x3c
 10203 3adb 4F440000 		.4byte	0x444f
 10204 3adf 440C0000 		.4byte	.LLST97
 10205 3ae3 50       		.uleb128 0x50
 10206 3ae4 46450000 		.4byte	0x4546
 10207 3ae8 1C010000 		.4byte	.LBB618
 10208 3aec 06000000 		.4byte	.LBE618-.LBB618
 10209 3af0 01       		.byte	0x1
 10210 3af1 BA       		.byte	0xba
 10211 3af2 37       		.uleb128 0x37
 10212 3af3 53450000 		.4byte	0x4553
 10213 3af7 680C0000 		.4byte	.LLST98
 10214 3afb 41       		.uleb128 0x41
 10215 3afc 22010000 		.4byte	.LVL177
 10216 3b00 A24A0000 		.4byte	0x4aa2
 10217 3b04 42       		.uleb128 0x42
 10218 3b05 01       		.uleb128 0x1
 10219 3b06 50       		.byte	0x50
 10220 3b07 01       		.uleb128 0x1
 10221 3b08 3C       		.byte	0x3c
 10222 3b09 00       		.byte	0
 10223 3b0a 00       		.byte	0
 10224 3b0b 00       		.byte	0
 10225 3b0c 00       		.byte	0
 10226 3b0d 00       		.byte	0
 10227 3b0e 2F       		.uleb128 0x2f
 10228 3b0f 400C0000 		.4byte	.LASF664
 10229 3b13 01       		.byte	0x1
 10230 3b14 E303     		.2byte	0x3e3
 10231 3b16 00000000 		.4byte	.LFB278
 10232 3b1a 18000000 		.4byte	.LFE278-.LFB278
 10233 3b1e 01       		.uleb128 0x1
 10234 3b1f 9C       		.byte	0x9c
 10235 3b20 413B0000 		.4byte	0x3b41
 10236 3b24 46       		.uleb128 0x46
 10237 3b25 4F1B0000 		.4byte	.LASF645
 10238 3b29 01       		.byte	0x1
 10239 3b2a E303     		.2byte	0x3e3
 10240 3b2c 16260000 		.4byte	0x2616
 10241 3b30 01       		.uleb128 0x1
 10242 3b31 50       		.byte	0x50
 10243 3b32 51       		.uleb128 0x51
 10244 3b33 82160000 		.4byte	.LASF646
 10245 3b37 01       		.byte	0x1
 10246 3b38 E403     		.2byte	0x3e4
 10247 3b3a 832E0000 		.4byte	0x2e83
 10248 3b3e 01       		.uleb128 0x1
ARM GAS  /tmp/ccH4KobB.s 			page 181


 10249 3b3f 52       		.byte	0x52
 10250 3b40 00       		.byte	0
 10251 3b41 2F       		.uleb128 0x2f
 10252 3b42 0B110000 		.4byte	.LASF665
 10253 3b46 01       		.byte	0x1
 10254 3b47 AD03     		.2byte	0x3ad
 10255 3b49 00000000 		.4byte	.LFB277
 10256 3b4d BC000000 		.4byte	.LFE277-.LFB277
 10257 3b51 01       		.uleb128 0x1
 10258 3b52 9C       		.byte	0x9c
 10259 3b53 963C0000 		.4byte	0x3c96
 10260 3b57 4A       		.uleb128 0x4a
 10261 3b58 4F1B0000 		.4byte	.LASF645
 10262 3b5c 01       		.byte	0x1
 10263 3b5d AD03     		.2byte	0x3ad
 10264 3b5f 16260000 		.4byte	0x2616
 10265 3b63 7C0C0000 		.4byte	.LLST68
 10266 3b67 33       		.uleb128 0x33
 10267 3b68 6900     		.ascii	"i\000"
 10268 3b6a 01       		.byte	0x1
 10269 3b6b AE03     		.2byte	0x3ae
 10270 3b6d 25000000 		.4byte	0x25
 10271 3b71 A80C0000 		.4byte	.LLST69
 10272 3b75 31       		.uleb128 0x31
 10273 3b76 82160000 		.4byte	.LASF646
 10274 3b7a 01       		.byte	0x1
 10275 3b7b AF03     		.2byte	0x3af
 10276 3b7d 832E0000 		.4byte	0x2e83
 10277 3b81 C70C0000 		.4byte	.LLST70
 10278 3b85 39       		.uleb128 0x39
 10279 3b86 2D440000 		.4byte	0x442d
 10280 3b8a 04000000 		.4byte	.LBB588
 10281 3b8e D8010000 		.4byte	.Ldebug_ranges0+0x1d8
 10282 3b92 01       		.byte	0x1
 10283 3b93 B203     		.2byte	0x3b2
 10284 3b95 E33B0000 		.4byte	0x3be3
 10285 3b99 37       		.uleb128 0x37
 10286 3b9a 39440000 		.4byte	0x4439
 10287 3b9e DA0C0000 		.4byte	.LLST71
 10288 3ba2 37       		.uleb128 0x37
 10289 3ba3 44440000 		.4byte	0x4444
 10290 3ba7 060D0000 		.4byte	.LLST72
 10291 3bab 3D       		.uleb128 0x3d
 10292 3bac D8010000 		.4byte	.Ldebug_ranges0+0x1d8
 10293 3bb0 3C       		.uleb128 0x3c
 10294 3bb1 4F440000 		.4byte	0x444f
 10295 3bb5 1A0D0000 		.4byte	.LLST73
 10296 3bb9 50       		.uleb128 0x50
 10297 3bba 46450000 		.4byte	0x4546
 10298 3bbe 12000000 		.4byte	.LBB590
 10299 3bc2 06000000 		.4byte	.LBE590-.LBB590
 10300 3bc6 01       		.byte	0x1
 10301 3bc7 BA       		.byte	0xba
 10302 3bc8 37       		.uleb128 0x37
 10303 3bc9 53450000 		.4byte	0x4553
 10304 3bcd 2D0D0000 		.4byte	.LLST74
 10305 3bd1 41       		.uleb128 0x41
ARM GAS  /tmp/ccH4KobB.s 			page 182


 10306 3bd2 18000000 		.4byte	.LVL146
 10307 3bd6 A24A0000 		.4byte	0x4aa2
 10308 3bda 42       		.uleb128 0x42
 10309 3bdb 01       		.uleb128 0x1
 10310 3bdc 50       		.byte	0x50
 10311 3bdd 01       		.uleb128 0x1
 10312 3bde 3C       		.byte	0x3c
 10313 3bdf 00       		.byte	0
 10314 3be0 00       		.byte	0
 10315 3be1 00       		.byte	0
 10316 3be2 00       		.byte	0
 10317 3be3 39       		.uleb128 0x39
 10318 3be4 15440000 		.4byte	0x4415
 10319 3be8 40000000 		.4byte	.LBB594
 10320 3bec F0010000 		.4byte	.Ldebug_ranges0+0x1f0
 10321 3bf0 01       		.byte	0x1
 10322 3bf1 C103     		.2byte	0x3c1
 10323 3bf3 0A3C0000 		.4byte	0x3c0a
 10324 3bf7 37       		.uleb128 0x37
 10325 3bf8 21440000 		.4byte	0x4421
 10326 3bfc 410D0000 		.4byte	.LLST75
 10327 3c00 37       		.uleb128 0x37
 10328 3c01 21440000 		.4byte	0x4421
 10329 3c05 620D0000 		.4byte	.LLST76
 10330 3c09 00       		.byte	0
 10331 3c0a 35       		.uleb128 0x35
 10332 3c0b 5B440000 		.4byte	0x445b
 10333 3c0f 5A000000 		.4byte	.LBB598
 10334 3c13 12000000 		.4byte	.LBE598-.LBB598
 10335 3c17 01       		.byte	0x1
 10336 3c18 C503     		.2byte	0x3c5
 10337 3c1a 633C0000 		.4byte	0x3c63
 10338 3c1e 37       		.uleb128 0x37
 10339 3c1f 67440000 		.4byte	0x4467
 10340 3c23 830D0000 		.4byte	.LLST77
 10341 3c27 38       		.uleb128 0x38
 10342 3c28 5A000000 		.4byte	.LBB599
 10343 3c2c 12000000 		.4byte	.LBE599-.LBB599
 10344 3c30 3C       		.uleb128 0x3c
 10345 3c31 72440000 		.4byte	0x4472
 10346 3c35 A40D0000 		.4byte	.LLST78
 10347 3c39 50       		.uleb128 0x50
 10348 3c3a 46450000 		.4byte	0x4546
 10349 3c3e 66000000 		.4byte	.LBB600
 10350 3c42 06000000 		.4byte	.LBE600-.LBB600
 10351 3c46 01       		.byte	0x1
 10352 3c47 B0       		.byte	0xb0
 10353 3c48 37       		.uleb128 0x37
 10354 3c49 53450000 		.4byte	0x4553
 10355 3c4d B70D0000 		.4byte	.LLST79
 10356 3c51 41       		.uleb128 0x41
 10357 3c52 6C000000 		.4byte	.LVL153
 10358 3c56 A24A0000 		.4byte	0x4aa2
 10359 3c5a 42       		.uleb128 0x42
 10360 3c5b 01       		.uleb128 0x1
 10361 3c5c 50       		.byte	0x50
 10362 3c5d 01       		.uleb128 0x1
ARM GAS  /tmp/ccH4KobB.s 			page 183


 10363 3c5e 3C       		.byte	0x3c
 10364 3c5f 00       		.byte	0
 10365 3c60 00       		.byte	0
 10366 3c61 00       		.byte	0
 10367 3c62 00       		.byte	0
 10368 3c63 40       		.uleb128 0x40
 10369 3c64 C1430000 		.4byte	0x43c1
 10370 3c68 A4000000 		.4byte	.LBB602
 10371 3c6c 08020000 		.4byte	.Ldebug_ranges0+0x208
 10372 3c70 01       		.byte	0x1
 10373 3c71 D803     		.2byte	0x3d8
 10374 3c73 37       		.uleb128 0x37
 10375 3c74 D1430000 		.4byte	0x43d1
 10376 3c78 CB0D0000 		.4byte	.LLST80
 10377 3c7c 37       		.uleb128 0x37
 10378 3c7d DC430000 		.4byte	0x43dc
 10379 3c81 EC0D0000 		.4byte	.LLST81
 10380 3c85 3D       		.uleb128 0x3d
 10381 3c86 08020000 		.4byte	.Ldebug_ranges0+0x208
 10382 3c8a 3C       		.uleb128 0x3c
 10383 3c8b E7430000 		.4byte	0x43e7
 10384 3c8f 000E0000 		.4byte	.LLST82
 10385 3c93 00       		.byte	0
 10386 3c94 00       		.byte	0
 10387 3c95 00       		.byte	0
 10388 3c96 2F       		.uleb128 0x2f
 10389 3c97 E1010000 		.4byte	.LASF666
 10390 3c9b 01       		.byte	0x1
 10391 3c9c 8603     		.2byte	0x386
 10392 3c9e 00000000 		.4byte	.LFB276
 10393 3ca2 44000000 		.4byte	.LFE276-.LFB276
 10394 3ca6 01       		.uleb128 0x1
 10395 3ca7 9C       		.byte	0x9c
 10396 3ca8 F13C0000 		.4byte	0x3cf1
 10397 3cac 4A       		.uleb128 0x4a
 10398 3cad 4F1B0000 		.4byte	.LASF645
 10399 3cb1 01       		.byte	0x1
 10400 3cb2 8603     		.2byte	0x386
 10401 3cb4 16260000 		.4byte	0x2616
 10402 3cb8 200E0000 		.4byte	.LLST66
 10403 3cbc 31       		.uleb128 0x31
 10404 3cbd 82160000 		.4byte	.LASF646
 10405 3cc1 01       		.byte	0x1
 10406 3cc2 8703     		.2byte	0x387
 10407 3cc4 832E0000 		.4byte	0x2e83
 10408 3cc8 650E0000 		.4byte	.LLST67
 10409 3ccc 52       		.uleb128 0x52
 10410 3ccd 14000000 		.4byte	.LVL136
 10411 3cd1 4D460000 		.4byte	0x464d
 10412 3cd5 E03C0000 		.4byte	0x3ce0
 10413 3cd9 42       		.uleb128 0x42
 10414 3cda 01       		.uleb128 0x1
 10415 3cdb 50       		.byte	0x50
 10416 3cdc 02       		.uleb128 0x2
 10417 3cdd 70       		.byte	0x70
 10418 3cde 00       		.sleb128 0
 10419 3cdf 00       		.byte	0
ARM GAS  /tmp/ccH4KobB.s 			page 184


 10420 3ce0 41       		.uleb128 0x41
 10421 3ce1 2E000000 		.4byte	.LVL139
 10422 3ce5 AE4A0000 		.4byte	0x4aae
 10423 3ce9 42       		.uleb128 0x42
 10424 3cea 01       		.uleb128 0x1
 10425 3ceb 50       		.byte	0x50
 10426 3cec 02       		.uleb128 0x2
 10427 3ced 08       		.byte	0x8
 10428 3cee 43       		.byte	0x43
 10429 3cef 00       		.byte	0
 10430 3cf0 00       		.byte	0
 10431 3cf1 2F       		.uleb128 0x2f
 10432 3cf2 840C0000 		.4byte	.LASF667
 10433 3cf6 01       		.byte	0x1
 10434 3cf7 2603     		.2byte	0x326
 10435 3cf9 00000000 		.4byte	.LFB275
 10436 3cfd E4000000 		.4byte	.LFE275-.LFB275
 10437 3d01 01       		.uleb128 0x1
 10438 3d02 9C       		.byte	0x9c
 10439 3d03 4A3E0000 		.4byte	0x3e4a
 10440 3d07 4A       		.uleb128 0x4a
 10441 3d08 4F1B0000 		.4byte	.LASF645
 10442 3d0c 01       		.byte	0x1
 10443 3d0d 2603     		.2byte	0x326
 10444 3d0f 16260000 		.4byte	0x2616
 10445 3d13 870E0000 		.4byte	.LLST59
 10446 3d17 31       		.uleb128 0x31
 10447 3d18 82160000 		.4byte	.LASF646
 10448 3d1c 01       		.byte	0x1
 10449 3d1d 2703     		.2byte	0x327
 10450 3d1f 832E0000 		.4byte	0x2e83
 10451 3d23 BB0E0000 		.4byte	.LLST60
 10452 3d27 39       		.uleb128 0x39
 10453 3d28 AA440000 		.4byte	0x44aa
 10454 3d2c 2A000000 		.4byte	.LBB576
 10455 3d30 A8010000 		.4byte	.Ldebug_ranges0+0x1a8
 10456 3d34 01       		.byte	0x1
 10457 3d35 5A03     		.2byte	0x35a
 10458 3d37 A93D0000 		.4byte	0x3da9
 10459 3d3b 37       		.uleb128 0x37
 10460 3d3c B6440000 		.4byte	0x44b6
 10461 3d40 EA0E0000 		.4byte	.LLST61
 10462 3d44 3D       		.uleb128 0x3d
 10463 3d45 A8010000 		.4byte	.Ldebug_ranges0+0x1a8
 10464 3d49 3C       		.uleb128 0x3c
 10465 3d4a C1440000 		.4byte	0x44c1
 10466 3d4e 080F0000 		.4byte	.LLST62
 10467 3d52 53       		.uleb128 0x53
 10468 3d53 46450000 		.4byte	0x4546
 10469 3d57 2A000000 		.4byte	.LBB578
 10470 3d5b C0010000 		.4byte	.Ldebug_ranges0+0x1c0
 10471 3d5f 01       		.byte	0x1
 10472 3d60 76       		.byte	0x76
 10473 3d61 7F3D0000 		.4byte	0x3d7f
 10474 3d65 37       		.uleb128 0x37
 10475 3d66 53450000 		.4byte	0x4553
 10476 3d6a 1D0F0000 		.4byte	.LLST63
ARM GAS  /tmp/ccH4KobB.s 			page 185


 10477 3d6e 41       		.uleb128 0x41
 10478 3d6f 36000000 		.4byte	.LVL121
 10479 3d73 A24A0000 		.4byte	0x4aa2
 10480 3d77 42       		.uleb128 0x42
 10481 3d78 01       		.uleb128 0x1
 10482 3d79 50       		.byte	0x50
 10483 3d7a 02       		.uleb128 0x2
 10484 3d7b 08       		.byte	0x8
 10485 3d7c 20       		.byte	0x20
 10486 3d7d 00       		.byte	0
 10487 3d7e 00       		.byte	0
 10488 3d7f 50       		.uleb128 0x50
 10489 3d80 46450000 		.4byte	0x4546
 10490 3d84 40000000 		.4byte	.LBB582
 10491 3d88 06000000 		.4byte	.LBE582-.LBB582
 10492 3d8c 01       		.byte	0x1
 10493 3d8d 7D       		.byte	0x7d
 10494 3d8e 37       		.uleb128 0x37
 10495 3d8f 53450000 		.4byte	0x4553
 10496 3d93 320F0000 		.4byte	.LLST64
 10497 3d97 41       		.uleb128 0x41
 10498 3d98 46000000 		.4byte	.LVL123
 10499 3d9c A24A0000 		.4byte	0x4aa2
 10500 3da0 42       		.uleb128 0x42
 10501 3da1 01       		.uleb128 0x1
 10502 3da2 50       		.byte	0x50
 10503 3da3 01       		.uleb128 0x1
 10504 3da4 3C       		.byte	0x3c
 10505 3da5 00       		.byte	0
 10506 3da6 00       		.byte	0
 10507 3da7 00       		.byte	0
 10508 3da8 00       		.byte	0
 10509 3da9 35       		.uleb128 0x35
 10510 3daa 9C450000 		.4byte	0x459c
 10511 3dae C4000000 		.4byte	.LBB586
 10512 3db2 04000000 		.4byte	.LBE586-.LBB586
 10513 3db6 01       		.byte	0x1
 10514 3db7 7503     		.2byte	0x375
 10515 3db9 DA3D0000 		.4byte	0x3dda
 10516 3dbd 37       		.uleb128 0x37
 10517 3dbe AC450000 		.4byte	0x45ac
 10518 3dc2 520F0000 		.4byte	.LLST65
 10519 3dc6 38       		.uleb128 0x38
 10520 3dc7 C4000000 		.4byte	.LBB587
 10521 3dcb 04000000 		.4byte	.LBE587-.LBB587
 10522 3dcf 43       		.uleb128 0x43
 10523 3dd0 C8000000 		.4byte	.LVL132
 10524 3dd4 B94A0000 		.4byte	0x4ab9
 10525 3dd8 00       		.byte	0
 10526 3dd9 00       		.byte	0
 10527 3dda 52       		.uleb128 0x52
 10528 3ddb 58000000 		.4byte	.LVL124
 10529 3ddf 4D460000 		.4byte	0x464d
 10530 3de3 F63D0000 		.4byte	0x3df6
 10531 3de7 42       		.uleb128 0x42
 10532 3de8 01       		.uleb128 0x1
 10533 3de9 50       		.byte	0x50
ARM GAS  /tmp/ccH4KobB.s 			page 186


 10534 3dea 02       		.uleb128 0x2
 10535 3deb 70       		.byte	0x70
 10536 3dec 00       		.sleb128 0
 10537 3ded 4F       		.uleb128 0x4f
 10538 3dee 8A440000 		.4byte	0x448a
 10539 3df2 02       		.uleb128 0x2
 10540 3df3 75       		.byte	0x75
 10541 3df4 00       		.sleb128 0
 10542 3df5 00       		.byte	0
 10543 3df6 52       		.uleb128 0x52
 10544 3df7 AC000000 		.4byte	.LVL128
 10545 3dfb C54A0000 		.4byte	0x4ac5
 10546 3dff 0F3E0000 		.4byte	0x3e0f
 10547 3e03 42       		.uleb128 0x42
 10548 3e04 01       		.uleb128 0x1
 10549 3e05 50       		.byte	0x50
 10550 3e06 02       		.uleb128 0x2
 10551 3e07 08       		.byte	0x8
 10552 3e08 43       		.byte	0x43
 10553 3e09 42       		.uleb128 0x42
 10554 3e0a 01       		.uleb128 0x1
 10555 3e0b 51       		.byte	0x51
 10556 3e0c 01       		.uleb128 0x1
 10557 3e0d 3E       		.byte	0x3e
 10558 3e0e 00       		.byte	0
 10559 3e0f 52       		.uleb128 0x52
 10560 3e10 C2000000 		.4byte	.LVL130
 10561 3e14 D04A0000 		.4byte	0x4ad0
 10562 3e18 403E0000 		.4byte	0x3e40
 10563 3e1c 42       		.uleb128 0x42
 10564 3e1d 01       		.uleb128 0x1
 10565 3e1e 50       		.byte	0x50
 10566 3e1f 03       		.uleb128 0x3
 10567 3e20 75       		.byte	0x75
 10568 3e21 E800     		.sleb128 104
 10569 3e23 42       		.uleb128 0x42
 10570 3e24 01       		.uleb128 0x1
 10571 3e25 51       		.byte	0x51
 10572 3e26 03       		.uleb128 0x3
 10573 3e27 0A       		.byte	0xa
 10574 3e28 1802     		.2byte	0x218
 10575 3e2a 42       		.uleb128 0x42
 10576 3e2b 01       		.uleb128 0x1
 10577 3e2c 52       		.byte	0x52
 10578 3e2d 01       		.uleb128 0x1
 10579 3e2e 32       		.byte	0x32
 10580 3e2f 42       		.uleb128 0x42
 10581 3e30 01       		.uleb128 0x1
 10582 3e31 53       		.byte	0x53
 10583 3e32 05       		.uleb128 0x5
 10584 3e33 03       		.byte	0x3
 10585 3e34 00000000 		.4byte	usb_lld_pump
 10586 3e38 42       		.uleb128 0x42
 10587 3e39 02       		.uleb128 0x2
 10588 3e3a 7D       		.byte	0x7d
 10589 3e3b 00       		.sleb128 0
 10590 3e3c 02       		.uleb128 0x2
ARM GAS  /tmp/ccH4KobB.s 			page 187


 10591 3e3d 75       		.byte	0x75
 10592 3e3e 00       		.sleb128 0
 10593 3e3f 00       		.byte	0
 10594 3e40 43       		.uleb128 0x43
 10595 3e41 CC000000 		.4byte	.LVL133
 10596 3e45 8B4A0000 		.4byte	0x4a8b
 10597 3e49 00       		.byte	0
 10598 3e4a 2F       		.uleb128 0x2f
 10599 3e4b A4120000 		.4byte	.LASF668
 10600 3e4f 01       		.byte	0x1
 10601 3e50 E802     		.2byte	0x2e8
 10602 3e52 00000000 		.4byte	.LFB274
 10603 3e56 24000000 		.4byte	.LFE274-.LFB274
 10604 3e5a 01       		.uleb128 0x1
 10605 3e5b 9C       		.byte	0x9c
 10606 3e5c 713E0000 		.4byte	0x3e71
 10607 3e60 41       		.uleb128 0x41
 10608 3e61 0A000000 		.4byte	.LVL117
 10609 3e65 DB4A0000 		.4byte	0x4adb
 10610 3e69 42       		.uleb128 0x42
 10611 3e6a 01       		.uleb128 0x1
 10612 3e6b 50       		.byte	0x50
 10613 3e6c 02       		.uleb128 0x2
 10614 3e6d 74       		.byte	0x74
 10615 3e6e 00       		.sleb128 0
 10616 3e6f 00       		.byte	0
 10617 3e70 00       		.byte	0
 10618 3e71 2F       		.uleb128 0x2f
 10619 3e72 C00D0000 		.4byte	.LASF669
 10620 3e76 01       		.byte	0x1
 10621 3e77 C202     		.2byte	0x2c2
 10622 3e79 00000000 		.4byte	.LFB273
 10623 3e7d F4000000 		.4byte	.LFE273-.LFB273
 10624 3e81 01       		.uleb128 0x1
 10625 3e82 9C       		.byte	0x9c
 10626 3e83 A9400000 		.4byte	0x40a9
 10627 3e87 39       		.uleb128 0x39
 10628 3e88 A9400000 		.4byte	0x40a9
 10629 3e8c 02000000 		.4byte	.LBB689
 10630 3e90 B0020000 		.4byte	.Ldebug_ranges0+0x2b0
 10631 3e94 01       		.byte	0x1
 10632 3e95 C602     		.2byte	0x2c6
 10633 3e97 96400000 		.4byte	0x4096
 10634 3e9b 37       		.uleb128 0x37
 10635 3e9c B6400000 		.4byte	0x40b6
 10636 3ea0 650F0000 		.4byte	.LLST131
 10637 3ea4 3D       		.uleb128 0x3d
 10638 3ea5 B0020000 		.4byte	.Ldebug_ranges0+0x2b0
 10639 3ea9 3C       		.uleb128 0x3c
 10640 3eaa C2400000 		.4byte	0x40c2
 10641 3eae 9D0F0000 		.4byte	.LLST132
 10642 3eb2 3C       		.uleb128 0x3c
 10643 3eb3 CE400000 		.4byte	0x40ce
 10644 3eb7 D10F0000 		.4byte	.LLST133
 10645 3ebb 3C       		.uleb128 0x3c
 10646 3ebc DA400000 		.4byte	0x40da
 10647 3ec0 FA0F0000 		.4byte	.LLST134
ARM GAS  /tmp/ccH4KobB.s 			page 188


 10648 3ec4 35       		.uleb128 0x35
 10649 3ec5 69450000 		.4byte	0x4569
 10650 3ec9 76000000 		.4byte	.LBB691
 10651 3ecd 06000000 		.4byte	.LBE691-.LBB691
 10652 3ed1 01       		.byte	0x1
 10653 3ed2 8B02     		.2byte	0x28b
 10654 3ed4 263F0000 		.4byte	0x3f26
 10655 3ed8 36       		.uleb128 0x36
 10656 3ed9 E2450000 		.4byte	0x45e2
 10657 3edd 76000000 		.4byte	.LBB692
 10658 3ee1 06000000 		.4byte	.LBE692-.LBB692
 10659 3ee5 04       		.byte	0x4
 10660 3ee6 0302     		.2byte	0x203
 10661 3ee8 36       		.uleb128 0x36
 10662 3ee9 18460000 		.4byte	0x4618
 10663 3eed 76000000 		.4byte	.LBB693
 10664 3ef1 06000000 		.4byte	.LBE693-.LBB693
 10665 3ef5 2A       		.byte	0x2a
 10666 3ef6 8401     		.2byte	0x184
 10667 3ef8 36       		.uleb128 0x36
 10668 3ef9 2A460000 		.4byte	0x462a
 10669 3efd 76000000 		.4byte	.LBB694
 10670 3f01 06000000 		.4byte	.LBE694-.LBB694
 10671 3f05 13       		.byte	0x13
 10672 3f06 DB01     		.2byte	0x1db
 10673 3f08 36       		.uleb128 0x36
 10674 3f09 33460000 		.4byte	0x4633
 10675 3f0d 76000000 		.4byte	.LBB695
 10676 3f11 06000000 		.4byte	.LBE695-.LBB695
 10677 3f15 13       		.byte	0x13
 10678 3f16 BF01     		.2byte	0x1bf
 10679 3f18 37       		.uleb128 0x37
 10680 3f19 40460000 		.4byte	0x4640
 10681 3f1d 23100000 		.4byte	.LLST135
 10682 3f21 00       		.byte	0
 10683 3f22 00       		.byte	0
 10684 3f23 00       		.byte	0
 10685 3f24 00       		.byte	0
 10686 3f25 00       		.byte	0
 10687 3f26 39       		.uleb128 0x39
 10688 3f27 F9440000 		.4byte	0x44f9
 10689 3f2b 7E000000 		.4byte	.LBB697
 10690 3f2f D0020000 		.4byte	.Ldebug_ranges0+0x2d0
 10691 3f33 01       		.byte	0x1
 10692 3f34 8D02     		.2byte	0x28d
 10693 3f36 653F0000 		.4byte	0x3f65
 10694 3f3a 37       		.uleb128 0x37
 10695 3f3b 12450000 		.4byte	0x4512
 10696 3f3f 38100000 		.4byte	.LLST136
 10697 3f43 37       		.uleb128 0x37
 10698 3f44 06450000 		.4byte	0x4506
 10699 3f48 4C100000 		.4byte	.LLST137
 10700 3f4c 41       		.uleb128 0x41
 10701 3f4d 8C000000 		.4byte	.LVL257
 10702 3f51 E74A0000 		.4byte	0x4ae7
 10703 3f55 42       		.uleb128 0x42
 10704 3f56 01       		.uleb128 0x1
ARM GAS  /tmp/ccH4KobB.s 			page 189


 10705 3f57 50       		.byte	0x50
 10706 3f58 05       		.uleb128 0x5
 10707 3f59 03       		.byte	0x3
 10708 3f5a 60000000 		.4byte	.LANCHOR0+96
 10709 3f5e 42       		.uleb128 0x42
 10710 3f5f 01       		.uleb128 0x1
 10711 3f60 51       		.byte	0x51
 10712 3f61 01       		.uleb128 0x1
 10713 3f62 30       		.byte	0x30
 10714 3f63 00       		.byte	0
 10715 3f64 00       		.byte	0
 10716 3f65 35       		.uleb128 0x35
 10717 3f66 60450000 		.4byte	0x4560
 10718 3f6a 8C000000 		.4byte	.LBB701
 10719 3f6e 08000000 		.4byte	.LBE701-.LBB701
 10720 3f72 01       		.byte	0x1
 10721 3f73 8E02     		.2byte	0x28e
 10722 3f75 C73F0000 		.4byte	0x3fc7
 10723 3f79 36       		.uleb128 0x36
 10724 3f7a D9450000 		.4byte	0x45d9
 10725 3f7e 8C000000 		.4byte	.LBB702
 10726 3f82 08000000 		.4byte	.LBE702-.LBB702
 10727 3f86 04       		.byte	0x4
 10728 3f87 0E02     		.2byte	0x20e
 10729 3f89 36       		.uleb128 0x36
 10730 3f8a 0F460000 		.4byte	0x460f
 10731 3f8e 8C000000 		.4byte	.LBB703
 10732 3f92 08000000 		.4byte	.LBE703-.LBB703
 10733 3f96 2A       		.byte	0x2a
 10734 3f97 9A01     		.2byte	0x19a
 10735 3f99 36       		.uleb128 0x36
 10736 3f9a 21460000 		.4byte	0x4621
 10737 3f9e 8C000000 		.4byte	.LBB704
 10738 3fa2 08000000 		.4byte	.LBE704-.LBB704
 10739 3fa6 13       		.byte	0x13
 10740 3fa7 E601     		.2byte	0x1e6
 10741 3fa9 36       		.uleb128 0x36
 10742 3faa 33460000 		.4byte	0x4633
 10743 3fae 8C000000 		.4byte	.LBB705
 10744 3fb2 08000000 		.4byte	.LBE705-.LBB705
 10745 3fb6 13       		.byte	0x13
 10746 3fb7 CD01     		.2byte	0x1cd
 10747 3fb9 37       		.uleb128 0x37
 10748 3fba 40460000 		.4byte	0x4640
 10749 3fbe 64100000 		.4byte	.LLST138
 10750 3fc2 00       		.byte	0
 10751 3fc3 00       		.byte	0
 10752 3fc4 00       		.byte	0
 10753 3fc5 00       		.byte	0
 10754 3fc6 00       		.byte	0
 10755 3fc7 54       		.uleb128 0x54
 10756 3fc8 28000000 		.4byte	.LVL246
 10757 3fcc D73F0000 		.4byte	0x3fd7
 10758 3fd0 42       		.uleb128 0x42
 10759 3fd1 01       		.uleb128 0x1
 10760 3fd2 50       		.byte	0x50
 10761 3fd3 02       		.uleb128 0x2
ARM GAS  /tmp/ccH4KobB.s 			page 190


 10762 3fd4 75       		.byte	0x75
 10763 3fd5 00       		.sleb128 0
 10764 3fd6 00       		.byte	0
 10765 3fd7 52       		.uleb128 0x52
 10766 3fd8 66000000 		.4byte	.LVL252
 10767 3fdc F24A0000 		.4byte	0x4af2
 10768 3fe0 EB3F0000 		.4byte	0x3feb
 10769 3fe4 42       		.uleb128 0x42
 10770 3fe5 01       		.uleb128 0x1
 10771 3fe6 50       		.byte	0x50
 10772 3fe7 02       		.uleb128 0x2
 10773 3fe8 75       		.byte	0x75
 10774 3fe9 00       		.sleb128 0
 10775 3fea 00       		.byte	0
 10776 3feb 54       		.uleb128 0x54
 10777 3fec 74000000 		.4byte	.LVL253
 10778 3ff0 00400000 		.4byte	0x4000
 10779 3ff4 42       		.uleb128 0x42
 10780 3ff5 01       		.uleb128 0x1
 10781 3ff6 50       		.byte	0x50
 10782 3ff7 02       		.uleb128 0x2
 10783 3ff8 75       		.byte	0x75
 10784 3ff9 00       		.sleb128 0
 10785 3ffa 42       		.uleb128 0x42
 10786 3ffb 01       		.uleb128 0x1
 10787 3ffc 51       		.byte	0x51
 10788 3ffd 01       		.uleb128 0x1
 10789 3ffe 30       		.byte	0x30
 10790 3fff 00       		.byte	0
 10791 4000 52       		.uleb128 0x52
 10792 4001 9A000000 		.4byte	.LVL260
 10793 4005 79460000 		.4byte	0x4679
 10794 4009 13400000 		.4byte	0x4013
 10795 400d 42       		.uleb128 0x42
 10796 400e 01       		.uleb128 0x1
 10797 400f 50       		.byte	0x50
 10798 4010 01       		.uleb128 0x1
 10799 4011 33       		.byte	0x33
 10800 4012 00       		.byte	0
 10801 4013 52       		.uleb128 0x52
 10802 4014 A8000000 		.4byte	.LVL262
 10803 4018 79460000 		.4byte	0x4679
 10804 401c 26400000 		.4byte	0x4026
 10805 4020 42       		.uleb128 0x42
 10806 4021 01       		.uleb128 0x1
 10807 4022 50       		.byte	0x50
 10808 4023 01       		.uleb128 0x1
 10809 4024 30       		.byte	0x30
 10810 4025 00       		.byte	0
 10811 4026 52       		.uleb128 0x52
 10812 4027 B2000000 		.4byte	.LVL263
 10813 402b 79460000 		.4byte	0x4679
 10814 402f 39400000 		.4byte	0x4039
 10815 4033 42       		.uleb128 0x42
 10816 4034 01       		.uleb128 0x1
 10817 4035 50       		.byte	0x50
 10818 4036 01       		.uleb128 0x1
ARM GAS  /tmp/ccH4KobB.s 			page 191


 10819 4037 31       		.byte	0x31
 10820 4038 00       		.byte	0
 10821 4039 52       		.uleb128 0x52
 10822 403a BC000000 		.4byte	.LVL264
 10823 403e 79460000 		.4byte	0x4679
 10824 4042 4C400000 		.4byte	0x404c
 10825 4046 42       		.uleb128 0x42
 10826 4047 01       		.uleb128 0x1
 10827 4048 50       		.byte	0x50
 10828 4049 01       		.uleb128 0x1
 10829 404a 32       		.byte	0x32
 10830 404b 00       		.byte	0
 10831 404c 52       		.uleb128 0x52
 10832 404d C8000000 		.4byte	.LVL266
 10833 4051 CF470000 		.4byte	0x47cf
 10834 4055 5F400000 		.4byte	0x405f
 10835 4059 42       		.uleb128 0x42
 10836 405a 01       		.uleb128 0x1
 10837 405b 50       		.byte	0x50
 10838 405c 01       		.uleb128 0x1
 10839 405d 31       		.byte	0x31
 10840 405e 00       		.byte	0
 10841 405f 52       		.uleb128 0x52
 10842 4060 D2000000 		.4byte	.LVL267
 10843 4064 CF470000 		.4byte	0x47cf
 10844 4068 72400000 		.4byte	0x4072
 10845 406c 42       		.uleb128 0x42
 10846 406d 01       		.uleb128 0x1
 10847 406e 50       		.byte	0x50
 10848 406f 01       		.uleb128 0x1
 10849 4070 32       		.byte	0x32
 10850 4071 00       		.byte	0
 10851 4072 52       		.uleb128 0x52
 10852 4073 DE000000 		.4byte	.LVL270
 10853 4077 CF470000 		.4byte	0x47cf
 10854 407b 85400000 		.4byte	0x4085
 10855 407f 42       		.uleb128 0x42
 10856 4080 01       		.uleb128 0x1
 10857 4081 50       		.byte	0x50
 10858 4082 01       		.uleb128 0x1
 10859 4083 30       		.byte	0x30
 10860 4084 00       		.byte	0
 10861 4085 41       		.uleb128 0x41
 10862 4086 EA000000 		.4byte	.LVL272
 10863 408a CF470000 		.4byte	0x47cf
 10864 408e 42       		.uleb128 0x42
 10865 408f 01       		.uleb128 0x1
 10866 4090 50       		.byte	0x50
 10867 4091 01       		.uleb128 0x1
 10868 4092 33       		.byte	0x33
 10869 4093 00       		.byte	0
 10870 4094 00       		.byte	0
 10871 4095 00       		.byte	0
 10872 4096 55       		.uleb128 0x55
 10873 4097 60000000 		.4byte	.LVL251
 10874 409b FE4A0000 		.4byte	0x4afe
 10875 409f 55       		.uleb128 0x55
ARM GAS  /tmp/ccH4KobB.s 			page 192


 10876 40a0 A2000000 		.4byte	.LVL261
 10877 40a4 FE4A0000 		.4byte	0x4afe
 10878 40a8 00       		.byte	0
 10879 40a9 56       		.uleb128 0x56
 10880 40aa DD120000 		.4byte	.LASF671
 10881 40ae 01       		.byte	0x1
 10882 40af 6F02     		.2byte	0x26f
 10883 40b1 01       		.byte	0x1
 10884 40b2 E7400000 		.4byte	0x40e7
 10885 40b6 48       		.uleb128 0x48
 10886 40b7 4F1B0000 		.4byte	.LASF645
 10887 40bb 01       		.byte	0x1
 10888 40bc 6F02     		.2byte	0x26f
 10889 40be 16260000 		.4byte	0x2616
 10890 40c2 34       		.uleb128 0x34
 10891 40c3 82160000 		.4byte	.LASF646
 10892 40c7 01       		.byte	0x1
 10893 40c8 7002     		.2byte	0x270
 10894 40ca 832E0000 		.4byte	0x2e83
 10895 40ce 57       		.uleb128 0x57
 10896 40cf 73747300 		.ascii	"sts\000"
 10897 40d3 01       		.byte	0x1
 10898 40d4 7102     		.2byte	0x271
 10899 40d6 04090000 		.4byte	0x904
 10900 40da 57       		.uleb128 0x57
 10901 40db 73726300 		.ascii	"src\000"
 10902 40df 01       		.byte	0x1
 10903 40e0 7102     		.2byte	0x271
 10904 40e2 04090000 		.4byte	0x904
 10905 40e6 00       		.byte	0
 10906 40e7 56       		.uleb128 0x56
 10907 40e8 62010000 		.4byte	.LASF672
 10908 40ec 01       		.byte	0x1
 10909 40ed 4502     		.2byte	0x245
 10910 40ef 01       		.byte	0x1
 10911 40f0 32410000 		.4byte	0x4132
 10912 40f4 48       		.uleb128 0x48
 10913 40f5 4F1B0000 		.4byte	.LASF645
 10914 40f9 01       		.byte	0x1
 10915 40fa 4502     		.2byte	0x245
 10916 40fc 16260000 		.4byte	0x2616
 10917 4100 49       		.uleb128 0x49
 10918 4101 657000   		.ascii	"ep\000"
 10919 4104 01       		.byte	0x1
 10920 4105 4502     		.2byte	0x245
 10921 4107 CF240000 		.4byte	0x24cf
 10922 410b 34       		.uleb128 0x34
 10923 410c 82160000 		.4byte	.LASF646
 10924 4110 01       		.byte	0x1
 10925 4111 4602     		.2byte	0x246
 10926 4113 832E0000 		.4byte	0x2e83
 10927 4117 34       		.uleb128 0x34
 10928 4118 CA010000 		.4byte	.LASF673
 10929 411c 01       		.byte	0x1
 10930 411d 4702     		.2byte	0x247
 10931 411f 04090000 		.4byte	0x904
 10932 4123 58       		.uleb128 0x58
ARM GAS  /tmp/ccH4KobB.s 			page 193


 10933 4124 57       		.uleb128 0x57
 10934 4125 6F737000 		.ascii	"osp\000"
 10935 4129 01       		.byte	0x1
 10936 412a 5402     		.2byte	0x254
 10937 412c F12D0000 		.4byte	0x2df1
 10938 4130 00       		.byte	0
 10939 4131 00       		.byte	0
 10940 4132 56       		.uleb128 0x56
 10941 4133 BE160000 		.4byte	.LASF674
 10942 4137 01       		.byte	0x1
 10943 4138 1502     		.2byte	0x215
 10944 413a 01       		.byte	0x1
 10945 413b 7D410000 		.4byte	0x417d
 10946 413f 48       		.uleb128 0x48
 10947 4140 4F1B0000 		.4byte	.LASF645
 10948 4144 01       		.byte	0x1
 10949 4145 1502     		.2byte	0x215
 10950 4147 16260000 		.4byte	0x2616
 10951 414b 49       		.uleb128 0x49
 10952 414c 657000   		.ascii	"ep\000"
 10953 414f 01       		.byte	0x1
 10954 4150 1502     		.2byte	0x215
 10955 4152 CF240000 		.4byte	0x24cf
 10956 4156 34       		.uleb128 0x34
 10957 4157 82160000 		.4byte	.LASF646
 10958 415b 01       		.byte	0x1
 10959 415c 1602     		.2byte	0x216
 10960 415e 832E0000 		.4byte	0x2e83
 10961 4162 34       		.uleb128 0x34
 10962 4163 CA010000 		.4byte	.LASF673
 10963 4167 01       		.byte	0x1
 10964 4168 1702     		.2byte	0x217
 10965 416a 04090000 		.4byte	0x904
 10966 416e 58       		.uleb128 0x58
 10967 416f 57       		.uleb128 0x57
 10968 4170 69737000 		.ascii	"isp\000"
 10969 4174 01       		.byte	0x1
 10970 4175 2002     		.2byte	0x220
 10971 4177 EB2D0000 		.4byte	0x2deb
 10972 417b 00       		.byte	0
 10973 417c 00       		.byte	0
 10974 417d 59       		.uleb128 0x59
 10975 417e 540C0000 		.4byte	.LASF682
 10976 4182 01       		.byte	0x1
 10977 4183 E101     		.2byte	0x1e1
 10978 4185 5D180000 		.4byte	0x185d
 10979 4189 01       		.byte	0x1
 10980 418a B2410000 		.4byte	0x41b2
 10981 418e 48       		.uleb128 0x48
 10982 418f 4F1B0000 		.4byte	.LASF645
 10983 4193 01       		.byte	0x1
 10984 4194 E101     		.2byte	0x1e1
 10985 4196 16260000 		.4byte	0x2616
 10986 419a 49       		.uleb128 0x49
 10987 419b 657000   		.ascii	"ep\000"
 10988 419e 01       		.byte	0x1
 10989 419f E101     		.2byte	0x1e1
ARM GAS  /tmp/ccH4KobB.s 			page 194


 10990 41a1 CF240000 		.4byte	0x24cf
 10991 41a5 58       		.uleb128 0x58
 10992 41a6 57       		.uleb128 0x57
 10993 41a7 6E00     		.ascii	"n\000"
 10994 41a9 01       		.byte	0x1
 10995 41aa E501     		.2byte	0x1e5
 10996 41ac 04090000 		.4byte	0x904
 10997 41b0 00       		.byte	0
 10998 41b1 00       		.byte	0
 10999 41b2 56       		.uleb128 0x56
 11000 41b3 0F060000 		.4byte	.LASF675
 11001 41b7 01       		.byte	0x1
 11002 41b8 B201     		.2byte	0x1b2
 11003 41ba 01       		.byte	0x1
 11004 41bb EF410000 		.4byte	0x41ef
 11005 41bf 48       		.uleb128 0x48
 11006 41c0 4F1B0000 		.4byte	.LASF645
 11007 41c4 01       		.byte	0x1
 11008 41c5 B201     		.2byte	0x1b2
 11009 41c7 16260000 		.4byte	0x2616
 11010 41cb 57       		.uleb128 0x57
 11011 41cc 73747300 		.ascii	"sts\000"
 11012 41d0 01       		.byte	0x1
 11013 41d1 B301     		.2byte	0x1b3
 11014 41d3 04090000 		.4byte	0x904
 11015 41d7 57       		.uleb128 0x57
 11016 41d8 636E7400 		.ascii	"cnt\000"
 11017 41dc 01       		.byte	0x1
 11018 41dd B301     		.2byte	0x1b3
 11019 41df 04090000 		.4byte	0x904
 11020 41e3 57       		.uleb128 0x57
 11021 41e4 657000   		.ascii	"ep\000"
 11022 41e7 01       		.byte	0x1
 11023 41e8 B301     		.2byte	0x1b3
 11024 41ea 04090000 		.4byte	0x904
 11025 41ee 00       		.byte	0
 11026 41ef 56       		.uleb128 0x56
 11027 41f0 E5170000 		.4byte	.LASF676
 11028 41f4 01       		.byte	0x1
 11029 41f5 7C01     		.2byte	0x17c
 11030 41f7 01       		.byte	0x1
 11031 41f8 66420000 		.4byte	0x4266
 11032 41fc 48       		.uleb128 0x48
 11033 41fd E4110000 		.4byte	.LASF677
 11034 4201 01       		.byte	0x1
 11035 4202 7C01     		.2byte	0x17c
 11036 4204 CA180000 		.4byte	0x18ca
 11037 4208 49       		.uleb128 0x49
 11038 4209 69717000 		.ascii	"iqp\000"
 11039 420d 01       		.byte	0x1
 11040 420e 7D01     		.2byte	0x17d
 11041 4210 E42C0000 		.4byte	0x2ce4
 11042 4214 49       		.uleb128 0x49
 11043 4215 6E00     		.ascii	"n\000"
 11044 4217 01       		.byte	0x1
 11045 4218 7E01     		.2byte	0x17e
 11046 421a 33000000 		.4byte	0x33
ARM GAS  /tmp/ccH4KobB.s 			page 195


 11047 421e 34       		.uleb128 0x34
 11048 421f 31160000 		.4byte	.LASF678
 11049 4223 01       		.byte	0x1
 11050 4224 7F01     		.2byte	0x17f
 11051 4226 33000000 		.4byte	0x33
 11052 422a 58       		.uleb128 0x58
 11053 422b 57       		.uleb128 0x57
 11054 422c 7700     		.ascii	"w\000"
 11055 422e 01       		.byte	0x1
 11056 422f 8301     		.2byte	0x183
 11057 4231 04090000 		.4byte	0x904
 11058 4235 57       		.uleb128 0x57
 11059 4236 6900     		.ascii	"i\000"
 11060 4238 01       		.byte	0x1
 11061 4239 8301     		.2byte	0x183
 11062 423b 04090000 		.4byte	0x904
 11063 423f 57       		.uleb128 0x57
 11064 4240 6E7700   		.ascii	"nw\000"
 11065 4243 01       		.byte	0x1
 11066 4244 8401     		.2byte	0x184
 11067 4246 33000000 		.4byte	0x33
 11068 424a 58       		.uleb128 0x58
 11069 424b 34       		.uleb128 0x34
 11070 424c 021E0000 		.4byte	.LASF679
 11071 4250 01       		.byte	0x1
 11072 4251 8701     		.2byte	0x187
 11073 4253 33000000 		.4byte	0x33
 11074 4257 34       		.uleb128 0x34
 11075 4258 CC1B0000 		.4byte	.LASF680
 11076 425c 01       		.byte	0x1
 11077 425d 8801     		.2byte	0x188
 11078 425f 04090000 		.4byte	0x904
 11079 4263 00       		.byte	0
 11080 4264 00       		.byte	0
 11081 4265 00       		.byte	0
 11082 4266 56       		.uleb128 0x56
 11083 4267 1C1E0000 		.4byte	.LASF681
 11084 426b 01       		.byte	0x1
 11085 426c 5F01     		.2byte	0x15f
 11086 426e 01       		.byte	0x1
 11087 426f AE420000 		.4byte	0x42ae
 11088 4273 48       		.uleb128 0x48
 11089 4274 E4110000 		.4byte	.LASF677
 11090 4278 01       		.byte	0x1
 11091 4279 5F01     		.2byte	0x15f
 11092 427b CA180000 		.4byte	0x18ca
 11093 427f 49       		.uleb128 0x49
 11094 4280 62756600 		.ascii	"buf\000"
 11095 4284 01       		.byte	0x1
 11096 4285 6001     		.2byte	0x160
 11097 4287 C7170000 		.4byte	0x17c7
 11098 428b 49       		.uleb128 0x49
 11099 428c 6E00     		.ascii	"n\000"
 11100 428e 01       		.byte	0x1
 11101 428f 6101     		.2byte	0x161
 11102 4291 33000000 		.4byte	0x33
 11103 4295 49       		.uleb128 0x49
ARM GAS  /tmp/ccH4KobB.s 			page 196


 11104 4296 6D617800 		.ascii	"max\000"
 11105 429a 01       		.byte	0x1
 11106 429b 6201     		.2byte	0x162
 11107 429d 33000000 		.4byte	0x33
 11108 42a1 58       		.uleb128 0x58
 11109 42a2 57       		.uleb128 0x57
 11110 42a3 7700     		.ascii	"w\000"
 11111 42a5 01       		.byte	0x1
 11112 42a6 6701     		.2byte	0x167
 11113 42a8 04090000 		.4byte	0x904
 11114 42ac 00       		.byte	0
 11115 42ad 00       		.byte	0
 11116 42ae 59       		.uleb128 0x59
 11117 42af 7E080000 		.4byte	.LASF683
 11118 42b3 01       		.byte	0x1
 11119 42b4 4801     		.2byte	0x148
 11120 42b6 C7170000 		.4byte	0x17c7
 11121 42ba 01       		.byte	0x1
 11122 42bb EE420000 		.4byte	0x42ee
 11123 42bf 48       		.uleb128 0x48
 11124 42c0 E4110000 		.4byte	.LASF677
 11125 42c4 01       		.byte	0x1
 11126 42c5 4801     		.2byte	0x148
 11127 42c7 CA180000 		.4byte	0x18ca
 11128 42cb 49       		.uleb128 0x49
 11129 42cc 62756600 		.ascii	"buf\000"
 11130 42d0 01       		.byte	0x1
 11131 42d1 4801     		.2byte	0x148
 11132 42d3 C7170000 		.4byte	0x17c7
 11133 42d7 49       		.uleb128 0x49
 11134 42d8 6E00     		.ascii	"n\000"
 11135 42da 01       		.byte	0x1
 11136 42db 4801     		.2byte	0x148
 11137 42dd 33000000 		.4byte	0x33
 11138 42e1 58       		.uleb128 0x58
 11139 42e2 57       		.uleb128 0x57
 11140 42e3 7700     		.ascii	"w\000"
 11141 42e5 01       		.byte	0x1
 11142 42e6 4B01     		.2byte	0x14b
 11143 42e8 04090000 		.4byte	0x904
 11144 42ec 00       		.byte	0
 11145 42ed 00       		.byte	0
 11146 42ee 56       		.uleb128 0x56
 11147 42ef 721B0000 		.4byte	.LASF684
 11148 42f3 01       		.byte	0x1
 11149 42f4 0C01     		.2byte	0x10c
 11150 42f6 01       		.byte	0x1
 11151 42f7 65430000 		.4byte	0x4365
 11152 42fb 48       		.uleb128 0x48
 11153 42fc E4110000 		.4byte	.LASF677
 11154 4300 01       		.byte	0x1
 11155 4301 0C01     		.2byte	0x10c
 11156 4303 CA180000 		.4byte	0x18ca
 11157 4307 49       		.uleb128 0x49
 11158 4308 6F717000 		.ascii	"oqp\000"
 11159 430c 01       		.byte	0x1
 11160 430d 0D01     		.2byte	0x10d
ARM GAS  /tmp/ccH4KobB.s 			page 197


 11161 430f 412C0000 		.4byte	0x2c41
 11162 4313 49       		.uleb128 0x49
 11163 4314 6E00     		.ascii	"n\000"
 11164 4316 01       		.byte	0x1
 11165 4317 0E01     		.2byte	0x10e
 11166 4319 33000000 		.4byte	0x33
 11167 431d 34       		.uleb128 0x34
 11168 431e 31160000 		.4byte	.LASF678
 11169 4322 01       		.byte	0x1
 11170 4323 0F01     		.2byte	0x10f
 11171 4325 33000000 		.4byte	0x33
 11172 4329 58       		.uleb128 0x58
 11173 432a 57       		.uleb128 0x57
 11174 432b 7700     		.ascii	"w\000"
 11175 432d 01       		.byte	0x1
 11176 432e 1301     		.2byte	0x113
 11177 4330 04090000 		.4byte	0x904
 11178 4334 57       		.uleb128 0x57
 11179 4335 6900     		.ascii	"i\000"
 11180 4337 01       		.byte	0x1
 11181 4338 1301     		.2byte	0x113
 11182 433a 04090000 		.4byte	0x904
 11183 433e 57       		.uleb128 0x57
 11184 433f 6E7700   		.ascii	"nw\000"
 11185 4342 01       		.byte	0x1
 11186 4343 1401     		.2byte	0x114
 11187 4345 33000000 		.4byte	0x33
 11188 4349 58       		.uleb128 0x58
 11189 434a 34       		.uleb128 0x34
 11190 434b 021E0000 		.4byte	.LASF679
 11191 434f 01       		.byte	0x1
 11192 4350 1701     		.2byte	0x117
 11193 4352 33000000 		.4byte	0x33
 11194 4356 34       		.uleb128 0x34
 11195 4357 CC1B0000 		.4byte	.LASF680
 11196 435b 01       		.byte	0x1
 11197 435c 1801     		.2byte	0x118
 11198 435e 04090000 		.4byte	0x904
 11199 4362 00       		.byte	0
 11200 4363 00       		.byte	0
 11201 4364 00       		.byte	0
 11202 4365 5A       		.uleb128 0x5a
 11203 4366 95030000 		.4byte	.LASF685
 11204 436a 01       		.byte	0x1
 11205 436b FC       		.byte	0xfc
 11206 436c 01       		.byte	0x1
 11207 436d 91430000 		.4byte	0x4391
 11208 4371 5B       		.uleb128 0x5b
 11209 4372 E4110000 		.4byte	.LASF677
 11210 4376 01       		.byte	0x1
 11211 4377 FC       		.byte	0xfc
 11212 4378 CA180000 		.4byte	0x18ca
 11213 437c 5C       		.uleb128 0x5c
 11214 437d 62756600 		.ascii	"buf\000"
 11215 4381 01       		.byte	0x1
 11216 4382 FD       		.byte	0xfd
 11217 4383 FC170000 		.4byte	0x17fc
ARM GAS  /tmp/ccH4KobB.s 			page 198


 11218 4387 5C       		.uleb128 0x5c
 11219 4388 6E00     		.ascii	"n\000"
 11220 438a 01       		.byte	0x1
 11221 438b FE       		.byte	0xfe
 11222 438c 33000000 		.4byte	0x33
 11223 4390 00       		.byte	0
 11224 4391 5D       		.uleb128 0x5d
 11225 4392 19130000 		.4byte	.LASF686
 11226 4396 01       		.byte	0x1
 11227 4397 E7       		.byte	0xe7
 11228 4398 C7170000 		.4byte	0x17c7
 11229 439c 01       		.byte	0x1
 11230 439d C1430000 		.4byte	0x43c1
 11231 43a1 5B       		.uleb128 0x5b
 11232 43a2 E4110000 		.4byte	.LASF677
 11233 43a6 01       		.byte	0x1
 11234 43a7 E7       		.byte	0xe7
 11235 43a8 CA180000 		.4byte	0x18ca
 11236 43ac 5C       		.uleb128 0x5c
 11237 43ad 62756600 		.ascii	"buf\000"
 11238 43b1 01       		.byte	0x1
 11239 43b2 E7       		.byte	0xe7
 11240 43b3 C7170000 		.4byte	0x17c7
 11241 43b7 5C       		.uleb128 0x5c
 11242 43b8 6E00     		.ascii	"n\000"
 11243 43ba 01       		.byte	0x1
 11244 43bb E7       		.byte	0xe7
 11245 43bc 33000000 		.4byte	0x33
 11246 43c0 00       		.byte	0
 11247 43c1 5D       		.uleb128 0x5d
 11248 43c2 010D0000 		.4byte	.LASF687
 11249 43c6 01       		.byte	0x1
 11250 43c7 D1       		.byte	0xd1
 11251 43c8 04090000 		.4byte	0x904
 11252 43cc 01       		.byte	0x1
 11253 43cd 00440000 		.4byte	0x4400
 11254 43d1 5B       		.uleb128 0x5b
 11255 43d2 4F1B0000 		.4byte	.LASF645
 11256 43d6 01       		.byte	0x1
 11257 43d7 D1       		.byte	0xd1
 11258 43d8 16260000 		.4byte	0x2616
 11259 43dc 5B       		.uleb128 0x5b
 11260 43dd 380B0000 		.4byte	.LASF688
 11261 43e1 01       		.byte	0x1
 11262 43e2 D1       		.byte	0xd1
 11263 43e3 33000000 		.4byte	0x33
 11264 43e7 5E       		.uleb128 0x5e
 11265 43e8 9B010000 		.4byte	.LASF689
 11266 43ec 01       		.byte	0x1
 11267 43ed D2       		.byte	0xd2
 11268 43ee 04090000 		.4byte	0x904
 11269 43f2 5F       		.uleb128 0x5f
 11270 43f3 33000000 		.4byte	.LASF690
 11271 43f7 10440000 		.4byte	0x4410
 11272 43fb 010D0000 		.4byte	.LASF687
 11273 43ff 00       		.byte	0
 11274 4400 0B       		.uleb128 0xb
ARM GAS  /tmp/ccH4KobB.s 			page 199


 11275 4401 5F010000 		.4byte	0x15f
 11276 4405 10440000 		.4byte	0x4410
 11277 4409 0C       		.uleb128 0xc
 11278 440a 25000000 		.4byte	0x25
 11279 440e 0D       		.byte	0xd
 11280 440f 00       		.byte	0
 11281 4410 10       		.uleb128 0x10
 11282 4411 00440000 		.4byte	0x4400
 11283 4415 5A       		.uleb128 0x5a
 11284 4416 681A0000 		.4byte	.LASF691
 11285 441a 01       		.byte	0x1
 11286 441b C4       		.byte	0xc4
 11287 441c 01       		.byte	0x1
 11288 441d 2D440000 		.4byte	0x442d
 11289 4421 5B       		.uleb128 0x5b
 11290 4422 4F1B0000 		.4byte	.LASF645
 11291 4426 01       		.byte	0x1
 11292 4427 C4       		.byte	0xc4
 11293 4428 16260000 		.4byte	0x2616
 11294 442c 00       		.byte	0
 11295 442d 5A       		.uleb128 0x5a
 11296 442e 680F0000 		.4byte	.LASF692
 11297 4432 01       		.byte	0x1
 11298 4433 B3       		.byte	0xb3
 11299 4434 01       		.byte	0x1
 11300 4435 5B440000 		.4byte	0x445b
 11301 4439 5B       		.uleb128 0x5b
 11302 443a 4F1B0000 		.4byte	.LASF645
 11303 443e 01       		.byte	0x1
 11304 443f B3       		.byte	0xb3
 11305 4440 16260000 		.4byte	0x2616
 11306 4444 5B       		.uleb128 0x5b
 11307 4445 4A090000 		.4byte	.LASF693
 11308 4449 01       		.byte	0x1
 11309 444a B3       		.byte	0xb3
 11310 444b 04090000 		.4byte	0x904
 11311 444f 5E       		.uleb128 0x5e
 11312 4450 82160000 		.4byte	.LASF646
 11313 4454 01       		.byte	0x1
 11314 4455 B4       		.byte	0xb4
 11315 4456 832E0000 		.4byte	0x2e83
 11316 445a 00       		.byte	0
 11317 445b 5A       		.uleb128 0x5a
 11318 445c 781C0000 		.4byte	.LASF694
 11319 4460 01       		.byte	0x1
 11320 4461 A9       		.byte	0xa9
 11321 4462 01       		.byte	0x1
 11322 4463 7E440000 		.4byte	0x447e
 11323 4467 5B       		.uleb128 0x5b
 11324 4468 4F1B0000 		.4byte	.LASF645
 11325 446c 01       		.byte	0x1
 11326 446d A9       		.byte	0xa9
 11327 446e 16260000 		.4byte	0x2616
 11328 4472 5E       		.uleb128 0x5e
 11329 4473 82160000 		.4byte	.LASF646
 11330 4477 01       		.byte	0x1
 11331 4478 AA       		.byte	0xaa
ARM GAS  /tmp/ccH4KobB.s 			page 200


 11332 4479 832E0000 		.4byte	0x2e83
 11333 447d 00       		.byte	0
 11334 447e 5A       		.uleb128 0x5a
 11335 447f A4150000 		.4byte	.LASF695
 11336 4483 01       		.byte	0x1
 11337 4484 84       		.byte	0x84
 11338 4485 01       		.byte	0x1
 11339 4486 AA440000 		.4byte	0x44aa
 11340 448a 5B       		.uleb128 0x5b
 11341 448b 4F1B0000 		.4byte	.LASF645
 11342 448f 01       		.byte	0x1
 11343 4490 84       		.byte	0x84
 11344 4491 16260000 		.4byte	0x2616
 11345 4495 5E       		.uleb128 0x5e
 11346 4496 82160000 		.4byte	.LASF646
 11347 449a 01       		.byte	0x1
 11348 449b 85       		.byte	0x85
 11349 449c 832E0000 		.4byte	0x2e83
 11350 44a0 60       		.uleb128 0x60
 11351 44a1 6900     		.ascii	"i\000"
 11352 44a3 01       		.byte	0x1
 11353 44a4 86       		.byte	0x86
 11354 44a5 25000000 		.4byte	0x25
 11355 44a9 00       		.byte	0
 11356 44aa 5A       		.uleb128 0x5a
 11357 44ab 03090000 		.4byte	.LASF696
 11358 44af 01       		.byte	0x1
 11359 44b0 73       		.byte	0x73
 11360 44b1 01       		.byte	0x1
 11361 44b2 CD440000 		.4byte	0x44cd
 11362 44b6 5B       		.uleb128 0x5b
 11363 44b7 4F1B0000 		.4byte	.LASF645
 11364 44bb 01       		.byte	0x1
 11365 44bc 73       		.byte	0x73
 11366 44bd 16260000 		.4byte	0x2616
 11367 44c1 5E       		.uleb128 0x5e
 11368 44c2 82160000 		.4byte	.LASF646
 11369 44c6 01       		.byte	0x1
 11370 44c7 74       		.byte	0x74
 11371 44c8 832E0000 		.4byte	0x2e83
 11372 44cc 00       		.byte	0
 11373 44cd 56       		.uleb128 0x56
 11374 44ce B60E0000 		.4byte	.LASF697
 11375 44d2 04       		.byte	0x4
 11376 44d3 2803     		.2byte	0x328
 11377 44d5 03       		.byte	0x3
 11378 44d6 F3440000 		.4byte	0x44f3
 11379 44da 49       		.uleb128 0x49
 11380 44db 74717000 		.ascii	"tqp\000"
 11381 44df 04       		.byte	0x4
 11382 44e0 2803     		.2byte	0x328
 11383 44e2 F3440000 		.4byte	0x44f3
 11384 44e6 49       		.uleb128 0x49
 11385 44e7 6D736700 		.ascii	"msg\000"
 11386 44eb 04       		.byte	0x4
 11387 44ec 2803     		.2byte	0x328
 11388 44ee 61090000 		.4byte	0x961
ARM GAS  /tmp/ccH4KobB.s 			page 201


 11389 44f2 00       		.byte	0
 11390 44f3 06       		.uleb128 0x6
 11391 44f4 04       		.byte	0x4
 11392 44f5 E20A0000 		.4byte	0xae2
 11393 44f9 56       		.uleb128 0x56
 11394 44fa 51030000 		.4byte	.LASF698
 11395 44fe 04       		.byte	0x4
 11396 44ff D602     		.2byte	0x2d6
 11397 4501 03       		.byte	0x3
 11398 4502 1F450000 		.4byte	0x451f
 11399 4506 49       		.uleb128 0x49
 11400 4507 74727000 		.ascii	"trp\000"
 11401 450b 04       		.byte	0x4
 11402 450c D602     		.2byte	0x2d6
 11403 450e 09150000 		.4byte	0x1509
 11404 4512 49       		.uleb128 0x49
 11405 4513 6D736700 		.ascii	"msg\000"
 11406 4517 04       		.byte	0x4
 11407 4518 D602     		.2byte	0x2d6
 11408 451a 61090000 		.4byte	0x961
 11409 451e 00       		.byte	0
 11410 451f 59       		.uleb128 0x59
 11411 4520 A00C0000 		.4byte	.LASF699
 11412 4524 04       		.byte	0x4
 11413 4525 AE02     		.2byte	0x2ae
 11414 4527 61090000 		.4byte	0x961
 11415 452b 03       		.byte	0x3
 11416 452c 3D450000 		.4byte	0x453d
 11417 4530 49       		.uleb128 0x49
 11418 4531 74727000 		.ascii	"trp\000"
 11419 4535 04       		.byte	0x4
 11420 4536 AE02     		.2byte	0x2ae
 11421 4538 09150000 		.4byte	0x1509
 11422 453c 00       		.byte	0
 11423 453d 61       		.uleb128 0x61
 11424 453e D1180000 		.4byte	.LASF702
 11425 4542 04       		.byte	0x4
 11426 4543 5602     		.2byte	0x256
 11427 4545 03       		.byte	0x3
 11428 4546 56       		.uleb128 0x56
 11429 4547 751D0000 		.4byte	.LASF700
 11430 454b 04       		.byte	0x4
 11431 454c 3B02     		.2byte	0x23b
 11432 454e 03       		.byte	0x3
 11433 454f 60450000 		.4byte	0x4560
 11434 4553 48       		.uleb128 0x48
 11435 4554 3F020000 		.4byte	.LASF701
 11436 4558 04       		.byte	0x4
 11437 4559 3B02     		.2byte	0x23b
 11438 455b 1F090000 		.4byte	0x91f
 11439 455f 00       		.byte	0
 11440 4560 61       		.uleb128 0x61
 11441 4561 38050000 		.4byte	.LASF703
 11442 4565 04       		.byte	0x4
 11443 4566 0C02     		.2byte	0x20c
 11444 4568 03       		.byte	0x3
 11445 4569 61       		.uleb128 0x61
ARM GAS  /tmp/ccH4KobB.s 			page 202


 11446 456a 4D120000 		.4byte	.LASF704
 11447 456e 04       		.byte	0x4
 11448 456f 0102     		.2byte	0x201
 11449 4571 03       		.byte	0x3
 11450 4572 61       		.uleb128 0x61
 11451 4573 C9000000 		.4byte	.LASF705
 11452 4577 04       		.byte	0x4
 11453 4578 F601     		.2byte	0x1f6
 11454 457a 03       		.byte	0x3
 11455 457b 61       		.uleb128 0x61
 11456 457c CF160000 		.4byte	.LASF706
 11457 4580 04       		.byte	0x4
 11458 4581 EB01     		.2byte	0x1eb
 11459 4583 03       		.byte	0x3
 11460 4584 5A       		.uleb128 0x5a
 11461 4585 DC190000 		.4byte	.LASF707
 11462 4589 02       		.byte	0x2
 11463 458a 84       		.byte	0x84
 11464 458b 03       		.byte	0x3
 11465 458c 9C450000 		.4byte	0x459c
 11466 4590 5B       		.uleb128 0x5b
 11467 4591 971B0000 		.4byte	.LASF708
 11468 4595 02       		.byte	0x2
 11469 4596 84       		.byte	0x84
 11470 4597 D0050000 		.4byte	0x5d0
 11471 459b 00       		.byte	0
 11472 459c 5D       		.uleb128 0x5d
 11473 459d B80C0000 		.4byte	.LASF709
 11474 45a1 05       		.byte	0x5
 11475 45a2 F5       		.byte	0xf5
 11476 45a3 B80A0000 		.4byte	0xab8
 11477 45a7 03       		.byte	0x3
 11478 45a8 C4450000 		.4byte	0x45c4
 11479 45ac 5C       		.uleb128 0x5c
 11480 45ad 747000   		.ascii	"tp\000"
 11481 45b0 05       		.byte	0x5
 11482 45b1 F5       		.byte	0xf5
 11483 45b2 B80A0000 		.4byte	0xab8
 11484 45b6 5F       		.uleb128 0x5f
 11485 45b7 33000000 		.4byte	.LASF690
 11486 45bb D4450000 		.4byte	0x45d4
 11487 45bf B80C0000 		.4byte	.LASF709
 11488 45c3 00       		.byte	0
 11489 45c4 0B       		.uleb128 0xb
 11490 45c5 5F010000 		.4byte	0x15f
 11491 45c9 D4450000 		.4byte	0x45d4
 11492 45cd 0C       		.uleb128 0xc
 11493 45ce 25000000 		.4byte	0x25
 11494 45d2 0B       		.byte	0xb
 11495 45d3 00       		.byte	0
 11496 45d4 10       		.uleb128 0x10
 11497 45d5 C4450000 		.4byte	0x45c4
 11498 45d9 61       		.uleb128 0x61
 11499 45da 7C150000 		.4byte	.LASF710
 11500 45de 2A       		.byte	0x2a
 11501 45df 9601     		.2byte	0x196
 11502 45e1 03       		.byte	0x3
ARM GAS  /tmp/ccH4KobB.s 			page 203


 11503 45e2 61       		.uleb128 0x61
 11504 45e3 451C0000 		.4byte	.LASF711
 11505 45e7 2A       		.byte	0x2a
 11506 45e8 8201     		.2byte	0x182
 11507 45ea 03       		.byte	0x3
 11508 45eb 56       		.uleb128 0x56
 11509 45ec F5190000 		.4byte	.LASF712
 11510 45f0 2A       		.byte	0x2a
 11511 45f1 6601     		.2byte	0x166
 11512 45f3 03       		.byte	0x3
 11513 45f4 06460000 		.4byte	0x4606
 11514 45f8 5F       		.uleb128 0x5f
 11515 45f9 33000000 		.4byte	.LASF690
 11516 45fd D4450000 		.4byte	0x45d4
 11517 4601 F5190000 		.4byte	.LASF712
 11518 4605 00       		.byte	0
 11519 4606 61       		.uleb128 0x61
 11520 4607 0F050000 		.4byte	.LASF713
 11521 460b 2A       		.byte	0x2a
 11522 460c 5A01     		.2byte	0x15a
 11523 460e 03       		.byte	0x3
 11524 460f 61       		.uleb128 0x61
 11525 4610 56000000 		.4byte	.LASF714
 11526 4614 13       		.byte	0x13
 11527 4615 E401     		.2byte	0x1e4
 11528 4617 03       		.byte	0x3
 11529 4618 61       		.uleb128 0x61
 11530 4619 87100000 		.4byte	.LASF715
 11531 461d 13       		.byte	0x13
 11532 461e D901     		.2byte	0x1d9
 11533 4620 03       		.byte	0x3
 11534 4621 61       		.uleb128 0x61
 11535 4622 2E130000 		.4byte	.LASF716
 11536 4626 13       		.byte	0x13
 11537 4627 CA01     		.2byte	0x1ca
 11538 4629 03       		.byte	0x3
 11539 462a 61       		.uleb128 0x61
 11540 462b 73140000 		.4byte	.LASF717
 11541 462f 13       		.byte	0x13
 11542 4630 BC01     		.2byte	0x1bc
 11543 4632 03       		.byte	0x3
 11544 4633 56       		.uleb128 0x56
 11545 4634 061D0000 		.4byte	.LASF718
 11546 4638 03       		.byte	0x3
 11547 4639 2002     		.2byte	0x220
 11548 463b 03       		.byte	0x3
 11549 463c 4D460000 		.4byte	0x464d
 11550 4640 48       		.uleb128 0x48
 11551 4641 9F0A0000 		.4byte	.LASF719
 11552 4645 03       		.byte	0x3
 11553 4646 2002     		.2byte	0x220
 11554 4648 04090000 		.4byte	0x904
 11555 464c 00       		.byte	0
 11556 464d 62       		.uleb128 0x62
 11557 464e 7E440000 		.4byte	0x447e
 11558 4652 00000000 		.4byte	.LFB293
 11559 4656 74000000 		.4byte	.LFE293-.LFB293
ARM GAS  /tmp/ccH4KobB.s 			page 204


 11560 465a 01       		.uleb128 0x1
 11561 465b 9C       		.byte	0x9c
 11562 465c 79460000 		.4byte	0x4679
 11563 4660 3A       		.uleb128 0x3a
 11564 4661 8A440000 		.4byte	0x448a
 11565 4665 3A       		.uleb128 0x3a
 11566 4666 8A440000 		.4byte	0x448a
 11567 466a 3F       		.uleb128 0x3f
 11568 466b 95440000 		.4byte	0x4495
 11569 466f 3C       		.uleb128 0x3c
 11570 4670 A0440000 		.4byte	0x44a0
 11571 4674 78100000 		.4byte	.LLST58
 11572 4678 00       		.byte	0
 11573 4679 62       		.uleb128 0x62
 11574 467a E7400000 		.4byte	0x40e7
 11575 467e 00000000 		.4byte	.LFB300
 11576 4682 9C000000 		.4byte	.LFE300-.LFB300
 11577 4686 01       		.uleb128 0x1
 11578 4687 9C       		.byte	0x9c
 11579 4688 CF470000 		.4byte	0x47cf
 11580 468c 37       		.uleb128 0x37
 11581 468d 00410000 		.4byte	0x4100
 11582 4691 97100000 		.4byte	.LLST109
 11583 4695 3C       		.uleb128 0x3c
 11584 4696 0B410000 		.4byte	0x410b
 11585 469a B8100000 		.4byte	.LLST110
 11586 469e 3C       		.uleb128 0x3c
 11587 469f 17410000 		.4byte	0x4117
 11588 46a3 D6100000 		.4byte	.LLST111
 11589 46a7 63       		.uleb128 0x63
 11590 46a8 F4400000 		.4byte	0x40f4
 11591 46ac 06       		.uleb128 0x6
 11592 46ad 03       		.byte	0x3
 11593 46ae 00000000 		.4byte	USBD1
 11594 46b2 9F       		.byte	0x9f
 11595 46b3 3E       		.uleb128 0x3e
 11596 46b4 23410000 		.4byte	0x4123
 11597 46b8 40020000 		.4byte	.Ldebug_ranges0+0x240
 11598 46bc BC470000 		.4byte	0x47bc
 11599 46c0 3C       		.uleb128 0x3c
 11600 46c1 24410000 		.4byte	0x4124
 11601 46c5 F4100000 		.4byte	.LLST112
 11602 46c9 35       		.uleb128 0x35
 11603 46ca E2450000 		.4byte	0x45e2
 11604 46ce 76000000 		.4byte	.LBB623
 11605 46d2 0C000000 		.4byte	.LBE623-.LBB623
 11606 46d6 01       		.byte	0x1
 11607 46d7 5D02     		.2byte	0x25d
 11608 46d9 1A470000 		.4byte	0x471a
 11609 46dd 36       		.uleb128 0x36
 11610 46de 18460000 		.4byte	0x4618
 11611 46e2 76000000 		.4byte	.LBB624
 11612 46e6 0C000000 		.4byte	.LBE624-.LBB624
 11613 46ea 2A       		.byte	0x2a
 11614 46eb 8401     		.2byte	0x184
 11615 46ed 36       		.uleb128 0x36
 11616 46ee 2A460000 		.4byte	0x462a
ARM GAS  /tmp/ccH4KobB.s 			page 205


 11617 46f2 76000000 		.4byte	.LBB625
 11618 46f6 0C000000 		.4byte	.LBE625-.LBB625
 11619 46fa 13       		.byte	0x13
 11620 46fb DB01     		.2byte	0x1db
 11621 46fd 36       		.uleb128 0x36
 11622 46fe 33460000 		.4byte	0x4633
 11623 4702 76000000 		.4byte	.LBB626
 11624 4706 0C000000 		.4byte	.LBE626-.LBB626
 11625 470a 13       		.byte	0x13
 11626 470b BF01     		.2byte	0x1bf
 11627 470d 37       		.uleb128 0x37
 11628 470e 40460000 		.4byte	0x4640
 11629 4712 4A110000 		.4byte	.LLST113
 11630 4716 00       		.byte	0
 11631 4717 00       		.byte	0
 11632 4718 00       		.byte	0
 11633 4719 00       		.byte	0
 11634 471a 35       		.uleb128 0x35
 11635 471b AA370000 		.4byte	0x37aa
 11636 471f 82000000 		.4byte	.LBB628
 11637 4723 0C000000 		.4byte	.LBE628-.LBB628
 11638 4727 01       		.byte	0x1
 11639 4728 5E02     		.2byte	0x25e
 11640 472a 41470000 		.4byte	0x4741
 11641 472e 37       		.uleb128 0x37
 11642 472f C3370000 		.4byte	0x37c3
 11643 4733 5F110000 		.4byte	.LLST114
 11644 4737 37       		.uleb128 0x37
 11645 4738 B7370000 		.4byte	0x37b7
 11646 473c 72110000 		.4byte	.LLST115
 11647 4740 00       		.byte	0
 11648 4741 35       		.uleb128 0x35
 11649 4742 D9450000 		.4byte	0x45d9
 11650 4746 8E000000 		.4byte	.LBB630
 11651 474a 04000000 		.4byte	.LBE630-.LBB630
 11652 474e 01       		.byte	0x1
 11653 474f 5F02     		.2byte	0x25f
 11654 4751 92470000 		.4byte	0x4792
 11655 4755 36       		.uleb128 0x36
 11656 4756 0F460000 		.4byte	0x460f
 11657 475a 8E000000 		.4byte	.LBB631
 11658 475e 04000000 		.4byte	.LBE631-.LBB631
 11659 4762 2A       		.byte	0x2a
 11660 4763 9A01     		.2byte	0x19a
 11661 4765 36       		.uleb128 0x36
 11662 4766 21460000 		.4byte	0x4621
 11663 476a 8E000000 		.4byte	.LBB632
 11664 476e 04000000 		.4byte	.LBE632-.LBB632
 11665 4772 13       		.byte	0x13
 11666 4773 E601     		.2byte	0x1e6
 11667 4775 36       		.uleb128 0x36
 11668 4776 33460000 		.4byte	0x4633
 11669 477a 8E000000 		.4byte	.LBB633
 11670 477e 04000000 		.4byte	.LBE633-.LBB633
 11671 4782 13       		.byte	0x13
 11672 4783 CD01     		.2byte	0x1cd
 11673 4785 37       		.uleb128 0x37
ARM GAS  /tmp/ccH4KobB.s 			page 206


 11674 4786 40460000 		.4byte	0x4640
 11675 478a 8A110000 		.4byte	.LLST116
 11676 478e 00       		.byte	0
 11677 478f 00       		.byte	0
 11678 4790 00       		.byte	0
 11679 4791 00       		.byte	0
 11680 4792 64       		.uleb128 0x64
 11681 4793 66000000 		.4byte	.LVL209
 11682 4797 A5470000 		.4byte	0x47a5
 11683 479b 42       		.uleb128 0x42
 11684 479c 01       		.uleb128 0x1
 11685 479d 50       		.byte	0x50
 11686 479e 05       		.uleb128 0x5
 11687 479f 03       		.byte	0x3
 11688 47a0 00000000 		.4byte	.LANCHOR0
 11689 47a4 00       		.byte	0
 11690 47a5 41       		.uleb128 0x41
 11691 47a6 76000000 		.4byte	.LVL211
 11692 47aa 2B380000 		.4byte	0x382b
 11693 47ae 42       		.uleb128 0x42
 11694 47af 01       		.uleb128 0x1
 11695 47b0 50       		.byte	0x50
 11696 47b1 02       		.uleb128 0x2
 11697 47b2 76       		.byte	0x76
 11698 47b3 00       		.sleb128 0
 11699 47b4 42       		.uleb128 0x42
 11700 47b5 01       		.uleb128 0x1
 11701 47b6 51       		.byte	0x51
 11702 47b7 02       		.uleb128 0x2
 11703 47b8 75       		.byte	0x75
 11704 47b9 00       		.sleb128 0
 11705 47ba 00       		.byte	0
 11706 47bb 00       		.byte	0
 11707 47bc 65       		.uleb128 0x65
 11708 47bd 30000000 		.4byte	.LVL203
 11709 47c1 42       		.uleb128 0x42
 11710 47c2 01       		.uleb128 0x1
 11711 47c3 50       		.byte	0x50
 11712 47c4 02       		.uleb128 0x2
 11713 47c5 76       		.byte	0x76
 11714 47c6 00       		.sleb128 0
 11715 47c7 42       		.uleb128 0x42
 11716 47c8 01       		.uleb128 0x1
 11717 47c9 51       		.byte	0x51
 11718 47ca 02       		.uleb128 0x2
 11719 47cb 75       		.byte	0x75
 11720 47cc 00       		.sleb128 0
 11721 47cd 00       		.byte	0
 11722 47ce 00       		.byte	0
 11723 47cf 62       		.uleb128 0x62
 11724 47d0 32410000 		.4byte	0x4132
 11725 47d4 00000000 		.4byte	.LFB299
 11726 47d8 D0000000 		.4byte	.LFE299-.LFB299
 11727 47dc 01       		.uleb128 0x1
 11728 47dd 9C       		.byte	0x9c
 11729 47de 364A0000 		.4byte	0x4a36
 11730 47e2 37       		.uleb128 0x37
ARM GAS  /tmp/ccH4KobB.s 			page 207


 11731 47e3 4B410000 		.4byte	0x414b
 11732 47e7 9E110000 		.4byte	.LLST121
 11733 47eb 66       		.uleb128 0x66
 11734 47ec 56410000 		.4byte	0x4156
 11735 47f0 01       		.uleb128 0x1
 11736 47f1 55       		.byte	0x55
 11737 47f2 66       		.uleb128 0x66
 11738 47f3 62410000 		.4byte	0x4162
 11739 47f7 01       		.uleb128 0x1
 11740 47f8 54       		.byte	0x54
 11741 47f9 63       		.uleb128 0x63
 11742 47fa 3F410000 		.4byte	0x413f
 11743 47fe 06       		.uleb128 0x6
 11744 47ff 03       		.byte	0x3
 11745 4800 00000000 		.4byte	USBD1
 11746 4804 9F       		.byte	0x9f
 11747 4805 3E       		.uleb128 0x3e
 11748 4806 6E410000 		.4byte	0x416e
 11749 480a 78020000 		.4byte	.Ldebug_ranges0+0x278
 11750 480e 36490000 		.4byte	0x4936
 11751 4812 3C       		.uleb128 0x3c
 11752 4813 6F410000 		.4byte	0x416f
 11753 4817 BF110000 		.4byte	.LLST122
 11754 481b 35       		.uleb128 0x35
 11755 481c 69450000 		.4byte	0x4569
 11756 4820 9A000000 		.4byte	.LBB640
 11757 4824 06000000 		.4byte	.LBE640-.LBB640
 11758 4828 01       		.byte	0x1
 11759 4829 2902     		.2byte	0x229
 11760 482b 7D480000 		.4byte	0x487d
 11761 482f 36       		.uleb128 0x36
 11762 4830 E2450000 		.4byte	0x45e2
 11763 4834 9A000000 		.4byte	.LBB641
 11764 4838 06000000 		.4byte	.LBE641-.LBB641
 11765 483c 04       		.byte	0x4
 11766 483d 0302     		.2byte	0x203
 11767 483f 36       		.uleb128 0x36
 11768 4840 18460000 		.4byte	0x4618
 11769 4844 9A000000 		.4byte	.LBB642
 11770 4848 06000000 		.4byte	.LBE642-.LBB642
 11771 484c 2A       		.byte	0x2a
 11772 484d 8401     		.2byte	0x184
 11773 484f 36       		.uleb128 0x36
 11774 4850 2A460000 		.4byte	0x462a
 11775 4854 9A000000 		.4byte	.LBB643
 11776 4858 06000000 		.4byte	.LBE643-.LBB643
 11777 485c 13       		.byte	0x13
 11778 485d DB01     		.2byte	0x1db
 11779 485f 36       		.uleb128 0x36
 11780 4860 33460000 		.4byte	0x4633
 11781 4864 9A000000 		.4byte	.LBB644
 11782 4868 06000000 		.4byte	.LBE644-.LBB644
 11783 486c 13       		.byte	0x13
 11784 486d BF01     		.2byte	0x1bf
 11785 486f 37       		.uleb128 0x37
 11786 4870 40460000 		.4byte	0x4640
 11787 4874 FF110000 		.4byte	.LLST123
ARM GAS  /tmp/ccH4KobB.s 			page 208


 11788 4878 00       		.byte	0
 11789 4879 00       		.byte	0
 11790 487a 00       		.byte	0
 11791 487b 00       		.byte	0
 11792 487c 00       		.byte	0
 11793 487d 35       		.uleb128 0x35
 11794 487e 85370000 		.4byte	0x3785
 11795 4882 A0000000 		.4byte	.LBB646
 11796 4886 20000000 		.4byte	.LBE646-.LBB646
 11797 488a 01       		.byte	0x1
 11798 488b 2A02     		.2byte	0x22a
 11799 488d A4480000 		.4byte	0x48a4
 11800 4891 37       		.uleb128 0x37
 11801 4892 9E370000 		.4byte	0x379e
 11802 4896 14120000 		.4byte	.LLST124
 11803 489a 37       		.uleb128 0x37
 11804 489b 92370000 		.4byte	0x3792
 11805 489f 27120000 		.4byte	.LLST125
 11806 48a3 00       		.byte	0
 11807 48a4 35       		.uleb128 0x35
 11808 48a5 60450000 		.4byte	0x4560
 11809 48a9 C0000000 		.4byte	.LBB648
 11810 48ad 10000000 		.4byte	.LBE648-.LBB648
 11811 48b1 01       		.byte	0x1
 11812 48b2 2B02     		.2byte	0x22b
 11813 48b4 06490000 		.4byte	0x4906
 11814 48b8 36       		.uleb128 0x36
 11815 48b9 D9450000 		.4byte	0x45d9
 11816 48bd C0000000 		.4byte	.LBB649
 11817 48c1 10000000 		.4byte	.LBE649-.LBB649
 11818 48c5 04       		.byte	0x4
 11819 48c6 0E02     		.2byte	0x20e
 11820 48c8 36       		.uleb128 0x36
 11821 48c9 0F460000 		.4byte	0x460f
 11822 48cd C0000000 		.4byte	.LBB650
 11823 48d1 10000000 		.4byte	.LBE650-.LBB650
 11824 48d5 2A       		.byte	0x2a
 11825 48d6 9A01     		.2byte	0x19a
 11826 48d8 36       		.uleb128 0x36
 11827 48d9 21460000 		.4byte	0x4621
 11828 48dd C0000000 		.4byte	.LBB651
 11829 48e1 10000000 		.4byte	.LBE651-.LBB651
 11830 48e5 13       		.byte	0x13
 11831 48e6 E601     		.2byte	0x1e6
 11832 48e8 36       		.uleb128 0x36
 11833 48e9 33460000 		.4byte	0x4633
 11834 48ed C0000000 		.4byte	.LBB652
 11835 48f1 10000000 		.4byte	.LBE652-.LBB652
 11836 48f5 13       		.byte	0x13
 11837 48f6 CD01     		.2byte	0x1cd
 11838 48f8 37       		.uleb128 0x37
 11839 48f9 40460000 		.4byte	0x4640
 11840 48fd 3F120000 		.4byte	.LLST126
 11841 4901 00       		.byte	0
 11842 4902 00       		.byte	0
 11843 4903 00       		.byte	0
 11844 4904 00       		.byte	0
ARM GAS  /tmp/ccH4KobB.s 			page 209


 11845 4905 00       		.byte	0
 11846 4906 67       		.uleb128 0x67
 11847 4907 48000000 		.4byte	.LVL231
 11848 490b 02       		.uleb128 0x2
 11849 490c 78       		.byte	0x78
 11850 490d 00       		.sleb128 0
 11851 490e 1F490000 		.4byte	0x491f
 11852 4912 42       		.uleb128 0x42
 11853 4913 01       		.uleb128 0x1
 11854 4914 50       		.byte	0x50
 11855 4915 02       		.uleb128 0x2
 11856 4916 76       		.byte	0x76
 11857 4917 00       		.sleb128 0
 11858 4918 42       		.uleb128 0x42
 11859 4919 01       		.uleb128 0x1
 11860 491a 51       		.byte	0x51
 11861 491b 02       		.uleb128 0x2
 11862 491c 77       		.byte	0x77
 11863 491d 00       		.sleb128 0
 11864 491e 00       		.byte	0
 11865 491f 41       		.uleb128 0x41
 11866 4920 9A000000 		.4byte	.LVL238
 11867 4924 CF370000 		.4byte	0x37cf
 11868 4928 42       		.uleb128 0x42
 11869 4929 01       		.uleb128 0x1
 11870 492a 50       		.byte	0x50
 11871 492b 02       		.uleb128 0x2
 11872 492c 76       		.byte	0x76
 11873 492d 00       		.sleb128 0
 11874 492e 42       		.uleb128 0x42
 11875 492f 01       		.uleb128 0x1
 11876 4930 51       		.byte	0x51
 11877 4931 02       		.uleb128 0x2
 11878 4932 77       		.byte	0x77
 11879 4933 00       		.sleb128 0
 11880 4934 00       		.byte	0
 11881 4935 00       		.byte	0
 11882 4936 35       		.uleb128 0x35
 11883 4937 69450000 		.4byte	0x4569
 11884 493b 5E000000 		.4byte	.LBB654
 11885 493f 06000000 		.4byte	.LBE654-.LBB654
 11886 4943 01       		.byte	0x1
 11887 4944 3502     		.2byte	0x235
 11888 4946 98490000 		.4byte	0x4998
 11889 494a 36       		.uleb128 0x36
 11890 494b E2450000 		.4byte	0x45e2
 11891 494f 5E000000 		.4byte	.LBB655
 11892 4953 06000000 		.4byte	.LBE655-.LBB655
 11893 4957 04       		.byte	0x4
 11894 4958 0302     		.2byte	0x203
 11895 495a 36       		.uleb128 0x36
 11896 495b 18460000 		.4byte	0x4618
 11897 495f 5E000000 		.4byte	.LBB656
 11898 4963 06000000 		.4byte	.LBE656-.LBB656
 11899 4967 2A       		.byte	0x2a
 11900 4968 8401     		.2byte	0x184
 11901 496a 36       		.uleb128 0x36
ARM GAS  /tmp/ccH4KobB.s 			page 210


 11902 496b 2A460000 		.4byte	0x462a
 11903 496f 5E000000 		.4byte	.LBB657
 11904 4973 06000000 		.4byte	.LBE657-.LBB657
 11905 4977 13       		.byte	0x13
 11906 4978 DB01     		.2byte	0x1db
 11907 497a 36       		.uleb128 0x36
 11908 497b 33460000 		.4byte	0x4633
 11909 497f 5E000000 		.4byte	.LBB658
 11910 4983 06000000 		.4byte	.LBE658-.LBB658
 11911 4987 13       		.byte	0x13
 11912 4988 BF01     		.2byte	0x1bf
 11913 498a 37       		.uleb128 0x37
 11914 498b 40460000 		.4byte	0x4640
 11915 498f 53120000 		.4byte	.LLST127
 11916 4993 00       		.byte	0
 11917 4994 00       		.byte	0
 11918 4995 00       		.byte	0
 11919 4996 00       		.byte	0
 11920 4997 00       		.byte	0
 11921 4998 39       		.uleb128 0x39
 11922 4999 F9440000 		.4byte	0x44f9
 11923 499d 6A000000 		.4byte	.LBB660
 11924 49a1 90020000 		.4byte	.Ldebug_ranges0+0x290
 11925 49a5 01       		.byte	0x1
 11926 49a6 3802     		.2byte	0x238
 11927 49a8 D7490000 		.4byte	0x49d7
 11928 49ac 37       		.uleb128 0x37
 11929 49ad 12450000 		.4byte	0x4512
 11930 49b1 68120000 		.4byte	.LLST128
 11931 49b5 37       		.uleb128 0x37
 11932 49b6 06450000 		.4byte	0x4506
 11933 49ba 7C120000 		.4byte	.LLST129
 11934 49be 41       		.uleb128 0x41
 11935 49bf 7E000000 		.4byte	.LVL235
 11936 49c3 E74A0000 		.4byte	0x4ae7
 11937 49c7 42       		.uleb128 0x42
 11938 49c8 01       		.uleb128 0x1
 11939 49c9 50       		.byte	0x50
 11940 49ca 05       		.uleb128 0x5
 11941 49cb 03       		.byte	0x3
 11942 49cc 60000000 		.4byte	.LANCHOR0+96
 11943 49d0 42       		.uleb128 0x42
 11944 49d1 01       		.uleb128 0x1
 11945 49d2 51       		.byte	0x51
 11946 49d3 01       		.uleb128 0x1
 11947 49d4 30       		.byte	0x30
 11948 49d5 00       		.byte	0
 11949 49d6 00       		.byte	0
 11950 49d7 36       		.uleb128 0x36
 11951 49d8 60450000 		.4byte	0x4560
 11952 49dc 7E000000 		.4byte	.LBB666
 11953 49e0 06000000 		.4byte	.LBE666-.LBB666
 11954 49e4 01       		.byte	0x1
 11955 49e5 3902     		.2byte	0x239
 11956 49e7 36       		.uleb128 0x36
 11957 49e8 D9450000 		.4byte	0x45d9
 11958 49ec 7E000000 		.4byte	.LBB667
ARM GAS  /tmp/ccH4KobB.s 			page 211


 11959 49f0 06000000 		.4byte	.LBE667-.LBB667
 11960 49f4 04       		.byte	0x4
 11961 49f5 0E02     		.2byte	0x20e
 11962 49f7 36       		.uleb128 0x36
 11963 49f8 0F460000 		.4byte	0x460f
 11964 49fc 7E000000 		.4byte	.LBB668
 11965 4a00 06000000 		.4byte	.LBE668-.LBB668
 11966 4a04 2A       		.byte	0x2a
 11967 4a05 9A01     		.2byte	0x19a
 11968 4a07 36       		.uleb128 0x36
 11969 4a08 21460000 		.4byte	0x4621
 11970 4a0c 7E000000 		.4byte	.LBB669
 11971 4a10 06000000 		.4byte	.LBE669-.LBB669
 11972 4a14 13       		.byte	0x13
 11973 4a15 E601     		.2byte	0x1e6
 11974 4a17 36       		.uleb128 0x36
 11975 4a18 33460000 		.4byte	0x4633
 11976 4a1c 7E000000 		.4byte	.LBB670
 11977 4a20 06000000 		.4byte	.LBE670-.LBB670
 11978 4a24 13       		.byte	0x13
 11979 4a25 CD01     		.2byte	0x1cd
 11980 4a27 37       		.uleb128 0x37
 11981 4a28 40460000 		.4byte	0x4640
 11982 4a2c 94120000 		.4byte	.LLST130
 11983 4a30 00       		.byte	0
 11984 4a31 00       		.byte	0
 11985 4a32 00       		.byte	0
 11986 4a33 00       		.byte	0
 11987 4a34 00       		.byte	0
 11988 4a35 00       		.byte	0
 11989 4a36 62       		.uleb128 0x62
 11990 4a37 AA370000 		.4byte	0x37aa
 11991 4a3b 00000000 		.4byte	.LFB286
 11992 4a3f 14000000 		.4byte	.LFE286-.LFB286
 11993 4a43 01       		.uleb128 0x1
 11994 4a44 9C       		.byte	0x9c
 11995 4a45 5A4A0000 		.4byte	0x4a5a
 11996 4a49 63       		.uleb128 0x63
 11997 4a4a B7370000 		.4byte	0x37b7
 11998 4a4e 01       		.uleb128 0x1
 11999 4a4f 50       		.byte	0x50
 12000 4a50 37       		.uleb128 0x37
 12001 4a51 C3370000 		.4byte	0x37c3
 12002 4a55 A8120000 		.4byte	.LLST139
 12003 4a59 00       		.byte	0
 12004 4a5a 62       		.uleb128 0x62
 12005 4a5b 85370000 		.4byte	0x3785
 12006 4a5f 00000000 		.4byte	.LFB287
 12007 4a63 2A000000 		.4byte	.LFE287-.LFB287
 12008 4a67 01       		.uleb128 0x1
 12009 4a68 9C       		.byte	0x9c
 12010 4a69 804A0000 		.4byte	0x4a80
 12011 4a6d 37       		.uleb128 0x37
 12012 4a6e 92370000 		.4byte	0x3792
 12013 4a72 C9120000 		.4byte	.LLST140
 12014 4a76 37       		.uleb128 0x37
 12015 4a77 9E370000 		.4byte	0x379e
ARM GAS  /tmp/ccH4KobB.s 			page 212


 12016 4a7b EA120000 		.4byte	.LLST141
 12017 4a7f 00       		.byte	0
 12018 4a80 68       		.uleb128 0x68
 12019 4a81 59060000 		.4byte	.LASF720
 12020 4a85 59060000 		.4byte	.LASF720
 12021 4a89 05       		.byte	0x5
 12022 4a8a 94       		.byte	0x94
 12023 4a8b 69       		.uleb128 0x69
 12024 4a8c C4140000 		.4byte	.LASF721
 12025 4a90 C4140000 		.4byte	.LASF721
 12026 4a94 0E       		.byte	0xe
 12027 4a95 1702     		.2byte	0x217
 12028 4a97 68       		.uleb128 0x68
 12029 4a98 67100000 		.4byte	.LASF722
 12030 4a9c 67100000 		.4byte	.LASF722
 12031 4aa0 05       		.byte	0x5
 12032 4aa1 8D       		.byte	0x8d
 12033 4aa2 69       		.uleb128 0x69
 12034 4aa3 0B020000 		.4byte	.LASF723
 12035 4aa7 0B020000 		.4byte	.LASF723
 12036 4aab 2A       		.byte	0x2a
 12037 4aac 1D01     		.2byte	0x11d
 12038 4aae 68       		.uleb128 0x68
 12039 4aaf 63030000 		.4byte	.LASF724
 12040 4ab3 63030000 		.4byte	.LASF724
 12041 4ab7 2B       		.byte	0x2b
 12042 4ab8 4F       		.byte	0x4f
 12043 4ab9 69       		.uleb128 0x69
 12044 4aba 76160000 		.4byte	.LASF725
 12045 4abe 76160000 		.4byte	.LASF725
 12046 4ac2 0E       		.byte	0xe
 12047 4ac3 1302     		.2byte	0x213
 12048 4ac5 68       		.uleb128 0x68
 12049 4ac6 BB1B0000 		.4byte	.LASF726
 12050 4aca BB1B0000 		.4byte	.LASF726
 12051 4ace 2B       		.byte	0x2b
 12052 4acf 4E       		.byte	0x4e
 12053 4ad0 68       		.uleb128 0x68
 12054 4ad1 F4110000 		.4byte	.LASF727
 12055 4ad5 F4110000 		.4byte	.LASF727
 12056 4ad9 05       		.byte	0x5
 12057 4ada 87       		.byte	0x87
 12058 4adb 69       		.uleb128 0x69
 12059 4adc 60120000 		.4byte	.LASF728
 12060 4ae0 60120000 		.4byte	.LASF728
 12061 4ae4 27       		.byte	0x27
 12062 4ae5 3602     		.2byte	0x236
 12063 4ae7 68       		.uleb128 0x68
 12064 4ae8 7E190000 		.4byte	.LASF729
 12065 4aec 7E190000 		.4byte	.LASF729
 12066 4af0 05       		.byte	0x5
 12067 4af1 8F       		.byte	0x8f
 12068 4af2 69       		.uleb128 0x69
 12069 4af3 87060000 		.4byte	.LASF730
 12070 4af7 87060000 		.4byte	.LASF730
 12071 4afb 27       		.byte	0x27
 12072 4afc 4902     		.2byte	0x249
ARM GAS  /tmp/ccH4KobB.s 			page 213


 12073 4afe 69       		.uleb128 0x69
 12074 4aff F70D0000 		.4byte	.LASF731
 12075 4b03 F70D0000 		.4byte	.LASF731
 12076 4b07 13       		.byte	0x13
 12077 4b08 6601     		.2byte	0x166
 12078 4b0a 00       		.byte	0
 12079              		.section	.debug_abbrev,"",%progbits
 12080              	.Ldebug_abbrev0:
 12081 0000 01       		.uleb128 0x1
 12082 0001 11       		.uleb128 0x11
 12083 0002 01       		.byte	0x1
 12084 0003 25       		.uleb128 0x25
 12085 0004 0E       		.uleb128 0xe
 12086 0005 13       		.uleb128 0x13
 12087 0006 0B       		.uleb128 0xb
 12088 0007 03       		.uleb128 0x3
 12089 0008 0E       		.uleb128 0xe
 12090 0009 1B       		.uleb128 0x1b
 12091 000a 0E       		.uleb128 0xe
 12092 000b 55       		.uleb128 0x55
 12093 000c 17       		.uleb128 0x17
 12094 000d 11       		.uleb128 0x11
 12095 000e 01       		.uleb128 0x1
 12096 000f 10       		.uleb128 0x10
 12097 0010 17       		.uleb128 0x17
 12098 0011 00       		.byte	0
 12099 0012 00       		.byte	0
 12100 0013 02       		.uleb128 0x2
 12101 0014 24       		.uleb128 0x24
 12102 0015 00       		.byte	0
 12103 0016 0B       		.uleb128 0xb
 12104 0017 0B       		.uleb128 0xb
 12105 0018 3E       		.uleb128 0x3e
 12106 0019 0B       		.uleb128 0xb
 12107 001a 03       		.uleb128 0x3
 12108 001b 0E       		.uleb128 0xe
 12109 001c 00       		.byte	0
 12110 001d 00       		.byte	0
 12111 001e 03       		.uleb128 0x3
 12112 001f 24       		.uleb128 0x24
 12113 0020 00       		.byte	0
 12114 0021 0B       		.uleb128 0xb
 12115 0022 0B       		.uleb128 0xb
 12116 0023 3E       		.uleb128 0x3e
 12117 0024 0B       		.uleb128 0xb
 12118 0025 03       		.uleb128 0x3
 12119 0026 08       		.uleb128 0x8
 12120 0027 00       		.byte	0
 12121 0028 00       		.byte	0
 12122 0029 04       		.uleb128 0x4
 12123 002a 16       		.uleb128 0x16
 12124 002b 00       		.byte	0
 12125 002c 03       		.uleb128 0x3
 12126 002d 0E       		.uleb128 0xe
 12127 002e 3A       		.uleb128 0x3a
 12128 002f 0B       		.uleb128 0xb
 12129 0030 3B       		.uleb128 0x3b
ARM GAS  /tmp/ccH4KobB.s 			page 214


 12130 0031 0B       		.uleb128 0xb
 12131 0032 49       		.uleb128 0x49
 12132 0033 13       		.uleb128 0x13
 12133 0034 00       		.byte	0
 12134 0035 00       		.byte	0
 12135 0036 05       		.uleb128 0x5
 12136 0037 35       		.uleb128 0x35
 12137 0038 00       		.byte	0
 12138 0039 49       		.uleb128 0x49
 12139 003a 13       		.uleb128 0x13
 12140 003b 00       		.byte	0
 12141 003c 00       		.byte	0
 12142 003d 06       		.uleb128 0x6
 12143 003e 0F       		.uleb128 0xf
 12144 003f 00       		.byte	0
 12145 0040 0B       		.uleb128 0xb
 12146 0041 0B       		.uleb128 0xb
 12147 0042 49       		.uleb128 0x49
 12148 0043 13       		.uleb128 0x13
 12149 0044 00       		.byte	0
 12150 0045 00       		.byte	0
 12151 0046 07       		.uleb128 0x7
 12152 0047 13       		.uleb128 0x13
 12153 0048 00       		.byte	0
 12154 0049 03       		.uleb128 0x3
 12155 004a 0E       		.uleb128 0xe
 12156 004b 3C       		.uleb128 0x3c
 12157 004c 19       		.uleb128 0x19
 12158 004d 00       		.byte	0
 12159 004e 00       		.byte	0
 12160 004f 08       		.uleb128 0x8
 12161 0050 16       		.uleb128 0x16
 12162 0051 00       		.byte	0
 12163 0052 03       		.uleb128 0x3
 12164 0053 0E       		.uleb128 0xe
 12165 0054 3A       		.uleb128 0x3a
 12166 0055 0B       		.uleb128 0xb
 12167 0056 3B       		.uleb128 0x3b
 12168 0057 05       		.uleb128 0x5
 12169 0058 49       		.uleb128 0x49
 12170 0059 13       		.uleb128 0x13
 12171 005a 00       		.byte	0
 12172 005b 00       		.byte	0
 12173 005c 09       		.uleb128 0x9
 12174 005d 17       		.uleb128 0x17
 12175 005e 01       		.byte	0x1
 12176 005f 0B       		.uleb128 0xb
 12177 0060 0B       		.uleb128 0xb
 12178 0061 3A       		.uleb128 0x3a
 12179 0062 0B       		.uleb128 0xb
 12180 0063 3B       		.uleb128 0x3b
 12181 0064 0B       		.uleb128 0xb
 12182 0065 01       		.uleb128 0x1
 12183 0066 13       		.uleb128 0x13
 12184 0067 00       		.byte	0
 12185 0068 00       		.byte	0
 12186 0069 0A       		.uleb128 0xa
ARM GAS  /tmp/ccH4KobB.s 			page 215


 12187 006a 0D       		.uleb128 0xd
 12188 006b 00       		.byte	0
 12189 006c 03       		.uleb128 0x3
 12190 006d 0E       		.uleb128 0xe
 12191 006e 3A       		.uleb128 0x3a
 12192 006f 0B       		.uleb128 0xb
 12193 0070 3B       		.uleb128 0x3b
 12194 0071 0B       		.uleb128 0xb
 12195 0072 49       		.uleb128 0x49
 12196 0073 13       		.uleb128 0x13
 12197 0074 00       		.byte	0
 12198 0075 00       		.byte	0
 12199 0076 0B       		.uleb128 0xb
 12200 0077 01       		.uleb128 0x1
 12201 0078 01       		.byte	0x1
 12202 0079 49       		.uleb128 0x49
 12203 007a 13       		.uleb128 0x13
 12204 007b 01       		.uleb128 0x1
 12205 007c 13       		.uleb128 0x13
 12206 007d 00       		.byte	0
 12207 007e 00       		.byte	0
 12208 007f 0C       		.uleb128 0xc
 12209 0080 21       		.uleb128 0x21
 12210 0081 00       		.byte	0
 12211 0082 49       		.uleb128 0x49
 12212 0083 13       		.uleb128 0x13
 12213 0084 2F       		.uleb128 0x2f
 12214 0085 0B       		.uleb128 0xb
 12215 0086 00       		.byte	0
 12216 0087 00       		.byte	0
 12217 0088 0D       		.uleb128 0xd
 12218 0089 13       		.uleb128 0x13
 12219 008a 01       		.byte	0x1
 12220 008b 0B       		.uleb128 0xb
 12221 008c 0B       		.uleb128 0xb
 12222 008d 3A       		.uleb128 0x3a
 12223 008e 0B       		.uleb128 0xb
 12224 008f 3B       		.uleb128 0x3b
 12225 0090 0B       		.uleb128 0xb
 12226 0091 01       		.uleb128 0x1
 12227 0092 13       		.uleb128 0x13
 12228 0093 00       		.byte	0
 12229 0094 00       		.byte	0
 12230 0095 0E       		.uleb128 0xe
 12231 0096 0D       		.uleb128 0xd
 12232 0097 00       		.byte	0
 12233 0098 03       		.uleb128 0x3
 12234 0099 0E       		.uleb128 0xe
 12235 009a 3A       		.uleb128 0x3a
 12236 009b 0B       		.uleb128 0xb
 12237 009c 3B       		.uleb128 0x3b
 12238 009d 0B       		.uleb128 0xb
 12239 009e 49       		.uleb128 0x49
 12240 009f 13       		.uleb128 0x13
 12241 00a0 38       		.uleb128 0x38
 12242 00a1 0B       		.uleb128 0xb
 12243 00a2 00       		.byte	0
ARM GAS  /tmp/ccH4KobB.s 			page 216


 12244 00a3 00       		.byte	0
 12245 00a4 0F       		.uleb128 0xf
 12246 00a5 0F       		.uleb128 0xf
 12247 00a6 00       		.byte	0
 12248 00a7 0B       		.uleb128 0xb
 12249 00a8 0B       		.uleb128 0xb
 12250 00a9 00       		.byte	0
 12251 00aa 00       		.byte	0
 12252 00ab 10       		.uleb128 0x10
 12253 00ac 26       		.uleb128 0x26
 12254 00ad 00       		.byte	0
 12255 00ae 49       		.uleb128 0x49
 12256 00af 13       		.uleb128 0x13
 12257 00b0 00       		.byte	0
 12258 00b1 00       		.byte	0
 12259 00b2 11       		.uleb128 0x11
 12260 00b3 13       		.uleb128 0x13
 12261 00b4 01       		.byte	0x1
 12262 00b5 03       		.uleb128 0x3
 12263 00b6 0E       		.uleb128 0xe
 12264 00b7 0B       		.uleb128 0xb
 12265 00b8 0B       		.uleb128 0xb
 12266 00b9 3A       		.uleb128 0x3a
 12267 00ba 0B       		.uleb128 0xb
 12268 00bb 3B       		.uleb128 0x3b
 12269 00bc 0B       		.uleb128 0xb
 12270 00bd 01       		.uleb128 0x1
 12271 00be 13       		.uleb128 0x13
 12272 00bf 00       		.byte	0
 12273 00c0 00       		.byte	0
 12274 00c1 12       		.uleb128 0x12
 12275 00c2 0D       		.uleb128 0xd
 12276 00c3 00       		.byte	0
 12277 00c4 03       		.uleb128 0x3
 12278 00c5 08       		.uleb128 0x8
 12279 00c6 3A       		.uleb128 0x3a
 12280 00c7 0B       		.uleb128 0xb
 12281 00c8 3B       		.uleb128 0x3b
 12282 00c9 0B       		.uleb128 0xb
 12283 00ca 49       		.uleb128 0x49
 12284 00cb 13       		.uleb128 0x13
 12285 00cc 38       		.uleb128 0x38
 12286 00cd 0B       		.uleb128 0xb
 12287 00ce 00       		.byte	0
 12288 00cf 00       		.byte	0
 12289 00d0 13       		.uleb128 0x13
 12290 00d1 13       		.uleb128 0x13
 12291 00d2 01       		.byte	0x1
 12292 00d3 03       		.uleb128 0x3
 12293 00d4 0E       		.uleb128 0xe
 12294 00d5 0B       		.uleb128 0xb
 12295 00d6 05       		.uleb128 0x5
 12296 00d7 3A       		.uleb128 0x3a
 12297 00d8 0B       		.uleb128 0xb
 12298 00d9 3B       		.uleb128 0x3b
 12299 00da 0B       		.uleb128 0xb
 12300 00db 01       		.uleb128 0x1
ARM GAS  /tmp/ccH4KobB.s 			page 217


 12301 00dc 13       		.uleb128 0x13
 12302 00dd 00       		.byte	0
 12303 00de 00       		.byte	0
 12304 00df 14       		.uleb128 0x14
 12305 00e0 0D       		.uleb128 0xd
 12306 00e1 00       		.byte	0
 12307 00e2 03       		.uleb128 0x3
 12308 00e3 0E       		.uleb128 0xe
 12309 00e4 3A       		.uleb128 0x3a
 12310 00e5 0B       		.uleb128 0xb
 12311 00e6 3B       		.uleb128 0x3b
 12312 00e7 0B       		.uleb128 0xb
 12313 00e8 49       		.uleb128 0x49
 12314 00e9 13       		.uleb128 0x13
 12315 00ea 38       		.uleb128 0x38
 12316 00eb 05       		.uleb128 0x5
 12317 00ec 00       		.byte	0
 12318 00ed 00       		.byte	0
 12319 00ee 15       		.uleb128 0x15
 12320 00ef 15       		.uleb128 0x15
 12321 00f0 00       		.byte	0
 12322 00f1 27       		.uleb128 0x27
 12323 00f2 19       		.uleb128 0x19
 12324 00f3 00       		.byte	0
 12325 00f4 00       		.byte	0
 12326 00f5 16       		.uleb128 0x16
 12327 00f6 15       		.uleb128 0x15
 12328 00f7 01       		.byte	0x1
 12329 00f8 27       		.uleb128 0x27
 12330 00f9 19       		.uleb128 0x19
 12331 00fa 49       		.uleb128 0x49
 12332 00fb 13       		.uleb128 0x13
 12333 00fc 01       		.uleb128 0x1
 12334 00fd 13       		.uleb128 0x13
 12335 00fe 00       		.byte	0
 12336 00ff 00       		.byte	0
 12337 0100 17       		.uleb128 0x17
 12338 0101 05       		.uleb128 0x5
 12339 0102 00       		.byte	0
 12340 0103 49       		.uleb128 0x49
 12341 0104 13       		.uleb128 0x13
 12342 0105 00       		.byte	0
 12343 0106 00       		.byte	0
 12344 0107 18       		.uleb128 0x18
 12345 0108 13       		.uleb128 0x13
 12346 0109 01       		.byte	0x1
 12347 010a 03       		.uleb128 0x3
 12348 010b 0E       		.uleb128 0xe
 12349 010c 0B       		.uleb128 0xb
 12350 010d 05       		.uleb128 0x5
 12351 010e 3A       		.uleb128 0x3a
 12352 010f 0B       		.uleb128 0xb
 12353 0110 3B       		.uleb128 0x3b
 12354 0111 05       		.uleb128 0x5
 12355 0112 01       		.uleb128 0x1
 12356 0113 13       		.uleb128 0x13
 12357 0114 00       		.byte	0
ARM GAS  /tmp/ccH4KobB.s 			page 218


 12358 0115 00       		.byte	0
 12359 0116 19       		.uleb128 0x19
 12360 0117 0D       		.uleb128 0xd
 12361 0118 00       		.byte	0
 12362 0119 03       		.uleb128 0x3
 12363 011a 0E       		.uleb128 0xe
 12364 011b 3A       		.uleb128 0x3a
 12365 011c 0B       		.uleb128 0xb
 12366 011d 3B       		.uleb128 0x3b
 12367 011e 05       		.uleb128 0x5
 12368 011f 49       		.uleb128 0x49
 12369 0120 13       		.uleb128 0x13
 12370 0121 38       		.uleb128 0x38
 12371 0122 0B       		.uleb128 0xb
 12372 0123 00       		.byte	0
 12373 0124 00       		.byte	0
 12374 0125 1A       		.uleb128 0x1a
 12375 0126 0D       		.uleb128 0xd
 12376 0127 00       		.byte	0
 12377 0128 03       		.uleb128 0x3
 12378 0129 0E       		.uleb128 0xe
 12379 012a 3A       		.uleb128 0x3a
 12380 012b 0B       		.uleb128 0xb
 12381 012c 3B       		.uleb128 0x3b
 12382 012d 05       		.uleb128 0x5
 12383 012e 49       		.uleb128 0x49
 12384 012f 13       		.uleb128 0x13
 12385 0130 38       		.uleb128 0x38
 12386 0131 05       		.uleb128 0x5
 12387 0132 00       		.byte	0
 12388 0133 00       		.byte	0
 12389 0134 1B       		.uleb128 0x1b
 12390 0135 13       		.uleb128 0x13
 12391 0136 01       		.byte	0x1
 12392 0137 03       		.uleb128 0x3
 12393 0138 0E       		.uleb128 0xe
 12394 0139 0B       		.uleb128 0xb
 12395 013a 0B       		.uleb128 0xb
 12396 013b 3A       		.uleb128 0x3a
 12397 013c 0B       		.uleb128 0xb
 12398 013d 3B       		.uleb128 0x3b
 12399 013e 05       		.uleb128 0x5
 12400 013f 01       		.uleb128 0x1
 12401 0140 13       		.uleb128 0x13
 12402 0141 00       		.byte	0
 12403 0142 00       		.byte	0
 12404 0143 1C       		.uleb128 0x1c
 12405 0144 13       		.uleb128 0x13
 12406 0145 01       		.byte	0x1
 12407 0146 0B       		.uleb128 0xb
 12408 0147 0B       		.uleb128 0xb
 12409 0148 3A       		.uleb128 0x3a
 12410 0149 0B       		.uleb128 0xb
 12411 014a 3B       		.uleb128 0x3b
 12412 014b 05       		.uleb128 0x5
 12413 014c 01       		.uleb128 0x1
 12414 014d 13       		.uleb128 0x13
ARM GAS  /tmp/ccH4KobB.s 			page 219


 12415 014e 00       		.byte	0
 12416 014f 00       		.byte	0
 12417 0150 1D       		.uleb128 0x1d
 12418 0151 17       		.uleb128 0x17
 12419 0152 01       		.byte	0x1
 12420 0153 0B       		.uleb128 0xb
 12421 0154 0B       		.uleb128 0xb
 12422 0155 3A       		.uleb128 0x3a
 12423 0156 0B       		.uleb128 0xb
 12424 0157 3B       		.uleb128 0x3b
 12425 0158 05       		.uleb128 0x5
 12426 0159 01       		.uleb128 0x1
 12427 015a 13       		.uleb128 0x13
 12428 015b 00       		.byte	0
 12429 015c 00       		.byte	0
 12430 015d 1E       		.uleb128 0x1e
 12431 015e 0D       		.uleb128 0xd
 12432 015f 00       		.byte	0
 12433 0160 03       		.uleb128 0x3
 12434 0161 0E       		.uleb128 0xe
 12435 0162 3A       		.uleb128 0x3a
 12436 0163 0B       		.uleb128 0xb
 12437 0164 3B       		.uleb128 0x3b
 12438 0165 05       		.uleb128 0x5
 12439 0166 49       		.uleb128 0x49
 12440 0167 13       		.uleb128 0x13
 12441 0168 00       		.byte	0
 12442 0169 00       		.byte	0
 12443 016a 1F       		.uleb128 0x1f
 12444 016b 15       		.uleb128 0x15
 12445 016c 01       		.byte	0x1
 12446 016d 27       		.uleb128 0x27
 12447 016e 19       		.uleb128 0x19
 12448 016f 01       		.uleb128 0x1
 12449 0170 13       		.uleb128 0x13
 12450 0171 00       		.byte	0
 12451 0172 00       		.byte	0
 12452 0173 20       		.uleb128 0x20
 12453 0174 34       		.uleb128 0x34
 12454 0175 00       		.byte	0
 12455 0176 03       		.uleb128 0x3
 12456 0177 0E       		.uleb128 0xe
 12457 0178 3A       		.uleb128 0x3a
 12458 0179 0B       		.uleb128 0xb
 12459 017a 3B       		.uleb128 0x3b
 12460 017b 05       		.uleb128 0x5
 12461 017c 49       		.uleb128 0x49
 12462 017d 13       		.uleb128 0x13
 12463 017e 3F       		.uleb128 0x3f
 12464 017f 19       		.uleb128 0x19
 12465 0180 3C       		.uleb128 0x3c
 12466 0181 19       		.uleb128 0x19
 12467 0182 00       		.byte	0
 12468 0183 00       		.byte	0
 12469 0184 21       		.uleb128 0x21
 12470 0185 0D       		.uleb128 0xd
 12471 0186 00       		.byte	0
ARM GAS  /tmp/ccH4KobB.s 			page 220


 12472 0187 03       		.uleb128 0x3
 12473 0188 08       		.uleb128 0x8
 12474 0189 3A       		.uleb128 0x3a
 12475 018a 0B       		.uleb128 0xb
 12476 018b 3B       		.uleb128 0x3b
 12477 018c 05       		.uleb128 0x5
 12478 018d 49       		.uleb128 0x49
 12479 018e 13       		.uleb128 0x13
 12480 018f 38       		.uleb128 0x38
 12481 0190 0B       		.uleb128 0xb
 12482 0191 00       		.byte	0
 12483 0192 00       		.byte	0
 12484 0193 22       		.uleb128 0x22
 12485 0194 34       		.uleb128 0x34
 12486 0195 00       		.byte	0
 12487 0196 03       		.uleb128 0x3
 12488 0197 0E       		.uleb128 0xe
 12489 0198 3A       		.uleb128 0x3a
 12490 0199 0B       		.uleb128 0xb
 12491 019a 3B       		.uleb128 0x3b
 12492 019b 0B       		.uleb128 0xb
 12493 019c 49       		.uleb128 0x49
 12494 019d 13       		.uleb128 0x13
 12495 019e 3F       		.uleb128 0x3f
 12496 019f 19       		.uleb128 0x19
 12497 01a0 3C       		.uleb128 0x3c
 12498 01a1 19       		.uleb128 0x19
 12499 01a2 00       		.byte	0
 12500 01a3 00       		.byte	0
 12501 01a4 23       		.uleb128 0x23
 12502 01a5 13       		.uleb128 0x13
 12503 01a6 01       		.byte	0x1
 12504 01a7 0B       		.uleb128 0xb
 12505 01a8 05       		.uleb128 0x5
 12506 01a9 3A       		.uleb128 0x3a
 12507 01aa 0B       		.uleb128 0xb
 12508 01ab 3B       		.uleb128 0x3b
 12509 01ac 05       		.uleb128 0x5
 12510 01ad 01       		.uleb128 0x1
 12511 01ae 13       		.uleb128 0x13
 12512 01af 00       		.byte	0
 12513 01b0 00       		.byte	0
 12514 01b1 24       		.uleb128 0x24
 12515 01b2 0D       		.uleb128 0xd
 12516 01b3 00       		.byte	0
 12517 01b4 03       		.uleb128 0x3
 12518 01b5 08       		.uleb128 0x8
 12519 01b6 3A       		.uleb128 0x3a
 12520 01b7 0B       		.uleb128 0xb
 12521 01b8 3B       		.uleb128 0x3b
 12522 01b9 05       		.uleb128 0x5
 12523 01ba 49       		.uleb128 0x49
 12524 01bb 13       		.uleb128 0x13
 12525 01bc 38       		.uleb128 0x38
 12526 01bd 05       		.uleb128 0x5
 12527 01be 00       		.byte	0
 12528 01bf 00       		.byte	0
ARM GAS  /tmp/ccH4KobB.s 			page 221


 12529 01c0 25       		.uleb128 0x25
 12530 01c1 34       		.uleb128 0x34
 12531 01c2 00       		.byte	0
 12532 01c3 03       		.uleb128 0x3
 12533 01c4 08       		.uleb128 0x8
 12534 01c5 3A       		.uleb128 0x3a
 12535 01c6 0B       		.uleb128 0xb
 12536 01c7 3B       		.uleb128 0x3b
 12537 01c8 05       		.uleb128 0x5
 12538 01c9 49       		.uleb128 0x49
 12539 01ca 13       		.uleb128 0x13
 12540 01cb 3F       		.uleb128 0x3f
 12541 01cc 19       		.uleb128 0x19
 12542 01cd 3C       		.uleb128 0x3c
 12543 01ce 19       		.uleb128 0x19
 12544 01cf 00       		.byte	0
 12545 01d0 00       		.byte	0
 12546 01d1 26       		.uleb128 0x26
 12547 01d2 0D       		.uleb128 0xd
 12548 01d3 00       		.byte	0
 12549 01d4 03       		.uleb128 0x3
 12550 01d5 08       		.uleb128 0x8
 12551 01d6 3A       		.uleb128 0x3a
 12552 01d7 0B       		.uleb128 0xb
 12553 01d8 3B       		.uleb128 0x3b
 12554 01d9 0B       		.uleb128 0xb
 12555 01da 49       		.uleb128 0x49
 12556 01db 13       		.uleb128 0x13
 12557 01dc 00       		.byte	0
 12558 01dd 00       		.byte	0
 12559 01de 27       		.uleb128 0x27
 12560 01df 04       		.uleb128 0x4
 12561 01e0 01       		.byte	0x1
 12562 01e1 3E       		.uleb128 0x3e
 12563 01e2 0B       		.uleb128 0xb
 12564 01e3 0B       		.uleb128 0xb
 12565 01e4 0B       		.uleb128 0xb
 12566 01e5 49       		.uleb128 0x49
 12567 01e6 13       		.uleb128 0x13
 12568 01e7 3A       		.uleb128 0x3a
 12569 01e8 0B       		.uleb128 0xb
 12570 01e9 3B       		.uleb128 0x3b
 12571 01ea 0B       		.uleb128 0xb
 12572 01eb 01       		.uleb128 0x1
 12573 01ec 13       		.uleb128 0x13
 12574 01ed 00       		.byte	0
 12575 01ee 00       		.byte	0
 12576 01ef 28       		.uleb128 0x28
 12577 01f0 28       		.uleb128 0x28
 12578 01f1 00       		.byte	0
 12579 01f2 03       		.uleb128 0x3
 12580 01f3 0E       		.uleb128 0xe
 12581 01f4 1C       		.uleb128 0x1c
 12582 01f5 0B       		.uleb128 0xb
 12583 01f6 00       		.byte	0
 12584 01f7 00       		.byte	0
 12585 01f8 29       		.uleb128 0x29
ARM GAS  /tmp/ccH4KobB.s 			page 222


 12586 01f9 04       		.uleb128 0x4
 12587 01fa 01       		.byte	0x1
 12588 01fb 3E       		.uleb128 0x3e
 12589 01fc 0B       		.uleb128 0xb
 12590 01fd 0B       		.uleb128 0xb
 12591 01fe 0B       		.uleb128 0xb
 12592 01ff 49       		.uleb128 0x49
 12593 0200 13       		.uleb128 0x13
 12594 0201 3A       		.uleb128 0x3a
 12595 0202 0B       		.uleb128 0xb
 12596 0203 3B       		.uleb128 0x3b
 12597 0204 05       		.uleb128 0x5
 12598 0205 01       		.uleb128 0x1
 12599 0206 13       		.uleb128 0x13
 12600 0207 00       		.byte	0
 12601 0208 00       		.byte	0
 12602 0209 2A       		.uleb128 0x2a
 12603 020a 13       		.uleb128 0x13
 12604 020b 01       		.byte	0x1
 12605 020c 0B       		.uleb128 0xb
 12606 020d 06       		.uleb128 0x6
 12607 020e 3A       		.uleb128 0x3a
 12608 020f 0B       		.uleb128 0xb
 12609 0210 3B       		.uleb128 0x3b
 12610 0211 0B       		.uleb128 0xb
 12611 0212 01       		.uleb128 0x1
 12612 0213 13       		.uleb128 0x13
 12613 0214 00       		.byte	0
 12614 0215 00       		.byte	0
 12615 0216 2B       		.uleb128 0x2b
 12616 0217 0D       		.uleb128 0xd
 12617 0218 00       		.byte	0
 12618 0219 03       		.uleb128 0x3
 12619 021a 08       		.uleb128 0x8
 12620 021b 3A       		.uleb128 0x3a
 12621 021c 0B       		.uleb128 0xb
 12622 021d 3B       		.uleb128 0x3b
 12623 021e 0B       		.uleb128 0xb
 12624 021f 49       		.uleb128 0x49
 12625 0220 13       		.uleb128 0x13
 12626 0221 38       		.uleb128 0x38
 12627 0222 05       		.uleb128 0x5
 12628 0223 00       		.byte	0
 12629 0224 00       		.byte	0
 12630 0225 2C       		.uleb128 0x2c
 12631 0226 21       		.uleb128 0x21
 12632 0227 00       		.byte	0
 12633 0228 49       		.uleb128 0x49
 12634 0229 13       		.uleb128 0x13
 12635 022a 2F       		.uleb128 0x2f
 12636 022b 05       		.uleb128 0x5
 12637 022c 00       		.byte	0
 12638 022d 00       		.byte	0
 12639 022e 2D       		.uleb128 0x2d
 12640 022f 34       		.uleb128 0x34
 12641 0230 00       		.byte	0
 12642 0231 47       		.uleb128 0x47
ARM GAS  /tmp/ccH4KobB.s 			page 223


 12643 0232 13       		.uleb128 0x13
 12644 0233 3A       		.uleb128 0x3a
 12645 0234 0B       		.uleb128 0xb
 12646 0235 3B       		.uleb128 0x3b
 12647 0236 0B       		.uleb128 0xb
 12648 0237 02       		.uleb128 0x2
 12649 0238 18       		.uleb128 0x18
 12650 0239 00       		.byte	0
 12651 023a 00       		.byte	0
 12652 023b 2E       		.uleb128 0x2e
 12653 023c 34       		.uleb128 0x34
 12654 023d 00       		.byte	0
 12655 023e 03       		.uleb128 0x3
 12656 023f 0E       		.uleb128 0xe
 12657 0240 3A       		.uleb128 0x3a
 12658 0241 0B       		.uleb128 0xb
 12659 0242 3B       		.uleb128 0x3b
 12660 0243 0B       		.uleb128 0xb
 12661 0244 49       		.uleb128 0x49
 12662 0245 13       		.uleb128 0x13
 12663 0246 02       		.uleb128 0x2
 12664 0247 18       		.uleb128 0x18
 12665 0248 00       		.byte	0
 12666 0249 00       		.byte	0
 12667 024a 2F       		.uleb128 0x2f
 12668 024b 2E       		.uleb128 0x2e
 12669 024c 01       		.byte	0x1
 12670 024d 3F       		.uleb128 0x3f
 12671 024e 19       		.uleb128 0x19
 12672 024f 03       		.uleb128 0x3
 12673 0250 0E       		.uleb128 0xe
 12674 0251 3A       		.uleb128 0x3a
 12675 0252 0B       		.uleb128 0xb
 12676 0253 3B       		.uleb128 0x3b
 12677 0254 05       		.uleb128 0x5
 12678 0255 27       		.uleb128 0x27
 12679 0256 19       		.uleb128 0x19
 12680 0257 11       		.uleb128 0x11
 12681 0258 01       		.uleb128 0x1
 12682 0259 12       		.uleb128 0x12
 12683 025a 06       		.uleb128 0x6
 12684 025b 40       		.uleb128 0x40
 12685 025c 18       		.uleb128 0x18
 12686 025d 9742     		.uleb128 0x2117
 12687 025f 19       		.uleb128 0x19
 12688 0260 01       		.uleb128 0x1
 12689 0261 13       		.uleb128 0x13
 12690 0262 00       		.byte	0
 12691 0263 00       		.byte	0
 12692 0264 30       		.uleb128 0x30
 12693 0265 05       		.uleb128 0x5
 12694 0266 00       		.byte	0
 12695 0267 03       		.uleb128 0x3
 12696 0268 08       		.uleb128 0x8
 12697 0269 3A       		.uleb128 0x3a
 12698 026a 0B       		.uleb128 0xb
 12699 026b 3B       		.uleb128 0x3b
ARM GAS  /tmp/ccH4KobB.s 			page 224


 12700 026c 05       		.uleb128 0x5
 12701 026d 49       		.uleb128 0x49
 12702 026e 13       		.uleb128 0x13
 12703 026f 02       		.uleb128 0x2
 12704 0270 17       		.uleb128 0x17
 12705 0271 00       		.byte	0
 12706 0272 00       		.byte	0
 12707 0273 31       		.uleb128 0x31
 12708 0274 34       		.uleb128 0x34
 12709 0275 00       		.byte	0
 12710 0276 03       		.uleb128 0x3
 12711 0277 0E       		.uleb128 0xe
 12712 0278 3A       		.uleb128 0x3a
 12713 0279 0B       		.uleb128 0xb
 12714 027a 3B       		.uleb128 0x3b
 12715 027b 05       		.uleb128 0x5
 12716 027c 49       		.uleb128 0x49
 12717 027d 13       		.uleb128 0x13
 12718 027e 02       		.uleb128 0x2
 12719 027f 17       		.uleb128 0x17
 12720 0280 00       		.byte	0
 12721 0281 00       		.byte	0
 12722 0282 32       		.uleb128 0x32
 12723 0283 0B       		.uleb128 0xb
 12724 0284 01       		.byte	0x1
 12725 0285 11       		.uleb128 0x11
 12726 0286 01       		.uleb128 0x1
 12727 0287 12       		.uleb128 0x12
 12728 0288 06       		.uleb128 0x6
 12729 0289 01       		.uleb128 0x1
 12730 028a 13       		.uleb128 0x13
 12731 028b 00       		.byte	0
 12732 028c 00       		.byte	0
 12733 028d 33       		.uleb128 0x33
 12734 028e 34       		.uleb128 0x34
 12735 028f 00       		.byte	0
 12736 0290 03       		.uleb128 0x3
 12737 0291 08       		.uleb128 0x8
 12738 0292 3A       		.uleb128 0x3a
 12739 0293 0B       		.uleb128 0xb
 12740 0294 3B       		.uleb128 0x3b
 12741 0295 05       		.uleb128 0x5
 12742 0296 49       		.uleb128 0x49
 12743 0297 13       		.uleb128 0x13
 12744 0298 02       		.uleb128 0x2
 12745 0299 17       		.uleb128 0x17
 12746 029a 00       		.byte	0
 12747 029b 00       		.byte	0
 12748 029c 34       		.uleb128 0x34
 12749 029d 34       		.uleb128 0x34
 12750 029e 00       		.byte	0
 12751 029f 03       		.uleb128 0x3
 12752 02a0 0E       		.uleb128 0xe
 12753 02a1 3A       		.uleb128 0x3a
 12754 02a2 0B       		.uleb128 0xb
 12755 02a3 3B       		.uleb128 0x3b
 12756 02a4 05       		.uleb128 0x5
ARM GAS  /tmp/ccH4KobB.s 			page 225


 12757 02a5 49       		.uleb128 0x49
 12758 02a6 13       		.uleb128 0x13
 12759 02a7 00       		.byte	0
 12760 02a8 00       		.byte	0
 12761 02a9 35       		.uleb128 0x35
 12762 02aa 1D       		.uleb128 0x1d
 12763 02ab 01       		.byte	0x1
 12764 02ac 31       		.uleb128 0x31
 12765 02ad 13       		.uleb128 0x13
 12766 02ae 11       		.uleb128 0x11
 12767 02af 01       		.uleb128 0x1
 12768 02b0 12       		.uleb128 0x12
 12769 02b1 06       		.uleb128 0x6
 12770 02b2 58       		.uleb128 0x58
 12771 02b3 0B       		.uleb128 0xb
 12772 02b4 59       		.uleb128 0x59
 12773 02b5 05       		.uleb128 0x5
 12774 02b6 01       		.uleb128 0x1
 12775 02b7 13       		.uleb128 0x13
 12776 02b8 00       		.byte	0
 12777 02b9 00       		.byte	0
 12778 02ba 36       		.uleb128 0x36
 12779 02bb 1D       		.uleb128 0x1d
 12780 02bc 01       		.byte	0x1
 12781 02bd 31       		.uleb128 0x31
 12782 02be 13       		.uleb128 0x13
 12783 02bf 11       		.uleb128 0x11
 12784 02c0 01       		.uleb128 0x1
 12785 02c1 12       		.uleb128 0x12
 12786 02c2 06       		.uleb128 0x6
 12787 02c3 58       		.uleb128 0x58
 12788 02c4 0B       		.uleb128 0xb
 12789 02c5 59       		.uleb128 0x59
 12790 02c6 05       		.uleb128 0x5
 12791 02c7 00       		.byte	0
 12792 02c8 00       		.byte	0
 12793 02c9 37       		.uleb128 0x37
 12794 02ca 05       		.uleb128 0x5
 12795 02cb 00       		.byte	0
 12796 02cc 31       		.uleb128 0x31
 12797 02cd 13       		.uleb128 0x13
 12798 02ce 02       		.uleb128 0x2
 12799 02cf 17       		.uleb128 0x17
 12800 02d0 00       		.byte	0
 12801 02d1 00       		.byte	0
 12802 02d2 38       		.uleb128 0x38
 12803 02d3 0B       		.uleb128 0xb
 12804 02d4 01       		.byte	0x1
 12805 02d5 11       		.uleb128 0x11
 12806 02d6 01       		.uleb128 0x1
 12807 02d7 12       		.uleb128 0x12
 12808 02d8 06       		.uleb128 0x6
 12809 02d9 00       		.byte	0
 12810 02da 00       		.byte	0
 12811 02db 39       		.uleb128 0x39
 12812 02dc 1D       		.uleb128 0x1d
 12813 02dd 01       		.byte	0x1
ARM GAS  /tmp/ccH4KobB.s 			page 226


 12814 02de 31       		.uleb128 0x31
 12815 02df 13       		.uleb128 0x13
 12816 02e0 52       		.uleb128 0x52
 12817 02e1 01       		.uleb128 0x1
 12818 02e2 55       		.uleb128 0x55
 12819 02e3 17       		.uleb128 0x17
 12820 02e4 58       		.uleb128 0x58
 12821 02e5 0B       		.uleb128 0xb
 12822 02e6 59       		.uleb128 0x59
 12823 02e7 05       		.uleb128 0x5
 12824 02e8 01       		.uleb128 0x1
 12825 02e9 13       		.uleb128 0x13
 12826 02ea 00       		.byte	0
 12827 02eb 00       		.byte	0
 12828 02ec 3A       		.uleb128 0x3a
 12829 02ed 05       		.uleb128 0x5
 12830 02ee 00       		.byte	0
 12831 02ef 31       		.uleb128 0x31
 12832 02f0 13       		.uleb128 0x13
 12833 02f1 00       		.byte	0
 12834 02f2 00       		.byte	0
 12835 02f3 3B       		.uleb128 0x3b
 12836 02f4 0B       		.uleb128 0xb
 12837 02f5 01       		.byte	0x1
 12838 02f6 31       		.uleb128 0x31
 12839 02f7 13       		.uleb128 0x13
 12840 02f8 55       		.uleb128 0x55
 12841 02f9 17       		.uleb128 0x17
 12842 02fa 00       		.byte	0
 12843 02fb 00       		.byte	0
 12844 02fc 3C       		.uleb128 0x3c
 12845 02fd 34       		.uleb128 0x34
 12846 02fe 00       		.byte	0
 12847 02ff 31       		.uleb128 0x31
 12848 0300 13       		.uleb128 0x13
 12849 0301 02       		.uleb128 0x2
 12850 0302 17       		.uleb128 0x17
 12851 0303 00       		.byte	0
 12852 0304 00       		.byte	0
 12853 0305 3D       		.uleb128 0x3d
 12854 0306 0B       		.uleb128 0xb
 12855 0307 01       		.byte	0x1
 12856 0308 55       		.uleb128 0x55
 12857 0309 17       		.uleb128 0x17
 12858 030a 00       		.byte	0
 12859 030b 00       		.byte	0
 12860 030c 3E       		.uleb128 0x3e
 12861 030d 0B       		.uleb128 0xb
 12862 030e 01       		.byte	0x1
 12863 030f 31       		.uleb128 0x31
 12864 0310 13       		.uleb128 0x13
 12865 0311 55       		.uleb128 0x55
 12866 0312 17       		.uleb128 0x17
 12867 0313 01       		.uleb128 0x1
 12868 0314 13       		.uleb128 0x13
 12869 0315 00       		.byte	0
 12870 0316 00       		.byte	0
ARM GAS  /tmp/ccH4KobB.s 			page 227


 12871 0317 3F       		.uleb128 0x3f
 12872 0318 34       		.uleb128 0x34
 12873 0319 00       		.byte	0
 12874 031a 31       		.uleb128 0x31
 12875 031b 13       		.uleb128 0x13
 12876 031c 00       		.byte	0
 12877 031d 00       		.byte	0
 12878 031e 40       		.uleb128 0x40
 12879 031f 1D       		.uleb128 0x1d
 12880 0320 01       		.byte	0x1
 12881 0321 31       		.uleb128 0x31
 12882 0322 13       		.uleb128 0x13
 12883 0323 52       		.uleb128 0x52
 12884 0324 01       		.uleb128 0x1
 12885 0325 55       		.uleb128 0x55
 12886 0326 17       		.uleb128 0x17
 12887 0327 58       		.uleb128 0x58
 12888 0328 0B       		.uleb128 0xb
 12889 0329 59       		.uleb128 0x59
 12890 032a 05       		.uleb128 0x5
 12891 032b 00       		.byte	0
 12892 032c 00       		.byte	0
 12893 032d 41       		.uleb128 0x41
 12894 032e 898201   		.uleb128 0x4109
 12895 0331 01       		.byte	0x1
 12896 0332 11       		.uleb128 0x11
 12897 0333 01       		.uleb128 0x1
 12898 0334 31       		.uleb128 0x31
 12899 0335 13       		.uleb128 0x13
 12900 0336 00       		.byte	0
 12901 0337 00       		.byte	0
 12902 0338 42       		.uleb128 0x42
 12903 0339 8A8201   		.uleb128 0x410a
 12904 033c 00       		.byte	0
 12905 033d 02       		.uleb128 0x2
 12906 033e 18       		.uleb128 0x18
 12907 033f 9142     		.uleb128 0x2111
 12908 0341 18       		.uleb128 0x18
 12909 0342 00       		.byte	0
 12910 0343 00       		.byte	0
 12911 0344 43       		.uleb128 0x43
 12912 0345 898201   		.uleb128 0x4109
 12913 0348 00       		.byte	0
 12914 0349 11       		.uleb128 0x11
 12915 034a 01       		.uleb128 0x1
 12916 034b 31       		.uleb128 0x31
 12917 034c 13       		.uleb128 0x13
 12918 034d 00       		.byte	0
 12919 034e 00       		.byte	0
 12920 034f 44       		.uleb128 0x44
 12921 0350 0B       		.uleb128 0xb
 12922 0351 01       		.byte	0x1
 12923 0352 31       		.uleb128 0x31
 12924 0353 13       		.uleb128 0x13
 12925 0354 11       		.uleb128 0x11
 12926 0355 01       		.uleb128 0x1
 12927 0356 12       		.uleb128 0x12
ARM GAS  /tmp/ccH4KobB.s 			page 228


 12928 0357 06       		.uleb128 0x6
 12929 0358 01       		.uleb128 0x1
 12930 0359 13       		.uleb128 0x13
 12931 035a 00       		.byte	0
 12932 035b 00       		.byte	0
 12933 035c 45       		.uleb128 0x45
 12934 035d 0B       		.uleb128 0xb
 12935 035e 01       		.byte	0x1
 12936 035f 31       		.uleb128 0x31
 12937 0360 13       		.uleb128 0x13
 12938 0361 11       		.uleb128 0x11
 12939 0362 01       		.uleb128 0x1
 12940 0363 12       		.uleb128 0x12
 12941 0364 06       		.uleb128 0x6
 12942 0365 00       		.byte	0
 12943 0366 00       		.byte	0
 12944 0367 46       		.uleb128 0x46
 12945 0368 05       		.uleb128 0x5
 12946 0369 00       		.byte	0
 12947 036a 03       		.uleb128 0x3
 12948 036b 0E       		.uleb128 0xe
 12949 036c 3A       		.uleb128 0x3a
 12950 036d 0B       		.uleb128 0xb
 12951 036e 3B       		.uleb128 0x3b
 12952 036f 05       		.uleb128 0x5
 12953 0370 49       		.uleb128 0x49
 12954 0371 13       		.uleb128 0x13
 12955 0372 02       		.uleb128 0x2
 12956 0373 18       		.uleb128 0x18
 12957 0374 00       		.byte	0
 12958 0375 00       		.byte	0
 12959 0376 47       		.uleb128 0x47
 12960 0377 2E       		.uleb128 0x2e
 12961 0378 01       		.byte	0x1
 12962 0379 3F       		.uleb128 0x3f
 12963 037a 19       		.uleb128 0x19
 12964 037b 03       		.uleb128 0x3
 12965 037c 0E       		.uleb128 0xe
 12966 037d 3A       		.uleb128 0x3a
 12967 037e 0B       		.uleb128 0xb
 12968 037f 3B       		.uleb128 0x3b
 12969 0380 05       		.uleb128 0x5
 12970 0381 27       		.uleb128 0x27
 12971 0382 19       		.uleb128 0x19
 12972 0383 20       		.uleb128 0x20
 12973 0384 0B       		.uleb128 0xb
 12974 0385 01       		.uleb128 0x1
 12975 0386 13       		.uleb128 0x13
 12976 0387 00       		.byte	0
 12977 0388 00       		.byte	0
 12978 0389 48       		.uleb128 0x48
 12979 038a 05       		.uleb128 0x5
 12980 038b 00       		.byte	0
 12981 038c 03       		.uleb128 0x3
 12982 038d 0E       		.uleb128 0xe
 12983 038e 3A       		.uleb128 0x3a
 12984 038f 0B       		.uleb128 0xb
ARM GAS  /tmp/ccH4KobB.s 			page 229


 12985 0390 3B       		.uleb128 0x3b
 12986 0391 05       		.uleb128 0x5
 12987 0392 49       		.uleb128 0x49
 12988 0393 13       		.uleb128 0x13
 12989 0394 00       		.byte	0
 12990 0395 00       		.byte	0
 12991 0396 49       		.uleb128 0x49
 12992 0397 05       		.uleb128 0x5
 12993 0398 00       		.byte	0
 12994 0399 03       		.uleb128 0x3
 12995 039a 08       		.uleb128 0x8
 12996 039b 3A       		.uleb128 0x3a
 12997 039c 0B       		.uleb128 0xb
 12998 039d 3B       		.uleb128 0x3b
 12999 039e 05       		.uleb128 0x5
 13000 039f 49       		.uleb128 0x49
 13001 03a0 13       		.uleb128 0x13
 13002 03a1 00       		.byte	0
 13003 03a2 00       		.byte	0
 13004 03a3 4A       		.uleb128 0x4a
 13005 03a4 05       		.uleb128 0x5
 13006 03a5 00       		.byte	0
 13007 03a6 03       		.uleb128 0x3
 13008 03a7 0E       		.uleb128 0xe
 13009 03a8 3A       		.uleb128 0x3a
 13010 03a9 0B       		.uleb128 0xb
 13011 03aa 3B       		.uleb128 0x3b
 13012 03ab 05       		.uleb128 0x5
 13013 03ac 49       		.uleb128 0x49
 13014 03ad 13       		.uleb128 0x13
 13015 03ae 02       		.uleb128 0x2
 13016 03af 17       		.uleb128 0x17
 13017 03b0 00       		.byte	0
 13018 03b1 00       		.byte	0
 13019 03b2 4B       		.uleb128 0x4b
 13020 03b3 05       		.uleb128 0x5
 13021 03b4 00       		.byte	0
 13022 03b5 03       		.uleb128 0x3
 13023 03b6 08       		.uleb128 0x8
 13024 03b7 3A       		.uleb128 0x3a
 13025 03b8 0B       		.uleb128 0xb
 13026 03b9 3B       		.uleb128 0x3b
 13027 03ba 05       		.uleb128 0x5
 13028 03bb 49       		.uleb128 0x49
 13029 03bc 13       		.uleb128 0x13
 13030 03bd 02       		.uleb128 0x2
 13031 03be 18       		.uleb128 0x18
 13032 03bf 00       		.byte	0
 13033 03c0 00       		.byte	0
 13034 03c1 4C       		.uleb128 0x4c
 13035 03c2 2E       		.uleb128 0x2e
 13036 03c3 01       		.byte	0x1
 13037 03c4 3F       		.uleb128 0x3f
 13038 03c5 19       		.uleb128 0x19
 13039 03c6 03       		.uleb128 0x3
 13040 03c7 0E       		.uleb128 0xe
 13041 03c8 3A       		.uleb128 0x3a
ARM GAS  /tmp/ccH4KobB.s 			page 230


 13042 03c9 0B       		.uleb128 0xb
 13043 03ca 3B       		.uleb128 0x3b
 13044 03cb 05       		.uleb128 0x5
 13045 03cc 27       		.uleb128 0x27
 13046 03cd 19       		.uleb128 0x19
 13047 03ce 49       		.uleb128 0x49
 13048 03cf 13       		.uleb128 0x13
 13049 03d0 11       		.uleb128 0x11
 13050 03d1 01       		.uleb128 0x1
 13051 03d2 12       		.uleb128 0x12
 13052 03d3 06       		.uleb128 0x6
 13053 03d4 40       		.uleb128 0x40
 13054 03d5 18       		.uleb128 0x18
 13055 03d6 9742     		.uleb128 0x2117
 13056 03d8 19       		.uleb128 0x19
 13057 03d9 01       		.uleb128 0x1
 13058 03da 13       		.uleb128 0x13
 13059 03db 00       		.byte	0
 13060 03dc 00       		.byte	0
 13061 03dd 4D       		.uleb128 0x4d
 13062 03de 34       		.uleb128 0x34
 13063 03df 00       		.byte	0
 13064 03e0 03       		.uleb128 0x3
 13065 03e1 08       		.uleb128 0x8
 13066 03e2 3A       		.uleb128 0x3a
 13067 03e3 0B       		.uleb128 0xb
 13068 03e4 3B       		.uleb128 0x3b
 13069 03e5 05       		.uleb128 0x5
 13070 03e6 49       		.uleb128 0x49
 13071 03e7 13       		.uleb128 0x13
 13072 03e8 02       		.uleb128 0x2
 13073 03e9 18       		.uleb128 0x18
 13074 03ea 00       		.byte	0
 13075 03eb 00       		.byte	0
 13076 03ec 4E       		.uleb128 0x4e
 13077 03ed 898201   		.uleb128 0x4109
 13078 03f0 01       		.byte	0x1
 13079 03f1 11       		.uleb128 0x11
 13080 03f2 01       		.uleb128 0x1
 13081 03f3 9542     		.uleb128 0x2115
 13082 03f5 19       		.uleb128 0x19
 13083 03f6 31       		.uleb128 0x31
 13084 03f7 13       		.uleb128 0x13
 13085 03f8 00       		.byte	0
 13086 03f9 00       		.byte	0
 13087 03fa 4F       		.uleb128 0x4f
 13088 03fb 8A8201   		.uleb128 0x410a
 13089 03fe 00       		.byte	0
 13090 03ff 31       		.uleb128 0x31
 13091 0400 13       		.uleb128 0x13
 13092 0401 9142     		.uleb128 0x2111
 13093 0403 18       		.uleb128 0x18
 13094 0404 00       		.byte	0
 13095 0405 00       		.byte	0
 13096 0406 50       		.uleb128 0x50
 13097 0407 1D       		.uleb128 0x1d
 13098 0408 01       		.byte	0x1
ARM GAS  /tmp/ccH4KobB.s 			page 231


 13099 0409 31       		.uleb128 0x31
 13100 040a 13       		.uleb128 0x13
 13101 040b 11       		.uleb128 0x11
 13102 040c 01       		.uleb128 0x1
 13103 040d 12       		.uleb128 0x12
 13104 040e 06       		.uleb128 0x6
 13105 040f 58       		.uleb128 0x58
 13106 0410 0B       		.uleb128 0xb
 13107 0411 59       		.uleb128 0x59
 13108 0412 0B       		.uleb128 0xb
 13109 0413 00       		.byte	0
 13110 0414 00       		.byte	0
 13111 0415 51       		.uleb128 0x51
 13112 0416 34       		.uleb128 0x34
 13113 0417 00       		.byte	0
 13114 0418 03       		.uleb128 0x3
 13115 0419 0E       		.uleb128 0xe
 13116 041a 3A       		.uleb128 0x3a
 13117 041b 0B       		.uleb128 0xb
 13118 041c 3B       		.uleb128 0x3b
 13119 041d 05       		.uleb128 0x5
 13120 041e 49       		.uleb128 0x49
 13121 041f 13       		.uleb128 0x13
 13122 0420 02       		.uleb128 0x2
 13123 0421 18       		.uleb128 0x18
 13124 0422 00       		.byte	0
 13125 0423 00       		.byte	0
 13126 0424 52       		.uleb128 0x52
 13127 0425 898201   		.uleb128 0x4109
 13128 0428 01       		.byte	0x1
 13129 0429 11       		.uleb128 0x11
 13130 042a 01       		.uleb128 0x1
 13131 042b 31       		.uleb128 0x31
 13132 042c 13       		.uleb128 0x13
 13133 042d 01       		.uleb128 0x1
 13134 042e 13       		.uleb128 0x13
 13135 042f 00       		.byte	0
 13136 0430 00       		.byte	0
 13137 0431 53       		.uleb128 0x53
 13138 0432 1D       		.uleb128 0x1d
 13139 0433 01       		.byte	0x1
 13140 0434 31       		.uleb128 0x31
 13141 0435 13       		.uleb128 0x13
 13142 0436 52       		.uleb128 0x52
 13143 0437 01       		.uleb128 0x1
 13144 0438 55       		.uleb128 0x55
 13145 0439 17       		.uleb128 0x17
 13146 043a 58       		.uleb128 0x58
 13147 043b 0B       		.uleb128 0xb
 13148 043c 59       		.uleb128 0x59
 13149 043d 0B       		.uleb128 0xb
 13150 043e 01       		.uleb128 0x1
 13151 043f 13       		.uleb128 0x13
 13152 0440 00       		.byte	0
 13153 0441 00       		.byte	0
 13154 0442 54       		.uleb128 0x54
 13155 0443 898201   		.uleb128 0x4109
ARM GAS  /tmp/ccH4KobB.s 			page 232


 13156 0446 01       		.byte	0x1
 13157 0447 11       		.uleb128 0x11
 13158 0448 01       		.uleb128 0x1
 13159 0449 01       		.uleb128 0x1
 13160 044a 13       		.uleb128 0x13
 13161 044b 00       		.byte	0
 13162 044c 00       		.byte	0
 13163 044d 55       		.uleb128 0x55
 13164 044e 898201   		.uleb128 0x4109
 13165 0451 00       		.byte	0
 13166 0452 11       		.uleb128 0x11
 13167 0453 01       		.uleb128 0x1
 13168 0454 9542     		.uleb128 0x2115
 13169 0456 19       		.uleb128 0x19
 13170 0457 31       		.uleb128 0x31
 13171 0458 13       		.uleb128 0x13
 13172 0459 00       		.byte	0
 13173 045a 00       		.byte	0
 13174 045b 56       		.uleb128 0x56
 13175 045c 2E       		.uleb128 0x2e
 13176 045d 01       		.byte	0x1
 13177 045e 03       		.uleb128 0x3
 13178 045f 0E       		.uleb128 0xe
 13179 0460 3A       		.uleb128 0x3a
 13180 0461 0B       		.uleb128 0xb
 13181 0462 3B       		.uleb128 0x3b
 13182 0463 05       		.uleb128 0x5
 13183 0464 27       		.uleb128 0x27
 13184 0465 19       		.uleb128 0x19
 13185 0466 20       		.uleb128 0x20
 13186 0467 0B       		.uleb128 0xb
 13187 0468 01       		.uleb128 0x1
 13188 0469 13       		.uleb128 0x13
 13189 046a 00       		.byte	0
 13190 046b 00       		.byte	0
 13191 046c 57       		.uleb128 0x57
 13192 046d 34       		.uleb128 0x34
 13193 046e 00       		.byte	0
 13194 046f 03       		.uleb128 0x3
 13195 0470 08       		.uleb128 0x8
 13196 0471 3A       		.uleb128 0x3a
 13197 0472 0B       		.uleb128 0xb
 13198 0473 3B       		.uleb128 0x3b
 13199 0474 05       		.uleb128 0x5
 13200 0475 49       		.uleb128 0x49
 13201 0476 13       		.uleb128 0x13
 13202 0477 00       		.byte	0
 13203 0478 00       		.byte	0
 13204 0479 58       		.uleb128 0x58
 13205 047a 0B       		.uleb128 0xb
 13206 047b 01       		.byte	0x1
 13207 047c 00       		.byte	0
 13208 047d 00       		.byte	0
 13209 047e 59       		.uleb128 0x59
 13210 047f 2E       		.uleb128 0x2e
 13211 0480 01       		.byte	0x1
 13212 0481 03       		.uleb128 0x3
ARM GAS  /tmp/ccH4KobB.s 			page 233


 13213 0482 0E       		.uleb128 0xe
 13214 0483 3A       		.uleb128 0x3a
 13215 0484 0B       		.uleb128 0xb
 13216 0485 3B       		.uleb128 0x3b
 13217 0486 05       		.uleb128 0x5
 13218 0487 27       		.uleb128 0x27
 13219 0488 19       		.uleb128 0x19
 13220 0489 49       		.uleb128 0x49
 13221 048a 13       		.uleb128 0x13
 13222 048b 20       		.uleb128 0x20
 13223 048c 0B       		.uleb128 0xb
 13224 048d 01       		.uleb128 0x1
 13225 048e 13       		.uleb128 0x13
 13226 048f 00       		.byte	0
 13227 0490 00       		.byte	0
 13228 0491 5A       		.uleb128 0x5a
 13229 0492 2E       		.uleb128 0x2e
 13230 0493 01       		.byte	0x1
 13231 0494 03       		.uleb128 0x3
 13232 0495 0E       		.uleb128 0xe
 13233 0496 3A       		.uleb128 0x3a
 13234 0497 0B       		.uleb128 0xb
 13235 0498 3B       		.uleb128 0x3b
 13236 0499 0B       		.uleb128 0xb
 13237 049a 27       		.uleb128 0x27
 13238 049b 19       		.uleb128 0x19
 13239 049c 20       		.uleb128 0x20
 13240 049d 0B       		.uleb128 0xb
 13241 049e 01       		.uleb128 0x1
 13242 049f 13       		.uleb128 0x13
 13243 04a0 00       		.byte	0
 13244 04a1 00       		.byte	0
 13245 04a2 5B       		.uleb128 0x5b
 13246 04a3 05       		.uleb128 0x5
 13247 04a4 00       		.byte	0
 13248 04a5 03       		.uleb128 0x3
 13249 04a6 0E       		.uleb128 0xe
 13250 04a7 3A       		.uleb128 0x3a
 13251 04a8 0B       		.uleb128 0xb
 13252 04a9 3B       		.uleb128 0x3b
 13253 04aa 0B       		.uleb128 0xb
 13254 04ab 49       		.uleb128 0x49
 13255 04ac 13       		.uleb128 0x13
 13256 04ad 00       		.byte	0
 13257 04ae 00       		.byte	0
 13258 04af 5C       		.uleb128 0x5c
 13259 04b0 05       		.uleb128 0x5
 13260 04b1 00       		.byte	0
 13261 04b2 03       		.uleb128 0x3
 13262 04b3 08       		.uleb128 0x8
 13263 04b4 3A       		.uleb128 0x3a
 13264 04b5 0B       		.uleb128 0xb
 13265 04b6 3B       		.uleb128 0x3b
 13266 04b7 0B       		.uleb128 0xb
 13267 04b8 49       		.uleb128 0x49
 13268 04b9 13       		.uleb128 0x13
 13269 04ba 00       		.byte	0
ARM GAS  /tmp/ccH4KobB.s 			page 234


 13270 04bb 00       		.byte	0
 13271 04bc 5D       		.uleb128 0x5d
 13272 04bd 2E       		.uleb128 0x2e
 13273 04be 01       		.byte	0x1
 13274 04bf 03       		.uleb128 0x3
 13275 04c0 0E       		.uleb128 0xe
 13276 04c1 3A       		.uleb128 0x3a
 13277 04c2 0B       		.uleb128 0xb
 13278 04c3 3B       		.uleb128 0x3b
 13279 04c4 0B       		.uleb128 0xb
 13280 04c5 27       		.uleb128 0x27
 13281 04c6 19       		.uleb128 0x19
 13282 04c7 49       		.uleb128 0x49
 13283 04c8 13       		.uleb128 0x13
 13284 04c9 20       		.uleb128 0x20
 13285 04ca 0B       		.uleb128 0xb
 13286 04cb 01       		.uleb128 0x1
 13287 04cc 13       		.uleb128 0x13
 13288 04cd 00       		.byte	0
 13289 04ce 00       		.byte	0
 13290 04cf 5E       		.uleb128 0x5e
 13291 04d0 34       		.uleb128 0x34
 13292 04d1 00       		.byte	0
 13293 04d2 03       		.uleb128 0x3
 13294 04d3 0E       		.uleb128 0xe
 13295 04d4 3A       		.uleb128 0x3a
 13296 04d5 0B       		.uleb128 0xb
 13297 04d6 3B       		.uleb128 0x3b
 13298 04d7 0B       		.uleb128 0xb
 13299 04d8 49       		.uleb128 0x49
 13300 04d9 13       		.uleb128 0x13
 13301 04da 00       		.byte	0
 13302 04db 00       		.byte	0
 13303 04dc 5F       		.uleb128 0x5f
 13304 04dd 34       		.uleb128 0x34
 13305 04de 00       		.byte	0
 13306 04df 03       		.uleb128 0x3
 13307 04e0 0E       		.uleb128 0xe
 13308 04e1 49       		.uleb128 0x49
 13309 04e2 13       		.uleb128 0x13
 13310 04e3 34       		.uleb128 0x34
 13311 04e4 19       		.uleb128 0x19
 13312 04e5 1C       		.uleb128 0x1c
 13313 04e6 0E       		.uleb128 0xe
 13314 04e7 00       		.byte	0
 13315 04e8 00       		.byte	0
 13316 04e9 60       		.uleb128 0x60
 13317 04ea 34       		.uleb128 0x34
 13318 04eb 00       		.byte	0
 13319 04ec 03       		.uleb128 0x3
 13320 04ed 08       		.uleb128 0x8
 13321 04ee 3A       		.uleb128 0x3a
 13322 04ef 0B       		.uleb128 0xb
 13323 04f0 3B       		.uleb128 0x3b
 13324 04f1 0B       		.uleb128 0xb
 13325 04f2 49       		.uleb128 0x49
 13326 04f3 13       		.uleb128 0x13
ARM GAS  /tmp/ccH4KobB.s 			page 235


 13327 04f4 00       		.byte	0
 13328 04f5 00       		.byte	0
 13329 04f6 61       		.uleb128 0x61
 13330 04f7 2E       		.uleb128 0x2e
 13331 04f8 00       		.byte	0
 13332 04f9 03       		.uleb128 0x3
 13333 04fa 0E       		.uleb128 0xe
 13334 04fb 3A       		.uleb128 0x3a
 13335 04fc 0B       		.uleb128 0xb
 13336 04fd 3B       		.uleb128 0x3b
 13337 04fe 05       		.uleb128 0x5
 13338 04ff 27       		.uleb128 0x27
 13339 0500 19       		.uleb128 0x19
 13340 0501 20       		.uleb128 0x20
 13341 0502 0B       		.uleb128 0xb
 13342 0503 00       		.byte	0
 13343 0504 00       		.byte	0
 13344 0505 62       		.uleb128 0x62
 13345 0506 2E       		.uleb128 0x2e
 13346 0507 01       		.byte	0x1
 13347 0508 31       		.uleb128 0x31
 13348 0509 13       		.uleb128 0x13
 13349 050a 11       		.uleb128 0x11
 13350 050b 01       		.uleb128 0x1
 13351 050c 12       		.uleb128 0x12
 13352 050d 06       		.uleb128 0x6
 13353 050e 40       		.uleb128 0x40
 13354 050f 18       		.uleb128 0x18
 13355 0510 9742     		.uleb128 0x2117
 13356 0512 19       		.uleb128 0x19
 13357 0513 01       		.uleb128 0x1
 13358 0514 13       		.uleb128 0x13
 13359 0515 00       		.byte	0
 13360 0516 00       		.byte	0
 13361 0517 63       		.uleb128 0x63
 13362 0518 05       		.uleb128 0x5
 13363 0519 00       		.byte	0
 13364 051a 31       		.uleb128 0x31
 13365 051b 13       		.uleb128 0x13
 13366 051c 02       		.uleb128 0x2
 13367 051d 18       		.uleb128 0x18
 13368 051e 00       		.byte	0
 13369 051f 00       		.byte	0
 13370 0520 64       		.uleb128 0x64
 13371 0521 898201   		.uleb128 0x4109
 13372 0524 01       		.byte	0x1
 13373 0525 11       		.uleb128 0x11
 13374 0526 01       		.uleb128 0x1
 13375 0527 9542     		.uleb128 0x2115
 13376 0529 19       		.uleb128 0x19
 13377 052a 01       		.uleb128 0x1
 13378 052b 13       		.uleb128 0x13
 13379 052c 00       		.byte	0
 13380 052d 00       		.byte	0
 13381 052e 65       		.uleb128 0x65
 13382 052f 898201   		.uleb128 0x4109
 13383 0532 01       		.byte	0x1
ARM GAS  /tmp/ccH4KobB.s 			page 236


 13384 0533 11       		.uleb128 0x11
 13385 0534 01       		.uleb128 0x1
 13386 0535 00       		.byte	0
 13387 0536 00       		.byte	0
 13388 0537 66       		.uleb128 0x66
 13389 0538 34       		.uleb128 0x34
 13390 0539 00       		.byte	0
 13391 053a 31       		.uleb128 0x31
 13392 053b 13       		.uleb128 0x13
 13393 053c 02       		.uleb128 0x2
 13394 053d 18       		.uleb128 0x18
 13395 053e 00       		.byte	0
 13396 053f 00       		.byte	0
 13397 0540 67       		.uleb128 0x67
 13398 0541 898201   		.uleb128 0x4109
 13399 0544 01       		.byte	0x1
 13400 0545 11       		.uleb128 0x11
 13401 0546 01       		.uleb128 0x1
 13402 0547 9342     		.uleb128 0x2113
 13403 0549 18       		.uleb128 0x18
 13404 054a 01       		.uleb128 0x1
 13405 054b 13       		.uleb128 0x13
 13406 054c 00       		.byte	0
 13407 054d 00       		.byte	0
 13408 054e 68       		.uleb128 0x68
 13409 054f 2E       		.uleb128 0x2e
 13410 0550 00       		.byte	0
 13411 0551 3F       		.uleb128 0x3f
 13412 0552 19       		.uleb128 0x19
 13413 0553 3C       		.uleb128 0x3c
 13414 0554 19       		.uleb128 0x19
 13415 0555 6E       		.uleb128 0x6e
 13416 0556 0E       		.uleb128 0xe
 13417 0557 03       		.uleb128 0x3
 13418 0558 0E       		.uleb128 0xe
 13419 0559 3A       		.uleb128 0x3a
 13420 055a 0B       		.uleb128 0xb
 13421 055b 3B       		.uleb128 0x3b
 13422 055c 0B       		.uleb128 0xb
 13423 055d 00       		.byte	0
 13424 055e 00       		.byte	0
 13425 055f 69       		.uleb128 0x69
 13426 0560 2E       		.uleb128 0x2e
 13427 0561 00       		.byte	0
 13428 0562 3F       		.uleb128 0x3f
 13429 0563 19       		.uleb128 0x19
 13430 0564 3C       		.uleb128 0x3c
 13431 0565 19       		.uleb128 0x19
 13432 0566 6E       		.uleb128 0x6e
 13433 0567 0E       		.uleb128 0xe
 13434 0568 03       		.uleb128 0x3
 13435 0569 0E       		.uleb128 0xe
 13436 056a 3A       		.uleb128 0x3a
 13437 056b 0B       		.uleb128 0xb
 13438 056c 3B       		.uleb128 0x3b
 13439 056d 05       		.uleb128 0x5
 13440 056e 00       		.byte	0
ARM GAS  /tmp/ccH4KobB.s 			page 237


 13441 056f 00       		.byte	0
 13442 0570 00       		.byte	0
 13443              		.section	.debug_loc,"",%progbits
 13444              	.Ldebug_loc0:
 13445              	.LLST0:
 13446 0000 00000000 		.4byte	.LVL0
 13447 0004 22000000 		.4byte	.LVL5
 13448 0008 0100     		.2byte	0x1
 13449 000a 50       		.byte	0x50
 13450 000b 22000000 		.4byte	.LVL5
 13451 000f 8A030000 		.4byte	.LFE292
 13452 0013 0100     		.2byte	0x1
 13453 0015 55       		.byte	0x55
 13454 0016 00000000 		.4byte	0
 13455 001a 00000000 		.4byte	0
 13456              	.LLST1:
 13457 001e 0A000000 		.4byte	.LVL1
 13458 0022 22000000 		.4byte	.LVL5
 13459 0026 0100     		.2byte	0x1
 13460 0028 50       		.byte	0x50
 13461 0029 22000000 		.4byte	.LVL5
 13462 002d 8A030000 		.4byte	.LFE292
 13463 0031 0100     		.2byte	0x1
 13464 0033 55       		.byte	0x55
 13465 0034 00000000 		.4byte	0
 13466 0038 00000000 		.4byte	0
 13467              	.LLST2:
 13468 003c 0C000000 		.4byte	.LVL2
 13469 0040 22000000 		.4byte	.LVL5
 13470 0044 0100     		.2byte	0x1
 13471 0046 55       		.byte	0x55
 13472 0047 00000000 		.4byte	0
 13473 004b 00000000 		.4byte	0
 13474              	.LLST5:
 13475 004f 4C000000 		.4byte	.LVL7
 13476 0053 4E000000 		.4byte	.LVL8
 13477 0057 0200     		.2byte	0x2
 13478 0059 30       		.byte	0x30
 13479 005a 9F       		.byte	0x9f
 13480 005b 22010000 		.4byte	.LVL42
 13481 005f 30010000 		.4byte	.LVL45
 13482 0063 0100     		.2byte	0x1
 13483 0065 5A       		.byte	0x5a
 13484 0066 00000000 		.4byte	0
 13485 006a 00000000 		.4byte	0
 13486              	.LLST6:
 13487 006e 12010000 		.4byte	.LVL40
 13488 0072 1C010000 		.4byte	.LVL41
 13489 0076 0100     		.2byte	0x1
 13490 0078 56       		.byte	0x56
 13491 0079 B8010000 		.4byte	.LVL63
 13492 007d 1E020000 		.4byte	.LVL69
 13493 0081 0100     		.2byte	0x1
 13494 0083 56       		.byte	0x56
 13495 0084 1E020000 		.4byte	.LVL69
 13496 0088 D4020000 		.4byte	.LVL93
 13497 008c 0200     		.2byte	0x2
ARM GAS  /tmp/ccH4KobB.s 			page 238


 13498 008e 91       		.byte	0x91
 13499 008f 50       		.sleb128 -48
 13500 0090 F0020000 		.4byte	.LVL96
 13501 0094 56030000 		.4byte	.LVL109
 13502 0098 0200     		.2byte	0x2
 13503 009a 91       		.byte	0x91
 13504 009b 50       		.sleb128 -48
 13505 009c 56030000 		.4byte	.LVL109
 13506 00a0 8A030000 		.4byte	.LFE292
 13507 00a4 0100     		.2byte	0x1
 13508 00a6 56       		.byte	0x56
 13509 00a7 00000000 		.4byte	0
 13510 00ab 00000000 		.4byte	0
 13511              	.LLST35:
 13512 00af B8010000 		.4byte	.LVL63
 13513 00b3 BE010000 		.4byte	.LVL64
 13514 00b7 0300     		.2byte	0x3
 13515 00b9 08       		.byte	0x8
 13516 00ba 20       		.byte	0x20
 13517 00bb 9F       		.byte	0x9f
 13518 00bc 00000000 		.4byte	0
 13519 00c0 00000000 		.4byte	0
 13520              	.LLST36:
 13521 00c4 D2010000 		.4byte	.LVL65
 13522 00c8 D6010000 		.4byte	.LVL66
 13523 00cc 0200     		.2byte	0x2
 13524 00ce 30       		.byte	0x30
 13525 00cf 9F       		.byte	0x9f
 13526 00d0 00000000 		.4byte	0
 13527 00d4 00000000 		.4byte	0
 13528              	.LLST37:
 13529 00d8 D6010000 		.4byte	.LVL66
 13530 00dc C0020000 		.4byte	.LVL91
 13531 00e0 0100     		.2byte	0x1
 13532 00e2 55       		.byte	0x55
 13533 00e3 F0020000 		.4byte	.LVL96
 13534 00e7 56030000 		.4byte	.LVL109
 13535 00eb 0100     		.2byte	0x1
 13536 00ed 55       		.byte	0x55
 13537 00ee 00000000 		.4byte	0
 13538 00f2 00000000 		.4byte	0
 13539              	.LLST38:
 13540 00f6 FA010000 		.4byte	.LVL67
 13541 00fa 04020000 		.4byte	.LVL68
 13542 00fe 0100     		.2byte	0x1
 13543 0100 53       		.byte	0x53
 13544 0101 04020000 		.4byte	.LVL68
 13545 0105 94020000 		.4byte	.LVL88
 13546 0109 0100     		.2byte	0x1
 13547 010b 54       		.byte	0x54
 13548 010c A8020000 		.4byte	.LVL89
 13549 0110 C0020000 		.4byte	.LVL91
 13550 0114 0100     		.2byte	0x1
 13551 0116 54       		.byte	0x54
 13552 0117 F0020000 		.4byte	.LVL96
 13553 011b 4E030000 		.4byte	.LVL108
 13554 011f 0100     		.2byte	0x1
ARM GAS  /tmp/ccH4KobB.s 			page 239


 13555 0121 54       		.byte	0x54
 13556 0122 00000000 		.4byte	0
 13557 0126 00000000 		.4byte	0
 13558              	.LLST39:
 13559 012a 2A020000 		.4byte	.LVL70
 13560 012e 8C020000 		.4byte	.LVL87
 13561 0132 0100     		.2byte	0x1
 13562 0134 54       		.byte	0x54
 13563 0135 F0020000 		.4byte	.LVL96
 13564 0139 28030000 		.4byte	.LVL100
 13565 013d 0100     		.2byte	0x1
 13566 013f 54       		.byte	0x54
 13567 0140 4A030000 		.4byte	.LVL107
 13568 0144 4E030000 		.4byte	.LVL108
 13569 0148 0100     		.2byte	0x1
 13570 014a 54       		.byte	0x54
 13571 014b 00000000 		.4byte	0
 13572 014f 00000000 		.4byte	0
 13573              	.LLST40:
 13574 0153 2A020000 		.4byte	.LVL70
 13575 0157 32020000 		.4byte	.LVL71
 13576 015b 0200     		.2byte	0x2
 13577 015d 72       		.byte	0x72
 13578 015e 0C       		.sleb128 12
 13579 015f 00000000 		.4byte	0
 13580 0163 00000000 		.4byte	0
 13581              	.LLST41:
 13582 0167 2A020000 		.4byte	.LVL70
 13583 016b 32020000 		.4byte	.LVL71
 13584 016f 0100     		.2byte	0x1
 13585 0171 54       		.byte	0x54
 13586 0172 32020000 		.4byte	.LVL71
 13587 0176 6C020000 		.4byte	.LVL81
 13588 017a 0100     		.2byte	0x1
 13589 017c 52       		.byte	0x52
 13590 017d F0020000 		.4byte	.LVL96
 13591 0181 0A030000 		.4byte	.LVL98
 13592 0185 0100     		.2byte	0x1
 13593 0187 52       		.byte	0x52
 13594 0188 0A030000 		.4byte	.LVL98
 13595 018c 12030000 		.4byte	.LVL99
 13596 0190 0300     		.2byte	0x3
 13597 0192 72       		.byte	0x72
 13598 0193 7F       		.sleb128 -1
 13599 0194 9F       		.byte	0x9f
 13600 0195 12030000 		.4byte	.LVL99
 13601 0199 28030000 		.4byte	.LVL100
 13602 019d 0100     		.2byte	0x1
 13603 019f 52       		.byte	0x52
 13604 01a0 4A030000 		.4byte	.LVL107
 13605 01a4 4E030000 		.4byte	.LVL108
 13606 01a8 0100     		.2byte	0x1
 13607 01aa 52       		.byte	0x52
 13608 01ab 00000000 		.4byte	0
 13609 01af 00000000 		.4byte	0
 13610              	.LLST42:
 13611 01b3 FA020000 		.4byte	.LVL97
ARM GAS  /tmp/ccH4KobB.s 			page 240


 13612 01b7 28030000 		.4byte	.LVL100
 13613 01bb 0100     		.2byte	0x1
 13614 01bd 56       		.byte	0x56
 13615 01be 00000000 		.4byte	0
 13616 01c2 00000000 		.4byte	0
 13617              	.LLST43:
 13618 01c6 32020000 		.4byte	.LVL71
 13619 01ca 34020000 		.4byte	.LVL72
 13620 01ce 0500     		.2byte	0x5
 13621 01d0 72       		.byte	0x72
 13622 01d1 00       		.sleb128 0
 13623 01d2 32       		.byte	0x32
 13624 01d3 25       		.byte	0x25
 13625 01d4 9F       		.byte	0x9f
 13626 01d5 34020000 		.4byte	.LVL72
 13627 01d9 6C020000 		.4byte	.LVL81
 13628 01dd 0100     		.2byte	0x1
 13629 01df 57       		.byte	0x57
 13630 01e0 F0020000 		.4byte	.LVL96
 13631 01e4 FA020000 		.4byte	.LVL97
 13632 01e8 0100     		.2byte	0x1
 13633 01ea 57       		.byte	0x57
 13634 01eb 4A030000 		.4byte	.LVL107
 13635 01ef 4E030000 		.4byte	.LVL108
 13636 01f3 0100     		.2byte	0x1
 13637 01f5 57       		.byte	0x57
 13638 01f6 00000000 		.4byte	0
 13639 01fa 00000000 		.4byte	0
 13640              	.LLST44:
 13641 01fe 48020000 		.4byte	.LVL74
 13642 0202 52020000 		.4byte	.LVL76
 13643 0206 0100     		.2byte	0x1
 13644 0208 56       		.byte	0x56
 13645 0209 52020000 		.4byte	.LVL76
 13646 020d 62020000 		.4byte	.LVL80
 13647 0211 4D00     		.2byte	0x4d
 13648 0213 77       		.byte	0x77
 13649 0214 00       		.sleb128 0
 13650 0215 7B       		.byte	0x7b
 13651 0216 00       		.sleb128 0
 13652 0217 70       		.byte	0x70
 13653 0218 18       		.sleb128 24
 13654 0219 06       		.byte	0x6
 13655 021a 1C       		.byte	0x1c
 13656 021b 23       		.byte	0x23
 13657 021c 03       		.uleb128 0x3
 13658 021d 7B       		.byte	0x7b
 13659 021e 00       		.sleb128 0
 13660 021f 70       		.byte	0x70
 13661 0220 18       		.sleb128 24
 13662 0221 06       		.byte	0x6
 13663 0222 1C       		.byte	0x1c
 13664 0223 7B       		.byte	0x7b
 13665 0224 00       		.sleb128 0
 13666 0225 70       		.byte	0x70
 13667 0226 18       		.sleb128 24
 13668 0227 06       		.byte	0x6
ARM GAS  /tmp/ccH4KobB.s 			page 241


 13669 0228 1C       		.byte	0x1c
 13670 0229 30       		.byte	0x30
 13671 022a 2D       		.byte	0x2d
 13672 022b 28       		.byte	0x28
 13673 022c 0100     		.2byte	0x1
 13674 022e 16       		.byte	0x16
 13675 022f 13       		.byte	0x13
 13676 0230 32       		.byte	0x32
 13677 0231 26       		.byte	0x26
 13678 0232 7B       		.byte	0x7b
 13679 0233 00       		.sleb128 0
 13680 0234 70       		.byte	0x70
 13681 0235 18       		.sleb128 24
 13682 0236 06       		.byte	0x6
 13683 0237 1C       		.byte	0x1c
 13684 0238 23       		.byte	0x23
 13685 0239 03       		.uleb128 0x3
 13686 023a 7B       		.byte	0x7b
 13687 023b 00       		.sleb128 0
 13688 023c 70       		.byte	0x70
 13689 023d 18       		.sleb128 24
 13690 023e 06       		.byte	0x6
 13691 023f 1C       		.byte	0x1c
 13692 0240 7B       		.byte	0x7b
 13693 0241 00       		.sleb128 0
 13694 0242 70       		.byte	0x70
 13695 0243 18       		.sleb128 24
 13696 0244 06       		.byte	0x6
 13697 0245 1C       		.byte	0x1c
 13698 0246 30       		.byte	0x30
 13699 0247 2D       		.byte	0x2d
 13700 0248 28       		.byte	0x28
 13701 0249 0100     		.2byte	0x1
 13702 024b 16       		.byte	0x16
 13703 024c 13       		.byte	0x13
 13704 024d 32       		.byte	0x32
 13705 024e 26       		.byte	0x26
 13706 024f 40       		.byte	0x40
 13707 0250 4B       		.byte	0x4b
 13708 0251 24       		.byte	0x24
 13709 0252 22       		.byte	0x22
 13710 0253 77       		.byte	0x77
 13711 0254 00       		.sleb128 0
 13712 0255 40       		.byte	0x40
 13713 0256 4B       		.byte	0x4b
 13714 0257 24       		.byte	0x24
 13715 0258 22       		.byte	0x22
 13716 0259 2A       		.byte	0x2a
 13717 025a 28       		.byte	0x28
 13718 025b 0100     		.2byte	0x1
 13719 025d 16       		.byte	0x16
 13720 025e 13       		.byte	0x13
 13721 025f 9F       		.byte	0x9f
 13722 0260 4A030000 		.4byte	.LVL107
 13723 0264 4E030000 		.4byte	.LVL108
 13724 0268 0100     		.2byte	0x1
 13725 026a 56       		.byte	0x56
ARM GAS  /tmp/ccH4KobB.s 			page 242


 13726 026b 00000000 		.4byte	0
 13727 026f 00000000 		.4byte	0
 13728              	.LLST45:
 13729 0273 38020000 		.4byte	.LVL73
 13730 0277 52020000 		.4byte	.LVL76
 13731 027b 0800     		.2byte	0x8
 13732 027d 7B       		.byte	0x7b
 13733 027e 00       		.sleb128 0
 13734 027f 73       		.byte	0x73
 13735 0280 00       		.sleb128 0
 13736 0281 1C       		.byte	0x1c
 13737 0282 34       		.byte	0x34
 13738 0283 1B       		.byte	0x1b
 13739 0284 9F       		.byte	0x9f
 13740 0285 52020000 		.4byte	.LVL76
 13741 0289 62020000 		.4byte	.LVL80
 13742 028d 0900     		.2byte	0x9
 13743 028f 7B       		.byte	0x7b
 13744 0290 00       		.sleb128 0
 13745 0291 70       		.byte	0x70
 13746 0292 18       		.sleb128 24
 13747 0293 06       		.byte	0x6
 13748 0294 1C       		.byte	0x1c
 13749 0295 34       		.byte	0x34
 13750 0296 1B       		.byte	0x1b
 13751 0297 9F       		.byte	0x9f
 13752 0298 4A030000 		.4byte	.LVL107
 13753 029c 4E030000 		.4byte	.LVL108
 13754 02a0 0800     		.2byte	0x8
 13755 02a2 7B       		.byte	0x7b
 13756 02a3 00       		.sleb128 0
 13757 02a4 73       		.byte	0x73
 13758 02a5 00       		.sleb128 0
 13759 02a6 1C       		.byte	0x1c
 13760 02a7 34       		.byte	0x34
 13761 02a8 1B       		.byte	0x1b
 13762 02a9 9F       		.byte	0x9f
 13763 02aa 00000000 		.4byte	0
 13764 02ae 00000000 		.4byte	0
 13765              	.LLST46:
 13766 02b2 4C020000 		.4byte	.LVL75
 13767 02b6 52020000 		.4byte	.LVL76
 13768 02ba 0100     		.2byte	0x1
 13769 02bc 56       		.byte	0x56
 13770 02bd 4A030000 		.4byte	.LVL107
 13771 02c1 4E030000 		.4byte	.LVL108
 13772 02c5 0100     		.2byte	0x1
 13773 02c7 56       		.byte	0x56
 13774 02c8 00000000 		.4byte	0
 13775 02cc 00000000 		.4byte	0
 13776              	.LLST47:
 13777 02d0 52020000 		.4byte	.LVL76
 13778 02d4 56020000 		.4byte	.LVL77
 13779 02d8 0100     		.2byte	0x1
 13780 02da 53       		.byte	0x53
 13781 02db 56020000 		.4byte	.LVL77
 13782 02df 5A020000 		.4byte	.LVL78
ARM GAS  /tmp/ccH4KobB.s 			page 243


 13783 02e3 0300     		.2byte	0x3
 13784 02e5 73       		.byte	0x73
 13785 02e6 7C       		.sleb128 -4
 13786 02e7 9F       		.byte	0x9f
 13787 02e8 5A020000 		.4byte	.LVL78
 13788 02ec 5E020000 		.4byte	.LVL79
 13789 02f0 0100     		.2byte	0x1
 13790 02f2 53       		.byte	0x53
 13791 02f3 00000000 		.4byte	0
 13792 02f7 00000000 		.4byte	0
 13793              	.LLST48:
 13794 02fb 6C020000 		.4byte	.LVL81
 13795 02ff 72020000 		.4byte	.LVL82
 13796 0303 0300     		.2byte	0x3
 13797 0305 08       		.byte	0x8
 13798 0306 20       		.byte	0x20
 13799 0307 9F       		.byte	0x9f
 13800 0308 00000000 		.4byte	0
 13801 030c 00000000 		.4byte	0
 13802              	.LLST49:
 13803 0310 78020000 		.4byte	.LVL83
 13804 0314 7E020000 		.4byte	.LVL84
 13805 0318 0200     		.2byte	0x2
 13806 031a 30       		.byte	0x30
 13807 031b 9F       		.byte	0x9f
 13808 031c 00000000 		.4byte	0
 13809 0320 00000000 		.4byte	0
 13810              	.LLST50:
 13811 0324 78020000 		.4byte	.LVL83
 13812 0328 7D020000 		.4byte	.LVL84-1
 13813 032c 0100     		.2byte	0x1
 13814 032e 50       		.byte	0x50
 13815 032f 00000000 		.4byte	0
 13816 0333 00000000 		.4byte	0
 13817              	.LLST51:
 13818 0337 82020000 		.4byte	.LVL85
 13819 033b 88020000 		.4byte	.LVL86
 13820 033f 0200     		.2byte	0x2
 13821 0341 30       		.byte	0x30
 13822 0342 9F       		.byte	0x9f
 13823 0343 00000000 		.4byte	0
 13824 0347 00000000 		.4byte	0
 13825              	.LLST52:
 13826 034b 28030000 		.4byte	.LVL100
 13827 034f 44030000 		.4byte	.LVL106
 13828 0353 0100     		.2byte	0x1
 13829 0355 54       		.byte	0x54
 13830 0356 00000000 		.4byte	0
 13831 035a 00000000 		.4byte	0
 13832              	.LLST53:
 13833 035e 28030000 		.4byte	.LVL100
 13834 0362 44030000 		.4byte	.LVL106
 13835 0366 0200     		.2byte	0x2
 13836 0368 72       		.byte	0x72
 13837 0369 0C       		.sleb128 12
 13838 036a 00000000 		.4byte	0
 13839 036e 00000000 		.4byte	0
ARM GAS  /tmp/ccH4KobB.s 			page 244


 13840              	.LLST54:
 13841 0372 2A030000 		.4byte	.LVL101
 13842 0376 2C030000 		.4byte	.LVL102
 13843 037a 0500     		.2byte	0x5
 13844 037c 73       		.byte	0x73
 13845 037d 00       		.sleb128 0
 13846 037e 32       		.byte	0x32
 13847 037f 25       		.byte	0x25
 13848 0380 9F       		.byte	0x9f
 13849 0381 2C030000 		.4byte	.LVL102
 13850 0385 34030000 		.4byte	.LVL103
 13851 0389 0100     		.2byte	0x1
 13852 038b 53       		.byte	0x53
 13853 038c 00000000 		.4byte	0
 13854 0390 00000000 		.4byte	0
 13855              	.LLST55:
 13856 0394 2A030000 		.4byte	.LVL101
 13857 0398 34030000 		.4byte	.LVL103
 13858 039c 0200     		.2byte	0x2
 13859 039e 72       		.byte	0x72
 13860 039f 0C       		.sleb128 12
 13861 03a0 34030000 		.4byte	.LVL103
 13862 03a4 38030000 		.4byte	.LVL104
 13863 03a8 0100     		.2byte	0x1
 13864 03aa 53       		.byte	0x53
 13865 03ab 38030000 		.4byte	.LVL104
 13866 03af 3C030000 		.4byte	.LVL105
 13867 03b3 0300     		.2byte	0x3
 13868 03b5 73       		.byte	0x73
 13869 03b6 7C       		.sleb128 -4
 13870 03b7 9F       		.byte	0x9f
 13871 03b8 3C030000 		.4byte	.LVL105
 13872 03bc 44030000 		.4byte	.LVL106
 13873 03c0 0100     		.2byte	0x1
 13874 03c2 53       		.byte	0x53
 13875 03c3 00000000 		.4byte	0
 13876 03c7 00000000 		.4byte	0
 13877              	.LLST56:
 13878 03cb C0020000 		.4byte	.LVL91
 13879 03cf C6020000 		.4byte	.LVL92
 13880 03d3 0300     		.2byte	0x3
 13881 03d5 08       		.byte	0x8
 13882 03d6 20       		.byte	0x20
 13883 03d7 9F       		.byte	0x9f
 13884 03d8 56030000 		.4byte	.LVL109
 13885 03dc 5C030000 		.4byte	.LVL110
 13886 03e0 0300     		.2byte	0x3
 13887 03e2 08       		.byte	0x8
 13888 03e3 20       		.byte	0x20
 13889 03e4 9F       		.byte	0x9f
 13890 03e5 70030000 		.4byte	.LVL111
 13891 03e9 76030000 		.4byte	.LVL112
 13892 03ed 0300     		.2byte	0x3
 13893 03ef 08       		.byte	0x8
 13894 03f0 20       		.byte	0x20
 13895 03f1 9F       		.byte	0x9f
 13896 03f2 00000000 		.4byte	0
ARM GAS  /tmp/ccH4KobB.s 			page 245


 13897 03f6 00000000 		.4byte	0
 13898              	.LLST57:
 13899 03fa DE020000 		.4byte	.LVL94
 13900 03fe E4020000 		.4byte	.LVL95
 13901 0402 0200     		.2byte	0x2
 13902 0404 30       		.byte	0x30
 13903 0405 9F       		.byte	0x9f
 13904 0406 00000000 		.4byte	0
 13905 040a 00000000 		.4byte	0
 13906              	.LLST7:
 13907 040e 58000000 		.4byte	.LVL9
 13908 0412 0A010000 		.4byte	.LVL39
 13909 0416 0100     		.2byte	0x1
 13910 0418 55       		.byte	0x55
 13911 0419 30010000 		.4byte	.LVL45
 13912 041d B8010000 		.4byte	.LVL63
 13913 0421 0100     		.2byte	0x1
 13914 0423 55       		.byte	0x55
 13915 0424 00000000 		.4byte	0
 13916 0428 00000000 		.4byte	0
 13917              	.LLST8:
 13918 042c 5C000000 		.4byte	.LVL10
 13919 0430 78000000 		.4byte	.LVL14
 13920 0434 0100     		.2byte	0x1
 13921 0436 53       		.byte	0x53
 13922 0437 B0000000 		.4byte	.LVL25
 13923 043b BE000000 		.4byte	.LVL27
 13924 043f 0100     		.2byte	0x1
 13925 0441 53       		.byte	0x53
 13926 0442 00000000 		.4byte	0
 13927 0446 00000000 		.4byte	0
 13928              	.LLST9:
 13929 044a 6C000000 		.4byte	.LVL11
 13930 044e 78000000 		.4byte	.LVL14
 13931 0452 0900     		.2byte	0x9
 13932 0454 73       		.byte	0x73
 13933 0455 00       		.sleb128 0
 13934 0456 34       		.byte	0x34
 13935 0457 25       		.byte	0x25
 13936 0458 0A       		.byte	0xa
 13937 0459 FF07     		.2byte	0x7ff
 13938 045b 1A       		.byte	0x1a
 13939 045c 9F       		.byte	0x9f
 13940 045d BC000000 		.4byte	.LVL26
 13941 0461 02010000 		.4byte	.LVL38
 13942 0465 0100     		.2byte	0x1
 13943 0467 54       		.byte	0x54
 13944 0468 30010000 		.4byte	.LVL45
 13945 046c B8010000 		.4byte	.LVL63
 13946 0470 0100     		.2byte	0x1
 13947 0472 54       		.byte	0x54
 13948 0473 00000000 		.4byte	0
 13949 0477 00000000 		.4byte	0
 13950              	.LLST10:
 13951 047b 6C000000 		.4byte	.LVL11
 13952 047f 70000000 		.4byte	.LVL12
 13953 0483 0500     		.2byte	0x5
ARM GAS  /tmp/ccH4KobB.s 			page 246


 13954 0485 73       		.byte	0x73
 13955 0486 00       		.sleb128 0
 13956 0487 3F       		.byte	0x3f
 13957 0488 1A       		.byte	0x1a
 13958 0489 9F       		.byte	0x9f
 13959 048a 70000000 		.4byte	.LVL12
 13960 048e 74000000 		.4byte	.LVL13
 13961 0492 0100     		.2byte	0x1
 13962 0494 51       		.byte	0x51
 13963 0495 74000000 		.4byte	.LVL13
 13964 0499 78000000 		.4byte	.LVL14
 13965 049d 0500     		.2byte	0x5
 13966 049f 73       		.byte	0x73
 13967 04a0 00       		.sleb128 0
 13968 04a1 3F       		.byte	0x3f
 13969 04a2 1A       		.byte	0x1a
 13970 04a3 9F       		.byte	0x9f
 13971 04a4 BC000000 		.4byte	.LVL26
 13972 04a8 BE000000 		.4byte	.LVL27
 13973 04ac 0500     		.2byte	0x5
 13974 04ae 73       		.byte	0x73
 13975 04af 00       		.sleb128 0
 13976 04b0 3F       		.byte	0x3f
 13977 04b1 1A       		.byte	0x1a
 13978 04b2 9F       		.byte	0x9f
 13979 04b3 00000000 		.4byte	0
 13980 04b7 00000000 		.4byte	0
 13981              	.LLST11:
 13982 04bb 40010000 		.4byte	.LVL48
 13983 04bf B8010000 		.4byte	.LVL63
 13984 04c3 0100     		.2byte	0x1
 13985 04c5 54       		.byte	0x54
 13986 04c6 00000000 		.4byte	0
 13987 04ca 00000000 		.4byte	0
 13988              	.LLST12:
 13989 04ce 40010000 		.4byte	.LVL48
 13990 04d2 4A010000 		.4byte	.LVL50
 13991 04d6 0200     		.2byte	0x2
 13992 04d8 77       		.byte	0x77
 13993 04d9 0C       		.sleb128 12
 13994 04da 00000000 		.4byte	0
 13995 04de 00000000 		.4byte	0
 13996              	.LLST13:
 13997 04e2 40010000 		.4byte	.LVL48
 13998 04e6 48010000 		.4byte	.LVL49
 13999 04ea 0400     		.2byte	0x4
 14000 04ec 72       		.byte	0x72
 14001 04ed 8020     		.sleb128 4096
 14002 04ef 9F       		.byte	0x9f
 14003 04f0 48010000 		.4byte	.LVL49
 14004 04f4 92010000 		.4byte	.LVL57
 14005 04f8 0100     		.2byte	0x1
 14006 04fa 52       		.byte	0x52
 14007 04fb 00000000 		.4byte	0
 14008 04ff 00000000 		.4byte	0
 14009              	.LLST14:
 14010 0503 40010000 		.4byte	.LVL48
ARM GAS  /tmp/ccH4KobB.s 			page 247


 14011 0507 4A010000 		.4byte	.LVL50
 14012 050b 0100     		.2byte	0x1
 14013 050d 54       		.byte	0x54
 14014 050e 4A010000 		.4byte	.LVL50
 14015 0512 66010000 		.4byte	.LVL55
 14016 0516 0100     		.2byte	0x1
 14017 0518 5C       		.byte	0x5c
 14018 0519 66010000 		.4byte	.LVL55
 14019 051d 84010000 		.4byte	.LVL56
 14020 0521 0300     		.2byte	0x3
 14021 0523 7C       		.byte	0x7c
 14022 0524 7F       		.sleb128 -1
 14023 0525 9F       		.byte	0x9f
 14024 0526 84010000 		.4byte	.LVL56
 14025 052a 92010000 		.4byte	.LVL57
 14026 052e 0100     		.2byte	0x1
 14027 0530 5C       		.byte	0x5c
 14028 0531 00000000 		.4byte	0
 14029 0535 00000000 		.4byte	0
 14030              	.LLST15:
 14031 0539 92010000 		.4byte	.LVL57
 14032 053d 98010000 		.4byte	.LVL58
 14033 0541 0300     		.2byte	0x3
 14034 0543 08       		.byte	0x8
 14035 0544 20       		.byte	0x20
 14036 0545 9F       		.byte	0x9f
 14037 0546 00000000 		.4byte	0
 14038 054a 00000000 		.4byte	0
 14039              	.LLST16:
 14040 054e 64010000 		.4byte	.LVL54
 14041 0552 92010000 		.4byte	.LVL57
 14042 0556 0100     		.2byte	0x1
 14043 0558 5E       		.byte	0x5e
 14044 0559 00000000 		.4byte	0
 14045 055d 00000000 		.4byte	0
 14046              	.LLST17:
 14047 0561 64010000 		.4byte	.LVL54
 14048 0565 66010000 		.4byte	.LVL55
 14049 0569 0200     		.2byte	0x2
 14050 056b 30       		.byte	0x30
 14051 056c 9F       		.byte	0x9f
 14052 056d 00000000 		.4byte	0
 14053 0571 00000000 		.4byte	0
 14054              	.LLST18:
 14055 0575 4A010000 		.4byte	.LVL50
 14056 0579 50010000 		.4byte	.LVL51
 14057 057d 0500     		.2byte	0x5
 14058 057f 7C       		.byte	0x7c
 14059 0580 00       		.sleb128 0
 14060 0581 32       		.byte	0x32
 14061 0582 25       		.byte	0x25
 14062 0583 9F       		.byte	0x9f
 14063 0584 5A010000 		.4byte	.LVL52
 14064 0588 60010000 		.4byte	.LVL53
 14065 058c 0500     		.2byte	0x5
 14066 058e 7C       		.byte	0x7c
 14067 058f 00       		.sleb128 0
ARM GAS  /tmp/ccH4KobB.s 			page 248


 14068 0590 32       		.byte	0x32
 14069 0591 25       		.byte	0x25
 14070 0592 9F       		.byte	0x9f
 14071 0593 00000000 		.4byte	0
 14072 0597 00000000 		.4byte	0
 14073              	.LLST19:
 14074 059b 50010000 		.4byte	.LVL51
 14075 059f 60010000 		.4byte	.LVL53
 14076 05a3 0200     		.2byte	0x2
 14077 05a5 30       		.byte	0x30
 14078 05a6 9F       		.byte	0x9f
 14079 05a7 00000000 		.4byte	0
 14080 05ab 00000000 		.4byte	0
 14081              	.LLST21:
 14082 05af 9E010000 		.4byte	.LVL59
 14083 05b3 A4010000 		.4byte	.LVL60
 14084 05b7 0200     		.2byte	0x2
 14085 05b9 30       		.byte	0x30
 14086 05ba 9F       		.byte	0x9f
 14087 05bb 00000000 		.4byte	0
 14088 05bf 00000000 		.4byte	0
 14089              	.LLST22:
 14090 05c3 9E010000 		.4byte	.LVL59
 14091 05c7 A3010000 		.4byte	.LVL60-1
 14092 05cb 0100     		.2byte	0x1
 14093 05cd 50       		.byte	0x50
 14094 05ce 00000000 		.4byte	0
 14095 05d2 00000000 		.4byte	0
 14096              	.LLST23:
 14097 05d6 A8010000 		.4byte	.LVL61
 14098 05da AE010000 		.4byte	.LVL62
 14099 05de 0200     		.2byte	0x2
 14100 05e0 30       		.byte	0x30
 14101 05e1 9F       		.byte	0x9f
 14102 05e2 00000000 		.4byte	0
 14103 05e6 00000000 		.4byte	0
 14104              	.LLST24:
 14105 05ea 80000000 		.4byte	.LVL15
 14106 05ee 88000000 		.4byte	.LVL17
 14107 05f2 0200     		.2byte	0x2
 14108 05f4 32       		.byte	0x32
 14109 05f5 9F       		.byte	0x9f
 14110 05f6 88000000 		.4byte	.LVL17
 14111 05fa A2000000 		.4byte	.LVL23
 14112 05fe 0100     		.2byte	0x1
 14113 0600 51       		.byte	0x51
 14114 0601 A2000000 		.4byte	.LVL23
 14115 0605 AA000000 		.4byte	.LVL24
 14116 0609 0200     		.2byte	0x2
 14117 060b 30       		.byte	0x30
 14118 060c 9F       		.byte	0x9f
 14119 060d AA000000 		.4byte	.LVL24
 14120 0611 B0000000 		.4byte	.LVL25
 14121 0615 0100     		.2byte	0x1
 14122 0617 51       		.byte	0x51
 14123 0618 00000000 		.4byte	0
 14124 061c 00000000 		.4byte	0
ARM GAS  /tmp/ccH4KobB.s 			page 249


 14125              	.LLST25:
 14126 0620 80000000 		.4byte	.LVL15
 14127 0624 B0000000 		.4byte	.LVL25
 14128 0628 0100     		.2byte	0x1
 14129 062a 54       		.byte	0x54
 14130 062b 00000000 		.4byte	0
 14131 062f 00000000 		.4byte	0
 14132              	.LLST26:
 14133 0633 80000000 		.4byte	.LVL15
 14134 0637 86000000 		.4byte	.LVL16
 14135 063b 0400     		.2byte	0x4
 14136 063d 72       		.byte	0x72
 14137 063e 8020     		.sleb128 4096
 14138 0640 9F       		.byte	0x9f
 14139 0641 86000000 		.4byte	.LVL16
 14140 0645 B0000000 		.4byte	.LVL25
 14141 0649 0100     		.2byte	0x1
 14142 064b 52       		.byte	0x52
 14143 064c 00000000 		.4byte	0
 14144 0650 00000000 		.4byte	0
 14145              	.LLST27:
 14146 0654 8A000000 		.4byte	.LVL18
 14147 0658 9A000000 		.4byte	.LVL21
 14148 065c 0100     		.2byte	0x1
 14149 065e 56       		.byte	0x56
 14150 065f 9C000000 		.4byte	.LVL22
 14151 0663 AA000000 		.4byte	.LVL24
 14152 0667 0100     		.2byte	0x1
 14153 0669 56       		.byte	0x56
 14154 066a 00000000 		.4byte	0
 14155 066e 00000000 		.4byte	0
 14156              	.LLST28:
 14157 0672 CC000000 		.4byte	.LVL28
 14158 0676 DA000000 		.4byte	.LVL30
 14159 067a 0700     		.2byte	0x7
 14160 067c 77       		.byte	0x77
 14161 067d 04       		.sleb128 4
 14162 067e 06       		.byte	0x6
 14163 067f 7C       		.byte	0x7c
 14164 0680 00       		.sleb128 0
 14165 0681 1C       		.byte	0x1c
 14166 0682 9F       		.byte	0x9f
 14167 0683 DA000000 		.4byte	.LVL30
 14168 0687 F8000000 		.4byte	.LVL37
 14169 068b 0100     		.2byte	0x1
 14170 068d 56       		.byte	0x56
 14171 068e 30010000 		.4byte	.LVL45
 14172 0692 3A010000 		.4byte	.LVL47
 14173 0696 0200     		.2byte	0x2
 14174 0698 30       		.byte	0x30
 14175 0699 9F       		.byte	0x9f
 14176 069a 3A010000 		.4byte	.LVL47
 14177 069e 40010000 		.4byte	.LVL48
 14178 06a2 0100     		.2byte	0x1
 14179 06a4 56       		.byte	0x56
 14180 06a5 00000000 		.4byte	0
 14181 06a9 00000000 		.4byte	0
ARM GAS  /tmp/ccH4KobB.s 			page 250


 14182              	.LLST29:
 14183 06ad CC000000 		.4byte	.LVL28
 14184 06b1 D0000000 		.4byte	.LVL29
 14185 06b5 0100     		.2byte	0x1
 14186 06b7 54       		.byte	0x54
 14187 06b8 E4000000 		.4byte	.LVL32
 14188 06bc EE000000 		.4byte	.LVL34
 14189 06c0 0100     		.2byte	0x1
 14190 06c2 51       		.byte	0x51
 14191 06c3 EE000000 		.4byte	.LVL34
 14192 06c7 F4000000 		.4byte	.LVL36
 14193 06cb 0300     		.2byte	0x3
 14194 06cd 71       		.byte	0x71
 14195 06ce 01       		.sleb128 1
 14196 06cf 9F       		.byte	0x9f
 14197 06d0 30010000 		.4byte	.LVL45
 14198 06d4 36010000 		.4byte	.LVL46
 14199 06d8 0300     		.2byte	0x3
 14200 06da 71       		.byte	0x71
 14201 06db 7F       		.sleb128 -1
 14202 06dc 9F       		.byte	0x9f
 14203 06dd 36010000 		.4byte	.LVL46
 14204 06e1 3A010000 		.4byte	.LVL47
 14205 06e5 0100     		.2byte	0x1
 14206 06e7 53       		.byte	0x53
 14207 06e8 00000000 		.4byte	0
 14208 06ec 00000000 		.4byte	0
 14209              	.LLST30:
 14210 06f0 CC000000 		.4byte	.LVL28
 14211 06f4 E4000000 		.4byte	.LVL32
 14212 06f8 0200     		.2byte	0x2
 14213 06fa 77       		.byte	0x77
 14214 06fb 0C       		.sleb128 12
 14215 06fc E4000000 		.4byte	.LVL32
 14216 0700 F8000000 		.4byte	.LVL37
 14217 0704 0100     		.2byte	0x1
 14218 0706 5E       		.byte	0x5e
 14219 0707 30010000 		.4byte	.LVL45
 14220 070b 40010000 		.4byte	.LVL48
 14221 070f 0100     		.2byte	0x1
 14222 0711 5E       		.byte	0x5e
 14223 0712 00000000 		.4byte	0
 14224 0716 00000000 		.4byte	0
 14225              	.LLST31:
 14226 071a CC000000 		.4byte	.LVL28
 14227 071e E0000000 		.4byte	.LVL31
 14228 0722 0400     		.2byte	0x4
 14229 0724 72       		.byte	0x72
 14230 0725 8020     		.sleb128 4096
 14231 0727 9F       		.byte	0x9f
 14232 0728 E0000000 		.4byte	.LVL31
 14233 072c E4000000 		.4byte	.LVL32
 14234 0730 0100     		.2byte	0x1
 14235 0732 52       		.byte	0x52
 14236 0733 E4000000 		.4byte	.LVL32
 14237 0737 F8000000 		.4byte	.LVL37
 14238 073b 0100     		.2byte	0x1
ARM GAS  /tmp/ccH4KobB.s 			page 251


 14239 073d 58       		.byte	0x58
 14240 073e 30010000 		.4byte	.LVL45
 14241 0742 40010000 		.4byte	.LVL48
 14242 0746 0100     		.2byte	0x1
 14243 0748 58       		.byte	0x58
 14244 0749 00000000 		.4byte	0
 14245 074d 00000000 		.4byte	0
 14246              	.LLST32:
 14247 0751 E8000000 		.4byte	.LVL33
 14248 0755 F8000000 		.4byte	.LVL37
 14249 0759 0100     		.2byte	0x1
 14250 075b 52       		.byte	0x52
 14251 075c 30010000 		.4byte	.LVL45
 14252 0760 3A010000 		.4byte	.LVL47
 14253 0764 0100     		.2byte	0x1
 14254 0766 52       		.byte	0x52
 14255 0767 00000000 		.4byte	0
 14256 076b 00000000 		.4byte	0
 14257              	.LLST33:
 14258 076f 46000000 		.4byte	.LVL6
 14259 0773 4C000000 		.4byte	.LVL7
 14260 0777 0200     		.2byte	0x2
 14261 0779 30       		.byte	0x30
 14262 077a 9F       		.byte	0x9f
 14263 077b 00000000 		.4byte	0
 14264 077f 00000000 		.4byte	0
 14265              	.LLST34:
 14266 0783 28010000 		.4byte	.LVL43
 14267 0787 2E010000 		.4byte	.LVL44
 14268 078b 0300     		.2byte	0x3
 14269 078d 08       		.byte	0x8
 14270 078e 20       		.byte	0x20
 14271 078f 9F       		.byte	0x9f
 14272 0790 00000000 		.4byte	0
 14273 0794 00000000 		.4byte	0
 14274              	.LLST3:
 14275 0798 0C000000 		.4byte	.LVL2
 14276 079c 0E000000 		.4byte	.LVL3
 14277 07a0 0600     		.2byte	0x6
 14278 07a2 03       		.byte	0x3
 14279 07a3 00000000 		.4byte	.LC0
 14280 07a7 9F       		.byte	0x9f
 14281 07a8 00000000 		.4byte	0
 14282 07ac 00000000 		.4byte	0
 14283              	.LLST4:
 14284 07b0 0E000000 		.4byte	.LVL3
 14285 07b4 16000000 		.4byte	.LVL4
 14286 07b8 0300     		.2byte	0x3
 14287 07ba 08       		.byte	0x8
 14288 07bb 20       		.byte	0x20
 14289 07bc 9F       		.byte	0x9f
 14290 07bd 00000000 		.4byte	0
 14291 07c1 00000000 		.4byte	0
 14292              	.LLST145:
 14293 07c5 00000000 		.4byte	.LVL284
 14294 07c9 06000000 		.4byte	.LVL285
 14295 07cd 0100     		.2byte	0x1
ARM GAS  /tmp/ccH4KobB.s 			page 252


 14296 07cf 51       		.byte	0x51
 14297 07d0 06000000 		.4byte	.LVL285
 14298 07d4 14000000 		.4byte	.LFE291
 14299 07d8 0400     		.2byte	0x4
 14300 07da F3       		.byte	0xf3
 14301 07db 01       		.uleb128 0x1
 14302 07dc 51       		.byte	0x51
 14303 07dd 9F       		.byte	0x9f
 14304 07de 00000000 		.4byte	0
 14305 07e2 00000000 		.4byte	0
 14306              	.LLST144:
 14307 07e6 00000000 		.4byte	.LVL282
 14308 07ea 06000000 		.4byte	.LVL283
 14309 07ee 0100     		.2byte	0x1
 14310 07f0 51       		.byte	0x51
 14311 07f1 06000000 		.4byte	.LVL283
 14312 07f5 14000000 		.4byte	.LFE290
 14313 07f9 0400     		.2byte	0x4
 14314 07fb F3       		.byte	0xf3
 14315 07fc 01       		.uleb128 0x1
 14316 07fd 51       		.byte	0x51
 14317 07fe 9F       		.byte	0x9f
 14318 07ff 00000000 		.4byte	0
 14319 0803 00000000 		.4byte	0
 14320              	.LLST143:
 14321 0807 00000000 		.4byte	.LVL280
 14322 080b 06000000 		.4byte	.LVL281
 14323 080f 0100     		.2byte	0x1
 14324 0811 51       		.byte	0x51
 14325 0812 06000000 		.4byte	.LVL281
 14326 0816 14000000 		.4byte	.LFE289
 14327 081a 0400     		.2byte	0x4
 14328 081c F3       		.byte	0xf3
 14329 081d 01       		.uleb128 0x1
 14330 081e 51       		.byte	0x51
 14331 081f 9F       		.byte	0x9f
 14332 0820 00000000 		.4byte	0
 14333 0824 00000000 		.4byte	0
 14334              	.LLST142:
 14335 0828 00000000 		.4byte	.LVL278
 14336 082c 06000000 		.4byte	.LVL279
 14337 0830 0100     		.2byte	0x1
 14338 0832 51       		.byte	0x51
 14339 0833 06000000 		.4byte	.LVL279
 14340 0837 14000000 		.4byte	.LFE288
 14341 083b 0400     		.2byte	0x4
 14342 083d F3       		.byte	0xf3
 14343 083e 01       		.uleb128 0x1
 14344 083f 51       		.byte	0x51
 14345 0840 9F       		.byte	0x9f
 14346 0841 00000000 		.4byte	0
 14347 0845 00000000 		.4byte	0
 14348              	.LLST117:
 14349 0849 00000000 		.4byte	.LVL217
 14350 084d 0C000000 		.4byte	.LVL218
 14351 0851 0100     		.2byte	0x1
 14352 0853 50       		.byte	0x50
ARM GAS  /tmp/ccH4KobB.s 			page 253


 14353 0854 0C000000 		.4byte	.LVL218
 14354 0858 4C000000 		.4byte	.LFE285
 14355 085c 0400     		.2byte	0x4
 14356 085e F3       		.byte	0xf3
 14357 085f 01       		.uleb128 0x1
 14358 0860 50       		.byte	0x50
 14359 0861 9F       		.byte	0x9f
 14360 0862 00000000 		.4byte	0
 14361 0866 00000000 		.4byte	0
 14362              	.LLST118:
 14363 086a 00000000 		.4byte	.LVL217
 14364 086e 20000000 		.4byte	.LVL221
 14365 0872 0100     		.2byte	0x1
 14366 0874 51       		.byte	0x51
 14367 0875 20000000 		.4byte	.LVL221
 14368 0879 30000000 		.4byte	.LVL223
 14369 087d 0400     		.2byte	0x4
 14370 087f F3       		.byte	0xf3
 14371 0880 01       		.uleb128 0x1
 14372 0881 51       		.byte	0x51
 14373 0882 9F       		.byte	0x9f
 14374 0883 30000000 		.4byte	.LVL223
 14375 0887 4C000000 		.4byte	.LFE285
 14376 088b 0100     		.2byte	0x1
 14377 088d 51       		.byte	0x51
 14378 088e 00000000 		.4byte	0
 14379 0892 00000000 		.4byte	0
 14380              	.LLST119:
 14381 0896 0C000000 		.4byte	.LVL218
 14382 089a 16000000 		.4byte	.LVL219
 14383 089e 0100     		.2byte	0x1
 14384 08a0 50       		.byte	0x50
 14385 08a1 16000000 		.4byte	.LVL219
 14386 08a5 1A000000 		.4byte	.LVL220
 14387 08a9 0200     		.2byte	0x2
 14388 08ab 74       		.byte	0x74
 14389 08ac 14       		.sleb128 20
 14390 08ad 1A000000 		.4byte	.LVL220
 14391 08b1 20000000 		.4byte	.LVL221
 14392 08b5 0D00     		.2byte	0xd
 14393 08b7 71       		.byte	0x71
 14394 08b8 00       		.sleb128 0
 14395 08b9 32       		.byte	0x32
 14396 08ba 24       		.byte	0x24
 14397 08bb F3       		.byte	0xf3
 14398 08bc 01       		.uleb128 0x1
 14399 08bd 50       		.byte	0x50
 14400 08be 22       		.byte	0x22
 14401 08bf 23       		.byte	0x23
 14402 08c0 0C       		.uleb128 0xc
 14403 08c1 06       		.byte	0x6
 14404 08c2 23       		.byte	0x23
 14405 08c3 14       		.uleb128 0x14
 14406 08c4 30000000 		.4byte	.LVL223
 14407 08c8 4C000000 		.4byte	.LFE285
 14408 08cc 0100     		.2byte	0x1
 14409 08ce 50       		.byte	0x50
ARM GAS  /tmp/ccH4KobB.s 			page 254


 14410 08cf 00000000 		.4byte	0
 14411 08d3 00000000 		.4byte	0
 14412              	.LLST120:
 14413 08d7 16000000 		.4byte	.LVL219
 14414 08db 2A000000 		.4byte	.LVL222
 14415 08df 1100     		.2byte	0x11
 14416 08e1 70       		.byte	0x70
 14417 08e2 00       		.sleb128 0
 14418 08e3 73       		.byte	0x73
 14419 08e4 00       		.sleb128 0
 14420 08e5 22       		.byte	0x22
 14421 08e6 31       		.byte	0x31
 14422 08e7 1C       		.byte	0x1c
 14423 08e8 F7       		.byte	0xf7
 14424 08e9 25       		.uleb128 0x25
 14425 08ea 70       		.byte	0x70
 14426 08eb 00       		.sleb128 0
 14427 08ec F7       		.byte	0xf7
 14428 08ed 25       		.uleb128 0x25
 14429 08ee 1B       		.byte	0x1b
 14430 08ef F7       		.byte	0xf7
 14431 08f0 00       		.uleb128 0
 14432 08f1 9F       		.byte	0x9f
 14433 08f2 00000000 		.4byte	0
 14434 08f6 00000000 		.4byte	0
 14435              	.LLST105:
 14436 08fa 00000000 		.4byte	.LVL193
 14437 08fe 24000000 		.4byte	.LVL196
 14438 0902 0100     		.2byte	0x1
 14439 0904 50       		.byte	0x50
 14440 0905 24000000 		.4byte	.LVL196
 14441 0909 40000000 		.4byte	.LFE284
 14442 090d 0400     		.2byte	0x4
 14443 090f F3       		.byte	0xf3
 14444 0910 01       		.uleb128 0x1
 14445 0911 50       		.byte	0x50
 14446 0912 9F       		.byte	0x9f
 14447 0913 00000000 		.4byte	0
 14448 0917 00000000 		.4byte	0
 14449              	.LLST106:
 14450 091b 00000000 		.4byte	.LVL193
 14451 091f 2A000000 		.4byte	.LVL197
 14452 0923 0100     		.2byte	0x1
 14453 0925 51       		.byte	0x51
 14454 0926 2A000000 		.4byte	.LVL197
 14455 092a 40000000 		.4byte	.LFE284
 14456 092e 0400     		.2byte	0x4
 14457 0930 F3       		.byte	0xf3
 14458 0931 01       		.uleb128 0x1
 14459 0932 51       		.byte	0x51
 14460 0933 9F       		.byte	0x9f
 14461 0934 00000000 		.4byte	0
 14462 0938 00000000 		.4byte	0
 14463              	.LLST107:
 14464 093c 22000000 		.4byte	.LVL195
 14465 0940 3A000000 		.4byte	.LVL198
 14466 0944 1100     		.2byte	0x11
ARM GAS  /tmp/ccH4KobB.s 			page 255


 14467 0946 72       		.byte	0x72
 14468 0947 00       		.sleb128 0
 14469 0948 75       		.byte	0x75
 14470 0949 00       		.sleb128 0
 14471 094a 22       		.byte	0x22
 14472 094b 31       		.byte	0x31
 14473 094c 1C       		.byte	0x1c
 14474 094d F7       		.byte	0xf7
 14475 094e 25       		.uleb128 0x25
 14476 094f 75       		.byte	0x75
 14477 0950 00       		.sleb128 0
 14478 0951 F7       		.byte	0xf7
 14479 0952 25       		.uleb128 0x25
 14480 0953 1B       		.byte	0x1b
 14481 0954 F7       		.byte	0xf7
 14482 0955 00       		.uleb128 0
 14483 0956 9F       		.byte	0x9f
 14484 0957 00000000 		.4byte	0
 14485 095b 00000000 		.4byte	0
 14486              	.LLST108:
 14487 095f 0A000000 		.4byte	.LVL194
 14488 0963 22000000 		.4byte	.LVL195
 14489 0967 0100     		.2byte	0x1
 14490 0969 55       		.byte	0x55
 14491 096a 22000000 		.4byte	.LVL195
 14492 096e 3A000000 		.4byte	.LVL198
 14493 0972 0200     		.2byte	0x2
 14494 0974 76       		.byte	0x76
 14495 0975 18       		.sleb128 24
 14496 0976 00000000 		.4byte	0
 14497 097a 00000000 		.4byte	0
 14498              	.LLST104:
 14499 097e 00000000 		.4byte	.LVL191
 14500 0982 04000000 		.4byte	.LVL192
 14501 0986 0100     		.2byte	0x1
 14502 0988 51       		.byte	0x51
 14503 0989 04000000 		.4byte	.LVL192
 14504 098d 12000000 		.4byte	.LFE283
 14505 0991 0400     		.2byte	0x4
 14506 0993 F3       		.byte	0xf3
 14507 0994 01       		.uleb128 0x1
 14508 0995 51       		.byte	0x51
 14509 0996 9F       		.byte	0x9f
 14510 0997 00000000 		.4byte	0
 14511 099b 00000000 		.4byte	0
 14512              	.LLST102:
 14513 099f 00000000 		.4byte	.LVL187
 14514 09a3 0C000000 		.4byte	.LVL190
 14515 09a7 0100     		.2byte	0x1
 14516 09a9 50       		.byte	0x50
 14517 09aa 0C000000 		.4byte	.LVL190
 14518 09ae 1A000000 		.4byte	.LFE282
 14519 09b2 0400     		.2byte	0x4
 14520 09b4 F3       		.byte	0xf3
 14521 09b5 01       		.uleb128 0x1
 14522 09b6 50       		.byte	0x50
 14523 09b7 9F       		.byte	0x9f
ARM GAS  /tmp/ccH4KobB.s 			page 256


 14524 09b8 00000000 		.4byte	0
 14525 09bc 00000000 		.4byte	0
 14526              	.LLST103:
 14527 09c0 00000000 		.4byte	.LVL187
 14528 09c4 02000000 		.4byte	.LVL188
 14529 09c8 0100     		.2byte	0x1
 14530 09ca 51       		.byte	0x51
 14531 09cb 02000000 		.4byte	.LVL188
 14532 09cf 1A000000 		.4byte	.LFE282
 14533 09d3 0400     		.2byte	0x4
 14534 09d5 F3       		.byte	0xf3
 14535 09d6 01       		.uleb128 0x1
 14536 09d7 51       		.byte	0x51
 14537 09d8 9F       		.byte	0x9f
 14538 09d9 00000000 		.4byte	0
 14539 09dd 00000000 		.4byte	0
 14540              	.LLST100:
 14541 09e1 00000000 		.4byte	.LVL183
 14542 09e5 0C000000 		.4byte	.LVL186
 14543 09e9 0100     		.2byte	0x1
 14544 09eb 50       		.byte	0x50
 14545 09ec 0C000000 		.4byte	.LVL186
 14546 09f0 1A000000 		.4byte	.LFE281
 14547 09f4 0400     		.2byte	0x4
 14548 09f6 F3       		.byte	0xf3
 14549 09f7 01       		.uleb128 0x1
 14550 09f8 50       		.byte	0x50
 14551 09f9 9F       		.byte	0x9f
 14552 09fa 00000000 		.4byte	0
 14553 09fe 00000000 		.4byte	0
 14554              	.LLST101:
 14555 0a02 00000000 		.4byte	.LVL183
 14556 0a06 02000000 		.4byte	.LVL184
 14557 0a0a 0100     		.2byte	0x1
 14558 0a0c 51       		.byte	0x51
 14559 0a0d 02000000 		.4byte	.LVL184
 14560 0a11 1A000000 		.4byte	.LFE281
 14561 0a15 0400     		.2byte	0x4
 14562 0a17 F3       		.byte	0xf3
 14563 0a18 01       		.uleb128 0x1
 14564 0a19 51       		.byte	0x51
 14565 0a1a 9F       		.byte	0x9f
 14566 0a1b 00000000 		.4byte	0
 14567 0a1f 00000000 		.4byte	0
 14568              	.LLST99:
 14569 0a23 00000000 		.4byte	.LVL180
 14570 0a27 06000000 		.4byte	.LVL181
 14571 0a2b 0100     		.2byte	0x1
 14572 0a2d 50       		.byte	0x50
 14573 0a2e 06000000 		.4byte	.LVL181
 14574 0a32 0D000000 		.4byte	.LVL182-1
 14575 0a36 0100     		.2byte	0x1
 14576 0a38 53       		.byte	0x53
 14577 0a39 0D000000 		.4byte	.LVL182-1
 14578 0a3d 0E000000 		.4byte	.LFE280
 14579 0a41 0400     		.2byte	0x4
 14580 0a43 F3       		.byte	0xf3
ARM GAS  /tmp/ccH4KobB.s 			page 257


 14581 0a44 01       		.uleb128 0x1
 14582 0a45 50       		.byte	0x50
 14583 0a46 9F       		.byte	0x9f
 14584 0a47 00000000 		.4byte	0
 14585 0a4b 00000000 		.4byte	0
 14586              	.LLST83:
 14587 0a4f 00000000 		.4byte	.LVL161
 14588 0a53 BA000000 		.4byte	.LVL171
 14589 0a57 0100     		.2byte	0x1
 14590 0a59 50       		.byte	0x50
 14591 0a5a BA000000 		.4byte	.LVL171
 14592 0a5e E6000000 		.4byte	.LVL173
 14593 0a62 0400     		.2byte	0x4
 14594 0a64 F3       		.byte	0xf3
 14595 0a65 01       		.uleb128 0x1
 14596 0a66 50       		.byte	0x50
 14597 0a67 9F       		.byte	0x9f
 14598 0a68 E6000000 		.4byte	.LVL173
 14599 0a6c 1E010000 		.4byte	.LVL176
 14600 0a70 0100     		.2byte	0x1
 14601 0a72 50       		.byte	0x50
 14602 0a73 1E010000 		.4byte	.LVL176
 14603 0a77 44010000 		.4byte	.LVL178
 14604 0a7b 0400     		.2byte	0x4
 14605 0a7d F3       		.byte	0xf3
 14606 0a7e 01       		.uleb128 0x1
 14607 0a7f 50       		.byte	0x50
 14608 0a80 9F       		.byte	0x9f
 14609 0a81 44010000 		.4byte	.LVL178
 14610 0a85 64010000 		.4byte	.LFE279
 14611 0a89 0100     		.2byte	0x1
 14612 0a8b 50       		.byte	0x50
 14613 0a8c 00000000 		.4byte	0
 14614 0a90 00000000 		.4byte	0
 14615              	.LLST84:
 14616 0a94 00000000 		.4byte	.LVL161
 14617 0a98 26000000 		.4byte	.LVL163
 14618 0a9c 0100     		.2byte	0x1
 14619 0a9e 51       		.byte	0x51
 14620 0a9f 26000000 		.4byte	.LVL163
 14621 0aa3 44010000 		.4byte	.LVL178
 14622 0aa7 0400     		.2byte	0x4
 14623 0aa9 F3       		.byte	0xf3
 14624 0aaa 01       		.uleb128 0x1
 14625 0aab 51       		.byte	0x51
 14626 0aac 9F       		.byte	0x9f
 14627 0aad 44010000 		.4byte	.LVL178
 14628 0ab1 64010000 		.4byte	.LFE279
 14629 0ab5 0100     		.2byte	0x1
 14630 0ab7 51       		.byte	0x51
 14631 0ab8 00000000 		.4byte	0
 14632 0abc 00000000 		.4byte	0
 14633              	.LLST85:
 14634 0ac0 30000000 		.4byte	.LVL164
 14635 0ac4 44010000 		.4byte	.LVL178
 14636 0ac8 0100     		.2byte	0x1
 14637 0aca 59       		.byte	0x59
ARM GAS  /tmp/ccH4KobB.s 			page 258


 14638 0acb 44010000 		.4byte	.LVL178
 14639 0acf 4A010000 		.4byte	.LVL179
 14640 0ad3 0600     		.2byte	0x6
 14641 0ad5 0C       		.byte	0xc
 14642 0ad6 00800C10 		.4byte	0x100c8000
 14643 0ada 9F       		.byte	0x9f
 14644 0adb 4A010000 		.4byte	.LVL179
 14645 0adf 64010000 		.4byte	.LFE279
 14646 0ae3 0600     		.2byte	0x6
 14647 0ae5 0C       		.byte	0xc
 14648 0ae6 00800810 		.4byte	0x10088000
 14649 0aea 9F       		.byte	0x9f
 14650 0aeb 00000000 		.4byte	0
 14651 0aef 00000000 		.4byte	0
 14652              	.LLST86:
 14653 0af3 92000000 		.4byte	.LVL165
 14654 0af7 AA000000 		.4byte	.LVL167
 14655 0afb 0100     		.2byte	0x1
 14656 0afd 53       		.byte	0x53
 14657 0afe 00000000 		.4byte	0
 14658 0b02 00000000 		.4byte	0
 14659              	.LLST87:
 14660 0b06 0E000000 		.4byte	.LVL162
 14661 0b0a BA000000 		.4byte	.LVL171
 14662 0b0e 0300     		.2byte	0x3
 14663 0b10 70       		.byte	0x70
 14664 0b11 D000     		.sleb128 80
 14665 0b13 BA000000 		.4byte	.LVL171
 14666 0b17 BD000000 		.4byte	.LVL172-1
 14667 0b1b 0500     		.2byte	0x5
 14668 0b1d F3       		.byte	0xf3
 14669 0b1e 01       		.uleb128 0x1
 14670 0b1f 50       		.byte	0x50
 14671 0b20 23       		.byte	0x23
 14672 0b21 50       		.uleb128 0x50
 14673 0b22 E6000000 		.4byte	.LVL173
 14674 0b26 1E010000 		.4byte	.LVL176
 14675 0b2a 0300     		.2byte	0x3
 14676 0b2c 70       		.byte	0x70
 14677 0b2d D000     		.sleb128 80
 14678 0b2f 1E010000 		.4byte	.LVL176
 14679 0b33 21010000 		.4byte	.LVL177-1
 14680 0b37 0500     		.2byte	0x5
 14681 0b39 F3       		.byte	0xf3
 14682 0b3a 01       		.uleb128 0x1
 14683 0b3b 50       		.byte	0x50
 14684 0b3c 23       		.byte	0x23
 14685 0b3d 50       		.uleb128 0x50
 14686 0b3e 44010000 		.4byte	.LVL178
 14687 0b42 64010000 		.4byte	.LFE279
 14688 0b46 0300     		.2byte	0x3
 14689 0b48 70       		.byte	0x70
 14690 0b49 D000     		.sleb128 80
 14691 0b4b 00000000 		.4byte	0
 14692 0b4f 00000000 		.4byte	0
 14693              	.LLST88:
 14694 0b53 9E000000 		.4byte	.LVL166
ARM GAS  /tmp/ccH4KobB.s 			page 259


 14695 0b57 BA000000 		.4byte	.LVL171
 14696 0b5b 0100     		.2byte	0x1
 14697 0b5d 50       		.byte	0x50
 14698 0b5e BA000000 		.4byte	.LVL171
 14699 0b62 E6000000 		.4byte	.LVL173
 14700 0b66 0400     		.2byte	0x4
 14701 0b68 F3       		.byte	0xf3
 14702 0b69 01       		.uleb128 0x1
 14703 0b6a 50       		.byte	0x50
 14704 0b6b 9F       		.byte	0x9f
 14705 0b6c 00000000 		.4byte	0
 14706 0b70 00000000 		.4byte	0
 14707              	.LLST89:
 14708 0b74 9E000000 		.4byte	.LVL166
 14709 0b78 AA000000 		.4byte	.LVL167
 14710 0b7c 0100     		.2byte	0x1
 14711 0b7e 53       		.byte	0x53
 14712 0b7f 00000000 		.4byte	0
 14713 0b83 00000000 		.4byte	0
 14714              	.LLST90:
 14715 0b87 9E000000 		.4byte	.LVL166
 14716 0b8b AE000000 		.4byte	.LVL168
 14717 0b8f 0100     		.2byte	0x1
 14718 0b91 56       		.byte	0x56
 14719 0b92 00000000 		.4byte	0
 14720 0b96 00000000 		.4byte	0
 14721              	.LLST91:
 14722 0b9a B0000000 		.4byte	.LVL169
 14723 0b9e BA000000 		.4byte	.LVL171
 14724 0ba2 0100     		.2byte	0x1
 14725 0ba4 50       		.byte	0x50
 14726 0ba5 BA000000 		.4byte	.LVL171
 14727 0ba9 E6000000 		.4byte	.LVL173
 14728 0bad 0400     		.2byte	0x4
 14729 0baf F3       		.byte	0xf3
 14730 0bb0 01       		.uleb128 0x1
 14731 0bb1 50       		.byte	0x50
 14732 0bb2 9F       		.byte	0x9f
 14733 0bb3 00000000 		.4byte	0
 14734 0bb7 00000000 		.4byte	0
 14735              	.LLST92:
 14736 0bbb B0000000 		.4byte	.LVL169
 14737 0bbf BE000000 		.4byte	.LVL172
 14738 0bc3 0600     		.2byte	0x6
 14739 0bc5 75       		.byte	0x75
 14740 0bc6 00       		.sleb128 0
 14741 0bc7 08       		.byte	0x8
 14742 0bc8 FF       		.byte	0xff
 14743 0bc9 1A       		.byte	0x1a
 14744 0bca 9F       		.byte	0x9f
 14745 0bcb 00000000 		.4byte	0
 14746 0bcf 00000000 		.4byte	0
 14747              	.LLST93:
 14748 0bd3 B0000000 		.4byte	.LVL169
 14749 0bd7 BA000000 		.4byte	.LVL171
 14750 0bdb 0300     		.2byte	0x3
 14751 0bdd 70       		.byte	0x70
ARM GAS  /tmp/ccH4KobB.s 			page 260


 14752 0bde D000     		.sleb128 80
 14753 0be0 BA000000 		.4byte	.LVL171
 14754 0be4 BD000000 		.4byte	.LVL172-1
 14755 0be8 0500     		.2byte	0x5
 14756 0bea F3       		.byte	0xf3
 14757 0beb 01       		.uleb128 0x1
 14758 0bec 50       		.byte	0x50
 14759 0bed 23       		.byte	0x23
 14760 0bee 50       		.uleb128 0x50
 14761 0bef 00000000 		.4byte	0
 14762 0bf3 00000000 		.4byte	0
 14763              	.LLST94:
 14764 0bf7 B8000000 		.4byte	.LVL170
 14765 0bfb BE000000 		.4byte	.LVL172
 14766 0bff 0200     		.2byte	0x2
 14767 0c01 3C       		.byte	0x3c
 14768 0c02 9F       		.byte	0x9f
 14769 0c03 00000000 		.4byte	0
 14770 0c07 00000000 		.4byte	0
 14771              	.LLST95:
 14772 0c0b 10010000 		.4byte	.LVL174
 14773 0c0f 1E010000 		.4byte	.LVL176
 14774 0c13 0100     		.2byte	0x1
 14775 0c15 50       		.byte	0x50
 14776 0c16 1E010000 		.4byte	.LVL176
 14777 0c1a 44010000 		.4byte	.LVL178
 14778 0c1e 0400     		.2byte	0x4
 14779 0c20 F3       		.byte	0xf3
 14780 0c21 01       		.uleb128 0x1
 14781 0c22 50       		.byte	0x50
 14782 0c23 9F       		.byte	0x9f
 14783 0c24 00000000 		.4byte	0
 14784 0c28 00000000 		.4byte	0
 14785              	.LLST96:
 14786 0c2c 10010000 		.4byte	.LVL174
 14787 0c30 22010000 		.4byte	.LVL177
 14788 0c34 0600     		.2byte	0x6
 14789 0c36 75       		.byte	0x75
 14790 0c37 00       		.sleb128 0
 14791 0c38 08       		.byte	0x8
 14792 0c39 FF       		.byte	0xff
 14793 0c3a 1A       		.byte	0x1a
 14794 0c3b 9F       		.byte	0x9f
 14795 0c3c 00000000 		.4byte	0
 14796 0c40 00000000 		.4byte	0
 14797              	.LLST97:
 14798 0c44 10010000 		.4byte	.LVL174
 14799 0c48 1E010000 		.4byte	.LVL176
 14800 0c4c 0300     		.2byte	0x3
 14801 0c4e 70       		.byte	0x70
 14802 0c4f D000     		.sleb128 80
 14803 0c51 1E010000 		.4byte	.LVL176
 14804 0c55 21010000 		.4byte	.LVL177-1
 14805 0c59 0500     		.2byte	0x5
 14806 0c5b F3       		.byte	0xf3
 14807 0c5c 01       		.uleb128 0x1
 14808 0c5d 50       		.byte	0x50
ARM GAS  /tmp/ccH4KobB.s 			page 261


 14809 0c5e 23       		.byte	0x23
 14810 0c5f 50       		.uleb128 0x50
 14811 0c60 00000000 		.4byte	0
 14812 0c64 00000000 		.4byte	0
 14813              	.LLST98:
 14814 0c68 18010000 		.4byte	.LVL175
 14815 0c6c 22010000 		.4byte	.LVL177
 14816 0c70 0200     		.2byte	0x2
 14817 0c72 3C       		.byte	0x3c
 14818 0c73 9F       		.byte	0x9f
 14819 0c74 00000000 		.4byte	0
 14820 0c78 00000000 		.4byte	0
 14821              	.LLST68:
 14822 0c7c 00000000 		.4byte	.LVL141
 14823 0c80 14000000 		.4byte	.LVL145
 14824 0c84 0100     		.2byte	0x1
 14825 0c86 50       		.byte	0x50
 14826 0c87 14000000 		.4byte	.LVL145
 14827 0c8b B4000000 		.4byte	.LVL158
 14828 0c8f 0100     		.2byte	0x1
 14829 0c91 56       		.byte	0x56
 14830 0c92 B4000000 		.4byte	.LVL158
 14831 0c96 BC000000 		.4byte	.LFE277
 14832 0c9a 0400     		.2byte	0x4
 14833 0c9c F3       		.byte	0xf3
 14834 0c9d 01       		.uleb128 0x1
 14835 0c9e 50       		.byte	0x50
 14836 0c9f 9F       		.byte	0x9f
 14837 0ca0 00000000 		.4byte	0
 14838 0ca4 00000000 		.4byte	0
 14839              	.LLST69:
 14840 0ca8 18000000 		.4byte	.LVL146
 14841 0cac 26000000 		.4byte	.LVL147
 14842 0cb0 0200     		.2byte	0x2
 14843 0cb2 30       		.byte	0x30
 14844 0cb3 9F       		.byte	0x9f
 14845 0cb4 26000000 		.4byte	.LVL147
 14846 0cb8 42000000 		.4byte	.LVL149
 14847 0cbc 0100     		.2byte	0x1
 14848 0cbe 53       		.byte	0x53
 14849 0cbf 00000000 		.4byte	0
 14850 0cc3 00000000 		.4byte	0
 14851              	.LLST70:
 14852 0cc7 04000000 		.4byte	.LVL142
 14853 0ccb B4000000 		.4byte	.LVL158
 14854 0ccf 0100     		.2byte	0x1
 14855 0cd1 55       		.byte	0x55
 14856 0cd2 00000000 		.4byte	0
 14857 0cd6 00000000 		.4byte	0
 14858              	.LLST71:
 14859 0cda 08000000 		.4byte	.LVL143
 14860 0cde 14000000 		.4byte	.LVL145
 14861 0ce2 0100     		.2byte	0x1
 14862 0ce4 50       		.byte	0x50
 14863 0ce5 14000000 		.4byte	.LVL145
 14864 0ce9 B4000000 		.4byte	.LVL158
 14865 0ced 0100     		.2byte	0x1
ARM GAS  /tmp/ccH4KobB.s 			page 262


 14866 0cef 56       		.byte	0x56
 14867 0cf0 B4000000 		.4byte	.LVL158
 14868 0cf4 BC000000 		.4byte	.LFE277
 14869 0cf8 0400     		.2byte	0x4
 14870 0cfa F3       		.byte	0xf3
 14871 0cfb 01       		.uleb128 0x1
 14872 0cfc 50       		.byte	0x50
 14873 0cfd 9F       		.byte	0x9f
 14874 0cfe 00000000 		.4byte	0
 14875 0d02 00000000 		.4byte	0
 14876              	.LLST72:
 14877 0d06 08000000 		.4byte	.LVL143
 14878 0d0a 18000000 		.4byte	.LVL146
 14879 0d0e 0200     		.2byte	0x2
 14880 0d10 30       		.byte	0x30
 14881 0d11 9F       		.byte	0x9f
 14882 0d12 00000000 		.4byte	0
 14883 0d16 00000000 		.4byte	0
 14884              	.LLST73:
 14885 0d1a 08000000 		.4byte	.LVL143
 14886 0d1e 18000000 		.4byte	.LVL146
 14887 0d22 0100     		.2byte	0x1
 14888 0d24 55       		.byte	0x55
 14889 0d25 00000000 		.4byte	0
 14890 0d29 00000000 		.4byte	0
 14891              	.LLST74:
 14892 0d2d 12000000 		.4byte	.LVL144
 14893 0d31 18000000 		.4byte	.LVL146
 14894 0d35 0200     		.2byte	0x2
 14895 0d37 3C       		.byte	0x3c
 14896 0d38 9F       		.byte	0x9f
 14897 0d39 00000000 		.4byte	0
 14898 0d3d 00000000 		.4byte	0
 14899              	.LLST75:
 14900 0d41 52000000 		.4byte	.LVL150
 14901 0d45 B4000000 		.4byte	.LVL158
 14902 0d49 0100     		.2byte	0x1
 14903 0d4b 56       		.byte	0x56
 14904 0d4c B4000000 		.4byte	.LVL158
 14905 0d50 BC000000 		.4byte	.LFE277
 14906 0d54 0400     		.2byte	0x4
 14907 0d56 F3       		.byte	0xf3
 14908 0d57 01       		.uleb128 0x1
 14909 0d58 50       		.byte	0x50
 14910 0d59 9F       		.byte	0x9f
 14911 0d5a 00000000 		.4byte	0
 14912 0d5e 00000000 		.4byte	0
 14913              	.LLST76:
 14914 0d62 52000000 		.4byte	.LVL150
 14915 0d66 B4000000 		.4byte	.LVL158
 14916 0d6a 0100     		.2byte	0x1
 14917 0d6c 56       		.byte	0x56
 14918 0d6d B4000000 		.4byte	.LVL158
 14919 0d71 BC000000 		.4byte	.LFE277
 14920 0d75 0400     		.2byte	0x4
 14921 0d77 F3       		.byte	0xf3
 14922 0d78 01       		.uleb128 0x1
ARM GAS  /tmp/ccH4KobB.s 			page 263


 14923 0d79 50       		.byte	0x50
 14924 0d7a 9F       		.byte	0x9f
 14925 0d7b 00000000 		.4byte	0
 14926 0d7f 00000000 		.4byte	0
 14927              	.LLST77:
 14928 0d83 58000000 		.4byte	.LVL151
 14929 0d87 B4000000 		.4byte	.LVL158
 14930 0d8b 0100     		.2byte	0x1
 14931 0d8d 56       		.byte	0x56
 14932 0d8e B4000000 		.4byte	.LVL158
 14933 0d92 BC000000 		.4byte	.LFE277
 14934 0d96 0400     		.2byte	0x4
 14935 0d98 F3       		.byte	0xf3
 14936 0d99 01       		.uleb128 0x1
 14937 0d9a 50       		.byte	0x50
 14938 0d9b 9F       		.byte	0x9f
 14939 0d9c 00000000 		.4byte	0
 14940 0da0 00000000 		.4byte	0
 14941              	.LLST78:
 14942 0da4 58000000 		.4byte	.LVL151
 14943 0da8 6B000000 		.4byte	.LVL153-1
 14944 0dac 0100     		.2byte	0x1
 14945 0dae 52       		.byte	0x52
 14946 0daf 00000000 		.4byte	0
 14947 0db3 00000000 		.4byte	0
 14948              	.LLST79:
 14949 0db7 66000000 		.4byte	.LVL152
 14950 0dbb 6C000000 		.4byte	.LVL153
 14951 0dbf 0200     		.2byte	0x2
 14952 0dc1 3C       		.byte	0x3c
 14953 0dc2 9F       		.byte	0x9f
 14954 0dc3 00000000 		.4byte	0
 14955 0dc7 00000000 		.4byte	0
 14956              	.LLST80:
 14957 0dcb A4000000 		.4byte	.LVL154
 14958 0dcf B4000000 		.4byte	.LVL158
 14959 0dd3 0100     		.2byte	0x1
 14960 0dd5 56       		.byte	0x56
 14961 0dd6 B4000000 		.4byte	.LVL158
 14962 0dda BC000000 		.4byte	.LFE277
 14963 0dde 0400     		.2byte	0x4
 14964 0de0 F3       		.byte	0xf3
 14965 0de1 01       		.uleb128 0x1
 14966 0de2 50       		.byte	0x50
 14967 0de3 9F       		.byte	0x9f
 14968 0de4 00000000 		.4byte	0
 14969 0de8 00000000 		.4byte	0
 14970              	.LLST81:
 14971 0dec A4000000 		.4byte	.LVL154
 14972 0df0 B0000000 		.4byte	.LVL157
 14973 0df4 0200     		.2byte	0x2
 14974 0df6 40       		.byte	0x40
 14975 0df7 9F       		.byte	0x9f
 14976 0df8 00000000 		.4byte	0
 14977 0dfc 00000000 		.4byte	0
 14978              	.LLST82:
 14979 0e00 A6000000 		.4byte	.LVL155
ARM GAS  /tmp/ccH4KobB.s 			page 264


 14980 0e04 AE000000 		.4byte	.LVL156
 14981 0e08 0100     		.2byte	0x1
 14982 0e0a 53       		.byte	0x53
 14983 0e0b AE000000 		.4byte	.LVL156
 14984 0e0f B0000000 		.4byte	.LVL157
 14985 0e13 0300     		.2byte	0x3
 14986 0e15 76       		.byte	0x76
 14987 0e16 D800     		.sleb128 88
 14988 0e18 00000000 		.4byte	0
 14989 0e1c 00000000 		.4byte	0
 14990              	.LLST66:
 14991 0e20 00000000 		.4byte	.LVL134
 14992 0e24 10000000 		.4byte	.LVL135
 14993 0e28 0100     		.2byte	0x1
 14994 0e2a 50       		.byte	0x50
 14995 0e2b 10000000 		.4byte	.LVL135
 14996 0e2f 26000000 		.4byte	.LVL137
 14997 0e33 0100     		.2byte	0x1
 14998 0e35 54       		.byte	0x54
 14999 0e36 26000000 		.4byte	.LVL137
 15000 0e3a 28000000 		.4byte	.LVL138
 15001 0e3e 0400     		.2byte	0x4
 15002 0e40 F3       		.byte	0xf3
 15003 0e41 01       		.uleb128 0x1
 15004 0e42 50       		.byte	0x50
 15005 0e43 9F       		.byte	0x9f
 15006 0e44 28000000 		.4byte	.LVL138
 15007 0e48 3A000000 		.4byte	.LVL140
 15008 0e4c 0100     		.2byte	0x1
 15009 0e4e 54       		.byte	0x54
 15010 0e4f 3A000000 		.4byte	.LVL140
 15011 0e53 44000000 		.4byte	.LFE276
 15012 0e57 0400     		.2byte	0x4
 15013 0e59 F3       		.byte	0xf3
 15014 0e5a 01       		.uleb128 0x1
 15015 0e5b 50       		.byte	0x50
 15016 0e5c 9F       		.byte	0x9f
 15017 0e5d 00000000 		.4byte	0
 15018 0e61 00000000 		.4byte	0
 15019              	.LLST67:
 15020 0e65 00000000 		.4byte	.LVL134
 15021 0e69 10000000 		.4byte	.LVL135
 15022 0e6d 0300     		.2byte	0x3
 15023 0e6f 70       		.byte	0x70
 15024 0e70 D000     		.sleb128 80
 15025 0e72 10000000 		.4byte	.LVL135
 15026 0e76 13000000 		.4byte	.LVL136-1
 15027 0e7a 0300     		.2byte	0x3
 15028 0e7c 74       		.byte	0x74
 15029 0e7d D000     		.sleb128 80
 15030 0e7f 00000000 		.4byte	0
 15031 0e83 00000000 		.4byte	0
 15032              	.LLST59:
 15033 0e87 00000000 		.4byte	.LVL118
 15034 0e8b 18000000 		.4byte	.LVL119
 15035 0e8f 0100     		.2byte	0x1
 15036 0e91 50       		.byte	0x50
ARM GAS  /tmp/ccH4KobB.s 			page 265


 15037 0e92 18000000 		.4byte	.LVL119
 15038 0e96 8E000000 		.4byte	.LVL126
 15039 0e9a 0100     		.2byte	0x1
 15040 0e9c 55       		.byte	0x55
 15041 0e9d 8E000000 		.4byte	.LVL126
 15042 0ea1 9C000000 		.4byte	.LVL127
 15043 0ea5 0100     		.2byte	0x1
 15044 0ea7 50       		.byte	0x50
 15045 0ea8 9C000000 		.4byte	.LVL127
 15046 0eac E4000000 		.4byte	.LFE275
 15047 0eb0 0100     		.2byte	0x1
 15048 0eb2 55       		.byte	0x55
 15049 0eb3 00000000 		.4byte	0
 15050 0eb7 00000000 		.4byte	0
 15051              	.LLST60:
 15052 0ebb 00000000 		.4byte	.LVL118
 15053 0ebf 18000000 		.4byte	.LVL119
 15054 0ec3 0300     		.2byte	0x3
 15055 0ec5 70       		.byte	0x70
 15056 0ec6 D000     		.sleb128 80
 15057 0ec8 8E000000 		.4byte	.LVL126
 15058 0ecc 9C000000 		.4byte	.LVL127
 15059 0ed0 0300     		.2byte	0x3
 15060 0ed2 70       		.byte	0x70
 15061 0ed3 D000     		.sleb128 80
 15062 0ed5 9C000000 		.4byte	.LVL127
 15063 0ed9 AB000000 		.4byte	.LVL128-1
 15064 0edd 0300     		.2byte	0x3
 15065 0edf 75       		.byte	0x75
 15066 0ee0 D000     		.sleb128 80
 15067 0ee2 00000000 		.4byte	0
 15068 0ee6 00000000 		.4byte	0
 15069              	.LLST61:
 15070 0eea 32000000 		.4byte	.LVL120
 15071 0eee 8E000000 		.4byte	.LVL126
 15072 0ef2 0100     		.2byte	0x1
 15073 0ef4 55       		.byte	0x55
 15074 0ef5 B0000000 		.4byte	.LVL129
 15075 0ef9 E4000000 		.4byte	.LFE275
 15076 0efd 0100     		.2byte	0x1
 15077 0eff 55       		.byte	0x55
 15078 0f00 00000000 		.4byte	0
 15079 0f04 00000000 		.4byte	0
 15080              	.LLST62:
 15081 0f08 32000000 		.4byte	.LVL120
 15082 0f0c 35000000 		.4byte	.LVL121-1
 15083 0f10 0300     		.2byte	0x3
 15084 0f12 75       		.byte	0x75
 15085 0f13 D000     		.sleb128 80
 15086 0f15 00000000 		.4byte	0
 15087 0f19 00000000 		.4byte	0
 15088              	.LLST63:
 15089 0f1d 32000000 		.4byte	.LVL120
 15090 0f21 36000000 		.4byte	.LVL121
 15091 0f25 0300     		.2byte	0x3
 15092 0f27 08       		.byte	0x8
 15093 0f28 20       		.byte	0x20
ARM GAS  /tmp/ccH4KobB.s 			page 266


 15094 0f29 9F       		.byte	0x9f
 15095 0f2a 00000000 		.4byte	0
 15096 0f2e 00000000 		.4byte	0
 15097              	.LLST64:
 15098 0f32 40000000 		.4byte	.LVL122
 15099 0f36 8E000000 		.4byte	.LVL126
 15100 0f3a 0200     		.2byte	0x2
 15101 0f3c 3C       		.byte	0x3c
 15102 0f3d 9F       		.byte	0x9f
 15103 0f3e B0000000 		.4byte	.LVL129
 15104 0f42 E4000000 		.4byte	.LFE275
 15105 0f46 0200     		.2byte	0x2
 15106 0f48 3C       		.byte	0x3c
 15107 0f49 9F       		.byte	0x9f
 15108 0f4a 00000000 		.4byte	0
 15109 0f4e 00000000 		.4byte	0
 15110              	.LLST65:
 15111 0f52 C4000000 		.4byte	.LVL131
 15112 0f56 C7000000 		.4byte	.LVL132-1
 15113 0f5a 0100     		.2byte	0x1
 15114 0f5c 50       		.byte	0x50
 15115 0f5d 00000000 		.4byte	0
 15116 0f61 00000000 		.4byte	0
 15117              	.LLST131:
 15118 0f65 00000000 		.4byte	.LVL242
 15119 0f69 58000000 		.4byte	.LVL250
 15120 0f6d 0600     		.2byte	0x6
 15121 0f6f 03       		.byte	0x3
 15122 0f70 00000000 		.4byte	USBD1
 15123 0f74 9F       		.byte	0x9f
 15124 0f75 60000000 		.4byte	.LVL251
 15125 0f79 9A000000 		.4byte	.LVL260
 15126 0f7d 0600     		.2byte	0x6
 15127 0f7f 03       		.byte	0x3
 15128 0f80 00000000 		.4byte	USBD1
 15129 0f84 9F       		.byte	0x9f
 15130 0f85 A2000000 		.4byte	.LVL261
 15131 0f89 F4000000 		.4byte	.LFE273
 15132 0f8d 0600     		.2byte	0x6
 15133 0f8f 03       		.byte	0x3
 15134 0f90 00000000 		.4byte	USBD1
 15135 0f94 9F       		.byte	0x9f
 15136 0f95 00000000 		.4byte	0
 15137 0f99 00000000 		.4byte	0
 15138              	.LLST132:
 15139 0f9d 06000000 		.4byte	.LVL243
 15140 0fa1 42000000 		.4byte	.LVL248
 15141 0fa5 0100     		.2byte	0x1
 15142 0fa7 56       		.byte	0x56
 15143 0fa8 60000000 		.4byte	.LVL251
 15144 0fac 94000000 		.4byte	.LVL259
 15145 0fb0 0100     		.2byte	0x1
 15146 0fb2 56       		.byte	0x56
 15147 0fb3 C2000000 		.4byte	.LVL265
 15148 0fb7 D4000000 		.4byte	.LVL268
 15149 0fbb 0100     		.2byte	0x1
 15150 0fbd 56       		.byte	0x56
ARM GAS  /tmp/ccH4KobB.s 			page 267


 15151 0fbe D8000000 		.4byte	.LVL269
 15152 0fc2 E4000000 		.4byte	.LVL271
 15153 0fc6 0100     		.2byte	0x1
 15154 0fc8 56       		.byte	0x56
 15155 0fc9 00000000 		.4byte	0
 15156 0fcd 00000000 		.4byte	0
 15157              	.LLST133:
 15158 0fd1 08000000 		.4byte	.LVL244
 15159 0fd5 46000000 		.4byte	.LVL249
 15160 0fd9 0100     		.2byte	0x1
 15161 0fdb 54       		.byte	0x54
 15162 0fdc 60000000 		.4byte	.LVL251
 15163 0fe0 94000000 		.4byte	.LVL259
 15164 0fe4 0100     		.2byte	0x1
 15165 0fe6 54       		.byte	0x54
 15166 0fe7 C2000000 		.4byte	.LVL265
 15167 0feb F4000000 		.4byte	.LFE273
 15168 0fef 0100     		.2byte	0x1
 15169 0ff1 54       		.byte	0x54
 15170 0ff2 00000000 		.4byte	0
 15171 0ff6 00000000 		.4byte	0
 15172              	.LLST134:
 15173 0ffa 32000000 		.4byte	.LVL247
 15174 0ffe 58000000 		.4byte	.LVL250
 15175 1002 0100     		.2byte	0x1
 15176 1004 55       		.byte	0x55
 15177 1005 94000000 		.4byte	.LVL259
 15178 1009 9A000000 		.4byte	.LVL260
 15179 100d 0100     		.2byte	0x1
 15180 100f 55       		.byte	0x55
 15181 1010 A2000000 		.4byte	.LVL261
 15182 1014 F4000000 		.4byte	.LFE273
 15183 1018 0100     		.2byte	0x1
 15184 101a 55       		.byte	0x55
 15185 101b 00000000 		.4byte	0
 15186 101f 00000000 		.4byte	0
 15187              	.LLST135:
 15188 1023 76000000 		.4byte	.LVL254
 15189 1027 7C000000 		.4byte	.LVL255
 15190 102b 0300     		.2byte	0x3
 15191 102d 08       		.byte	0x8
 15192 102e 20       		.byte	0x20
 15193 102f 9F       		.byte	0x9f
 15194 1030 00000000 		.4byte	0
 15195 1034 00000000 		.4byte	0
 15196              	.LLST136:
 15197 1038 86000000 		.4byte	.LVL256
 15198 103c 8C000000 		.4byte	.LVL257
 15199 1040 0200     		.2byte	0x2
 15200 1042 30       		.byte	0x30
 15201 1043 9F       		.byte	0x9f
 15202 1044 00000000 		.4byte	0
 15203 1048 00000000 		.4byte	0
 15204              	.LLST137:
 15205 104c 86000000 		.4byte	.LVL256
 15206 1050 8C000000 		.4byte	.LVL257
 15207 1054 0600     		.2byte	0x6
ARM GAS  /tmp/ccH4KobB.s 			page 268


 15208 1056 03       		.byte	0x3
 15209 1057 60000000 		.4byte	USBD1+96
 15210 105b 9F       		.byte	0x9f
 15211 105c 00000000 		.4byte	0
 15212 1060 00000000 		.4byte	0
 15213              	.LLST138:
 15214 1064 8C000000 		.4byte	.LVL257
 15215 1068 92000000 		.4byte	.LVL258
 15216 106c 0200     		.2byte	0x2
 15217 106e 30       		.byte	0x30
 15218 106f 9F       		.byte	0x9f
 15219 1070 00000000 		.4byte	0
 15220 1074 00000000 		.4byte	0
 15221              	.LLST58:
 15222 1078 00000000 		.4byte	.LVL113
 15223 107c 16000000 		.4byte	.LVL114
 15224 1080 0200     		.2byte	0x2
 15225 1082 30       		.byte	0x30
 15226 1083 9F       		.byte	0x9f
 15227 1084 16000000 		.4byte	.LVL114
 15228 1088 74000000 		.4byte	.LFE293
 15229 108c 0100     		.2byte	0x1
 15230 108e 54       		.byte	0x54
 15231 108f 00000000 		.4byte	0
 15232 1093 00000000 		.4byte	0
 15233              	.LLST109:
 15234 1097 00000000 		.4byte	.LVL199
 15235 109b 18000000 		.4byte	.LVL202
 15236 109f 0100     		.2byte	0x1
 15237 10a1 50       		.byte	0x50
 15238 10a2 18000000 		.4byte	.LVL202
 15239 10a6 9C000000 		.4byte	.LFE300
 15240 10aa 0400     		.2byte	0x4
 15241 10ac F3       		.byte	0xf3
 15242 10ad 01       		.uleb128 0x1
 15243 10ae 50       		.byte	0x50
 15244 10af 9F       		.byte	0x9f
 15245 10b0 00000000 		.4byte	0
 15246 10b4 00000000 		.4byte	0
 15247              	.LLST110:
 15248 10b8 08000000 		.4byte	.LVL200
 15249 10bc 64000000 		.4byte	.LVL208
 15250 10c0 0100     		.2byte	0x1
 15251 10c2 57       		.byte	0x57
 15252 10c3 66000000 		.4byte	.LVL209
 15253 10c7 96000000 		.4byte	.LVL216
 15254 10cb 0100     		.2byte	0x1
 15255 10cd 57       		.byte	0x57
 15256 10ce 00000000 		.4byte	0
 15257 10d2 00000000 		.4byte	0
 15258              	.LLST111:
 15259 10d6 12000000 		.4byte	.LVL201
 15260 10da 50000000 		.4byte	.LVL206
 15261 10de 0100     		.2byte	0x1
 15262 10e0 54       		.byte	0x54
 15263 10e1 66000000 		.4byte	.LVL209
 15264 10e5 6A000000 		.4byte	.LVL210
ARM GAS  /tmp/ccH4KobB.s 			page 269


 15265 10e9 0100     		.2byte	0x1
 15266 10eb 54       		.byte	0x54
 15267 10ec 00000000 		.4byte	0
 15268 10f0 00000000 		.4byte	0
 15269              	.LLST112:
 15270 10f4 44000000 		.4byte	.LVL204
 15271 10f8 4E000000 		.4byte	.LVL205
 15272 10fc 0100     		.2byte	0x1
 15273 10fe 53       		.byte	0x53
 15274 10ff 4E000000 		.4byte	.LVL205
 15275 1103 5E000000 		.4byte	.LVL207
 15276 1107 0200     		.2byte	0x2
 15277 1109 71       		.byte	0x71
 15278 110a 18       		.sleb128 24
 15279 110b 5E000000 		.4byte	.LVL207
 15280 110f 64000000 		.4byte	.LVL208
 15281 1113 0C00     		.2byte	0xc
 15282 1115 71       		.byte	0x71
 15283 1116 00       		.sleb128 0
 15284 1117 32       		.byte	0x32
 15285 1118 24       		.byte	0x24
 15286 1119 76       		.byte	0x76
 15287 111a 00       		.sleb128 0
 15288 111b 22       		.byte	0x22
 15289 111c 23       		.byte	0x23
 15290 111d 0C       		.uleb128 0xc
 15291 111e 06       		.byte	0x6
 15292 111f 23       		.byte	0x23
 15293 1120 18       		.uleb128 0x18
 15294 1121 64000000 		.4byte	.LVL208
 15295 1125 65000000 		.4byte	.LVL209-1
 15296 1129 0C00     		.2byte	0xc
 15297 112b 71       		.byte	0x71
 15298 112c 00       		.sleb128 0
 15299 112d 32       		.byte	0x32
 15300 112e 24       		.byte	0x24
 15301 112f 70       		.byte	0x70
 15302 1130 00       		.sleb128 0
 15303 1131 22       		.byte	0x22
 15304 1132 23       		.byte	0x23
 15305 1133 0C       		.uleb128 0xc
 15306 1134 06       		.byte	0x6
 15307 1135 23       		.byte	0x23
 15308 1136 18       		.uleb128 0x18
 15309 1137 66000000 		.4byte	.LVL209
 15310 113b 75000000 		.4byte	.LVL211-1
 15311 113f 0100     		.2byte	0x1
 15312 1141 53       		.byte	0x53
 15313 1142 00000000 		.4byte	0
 15314 1146 00000000 		.4byte	0
 15315              	.LLST113:
 15316 114a 76000000 		.4byte	.LVL211
 15317 114e 7C000000 		.4byte	.LVL212
 15318 1152 0300     		.2byte	0x3
 15319 1154 08       		.byte	0x8
 15320 1155 20       		.byte	0x20
 15321 1156 9F       		.byte	0x9f
ARM GAS  /tmp/ccH4KobB.s 			page 270


 15322 1157 00000000 		.4byte	0
 15323 115b 00000000 		.4byte	0
 15324              	.LLST114:
 15325 115f 7C000000 		.4byte	.LVL212
 15326 1163 82000000 		.4byte	.LVL213
 15327 1167 0100     		.2byte	0x1
 15328 1169 55       		.byte	0x55
 15329 116a 00000000 		.4byte	0
 15330 116e 00000000 		.4byte	0
 15331              	.LLST115:
 15332 1172 7C000000 		.4byte	.LVL212
 15333 1176 8E000000 		.4byte	.LVL214
 15334 117a 0600     		.2byte	0x6
 15335 117c 03       		.byte	0x3
 15336 117d 00000000 		.4byte	USBD1
 15337 1181 9F       		.byte	0x9f
 15338 1182 00000000 		.4byte	0
 15339 1186 00000000 		.4byte	0
 15340              	.LLST116:
 15341 118a 8E000000 		.4byte	.LVL214
 15342 118e 92000000 		.4byte	.LVL215
 15343 1192 0200     		.2byte	0x2
 15344 1194 30       		.byte	0x30
 15345 1195 9F       		.byte	0x9f
 15346 1196 00000000 		.4byte	0
 15347 119a 00000000 		.4byte	0
 15348              	.LLST121:
 15349 119e 00000000 		.4byte	.LVL224
 15350 11a2 2C000000 		.4byte	.LVL228
 15351 11a6 0100     		.2byte	0x1
 15352 11a8 50       		.byte	0x50
 15353 11a9 2C000000 		.4byte	.LVL228
 15354 11ad D0000000 		.4byte	.LFE299
 15355 11b1 0400     		.2byte	0x4
 15356 11b3 F3       		.byte	0xf3
 15357 11b4 01       		.uleb128 0x1
 15358 11b5 50       		.byte	0x50
 15359 11b6 9F       		.byte	0x9f
 15360 11b7 00000000 		.4byte	0
 15361 11bb 00000000 		.4byte	0
 15362              	.LLST122:
 15363 11bf 2A000000 		.4byte	.LVL227
 15364 11c3 34000000 		.4byte	.LVL229
 15365 11c7 0100     		.2byte	0x1
 15366 11c9 53       		.byte	0x53
 15367 11ca 34000000 		.4byte	.LVL229
 15368 11ce 44000000 		.4byte	.LVL230
 15369 11d2 0200     		.2byte	0x2
 15370 11d4 71       		.byte	0x71
 15371 11d5 14       		.sleb128 20
 15372 11d6 44000000 		.4byte	.LVL230
 15373 11da 47000000 		.4byte	.LVL231-1
 15374 11de 0C00     		.2byte	0xc
 15375 11e0 71       		.byte	0x71
 15376 11e1 00       		.sleb128 0
 15377 11e2 32       		.byte	0x32
 15378 11e3 24       		.byte	0x24
ARM GAS  /tmp/ccH4KobB.s 			page 271


 15379 11e4 76       		.byte	0x76
 15380 11e5 00       		.sleb128 0
 15381 11e6 22       		.byte	0x22
 15382 11e7 23       		.byte	0x23
 15383 11e8 0C       		.uleb128 0xc
 15384 11e9 06       		.byte	0x6
 15385 11ea 23       		.byte	0x23
 15386 11eb 14       		.uleb128 0x14
 15387 11ec 88000000 		.4byte	.LVL237
 15388 11f0 99000000 		.4byte	.LVL238-1
 15389 11f4 0100     		.2byte	0x1
 15390 11f6 53       		.byte	0x53
 15391 11f7 00000000 		.4byte	0
 15392 11fb 00000000 		.4byte	0
 15393              	.LLST123:
 15394 11ff 9A000000 		.4byte	.LVL238
 15395 1203 A0000000 		.4byte	.LVL239
 15396 1207 0300     		.2byte	0x3
 15397 1209 08       		.byte	0x8
 15398 120a 20       		.byte	0x20
 15399 120b 9F       		.byte	0x9f
 15400 120c 00000000 		.4byte	0
 15401 1210 00000000 		.4byte	0
 15402              	.LLST124:
 15403 1214 A0000000 		.4byte	.LVL239
 15404 1218 C0000000 		.4byte	.LVL240
 15405 121c 0100     		.2byte	0x1
 15406 121e 57       		.byte	0x57
 15407 121f 00000000 		.4byte	0
 15408 1223 00000000 		.4byte	0
 15409              	.LLST125:
 15410 1227 A0000000 		.4byte	.LVL239
 15411 122b C0000000 		.4byte	.LVL240
 15412 122f 0600     		.2byte	0x6
 15413 1231 03       		.byte	0x3
 15414 1232 00000000 		.4byte	USBD1
 15415 1236 9F       		.byte	0x9f
 15416 1237 00000000 		.4byte	0
 15417 123b 00000000 		.4byte	0
 15418              	.LLST126:
 15419 123f C0000000 		.4byte	.LVL240
 15420 1243 C4000000 		.4byte	.LVL241
 15421 1247 0200     		.2byte	0x2
 15422 1249 30       		.byte	0x30
 15423 124a 9F       		.byte	0x9f
 15424 124b 00000000 		.4byte	0
 15425 124f 00000000 		.4byte	0
 15426              	.LLST127:
 15427 1253 5E000000 		.4byte	.LVL232
 15428 1257 64000000 		.4byte	.LVL233
 15429 125b 0300     		.2byte	0x3
 15430 125d 08       		.byte	0x8
 15431 125e 20       		.byte	0x20
 15432 125f 9F       		.byte	0x9f
 15433 1260 00000000 		.4byte	0
 15434 1264 00000000 		.4byte	0
 15435              	.LLST128:
ARM GAS  /tmp/ccH4KobB.s 			page 272


 15436 1268 74000000 		.4byte	.LVL234
 15437 126c 7E000000 		.4byte	.LVL235
 15438 1270 0200     		.2byte	0x2
 15439 1272 30       		.byte	0x30
 15440 1273 9F       		.byte	0x9f
 15441 1274 00000000 		.4byte	0
 15442 1278 00000000 		.4byte	0
 15443              	.LLST129:
 15444 127c 74000000 		.4byte	.LVL234
 15445 1280 7E000000 		.4byte	.LVL235
 15446 1284 0600     		.2byte	0x6
 15447 1286 03       		.byte	0x3
 15448 1287 60000000 		.4byte	USBD1+96
 15449 128b 9F       		.byte	0x9f
 15450 128c 00000000 		.4byte	0
 15451 1290 00000000 		.4byte	0
 15452              	.LLST130:
 15453 1294 7E000000 		.4byte	.LVL235
 15454 1298 84000000 		.4byte	.LVL236
 15455 129c 0200     		.2byte	0x2
 15456 129e 30       		.byte	0x30
 15457 129f 9F       		.byte	0x9f
 15458 12a0 00000000 		.4byte	0
 15459 12a4 00000000 		.4byte	0
 15460              	.LLST139:
 15461 12a8 00000000 		.4byte	.LVL273
 15462 12ac 06000000 		.4byte	.LVL274
 15463 12b0 0100     		.2byte	0x1
 15464 12b2 51       		.byte	0x51
 15465 12b3 06000000 		.4byte	.LVL274
 15466 12b7 14000000 		.4byte	.LFE286
 15467 12bb 0400     		.2byte	0x4
 15468 12bd F3       		.byte	0xf3
 15469 12be 01       		.uleb128 0x1
 15470 12bf 51       		.byte	0x51
 15471 12c0 9F       		.byte	0x9f
 15472 12c1 00000000 		.4byte	0
 15473 12c5 00000000 		.4byte	0
 15474              	.LLST140:
 15475 12c9 00000000 		.4byte	.LVL275
 15476 12cd 0E000000 		.4byte	.LVL276
 15477 12d1 0100     		.2byte	0x1
 15478 12d3 50       		.byte	0x50
 15479 12d4 0E000000 		.4byte	.LVL276
 15480 12d8 2A000000 		.4byte	.LFE287
 15481 12dc 0400     		.2byte	0x4
 15482 12de F3       		.byte	0xf3
 15483 12df 01       		.uleb128 0x1
 15484 12e0 50       		.byte	0x50
 15485 12e1 9F       		.byte	0x9f
 15486 12e2 00000000 		.4byte	0
 15487 12e6 00000000 		.4byte	0
 15488              	.LLST141:
 15489 12ea 00000000 		.4byte	.LVL275
 15490 12ee 22000000 		.4byte	.LVL277
 15491 12f2 0100     		.2byte	0x1
 15492 12f4 51       		.byte	0x51
ARM GAS  /tmp/ccH4KobB.s 			page 273


 15493 12f5 22000000 		.4byte	.LVL277
 15494 12f9 2A000000 		.4byte	.LFE287
 15495 12fd 0400     		.2byte	0x4
 15496 12ff F3       		.byte	0xf3
 15497 1300 01       		.uleb128 0x1
 15498 1301 51       		.byte	0x51
 15499 1302 9F       		.byte	0x9f
 15500 1303 00000000 		.4byte	0
 15501 1307 00000000 		.4byte	0
 15502              		.section	.debug_aranges,"",%progbits
 15503 0000 CC000000 		.4byte	0xcc
 15504 0004 0200     		.2byte	0x2
 15505 0006 00000000 		.4byte	.Ldebug_info0
 15506 000a 04       		.byte	0x4
 15507 000b 00       		.byte	0
 15508 000c 0000     		.2byte	0
 15509 000e 0000     		.2byte	0
 15510 0010 00000000 		.4byte	.LFB292
 15511 0014 8A030000 		.4byte	.LFE292-.LFB292
 15512 0018 00000000 		.4byte	.LFB293
 15513 001c 74000000 		.4byte	.LFE293-.LFB293
 15514 0020 00000000 		.4byte	.LFB274
 15515 0024 24000000 		.4byte	.LFE274-.LFB274
 15516 0028 00000000 		.4byte	.LFB275
 15517 002c E4000000 		.4byte	.LFE275-.LFB275
 15518 0030 00000000 		.4byte	.LFB276
 15519 0034 44000000 		.4byte	.LFE276-.LFB276
 15520 0038 00000000 		.4byte	.LFB277
 15521 003c BC000000 		.4byte	.LFE277-.LFB277
 15522 0040 00000000 		.4byte	.LFB278
 15523 0044 18000000 		.4byte	.LFE278-.LFB278
 15524 0048 00000000 		.4byte	.LFB279
 15525 004c 64010000 		.4byte	.LFE279-.LFB279
 15526 0050 00000000 		.4byte	.LFB280
 15527 0054 0E000000 		.4byte	.LFE280-.LFB280
 15528 0058 00000000 		.4byte	.LFB281
 15529 005c 1A000000 		.4byte	.LFE281-.LFB281
 15530 0060 00000000 		.4byte	.LFB282
 15531 0064 1A000000 		.4byte	.LFE282-.LFB282
 15532 0068 00000000 		.4byte	.LFB283
 15533 006c 12000000 		.4byte	.LFE283-.LFB283
 15534 0070 00000000 		.4byte	.LFB284
 15535 0074 40000000 		.4byte	.LFE284-.LFB284
 15536 0078 00000000 		.4byte	.LFB300
 15537 007c 9C000000 		.4byte	.LFE300-.LFB300
 15538 0080 00000000 		.4byte	.LFB285
 15539 0084 4C000000 		.4byte	.LFE285-.LFB285
 15540 0088 00000000 		.4byte	.LFB299
 15541 008c D0000000 		.4byte	.LFE299-.LFB299
 15542 0090 00000000 		.4byte	.LFB273
 15543 0094 F4000000 		.4byte	.LFE273-.LFB273
 15544 0098 00000000 		.4byte	.LFB286
 15545 009c 14000000 		.4byte	.LFE286-.LFB286
 15546 00a0 00000000 		.4byte	.LFB287
 15547 00a4 2A000000 		.4byte	.LFE287-.LFB287
 15548 00a8 00000000 		.4byte	.LFB288
 15549 00ac 14000000 		.4byte	.LFE288-.LFB288
ARM GAS  /tmp/ccH4KobB.s 			page 274


 15550 00b0 00000000 		.4byte	.LFB289
 15551 00b4 14000000 		.4byte	.LFE289-.LFB289
 15552 00b8 00000000 		.4byte	.LFB290
 15553 00bc 14000000 		.4byte	.LFE290-.LFB290
 15554 00c0 00000000 		.4byte	.LFB291
 15555 00c4 14000000 		.4byte	.LFE291-.LFB291
 15556 00c8 00000000 		.4byte	0
 15557 00cc 00000000 		.4byte	0
 15558              		.section	.debug_ranges,"",%progbits
 15559              	.Ldebug_ranges0:
 15560 0000 04000000 		.4byte	.LBB422
 15561 0004 0A000000 		.4byte	.LBE422
 15562 0008 0C000000 		.4byte	.LBB425
 15563 000c 0E000000 		.4byte	.LBE425
 15564 0010 00000000 		.4byte	0
 15565 0014 00000000 		.4byte	0
 15566 0018 16000000 		.4byte	.LBB432
 15567 001c 22000000 		.4byte	.LBE432
 15568 0020 58000000 		.4byte	.LBB487
 15569 0024 FC000000 		.4byte	.LBE487
 15570 0028 00010000 		.4byte	.LBB488
 15571 002c 02010000 		.4byte	.LBE488
 15572 0030 06010000 		.4byte	.LBB489
 15573 0034 08010000 		.4byte	.LBE489
 15574 0038 30010000 		.4byte	.LBB495
 15575 003c B8010000 		.4byte	.LBE495
 15576 0040 00000000 		.4byte	0
 15577 0044 00000000 		.4byte	0
 15578 0048 16000000 		.4byte	.LBB434
 15579 004c 22000000 		.4byte	.LBE434
 15580 0050 40010000 		.4byte	.LBB472
 15581 0054 B8010000 		.4byte	.LBE472
 15582 0058 00000000 		.4byte	0
 15583 005c 00000000 		.4byte	0
 15584 0060 16000000 		.4byte	.LBB436
 15585 0064 22000000 		.4byte	.LBE436
 15586 0068 92010000 		.4byte	.LBB447
 15587 006c 98010000 		.4byte	.LBE447
 15588 0070 00000000 		.4byte	0
 15589 0074 00000000 		.4byte	0
 15590 0078 7A000000 		.4byte	.LBB459
 15591 007c 7E000000 		.4byte	.LBE459
 15592 0080 80000000 		.4byte	.LBB465
 15593 0084 B0000000 		.4byte	.LBE465
 15594 0088 00000000 		.4byte	0
 15595 008c 00000000 		.4byte	0
 15596 0090 88000000 		.4byte	.LBB461
 15597 0094 96000000 		.4byte	.LBE461
 15598 0098 9A000000 		.4byte	.LBB462
 15599 009c A2000000 		.4byte	.LBE462
 15600 00a0 A8000000 		.4byte	.LBB463
 15601 00a4 AA000000 		.4byte	.LBE463
 15602 00a8 00000000 		.4byte	0
 15603 00ac 00000000 		.4byte	0
 15604 00b0 CC000000 		.4byte	.LBB466
 15605 00b4 F8000000 		.4byte	.LBE466
 15606 00b8 30010000 		.4byte	.LBB471
ARM GAS  /tmp/ccH4KobB.s 			page 275


 15607 00bc 40010000 		.4byte	.LBE471
 15608 00c0 00000000 		.4byte	0
 15609 00c4 00000000 		.4byte	0
 15610 00c8 E4000000 		.4byte	.LBB468
 15611 00cc F4000000 		.4byte	.LBE468
 15612 00d0 36010000 		.4byte	.LBB469
 15613 00d4 3A010000 		.4byte	.LBE469
 15614 00d8 00000000 		.4byte	0
 15615 00dc 00000000 		.4byte	0
 15616 00e0 38000000 		.4byte	.LBB477
 15617 00e4 3A000000 		.4byte	.LBE477
 15618 00e8 42000000 		.4byte	.LBB480
 15619 00ec 46000000 		.4byte	.LBE480
 15620 00f0 00000000 		.4byte	0
 15621 00f4 00000000 		.4byte	0
 15622 00f8 DC010000 		.4byte	.LBB508
 15623 00fc C0020000 		.4byte	.LBE508
 15624 0100 F0020000 		.4byte	.LBB565
 15625 0104 56030000 		.4byte	.LBE565
 15626 0108 00000000 		.4byte	0
 15627 010c 00000000 		.4byte	0
 15628 0110 2A020000 		.4byte	.LBB510
 15629 0114 8C020000 		.4byte	.LBE510
 15630 0118 F0020000 		.4byte	.LBB539
 15631 011c 28030000 		.4byte	.LBE539
 15632 0120 4A030000 		.4byte	.LBB544
 15633 0124 52030000 		.4byte	.LBE544
 15634 0128 00000000 		.4byte	0
 15635 012c 00000000 		.4byte	0
 15636 0130 30020000 		.4byte	.LBB512
 15637 0134 68020000 		.4byte	.LBE512
 15638 0138 F0020000 		.4byte	.LBB535
 15639 013c 22030000 		.4byte	.LBE535
 15640 0140 4A030000 		.4byte	.LBB536
 15641 0144 52030000 		.4byte	.LBE536
 15642 0148 00000000 		.4byte	0
 15643 014c 00000000 		.4byte	0
 15644 0150 30020000 		.4byte	.LBB513
 15645 0154 32020000 		.4byte	.LBE513
 15646 0158 38020000 		.4byte	.LBB518
 15647 015c 68020000 		.4byte	.LBE518
 15648 0160 4A030000 		.4byte	.LBB519
 15649 0164 52030000 		.4byte	.LBE519
 15650 0168 00000000 		.4byte	0
 15651 016c 00000000 		.4byte	0
 15652 0170 4C020000 		.4byte	.LBB514
 15653 0174 5E020000 		.4byte	.LBE514
 15654 0178 4A030000 		.4byte	.LBB517
 15655 017c 52030000 		.4byte	.LBE517
 15656 0180 00000000 		.4byte	0
 15657 0184 00000000 		.4byte	0
 15658 0188 C0020000 		.4byte	.LBB546
 15659 018c C6020000 		.4byte	.LBE546
 15660 0190 56030000 		.4byte	.LBB566
 15661 0194 5C030000 		.4byte	.LBE566
 15662 0198 70030000 		.4byte	.LBB567
 15663 019c 76030000 		.4byte	.LBE567
ARM GAS  /tmp/ccH4KobB.s 			page 276


 15664 01a0 00000000 		.4byte	0
 15665 01a4 00000000 		.4byte	0
 15666 01a8 2A000000 		.4byte	.LBB576
 15667 01ac 2C000000 		.4byte	.LBE576
 15668 01b0 32000000 		.4byte	.LBB585
 15669 01b4 4C000000 		.4byte	.LBE585
 15670 01b8 00000000 		.4byte	0
 15671 01bc 00000000 		.4byte	0
 15672 01c0 2A000000 		.4byte	.LBB578
 15673 01c4 2C000000 		.4byte	.LBE578
 15674 01c8 32000000 		.4byte	.LBB581
 15675 01cc 36000000 		.4byte	.LBE581
 15676 01d0 00000000 		.4byte	0
 15677 01d4 00000000 		.4byte	0
 15678 01d8 04000000 		.4byte	.LBB588
 15679 01dc 06000000 		.4byte	.LBE588
 15680 01e0 08000000 		.4byte	.LBB593
 15681 01e4 18000000 		.4byte	.LBE593
 15682 01e8 00000000 		.4byte	0
 15683 01ec 00000000 		.4byte	0
 15684 01f0 40000000 		.4byte	.LBB594
 15685 01f4 42000000 		.4byte	.LBE594
 15686 01f8 52000000 		.4byte	.LBB597
 15687 01fc 54000000 		.4byte	.LBE597
 15688 0200 00000000 		.4byte	0
 15689 0204 00000000 		.4byte	0
 15690 0208 A4000000 		.4byte	.LBB602
 15691 020c AA000000 		.4byte	.LBE602
 15692 0210 AE000000 		.4byte	.LBB605
 15693 0214 B0000000 		.4byte	.LBE605
 15694 0218 00000000 		.4byte	0
 15695 021c 00000000 		.4byte	0
 15696 0220 96000000 		.4byte	.LBB606
 15697 0224 98000000 		.4byte	.LBE606
 15698 0228 A2000000 		.4byte	.LBB610
 15699 022c A6000000 		.4byte	.LBE610
 15700 0230 AA000000 		.4byte	.LBB611
 15701 0234 AE000000 		.4byte	.LBE611
 15702 0238 00000000 		.4byte	0
 15703 023c 00000000 		.4byte	0
 15704 0240 3C000000 		.4byte	.LBB622
 15705 0244 60000000 		.4byte	.LBE622
 15706 0248 64000000 		.4byte	.LBB635
 15707 024c 92000000 		.4byte	.LBE635
 15708 0250 00000000 		.4byte	0
 15709 0254 00000000 		.4byte	0
 15710 0258 12000000 		.4byte	.LBB636
 15711 025c 16000000 		.4byte	.LBE636
 15712 0260 1A000000 		.4byte	.LBB637
 15713 0264 2E000000 		.4byte	.LBE637
 15714 0268 30000000 		.4byte	.LBB638
 15715 026c 3A000000 		.4byte	.LBE638
 15716 0270 00000000 		.4byte	0
 15717 0274 00000000 		.4byte	0
 15718 0278 22000000 		.4byte	.LBB639
 15719 027c 48000000 		.4byte	.LBE639
 15720 0280 88000000 		.4byte	.LBB672
ARM GAS  /tmp/ccH4KobB.s 			page 277


 15721 0284 D0000000 		.4byte	.LBE672
 15722 0288 00000000 		.4byte	0
 15723 028c 00000000 		.4byte	0
 15724 0290 6A000000 		.4byte	.LBB660
 15725 0294 6C000000 		.4byte	.LBE660
 15726 0298 76000000 		.4byte	.LBB664
 15727 029c 78000000 		.4byte	.LBE664
 15728 02a0 7A000000 		.4byte	.LBB665
 15729 02a4 7E000000 		.4byte	.LBE665
 15730 02a8 00000000 		.4byte	0
 15731 02ac 00000000 		.4byte	0
 15732 02b0 02000000 		.4byte	.LBB689
 15733 02b4 58000000 		.4byte	.LBE689
 15734 02b8 60000000 		.4byte	.LBB709
 15735 02bc 9A000000 		.4byte	.LBE709
 15736 02c0 A2000000 		.4byte	.LBB710
 15737 02c4 F4000000 		.4byte	.LBE710
 15738 02c8 00000000 		.4byte	0
 15739 02cc 00000000 		.4byte	0
 15740 02d0 7E000000 		.4byte	.LBB697
 15741 02d4 80000000 		.4byte	.LBE697
 15742 02d8 86000000 		.4byte	.LBB700
 15743 02dc 8C000000 		.4byte	.LBE700
 15744 02e0 00000000 		.4byte	0
 15745 02e4 00000000 		.4byte	0
 15746 02e8 00000000 		.4byte	.LFB292
 15747 02ec 8A030000 		.4byte	.LFE292
 15748 02f0 00000000 		.4byte	.LFB293
 15749 02f4 74000000 		.4byte	.LFE293
 15750 02f8 00000000 		.4byte	.LFB274
 15751 02fc 24000000 		.4byte	.LFE274
 15752 0300 00000000 		.4byte	.LFB275
 15753 0304 E4000000 		.4byte	.LFE275
 15754 0308 00000000 		.4byte	.LFB276
 15755 030c 44000000 		.4byte	.LFE276
 15756 0310 00000000 		.4byte	.LFB277
 15757 0314 BC000000 		.4byte	.LFE277
 15758 0318 00000000 		.4byte	.LFB278
 15759 031c 18000000 		.4byte	.LFE278
 15760 0320 00000000 		.4byte	.LFB279
 15761 0324 64010000 		.4byte	.LFE279
 15762 0328 00000000 		.4byte	.LFB280
 15763 032c 0E000000 		.4byte	.LFE280
 15764 0330 00000000 		.4byte	.LFB281
 15765 0334 1A000000 		.4byte	.LFE281
 15766 0338 00000000 		.4byte	.LFB282
 15767 033c 1A000000 		.4byte	.LFE282
 15768 0340 00000000 		.4byte	.LFB283
 15769 0344 12000000 		.4byte	.LFE283
 15770 0348 00000000 		.4byte	.LFB284
 15771 034c 40000000 		.4byte	.LFE284
 15772 0350 00000000 		.4byte	.LFB300
 15773 0354 9C000000 		.4byte	.LFE300
 15774 0358 00000000 		.4byte	.LFB285
 15775 035c 4C000000 		.4byte	.LFE285
 15776 0360 00000000 		.4byte	.LFB299
 15777 0364 D0000000 		.4byte	.LFE299
ARM GAS  /tmp/ccH4KobB.s 			page 278


 15778 0368 00000000 		.4byte	.LFB273
 15779 036c F4000000 		.4byte	.LFE273
 15780 0370 00000000 		.4byte	.LFB286
 15781 0374 14000000 		.4byte	.LFE286
 15782 0378 00000000 		.4byte	.LFB287
 15783 037c 2A000000 		.4byte	.LFE287
 15784 0380 00000000 		.4byte	.LFB288
 15785 0384 14000000 		.4byte	.LFE288
 15786 0388 00000000 		.4byte	.LFB289
 15787 038c 14000000 		.4byte	.LFE289
 15788 0390 00000000 		.4byte	.LFB290
 15789 0394 14000000 		.4byte	.LFE290
 15790 0398 00000000 		.4byte	.LFB291
 15791 039c 14000000 		.4byte	.LFE291
 15792 03a0 00000000 		.4byte	0
 15793 03a4 00000000 		.4byte	0
 15794              		.section	.debug_line,"",%progbits
 15795              	.Ldebug_line0:
 15796 0000 130B0000 		.section	.debug_str,"MS",%progbits,1
 15796      02001B05 
 15796      00000201 
 15796      FB0E0D00 
 15796      01010101 
 15797              	.LASF500:
 15798 0000 5553425F 		.ascii	"USB_STOP\000"
 15798      53544F50 
 15798      00
 15799              	.LASF265:
 15800 0009 706F7274 		.ascii	"port_intctx\000"
 15800      5F696E74 
 15800      63747800 
 15801              	.LASF286:
 15802 0015 63685F70 		.ascii	"ch_ptrsize\000"
 15802      74727369 
 15802      7A6500
 15803              	.LASF456:
 15804 0020 6576656E 		.ascii	"event\000"
 15804      7400
 15805              	.LASF367:
 15806 0026 43414E5F 		.ascii	"CAN_STARTING\000"
 15806      53544152 
 15806      54494E47 
 15806      00
 15807              	.LASF690:
 15808 0033 5F5F6675 		.ascii	"__func__\000"
 15808      6E635F5F 
 15808      00
 15809              	.LASF137:
 15810 003c 6D73675F 		.ascii	"msg_t\000"
 15810      7400
 15811              	.LASF393:
 15812 0042 4F504D4F 		.ascii	"OPMODE_SMBUS_DEVICE\000"
 15812      44455F53 
 15812      4D425553 
 15812      5F444556 
 15812      49434500 
 15813              	.LASF714:
ARM GAS  /tmp/ccH4KobB.s 			page 279


 15814 0056 706F7274 		.ascii	"port_unlock_from_isr\000"
 15814      5F756E6C 
 15814      6F636B5F 
 15814      66726F6D 
 15814      5F697372 
 15815              	.LASF563:
 15816 006b 44494550 		.ascii	"DIEPTXF0\000"
 15816      54584630 
 15816      00
 15817              	.LASF640:
 15818 0074 55534244 		.ascii	"USBD1\000"
 15818      3100
 15819              	.LASF366:
 15820 007a 43414E5F 		.ascii	"CAN_STOP\000"
 15820      53544F50 
 15820      00
 15821              	.LASF299:
 15822 0083 63665F6F 		.ascii	"cf_off_time\000"
 15822      66665F74 
 15822      696D6500 
 15823              	.LASF190:
 15824 008f 63685F73 		.ascii	"ch_system_t\000"
 15824      79737465 
 15824      6D5F7400 
 15825              	.LASF3:
 15826 009b 5F5F7569 		.ascii	"__uint8_t\000"
 15826      6E74385F 
 15826      7400
 15827              	.LASF272:
 15828 00a5 77747365 		.ascii	"wtsemp\000"
 15828      6D7000
 15829              	.LASF327:
 15830 00ac 5F426F6F 		.ascii	"_Bool\000"
 15830      6C00
 15831              	.LASF411:
 15832 00b2 646D6172 		.ascii	"dmarx\000"
 15832      7800
 15833              	.LASF68:
 15834 00b8 5F6D6273 		.ascii	"_mbstate\000"
 15834      74617465 
 15834      00
 15835              	.LASF47:
 15836 00c1 5F617465 		.ascii	"_atexit\000"
 15836      78697400 
 15837              	.LASF705:
 15838 00c9 6F73616C 		.ascii	"osalSysUnlock\000"
 15838      53797355 
 15838      6E6C6F63 
 15838      6B00
 15839              	.LASF582:
 15840 00d7 72657376 		.ascii	"resvd700\000"
 15840      64373030 
 15840      00
 15841              	.LASF593:
 15842 00e0 44564255 		.ascii	"DVBUSDIS\000"
 15842      53444953 
 15842      00
ARM GAS  /tmp/ccH4KobB.s 			page 280


 15843              	.LASF405:
 15844 00e9 6572726F 		.ascii	"errors\000"
 15844      727300
 15845              	.LASF474:
 15846 00f0 73706963 		.ascii	"spicallback_t\000"
 15846      616C6C62 
 15846      61636B5F 
 15846      7400
 15847              	.LASF186:
 15848 00fe 76745F73 		.ascii	"vt_systime\000"
 15848      79737469 
 15848      6D6500
 15849              	.LASF498:
 15850 0109 75736265 		.ascii	"usbep_t\000"
 15850      705F7400 
 15851              	.LASF418:
 15852 0111 4943555F 		.ascii	"ICU_ACTIVE\000"
 15852      41435449 
 15852      564500
 15853              	.LASF253:
 15854 011c 5243435F 		.ascii	"RCC_TypeDef\000"
 15854      54797065 
 15854      44656600 
 15855              	.LASF37:
 15856 0128 5F5F746D 		.ascii	"__tm_mon\000"
 15856      5F6D6F6E 
 15856      00
 15857              	.LASF45:
 15858 0131 5F666E74 		.ascii	"_fntypes\000"
 15858      79706573 
 15858      00
 15859              	.LASF281:
 15860 013a 6D5F6E65 		.ascii	"m_next\000"
 15860      787400
 15861              	.LASF355:
 15862 0141 50434461 		.ascii	"PCData\000"
 15862      746100
 15863              	.LASF75:
 15864 0148 5F696E63 		.ascii	"_inc\000"
 15864      00
 15865              	.LASF48:
 15866 014d 5F696E64 		.ascii	"_ind\000"
 15866      00
 15867              	.LASF462:
 15868 0152 72656164 		.ascii	"read\000"
 15868      00
 15869              	.LASF567:
 15870 0157 47434346 		.ascii	"GCCFG\000"
 15870      4700
 15871              	.LASF430:
 15872 015d 42445452 		.ascii	"BDTR\000"
 15872      00
 15873              	.LASF672:
 15874 0162 6F74675F 		.ascii	"otg_epout_handler\000"
 15874      65706F75 
 15874      745F6861 
 15874      6E646C65 
ARM GAS  /tmp/ccH4KobB.s 			page 281


 15874      7200
 15875              	.LASF403:
 15876 0174 49324343 		.ascii	"I2CConfig\000"
 15876      6F6E6669 
 15876      6700
 15877              	.LASF127:
 15878 017e 75696E74 		.ascii	"uint16_t\000"
 15878      31365F74 
 15878      00
 15879              	.LASF412:
 15880 0187 646D6174 		.ascii	"dmatx\000"
 15880      7800
 15881              	.LASF638:
 15882 018d 736F665F 		.ascii	"sof_cb\000"
 15882      636200
 15883              	.LASF54:
 15884 0194 5F666C61 		.ascii	"_flags\000"
 15884      677300
 15885              	.LASF689:
 15886 019b 6E657874 		.ascii	"next\000"
 15886      00
 15887              	.LASF348:
 15888 01a0 6F737065 		.ascii	"ospeedr\000"
 15888      65647200 
 15889              	.LASF570:
 15890 01a8 44494550 		.ascii	"DIEPTXF\000"
 15890      54584600 
 15891              	.LASF305:
 15892 01b0 656C5F6E 		.ascii	"el_next\000"
 15892      65787400 
 15893              	.LASF483:
 15894 01b8 696E5F70 		.ascii	"in_params\000"
 15894      6172616D 
 15894      7300
 15895              	.LASF85:
 15896 01c2 5F637674 		.ascii	"_cvtlen\000"
 15896      6C656E00 
 15897              	.LASF673:
 15898 01ca 6570696E 		.ascii	"epint\000"
 15898      7400
 15899              	.LASF167:
 15900 01d0 63685F74 		.ascii	"ch_threads_queue\000"
 15900      68726561 
 15900      64735F71 
 15900      75657565 
 15900      00
 15901              	.LASF666:
 15902 01e1 7573625F 		.ascii	"usb_lld_stop\000"
 15902      6C6C645F 
 15902      73746F70 
 15902      00
 15903              	.LASF89:
 15904 01ee 5F736967 		.ascii	"_sig_func\000"
 15904      5F66756E 
 15904      6300
 15905              	.LASF148:
 15906 01f8 705F6E65 		.ascii	"p_newer\000"
ARM GAS  /tmp/ccH4KobB.s 			page 282


 15906      77657200 
 15907              	.LASF580:
 15908 0200 48505254 		.ascii	"HPRT\000"
 15908      00
 15909              	.LASF534:
 15910 0205 4843494E 		.ascii	"HCINT\000"
 15910      5400
 15911              	.LASF723:
 15912 020b 63685379 		.ascii	"chSysPolledDelayX\000"
 15912      73506F6C 
 15912      6C656444 
 15912      656C6179 
 15912      5800
 15913              	.LASF296:
 15914 021d 63665F6F 		.ascii	"cf_off_flags\000"
 15914      66665F66 
 15914      6C616773 
 15914      00
 15915              	.LASF67:
 15916 022a 5F6C6F63 		.ascii	"_lock\000"
 15916      6B00
 15917              	.LASF63:
 15918 0230 5F6E6275 		.ascii	"_nbuf\000"
 15918      6600
 15919              	.LASF468:
 15920 0236 5350495F 		.ascii	"SPI_STOP\000"
 15920      53544F50 
 15920      00
 15921              	.LASF701:
 15922 023f 6379636C 		.ascii	"cycles\000"
 15922      657300
 15923              	.LASF121:
 15924 0246 5F756E75 		.ascii	"_unused\000"
 15924      73656400 
 15925              	.LASF354:
 15926 024e 50424461 		.ascii	"PBData\000"
 15926      746100
 15927              	.LASF643:
 15928 0255 65703063 		.ascii	"ep0config\000"
 15928      6F6E6669 
 15928      6700
 15929              	.LASF284:
 15930 025f 63685F73 		.ascii	"ch_size\000"
 15930      697A6500 
 15931              	.LASF576:
 15932 0267 48505458 		.ascii	"HPTXSTS\000"
 15932      53545300 
 15933              	.LASF347:
 15934 026f 6F747970 		.ascii	"otyper\000"
 15934      657200
 15935              	.LASF508:
 15936 0276 75736265 		.ascii	"usbepstatus_t\000"
 15936      70737461 
 15936      7475735F 
 15936      7400
 15937              	.LASF338:
 15938 0284 4F545950 		.ascii	"OTYPER\000"
ARM GAS  /tmp/ccH4KobB.s 			page 283


 15938      455200
 15939              	.LASF472:
 15940 028b 73706973 		.ascii	"spistate_t\000"
 15940      74617465 
 15940      5F7400
 15941              	.LASF532:
 15942 0296 48434348 		.ascii	"HCCHAR\000"
 15942      415200
 15943              	.LASF387:
 15944 029d 4932435F 		.ascii	"I2C_ACTIVE_RX\000"
 15944      41435449 
 15944      56455F52 
 15944      5800
 15945              	.LASF142:
 15946 02ab 74687265 		.ascii	"thread_t\000"
 15946      61645F74 
 15946      00
 15947              	.LASF307:
 15948 02b4 656C5F65 		.ascii	"el_events\000"
 15948      76656E74 
 15948      7300
 15949              	.LASF379:
 15950 02be 736C6565 		.ascii	"sleep_event\000"
 15950      705F6576 
 15950      656E7400 
 15951              	.LASF185:
 15952 02ca 63685F76 		.ascii	"ch_virtual_timers_list\000"
 15952      69727475 
 15952      616C5F74 
 15952      696D6572 
 15952      735F6C69 
 15953              	.LASF333:
 15954 02e1 76656374 		.ascii	"vector\000"
 15954      6F7200
 15955              	.LASF558:
 15956 02e8 47494E54 		.ascii	"GINTSTS\000"
 15956      53545300 
 15957              	.LASF128:
 15958 02f0 696E7433 		.ascii	"int32_t\000"
 15958      325F7400 
 15959              	.LASF401:
 15960 02f8 636C6F63 		.ascii	"clock_speed\000"
 15960      6B5F7370 
 15960      65656400 
 15961              	.LASF141:
 15962 0304 73797374 		.ascii	"systime_t\000"
 15962      696D655F 
 15962      7400
 15963              	.LASF381:
 15964 030e 43414E44 		.ascii	"CANDriver\000"
 15964      72697665 
 15964      7200
 15965              	.LASF99:
 15966 0318 5F616464 		.ascii	"_add\000"
 15966      00
 15967              	.LASF224:
 15968 031d 4D304152 		.ascii	"M0AR\000"
ARM GAS  /tmp/ccH4KobB.s 			page 284


 15968      00
 15969              	.LASF539:
 15970 0322 72657376 		.ascii	"resvd1c\000"
 15970      64316300 
 15971              	.LASF391:
 15972 032a 69326366 		.ascii	"i2cflags_t\000"
 15972      6C616773 
 15972      5F7400
 15973              	.LASF577:
 15974 0335 4841494E 		.ascii	"HAINT\000"
 15974      5400
 15975              	.LASF507:
 15976 033b 45505F53 		.ascii	"EP_STATUS_ACTIVE\000"
 15976      54415455 
 15976      535F4143 
 15976      54495645 
 15976      00
 15977              	.LASF219:
 15978 034c 46413152 		.ascii	"FA1R\000"
 15978      00
 15979              	.LASF698:
 15980 0351 6F73616C 		.ascii	"osalThreadResumeI\000"
 15980      54687265 
 15980      61645265 
 15980      73756D65 
 15980      4900
 15981              	.LASF724:
 15982 0363 6E766963 		.ascii	"nvicDisableVector\000"
 15982      44697361 
 15982      626C6556 
 15982      6563746F 
 15982      7200
 15983              	.LASF574:
 15984 0375 48464E55 		.ascii	"HFNUM\000"
 15984      4D00
 15985              	.LASF323:
 15986 037b 716E6F74 		.ascii	"qnotify_t\000"
 15986      6966795F 
 15986      7400
 15987              	.LASF237:
 15988 0385 41504231 		.ascii	"APB1RSTR\000"
 15988      52535452 
 15988      00
 15989              	.LASF331:
 15990 038e 69736869 		.ascii	"ishift\000"
 15990      667400
 15991              	.LASF685:
 15992 0395 6F74675F 		.ascii	"otg_fifo_write_from_buffer\000"
 15992      6669666F 
 15992      5F777269 
 15992      74655F66 
 15992      726F6D5F 
 15993              	.LASF318:
 15994 03b0 715F746F 		.ascii	"q_top\000"
 15994      7000
 15995              	.LASF56:
 15996 03b6 5F6C6266 		.ascii	"_lbfsize\000"
ARM GAS  /tmp/ccH4KobB.s 			page 285


 15996      73697A65 
 15996      00
 15997              	.LASF525:
 15998 03bf 75645F73 		.ascii	"ud_string\000"
 15998      7472696E 
 15998      6700
 15999              	.LASF404:
 16000 03c9 49324344 		.ascii	"I2CDriver\000"
 16000      72697665 
 16000      7200
 16001              	.LASF386:
 16002 03d3 4932435F 		.ascii	"I2C_ACTIVE_TX\000"
 16002      41435449 
 16002      56455F54 
 16002      5800
 16003              	.LASF392:
 16004 03e1 4F504D4F 		.ascii	"OPMODE_I2C\000"
 16004      44455F49 
 16004      324300
 16005              	.LASF586:
 16006 03ec 72657376 		.ascii	"resvd80C\000"
 16006      64383043 
 16006      00
 16007              	.LASF635:
 16008 03f5 6576656E 		.ascii	"event_cb\000"
 16008      745F6362 
 16008      00
 16009              	.LASF553:
 16010 03fe 474F5447 		.ascii	"GOTGCTL\000"
 16010      43544C00 
 16011              	.LASF528:
 16012 0406 75736265 		.ascii	"usbepcallback_t\000"
 16012      7063616C 
 16012      6C626163 
 16012      6B5F7400 
 16013              	.LASF66:
 16014 0416 5F646174 		.ascii	"_data\000"
 16014      6100
 16015              	.LASF193:
 16016 041c 76746C69 		.ascii	"vtlist\000"
 16016      737400
 16017              	.LASF416:
 16018 0423 4943555F 		.ascii	"ICU_READY\000"
 16018      52454144 
 16018      5900
 16019              	.LASF229:
 16020 042d 54524953 		.ascii	"TRISE\000"
 16020      4500
 16021              	.LASF592:
 16022 0433 72657376 		.ascii	"resvd824\000"
 16022      64383234 
 16022      00
 16023              	.LASF156:
 16024 043c 705F7761 		.ascii	"p_waiting\000"
 16024      6974696E 
 16024      6700
 16025              	.LASF423:
ARM GAS  /tmp/ccH4KobB.s 			page 286


 16026 0446 70636372 		.ascii	"pccrp\000"
 16026      7000
 16027              	.LASF315:
 16028 044c 715F7761 		.ascii	"q_waiting\000"
 16028      6974696E 
 16028      6700
 16029              	.LASF201:
 16030 0456 43414E5F 		.ascii	"CAN_TxMailBox_TypeDef\000"
 16030      54784D61 
 16030      696C426F 
 16030      785F5479 
 16030      70654465 
 16031              	.LASF192:
 16032 046c 726C6973 		.ascii	"rlist\000"
 16032      7400
 16033              	.LASF164:
 16034 0472 74687265 		.ascii	"threads_list_t\000"
 16034      6164735F 
 16034      6C697374 
 16034      5F7400
 16035              	.LASF267:
 16036 0481 746D5F63 		.ascii	"tm_calibration_t\000"
 16036      616C6962 
 16036      72617469 
 16036      6F6E5F74 
 16036      00
 16037              	.LASF324:
 16038 0492 696E7075 		.ascii	"input_queue_t\000"
 16038      745F7175 
 16038      6575655F 
 16038      7400
 16039              	.LASF122:
 16040 04a0 5F5F6C6F 		.ascii	"__lock\000"
 16040      636B00
 16041              	.LASF396:
 16042 04a7 5354445F 		.ascii	"STD_DUTY_CYCLE\000"
 16042      44555459 
 16042      5F435943 
 16042      4C4500
 16043              	.LASF70:
 16044 04b6 5F726565 		.ascii	"_reent\000"
 16044      6E7400
 16045              	.LASF292:
 16046 04bd 63665F6F 		.ascii	"cf_off_older\000"
 16046      66665F6F 
 16046      6C646572 
 16046      00
 16047              	.LASF620:
 16048 04ca 72787175 		.ascii	"rxqueued\000"
 16048      65756564 
 16048      00
 16049              	.LASF441:
 16050 04d3 69637563 		.ascii	"icuchannel_t\000"
 16050      68616E6E 
 16050      656C5F74 
 16050      00
 16051              	.LASF370:
ARM GAS  /tmp/ccH4KobB.s 			page 287


 16052 04e0 63616E73 		.ascii	"canstate_t\000"
 16052      74617465 
 16052      5F7400
 16053              	.LASF221:
 16054 04eb 7346696C 		.ascii	"sFilterRegister\000"
 16054      74657252 
 16054      65676973 
 16054      74657200 
 16055              	.LASF91:
 16056 04fb 5F5F7366 		.ascii	"__sf\000"
 16056      00
 16057              	.LASF591:
 16058 0500 72657376 		.ascii	"resvd820\000"
 16058      64383230 
 16058      00
 16059              	.LASF51:
 16060 0509 5F626173 		.ascii	"_base\000"
 16060      6500
 16061              	.LASF713:
 16062 050f 63685379 		.ascii	"chSysLock\000"
 16062      734C6F63 
 16062      6B00
 16063              	.LASF400:
 16064 0519 6F705F6D 		.ascii	"op_mode\000"
 16064      6F646500 
 16065              	.LASF108:
 16066 0521 5F6D6274 		.ascii	"_mbtowc_state\000"
 16066      6F77635F 
 16066      73746174 
 16066      6500
 16067              	.LASF644:
 16068 052f 66737061 		.ascii	"fsparams\000"
 16068      72616D73 
 16068      00
 16069              	.LASF703:
 16070 0538 6F73616C 		.ascii	"osalSysUnlockFromISR\000"
 16070      53797355 
 16070      6E6C6F63 
 16070      6B46726F 
 16070      6D495352 
 16071              	.LASF383:
 16072 054d 4932435F 		.ascii	"I2C_UNINIT\000"
 16072      554E494E 
 16072      495400
 16073              	.LASF451:
 16074 0558 53445F55 		.ascii	"SD_UNINIT\000"
 16074      4E494E49 
 16074      5400
 16075              	.LASF136:
 16076 0562 74707269 		.ascii	"tprio_t\000"
 16076      6F5F7400 
 16077              	.LASF243:
 16078 056a 41504232 		.ascii	"APB2ENR\000"
 16078      454E5200 
 16079              	.LASF595:
 16080 0572 72657376 		.ascii	"resvd830\000"
 16080      64383330 
ARM GAS  /tmp/ccH4KobB.s 			page 288


 16080      00
 16081              	.LASF32:
 16082 057b 5F5F746D 		.ascii	"__tm\000"
 16082      00
 16083              	.LASF597:
 16084 0580 72657376 		.ascii	"resvd838\000"
 16084      64383338 
 16084      00
 16085              	.LASF399:
 16086 0589 69326364 		.ascii	"i2cdutycycle_t\000"
 16086      75747963 
 16086      79636C65 
 16086      5F7400
 16087              	.LASF598:
 16088 0598 72657376 		.ascii	"resvd83C\000"
 16088      64383343 
 16088      00
 16089              	.LASF407:
 16090 05a1 74687265 		.ascii	"thread\000"
 16090      616400
 16091              	.LASF594:
 16092 05a8 44564255 		.ascii	"DVBUSPULSE\000"
 16092      5350554C 
 16092      534500
 16093              	.LASF489:
 16094 05b3 73657475 		.ascii	"setup\000"
 16094      7000
 16095              	.LASF467:
 16096 05b9 5350495F 		.ascii	"SPI_UNINIT\000"
 16096      554E494E 
 16096      495400
 16097              	.LASF546:
 16098 05c4 44545846 		.ascii	"DTXFSTS\000"
 16098      53545300 
 16099              	.LASF385:
 16100 05cc 4932435F 		.ascii	"I2C_READY\000"
 16100      52454144 
 16100      5900
 16101              	.LASF40:
 16102 05d6 5F5F746D 		.ascii	"__tm_yday\000"
 16102      5F796461 
 16102      7900
 16103              	.LASF429:
 16104 05e0 43434552 		.ascii	"CCER\000"
 16104      00
 16105              	.LASF258:
 16106 05e5 49325350 		.ascii	"I2SPR\000"
 16106      5200
 16107              	.LASF555:
 16108 05eb 47414842 		.ascii	"GAHBCFG\000"
 16108      43464700 
 16109              	.LASF15:
 16110 05f3 5F4C4F43 		.ascii	"_LOCK_T\000"
 16110      4B5F5400 
 16111              	.LASF599:
 16112 05fb 72657376 		.ascii	"resvd840\000"
 16112      64383430 
ARM GAS  /tmp/ccH4KobB.s 			page 289


 16112      00
 16113              	.LASF254:
 16114 0604 43524350 		.ascii	"CRCPR\000"
 16114      5200
 16115              	.LASF670:
 16116 060a 646F6E65 		.ascii	"done\000"
 16116      00
 16117              	.LASF675:
 16118 060f 6F74675F 		.ascii	"otg_rxfifo_handler\000"
 16118      72786669 
 16118      666F5F68 
 16118      616E646C 
 16118      657200
 16119              	.LASF6:
 16120 0622 5F5F7569 		.ascii	"__uint16_t\000"
 16120      6E743136 
 16120      5F7400
 16121              	.LASF614:
 16122 062d 74787175 		.ascii	"txqueued\000"
 16122      65756564 
 16122      00
 16123              	.LASF158:
 16124 0636 705F6D73 		.ascii	"p_msg\000"
 16124      6700
 16125              	.LASF100:
 16126 063c 5F756E75 		.ascii	"_unused_rand\000"
 16126      7365645F 
 16126      72616E64 
 16126      00
 16127              	.LASF561:
 16128 0649 47525853 		.ascii	"GRXSTSP\000"
 16128      54535000 
 16129              	.LASF560:
 16130 0651 47525853 		.ascii	"GRXSTSR\000"
 16130      54535200 
 16131              	.LASF720:
 16132 0659 63685468 		.ascii	"chThdDequeueAllI\000"
 16132      64446571 
 16132      75657565 
 16132      416C6C49 
 16132      00
 16133              	.LASF225:
 16134 066a 4D314152 		.ascii	"M1AR\000"
 16134      00
 16135              	.LASF496:
 16136 066f 77616974 		.ascii	"wait\000"
 16136      00
 16137              	.LASF226:
 16138 0674 444D415F 		.ascii	"DMA_Stream_TypeDef\000"
 16138      53747265 
 16138      616D5F54 
 16138      79706544 
 16138      656600
 16139              	.LASF730:
 16140 0687 5F757362 		.ascii	"_usb_reset\000"
 16140      5F726573 
 16140      657400
ARM GAS  /tmp/ccH4KobB.s 			page 290


 16141              	.LASF503:
 16142 0692 5553425F 		.ascii	"USB_ACTIVE\000"
 16142      41435449 
 16142      564500
 16143              	.LASF548:
 16144 069d 73746D33 		.ascii	"stm32_otg_in_ep_t\000"
 16144      325F6F74 
 16144      675F696E 
 16144      5F65705F 
 16144      7400
 16145              	.LASF622:
 16146 06af 7278636E 		.ascii	"rxcnt\000"
 16146      7400
 16147              	.LASF409:
 16148 06b5 7278646D 		.ascii	"rxdmamode\000"
 16148      616D6F64 
 16148      6500
 16149              	.LASF82:
 16150 06bf 5F726573 		.ascii	"_result_k\000"
 16150      756C745F 
 16150      6B00
 16151              	.LASF442:
 16152 06c9 6D6F6465 		.ascii	"mode\000"
 16152      00
 16153              	.LASF74:
 16154 06ce 5F737464 		.ascii	"_stderr\000"
 16154      65727200 
 16155              	.LASF81:
 16156 06d6 5F726573 		.ascii	"_result\000"
 16156      756C7400 
 16157              	.LASF435:
 16158 06de 4943555F 		.ascii	"ICU_INPUT_ACTIVE_HIGH\000"
 16158      494E5055 
 16158      545F4143 
 16158      54495645 
 16158      5F484947 
 16159              	.LASF44:
 16160 06f4 5F64736F 		.ascii	"_dso_handle\000"
 16160      5F68616E 
 16160      646C6500 
 16161              	.LASF477:
 16162 0700 73737061 		.ascii	"sspad\000"
 16162      6400
 16163              	.LASF410:
 16164 0706 7478646D 		.ascii	"txdmamode\000"
 16164      616D6F64 
 16164      6500
 16165              	.LASF39:
 16166 0710 5F5F746D 		.ascii	"__tm_wday\000"
 16166      5F776461 
 16166      7900
 16167              	.LASF41:
 16168 071a 5F5F746D 		.ascii	"__tm_isdst\000"
 16168      5F697364 
 16168      737400
 16169              	.LASF655:
 16170 0725 7573625F 		.ascii	"usb_lld_prepare_transmit\000"
ARM GAS  /tmp/ccH4KobB.s 			page 291


 16170      6C6C645F 
 16170      70726570 
 16170      6172655F 
 16170      7472616E 
 16171              	.LASF263:
 16172 073e 73746B61 		.ascii	"stkalign_t\000"
 16172      6C69676E 
 16172      5F7400
 16173              	.LASF607:
 16174 0749 72785F66 		.ascii	"rx_fifo_size\000"
 16174      69666F5F 
 16174      73697A65 
 16174      00
 16175              	.LASF380:
 16176 0756 77616B65 		.ascii	"wakeup_event\000"
 16176      75705F65 
 16176      76656E74 
 16176      00
 16177              	.LASF180:
 16178 0763 76745F70 		.ascii	"vt_prev\000"
 16178      72657600 
 16179              	.LASF475:
 16180 076b 656E645F 		.ascii	"end_cb\000"
 16180      636200
 16181              	.LASF625:
 16182 0772 73657475 		.ascii	"setup_cb\000"
 16182      705F6362 
 16182      00
 16183              	.LASF4:
 16184 077b 756E7369 		.ascii	"unsigned char\000"
 16184      676E6564 
 16184      20636861 
 16184      7200
 16185              	.LASF73:
 16186 0789 5F737464 		.ascii	"_stdout\000"
 16186      6F757400 
 16187              	.LASF304:
 16188 0791 6576656E 		.ascii	"event_listener\000"
 16188      745F6C69 
 16188      7374656E 
 16188      657200
 16189              	.LASF374:
 16190 07a0 74787175 		.ascii	"txqueue\000"
 16190      65756500 
 16191              	.LASF277:
 16192 07a8 735F636E 		.ascii	"s_cnt\000"
 16192      7400
 16193              	.LASF168:
 16194 07ae 72656164 		.ascii	"ready_list_t\000"
 16194      795F6C69 
 16194      73745F74 
 16194      00
 16195              	.LASF143:
 16196 07bb 63685F74 		.ascii	"ch_thread\000"
 16196      68726561 
 16196      6400
 16197              	.LASF394:
ARM GAS  /tmp/ccH4KobB.s 			page 292


 16198 07c5 4F504D4F 		.ascii	"OPMODE_SMBUS_HOST\000"
 16198      44455F53 
 16198      4D425553 
 16198      5F484F53 
 16198      5400
 16199              	.LASF115:
 16200 07d7 5F6D6273 		.ascii	"_mbsrtowcs_state\000"
 16200      72746F77 
 16200      63735F73 
 16200      74617465 
 16200      00
 16201              	.LASF642:
 16202 07e8 65703073 		.ascii	"ep0setup_buffer\000"
 16202      65747570 
 16202      5F627566 
 16202      66657200 
 16203              	.LASF246:
 16204 07f8 41484233 		.ascii	"AHB3LPENR\000"
 16204      4C50454E 
 16204      5200
 16205              	.LASF30:
 16206 0802 5F776473 		.ascii	"_wds\000"
 16206      00
 16207              	.LASF326:
 16208 0807 666C6F61 		.ascii	"float\000"
 16208      7400
 16209              	.LASF369:
 16210 080d 43414E5F 		.ascii	"CAN_SLEEP\000"
 16210      534C4545 
 16210      5000
 16211              	.LASF52:
 16212 0817 5F73697A 		.ascii	"_size\000"
 16212      6500
 16213              	.LASF187:
 16214 081d 73797374 		.ascii	"system_debug_t\000"
 16214      656D5F64 
 16214      65627567 
 16214      5F7400
 16215              	.LASF426:
 16216 082c 44494552 		.ascii	"DIER\000"
 16216      00
 16217              	.LASF245:
 16218 0831 41484232 		.ascii	"AHB2LPENR\000"
 16218      4C50454E 
 16218      5200
 16219              	.LASF147:
 16220 083b 705F6374 		.ascii	"p_ctx\000"
 16220      7800
 16221              	.LASF183:
 16222 0841 76745F70 		.ascii	"vt_par\000"
 16222      617200
 16223              	.LASF59:
 16224 0848 5F777269 		.ascii	"_write\000"
 16224      746500
 16225              	.LASF256:
 16226 084f 54584352 		.ascii	"TXCRCR\000"
 16226      435200
ARM GAS  /tmp/ccH4KobB.s 			page 293


 16227              	.LASF658:
 16228 0856 7573625F 		.ascii	"usb_lld_read_setup\000"
 16228      6C6C645F 
 16228      72656164 
 16228      5F736574 
 16228      757000
 16229              	.LASF398:
 16230 0869 46415354 		.ascii	"FAST_DUTY_CYCLE_16_9\000"
 16230      5F445554 
 16230      595F4359 
 16230      434C455F 
 16230      31365F39 
 16231              	.LASF683:
 16232 087e 6F74675F 		.ascii	"otg_do_pop\000"
 16232      646F5F70 
 16232      6F7000
 16233              	.LASF654:
 16234 0889 7573625F 		.ascii	"usb_lld_start_out\000"
 16234      6C6C645F 
 16234      73746172 
 16234      745F6F75 
 16234      7400
 16235              	.LASF446:
 16236 089b 6F766572 		.ascii	"overflow_cb\000"
 16236      666C6F77 
 16236      5F636200 
 16237              	.LASF130:
 16238 08a7 75696E74 		.ascii	"uint64_t\000"
 16238      36345F74 
 16238      00
 16239              	.LASF301:
 16240 08b0 63685F64 		.ascii	"ch_debug\000"
 16240      65627567 
 16240      00
 16241              	.LASF213:
 16242 08b9 464D3152 		.ascii	"FM1R\000"
 16242      00
 16243              	.LASF362:
 16244 08be 50414C43 		.ascii	"PALConfig\000"
 16244      6F6E6669 
 16244      6700
 16245              	.LASF616:
 16246 08c8 7478636E 		.ascii	"txcnt\000"
 16246      7400
 16247              	.LASF529:
 16248 08ce 75736265 		.ascii	"usbeventcb_t\000"
 16248      76656E74 
 16248      63625F74 
 16248      00
 16249              	.LASF38:
 16250 08db 5F5F746D 		.ascii	"__tm_year\000"
 16250      5F796561 
 16250      7200
 16251              	.LASF303:
 16252 08e5 6576656E 		.ascii	"event_listener_t\000"
 16252      745F6C69 
 16252      7374656E 
ARM GAS  /tmp/ccH4KobB.s 			page 294


 16252      65725F74 
 16252      00
 16253              	.LASF608:
 16254 08f6 6F74675F 		.ascii	"otg_ram_size\000"
 16254      72616D5F 
 16254      73697A65 
 16254      00
 16255              	.LASF696:
 16256 0903 6F74675F 		.ascii	"otg_core_reset\000"
 16256      636F7265 
 16256      5F726573 
 16256      657400
 16257              	.LASF610:
 16258 0912 73746D33 		.ascii	"stm32_otg_params_t\000"
 16258      325F6F74 
 16258      675F7061 
 16258      72616D73 
 16258      5F7400
 16259              	.LASF602:
 16260 0925 72657376 		.ascii	"resvdD00\000"
 16260      64443030 
 16260      00
 16261              	.LASF255:
 16262 092e 52584352 		.ascii	"RXCRCR\000"
 16262      435200
 16263              	.LASF619:
 16264 0935 72786275 		.ascii	"rxbuf\000"
 16264      6600
 16265              	.LASF98:
 16266 093b 5F6D756C 		.ascii	"_mult\000"
 16266      7400
 16267              	.LASF278:
 16268 0941 63685F6D 		.ascii	"ch_mutex\000"
 16268      75746578 
 16268      00
 16269              	.LASF693:
 16270 094a 6669666F 		.ascii	"fifo\000"
 16270      00
 16271              	.LASF377:
 16272 094f 7478656D 		.ascii	"txempty_event\000"
 16272      7074795F 
 16272      6576656E 
 16272      7400
 16273              	.LASF235:
 16274 095d 41484232 		.ascii	"AHB2RSTR\000"
 16274      52535452 
 16274      00
 16275              	.LASF359:
 16276 0966 50474461 		.ascii	"PGData\000"
 16276      746100
 16277              	.LASF732:
 16278 096d 474E5520 		.ascii	"GNU C99 7.3.1 20180622 (release) [ARM/embedded-7-br"
 16278      43393920 
 16278      372E332E 
 16278      31203230 
 16278      31383036 
 16279 09a0 616E6368 		.ascii	"anch revision 261907] -mcpu=cortex-m4 -mfloat-abi=h"
ARM GAS  /tmp/ccH4KobB.s 			page 295


 16279      20726576 
 16279      6973696F 
 16279      6E203236 
 16279      31393037 
 16280 09d3 61726420 		.ascii	"ard -mfpu=fpv4-sp-d16 -mno-thumb-interwork -mthumb "
 16280      2D6D6670 
 16280      753D6670 
 16280      76342D73 
 16280      702D6431 
 16281 0a06 2D676764 		.ascii	"-ggdb -O2 -std=gnu99 -fomit-frame-pointer -falign-f"
 16281      62202D4F 
 16281      32202D73 
 16281      74643D67 
 16281      6E753939 
 16282 0a39 756E6374 		.ascii	"unctions=16 -ffunction-sections -fdata-sections -fn"
 16282      696F6E73 
 16282      3D313620 
 16282      2D666675 
 16282      6E637469 
 16283 0a6c 6F2D636F 		.ascii	"o-common -fsingle-precision-constant\000"
 16283      6D6D6F6E 
 16283      202D6673 
 16283      696E676C 
 16283      652D7072 
 16284              	.LASF113:
 16285 0a91 5F6D6272 		.ascii	"_mbrlen_state\000"
 16285      6C656E5F 
 16285      73746174 
 16285      6500
 16286              	.LASF719:
 16287 0a9f 76616C75 		.ascii	"value\000"
 16287      6500
 16288              	.LASF291:
 16289 0aa5 63665F6F 		.ascii	"cf_off_newer\000"
 16289      66665F6E 
 16289      65776572 
 16289      00
 16290              	.LASF587:
 16291 0ab2 44494550 		.ascii	"DIEPMSK\000"
 16291      4D534B00 
 16292              	.LASF554:
 16293 0aba 474F5447 		.ascii	"GOTGINT\000"
 16293      494E5400 
 16294              	.LASF627:
 16295 0ac2 6F75745F 		.ascii	"out_cb\000"
 16295      636200
 16296              	.LASF578:
 16297 0ac9 4841494E 		.ascii	"HAINTMSK\000"
 16297      544D534B 
 16297      00
 16298              	.LASF484:
 16299 0ad2 6F75745F 		.ascii	"out_params\000"
 16299      70617261 
 16299      6D7300
 16300              	.LASF649:
 16301 0add 7573625F 		.ascii	"usb_lld_clear_in\000"
 16301      6C6C645F 
ARM GAS  /tmp/ccH4KobB.s 			page 296


 16301      636C6561 
 16301      725F696E 
 16301      00
 16302              	.LASF72:
 16303 0aee 5F737464 		.ascii	"_stdin\000"
 16303      696E00
 16304              	.LASF120:
 16305 0af5 5F6E6D61 		.ascii	"_nmalloc\000"
 16305      6C6C6F63 
 16305      00
 16306              	.LASF448:
 16307 0afe 64696572 		.ascii	"dier\000"
 16307      00
 16308              	.LASF575:
 16309 0b03 72657376 		.ascii	"resvd40C\000"
 16309      64343043 
 16309      00
 16310              	.LASF177:
 16311 0b0c 76697274 		.ascii	"virtual_timer_t\000"
 16311      75616C5F 
 16311      74696D65 
 16311      725F7400 
 16312              	.LASF172:
 16313 0b1c 725F6374 		.ascii	"r_ctx\000"
 16313      7800
 16314              	.LASF179:
 16315 0b22 76745F6E 		.ascii	"vt_next\000"
 16315      65787400 
 16316              	.LASF131:
 16317 0b2a 7274636E 		.ascii	"rtcnt_t\000"
 16317      745F7400 
 16318              	.LASF406:
 16319 0b32 6D757465 		.ascii	"mutex\000"
 16319      7800
 16320              	.LASF688:
 16321 0b38 73697A65 		.ascii	"size\000"
 16321      00
 16322              	.LASF495:
 16323 0b3d 74787065 		.ascii	"txpending\000"
 16323      6E64696E 
 16323      6700
 16324              	.LASF421:
 16325 0b47 636C6F63 		.ascii	"clock\000"
 16325      6B00
 16326              	.LASF336:
 16327 0b4d 636C6561 		.ascii	"clear\000"
 16327      7200
 16328              	.LASF433:
 16329 0b53 43435852 		.ascii	"CCXR\000"
 16329      00
 16330              	.LASF222:
 16331 0b58 43414E5F 		.ascii	"CAN_TypeDef\000"
 16331      54797065 
 16331      44656600 
 16332              	.LASF16:
 16333 0b64 5F6F6666 		.ascii	"_off_t\000"
 16333      5F7400
ARM GAS  /tmp/ccH4KobB.s 			page 297


 16334              	.LASF542:
 16335 0b6b 72657376 		.ascii	"resvd4\000"
 16335      643400
 16336              	.LASF452:
 16337 0b72 53445F53 		.ascii	"SD_STOP\000"
 16337      544F5000 
 16338              	.LASF533:
 16339 0b7a 72657376 		.ascii	"resvd8\000"
 16339      643800
 16340              	.LASF2:
 16341 0b81 73697A65 		.ascii	"size_t\000"
 16341      5F7400
 16342              	.LASF103:
 16343 0b88 5F6C6F63 		.ascii	"_localtime_buf\000"
 16343      616C7469 
 16343      6D655F62 
 16343      756600
 16344              	.LASF600:
 16345 0b97 72657376 		.ascii	"resvd880\000"
 16345      64383830 
 16345      00
 16346              	.LASF21:
 16347 0ba0 5F5F636F 		.ascii	"__count\000"
 16347      756E7400 
 16348              	.LASF126:
 16349 0ba8 75696E74 		.ascii	"uint8_t\000"
 16349      385F7400 
 16350              	.LASF653:
 16351 0bb0 7573625F 		.ascii	"usb_lld_start_in\000"
 16351      6C6C645F 
 16351      73746172 
 16351      745F696E 
 16351      00
 16352              	.LASF537:
 16353 0bc1 72657376 		.ascii	"resvd14\000"
 16353      64313400 
 16354              	.LASF365:
 16355 0bc9 43414E5F 		.ascii	"CAN_UNINIT\000"
 16355      554E494E 
 16355      495400
 16356              	.LASF538:
 16357 0bd4 72657376 		.ascii	"resvd18\000"
 16357      64313800 
 16358              	.LASF174:
 16359 0bdc 725F6F6C 		.ascii	"r_older\000"
 16359      64657200 
 16360              	.LASF145:
 16361 0be4 705F7072 		.ascii	"p_prev\000"
 16361      657600
 16362              	.LASF293:
 16363 0beb 63665F6F 		.ascii	"cf_off_name\000"
 16363      66665F6E 
 16363      616D6500 
 16364              	.LASF596:
 16365 0bf7 44494550 		.ascii	"DIEPEMPMSK\000"
 16365      454D504D 
 16365      534B00
ARM GAS  /tmp/ccH4KobB.s 			page 298


 16366              	.LASF506:
 16367 0c02 45505F53 		.ascii	"EP_STATUS_STALLED\000"
 16367      54415455 
 16367      535F5354 
 16367      414C4C45 
 16367      4400
 16368              	.LASF541:
 16369 0c14 44494550 		.ascii	"DIEPCTL\000"
 16369      43544C00 
 16370              	.LASF309:
 16371 0c1c 656C5F77 		.ascii	"el_wflags\000"
 16371      666C6167 
 16371      7300
 16372              	.LASF493:
 16373 0c26 6F746770 		.ascii	"otgparams\000"
 16373      6172616D 
 16373      7300
 16374              	.LASF269:
 16375 0c30 65786974 		.ascii	"exitcode\000"
 16375      636F6465 
 16375      00
 16376              	.LASF356:
 16377 0c39 50444461 		.ascii	"PDData\000"
 16377      746100
 16378              	.LASF664:
 16379 0c40 7573625F 		.ascii	"usb_lld_set_address\000"
 16379      6C6C645F 
 16379      7365745F 
 16379      61646472 
 16379      65737300 
 16380              	.LASF682:
 16381 0c54 6F74675F 		.ascii	"otg_txfifo_handler\000"
 16381      74786669 
 16381      666F5F68 
 16381      616E646C 
 16381      657200
 16382              	.LASF86:
 16383 0c67 5F637674 		.ascii	"_cvtbuf\000"
 16383      62756600 
 16384              	.LASF631:
 16385 0c6f 6F75745F 		.ascii	"out_state\000"
 16385      73746174 
 16385      6500
 16386              	.LASF313:
 16387 0c79 696F5F71 		.ascii	"io_queue_t\000"
 16387      75657565 
 16387      5F7400
 16388              	.LASF667:
 16389 0c84 7573625F 		.ascii	"usb_lld_start\000"
 16389      6C6C645F 
 16389      73746172 
 16389      7400
 16390              	.LASF384:
 16391 0c92 4932435F 		.ascii	"I2C_STOP\000"
 16391      53544F50 
 16391      00
 16392              	.LASF408:
ARM GAS  /tmp/ccH4KobB.s 			page 299


 16393 0c9b 61646472 		.ascii	"addr\000"
 16393      00
 16394              	.LASF699:
 16395 0ca0 6F73616C 		.ascii	"osalThreadSuspendS\000"
 16395      54687265 
 16395      61645375 
 16395      7370656E 
 16395      645300
 16396              	.LASF207:
 16397 0cb3 52463052 		.ascii	"RF0R\000"
 16397      00
 16398              	.LASF709:
 16399 0cb8 63685468 		.ascii	"chThdStartI\000"
 16399      64537461 
 16399      72744900 
 16400              	.LASF378:
 16401 0cc4 6572726F 		.ascii	"error_event\000"
 16401      725F6576 
 16401      656E7400 
 16402              	.LASF260:
 16403 0cd0 47545052 		.ascii	"GTPR\000"
 16403      00
 16404              	.LASF339:
 16405 0cd5 4F535045 		.ascii	"OSPEEDR\000"
 16405      45445200 
 16406              	.LASF565:
 16407 0cdd 72657376 		.ascii	"resvd30\000"
 16407      64333000 
 16408              	.LASF20:
 16409 0ce5 5F5F7763 		.ascii	"__wchb\000"
 16409      686200
 16410              	.LASF114:
 16411 0cec 5F6D6272 		.ascii	"_mbrtowc_state\000"
 16411      746F7763 
 16411      5F737461 
 16411      746500
 16412              	.LASF450:
 16413 0cfb 49435544 		.ascii	"ICUD4\000"
 16413      3400
 16414              	.LASF687:
 16415 0d01 6F74675F 		.ascii	"otg_ram_alloc\000"
 16415      72616D5F 
 16415      616C6C6F 
 16415      6300
 16416              	.LASF35:
 16417 0d0f 5F5F746D 		.ascii	"__tm_hour\000"
 16417      5F686F75 
 16417      7200
 16418              	.LASF460:
 16419 0d19 53657269 		.ascii	"SerialDriverVMT\000"
 16419      616C4472 
 16419      69766572 
 16419      564D5400 
 16420              	.LASF515:
 16421 0d29 5553425F 		.ascii	"USB_EP0_ERROR\000"
 16421      4550305F 
 16421      4552524F 
ARM GAS  /tmp/ccH4KobB.s 			page 300


 16421      5200
 16422              	.LASF18:
 16423 0d37 77696E74 		.ascii	"wint_t\000"
 16423      5F7400
 16424              	.LASF87:
 16425 0d3e 5F6E6577 		.ascii	"_new\000"
 16425      00
 16426              	.LASF604:
 16427 0d43 72657376 		.ascii	"resvdE04\000"
 16427      64453034 
 16427      00
 16428              	.LASF609:
 16429 0d4c 6E756D5F 		.ascii	"num_endpoints\000"
 16429      656E6470 
 16429      6F696E74 
 16429      7300
 16430              	.LASF617:
 16431 0d5a 746F7473 		.ascii	"totsize\000"
 16431      697A6500 
 16432              	.LASF94:
 16433 0d62 5F6E696F 		.ascii	"_niobs\000"
 16433      627300
 16434              	.LASF294:
 16435 0d69 63665F6F 		.ascii	"cf_off_stklimit\000"
 16435      66665F73 
 16435      746B6C69 
 16435      6D697400 
 16436              	.LASF531:
 16437 0d79 75736267 		.ascii	"usbgetdescriptor_t\000"
 16437      65746465 
 16437      73637269 
 16437      70746F72 
 16437      5F7400
 16438              	.LASF175:
 16439 0d8c 725F6375 		.ascii	"r_current\000"
 16439      7272656E 
 16439      7400
 16440              	.LASF71:
 16441 0d96 5F657272 		.ascii	"_errno\000"
 16441      6E6F00
 16442              	.LASF510:
 16443 0d9d 5553425F 		.ascii	"USB_EP0_TX\000"
 16443      4550305F 
 16443      545800
 16444              	.LASF485:
 16445 0da8 65703073 		.ascii	"ep0state\000"
 16445      74617465 
 16445      00
 16446              	.LASF36:
 16447 0db1 5F5F746D 		.ascii	"__tm_mday\000"
 16447      5F6D6461 
 16447      7900
 16448              	.LASF330:
 16449 0dbb 69666372 		.ascii	"ifcr\000"
 16449      00
 16450              	.LASF669:
 16451 0dc0 56656374 		.ascii	"Vector14C\000"
ARM GAS  /tmp/ccH4KobB.s 			page 301


 16451      6F723134 
 16451      4300
 16452              	.LASF629:
 16453 0dca 6F75745F 		.ascii	"out_maxsize\000"
 16453      6D617873 
 16453      697A6500 
 16454              	.LASF345:
 16455 0dd6 73746D33 		.ascii	"stm32_gpio_t\000"
 16455      325F6770 
 16455      696F5F74 
 16455      00
 16456              	.LASF268:
 16457 0de3 7264796D 		.ascii	"rdymsg\000"
 16457      736700
 16458              	.LASF43:
 16459 0dea 5F666E61 		.ascii	"_fnargs\000"
 16459      72677300 
 16460              	.LASF198:
 16461 0df2 54445452 		.ascii	"TDTR\000"
 16461      00
 16462              	.LASF731:
 16463 0df7 5F706F72 		.ascii	"_port_irq_epilogue\000"
 16463      745F6972 
 16463      715F6570 
 16463      696C6F67 
 16463      756500
 16464              	.LASF206:
 16465 0e0a 43414E5F 		.ascii	"CAN_FilterRegister_TypeDef\000"
 16465      46696C74 
 16465      65725265 
 16465      67697374 
 16465      65725F54 
 16466              	.LASF568:
 16467 0e25 72657376 		.ascii	"resvd58\000"
 16467      64353800 
 16468              	.LASF618:
 16469 0e2d 55534249 		.ascii	"USBInEndpointState\000"
 16469      6E456E64 
 16469      706F696E 
 16469      74537461 
 16469      746500
 16470              	.LASF146:
 16471 0e40 705F7072 		.ascii	"p_prio\000"
 16471      696F00
 16472              	.LASF314:
 16473 0e47 696F5F71 		.ascii	"io_queue\000"
 16473      75657565 
 16473      00
 16474              	.LASF353:
 16475 0e50 50414461 		.ascii	"PAData\000"
 16475      746100
 16476              	.LASF13:
 16477 0e57 5F5F7569 		.ascii	"__uint64_t\000"
 16477      6E743634 
 16477      5F7400
 16478              	.LASF651:
 16479 0e62 7573625F 		.ascii	"usb_lld_stall_in\000"
ARM GAS  /tmp/ccH4KobB.s 			page 302


 16479      6C6C645F 
 16479      7374616C 
 16479      6C5F696E 
 16479      00
 16480              	.LASF27:
 16481 0e73 5F6E6578 		.ascii	"_next\000"
 16481      7400
 16482              	.LASF514:
 16483 0e79 5553425F 		.ascii	"USB_EP0_SENDING_STS\000"
 16483      4550305F 
 16483      53454E44 
 16483      494E475F 
 16483      53545300 
 16484              	.LASF111:
 16485 0e8d 5F736967 		.ascii	"_signal_buf\000"
 16485      6E616C5F 
 16485      62756600 
 16486              	.LASF445:
 16487 0e99 70657269 		.ascii	"period_cb\000"
 16487      6F645F63 
 16487      6200
 16488              	.LASF389:
 16489 0ea3 69326373 		.ascii	"i2cstate_t\000"
 16489      74617465 
 16489      5F7400
 16490              	.LASF57:
 16491 0eae 5F636F6F 		.ascii	"_cookie\000"
 16491      6B696500 
 16492              	.LASF697:
 16493 0eb6 6F73616C 		.ascii	"osalThreadDequeueAllI\000"
 16493      54687265 
 16493      61644465 
 16493      71756575 
 16493      65416C6C 
 16494              	.LASF516:
 16495 0ecc 75736265 		.ascii	"usbep0state_t\000"
 16495      70307374 
 16495      6174655F 
 16495      7400
 16496              	.LASF210:
 16497 0eda 7354784D 		.ascii	"sTxMailBox\000"
 16497      61696C42 
 16497      6F7800
 16498              	.LASF470:
 16499 0ee5 5350495F 		.ascii	"SPI_ACTIVE\000"
 16499      41435449 
 16499      564500
 16500              	.LASF317:
 16501 0ef0 715F6275 		.ascii	"q_buffer\000"
 16501      66666572 
 16501      00
 16502              	.LASF238:
 16503 0ef9 41504232 		.ascii	"APB2RSTR\000"
 16503      52535452 
 16503      00
 16504              	.LASF144:
 16505 0f02 705F6E65 		.ascii	"p_next\000"
ARM GAS  /tmp/ccH4KobB.s 			page 303


 16505      787400
 16506              	.LASF413:
 16507 0f09 49324344 		.ascii	"I2CD2\000"
 16507      3200
 16508              	.LASF480:
 16509 0f0f 55534244 		.ascii	"USBDriver\000"
 16509      72697665 
 16509      7200
 16510              	.LASF601:
 16511 0f19 72657376 		.ascii	"resvd8C0\000"
 16511      64384330 
 16511      00
 16512              	.LASF639:
 16513 0f22 55534243 		.ascii	"USBConfig\000"
 16513      6F6E6669 
 16513      6700
 16514              	.LASF544:
 16515 0f2c 72657376 		.ascii	"resvdC\000"
 16515      644300
 16516              	.LASF447:
 16517 0f33 6368616E 		.ascii	"channel\000"
 16517      6E656C00 
 16518              	.LASF247:
 16519 0f3b 41504231 		.ascii	"APB1LPENR\000"
 16519      4C50454E 
 16519      5200
 16520              	.LASF458:
 16521 0f45 6F717565 		.ascii	"oqueue\000"
 16521      756500
 16522              	.LASF134:
 16523 0f4c 74726566 		.ascii	"trefs_t\000"
 16523      735F7400 
 16524              	.LASF162:
 16525 0f54 705F6D70 		.ascii	"p_mpool\000"
 16525      6F6F6C00 
 16526              	.LASF231:
 16527 0f5c 4932435F 		.ascii	"I2C_TypeDef\000"
 16527      54797065 
 16527      44656600 
 16528              	.LASF692:
 16529 0f68 6F74675F 		.ascii	"otg_txfifo_flush\000"
 16529      74786669 
 16529      666F5F66 
 16529      6C757368 
 16529      00
 16530              	.LASF33:
 16531 0f79 5F5F746D 		.ascii	"__tm_sec\000"
 16531      5F736563 
 16531      00
 16532              	.LASF632:
 16533 0f82 696E5F6D 		.ascii	"in_multiplier\000"
 16533      756C7469 
 16533      706C6965 
 16533      7200
 16534              	.LASF42:
 16535 0f90 5F6F6E5F 		.ascii	"_on_exit_args\000"
 16535      65786974 
ARM GAS  /tmp/ccH4KobB.s 			page 304


 16535      5F617267 
 16535      7300
 16536              	.LASF264:
 16537 0f9e 636F6E74 		.ascii	"context\000"
 16537      65787400 
 16538              	.LASF132:
 16539 0fa6 746D6F64 		.ascii	"tmode_t\000"
 16539      655F7400 
 16540              	.LASF241:
 16541 0fae 41484233 		.ascii	"AHB3ENR\000"
 16541      454E5200 
 16542              	.LASF585:
 16543 0fb6 44535453 		.ascii	"DSTS\000"
 16543      00
 16544              	.LASF341:
 16545 0fbb 42535252 		.ascii	"BSRR\000"
 16545      00
 16546              	.LASF334:
 16547 0fc0 73746D33 		.ascii	"stm32_dma_stream_t\000"
 16547      325F646D 
 16547      615F7374 
 16547      7265616D 
 16547      5F7400
 16548              	.LASF637:
 16549 0fd3 72657175 		.ascii	"requests_hook_cb\000"
 16549      65737473 
 16549      5F686F6F 
 16549      6B5F6362 
 16549      00
 16550              	.LASF116:
 16551 0fe4 5F776372 		.ascii	"_wcrtomb_state\000"
 16551      746F6D62 
 16551      5F737461 
 16551      746500
 16552              	.LASF615:
 16553 0ff3 74787369 		.ascii	"txsize\000"
 16553      7A6500
 16554              	.LASF279:
 16555 0ffa 6D5F7175 		.ascii	"m_queue\000"
 16555      65756500 
 16556              	.LASF388:
 16557 1002 4932435F 		.ascii	"I2C_LOCKED\000"
 16557      4C4F434B 
 16557      454400
 16558              	.LASF444:
 16559 100d 77696474 		.ascii	"width_cb\000"
 16559      685F6362 
 16559      00
 16560              	.LASF501:
 16561 1016 5553425F 		.ascii	"USB_READY\000"
 16561      52454144 
 16561      5900
 16562              	.LASF466:
 16563 1020 72656164 		.ascii	"readt\000"
 16563      7400
 16564              	.LASF557:
 16565 1026 47525354 		.ascii	"GRSTCTL\000"
ARM GAS  /tmp/ccH4KobB.s 			page 305


 16565      43544C00 
 16566              	.LASF26:
 16567 102e 5F5F554C 		.ascii	"__ULong\000"
 16567      6F6E6700 
 16568              	.LASF189:
 16569 1036 70616E69 		.ascii	"panic_msg\000"
 16569      635F6D73 
 16569      6700
 16570              	.LASF471:
 16571 1040 5350495F 		.ascii	"SPI_COMPLETE\000"
 16571      434F4D50 
 16571      4C455445 
 16571      00
 16572              	.LASF173:
 16573 104d 725F6E65 		.ascii	"r_newer\000"
 16573      77657200 
 16574              	.LASF522:
 16575 1055 5553425F 		.ascii	"USB_EVENT_STALLED\000"
 16575      4556454E 
 16575      545F5354 
 16575      414C4C45 
 16575      4400
 16576              	.LASF722:
 16577 1067 63685468 		.ascii	"chThdSuspendS\000"
 16577      64537573 
 16577      70656E64 
 16577      5300
 16578              	.LASF239:
 16579 1075 41484231 		.ascii	"AHB1ENR\000"
 16579      454E5200 
 16580              	.LASF300:
 16581 107d 63686465 		.ascii	"chdebug_t\000"
 16581      6275675F 
 16581      7400
 16582              	.LASF715:
 16583 1087 706F7274 		.ascii	"port_lock_from_isr\000"
 16583      5F6C6F63 
 16583      6B5F6672 
 16583      6F6D5F69 
 16583      737200
 16584              	.LASF621:
 16585 109a 72787369 		.ascii	"rxsize\000"
 16585      7A6500
 16586              	.LASF661:
 16587 10a1 7573625F 		.ascii	"usb_lld_disable_endpoints\000"
 16587      6C6C645F 
 16587      64697361 
 16587      626C655F 
 16587      656E6470 
 16588              	.LASF417:
 16589 10bb 4943555F 		.ascii	"ICU_WAITING\000"
 16589      57414954 
 16589      494E4700 
 16590              	.LASF536:
 16591 10c7 48435453 		.ascii	"HCTSIZ\000"
 16591      495A00
 16592              	.LASF519:
ARM GAS  /tmp/ccH4KobB.s 			page 306


 16593 10ce 5553425F 		.ascii	"USB_EVENT_CONFIGURED\000"
 16593      4556454E 
 16593      545F434F 
 16593      4E464947 
 16593      55524544 
 16594              	.LASF463:
 16595 10e3 70757474 		.ascii	"putt\000"
 16595      00
 16596              	.LASF135:
 16597 10e8 74736C69 		.ascii	"tslices_t\000"
 16597      6365735F 
 16597      7400
 16598              	.LASF101:
 16599 10f2 5F737472 		.ascii	"_strtok_last\000"
 16599      746F6B5F 
 16599      6C617374 
 16599      00
 16600              	.LASF287:
 16601 10ff 63685F74 		.ascii	"ch_timesize\000"
 16601      696D6573 
 16601      697A6500 
 16602              	.LASF665:
 16603 110b 7573625F 		.ascii	"usb_lld_reset\000"
 16603      6C6C645F 
 16603      72657365 
 16603      7400
 16604              	.LASF233:
 16605 1119 43464752 		.ascii	"CFGR\000"
 16605      00
 16606              	.LASF497:
 16607 111e 77615F70 		.ascii	"wa_pump\000"
 16607      756D7000 
 16608              	.LASF312:
 16609 1126 6576656E 		.ascii	"event_source_t\000"
 16609      745F736F 
 16609      75726365 
 16609      5F7400
 16610              	.LASF571:
 16611 1135 72657376 		.ascii	"resvd140\000"
 16611      64313430 
 16611      00
 16612              	.LASF181:
 16613 113e 76745F64 		.ascii	"vt_delta\000"
 16613      656C7461 
 16613      00
 16614              	.LASF659:
 16615 1147 7573625F 		.ascii	"usb_lld_get_status_in\000"
 16615      6C6C645F 
 16615      6765745F 
 16615      73746174 
 16615      75735F69 
 16616              	.LASF97:
 16617 115d 5F736565 		.ascii	"_seed\000"
 16617      6400
 16618              	.LASF60:
 16619 1163 5F736565 		.ascii	"_seek\000"
 16619      6B00
ARM GAS  /tmp/ccH4KobB.s 			page 307


 16620              	.LASF520:
 16621 1169 5553425F 		.ascii	"USB_EVENT_SUSPEND\000"
 16621      4556454E 
 16621      545F5355 
 16621      5350454E 
 16621      4400
 16622              	.LASF549:
 16623 117b 444F4550 		.ascii	"DOEPCTL\000"
 16623      43544C00 
 16624              	.LASF7:
 16625 1183 73686F72 		.ascii	"short unsigned int\000"
 16625      7420756E 
 16625      7369676E 
 16625      65642069 
 16625      6E7400
 16626              	.LASF1:
 16627 1196 7369676E 		.ascii	"signed char\000"
 16627      65642063 
 16627      68617200 
 16628              	.LASF154:
 16629 11a2 705F7072 		.ascii	"p_preempt\000"
 16629      65656D70 
 16629      7400
 16630              	.LASF155:
 16631 11ac 705F7469 		.ascii	"p_time\000"
 16631      6D6500
 16632              	.LASF200:
 16633 11b3 54444852 		.ascii	"TDHR\000"
 16633      00
 16634              	.LASF663:
 16635 11b8 6673697A 		.ascii	"fsize\000"
 16635      6500
 16636              	.LASF513:
 16637 11be 5553425F 		.ascii	"USB_EP0_RX\000"
 16637      4550305F 
 16637      525800
 16638              	.LASF490:
 16639 11c9 73746174 		.ascii	"status\000"
 16639      757300
 16640              	.LASF251:
 16641 11d0 53534347 		.ascii	"SSCGR\000"
 16641      5200
 16642              	.LASF526:
 16643 11d6 55534244 		.ascii	"USBDescriptor\000"
 16643      65736372 
 16643      6970746F 
 16643      7200
 16644              	.LASF677:
 16645 11e4 6669666F 		.ascii	"fifop\000"
 16645      7000
 16646              	.LASF84:
 16647 11ea 5F667265 		.ascii	"_freelist\000"
 16647      656C6973 
 16647      7400
 16648              	.LASF727:
 16649 11f4 63685468 		.ascii	"chThdCreateI\000"
 16649      64437265 
ARM GAS  /tmp/ccH4KobB.s 			page 308


 16649      61746549 
 16649      00
 16650              	.LASF491:
 16651 1201 61646472 		.ascii	"address\000"
 16651      65737300 
 16652              	.LASF157:
 16653 1209 705F6D73 		.ascii	"p_msgqueue\000"
 16653      67717565 
 16653      756500
 16654              	.LASF297:
 16655 1214 63665F6F 		.ascii	"cf_off_refs\000"
 16655      66665F72 
 16655      65667300 
 16656              	.LASF295:
 16657 1220 63665F6F 		.ascii	"cf_off_state\000"
 16657      66665F73 
 16657      74617465 
 16657      00
 16658              	.LASF280:
 16659 122d 6D5F6F77 		.ascii	"m_owner\000"
 16659      6E657200 
 16660              	.LASF65:
 16661 1235 5F6F6666 		.ascii	"_offset\000"
 16661      73657400 
 16662              	.LASF197:
 16663 123d 53797374 		.ascii	"SystemCoreClock\000"
 16663      656D436F 
 16663      7265436C 
 16663      6F636B00 
 16664              	.LASF704:
 16665 124d 6F73616C 		.ascii	"osalSysLockFromISR\000"
 16665      5379734C 
 16665      6F636B46 
 16665      726F6D49 
 16665      535200
 16666              	.LASF728:
 16667 1260 7573624F 		.ascii	"usbObjectInit\000"
 16667      626A6563 
 16667      74496E69 
 16667      7400
 16668              	.LASF372:
 16669 126e 73746174 		.ascii	"state\000"
 16669      6500
 16670              	.LASF285:
 16671 1274 63685F76 		.ascii	"ch_version\000"
 16671      65727369 
 16671      6F6E00
 16672              	.LASF50:
 16673 127f 5F5F7362 		.ascii	"__sbuf\000"
 16673      756600
 16674              	.LASF512:
 16675 1286 5553425F 		.ascii	"USB_EP0_WAITING_STS\000"
 16675      4550305F 
 16675      57414954 
 16675      494E475F 
 16675      53545300 
 16676              	.LASF110:
ARM GAS  /tmp/ccH4KobB.s 			page 309


 16677 129a 5F6C3634 		.ascii	"_l64a_buf\000"
 16677      615F6275 
 16677      6600
 16678              	.LASF668:
 16679 12a4 7573625F 		.ascii	"usb_lld_init\000"
 16679      6C6C645F 
 16679      696E6974 
 16679      00
 16680              	.LASF204:
 16681 12b1 52444852 		.ascii	"RDHR\000"
 16681      00
 16682              	.LASF431:
 16683 12b6 444D4152 		.ascii	"DMAR\000"
 16683      00
 16684              	.LASF191:
 16685 12bb 63685F73 		.ascii	"ch_system\000"
 16685      79737465 
 16685      6D00
 16686              	.LASF252:
 16687 12c5 504C4C49 		.ascii	"PLLI2SCFGR\000"
 16687      32534346 
 16687      475200
 16688              	.LASF102:
 16689 12d0 5F617363 		.ascii	"_asctime_buf\000"
 16689      74696D65 
 16689      5F627566 
 16689      00
 16690              	.LASF671:
 16691 12dd 7573625F 		.ascii	"usb_lld_serve_interrupt\000"
 16691      6C6C645F 
 16691      73657276 
 16691      655F696E 
 16691      74657272 
 16692              	.LASF19:
 16693 12f5 5F5F7763 		.ascii	"__wch\000"
 16693      6800
 16694              	.LASF275:
 16695 12fb 63685F73 		.ascii	"ch_semaphore\000"
 16695      656D6170 
 16695      686F7265 
 16695      00
 16696              	.LASF117:
 16697 1308 5F776373 		.ascii	"_wcsrtombs_state\000"
 16697      72746F6D 
 16697      62735F73 
 16697      74617465 
 16697      00
 16698              	.LASF686:
 16699 1319 6F74675F 		.ascii	"otg_do_push\000"
 16699      646F5F70 
 16699      75736800 
 16700              	.LASF545:
 16701 1325 44494550 		.ascii	"DIEPTSIZ\000"
 16701      5453495A 
 16701      00
 16702              	.LASF716:
 16703 132e 706F7274 		.ascii	"port_unlock\000"
ARM GAS  /tmp/ccH4KobB.s 			page 310


 16703      5F756E6C 
 16703      6F636B00 
 16704              	.LASF166:
 16705 133a 74687265 		.ascii	"threads_queue_t\000"
 16705      6164735F 
 16705      71756575 
 16705      655F7400 
 16706              	.LASF153:
 16707 134a 705F7265 		.ascii	"p_refs\000"
 16707      667300
 16708              	.LASF624:
 16709 1351 65705F6D 		.ascii	"ep_mode\000"
 16709      6F646500 
 16710              	.LASF552:
 16711 1359 73746D33 		.ascii	"stm32_otg_out_ep_t\000"
 16711      325F6F74 
 16711      675F6F75 
 16711      745F6570 
 16711      5F7400
 16712              	.LASF199:
 16713 136c 54444C52 		.ascii	"TDLR\000"
 16713      00
 16714              	.LASF9:
 16715 1371 6C6F6E67 		.ascii	"long int\000"
 16715      20696E74 
 16715      00
 16716              	.LASF194:
 16717 137a 6D61696E 		.ascii	"mainthread\000"
 16717      74687265 
 16717      616400
 16718              	.LASF487:
 16719 1385 6570306E 		.ascii	"ep0n\000"
 16719      00
 16720              	.LASF390:
 16721 138a 69326361 		.ascii	"i2caddr_t\000"
 16721      6464725F 
 16721      7400
 16722              	.LASF109:
 16723 1394 5F776374 		.ascii	"_wctomb_state\000"
 16723      6F6D625F 
 16723      73746174 
 16723      6500
 16724              	.LASF236:
 16725 13a2 41484233 		.ascii	"AHB3RSTR\000"
 16725      52535452 
 16725      00
 16726              	.LASF316:
 16727 13ab 715F636F 		.ascii	"q_counter\000"
 16727      756E7465 
 16727      7200
 16728              	.LASF360:
 16729 13b5 50484461 		.ascii	"PHData\000"
 16729      746100
 16730              	.LASF363:
 16731 13bc 696F706F 		.ascii	"ioportid_t\000"
 16731      72746964 
 16731      5F7400
ARM GAS  /tmp/ccH4KobB.s 			page 311


 16732              	.LASF572:
 16733 13c7 48434647 		.ascii	"HCFG\000"
 16733      00
 16734              	.LASF95:
 16735 13cc 5F696F62 		.ascii	"_iobs\000"
 16735      7300
 16736              	.LASF76:
 16737 13d2 5F656D65 		.ascii	"_emergency\000"
 16737      7267656E 
 16737      637900
 16738              	.LASF464:
 16739 13dd 67657474 		.ascii	"gett\000"
 16739      00
 16740              	.LASF271:
 16741 13e2 77747472 		.ascii	"wttrp\000"
 16741      7000
 16742              	.LASF320:
 16743 13e8 715F7264 		.ascii	"q_rdptr\000"
 16743      70747200 
 16744              	.LASF119:
 16745 13f0 5F6E6578 		.ascii	"_nextf\000"
 16745      746600
 16746              	.LASF461:
 16747 13f7 77726974 		.ascii	"write\000"
 16747      6500
 16748              	.LASF105:
 16749 13fd 5F72616E 		.ascii	"_rand_next\000"
 16749      645F6E65 
 16749      787400
 16750              	.LASF457:
 16751 1408 69717565 		.ascii	"iqueue\000"
 16751      756500
 16752              	.LASF626:
 16753 140f 696E5F63 		.ascii	"in_cb\000"
 16753      6200
 16754              	.LASF550:
 16755 1415 444F4550 		.ascii	"DOEPINT\000"
 16755      494E5400 
 16756              	.LASF342:
 16757 141d 4C434B52 		.ascii	"LCKR\000"
 16757      00
 16758              	.LASF454:
 16759 1422 73647374 		.ascii	"sdstate_t\000"
 16759      6174655F 
 16759      7400
 16760              	.LASF129:
 16761 142c 75696E74 		.ascii	"uint32_t\000"
 16761      33325F74 
 16761      00
 16762              	.LASF328:
 16763 1435 636F6E66 		.ascii	"conf_general_permanent_nrf_found\000"
 16763      5F67656E 
 16763      6572616C 
 16763      5F706572 
 16763      6D616E65 
 16764              	.LASF28:
 16765 1456 5F6D6178 		.ascii	"_maxwds\000"
ARM GAS  /tmp/ccH4KobB.s 			page 312


 16765      77647300 
 16766              	.LASF530:
 16767 145e 75736272 		.ascii	"usbreqhandler_t\000"
 16767      65716861 
 16767      6E646C65 
 16767      725F7400 
 16768              	.LASF203:
 16769 146e 52444C52 		.ascii	"RDLR\000"
 16769      00
 16770              	.LASF717:
 16771 1473 706F7274 		.ascii	"port_lock\000"
 16771      5F6C6F63 
 16771      6B00
 16772              	.LASF262:
 16773 147d 72656761 		.ascii	"regarm_t\000"
 16773      726D5F74 
 16773      00
 16774              	.LASF138:
 16775 1486 6576656E 		.ascii	"eventmask_t\000"
 16775      746D6173 
 16775      6B5F7400 
 16776              	.LASF517:
 16777 1492 5553425F 		.ascii	"USB_EVENT_RESET\000"
 16777      4556454E 
 16777      545F5245 
 16777      53455400 
 16778              	.LASF217:
 16779 14a2 46464131 		.ascii	"FFA1R\000"
 16779      5200
 16780              	.LASF208:
 16781 14a8 52463152 		.ascii	"RF1R\000"
 16781      00
 16782              	.LASF502:
 16783 14ad 5553425F 		.ascii	"USB_SELECTED\000"
 16783      53454C45 
 16783      43544544 
 16783      00
 16784              	.LASF368:
 16785 14ba 43414E5F 		.ascii	"CAN_READY\000"
 16785      52454144 
 16785      5900
 16786              	.LASF721:
 16787 14c4 63685363 		.ascii	"chSchRescheduleS\000"
 16787      68526573 
 16787      63686564 
 16787      756C6553 
 16787      00
 16788              	.LASF11:
 16789 14d5 6C6F6E67 		.ascii	"long unsigned int\000"
 16789      20756E73 
 16789      69676E65 
 16789      6420696E 
 16789      7400
 16790              	.LASF657:
 16791 14e7 7573625F 		.ascii	"usb_lld_prepare_receive\000"
 16791      6C6C645F 
 16791      70726570 
ARM GAS  /tmp/ccH4KobB.s 			page 313


 16791      6172655F 
 16791      72656365 
 16792              	.LASF647:
 16793 14ff 65706D61 		.ascii	"epmask\000"
 16793      736B00
 16794              	.LASF319:
 16795 1506 715F7772 		.ascii	"q_wrptr\000"
 16795      70747200 
 16796              	.LASF420:
 16797 150e 49435544 		.ascii	"ICUDriver\000"
 16797      72697665 
 16797      7200
 16798              	.LASF449:
 16799 1518 49435543 		.ascii	"ICUConfig\000"
 16799      6F6E6669 
 16799      6700
 16800              	.LASF518:
 16801 1522 5553425F 		.ascii	"USB_EVENT_ADDRESS\000"
 16801      4556454E 
 16801      545F4144 
 16801      44524553 
 16801      5300
 16802              	.LASF376:
 16803 1534 72786675 		.ascii	"rxfull_event\000"
 16803      6C6C5F65 
 16803      76656E74 
 16803      00
 16804              	.LASF523:
 16805 1541 75736265 		.ascii	"usbevent_t\000"
 16805      76656E74 
 16805      5F7400
 16806              	.LASF61:
 16807 154c 5F636C6F 		.ascii	"_close\000"
 16807      736500
 16808              	.LASF656:
 16809 1553 70636E74 		.ascii	"pcnt\000"
 16809      00
 16810              	.LASF25:
 16811 1558 63686172 		.ascii	"char\000"
 16811      00
 16812              	.LASF371:
 16813 155d 43414E43 		.ascii	"CANConfig\000"
 16813      6F6E6669 
 16813      6700
 16814              	.LASF357:
 16815 1567 50454461 		.ascii	"PEData\000"
 16815      746100
 16816              	.LASF170:
 16817 156e 725F7175 		.ascii	"r_queue\000"
 16817      65756500 
 16818              	.LASF93:
 16819 1576 5F676C75 		.ascii	"_glue\000"
 16819      6500
 16820              	.LASF710:
 16821 157c 63685379 		.ascii	"chSysUnlockFromISR\000"
 16821      73556E6C 
 16821      6F636B46 
ARM GAS  /tmp/ccH4KobB.s 			page 314


 16821      726F6D49 
 16821      535200
 16822              	.LASF562:
 16823 158f 47525846 		.ascii	"GRXFSIZ\000"
 16823      53495A00 
 16824              	.LASF459:
 16825 1597 75736172 		.ascii	"usart\000"
 16825      7400
 16826              	.LASF322:
 16827 159d 715F6C69 		.ascii	"q_link\000"
 16827      6E6B00
 16828              	.LASF695:
 16829 15a4 6F74675F 		.ascii	"otg_disable_ep\000"
 16829      64697361 
 16829      626C655F 
 16829      657000
 16830              	.LASF439:
 16831 15b3 4943555F 		.ascii	"ICU_CHANNEL_1\000"
 16831      4348414E 
 16831      4E454C5F 
 16831      3100
 16832              	.LASF648:
 16833 15c1 7573625F 		.ascii	"usb_lld_pump\000"
 16833      6C6C645F 
 16833      70756D70 
 16833      00
 16834              	.LASF31:
 16835 15ce 5F426967 		.ascii	"_Bigint\000"
 16835      696E7400 
 16836              	.LASF559:
 16837 15d6 47494E54 		.ascii	"GINTMSK\000"
 16837      4D534B00 
 16838              	.LASF424:
 16839 15de 69637563 		.ascii	"icucallback_t\000"
 16839      616C6C62 
 16839      61636B5F 
 16839      7400
 16840              	.LASF564:
 16841 15ec 484E5054 		.ascii	"HNPTXSTS\000"
 16841      58535453 
 16841      00
 16842              	.LASF242:
 16843 15f5 41504231 		.ascii	"APB1ENR\000"
 16843      454E5200 
 16844              	.LASF492:
 16845 15fd 636F6E66 		.ascii	"configuration\000"
 16845      69677572 
 16845      6174696F 
 16845      6E00
 16846              	.LASF88:
 16847 160b 5F617465 		.ascii	"_atexit0\000"
 16847      78697430 
 16847      00
 16848              	.LASF352:
 16849 1614 73746D33 		.ascii	"stm32_gpio_setup_t\000"
 16849      325F6770 
 16849      696F5F73 
ARM GAS  /tmp/ccH4KobB.s 			page 315


 16849      65747570 
 16849      5F7400
 16850              	.LASF641:
 16851 1627 6570305F 		.ascii	"ep0_state\000"
 16851      73746174 
 16851      6500
 16852              	.LASF678:
 16853 1631 6E746F67 		.ascii	"ntogo\000"
 16853      6F00
 16854              	.LASF436:
 16855 1637 4943555F 		.ascii	"ICU_INPUT_ACTIVE_LOW\000"
 16855      494E5055 
 16855      545F4143 
 16855      54495645 
 16855      5F4C4F57 
 16856              	.LASF335:
 16857 164c 5F73746D 		.ascii	"_stm32_dma_streams\000"
 16857      33325F64 
 16857      6D615F73 
 16857      74726561 
 16857      6D7300
 16858              	.LASF112:
 16859 165f 5F676574 		.ascii	"_getdate_err\000"
 16859      64617465 
 16859      5F657272 
 16859      00
 16860              	.LASF438:
 16861 166c 69637566 		.ascii	"icufreq_t\000"
 16861      7265715F 
 16861      7400
 16862              	.LASF725:
 16863 1676 63685363 		.ascii	"chSchReadyI\000"
 16863      68526561 
 16863      64794900 
 16864              	.LASF646:
 16865 1682 6F746770 		.ascii	"otgp\000"
 16865      00
 16866              	.LASF140:
 16867 1687 636E745F 		.ascii	"cnt_t\000"
 16867      7400
 16868              	.LASF511:
 16869 168d 5553425F 		.ascii	"USB_EP0_WAITING_TX0\000"
 16869      4550305F 
 16869      57414954 
 16869      494E475F 
 16869      54583000 
 16870              	.LASF486:
 16871 16a1 6570306E 		.ascii	"ep0next\000"
 16871      65787400 
 16872              	.LASF540:
 16873 16a9 73746D33 		.ascii	"stm32_otg_host_chn_t\000"
 16873      325F6F74 
 16873      675F686F 
 16873      73745F63 
 16873      686E5F74 
 16874              	.LASF674:
 16875 16be 6F74675F 		.ascii	"otg_epin_handler\000"
ARM GAS  /tmp/ccH4KobB.s 			page 316


 16875      6570696E 
 16875      5F68616E 
 16875      646C6572 
 16875      00
 16876              	.LASF706:
 16877 16cf 6F73616C 		.ascii	"osalSysLock\000"
 16877      5379734C 
 16877      6F636B00 
 16878              	.LASF344:
 16879 16db 41465248 		.ascii	"AFRH\000"
 16879      00
 16880              	.LASF343:
 16881 16e0 4146524C 		.ascii	"AFRL\000"
 16881      00
 16882              	.LASF124:
 16883 16e5 5F696D70 		.ascii	"_impure_ptr\000"
 16883      7572655F 
 16883      70747200 
 16884              	.LASF298:
 16885 16f1 63665F6F 		.ascii	"cf_off_preempt\000"
 16885      66665F70 
 16885      7265656D 
 16885      707400
 16886              	.LASF64:
 16887 1700 5F626C6B 		.ascii	"_blksize\000"
 16887      73697A65 
 16887      00
 16888              	.LASF535:
 16889 1709 4843494E 		.ascii	"HCINTMSK\000"
 16889      544D534B 
 16889      00
 16890              	.LASF62:
 16891 1712 5F756275 		.ascii	"_ubuf\000"
 16891      6600
 16892              	.LASF373:
 16893 1718 636F6E66 		.ascii	"config\000"
 16893      696700
 16894              	.LASF107:
 16895 171f 5F6D626C 		.ascii	"_mblen_state\000"
 16895      656E5F73 
 16895      74617465 
 16895      00
 16896              	.LASF90:
 16897 172c 5F5F7367 		.ascii	"__sglue\000"
 16897      6C756500 
 16898              	.LASF123:
 16899 1734 5F5F6C6F 		.ascii	"__locale_t\000"
 16899      63616C65 
 16899      5F7400
 16900              	.LASF80:
 16901 173f 5F5F636C 		.ascii	"__cleanup\000"
 16901      65616E75 
 16901      7000
 16902              	.LASF232:
 16903 1749 504C4C43 		.ascii	"PLLCFGR\000"
 16903      46475200 
 16904              	.LASF176:
ARM GAS  /tmp/ccH4KobB.s 			page 317


 16905 1751 76746675 		.ascii	"vtfunc_t\000"
 16905      6E635F74 
 16905      00
 16906              	.LASF205:
 16907 175a 43414E5F 		.ascii	"CAN_FIFOMailBox_TypeDef\000"
 16907      4649464F 
 16907      4D61696C 
 16907      426F785F 
 16907      54797065 
 16908              	.LASF270:
 16909 1772 77746F62 		.ascii	"wtobjp\000"
 16909      6A7000
 16910              	.LASF17:
 16911 1779 5F66706F 		.ascii	"_fpos_t\000"
 16911      735F7400 
 16912              	.LASF55:
 16913 1781 5F66696C 		.ascii	"_file\000"
 16913      6500
 16914              	.LASF161:
 16915 1787 705F7265 		.ascii	"p_realprio\000"
 16915      616C7072 
 16915      696F00
 16916              	.LASF321:
 16917 1792 715F6E6F 		.ascii	"q_notify\000"
 16917      74696679 
 16917      00
 16918              	.LASF273:
 16919 179b 77746D74 		.ascii	"wtmtxp\000"
 16919      787000
 16920              	.LASF53:
 16921 17a2 5F5F7346 		.ascii	"__sFILE\000"
 16921      494C4500 
 16922              	.LASF49:
 16923 17aa 5F666E73 		.ascii	"_fns\000"
 16923      00
 16924              	.LASF623:
 16925 17af 5553424F 		.ascii	"USBOutEndpointState\000"
 16925      7574456E 
 16925      64706F69 
 16925      6E745374 
 16925      61746500 
 16926              	.LASF579:
 16927 17c3 72657376 		.ascii	"resvd41C\000"
 16927      64343143 
 16927      00
 16928              	.LASF23:
 16929 17cc 5F6D6273 		.ascii	"_mbstate_t\000"
 16929      74617465 
 16929      5F7400
 16930              	.LASF118:
 16931 17d7 5F685F65 		.ascii	"_h_errno\000"
 16931      72726E6F 
 16931      00
 16932              	.LASF202:
 16933 17e0 52445452 		.ascii	"RDTR\000"
 16933      00
 16934              	.LASF676:
ARM GAS  /tmp/ccH4KobB.s 			page 318


 16935 17e5 6F74675F 		.ascii	"otg_fifo_read_to_queue\000"
 16935      6669666F 
 16935      5F726561 
 16935      645F746F 
 16935      5F717565 
 16936              	.LASF249:
 16937 17fc 42444352 		.ascii	"BDCR\000"
 16937      00
 16938              	.LASF169:
 16939 1801 63685F72 		.ascii	"ch_ready_list\000"
 16939      65616479 
 16939      5F6C6973 
 16939      7400
 16940              	.LASF340:
 16941 180f 50555044 		.ascii	"PUPDR\000"
 16941      5200
 16942              	.LASF8:
 16943 1815 5F5F696E 		.ascii	"__int32_t\000"
 16943      7433325F 
 16943      7400
 16944              	.LASF10:
 16945 181f 5F5F7569 		.ascii	"__uint32_t\000"
 16945      6E743332 
 16945      5F7400
 16946              	.LASF422:
 16947 182a 77636372 		.ascii	"wccrp\000"
 16947      7000
 16948              	.LASF188:
 16949 1830 63685F73 		.ascii	"ch_system_debug\000"
 16949      79737465 
 16949      6D5F6465 
 16949      62756700 
 16950              	.LASF590:
 16951 1840 4441494E 		.ascii	"DAINTMSK\000"
 16951      544D534B 
 16951      00
 16952              	.LASF22:
 16953 1849 5F5F7661 		.ascii	"__value\000"
 16953      6C756500 
 16954              	.LASF509:
 16955 1851 5553425F 		.ascii	"USB_EP0_WAITING_SETUP\000"
 16955      4550305F 
 16955      57414954 
 16955      494E475F 
 16955      53455455 
 16956              	.LASF46:
 16957 1867 5F69735F 		.ascii	"_is_cxa\000"
 16957      63786100 
 16958              	.LASF351:
 16959 186f 61667268 		.ascii	"afrh\000"
 16959      00
 16960              	.LASF415:
 16961 1874 4943555F 		.ascii	"ICU_STOP\000"
 16961      53544F50 
 16961      00
 16962              	.LASF350:
 16963 187d 6166726C 		.ascii	"afrl\000"
ARM GAS  /tmp/ccH4KobB.s 			page 319


 16963      00
 16964              	.LASF613:
 16965 1882 71756575 		.ascii	"queue\000"
 16965      6500
 16966              	.LASF488:
 16967 1888 65703065 		.ascii	"ep0endcb\000"
 16967      6E646362 
 16967      00
 16968              	.LASF332:
 16969 1891 73656C66 		.ascii	"selfindex\000"
 16969      696E6465 
 16969      7800
 16970              	.LASF302:
 16971 189b 6D757465 		.ascii	"mutex_t\000"
 16971      785F7400 
 16972              	.LASF83:
 16973 18a3 5F703573 		.ascii	"_p5s\000"
 16973      00
 16974              	.LASF159:
 16975 18a8 705F6570 		.ascii	"p_epending\000"
 16975      656E6469 
 16975      6E6700
 16976              	.LASF505:
 16977 18b3 45505F53 		.ascii	"EP_STATUS_DISABLED\000"
 16977      54415455 
 16977      535F4449 
 16977      5341424C 
 16977      454400
 16978              	.LASF583:
 16979 18c6 44434647 		.ascii	"DCFG\000"
 16979      00
 16980              	.LASF337:
 16981 18cb 4D4F4445 		.ascii	"MODER\000"
 16981      5200
 16982              	.LASF702:
 16983 18d1 6F73616C 		.ascii	"osalOsRescheduleS\000"
 16983      4F735265 
 16983      73636865 
 16983      64756C65 
 16983      5300
 16984              	.LASF209:
 16985 18e3 52455345 		.ascii	"RESERVED0\000"
 16985      52564544 
 16985      3000
 16986              	.LASF212:
 16987 18ed 52455345 		.ascii	"RESERVED1\000"
 16987      52564544 
 16987      3100
 16988              	.LASF214:
 16989 18f7 52455345 		.ascii	"RESERVED2\000"
 16989      52564544 
 16989      3200
 16990              	.LASF216:
 16991 1901 52455345 		.ascii	"RESERVED3\000"
 16991      52564544 
 16991      3300
 16992              	.LASF218:
ARM GAS  /tmp/ccH4KobB.s 			page 320


 16993 190b 52455345 		.ascii	"RESERVED4\000"
 16993      52564544 
 16993      3400
 16994              	.LASF220:
 16995 1915 52455345 		.ascii	"RESERVED5\000"
 16995      52564544 
 16995      3500
 16996              	.LASF250:
 16997 191f 52455345 		.ascii	"RESERVED6\000"
 16997      52564544 
 16997      3600
 16998              	.LASF634:
 16999 1929 55534245 		.ascii	"USBEndpointConfig\000"
 16999      6E64706F 
 16999      696E7443 
 16999      6F6E6669 
 16999      6700
 17000              	.LASF375:
 17001 193b 72787175 		.ascii	"rxqueue\000"
 17001      65756500 
 17002              	.LASF581:
 17003 1943 72657376 		.ascii	"resvd444\000"
 17003      64343434 
 17003      00
 17004              	.LASF364:
 17005 194c 70616C5F 		.ascii	"pal_default_config\000"
 17005      64656661 
 17005      756C745F 
 17005      636F6E66 
 17005      696700
 17006              	.LASF306:
 17007 195f 656C5F6C 		.ascii	"el_listener\000"
 17007      69737465 
 17007      6E657200 
 17008              	.LASF612:
 17009 196b 6C696E65 		.ascii	"linear\000"
 17009      617200
 17010              	.LASF434:
 17011 1972 73746D33 		.ascii	"stm32_tim_t\000"
 17011      325F7469 
 17011      6D5F7400 
 17012              	.LASF729:
 17013 197e 63685468 		.ascii	"chThdResumeI\000"
 17013      64526573 
 17013      756D6549 
 17013      00
 17014              	.LASF171:
 17015 198b 725F7072 		.ascii	"r_prio\000"
 17015      696F00
 17016              	.LASF494:
 17017 1992 706D6E65 		.ascii	"pmnext\000"
 17017      787400
 17018              	.LASF196:
 17019 1999 49544D5F 		.ascii	"ITM_RxBuffer\000"
 17019      52784275 
 17019      66666572 
 17019      00
ARM GAS  /tmp/ccH4KobB.s 			page 321


 17020              	.LASF440:
 17021 19a6 4943555F 		.ascii	"ICU_CHANNEL_2\000"
 17021      4348414E 
 17021      4E454C5F 
 17021      3200
 17022              	.LASF14:
 17023 19b4 6C6F6E67 		.ascii	"long long unsigned int\000"
 17023      206C6F6E 
 17023      6720756E 
 17023      7369676E 
 17023      65642069 
 17024              	.LASF266:
 17025 19cb 6F666673 		.ascii	"offset\000"
 17025      657400
 17026              	.LASF244:
 17027 19d2 41484231 		.ascii	"AHB1LPENR\000"
 17027      4C50454E 
 17027      5200
 17028              	.LASF707:
 17029 19dc 63685265 		.ascii	"chRegSetThreadName\000"
 17029      67536574 
 17029      54687265 
 17029      61644E61 
 17029      6D6500
 17030              	.LASF479:
 17031 19ef 53504944 		.ascii	"SPID1\000"
 17031      3100
 17032              	.LASF712:
 17033 19f5 63685379 		.ascii	"chSysUnlock\000"
 17033      73556E6C 
 17033      6F636B00 
 17034              	.LASF223:
 17035 1a01 4E445452 		.ascii	"NDTR\000"
 17035      00
 17036              	.LASF311:
 17037 1a06 65735F6E 		.ascii	"es_next\000"
 17037      65787400 
 17038              	.LASF104:
 17039 1a0e 5F67616D 		.ascii	"_gamma_signgam\000"
 17039      6D615F73 
 17039      69676E67 
 17039      616D00
 17040              	.LASF547:
 17041 1a1d 72657376 		.ascii	"resvd1C\000"
 17041      64314300 
 17042              	.LASF195:
 17043 1a25 69646C65 		.ascii	"idle_thread_wa\000"
 17043      5F746872 
 17043      6561645F 
 17043      776100
 17044              	.LASF543:
 17045 1a34 44494550 		.ascii	"DIEPINT\000"
 17045      494E5400 
 17046              	.LASF419:
 17047 1a3c 69637573 		.ascii	"icustate_t\000"
 17047      74617465 
 17047      5F7400
ARM GAS  /tmp/ccH4KobB.s 			page 322


 17048              	.LASF259:
 17049 1a47 5350495F 		.ascii	"SPI_TypeDef\000"
 17049      54797065 
 17049      44656600 
 17050              	.LASF182:
 17051 1a53 76745F66 		.ascii	"vt_func\000"
 17051      756E6300 
 17052              	.LASF425:
 17053 1a5b 534D4352 		.ascii	"SMCR\000"
 17053      00
 17054              	.LASF588:
 17055 1a60 444F4550 		.ascii	"DOEPMSK\000"
 17055      4D534B00 
 17056              	.LASF691:
 17057 1a68 6F74675F 		.ascii	"otg_ram_reset\000"
 17057      72616D5F 
 17057      72657365 
 17057      7400
 17058              	.LASF178:
 17059 1a76 63685F76 		.ascii	"ch_virtual_timer\000"
 17059      69727475 
 17059      616C5F74 
 17059      696D6572 
 17059      00
 17060              	.LASF152:
 17061 1a87 705F666C 		.ascii	"p_flags\000"
 17061      61677300 
 17062              	.LASF274:
 17063 1a8f 65776D61 		.ascii	"ewmask\000"
 17063      736B00
 17064              	.LASF308:
 17065 1a96 656C5F66 		.ascii	"el_flags\000"
 17065      6C616773 
 17065      00
 17066              	.LASF310:
 17067 1a9f 6576656E 		.ascii	"event_source\000"
 17067      745F736F 
 17067      75726365 
 17067      00
 17068              	.LASF160:
 17069 1aac 705F6D74 		.ascii	"p_mtxlist\000"
 17069      786C6973 
 17069      7400
 17070              	.LASF382:
 17071 1ab6 43414E44 		.ascii	"CAND1\000"
 17071      3100
 17072              	.LASF215:
 17073 1abc 46533152 		.ascii	"FS1R\000"
 17073      00
 17074              	.LASF133:
 17075 1ac1 74737461 		.ascii	"tstate_t\000"
 17075      74655F74 
 17075      00
 17076              	.LASF125:
 17077 1aca 5F676C6F 		.ascii	"_global_impure_ptr\000"
 17077      62616C5F 
 17077      696D7075 
ARM GAS  /tmp/ccH4KobB.s 			page 323


 17077      72655F70 
 17077      747200
 17078              	.LASF589:
 17079 1add 4441494E 		.ascii	"DAINT\000"
 17079      5400
 17080              	.LASF478:
 17081 1ae3 53504943 		.ascii	"SPIConfig\000"
 17081      6F6E6669 
 17081      6700
 17082              	.LASF77:
 17083 1aed 5F756E73 		.ascii	"_unspecified_locale_info\000"
 17083      70656369 
 17083      66696564 
 17083      5F6C6F63 
 17083      616C655F 
 17084              	.LASF349:
 17085 1b06 70757064 		.ascii	"pupdr\000"
 17085      7200
 17086              	.LASF481:
 17087 1b0c 7472616E 		.ascii	"transmitting\000"
 17087      736D6974 
 17087      74696E67 
 17087      00
 17088              	.LASF660:
 17089 1b19 7573625F 		.ascii	"usb_lld_get_status_out\000"
 17089      6C6C645F 
 17089      6765745F 
 17089      73746174 
 17089      75735F6F 
 17090              	.LASF150:
 17091 1b30 705F6E61 		.ascii	"p_name\000"
 17091      6D6500
 17092              	.LASF79:
 17093 1b37 5F5F7364 		.ascii	"__sdidinit\000"
 17093      6964696E 
 17093      697400
 17094              	.LASF455:
 17095 1b42 53657269 		.ascii	"SerialDriver\000"
 17095      616C4472 
 17095      69766572 
 17095      00
 17096              	.LASF645:
 17097 1b4f 75736270 		.ascii	"usbp\000"
 17097      00
 17098              	.LASF504:
 17099 1b54 75736273 		.ascii	"usbstate_t\000"
 17099      74617465 
 17099      5F7400
 17100              	.LASF551:
 17101 1b5f 444F4550 		.ascii	"DOEPTSIZ\000"
 17101      5453495A 
 17101      00
 17102              	.LASF248:
 17103 1b68 41504232 		.ascii	"APB2LPENR\000"
 17103      4C50454E 
 17103      5200
 17104              	.LASF684:
ARM GAS  /tmp/ccH4KobB.s 			page 324


 17105 1b72 6F74675F 		.ascii	"otg_fifo_write_from_queue\000"
 17105      6669666F 
 17105      5F777269 
 17105      74655F66 
 17105      726F6D5F 
 17106              	.LASF290:
 17107 1b8c 63665F6F 		.ascii	"cf_off_ctx\000"
 17107      66665F63 
 17107      747800
 17108              	.LASF708:
 17109 1b97 6E616D65 		.ascii	"name\000"
 17109      00
 17110              	.LASF24:
 17111 1b9c 5F666C6F 		.ascii	"_flock_t\000"
 17111      636B5F74 
 17111      00
 17112              	.LASF184:
 17113 1ba5 76697274 		.ascii	"virtual_timers_list_t\000"
 17113      75616C5F 
 17113      74696D65 
 17113      72735F6C 
 17113      6973745F 
 17114              	.LASF726:
 17115 1bbb 6E766963 		.ascii	"nvicEnableVector\000"
 17115      456E6162 
 17115      6C655665 
 17115      63746F72 
 17115      00
 17116              	.LASF680:
 17117 1bcc 6E773265 		.ascii	"nw2end\000"
 17117      6E6400
 17118              	.LASF346:
 17119 1bd3 6D6F6465 		.ascii	"moder\000"
 17119      7200
 17120              	.LASF473:
 17121 1bd9 53504944 		.ascii	"SPIDriver\000"
 17121      72697665 
 17121      7200
 17122              	.LASF276:
 17123 1be3 735F7175 		.ascii	"s_queue\000"
 17123      65756500 
 17124              	.LASF257:
 17125 1beb 49325343 		.ascii	"I2SCFGR\000"
 17125      46475200 
 17126              	.LASF282:
 17127 1bf3 63685F69 		.ascii	"ch_identifier\000"
 17127      64656E74 
 17127      69666965 
 17127      7200
 17128              	.LASF465:
 17129 1c01 77726974 		.ascii	"writet\000"
 17129      657400
 17130              	.LASF12:
 17131 1c08 6C6F6E67 		.ascii	"long long int\000"
 17131      206C6F6E 
 17131      6720696E 
 17131      7400
ARM GAS  /tmp/ccH4KobB.s 			page 325


 17132              	.LASF569:
 17133 1c16 48505458 		.ascii	"HPTXFSIZ\000"
 17133      4653495A 
 17133      00
 17134              	.LASF650:
 17135 1c1f 7573625F 		.ascii	"usb_lld_clear_out\000"
 17135      6C6C645F 
 17135      636C6561 
 17135      725F6F75 
 17135      7400
 17136              	.LASF289:
 17137 1c31 63665F6F 		.ascii	"cf_off_prio\000"
 17137      66665F70 
 17137      72696F00 
 17138              	.LASF69:
 17139 1c3d 5F666C61 		.ascii	"_flags2\000"
 17139      67733200 
 17140              	.LASF711:
 17141 1c45 63685379 		.ascii	"chSysLockFromISR\000"
 17141      734C6F63 
 17141      6B46726F 
 17141      6D495352 
 17141      00
 17142              	.LASF437:
 17143 1c56 6963756D 		.ascii	"icumode_t\000"
 17143      6F64655F 
 17143      7400
 17144              	.LASF734:
 17145 1c60 2F686F6D 		.ascii	"/home/patrick/vesc/bldc\000"
 17145      652F7061 
 17145      74726963 
 17145      6B2F7665 
 17145      73632F62 
 17146              	.LASF694:
 17147 1c78 6F74675F 		.ascii	"otg_rxfifo_flush\000"
 17147      72786669 
 17147      666F5F66 
 17147      6C757368 
 17147      00
 17148              	.LASF636:
 17149 1c89 6765745F 		.ascii	"get_descriptor_cb\000"
 17149      64657363 
 17149      72697074 
 17149      6F725F63 
 17149      6200
 17150              	.LASF78:
 17151 1c9b 5F6C6F63 		.ascii	"_locale\000"
 17151      616C6500 
 17152              	.LASF139:
 17153 1ca3 6576656E 		.ascii	"eventflags_t\000"
 17153      74666C61 
 17153      67735F74 
 17153      00
 17154              	.LASF469:
 17155 1cb0 5350495F 		.ascii	"SPI_READY\000"
 17155      52454144 
 17155      5900
ARM GAS  /tmp/ccH4KobB.s 			page 326


 17156              	.LASF662:
 17157 1cba 7573625F 		.ascii	"usb_lld_init_endpoint\000"
 17157      6C6C645F 
 17157      696E6974 
 17157      5F656E64 
 17157      706F696E 
 17158              	.LASF605:
 17159 1cd0 4649464F 		.ascii	"FIFO\000"
 17159      00
 17160              	.LASF211:
 17161 1cd5 73464946 		.ascii	"sFIFOMailBox\000"
 17161      4F4D6169 
 17161      6C426F78 
 17161      00
 17162              	.LASF584:
 17163 1ce2 4443544C 		.ascii	"DCTL\000"
 17163      00
 17164              	.LASF611:
 17165 1ce7 74786275 		.ascii	"txbuf\000"
 17165      6600
 17166              	.LASF603:
 17167 1ced 50434743 		.ascii	"PCGCCTL\000"
 17167      43544C00 
 17168              	.LASF521:
 17169 1cf5 5553425F 		.ascii	"USB_EVENT_WAKEUP\000"
 17169      4556454E 
 17169      545F5741 
 17169      4B455550 
 17169      00
 17170              	.LASF718:
 17171 1d06 5F5F7365 		.ascii	"__set_BASEPRI\000"
 17171      745F4241 
 17171      53455052 
 17171      4900
 17172              	.LASF149:
 17173 1d14 705F6F6C 		.ascii	"p_older\000"
 17173      64657200 
 17174              	.LASF361:
 17175 1d1c 50494461 		.ascii	"PIData\000"
 17175      746100
 17176              	.LASF633:
 17177 1d23 73657475 		.ascii	"setup_buf\000"
 17177      705F6275 
 17177      6600
 17178              	.LASF566:
 17179 1d2d 72657376 		.ascii	"resvd34\000"
 17179      64333400 
 17180              	.LASF476:
 17181 1d35 7373706F 		.ascii	"ssport\000"
 17181      727400
 17182              	.LASF414:
 17183 1d3c 4943555F 		.ascii	"ICU_UNINIT\000"
 17183      554E494E 
 17183      495400
 17184              	.LASF163:
 17185 1d47 74687265 		.ascii	"thread_reference_t\000"
 17185      61645F72 
ARM GAS  /tmp/ccH4KobB.s 			page 327


 17185      65666572 
 17185      656E6365 
 17185      5F7400
 17186              	.LASF482:
 17187 1d5a 72656365 		.ascii	"receiving\000"
 17187      6976696E 
 17187      6700
 17188              	.LASF92:
 17189 1d64 5F5F4649 		.ascii	"__FILE\000"
 17189      4C4500
 17190              	.LASF443:
 17191 1d6b 66726571 		.ascii	"frequency\000"
 17191      75656E63 
 17191      7900
 17192              	.LASF700:
 17193 1d75 6F73616C 		.ascii	"osalSysPolledDelayX\000"
 17193      53797350 
 17193      6F6C6C65 
 17193      6444656C 
 17193      61795800 
 17194              	.LASF29:
 17195 1d89 5F736967 		.ascii	"_sign\000"
 17195      6E00
 17196              	.LASF630:
 17197 1d8f 696E5F73 		.ascii	"in_state\000"
 17197      74617465 
 17197      00
 17198              	.LASF34:
 17199 1d98 5F5F746D 		.ascii	"__tm_min\000"
 17199      5F6D696E 
 17199      00
 17200              	.LASF283:
 17201 1da1 63685F7A 		.ascii	"ch_zero\000"
 17201      65726F00 
 17202              	.LASF397:
 17203 1da9 46415354 		.ascii	"FAST_DUTY_CYCLE_2\000"
 17203      5F445554 
 17203      595F4359 
 17203      434C455F 
 17203      3200
 17204              	.LASF288:
 17205 1dbb 63685F74 		.ascii	"ch_threadsize\000"
 17205      68726561 
 17205      6473697A 
 17205      6500
 17206              	.LASF230:
 17207 1dc9 464C5452 		.ascii	"FLTR\000"
 17207      00
 17208              	.LASF427:
 17209 1dce 43434D52 		.ascii	"CCMR1\000"
 17209      3100
 17210              	.LASF428:
 17211 1dd4 43434D52 		.ascii	"CCMR2\000"
 17211      3200
 17212              	.LASF432:
 17213 1dda 43434D52 		.ascii	"CCMR3\000"
 17213      3300
ARM GAS  /tmp/ccH4KobB.s 			page 328


 17214              	.LASF0:
 17215 1de0 756E7369 		.ascii	"unsigned int\000"
 17215      676E6564 
 17215      20696E74 
 17215      00
 17216              	.LASF106:
 17217 1ded 5F723438 		.ascii	"_r48\000"
 17217      00
 17218              	.LASF573:
 17219 1df2 48464952 		.ascii	"HFIR\000"
 17219      00
 17220              	.LASF499:
 17221 1df7 5553425F 		.ascii	"USB_UNINIT\000"
 17221      554E494E 
 17221      495400
 17222              	.LASF679:
 17223 1e02 73747265 		.ascii	"streak\000"
 17223      616B00
 17224              	.LASF329:
 17225 1e09 73747265 		.ascii	"stream\000"
 17225      616D00
 17226              	.LASF395:
 17227 1e10 6932636F 		.ascii	"i2copmode_t\000"
 17227      706D6F64 
 17227      655F7400 
 17228              	.LASF681:
 17229 1e1c 6F74675F 		.ascii	"otg_fifo_read_to_buffer\000"
 17229      6669666F 
 17229      5F726561 
 17229      645F746F 
 17229      5F627566 
 17230              	.LASF5:
 17231 1e34 73686F72 		.ascii	"short int\000"
 17231      7420696E 
 17231      7400
 17232              	.LASF527:
 17233 1e3e 75736263 		.ascii	"usbcallback_t\000"
 17233      616C6C62 
 17233      61636B5F 
 17233      7400
 17234              	.LASF733:
 17235 1e4c 43686962 		.ascii	"ChibiOS_3.0.2/os/hal/ports/STM32/LLD/OTGv1/usb_lld."
 17235      694F535F 
 17235      332E302E 
 17235      322F6F73 
 17235      2F68616C 
 17236 1e7f 6300     		.ascii	"c\000"
 17237              	.LASF58:
 17238 1e81 5F726561 		.ascii	"_read\000"
 17238      6400
 17239              	.LASF556:
 17240 1e87 47555342 		.ascii	"GUSBCFG\000"
 17240      43464700 
 17241              	.LASF261:
 17242 1e8f 55534152 		.ascii	"USART_TypeDef\000"
 17242      545F5479 
 17242      70654465 
ARM GAS  /tmp/ccH4KobB.s 			page 329


 17242      6600
 17243              	.LASF325:
 17244 1e9d 6F757470 		.ascii	"output_queue_t\000"
 17244      75745F71 
 17244      75657565 
 17244      5F7400
 17245              	.LASF96:
 17246 1eac 5F72616E 		.ascii	"_rand48\000"
 17246      64343800 
 17247              	.LASF606:
 17248 1eb4 73746D33 		.ascii	"stm32_otg_t\000"
 17248      325F6F74 
 17248      675F7400 
 17249              	.LASF652:
 17250 1ec0 7573625F 		.ascii	"usb_lld_stall_out\000"
 17250      6C6C645F 
 17250      7374616C 
 17250      6C5F6F75 
 17250      7400
 17251              	.LASF402:
 17252 1ed2 64757479 		.ascii	"duty_cycle\000"
 17252      5F637963 
 17252      6C6500
 17253              	.LASF524:
 17254 1edd 75645F73 		.ascii	"ud_size\000"
 17254      697A6500 
 17255              	.LASF240:
 17256 1ee5 41484232 		.ascii	"AHB2ENR\000"
 17256      454E5200 
 17257              	.LASF234:
 17258 1eed 41484231 		.ascii	"AHB1RSTR\000"
 17258      52535452 
 17258      00
 17259              	.LASF628:
 17260 1ef6 696E5F6D 		.ascii	"in_maxsize\000"
 17260      61787369 
 17260      7A6500
 17261              	.LASF358:
 17262 1f01 50464461 		.ascii	"PFData\000"
 17262      746100
 17263              	.LASF151:
 17264 1f08 705F7374 		.ascii	"p_state\000"
 17264      61746500 
 17265              	.LASF165:
 17266 1f10 63685F74 		.ascii	"ch_threads_list\000"
 17266      68726561 
 17266      64735F6C 
 17266      69737400 
 17267              	.LASF227:
 17268 1f20 4F415231 		.ascii	"OAR1\000"
 17268      00
 17269              	.LASF228:
 17270 1f25 4F415232 		.ascii	"OAR2\000"
 17270      00
 17271              	.LASF453:
 17272 1f2a 53445F52 		.ascii	"SD_READY\000"
 17272      45414459 
ARM GAS  /tmp/ccH4KobB.s 			page 330


 17272      00
 17273              		.ident	"GCC: (GNU Tools for Arm Embedded Processors 7-2018-q3-update) 7.3.1 20180622 (release) [AR
ARM GAS  /tmp/ccH4KobB.s 			page 331


DEFINED SYMBOLS
                            *ABS*:0000000000000000 usb_lld.c
     /tmp/ccH4KobB.s:18     .text.usb_lld_pump:0000000000000000 $t
     /tmp/ccH4KobB.s:26     .text.usb_lld_pump:0000000000000000 usb_lld_pump
     /tmp/ccH4KobB.s:879    .text.usb_lld_pump:00000000000002e8 $d
     /tmp/ccH4KobB.s:895    .text.usb_lld_pump:00000000000002f0 $t
     /tmp/ccH4KobB.s:1059   .text.otg_disable_ep.isra.0:0000000000000000 $t
     /tmp/ccH4KobB.s:1066   .text.otg_disable_ep.isra.0:0000000000000000 otg_disable_ep.isra.0
     /tmp/ccH4KobB.s:1156   .text.usb_lld_init:0000000000000000 $t
     /tmp/ccH4KobB.s:1164   .text.usb_lld_init:0000000000000000 usb_lld_init
     /tmp/ccH4KobB.s:1196   .text.usb_lld_init:000000000000001c $d
     /tmp/ccH4KobB.s:1202   .text.usb_lld_start:0000000000000000 $t
     /tmp/ccH4KobB.s:1210   .text.usb_lld_start:0000000000000000 usb_lld_start
     /tmp/ccH4KobB.s:1406   .text.usb_lld_start:00000000000000d0 $d
     /tmp/ccH4KobB.s:1415   .text.usb_lld_stop:0000000000000000 $t
     /tmp/ccH4KobB.s:1423   .text.usb_lld_stop:0000000000000000 usb_lld_stop
     /tmp/ccH4KobB.s:1484   .text.usb_lld_stop:000000000000003c $d
     /tmp/ccH4KobB.s:1490   .text.usb_lld_reset:0000000000000000 $t
     /tmp/ccH4KobB.s:1498   .text.usb_lld_reset:0000000000000000 usb_lld_reset
     /tmp/ccH4KobB.s:1678   .text.usb_lld_reset:00000000000000b4 $d
     /tmp/ccH4KobB.s:1684   .text.usb_lld_set_address:0000000000000000 $t
     /tmp/ccH4KobB.s:1692   .text.usb_lld_set_address:0000000000000000 usb_lld_set_address
     /tmp/ccH4KobB.s:1715   .text.usb_lld_init_endpoint:0000000000000000 $t
     /tmp/ccH4KobB.s:1723   .text.usb_lld_init_endpoint:0000000000000000 usb_lld_init_endpoint
     /tmp/ccH4KobB.s:1954   .text.usb_lld_init_endpoint:0000000000000150 $d
     /tmp/ccH4KobB.s:1963   .text.usb_lld_disable_endpoints:0000000000000000 $t
     /tmp/ccH4KobB.s:1971   .text.usb_lld_disable_endpoints:0000000000000000 usb_lld_disable_endpoints
     /tmp/ccH4KobB.s:1998   .text.usb_lld_get_status_out:0000000000000000 $t
     /tmp/ccH4KobB.s:2006   .text.usb_lld_get_status_out:0000000000000000 usb_lld_get_status_out
     /tmp/ccH4KobB.s:2038   .text.usb_lld_get_status_in:0000000000000000 $t
     /tmp/ccH4KobB.s:2046   .text.usb_lld_get_status_in:0000000000000000 usb_lld_get_status_in
     /tmp/ccH4KobB.s:2078   .text.usb_lld_read_setup:0000000000000000 $t
     /tmp/ccH4KobB.s:2086   .text.usb_lld_read_setup:0000000000000000 usb_lld_read_setup
     /tmp/ccH4KobB.s:2109   .text.usb_lld_prepare_receive:0000000000000000 $t
     /tmp/ccH4KobB.s:2117   .text.usb_lld_prepare_receive:0000000000000000 usb_lld_prepare_receive
     /tmp/ccH4KobB.s:2181   .text.usb_lld_prepare_receive:000000000000003c $d
     /tmp/ccH4KobB.s:2186   .text.otg_epout_handler.constprop.7:0000000000000000 $t
     /tmp/ccH4KobB.s:2193   .text.otg_epout_handler.constprop.7:0000000000000000 otg_epout_handler.constprop.7
     /tmp/ccH4KobB.s:2353   .text.otg_epout_handler.constprop.7:0000000000000098 $d
     /tmp/ccH4KobB.s:2358   .text.usb_lld_prepare_transmit:0000000000000000 $t
     /tmp/ccH4KobB.s:2366   .text.usb_lld_prepare_transmit:0000000000000000 usb_lld_prepare_transmit
     /tmp/ccH4KobB.s:2445   .text.otg_epin_handler.constprop.8:0000000000000000 $t
     /tmp/ccH4KobB.s:2452   .text.otg_epin_handler.constprop.8:0000000000000000 otg_epin_handler.constprop.8
     /tmp/ccH4KobB.s:2674   .text.otg_epin_handler.constprop.8:00000000000000c8 $d
     /tmp/ccH4KobB.s:2687   .text.Vector14C:0000000000000000 $t
     /tmp/ccH4KobB.s:2695   .text.Vector14C:0000000000000000 Vector14C
     /tmp/ccH4KobB.s:2973   .text.Vector14C:00000000000000ec $d
     /tmp/ccH4KobB.s:2981   .text.usb_lld_start_out:0000000000000000 $t
     /tmp/ccH4KobB.s:2989   .text.usb_lld_start_out:0000000000000000 usb_lld_start_out
     /tmp/ccH4KobB.s:3010   .text.usb_lld_start_in:0000000000000000 $t
     /tmp/ccH4KobB.s:3018   .text.usb_lld_start_in:0000000000000000 usb_lld_start_in
     /tmp/ccH4KobB.s:3057   .text.usb_lld_stall_out:0000000000000000 $t
     /tmp/ccH4KobB.s:3065   .text.usb_lld_stall_out:0000000000000000 usb_lld_stall_out
     /tmp/ccH4KobB.s:3086   .text.usb_lld_stall_in:0000000000000000 $t
     /tmp/ccH4KobB.s:3094   .text.usb_lld_stall_in:0000000000000000 usb_lld_stall_in
     /tmp/ccH4KobB.s:3115   .text.usb_lld_clear_out:0000000000000000 $t
     /tmp/ccH4KobB.s:3123   .text.usb_lld_clear_out:0000000000000000 usb_lld_clear_out
ARM GAS  /tmp/ccH4KobB.s 			page 332


     /tmp/ccH4KobB.s:3144   .text.usb_lld_clear_in:0000000000000000 $t
     /tmp/ccH4KobB.s:3152   .text.usb_lld_clear_in:0000000000000000 usb_lld_clear_in
     /tmp/ccH4KobB.s:3178   .bss.USBD1:0000000000000000 USBD1
     /tmp/ccH4KobB.s:3174   .bss.USBD1:0000000000000000 $d
     /tmp/ccH4KobB.s:3181   .bss.ep0_state:0000000000000000 $d
     /tmp/ccH4KobB.s:3184   .bss.ep0_state:0000000000000000 ep0_state
     /tmp/ccH4KobB.s:3187   .bss.ep0setup_buffer:0000000000000000 $d
     /tmp/ccH4KobB.s:3190   .bss.ep0setup_buffer:0000000000000000 ep0setup_buffer
     /tmp/ccH4KobB.s:3193   .rodata.ep0config:0000000000000000 $d
     /tmp/ccH4KobB.s:3197   .rodata.ep0config:0000000000000000 ep0config
     /tmp/ccH4KobB.s:3210   .rodata.fsparams:0000000000000000 $d
     /tmp/ccH4KobB.s:3214   .rodata.fsparams:0000000000000000 fsparams
     /tmp/ccH4KobB.s:3219   .rodata.usb_lld_pump.str1.4:0000000000000000 $d

UNDEFINED SYMBOLS
chThdSuspendS
chThdDequeueAllI
chSchRescheduleS
ch
usbObjectInit
chSysPolledDelayX
nvicEnableVector
chThdCreateI
chSchReadyI
nvicDisableVector
chThdResumeI
_port_irq_epilogue
_usb_reset
_usb_ep0setup
_usb_ep0in
_usb_ep0out
