ARM GAS  /tmp/ccH4KobB.s 			page 1


   1              		.cpu cortex-m4
   2              		.eabi_attribute 27, 1
   3              		.eabi_attribute 28, 1
   4              		.eabi_attribute 20, 1
   5              		.eabi_attribute 21, 1
   6              		.eabi_attribute 23, 3
   7              		.eabi_attribute 24, 1
   8              		.eabi_attribute 25, 1
   9              		.eabi_attribute 26, 1
  10              		.eabi_attribute 30, 2
  11              		.eabi_attribute 34, 1
  12              		.eabi_attribute 18, 4
  13              		.file	"usb_lld.c"
  14              		.text
  15              	.Ltext0:
  16              		.cfi_sections	.debug_frame
  17              		.section	.text.usb_lld_pump,"ax",%progbits
  18              		.align	1
  19              		.p2align 4,,15
  20              		.global	usb_lld_pump
  21              		.syntax unified
  22              		.thumb
  23              		.thumb_func
  24              		.fpu fpv4-sp-d16
  25              		.type	usb_lld_pump, %function
  26              	usb_lld_pump:
  27              	.LFB292:
  28              		.file 1 "ChibiOS_3.0.2/os/hal/ports/STM32/LLD/OTGv1/usb_lld.c"
  29              		.loc 1 1294 0
  30              		.cfi_startproc
  31              		@ args = 0, pretend = 0, frame = 24
  32              		@ frame_needed = 0, uses_anonymous_args = 0
  33              	.LVL0:
  34 0000 2DE9F04F 		push	{r4, r5, r6, r7, r8, r9, r10, fp, lr}
  35              		.cfi_def_cfa_offset 36
  36              		.cfi_offset 4, -36
  37              		.cfi_offset 5, -32
  38              		.cfi_offset 6, -28
  39              		.cfi_offset 7, -24
  40              		.cfi_offset 8, -20
  41              		.cfi_offset 9, -16
  42              		.cfi_offset 10, -12
  43              		.cfi_offset 11, -8
  44              		.cfi_offset 14, -4
  45              	.LBB422:
  46              	.LBB423:
  47              		.file 2 "ChibiOS_3.0.2/os/rt/include/chregistry.h"
  48              		.loc 2 135 0
  49 0004 B84B     		ldr	r3, .L115
  50 0006 B949     		ldr	r1, .L115+4
  51 0008 9A69     		ldr	r2, [r3, #24]
  52              	.LVL1:
  53              	.LBE423:
  54              	.LBE422:
  55              		.loc 1 1296 0
  56 000a 056D     		ldr	r5, [r0, #80]
  57              	.LVL2:
ARM GAS  /tmp/ccH4KobB.s 			page 2


  58              	.LBB425:
  59              	.LBB424:
  60              		.loc 2 135 0
  61 000c 9161     		str	r1, [r2, #24]
  62              	.LVL3:
  63              	.LBE424:
  64              	.LBE425:
  65              		.loc 1 1294 0
  66 000e 87B0     		sub	sp, sp, #28
  67              		.cfi_def_cfa_offset 64
  68              	.LBB426:
  69              	.LBB427:
  70              	.LBB428:
  71              	.LBB429:
  72              	.LBB430:
  73              		.file 3 "ChibiOS_3.0.2/os/ext/CMSIS/include/core_cmFunc.h"
  74              		.loc 3 546 0
  75 0010 2023     		movs	r3, #32
  76              		.syntax unified
  77              	@ 546 "ChibiOS_3.0.2/os/ext/CMSIS/include/core_cmFunc.h" 1
  78 0012 83F31188 		MSR basepri, r3
  79              	@ 0 "" 2
  80              	.LVL4:
  81              		.thumb
  82              		.syntax unified
  83              	.LBE430:
  84              	.LBE429:
  85              	.LBE428:
  86              	.LBE427:
  87              	.LBE426:
  88              	.LBB431:
  89              	.LBB432:
  90              	.LBB433:
  91              	.LBB434:
  92              	.LBB435:
  93              	.LBB436:
  94              	.LBB437:
  95              	.LBB438:
  96              	.LBB439:
  97              	.LBB440:
  98 0016 0093     		str	r3, [sp]
  99 0018 00F16003 		add	r3, r0, #96
 100 001c A946     		mov	r9, r5
 101 001e 0593     		str	r3, [sp, #20]
 102 0020 0546     		mov	r5, r0
 103              	.LVL5:
 104              	.L51:
 105              	.LBE440:
 106              	.LBE439:
 107              	.LBE438:
 108              	.LBE437:
 109              	.LBE436:
 110              	.LBE435:
 111              	.LBE434:
 112              	.LBE433:
 113              	.LBE432:
 114              		.loc 1 1307 0
ARM GAS  /tmp/ccH4KobB.s 			page 3


 115 0022 2B78     		ldrb	r3, [r5]	@ zero_extendqisi2
 116 0024 012B     		cmp	r3, #1
 117 0026 05D0     		beq	.L2
 118              		.loc 1 1307 0 is_stmt 0 discriminator 1
 119 0028 EB6D     		ldr	r3, [r5, #92]
 120 002a 63B9     		cbnz	r3, .L3
 121              		.loc 1 1308 0 is_stmt 1
 122 002c D9F81430 		ldr	r3, [r9, #20]
 123 0030 DB06     		lsls	r3, r3, #27
 124 0032 08D4     		bmi	.L3
 125              	.L2:
 126              		.loc 1 1309 0
 127 0034 D9F81830 		ldr	r3, [r9, #24]
 128              	.LBB477:
 129              	.LBB478:
 130              		.file 4 "ChibiOS_3.0.2/os/hal/osal/rt/osal.h"
 131              		.loc 4 688 0
 132 0038 0598     		ldr	r0, [sp, #20]
 133              	.LBE478:
 134              	.LBE477:
 135              		.loc 1 1309 0
 136 003a 43F01003 		orr	r3, r3, #16
 137 003e C9F81830 		str	r3, [r9, #24]
 138              	.LBB480:
 139              	.LBB479:
 140              		.loc 4 688 0
 141 0042 FFF7FEFF 		bl	chThdSuspendS
 142              	.LVL6:
 143              	.L3:
 144              	.LBE479:
 145              	.LBE480:
 146              	.LBB481:
 147              	.LBB482:
 148              	.LBB483:
 149              	.LBB484:
 150              	.LBB485:
 151              	.LBB486:
 152              		.loc 3 546 0
 153 0046 0023     		movs	r3, #0
 154              		.syntax unified
 155              	@ 546 "ChibiOS_3.0.2/os/ext/CMSIS/include/core_cmFunc.h" 1
 156 0048 83F31188 		MSR basepri, r3
 157              	@ 0 "" 2
 158              	.LVL7:
 159              		.thumb
 160              		.syntax unified
 161              	.LBE486:
 162              	.LBE485:
 163              	.LBE484:
 164              	.LBE483:
 165              	.LBE482:
 166              	.LBE481:
 167              		.loc 1 1315 0
 168 004c 9A46     		mov	r10, r3
 169              	.LVL8:
 170              	.L5:
 171              		.loc 1 1318 0
ARM GAS  /tmp/ccH4KobB.s 			page 4


 172 004e D9F81430 		ldr	r3, [r9, #20]
 173 0052 13F01003 		ands	r3, r3, #16
 174 0056 58D0     		beq	.L108
 175              	.L25:
 176              	.LVL9:
 177              	.LBB487:
 178              	.LBB473:
 179              		.loc 1 437 0
 180 0058 2A6D     		ldr	r2, [r5, #80]
 181 005a 136A     		ldr	r3, [r2, #32]
 182              	.LVL10:
 183              		.loc 1 438 0
 184 005c 03F4F011 		and	r1, r3, #1966080
 185 0060 B1F5802F 		cmp	r1, #262144
 186 0064 24D0     		beq	.L6
 187 0066 B1F5402F 		cmp	r1, #786432
 188 006a F0D1     		bne	.L5
 189              	.LVL11:
 190              		.loc 1 443 0
 191 006c 03F00F01 		and	r1, r3, #15
 192              	.LVL12:
 193              		.loc 1 444 0
 194 0070 05EB8101 		add	r1, r5, r1, lsl #2
 195              	.LVL13:
 196              		.loc 1 442 0
 197 0074 C3F30A13 		ubfx	r3, r3, #4, #11
 198              	.LVL14:
 199              		.loc 1 444 0
 200 0078 C968     		ldr	r1, [r1, #12]
 201              	.LBB459:
 202              	.LBB460:
 203              		.loc 1 356 0
 204 007a 0333     		adds	r3, r3, #3
 205              		.loc 1 358 0
 206 007c 9B08     		lsrs	r3, r3, #2
 207              	.LBE460:
 208              	.LBE459:
 209              		.loc 1 444 0
 210 007e 0C6A     		ldr	r4, [r1, #32]
 211              	.LVL15:
 212              	.LBB465:
 213              	.LBB464:
 214              		.loc 1 358 0
 215 0080 E5D0     		beq	.L5
 216 0082 02F58052 		add	r2, r2, #4096
 217              	.LVL16:
 218              		.loc 1 357 0
 219 0086 0221     		movs	r1, #2
 220              	.LVL17:
 221              	.LBB461:
 222              		.loc 1 359 0
 223 0088 1668     		ldr	r6, [r2]
 224              	.LVL18:
 225 008a 581E     		subs	r0, r3, #1
 226              		.loc 1 360 0
 227 008c 49B1     		cbz	r1, .L109
 228              	.L10:
ARM GAS  /tmp/ccH4KobB.s 			page 5


 229              		.loc 1 365 0
 230 008e 0346     		mov	r3, r0
 231              		.loc 1 363 0
 232 0090 44F8046B 		str	r6, [r4], #4
 233              	.LVL19:
 234              		.loc 1 365 0
 235 0094 0139     		subs	r1, r1, #1
 236              	.LVL20:
 237              	.LBE461:
 238              		.loc 1 358 0
 239 0096 002B     		cmp	r3, #0
 240 0098 D9D0     		beq	.L5
 241              	.LVL21:
 242              	.L107:
 243              	.LBB462:
 244              		.loc 1 359 0
 245 009a 1668     		ldr	r6, [r2]
 246              	.LVL22:
 247 009c 581E     		subs	r0, r3, #1
 248              		.loc 1 360 0
 249 009e 0029     		cmp	r1, #0
 250 00a0 F5D1     		bne	.L10
 251              	.L109:
 252              	.LVL23:
 253              	.LBE462:
 254              		.loc 1 358 0
 255 00a2 0028     		cmp	r0, #0
 256 00a4 D3D0     		beq	.L5
 257 00a6 023B     		subs	r3, r3, #2
 258              	.LBB463:
 259              		.loc 1 359 0
 260 00a8 1068     		ldr	r0, [r2]
 261              	.LVL24:
 262              	.LBE463:
 263              		.loc 1 358 0
 264 00aa 002B     		cmp	r3, #0
 265 00ac F5D1     		bne	.L107
 266 00ae CEE7     		b	.L5
 267              	.LVL25:
 268              	.L6:
 269              	.LBE464:
 270              	.LBE465:
 271              		.loc 1 449 0
 272 00b0 03F00F06 		and	r6, r3, #15
 273 00b4 05EB8606 		add	r6, r5, r6, lsl #2
 274              		.loc 1 448 0
 275 00b8 C3F30A14 		ubfx	r4, r3, #4, #11
 276              	.LVL26:
 277              		.loc 1 450 0
 278 00bc F368     		ldr	r3, [r6, #12]
 279              	.LVL27:
 280 00be 9F69     		ldr	r7, [r3, #24]
 281 00c0 3B78     		ldrb	r3, [r7]	@ zero_extendqisi2
 282 00c2 F868     		ldr	r0, [r7, #12]
 283 00c4 002B     		cmp	r3, #0
 284 00c6 3BD1     		bne	.L110
 285              		.loc 1 461 0
ARM GAS  /tmp/ccH4KobB.s 			page 6


 286 00c8 D7E9011C 		ldrd	r1, ip, [r7, #4]
 287              	.LVL28:
 288              	.LBB466:
 289              	.LBB467:
 290              		.loc 1 357 0
 291 00cc CE1C     		adds	r6, r1, #3
 292              		.loc 1 356 0
 293 00ce E11C     		adds	r1, r4, #3
 294              	.LVL29:
 295              		.loc 1 357 0
 296 00d0 A6EB0C06 		sub	r6, r6, ip
 297              		.loc 1 358 0
 298 00d4 8908     		lsrs	r1, r1, #2
 299              		.loc 1 357 0
 300 00d6 4FEA9606 		lsr	r6, r6, #2
 301              	.LVL30:
 302              		.loc 1 358 0
 303 00da 0DD0     		beq	.L21
 304 00dc 02F58052 		add	r2, r2, #4096
 305              	.LVL31:
 306 00e0 8646     		mov	lr, r0
 307 00e2 9046     		mov	r8, r2
 308              	.LVL32:
 309              	.L24:
 310              	.LBB468:
 311              		.loc 1 359 0
 312 00e4 D8F80020 		ldr	r2, [r8]
 313              	.LVL33:
 314 00e8 4B1E     		subs	r3, r1, #1
 315              		.loc 1 360 0
 316 00ea 0EB3     		cbz	r6, .L111
 317              		.loc 1 365 0
 318 00ec 1946     		mov	r1, r3
 319              	.LVL34:
 320              		.loc 1 363 0
 321 00ee 4EF8042B 		str	r2, [lr], #4
 322              	.LVL35:
 323              		.loc 1 365 0
 324 00f2 013E     		subs	r6, r6, #1
 325              	.LVL36:
 326              	.LBE468:
 327              		.loc 1 358 0
 328 00f4 0029     		cmp	r1, #0
 329 00f6 F5D1     		bne	.L24
 330              	.LVL37:
 331              	.L21:
 332              	.LBE467:
 333              	.LBE466:
 334              		.loc 1 462 0
 335 00f8 2044     		add	r0, r0, r4
 336 00fa F860     		str	r0, [r7, #12]
 337              	.L20:
 338              	.LBE473:
 339              	.LBE487:
 340              		.loc 1 1318 0
 341 00fc D9F81430 		ldr	r3, [r9, #20]
 342              	.LBB488:
ARM GAS  /tmp/ccH4KobB.s 			page 7


 343              	.LBB474:
 344              		.loc 1 464 0
 345 0100 6444     		add	r4, r4, ip
 346              	.LVL38:
 347              	.LBE474:
 348              	.LBE488:
 349              		.loc 1 1318 0
 350 0102 13F01003 		ands	r3, r3, #16
 351              	.LBB489:
 352              	.LBB475:
 353              		.loc 1 464 0
 354 0106 BC60     		str	r4, [r7, #8]
 355              	.LBE475:
 356              	.LBE489:
 357              		.loc 1 1318 0
 358 0108 A6D1     		bne	.L25
 359              	.LVL39:
 360              	.L108:
 361              		.loc 1 1322 0
 362 010a 0126     		movs	r6, #1
 363              		.loc 1 1323 0
 364 010c EA6D     		ldr	r2, [r5, #92]
 365              		.loc 1 1322 0
 366 010e 06FA0AF6 		lsl	r6, r6, r10
 367              	.LVL40:
 368              		.loc 1 1323 0
 369 0112 1642     		tst	r6, r2
 370 0114 50D1     		bne	.L100
 371 0116 0AF10103 		add	r3, r10, #1
 372 011a 0293     		str	r3, [sp, #8]
 373              	.LVL41:
 374              	.L26:
 375              		.loc 1 1315 0 discriminator 2
 376 011c 6B6D     		ldr	r3, [r5, #84]
 377 011e 9DF808A0 		ldrb	r10, [sp, #8]	@ zero_extendqisi2
 378              	.LVL42:
 379 0122 9B68     		ldr	r3, [r3, #8]
 380 0124 9A45     		cmp	r10, r3
 381 0126 92D9     		bls	.L5
 382              	.LVL43:
 383              	.LBB490:
 384              	.LBB491:
 385              	.LBB492:
 386              	.LBB493:
 387              	.LBB494:
 388              		.loc 3 546 0
 389 0128 009B     		ldr	r3, [sp]
 390              		.syntax unified
 391              	@ 546 "ChibiOS_3.0.2/os/ext/CMSIS/include/core_cmFunc.h" 1
 392 012a 83F31188 		MSR basepri, r3
 393              	@ 0 "" 2
 394              	.LVL44:
 395              		.thumb
 396              		.syntax unified
 397 012e 78E7     		b	.L51
 398              	.LVL45:
 399              	.L111:
ARM GAS  /tmp/ccH4KobB.s 			page 8


 400              	.LBE494:
 401              	.LBE493:
 402              	.LBE492:
 403              	.LBE491:
 404              	.LBE490:
 405              	.LBB495:
 406              	.LBB476:
 407              	.LBB471:
 408              	.LBB470:
 409              		.loc 1 358 0
 410 0130 002B     		cmp	r3, #0
 411 0132 E1D0     		beq	.L21
 412 0134 0239     		subs	r1, r1, #2
 413              	.LVL46:
 414              	.LBB469:
 415              		.loc 1 359 0
 416 0136 D8F80030 		ldr	r3, [r8]
 417              	.LVL47:
 418              	.LBE469:
 419              		.loc 1 358 0
 420 013a 0029     		cmp	r1, #0
 421 013c D2D1     		bne	.L24
 422 013e DBE7     		b	.L21
 423              	.LVL48:
 424              	.L110:
 425              	.LBE470:
 426              	.LBE471:
 427              	.LBB472:
 428              	.LBB458:
 429              		.loc 1 386 0
 430 0140 3CB3     		cbz	r4, .L14
 431 0142 4169     		ldr	r1, [r0, #20]
 432 0144 02F58052 		add	r2, r2, #4096
 433              	.LVL49:
 434 0148 A446     		mov	ip, r4
 435              	.LVL50:
 436              	.L15:
 437              	.LBB445:
 438              		.loc 1 390 0
 439 014a BCF1030F 		cmp	ip, #3
 440 014e 07D9     		bls	.L16
 441              	.LVL51:
 442              	.L112:
 443              	.LBB446:
 444              		.loc 1 396 0
 445 0150 0369     		ldr	r3, [r0, #16]
 446 0152 8B42     		cmp	r3, r1
 447 0154 04D8     		bhi	.L16
 448              		.loc 1 397 0
 449 0156 C168     		ldr	r1, [r0, #12]
 450 0158 4161     		str	r1, [r0, #20]
 451              	.LVL52:
 452              	.LBE446:
 453              		.loc 1 390 0
 454 015a BCF1030F 		cmp	ip, #3
 455 015e F7D8     		bhi	.L112
 456              	.LVL53:
ARM GAS  /tmp/ccH4KobB.s 			page 9


 457              	.L16:
 458              		.loc 1 408 0
 459 0160 D2F800E0 		ldr	lr, [r2]
 460              	.LVL54:
 461 0164 0023     		movs	r3, #0
 462              	.LVL55:
 463              	.L19:
 464              		.loc 1 411 0
 465 0166 2EFA03F7 		lsr	r7, lr, r3
 466 016a 01F10108 		add	r8, r1, #1
 467 016e C0F81480 		str	r8, [r0, #20]
 468 0172 0F70     		strb	r7, [r1]
 469              		.loc 1 412 0
 470 0174 D0E90417 		ldrd	r1, r7, [r0, #16]
 471 0178 8F42     		cmp	r7, r1
 472              		.loc 1 413 0
 473 017a 24BF     		itt	cs
 474 017c C168     		ldrcs	r1, [r0, #12]
 475 017e 4161     		strcs	r1, [r0, #20]
 476              		.loc 1 410 0
 477 0180 BCF1010C 		subs	ip, ip, #1
 478              	.LVL56:
 479 0184 03F10803 		add	r3, r3, #8
 480 0188 03D0     		beq	.L14
 481 018a 202B     		cmp	r3, #32
 482 018c 4169     		ldr	r1, [r0, #20]
 483 018e EAD1     		bne	.L19
 484 0190 DBE7     		b	.L15
 485              	.LVL57:
 486              	.L14:
 487              	.LBE445:
 488              	.LBB447:
 489              	.LBB444:
 490              	.LBB443:
 491              	.LBB442:
 492              	.LBB441:
 493              		.loc 3 546 0
 494 0192 009B     		ldr	r3, [sp]
 495              		.syntax unified
 496              	@ 546 "ChibiOS_3.0.2/os/ext/CMSIS/include/core_cmFunc.h" 1
 497 0194 83F31188 		MSR basepri, r3
 498              	@ 0 "" 2
 499              	.LVL58:
 500              		.thumb
 501              		.syntax unified
 502              	.LBE441:
 503              	.LBE442:
 504              	.LBE443:
 505              	.LBE444:
 506              	.LBE447:
 507              		.loc 1 421 0
 508 0198 8368     		ldr	r3, [r0, #8]
 509 019a 2344     		add	r3, r3, r4
 510 019c 8360     		str	r3, [r0, #8]
 511              	.LVL59:
 512              	.LBB448:
 513              	.LBB449:
ARM GAS  /tmp/ccH4KobB.s 			page 10


 514              		.loc 4 810 0
 515 019e 0021     		movs	r1, #0
 516 01a0 FFF7FEFF 		bl	chThdDequeueAllI
 517              	.LVL60:
 518              	.LBE449:
 519              	.LBE448:
 520              	.LBB450:
 521              	.LBB451:
 522              		.loc 4 600 0
 523 01a4 FFF7FEFF 		bl	chSchRescheduleS
 524              	.LVL61:
 525              	.LBE451:
 526              	.LBE450:
 527              	.LBB452:
 528              	.LBB453:
 529              	.LBB454:
 530              	.LBB455:
 531              	.LBB456:
 532              	.LBB457:
 533              		.loc 3 546 0
 534 01a8 0023     		movs	r3, #0
 535              		.syntax unified
 536              	@ 546 "ChibiOS_3.0.2/os/ext/CMSIS/include/core_cmFunc.h" 1
 537 01aa 83F31188 		MSR basepri, r3
 538              	@ 0 "" 2
 539              	.LVL62:
 540              		.thumb
 541              		.syntax unified
 542 01ae F368     		ldr	r3, [r6, #12]
 543 01b0 9F69     		ldr	r7, [r3, #24]
 544 01b2 D7F808C0 		ldr	ip, [r7, #8]
 545 01b6 A1E7     		b	.L20
 546              	.LVL63:
 547              	.L100:
 548              	.LBE457:
 549              	.LBE456:
 550              	.LBE455:
 551              	.LBE454:
 552              	.LBE453:
 553              	.LBE452:
 554              	.LBE458:
 555              	.LBE472:
 556              	.LBE476:
 557              	.LBE495:
 558              	.LBB496:
 559              	.LBB497:
 560              	.LBB498:
 561              	.LBB499:
 562              	.LBB500:
 563              	.LBB501:
 564 01b8 009A     		ldr	r2, [sp]
 565              		.syntax unified
 566              	@ 546 "ChibiOS_3.0.2/os/ext/CMSIS/include/core_cmFunc.h" 1
 567 01ba 82F31188 		MSR basepri, r2
 568              	@ 0 "" 2
 569              	.LVL64:
 570              		.thumb
ARM GAS  /tmp/ccH4KobB.s 			page 11


 571              		.syntax unified
 572              	.LBE501:
 573              	.LBE500:
 574              	.LBE499:
 575              	.LBE498:
 576              	.LBE497:
 577              		.loc 1 1334 0
 578 01be D9F80810 		ldr	r1, [r9, #8]
 579              		.loc 1 1335 0
 580 01c2 EA6D     		ldr	r2, [r5, #92]
 581              		.loc 1 1334 0
 582 01c4 21F00101 		bic	r1, r1, #1
 583              		.loc 1 1335 0
 584 01c8 22EA0602 		bic	r2, r2, r6
 585              		.loc 1 1334 0
 586 01cc C9F80810 		str	r1, [r9, #8]
 587              		.loc 1 1335 0
 588 01d0 EA65     		str	r2, [r5, #92]
 589              	.LVL65:
 590              	.LBB502:
 591              	.LBB503:
 592              	.LBB504:
 593              	.LBB505:
 594              	.LBB506:
 595              	.LBB507:
 596              		.loc 3 546 0
 597              		.syntax unified
 598              	@ 546 "ChibiOS_3.0.2/os/ext/CMSIS/include/core_cmFunc.h" 1
 599 01d2 83F31188 		MSR basepri, r3
 600              	@ 0 "" 2
 601              	.LVL66:
 602              		.thumb
 603              		.syntax unified
 604 01d6 05EB8A03 		add	r3, r5, r10, lsl #2
 605 01da 1F46     		mov	r7, r3
 606              	.LBE507:
 607              	.LBE506:
 608              	.LBE505:
 609              	.LBE504:
 610              	.LBE503:
 611              	.LBE502:
 612              	.LBB508:
 613              	.LBB509:
 614              		.loc 1 488 0
 615 01dc D968     		ldr	r1, [r3, #12]
 616 01de 4A69     		ldr	r2, [r1, #20]
 617 01e0 D2E90130 		ldrd	r3, r0, [r2, #4]
 618 01e4 9842     		cmp	r0, r3
 619 01e6 80F0B680 		bcs	.L113
 620              		.loc 1 498 0
 621 01ea D5F850E0 		ldr	lr, [r5, #80]
 622              		.loc 1 493 0
 623 01ee 0C8A     		ldrh	r4, [r1, #16]
 624              		.loc 1 498 0
 625 01f0 4FEA4A18 		lsl	r8, r10, #5
 626 01f4 0EEB080C 		add	ip, lr, r8
 627              		.loc 1 492 0
ARM GAS  /tmp/ccH4KobB.s 			page 12


 628 01f8 1B1A     		subs	r3, r3, r0
 629              	.LVL67:
 630              		.loc 1 498 0
 631 01fa DCF81809 		ldr	r0, [ip, #2328]
 632 01fe 9C42     		cmp	r4, r3
 633 0200 28BF     		it	cs
 634 0202 1C46     		movcs	r4, r3
 635              	.LVL68:
 636 0204 83B2     		uxth	r3, r0
 637 0206 B4EB830F 		cmp	r4, r3, lsl #2
 638 020a 00F2B180 		bhi	.L29
 639 020e 0AF10103 		add	r3, r10, #1
 640 0212 0293     		str	r3, [sp, #8]
 641 0214 1B03     		lsls	r3, r3, #12
 642 0216 CDE90396 		strd	r9, r6, [sp, #12]
 643 021a 0193     		str	r3, [sp, #4]
 644 021c B946     		mov	r9, r7
 645              	.LVL69:
 646              	.L30:
 647 021e 019E     		ldr	r6, [sp, #4]
 648              		.loc 1 505 0
 649 0220 1378     		ldrb	r3, [r2]	@ zero_extendqisi2
 650 0222 D068     		ldr	r0, [r2, #12]
 651 0224 B644     		add	lr, lr, r6
 652 0226 002B     		cmp	r3, #0
 653 0228 7ED0     		beq	.L33
 654              	.LVL70:
 655              	.LBB510:
 656              	.LBB511:
 657              		.loc 1 274 0
 658 022a FCB1     		cbz	r4, .L34
 659 022c D0F810B0 		ldr	fp, [r0, #16]
 660              	.LBB512:
 661              	.LBB513:
 662              		.loc 1 280 0
 663 0230 2246     		mov	r2, r4
 664              	.LVL71:
 665              	.L44:
 666              	.LBE513:
 667              		.loc 1 278 0
 668 0232 9708     		lsrs	r7, r2, #2
 669              	.LVL72:
 670 0234 8369     		ldr	r3, [r0, #24]
 671 0236 5ED0     		beq	.L35
 672              	.LVL73:
 673              	.LBB518:
 674              		.loc 1 280 0
 675 0238 BBEB0301 		subs	r1, fp, r3
 676 023c 48BF     		it	mi
 677 023e 0331     		addmi	r1, r1, #3
 678 0240 8E10     		asrs	r6, r1, #2
 679              		.loc 1 282 0
 680 0242 BE42     		cmp	r6, r7
 681 0244 28BF     		it	cs
 682 0246 3E46     		movcs	r6, r7
 683              	.LVL74:
 684 0248 B100     		lsls	r1, r6, #2
ARM GAS  /tmp/ccH4KobB.s 			page 13


 685 024a 521A     		subs	r2, r2, r1
 686              	.LVL75:
 687              	.LBB514:
 688              	.LBB515:
 689              		.loc 1 233 0
 690 024c 002E     		cmp	r6, #0
 691 024e 7CD0     		beq	.L54
 692 0250 1944     		add	r1, r1, r3
 693              	.LVL76:
 694              	.L38:
 695              		.loc 1 236 0
 696 0252 53F8046B 		ldr	r6, [r3], #4
 697              	.LVL77:
 698 0256 CEF80060 		str	r6, [lr]
 699              	.LVL78:
 700              		.loc 1 233 0
 701 025a 8B42     		cmp	r3, r1
 702 025c F9D1     		bne	.L38
 703              	.LVL79:
 704              	.L37:
 705              	.LBE515:
 706              	.LBE514:
 707              		.loc 1 284 0
 708 025e 5945     		cmp	r1, fp
 709              		.loc 1 283 0
 710 0260 8161     		str	r1, [r0, #24]
 711              	.LVL80:
 712              		.loc 1 284 0
 713 0262 45D3     		bcc	.L39
 714              		.loc 1 285 0
 715 0264 C368     		ldr	r3, [r0, #12]
 716 0266 8361     		str	r3, [r0, #24]
 717              	.LBE518:
 718              	.LBE512:
 719              		.loc 1 274 0
 720 0268 002A     		cmp	r2, #0
 721 026a E2D1     		bne	.L44
 722              	.LVL81:
 723              	.L34:
 724              	.LBB520:
 725              	.LBB521:
 726              	.LBB522:
 727              	.LBB523:
 728              	.LBB524:
 729              		.loc 3 546 0
 730 026c 009B     		ldr	r3, [sp]
 731              		.syntax unified
 732              	@ 546 "ChibiOS_3.0.2/os/ext/CMSIS/include/core_cmFunc.h" 1
 733 026e 83F31188 		MSR basepri, r3
 734              	@ 0 "" 2
 735              	.LVL82:
 736              		.thumb
 737              		.syntax unified
 738              	.LBE524:
 739              	.LBE523:
 740              	.LBE522:
 741              	.LBE521:
ARM GAS  /tmp/ccH4KobB.s 			page 14


 742              	.LBE520:
 743              		.loc 1 310 0
 744 0272 8368     		ldr	r3, [r0, #8]
 745 0274 2344     		add	r3, r3, r4
 746 0276 8360     		str	r3, [r0, #8]
 747              	.LVL83:
 748              	.LBB525:
 749              	.LBB526:
 750              		.loc 4 810 0
 751 0278 0021     		movs	r1, #0
 752 027a FFF7FEFF 		bl	chThdDequeueAllI
 753              	.LVL84:
 754              	.LBE526:
 755              	.LBE525:
 756              	.LBB527:
 757              	.LBB528:
 758              		.loc 4 600 0
 759 027e FFF7FEFF 		bl	chSchRescheduleS
 760              	.LVL85:
 761              	.LBE528:
 762              	.LBE527:
 763              	.LBB529:
 764              	.LBB530:
 765              	.LBB531:
 766              	.LBB532:
 767              	.LBB533:
 768              	.LBB534:
 769              		.loc 3 546 0
 770 0282 0023     		movs	r3, #0
 771              		.syntax unified
 772              	@ 546 "ChibiOS_3.0.2/os/ext/CMSIS/include/core_cmFunc.h" 1
 773 0284 83F31188 		MSR basepri, r3
 774              	@ 0 "" 2
 775              	.LVL86:
 776              		.thumb
 777              		.syntax unified
 778 0288 D9F80C10 		ldr	r1, [r9, #12]
 779              	.LVL87:
 780              	.L45:
 781              	.LBE534:
 782              	.LBE533:
 783              	.LBE532:
 784              	.LBE531:
 785              	.LBE530:
 786              	.LBE529:
 787              	.LBE511:
 788              	.LBE510:
 789              		.loc 1 521 0
 790 028c 4A69     		ldr	r2, [r1, #20]
 791              		.loc 1 488 0
 792 028e D2E90103 		ldrd	r0, r3, [r2, #4]
 793              		.loc 1 521 0
 794 0292 1C44     		add	r4, r4, r3
 795              	.LVL88:
 796              		.loc 1 488 0
 797 0294 A042     		cmp	r0, r4
 798              		.loc 1 521 0
ARM GAS  /tmp/ccH4KobB.s 			page 15


 799 0296 9460     		str	r4, [r2, #8]
 800              		.loc 1 488 0
 801 0298 59D9     		bls	.L114
 802              		.loc 1 498 0
 803 029a D5F850E0 		ldr	lr, [r5, #80]
 804              		.loc 1 493 0
 805 029e B1F810C0 		ldrh	ip, [r1, #16]
 806              		.loc 1 498 0
 807 02a2 0EEB080A 		add	r10, lr, r8
 808              		.loc 1 492 0
 809 02a6 041B     		subs	r4, r0, r4
 810              	.LVL89:
 811              		.loc 1 498 0
 812 02a8 DAF81839 		ldr	r3, [r10, #2328]
 813 02ac 6445     		cmp	r4, ip
 814 02ae 28BF     		it	cs
 815 02b0 6446     		movcs	r4, ip
 816              	.LVL90:
 817 02b2 9BB2     		uxth	r3, r3
 818 02b4 B4EB830F 		cmp	r4, r3, lsl #2
 819 02b8 B1D9     		bls	.L30
 820 02ba DDE90396 		ldrd	r9, r6, [sp, #12]
 821              		.loc 1 499 0
 822 02be 0022     		movs	r2, #0
 823              	.LVL91:
 824              	.L32:
 825              	.LBE509:
 826              	.LBE508:
 827              	.LBB546:
 828              	.LBB547:
 829              	.LBB548:
 830              	.LBB549:
 831              	.LBB550:
 832              		.loc 3 546 0
 833 02c0 009B     		ldr	r3, [sp]
 834              		.syntax unified
 835              	@ 546 "ChibiOS_3.0.2/os/ext/CMSIS/include/core_cmFunc.h" 1
 836 02c2 83F31188 		MSR basepri, r3
 837              	@ 0 "" 2
 838              	.LVL92:
 839              		.thumb
 840              		.syntax unified
 841              	.LBE550:
 842              	.LBE549:
 843              	.LBE548:
 844              	.LBE547:
 845              	.LBE546:
 846              		.loc 1 1341 0
 847 02c6 D9F80830 		ldr	r3, [r9, #8]
 848 02ca 43F00103 		orr	r3, r3, #1
 849 02ce C9F80830 		str	r3, [r9, #8]
 850              		.loc 1 1342 0
 851 02d2 22B9     		cbnz	r2, .L28
 852              	.LVL93:
 853              	.L31:
 854              		.loc 1 1343 0
 855 02d4 D9F83438 		ldr	r3, [r9, #2100]
ARM GAS  /tmp/ccH4KobB.s 			page 16


 856 02d8 1E43     		orrs	r6, r6, r3
 857 02da C9F83468 		str	r6, [r9, #2100]
 858              	.L28:
 859              	.LVL94:
 860              	.LBB559:
 861              	.LBB560:
 862              	.LBB561:
 863              	.LBB562:
 864              	.LBB563:
 865              	.LBB564:
 866              		.loc 3 546 0
 867 02de 0023     		movs	r3, #0
 868              		.syntax unified
 869              	@ 546 "ChibiOS_3.0.2/os/ext/CMSIS/include/core_cmFunc.h" 1
 870 02e0 83F31188 		MSR basepri, r3
 871              	@ 0 "" 2
 872              	.LVL95:
 873              		.thumb
 874              		.syntax unified
 875 02e4 1AE7     		b	.L26
 876              	.L116:
 877 02e6 00BF     		.align	2
 878              	.L115:
 879 02e8 00000000 		.word	ch
 880 02ec 00000000 		.word	.LC0
 881              	.LVL96:
 882              	.L39:
 883              	.LBE564:
 884              	.LBE563:
 885              	.LBE562:
 886              	.LBE561:
 887              	.LBE560:
 888              	.LBE559:
 889              	.LBB565:
 890              	.LBB545:
 891              	.LBB539:
 892              	.LBB537:
 893              	.LBB535:
 894              		.loc 1 292 0
 895 02f0 002A     		cmp	r2, #0
 896 02f2 BBD0     		beq	.L34
 897 02f4 0B46     		mov	r3, r1
 898              	.L35:
 899 02f6 0021     		movs	r1, #0
 900 02f8 0E46     		mov	r6, r1
 901              	.LVL97:
 902              	.L43:
 903              		.loc 1 299 0
 904 02fa 5F1C     		adds	r7, r3, #1
 905 02fc 8761     		str	r7, [r0, #24]
 906 02fe 1B78     		ldrb	r3, [r3]	@ zero_extendqisi2
 907              		.loc 1 300 0
 908 0300 5F45     		cmp	r7, fp
 909              		.loc 1 299 0
 910 0302 03FA01F3 		lsl	r3, r3, r1
 911 0306 46EA0306 		orr	r6, r6, r3
 912              	.LVL98:
ARM GAS  /tmp/ccH4KobB.s 			page 17


 913              		.loc 1 301 0
 914 030a 24BF     		itt	cs
 915 030c C368     		ldrcs	r3, [r0, #12]
 916 030e 8361     		strcs	r3, [r0, #24]
 917              		.loc 1 298 0
 918 0310 013A     		subs	r2, r2, #1
 919              	.LVL99:
 920 0312 04D0     		beq	.L42
 921 0314 1829     		cmp	r1, #24
 922 0316 02D0     		beq	.L42
 923 0318 0831     		adds	r1, r1, #8
 924 031a 8369     		ldr	r3, [r0, #24]
 925 031c EDE7     		b	.L43
 926              	.L42:
 927              		.loc 1 305 0
 928 031e CEF80060 		str	r6, [lr]
 929              	.LBE535:
 930              		.loc 1 274 0
 931 0322 002A     		cmp	r2, #0
 932 0324 85D1     		bne	.L44
 933 0326 A1E7     		b	.L34
 934              	.LVL100:
 935              	.L33:
 936              	.LBE537:
 937              	.LBE539:
 938              	.LBB540:
 939              	.LBB541:
 940              		.loc 1 256 0
 941 0328 E31C     		adds	r3, r4, #3
 942              	.LVL101:
 943              	.LBB542:
 944              	.LBB543:
 945              		.loc 1 233 0
 946 032a 9B08     		lsrs	r3, r3, #2
 947              	.LVL102:
 948 032c 0AD0     		beq	.L46
 949 032e 00EB8301 		add	r1, r0, r3, lsl #2
 950 0332 0346     		mov	r3, r0
 951              	.LVL103:
 952              	.L47:
 953              		.loc 1 236 0
 954 0334 53F8046B 		ldr	r6, [r3], #4
 955              	.LVL104:
 956 0338 CEF80060 		str	r6, [lr]
 957              	.LVL105:
 958              		.loc 1 233 0
 959 033c 8B42     		cmp	r3, r1
 960 033e F9D1     		bne	.L47
 961 0340 D9F80C10 		ldr	r1, [r9, #12]
 962              	.LVL106:
 963              	.L46:
 964              	.LBE543:
 965              	.LBE542:
 966              	.LBE541:
 967              	.LBE540:
 968              		.loc 1 516 0
 969 0344 2044     		add	r0, r0, r4
ARM GAS  /tmp/ccH4KobB.s 			page 18


 970 0346 D060     		str	r0, [r2, #12]
 971 0348 A0E7     		b	.L45
 972              	.LVL107:
 973              	.L54:
 974              	.LBB544:
 975              	.LBB538:
 976              	.LBB536:
 977              	.LBB519:
 978              	.LBB517:
 979              	.LBB516:
 980              		.loc 1 233 0
 981 034a 1946     		mov	r1, r3
 982 034c 87E7     		b	.L37
 983              	.LVL108:
 984              	.L114:
 985 034e DDE90396 		ldrd	r9, r6, [sp, #12]
 986              	.LBE516:
 987              	.LBE517:
 988              	.LBE519:
 989              	.LBE536:
 990              	.LBE538:
 991              	.LBE544:
 992              		.loc 1 489 0
 993 0352 0122     		movs	r2, #1
 994 0354 B4E7     		b	.L32
 995              	.LVL109:
 996              	.L113:
 997              	.LBE545:
 998              	.LBE565:
 999              	.LBB566:
 1000              	.LBB557:
 1001              	.LBB555:
 1002              	.LBB553:
 1003              	.LBB551:
 1004              		.loc 3 546 0
 1005 0356 009B     		ldr	r3, [sp]
 1006              		.syntax unified
 1007              	@ 546 "ChibiOS_3.0.2/os/ext/CMSIS/include/core_cmFunc.h" 1
 1008 0358 83F31188 		MSR basepri, r3
 1009              	@ 0 "" 2
 1010              	.LVL110:
 1011              		.thumb
 1012              		.syntax unified
 1013              	.LBE551:
 1014              	.LBE553:
 1015              	.LBE555:
 1016              	.LBE557:
 1017              	.LBE566:
 1018              		.loc 1 1341 0
 1019 035c D9F80830 		ldr	r3, [r9, #8]
 1020 0360 0AF10102 		add	r2, r10, #1
 1021 0364 43F00103 		orr	r3, r3, #1
 1022 0368 0292     		str	r2, [sp, #8]
 1023 036a C9F80830 		str	r3, [r9, #8]
 1024 036e B6E7     		b	.L28
 1025              	.LVL111:
 1026              	.L29:
ARM GAS  /tmp/ccH4KobB.s 			page 19


 1027              	.LBB567:
 1028              	.LBB558:
 1029              	.LBB556:
 1030              	.LBB554:
 1031              	.LBB552:
 1032              		.loc 3 546 0
 1033 0370 009B     		ldr	r3, [sp]
 1034              		.syntax unified
 1035              	@ 546 "ChibiOS_3.0.2/os/ext/CMSIS/include/core_cmFunc.h" 1
 1036 0372 83F31188 		MSR basepri, r3
 1037              	@ 0 "" 2
 1038              	.LVL112:
 1039              		.thumb
 1040              		.syntax unified
 1041              	.LBE552:
 1042              	.LBE554:
 1043              	.LBE556:
 1044              	.LBE558:
 1045              	.LBE567:
 1046              		.loc 1 1341 0
 1047 0376 D9F80830 		ldr	r3, [r9, #8]
 1048 037a 0AF10102 		add	r2, r10, #1
 1049 037e 43F00103 		orr	r3, r3, #1
 1050 0382 0292     		str	r2, [sp, #8]
 1051 0384 C9F80830 		str	r3, [r9, #8]
 1052 0388 A4E7     		b	.L31
 1053              	.LBE496:
 1054              	.LBE431:
 1055              		.cfi_endproc
 1056              	.LFE292:
 1057              		.size	usb_lld_pump, .-usb_lld_pump
 1058 038a 00BF     		.section	.text.otg_disable_ep.isra.0,"ax",%progbits
 1059              		.align	1
 1060              		.p2align 4,,15
 1061              		.syntax unified
 1062              		.thumb
 1063              		.thumb_func
 1064              		.fpu fpv4-sp-d16
 1065              		.type	otg_disable_ep.isra.0, %function
 1066              	otg_disable_ep.isra.0:
 1067              	.LFB293:
 1068              		.loc 1 132 0
 1069              		.cfi_startproc
 1070              		@ args = 0, pretend = 0, frame = 0
 1071              		@ frame_needed = 0, uses_anonymous_args = 0
 1072              	.LVL113:
 1073 0000 8B68     		ldr	r3, [r1, #8]
 1074 0002 F0B5     		push	{r4, r5, r6, r7, lr}
 1075              		.cfi_def_cfa_offset 20
 1076              		.cfi_offset 4, -20
 1077              		.cfi_offset 5, -16
 1078              		.cfi_offset 6, -12
 1079              		.cfi_offset 7, -8
 1080              		.cfi_offset 14, -4
 1081              		.loc 1 136 0
 1082 0004 0024     		movs	r4, #0
 1083 0006 03F1010C 		add	ip, r3, #1
ARM GAS  /tmp/ccH4KobB.s 			page 20


 1084              		.loc 1 147 0
 1085 000a 2546     		mov	r5, r4
 1086              		.loc 1 141 0
 1087 000c 4FF0804E 		mov	lr, #1073741824
 1088              		.loc 1 149 0
 1089 0010 4FF0FF36 		mov	r6, #-1
 1090 0014 14E0     		b	.L124
 1091              	.LVL114:
 1092              	.L118:
 1093              		.loc 1 147 0
 1094 0016 C2F80059 		str	r5, [r2, #2304]
 1095              	.L120:
 1096              		.loc 1 148 0
 1097 001a C118     		adds	r1, r0, r3
 1098 001c C1F81059 		str	r5, [r1, #2320]
 1099              		.loc 1 149 0
 1100 0020 C1F80869 		str	r6, [r1, #2312]
 1101              		.loc 1 155 0
 1102 0024 D2F8007B 		ldr	r7, [r2, #2816]
 1103 0028 002F     		cmp	r7, #0
 1104 002a 17DB     		blt	.L131
 1105              		.loc 1 162 0
 1106 002c C2F8005B 		str	r5, [r2, #2816]
 1107              	.L123:
 1108              		.loc 1 163 0
 1109 0030 0344     		add	r3, r3, r0
 1110              		.loc 1 136 0
 1111 0032 0134     		adds	r4, r4, #1
 1112              	.LVL115:
 1113 0034 6445     		cmp	r4, ip
 1114              		.loc 1 163 0
 1115 0036 C3F8105B 		str	r5, [r3, #2832]
 1116              		.loc 1 164 0
 1117 003a C3F8086B 		str	r6, [r3, #2824]
 1118              		.loc 1 136 0
 1119 003e 14D0     		beq	.L132
 1120              	.LVL116:
 1121              	.L124:
 1122 0040 6301     		lsls	r3, r4, #5
 1123 0042 C218     		adds	r2, r0, r3
 1124              		.loc 1 140 0
 1125 0044 D2F80019 		ldr	r1, [r2, #2304]
 1126 0048 0029     		cmp	r1, #0
 1127 004a E4DA     		bge	.L118
 1128              		.loc 1 141 0
 1129 004c C2F800E9 		str	lr, [r2, #2304]
 1130              		.loc 1 143 0
 1131 0050 1746     		mov	r7, r2
 1132              	.L119:
 1133 0052 D7F80819 		ldr	r1, [r7, #2312]
 1134 0056 8907     		lsls	r1, r1, #30
 1135 0058 FBD5     		bpl	.L119
 1136 005a DEE7     		b	.L120
 1137              	.L131:
 1138              		.loc 1 156 0
 1139 005c C2F800EB 		str	lr, [r2, #2816]
 1140              	.L122:
ARM GAS  /tmp/ccH4KobB.s 			page 21


 1141              		.loc 1 158 0
 1142 0060 D1F8082B 		ldr	r2, [r1, #2824]
 1143 0064 D206     		lsls	r2, r2, #27
 1144 0066 FBD5     		bpl	.L122
 1145 0068 E2E7     		b	.L123
 1146              	.L132:
 1147              		.loc 1 166 0
 1148 006a 4FF00113 		mov	r3, #65537
 1149 006e C0F81C38 		str	r3, [r0, #2076]
 1150              		.loc 1 167 0
 1151 0072 F0BD     		pop	{r4, r5, r6, r7, pc}
 1152              		.cfi_endproc
 1153              	.LFE293:
 1154              		.size	otg_disable_ep.isra.0, .-otg_disable_ep.isra.0
 1155              		.section	.text.usb_lld_init,"ax",%progbits
 1156              		.align	1
 1157              		.p2align 4,,15
 1158              		.global	usb_lld_init
 1159              		.syntax unified
 1160              		.thumb
 1161              		.thumb_func
 1162              		.fpu fpv4-sp-d16
 1163              		.type	usb_lld_init, %function
 1164              	usb_lld_init:
 1165              	.LFB274:
 1166              		.loc 1 744 0
 1167              		.cfi_startproc
 1168              		@ args = 0, pretend = 0, frame = 0
 1169              		@ frame_needed = 0, uses_anonymous_args = 0
 1170 0000 10B5     		push	{r4, lr}
 1171              		.cfi_def_cfa_offset 8
 1172              		.cfi_offset 4, -8
 1173              		.cfi_offset 14, -4
 1174              		.loc 1 748 0
 1175 0002 064C     		ldr	r4, .L135
 1176 0004 2046     		mov	r0, r4
 1177 0006 FFF7FEFF 		bl	usbObjectInit
 1178              	.LVL117:
 1179              		.loc 1 750 0
 1180 000a 4FF0A043 		mov	r3, #1342177280
 1181              		.loc 1 751 0
 1182 000e 044A     		ldr	r2, .L135+4
 1183              		.loc 1 750 0
 1184 0010 2365     		str	r3, [r4, #80]
 1185              		.loc 1 749 0
 1186 0012 0023     		movs	r3, #0
 1187              		.loc 1 751 0
 1188 0014 6265     		str	r2, [r4, #84]
 1189              		.loc 1 754 0
 1190 0016 C4E91833 		strd	r3, r3, [r4, #96]
 1191              		.loc 1 794 0
 1192 001a 10BD     		pop	{r4, pc}
 1193              	.L136:
 1194              		.align	2
 1195              	.L135:
 1196 001c 00000000 		.word	.LANCHOR0
 1197 0020 00000000 		.word	.LANCHOR1
ARM GAS  /tmp/ccH4KobB.s 			page 22


 1198              		.cfi_endproc
 1199              	.LFE274:
 1200              		.size	usb_lld_init, .-usb_lld_init
 1201              		.section	.text.usb_lld_start,"ax",%progbits
 1202              		.align	1
 1203              		.p2align 4,,15
 1204              		.global	usb_lld_start
 1205              		.syntax unified
 1206              		.thumb
 1207              		.thumb_func
 1208              		.fpu fpv4-sp-d16
 1209              		.type	usb_lld_start, %function
 1210              	usb_lld_start:
 1211              	.LFB275:
 1212              		.loc 1 806 0
 1213              		.cfi_startproc
 1214              		@ args = 0, pretend = 0, frame = 0
 1215              		@ frame_needed = 0, uses_anonymous_args = 0
 1216              	.LVL118:
 1217              		.loc 1 809 0
 1218 0000 0378     		ldrb	r3, [r0]	@ zero_extendqisi2
 1219 0002 012B     		cmp	r3, #1
 1220 0004 00D0     		beq	.L152
 1221 0006 7047     		bx	lr
 1222              	.L152:
 1223              		.loc 1 806 0
 1224 0008 70B5     		push	{r4, r5, r6, lr}
 1225              		.cfi_def_cfa_offset 16
 1226              		.cfi_offset 4, -16
 1227              		.cfi_offset 5, -12
 1228              		.cfi_offset 6, -8
 1229              		.cfi_offset 14, -4
 1230              		.loc 1 812 0
 1231 000a 314B     		ldr	r3, .L156
 1232              		.loc 1 807 0
 1233 000c 066D     		ldr	r6, [r0, #80]
 1234              		.loc 1 812 0
 1235 000e 9842     		cmp	r0, r3
 1236              		.loc 1 806 0
 1237 0010 82B0     		sub	sp, sp, #8
 1238              		.cfi_def_cfa_offset 24
 1239 0012 0546     		mov	r5, r0
 1240              		.loc 1 812 0
 1241 0014 3BD0     		beq	.L153
 1242              		.loc 1 807 0
 1243 0016 3446     		mov	r4, r6
 1244              	.LVL119:
 1245              	.L139:
 1246              		.loc 1 836 0
 1247 0018 0023     		movs	r3, #0
 1248              		.loc 1 841 0
 1249 001a 2E4A     		ldr	r2, .L156+4
 1250              		.loc 1 836 0
 1251 001c EB65     		str	r3, [r5, #92]
 1252              		.loc 1 844 0
 1253 001e 2E49     		ldr	r1, .L156+8
 1254              		.loc 1 841 0
ARM GAS  /tmp/ccH4KobB.s 			page 23


 1255 0020 F260     		str	r2, [r6, #12]
 1256              		.loc 1 851 0
 1257 0022 4FF43412 		mov	r2, #2949120
 1258              		.loc 1 844 0
 1259 0026 C6F80018 		str	r1, [r6, #2048]
 1260              	.LBB576:
 1261              	.LBB577:
 1262              	.LBB578:
 1263              	.LBB579:
 1264              		.loc 4 573 0
 1265 002a 2020     		movs	r0, #32
 1266              	.LBE579:
 1267              	.LBE578:
 1268              	.LBE577:
 1269              	.LBE576:
 1270              		.loc 1 847 0
 1271 002c C6F8003E 		str	r3, [r6, #3584]
 1272              		.loc 1 851 0
 1273 0030 B263     		str	r2, [r6, #56]
 1274              	.LVL120:
 1275              	.LBB585:
 1276              	.LBB584:
 1277              	.LBB581:
 1278              	.LBB580:
 1279              		.loc 4 573 0
 1280 0032 FFF7FEFF 		bl	chSysPolledDelayX
 1281              	.LVL121:
 1282              	.LBE580:
 1283              	.LBE581:
 1284              		.loc 1 121 0
 1285 0036 0123     		movs	r3, #1
 1286 0038 2361     		str	r3, [r4, #16]
 1287              	.L140:
 1288              		.loc 1 122 0
 1289 003a 2369     		ldr	r3, [r4, #16]
 1290 003c DB07     		lsls	r3, r3, #31
 1291 003e FCD4     		bmi	.L140
 1292              	.LVL122:
 1293              	.LBB582:
 1294              	.LBB583:
 1295              		.loc 4 573 0
 1296 0040 0C20     		movs	r0, #12
 1297 0042 FFF7FEFF 		bl	chSysPolledDelayX
 1298              	.LVL123:
 1299              	.L141:
 1300              	.LBE583:
 1301              	.LBE582:
 1302              		.loc 1 128 0
 1303 0046 2369     		ldr	r3, [r4, #16]
 1304 0048 002B     		cmp	r3, #0
 1305 004a FCDA     		bge	.L141
 1306              	.LBE584:
 1307              	.LBE585:
 1308              		.loc 1 861 0
 1309 004c 0024     		movs	r4, #0
 1310 004e B460     		str	r4, [r6, #8]
 1311              		.loc 1 864 0
ARM GAS  /tmp/ccH4KobB.s 			page 24


 1312 0050 D5E91401 		ldrd	r0, r1, [r5, #80]
 1313 0054 FFF7FEFF 		bl	otg_disable_ep.isra.0
 1314              	.LVL124:
 1315              		.loc 1 871 0
 1316 0058 6B68     		ldr	r3, [r5, #4]
 1317              		.loc 1 868 0
 1318 005a C6F81048 		str	r4, [r6, #2064]
 1319              		.loc 1 871 0
 1320 005e DB68     		ldr	r3, [r3, #12]
 1321              		.loc 1 869 0
 1322 0060 C6F81448 		str	r4, [r6, #2068]
 1323              		.loc 1 870 0
 1324 0064 C6F81C48 		str	r4, [r6, #2076]
 1325              		.loc 1 871 0
 1326 0068 6BB1     		cbz	r3, .L154
 1327              		.loc 1 875 0
 1328 006a 43F20803 		movw	r3, #12296
 1329 006e B361     		str	r3, [r6, #24]
 1330              	.L143:
 1331              		.loc 1 881 0
 1332 0070 6B6E     		ldr	r3, [r5, #100]
 1333              		.loc 1 877 0
 1334 0072 4FF0FF32 		mov	r2, #-1
 1335 0076 7261     		str	r2, [r6, #20]
 1336              		.loc 1 881 0
 1337 0078 D3B1     		cbz	r3, .L155
 1338              	.L144:
 1339              		.loc 1 891 0
 1340 007a B368     		ldr	r3, [r6, #8]
 1341 007c 43F00103 		orr	r3, r3, #1
 1342 0080 B360     		str	r3, [r6, #8]
 1343              		.loc 1 893 0
 1344 0082 02B0     		add	sp, sp, #8
 1345              		.cfi_remember_state
 1346              		.cfi_def_cfa_offset 16
 1347              		@ sp needed
 1348 0084 70BD     		pop	{r4, r5, r6, pc}
 1349              	.LVL125:
 1350              	.L154:
 1351              		.cfi_restore_state
 1352              		.loc 1 872 0
 1353 0086 4FF44053 		mov	r3, #12288
 1354 008a B361     		str	r3, [r6, #24]
 1355 008c F0E7     		b	.L143
 1356              	.LVL126:
 1357              	.L153:
 1358              		.loc 1 814 0
 1359 008e 134B     		ldr	r3, .L156+12
 1360 0090 5A6B     		ldr	r2, [r3, #52]
 1361 0092 42F08002 		orr	r2, r2, #128
 1362 0096 5A63     		str	r2, [r3, #52]
 1363              		.loc 1 815 0
 1364 0098 5A69     		ldr	r2, [r3, #20]
 1365 009a 0020     		movs	r0, #0
 1366              	.LVL127:
 1367 009c 42F08002 		orr	r2, r2, #128
 1368 00a0 5A61     		str	r2, [r3, #20]
ARM GAS  /tmp/ccH4KobB.s 			page 25


 1369              		.loc 1 818 0
 1370 00a2 0E21     		movs	r1, #14
 1371              		.loc 1 815 0
 1372 00a4 5861     		str	r0, [r3, #20]
 1373              		.loc 1 818 0
 1374 00a6 4320     		movs	r0, #67
 1375 00a8 FFF7FEFF 		bl	nvicEnableVector
 1376              	.LVL128:
 1377 00ac 2C6D     		ldr	r4, [r5, #80]
 1378 00ae B3E7     		b	.L139
 1379              	.LVL129:
 1380              	.L155:
 1381              		.loc 1 882 0
 1382 00b0 0B4B     		ldr	r3, .L156+16
 1383 00b2 0095     		str	r5, [sp]
 1384 00b4 0222     		movs	r2, #2
 1385 00b6 4FF40671 		mov	r1, #536
 1386 00ba 05F16800 		add	r0, r5, #104
 1387 00be FFF7FEFF 		bl	chThdCreateI
 1388              	.LVL130:
 1389 00c2 6866     		str	r0, [r5, #100]
 1390              	.LVL131:
 1391              	.LBB586:
 1392              	.LBB587:
 1393              		.file 5 "ChibiOS_3.0.2/os/rt/include/chthreads.h"
 1394              		.loc 5 249 0
 1395 00c4 FFF7FEFF 		bl	chSchReadyI
 1396              	.LVL132:
 1397              	.LBE587:
 1398              	.LBE586:
 1399              		.loc 1 886 0
 1400 00c8 FFF7FEFF 		bl	chSchRescheduleS
 1401              	.LVL133:
 1402 00cc D5E7     		b	.L144
 1403              	.L157:
 1404 00ce 00BF     		.align	2
 1405              	.L156:
 1406 00d0 00000000 		.word	.LANCHOR0
 1407 00d4 40140040 		.word	1073747008
 1408 00d8 03002002 		.word	35651587
 1409 00dc 00380240 		.word	1073887232
 1410 00e0 00000000 		.word	usb_lld_pump
 1411              		.cfi_endproc
 1412              	.LFE275:
 1413              		.size	usb_lld_start, .-usb_lld_start
 1414              		.section	.text.usb_lld_stop,"ax",%progbits
 1415              		.align	1
 1416              		.p2align 4,,15
 1417              		.global	usb_lld_stop
 1418              		.syntax unified
 1419              		.thumb
 1420              		.thumb_func
 1421              		.fpu fpv4-sp-d16
 1422              		.type	usb_lld_stop, %function
 1423              	usb_lld_stop:
 1424              	.LFB276:
 1425              		.loc 1 902 0
ARM GAS  /tmp/ccH4KobB.s 			page 26


 1426              		.cfi_startproc
 1427              		@ args = 0, pretend = 0, frame = 0
 1428              		@ frame_needed = 0, uses_anonymous_args = 0
 1429              	.LVL134:
 1430 0000 38B5     		push	{r3, r4, r5, lr}
 1431              		.cfi_def_cfa_offset 16
 1432              		.cfi_offset 3, -16
 1433              		.cfi_offset 4, -12
 1434              		.cfi_offset 5, -8
 1435              		.cfi_offset 14, -4
 1436              		.loc 1 906 0
 1437 0002 0378     		ldrb	r3, [r0]	@ zero_extendqisi2
 1438 0004 012B     		cmp	r3, #1
 1439 0006 0ED0     		beq	.L158
 1440              		.loc 1 910 0
 1441 0008 D0E91451 		ldrd	r5, r1, [r0, #80]
 1442 000c 0446     		mov	r4, r0
 1443 000e 2846     		mov	r0, r5
 1444              	.LVL135:
 1445 0010 FFF7FEFF 		bl	otg_disable_ep.isra.0
 1446              	.LVL136:
 1447              		.loc 1 919 0
 1448 0014 094A     		ldr	r2, .L164
 1449              		.loc 1 912 0
 1450 0016 0023     		movs	r3, #0
 1451              		.loc 1 919 0
 1452 0018 9442     		cmp	r4, r2
 1453              		.loc 1 912 0
 1454 001a E365     		str	r3, [r4, #92]
 1455              		.loc 1 914 0
 1456 001c C5F81C38 		str	r3, [r5, #2076]
 1457              		.loc 1 915 0
 1458 0020 AB60     		str	r3, [r5, #8]
 1459              		.loc 1 916 0
 1460 0022 AB63     		str	r3, [r5, #56]
 1461              		.loc 1 919 0
 1462 0024 00D0     		beq	.L163
 1463              	.LVL137:
 1464              	.L158:
 1465              		.loc 1 932 0
 1466 0026 38BD     		pop	{r3, r4, r5, pc}
 1467              	.LVL138:
 1468              	.L163:
 1469              		.loc 1 920 0
 1470 0028 4320     		movs	r0, #67
 1471 002a FFF7FEFF 		bl	nvicDisableVector
 1472              	.LVL139:
 1473              		.loc 1 921 0
 1474 002e 044A     		ldr	r2, .L164+4
 1475 0030 536B     		ldr	r3, [r2, #52]
 1476 0032 23F08003 		bic	r3, r3, #128
 1477 0036 5363     		str	r3, [r2, #52]
 1478              		.loc 1 932 0
 1479 0038 38BD     		pop	{r3, r4, r5, pc}
 1480              	.LVL140:
 1481              	.L165:
 1482 003a 00BF     		.align	2
ARM GAS  /tmp/ccH4KobB.s 			page 27


 1483              	.L164:
 1484 003c 00000000 		.word	.LANCHOR0
 1485 0040 00380240 		.word	1073887232
 1486              		.cfi_endproc
 1487              	.LFE276:
 1488              		.size	usb_lld_stop, .-usb_lld_stop
 1489              		.section	.text.usb_lld_reset,"ax",%progbits
 1490              		.align	1
 1491              		.p2align 4,,15
 1492              		.global	usb_lld_reset
 1493              		.syntax unified
 1494              		.thumb
 1495              		.thumb_func
 1496              		.fpu fpv4-sp-d16
 1497              		.type	usb_lld_reset, %function
 1498              	usb_lld_reset:
 1499              	.LFB277:
 1500              		.loc 1 941 0
 1501              		.cfi_startproc
 1502              		@ args = 0, pretend = 0, frame = 0
 1503              		@ frame_needed = 0, uses_anonymous_args = 0
 1504              	.LVL141:
 1505 0000 F8B5     		push	{r3, r4, r5, r6, r7, lr}
 1506              		.cfi_def_cfa_offset 24
 1507              		.cfi_offset 3, -24
 1508              		.cfi_offset 4, -20
 1509              		.cfi_offset 5, -16
 1510              		.cfi_offset 6, -12
 1511              		.cfi_offset 7, -8
 1512              		.cfi_offset 14, -4
 1513              		.loc 1 943 0
 1514 0002 056D     		ldr	r5, [r0, #80]
 1515              	.LVL142:
 1516              	.LBB588:
 1517              	.LBB589:
 1518              		.loc 1 182 0
 1519 0004 2023     		movs	r3, #32
 1520              	.LBE589:
 1521              	.LBE588:
 1522              		.loc 1 941 0
 1523 0006 0646     		mov	r6, r0
 1524              	.LVL143:
 1525              	.LBB593:
 1526              	.LBB592:
 1527              		.loc 1 182 0
 1528 0008 2B61     		str	r3, [r5, #16]
 1529              	.L167:
 1530              		.loc 1 183 0
 1531 000a 2C69     		ldr	r4, [r5, #16]
 1532 000c 14F02004 		ands	r4, r4, #32
 1533 0010 FBD1     		bne	.L167
 1534              	.LVL144:
 1535              	.LBB590:
 1536              	.LBB591:
 1537              		.loc 4 573 0
 1538 0012 0C20     		movs	r0, #12
 1539              	.LVL145:
ARM GAS  /tmp/ccH4KobB.s 			page 28


 1540 0014 FFF7FEFF 		bl	chSysPolledDelayX
 1541              	.LVL146:
 1542              	.LBE591:
 1543              	.LBE590:
 1544              	.LBE592:
 1545              	.LBE593:
 1546              		.loc 1 949 0
 1547 0018 776D     		ldr	r7, [r6, #84]
 1548 001a BA68     		ldr	r2, [r7, #8]
 1549 001c 2346     		mov	r3, r4
 1550              		.loc 1 950 0
 1551 001e 4FF00060 		mov	r0, #134217728
 1552 0022 541C     		adds	r4, r2, #1
 1553              		.loc 1 952 0
 1554 0024 FF21     		movs	r1, #255
 1555              	.LVL147:
 1556              	.L168:
 1557 0026 05EB4312 		add	r2, r5, r3, lsl #5
 1558              		.loc 1 949 0 discriminator 3
 1559 002a 0133     		adds	r3, r3, #1
 1560              	.LVL148:
 1561 002c 9C42     		cmp	r4, r3
 1562              		.loc 1 950 0 discriminator 3
 1563 002e C2F80009 		str	r0, [r2, #2304]
 1564              		.loc 1 951 0 discriminator 3
 1565 0032 C2F8000B 		str	r0, [r2, #2816]
 1566              		.loc 1 952 0 discriminator 3
 1567 0036 C2F80819 		str	r1, [r2, #2312]
 1568              		.loc 1 953 0 discriminator 3
 1569 003a C2F8081B 		str	r1, [r2, #2824]
 1570              		.loc 1 949 0 discriminator 3
 1571 003e F2D1     		bne	.L168
 1572              	.LBB594:
 1573              	.LBB595:
 1574              		.loc 1 198 0
 1575 0040 3B68     		ldr	r3, [r7]
 1576              	.LVL149:
 1577              	.LBE595:
 1578              	.LBE594:
 1579              		.loc 1 958 0
 1580 0042 4FF00112 		mov	r2, #65537
 1581              		.loc 1 957 0
 1582 0046 4FF0FF31 		mov	r1, #-1
 1583 004a C5F81818 		str	r1, [r5, #2072]
 1584              		.loc 1 958 0
 1585 004e C5F81C28 		str	r2, [r5, #2076]
 1586              	.LVL150:
 1587              	.LBB597:
 1588              	.LBB596:
 1589              		.loc 1 198 0
 1590 0052 B365     		str	r3, [r6, #88]
 1591              	.LBE596:
 1592              	.LBE597:
 1593              		.loc 1 964 0
 1594 0054 3B68     		ldr	r3, [r7]
 1595              		.loc 1 965 0
 1596 0056 326D     		ldr	r2, [r6, #80]
ARM GAS  /tmp/ccH4KobB.s 			page 29


 1597              	.LVL151:
 1598              		.loc 1 964 0
 1599 0058 6B62     		str	r3, [r5, #36]
 1600              	.LBB598:
 1601              	.LBB599:
 1602              		.loc 1 172 0
 1603 005a 1023     		movs	r3, #16
 1604 005c 1361     		str	r3, [r2, #16]
 1605              	.L169:
 1606              		.loc 1 173 0
 1607 005e 1469     		ldr	r4, [r2, #16]
 1608 0060 14F01004 		ands	r4, r4, #16
 1609 0064 FBD1     		bne	.L169
 1610              	.LVL152:
 1611              	.LBB600:
 1612              	.LBB601:
 1613              		.loc 4 573 0
 1614 0066 0C20     		movs	r0, #12
 1615 0068 FFF7FEFF 		bl	chSysPolledDelayX
 1616              	.LVL153:
 1617              	.LBE601:
 1618              	.LBE600:
 1619              	.LBE599:
 1620              	.LBE598:
 1621              		.loc 1 968 0
 1622 006c D5F80038 		ldr	r3, [r5, #2048]
 1623              		.loc 1 978 0
 1624 0070 104A     		ldr	r2, .L174
 1625              		.loc 1 976 0
 1626 0072 1149     		ldr	r1, .L174+4
 1627              		.loc 1 968 0
 1628 0074 23F4FE63 		bic	r3, r3, #2032
 1629 0078 C5F80038 		str	r3, [r5, #2048]
 1630              		.loc 1 971 0
 1631 007c AB69     		ldr	r3, [r5, #24]
 1632 007e 43F44023 		orr	r3, r3, #786432
 1633 0082 43F01003 		orr	r3, r3, #16
 1634 0086 AB61     		str	r3, [r5, #24]
 1635              		.loc 1 972 0
 1636 0088 0923     		movs	r3, #9
 1637 008a C5F81038 		str	r3, [r5, #2064]
 1638              		.loc 1 973 0
 1639 008e C5F81438 		str	r3, [r5, #2068]
 1640              		.loc 1 976 0
 1641 0092 F160     		str	r1, [r6, #12]
 1642              		.loc 1 977 0
 1643 0094 C5F8104B 		str	r4, [r5, #2832]
 1644              		.loc 1 978 0
 1645 0098 C5F8002B 		str	r2, [r5, #2816]
 1646              		.loc 1 980 0
 1647 009c C5F81049 		str	r4, [r5, #2320]
 1648              		.loc 1 981 0
 1649 00a0 C5F80029 		str	r2, [r5, #2304]
 1650              	.LVL154:
 1651              	.LBB602:
 1652              	.LBB603:
 1653              		.loc 1 212 0
ARM GAS  /tmp/ccH4KobB.s 			page 30


 1654 00a4 B36D     		ldr	r3, [r6, #88]
 1655              	.LVL155:
 1656              		.loc 1 213 0
 1657 00a6 03F11002 		add	r2, r3, #16
 1658              	.LBE603:
 1659              	.LBE602:
 1660              		.loc 1 983 0
 1661 00aa 43F48013 		orr	r3, r3, #1048576
 1662              	.LVL156:
 1663              	.LBB605:
 1664              	.LBB604:
 1665              		.loc 1 213 0
 1666 00ae B265     		str	r2, [r6, #88]
 1667              	.LVL157:
 1668              	.LBE604:
 1669              	.LBE605:
 1670              		.loc 1 983 0
 1671 00b0 AB62     		str	r3, [r5, #40]
 1672              		.loc 1 986 0
 1673 00b2 F8BD     		pop	{r3, r4, r5, r6, r7, pc}
 1674              	.LVL158:
 1675              	.L175:
 1676              		.align	2
 1677              	.L174:
 1678 00b4 40800010 		.word	268468288
 1679 00b8 00000000 		.word	.LANCHOR2
 1680              		.cfi_endproc
 1681              	.LFE277:
 1682              		.size	usb_lld_reset, .-usb_lld_reset
 1683              		.section	.text.usb_lld_set_address,"ax",%progbits
 1684              		.align	1
 1685              		.p2align 4,,15
 1686              		.global	usb_lld_set_address
 1687              		.syntax unified
 1688              		.thumb
 1689              		.thumb_func
 1690              		.fpu fpv4-sp-d16
 1691              		.type	usb_lld_set_address, %function
 1692              	usb_lld_set_address:
 1693              	.LFB278:
 1694              		.loc 1 995 0
 1695              		.cfi_startproc
 1696              		@ args = 0, pretend = 0, frame = 0
 1697              		@ frame_needed = 0, uses_anonymous_args = 0
 1698              		@ link register save eliminated.
 1699              	.LVL159:
 1700              		.loc 1 996 0
 1701 0000 026D     		ldr	r2, [r0, #80]
 1702              	.LVL160:
 1703              		.loc 1 998 0
 1704 0002 90F84E10 		ldrb	r1, [r0, #78]	@ zero_extendqisi2
 1705 0006 D2F80038 		ldr	r3, [r2, #2048]
 1706 000a 23F4FE63 		bic	r3, r3, #2032
 1707 000e 43EA0113 		orr	r3, r3, r1, lsl #4
 1708 0012 C2F80038 		str	r3, [r2, #2048]
 1709              		.loc 1 999 0
 1710 0016 7047     		bx	lr
ARM GAS  /tmp/ccH4KobB.s 			page 31


 1711              		.cfi_endproc
 1712              	.LFE278:
 1713              		.size	usb_lld_set_address, .-usb_lld_set_address
 1714              		.section	.text.usb_lld_init_endpoint,"ax",%progbits
 1715              		.align	1
 1716              		.p2align 4,,15
 1717              		.global	usb_lld_init_endpoint
 1718              		.syntax unified
 1719              		.thumb
 1720              		.thumb_func
 1721              		.fpu fpv4-sp-d16
 1722              		.type	usb_lld_init_endpoint, %function
 1723              	usb_lld_init_endpoint:
 1724              	.LFB279:
 1725              		.loc 1 1009 0
 1726              		.cfi_startproc
 1727              		@ args = 0, pretend = 0, frame = 0
 1728              		@ frame_needed = 0, uses_anonymous_args = 0
 1729              	.LVL161:
 1730 0000 2DE9F843 		push	{r3, r4, r5, r6, r7, r8, r9, lr}
 1731              		.cfi_def_cfa_offset 32
 1732              		.cfi_offset 3, -32
 1733              		.cfi_offset 4, -28
 1734              		.cfi_offset 5, -24
 1735              		.cfi_offset 6, -20
 1736              		.cfi_offset 7, -16
 1737              		.cfi_offset 8, -12
 1738              		.cfi_offset 9, -8
 1739              		.cfi_offset 14, -4
 1740 0004 0FFA81F8 		sxth	r8, r1
 1741 0008 00EB8807 		add	r7, r0, r8, lsl #2
 1742              		.loc 1 1009 0
 1743 000c 0D46     		mov	r5, r1
 1744              	.LVL162:
 1745              		.loc 1 1014 0
 1746 000e FB68     		ldr	r3, [r7, #12]
 1747 0010 1A68     		ldr	r2, [r3]
 1748 0012 02F00302 		and	r2, r2, #3
 1749 0016 022A     		cmp	r2, #2
 1750 0018 00F09780 		beq	.L179
 1751 001c 032A     		cmp	r2, #3
 1752 001e 00F09180 		beq	.L180
 1753              		.loc 1 1016 0
 1754 0022 4B4C     		ldr	r4, .L193
 1755 0024 4B49     		ldr	r1, .L193+4
 1756              	.LVL163:
 1757 0026 012A     		cmp	r2, #1
 1758 0028 0CBF     		ite	eq
 1759 002a A146     		moveq	r9, r4
 1760 002c 8946     		movne	r9, r1
 1761              	.L181:
 1762              		.loc 1 1011 0
 1763 002e 046D     		ldr	r4, [r0, #80]
 1764              	.LVL164:
 1765              		.loc 1 1033 0
 1766 0030 DE68     		ldr	r6, [r3, #12]
 1767              		.loc 1 1032 0
ARM GAS  /tmp/ccH4KobB.s 			page 32


 1768 0032 6901     		lsls	r1, r5, #5
 1769 0034 6218     		adds	r2, r4, r1
 1770 0036 4FF0000C 		mov	ip, #0
 1771 003a C2F810CB 		str	ip, [r2, #2832]
 1772 003e 05F11002 		add	r2, r5, #16
 1773 0042 4FF0010C 		mov	ip, #1
 1774 0046 0CFA02F2 		lsl	r2, ip, r2
 1775              		.loc 1 1033 0
 1776 004a 002E     		cmp	r6, #0
 1777 004c 4BD0     		beq	.L182
 1778              		.loc 1 1034 0
 1779 004e B3F812C0 		ldrh	ip, [r3, #18]
 1780 0052 05F15806 		add	r6, r5, #88
 1781 0056 7601     		lsls	r6, r6, #5
 1782 0058 4CEA090C 		orr	ip, ip, r9
 1783 005c 44F806C0 		str	ip, [r4, r6]
 1784              		.loc 1 1035 0
 1785 0060 D4F81C68 		ldr	r6, [r4, #2076]
 1786 0064 3243     		orrs	r2, r2, r6
 1787 0066 C4F81C28 		str	r2, [r4, #2076]
 1788              	.L183:
 1789              		.loc 1 1043 0
 1790 006a 6618     		adds	r6, r4, r1
 1791              		.loc 1 1044 0
 1792 006c D3F808C0 		ldr	ip, [r3, #8]
 1793              		.loc 1 1043 0
 1794 0070 0022     		movs	r2, #0
 1795 0072 A901     		lsls	r1, r5, #6
 1796 0074 C6F81029 		str	r2, [r6, #2320]
 1797 0078 41F02001 		orr	r1, r1, #32
 1798 007c 6A1E     		subs	r2, r5, #1
 1799              		.loc 1 1044 0
 1800 007e BCF1000F 		cmp	ip, #0
 1801 0082 3FD0     		beq	.L184
 1802              		.loc 1 1047 0
 1803 0084 B3F81CC0 		ldrh	ip, [r3, #28]
 1804              		.loc 1 1046 0
 1805 0088 1E8A     		ldrh	r6, [r3, #16]
 1806              		.loc 1 1047 0
 1807 008a BCF1010F 		cmp	ip, #1
 1808              		.loc 1 1046 0
 1809 008e 4FEA9603 		lsr	r3, r6, #2
 1810              	.LVL165:
 1811              		.loc 1 1049 0
 1812 0092 02F14002 		add	r2, r2, #64
 1813              	.LBB606:
 1814              	.LBB607:
 1815              		.loc 1 212 0
 1816 0096 866D     		ldr	r6, [r0, #88]
 1817              	.LBE607:
 1818              	.LBE606:
 1819              		.loc 1 1048 0
 1820 0098 88BF     		it	hi
 1821 009a 0CFB03F3 		mulhi	r3, ip, r3
 1822              	.LVL166:
 1823              		.loc 1 1049 0
 1824 009e 04EB8202 		add	r2, r4, r2, lsl #2
ARM GAS  /tmp/ccH4KobB.s 			page 33


 1825              	.LBB610:
 1826              	.LBB608:
 1827              		.loc 1 213 0
 1828 00a2 03EB060C 		add	ip, r3, r6
 1829              	.LBE608:
 1830              	.LBE610:
 1831              		.loc 1 1049 0
 1832 00a6 46EA0343 		orr	r3, r6, r3, lsl #16
 1833              	.LVL167:
 1834              	.LBB611:
 1835              	.LBB609:
 1836              		.loc 1 213 0
 1837 00aa C0F858C0 		str	ip, [r0, #88]
 1838              	.LVL168:
 1839              	.LBE609:
 1840              	.LBE611:
 1841              		.loc 1 1049 0
 1842 00ae 5360     		str	r3, [r2, #4]
 1843              	.LVL169:
 1844              	.LBB612:
 1845              	.LBB613:
 1846              		.loc 1 182 0
 1847 00b0 2161     		str	r1, [r4, #16]
 1848              	.L186:
 1849              		.loc 1 183 0
 1850 00b2 2369     		ldr	r3, [r4, #16]
 1851 00b4 9A06     		lsls	r2, r3, #26
 1852 00b6 FCD4     		bmi	.L186
 1853              	.LVL170:
 1854              	.LBB614:
 1855              	.LBB615:
 1856              		.loc 4 573 0
 1857 00b8 0C20     		movs	r0, #12
 1858              	.LVL171:
 1859 00ba FFF7FEFF 		bl	chSysPolledDelayX
 1860              	.LVL172:
 1861              	.LBE615:
 1862              	.LBE614:
 1863              	.LBE613:
 1864              	.LBE612:
 1865              		.loc 1 1055 0
 1866 00be FB68     		ldr	r3, [r7, #12]
 1867 00c0 1A8A     		ldrh	r2, [r3, #16]
 1868              		.loc 1 1053 0
 1869 00c2 05F14803 		add	r3, r5, #72
 1870              		.loc 1 1054 0
 1871 00c6 42EA8552 		orr	r2, r2, r5, lsl #22
 1872              		.loc 1 1053 0
 1873 00ca 5B01     		lsls	r3, r3, #5
 1874              		.loc 1 1054 0
 1875 00cc 42EA0902 		orr	r2, r2, r9
 1876              		.loc 1 1053 0
 1877 00d0 E250     		str	r2, [r4, r3]
 1878              		.loc 1 1056 0
 1879 00d2 0121     		movs	r1, #1
 1880 00d4 D4F81C38 		ldr	r3, [r4, #2076]
 1881 00d8 01FA05F5 		lsl	r5, r1, r5
ARM GAS  /tmp/ccH4KobB.s 			page 34


 1882 00dc 1D43     		orrs	r5, r5, r3
 1883 00de C4F81C58 		str	r5, [r4, #2076]
 1884              		.loc 1 1064 0
 1885 00e2 BDE8F883 		pop	{r3, r4, r5, r6, r7, r8, r9, pc}
 1886              	.LVL173:
 1887              	.L182:
 1888 00e6 04EB481C 		add	ip, r4, r8, lsl #5
 1889              		.loc 1 1038 0
 1890 00ea DCF8006B 		ldr	r6, [ip, #2816]
 1891 00ee 26F40046 		bic	r6, r6, #32768
 1892 00f2 CCF8006B 		str	r6, [ip, #2816]
 1893              		.loc 1 1039 0
 1894 00f6 D4F81C68 		ldr	r6, [r4, #2076]
 1895 00fa 26EA0202 		bic	r2, r6, r2
 1896 00fe C4F81C28 		str	r2, [r4, #2076]
 1897 0102 B2E7     		b	.L183
 1898              	.L184:
 1899              		.loc 1 1059 0
 1900 0104 05F13F03 		add	r3, r5, #63
 1901 0108 04EB8303 		add	r3, r4, r3, lsl #2
 1902 010c 124A     		ldr	r2, .L193+8
 1903 010e 5A60     		str	r2, [r3, #4]
 1904              	.LVL174:
 1905              	.LBB616:
 1906              	.LBB617:
 1907              		.loc 1 182 0
 1908 0110 2161     		str	r1, [r4, #16]
 1909              	.L188:
 1910              		.loc 1 183 0
 1911 0112 2369     		ldr	r3, [r4, #16]
 1912 0114 9B06     		lsls	r3, r3, #26
 1913 0116 FCD4     		bmi	.L188
 1914              	.LVL175:
 1915 0118 04EB4818 		add	r8, r4, r8, lsl #5
 1916              	.LBB618:
 1917              	.LBB619:
 1918              		.loc 4 573 0
 1919 011c 0C20     		movs	r0, #12
 1920              	.LVL176:
 1921 011e FFF7FEFF 		bl	chSysPolledDelayX
 1922              	.LVL177:
 1923              	.LBE619:
 1924              	.LBE618:
 1925              	.LBE617:
 1926              	.LBE616:
 1927              		.loc 1 1061 0
 1928 0122 D8F80039 		ldr	r3, [r8, #2304]
 1929 0126 23F40043 		bic	r3, r3, #32768
 1930 012a C8F80039 		str	r3, [r8, #2304]
 1931              		.loc 1 1062 0
 1932 012e D4F81C38 		ldr	r3, [r4, #2076]
 1933 0132 0121     		movs	r1, #1
 1934 0134 01FA05F5 		lsl	r5, r1, r5
 1935 0138 23EA0505 		bic	r5, r3, r5
 1936 013c C4F81C58 		str	r5, [r4, #2076]
 1937              		.loc 1 1064 0
 1938 0140 BDE8F883 		pop	{r3, r4, r5, r6, r7, r8, r9, pc}
ARM GAS  /tmp/ccH4KobB.s 			page 35


 1939              	.LVL178:
 1940              	.L180:
 1941              		.loc 1 1025 0
 1942 0144 DFF81490 		ldr	r9, .L193+12
 1943              		.loc 1 1026 0
 1944 0148 71E7     		b	.L181
 1945              	.LVL179:
 1946              	.L179:
 1947              		.loc 1 1022 0
 1948 014a DFF81490 		ldr	r9, .L193+16
 1949              		.loc 1 1023 0
 1950 014e 6EE7     		b	.L181
 1951              	.L194:
 1952              		.align	2
 1953              	.L193:
 1954 0150 00800410 		.word	268730368
 1955 0154 00800010 		.word	268468224
 1956 0158 00040002 		.word	33555456
 1957 015c 00800C10 		.word	269254656
 1958 0160 00800810 		.word	268992512
 1959              		.cfi_endproc
 1960              	.LFE279:
 1961              		.size	usb_lld_init_endpoint, .-usb_lld_init_endpoint
 1962              		.section	.text.usb_lld_disable_endpoints,"ax",%progbits
 1963              		.align	1
 1964              		.p2align 4,,15
 1965              		.global	usb_lld_disable_endpoints
 1966              		.syntax unified
 1967              		.thumb
 1968              		.thumb_func
 1969              		.fpu fpv4-sp-d16
 1970              		.type	usb_lld_disable_endpoints, %function
 1971              	usb_lld_disable_endpoints:
 1972              	.LFB280:
 1973              		.loc 1 1073 0
 1974              		.cfi_startproc
 1975              		@ args = 0, pretend = 0, frame = 0
 1976              		@ frame_needed = 0, uses_anonymous_args = 0
 1977              		@ link register save eliminated.
 1978              	.LVL180:
 1979              		.loc 1 1073 0
 1980 0000 0346     		mov	r3, r0
 1981              		.loc 1 1079 0
 1982 0002 D0E91401 		ldrd	r0, r1, [r0, #80]
 1983              	.LVL181:
 1984              	.LBB620:
 1985              	.LBB621:
 1986              		.loc 1 198 0
 1987 0006 0A68     		ldr	r2, [r1]
 1988 0008 9A65     		str	r2, [r3, #88]
 1989              	.LBE621:
 1990              	.LBE620:
 1991              		.loc 1 1079 0
 1992 000a FFF7FEBF 		b	otg_disable_ep.isra.0
 1993              	.LVL182:
 1994              		.cfi_endproc
 1995              	.LFE280:
ARM GAS  /tmp/ccH4KobB.s 			page 36


 1996              		.size	usb_lld_disable_endpoints, .-usb_lld_disable_endpoints
 1997 000e 00BF     		.section	.text.usb_lld_get_status_out,"ax",%progbits
 1998              		.align	1
 1999              		.p2align 4,,15
 2000              		.global	usb_lld_get_status_out
 2001              		.syntax unified
 2002              		.thumb
 2003              		.thumb_func
 2004              		.fpu fpv4-sp-d16
 2005              		.type	usb_lld_get_status_out, %function
 2006              	usb_lld_get_status_out:
 2007              	.LFB281:
 2008              		.loc 1 1094 0
 2009              		.cfi_startproc
 2010              		@ args = 0, pretend = 0, frame = 0
 2011              		@ frame_needed = 0, uses_anonymous_args = 0
 2012              		@ link register save eliminated.
 2013              	.LVL183:
 2014              		.loc 1 1099 0
 2015 0000 5831     		adds	r1, r1, #88
 2016              	.LVL184:
 2017 0002 036D     		ldr	r3, [r0, #80]
 2018 0004 4901     		lsls	r1, r1, #5
 2019 0006 5B58     		ldr	r3, [r3, r1]
 2020              	.LVL185:
 2021              		.loc 1 1100 0
 2022 0008 13F40040 		ands	r0, r3, #32768
 2023              	.LVL186:
 2024 000c 04D0     		beq	.L197
 2025              		.loc 1 1102 0
 2026 000e 13F4001F 		tst	r3, #2097152
 2027              		.loc 1 1104 0
 2028 0012 14BF     		ite	ne
 2029 0014 0120     		movne	r0, #1
 2030 0016 0220     		moveq	r0, #2
 2031              	.L197:
 2032              		.loc 1 1105 0
 2033 0018 7047     		bx	lr
 2034              		.cfi_endproc
 2035              	.LFE281:
 2036              		.size	usb_lld_get_status_out, .-usb_lld_get_status_out
 2037 001a 00BF     		.section	.text.usb_lld_get_status_in,"ax",%progbits
 2038              		.align	1
 2039              		.p2align 4,,15
 2040              		.global	usb_lld_get_status_in
 2041              		.syntax unified
 2042              		.thumb
 2043              		.thumb_func
 2044              		.fpu fpv4-sp-d16
 2045              		.type	usb_lld_get_status_in, %function
 2046              	usb_lld_get_status_in:
 2047              	.LFB282:
 2048              		.loc 1 1119 0
 2049              		.cfi_startproc
 2050              		@ args = 0, pretend = 0, frame = 0
 2051              		@ frame_needed = 0, uses_anonymous_args = 0
 2052              		@ link register save eliminated.
ARM GAS  /tmp/ccH4KobB.s 			page 37


 2053              	.LVL187:
 2054              		.loc 1 1124 0
 2055 0000 4831     		adds	r1, r1, #72
 2056              	.LVL188:
 2057 0002 036D     		ldr	r3, [r0, #80]
 2058 0004 4901     		lsls	r1, r1, #5
 2059 0006 5B58     		ldr	r3, [r3, r1]
 2060              	.LVL189:
 2061              		.loc 1 1125 0
 2062 0008 13F40040 		ands	r0, r3, #32768
 2063              	.LVL190:
 2064 000c 04D0     		beq	.L201
 2065              		.loc 1 1127 0
 2066 000e 13F4001F 		tst	r3, #2097152
 2067              		.loc 1 1129 0
 2068 0012 14BF     		ite	ne
 2069 0014 0120     		movne	r0, #1
 2070 0016 0220     		moveq	r0, #2
 2071              	.L201:
 2072              		.loc 1 1130 0
 2073 0018 7047     		bx	lr
 2074              		.cfi_endproc
 2075              	.LFE282:
 2076              		.size	usb_lld_get_status_in, .-usb_lld_get_status_in
 2077 001a 00BF     		.section	.text.usb_lld_read_setup,"ax",%progbits
 2078              		.align	1
 2079              		.p2align 4,,15
 2080              		.global	usb_lld_read_setup
 2081              		.syntax unified
 2082              		.thumb
 2083              		.thumb_func
 2084              		.fpu fpv4-sp-d16
 2085              		.type	usb_lld_read_setup, %function
 2086              	usb_lld_read_setup:
 2087              	.LFB283:
 2088              		.loc 1 1146 0
 2089              		.cfi_startproc
 2090              		@ args = 0, pretend = 0, frame = 0
 2091              		@ frame_needed = 0, uses_anonymous_args = 0
 2092              		@ link register save eliminated.
 2093              	.LVL191:
 2094              		.loc 1 1148 0
 2095 0000 00EB8101 		add	r1, r0, r1, lsl #2
 2096              	.LVL192:
 2097 0004 CB68     		ldr	r3, [r1, #12]
 2098 0006 1B6A     		ldr	r3, [r3, #32]
 2099 0008 1968     		ldr	r1, [r3]	@ unaligned
 2100 000a 5B68     		ldr	r3, [r3, #4]	@ unaligned
 2101 000c 5360     		str	r3, [r2, #4]	@ unaligned
 2102 000e 1160     		str	r1, [r2]	@ unaligned
 2103              		.loc 1 1149 0
 2104 0010 7047     		bx	lr
 2105              		.cfi_endproc
 2106              	.LFE283:
 2107              		.size	usb_lld_read_setup, .-usb_lld_read_setup
 2108 0012 00BF     		.section	.text.usb_lld_prepare_receive,"ax",%progbits
 2109              		.align	1
ARM GAS  /tmp/ccH4KobB.s 			page 38


 2110              		.p2align 4,,15
 2111              		.global	usb_lld_prepare_receive
 2112              		.syntax unified
 2113              		.thumb
 2114              		.thumb_func
 2115              		.fpu fpv4-sp-d16
 2116              		.type	usb_lld_prepare_receive, %function
 2117              	usb_lld_prepare_receive:
 2118              	.LFB284:
 2119              		.loc 1 1159 0
 2120              		.cfi_startproc
 2121              		@ args = 0, pretend = 0, frame = 0
 2122              		@ frame_needed = 0, uses_anonymous_args = 0
 2123              		@ link register save eliminated.
 2124              	.LVL193:
 2125              		.loc 1 1161 0
 2126 0000 00EB8103 		add	r3, r0, r1, lsl #2
 2127              		.loc 1 1159 0
 2128 0004 70B4     		push	{r4, r5, r6}
 2129              		.cfi_def_cfa_offset 12
 2130              		.cfi_offset 4, -12
 2131              		.cfi_offset 5, -8
 2132              		.cfi_offset 6, -4
 2133              		.loc 1 1161 0
 2134 0006 DE68     		ldr	r6, [r3, #12]
 2135 0008 B569     		ldr	r5, [r6, #24]
 2136              	.LVL194:
 2137              		.loc 1 1164 0
 2138 000a 6A68     		ldr	r2, [r5, #4]
 2139 000c 2A61     		str	r2, [r5, #16]
 2140              		.loc 1 1165 0
 2141 000e 29B9     		cbnz	r1, .L210
 2142              		.loc 1 1165 0 is_stmt 0 discriminator 1
 2143 0010 402A     		cmp	r2, #64
 2144 0012 03D9     		bls	.L210
 2145              		.loc 1 1166 0 is_stmt 1
 2146 0014 4022     		movs	r2, #64
 2147 0016 094C     		ldr	r4, .L211
 2148 0018 6A60     		str	r2, [r5, #4]
 2149 001a 01E0     		b	.L207
 2150              	.L210:
 2151 001c 42F0C044 		orr	r4, r2, #1610612736
 2152              	.L207:
 2153              		.loc 1 1168 0
 2154 0020 758A     		ldrh	r5, [r6, #18]
 2155              	.LVL195:
 2156              		.loc 1 1170 0
 2157 0022 006D     		ldr	r0, [r0, #80]
 2158              	.LVL196:
 2159              		.loc 1 1168 0
 2160 0024 6B1E     		subs	r3, r5, #1
 2161              		.loc 1 1170 0
 2162 0026 00EB4111 		add	r1, r0, r1, lsl #5
 2163              	.LVL197:
 2164              		.loc 1 1168 0
 2165 002a 1344     		add	r3, r3, r2
 2166 002c B3FBF5F3 		udiv	r3, r3, r5
ARM GAS  /tmp/ccH4KobB.s 			page 39


 2167              		.loc 1 1170 0
 2168 0030 44EAC343 		orr	r3, r4, r3, lsl #19
 2169 0034 C1F8103B 		str	r3, [r1, #2832]
 2170              		.loc 1 1173 0
 2171 0038 70BC     		pop	{r4, r5, r6}
 2172              		.cfi_restore 6
 2173              		.cfi_restore 5
 2174              		.cfi_restore 4
 2175              		.cfi_def_cfa_offset 0
 2176              	.LVL198:
 2177 003a 7047     		bx	lr
 2178              	.L212:
 2179              		.align	2
 2180              	.L211:
 2181 003c 40000060 		.word	1610612800
 2182              		.cfi_endproc
 2183              	.LFE284:
 2184              		.size	usb_lld_prepare_receive, .-usb_lld_prepare_receive
 2185              		.section	.text.otg_epout_handler.constprop.7,"ax",%progbits
 2186              		.align	1
 2187              		.p2align 4,,15
 2188              		.syntax unified
 2189              		.thumb
 2190              		.thumb_func
 2191              		.fpu fpv4-sp-d16
 2192              		.type	otg_epout_handler.constprop.7, %function
 2193              	otg_epout_handler.constprop.7:
 2194              	.LFB300:
 2195              		.loc 1 581 0
 2196              		.cfi_startproc
 2197              		@ args = 0, pretend = 0, frame = 0
 2198              		@ frame_needed = 0, uses_anonymous_args = 0
 2199              	.LVL199:
 2200 0000 2DE9F041 		push	{r4, r5, r6, r7, r8, lr}
 2201              		.cfi_def_cfa_offset 24
 2202              		.cfi_offset 4, -24
 2203              		.cfi_offset 5, -20
 2204              		.cfi_offset 6, -16
 2205              		.cfi_offset 7, -12
 2206              		.cfi_offset 8, -8
 2207              		.cfi_offset 14, -4
 2208              		.loc 1 582 0
 2209 0004 244E     		ldr	r6, .L231
 2210 0006 376D     		ldr	r7, [r6, #80]
 2211              	.LVL200:
 2212              		.loc 1 583 0
 2213 0008 07EB4013 		add	r3, r7, r0, lsl #5
 2214              		.loc 1 581 0
 2215 000c 0546     		mov	r5, r0
 2216              		.loc 1 583 0
 2217 000e D3F8084B 		ldr	r4, [r3, #2824]
 2218              	.LVL201:
 2219              		.loc 1 586 0
 2220 0012 C3F8084B 		str	r4, [r3, #2824]
 2221              		.loc 1 588 0
 2222 0016 2007     		lsls	r0, r4, #28
 2223              	.LVL202:
ARM GAS  /tmp/ccH4KobB.s 			page 40


 2224 0018 0AD5     		bpl	.L214
 2225 001a D7F81438 		ldr	r3, [r7, #2068]
 2226 001e 1907     		lsls	r1, r3, #28
 2227 0020 06D5     		bpl	.L214
 2228              		.loc 1 591 0
 2229 0022 06EB8503 		add	r3, r6, r5, lsl #2
 2230 0026 2946     		mov	r1, r5
 2231 0028 DB68     		ldr	r3, [r3, #12]
 2232 002a 3046     		mov	r0, r6
 2233 002c 5B68     		ldr	r3, [r3, #4]
 2234 002e 9847     		blx	r3
 2235              	.LVL203:
 2236              	.L214:
 2237              		.loc 1 594 0
 2238 0030 E207     		lsls	r2, r4, #31
 2239 0032 2ED5     		bpl	.L213
 2240 0034 D7F81438 		ldr	r3, [r7, #2068]
 2241 0038 DB07     		lsls	r3, r3, #31
 2242 003a 2AD5     		bpl	.L213
 2243              	.LBB622:
 2244              		.loc 1 596 0
 2245 003c 06EB8503 		add	r3, r6, r5, lsl #2
 2246 0040 D968     		ldr	r1, [r3, #12]
 2247 0042 8B69     		ldr	r3, [r1, #24]
 2248              	.LVL204:
 2249              		.loc 1 598 0
 2250 0044 5868     		ldr	r0, [r3, #4]
 2251 0046 1A69     		ldr	r2, [r3, #16]
 2252 0048 9042     		cmp	r0, r2
 2253 004a 0CD3     		bcc	.L230
 2254              		.loc 1 611 0
 2255 004c 7389     		ldrh	r3, [r6, #10]
 2256              	.LVL205:
 2257 004e CC68     		ldr	r4, [r1, #12]
 2258              	.LVL206:
 2259 0050 1148     		ldr	r0, .L231
 2260 0052 0122     		movs	r2, #1
 2261 0054 AA40     		lsls	r2, r2, r5
 2262 0056 23EA0203 		bic	r3, r3, r2
 2263 005a 7381     		strh	r3, [r6, #10]	@ movhi
 2264 005c 2946     		mov	r1, r5
 2265              	.LVL207:
 2266 005e 2346     		mov	r3, r4
 2267              	.LBE622:
 2268              		.loc 1 614 0
 2269 0060 BDE8F041 		pop	{r4, r5, r6, r7, r8, lr}
 2270              		.cfi_remember_state
 2271              		.cfi_restore 14
 2272              		.cfi_restore 8
 2273              		.cfi_restore 7
 2274              		.cfi_restore 6
 2275              		.cfi_restore 5
 2276              		.cfi_restore 4
 2277              		.cfi_def_cfa_offset 0
 2278              	.LVL208:
 2279              	.LBB635:
 2280              		.loc 1 611 0
ARM GAS  /tmp/ccH4KobB.s 			page 41


 2281 0064 1847     		bx	r3	@ indirect register sibling call
 2282              	.LVL209:
 2283              	.L230:
 2284              		.cfi_restore_state
 2285              		.loc 1 602 0
 2286 0066 121A     		subs	r2, r2, r0
 2287              		.loc 1 603 0
 2288 0068 0024     		movs	r4, #0
 2289              	.LVL210:
 2290 006a C3E90124 		strd	r2, r4, [r3, #4]
 2291              		.loc 1 604 0
 2292 006e 2946     		mov	r1, r5
 2293 0070 0948     		ldr	r0, .L231
 2294 0072 FFF7FEFF 		bl	usb_lld_prepare_receive
 2295              	.LVL211:
 2296              	.LBB623:
 2297              	.LBB624:
 2298              	.LBB625:
 2299              	.LBB626:
 2300              	.LBB627:
 2301              		.loc 3 546 0
 2302 0076 2023     		movs	r3, #32
 2303              		.syntax unified
 2304              	@ 546 "ChibiOS_3.0.2/os/ext/CMSIS/include/core_cmFunc.h" 1
 2305 0078 83F31188 		MSR basepri, r3
 2306              	@ 0 "" 2
 2307              	.LVL212:
 2308              		.thumb
 2309              		.syntax unified
 2310 007c 336D     		ldr	r3, [r6, #80]
 2311 007e 03EB4515 		add	r5, r3, r5, lsl #5
 2312              	.LVL213:
 2313              	.LBE627:
 2314              	.LBE626:
 2315              	.LBE625:
 2316              	.LBE624:
 2317              	.LBE623:
 2318              	.LBB628:
 2319              	.LBB629:
 2320              		.loc 1 1214 0
 2321 0082 D5F8003B 		ldr	r3, [r5, #2816]
 2322 0086 43F08063 		orr	r3, r3, #67108864
 2323 008a C5F8003B 		str	r3, [r5, #2816]
 2324              	.LVL214:
 2325              	.LBE629:
 2326              	.LBE628:
 2327              	.LBB630:
 2328              	.LBB631:
 2329              	.LBB632:
 2330              	.LBB633:
 2331              	.LBB634:
 2332              		.loc 3 546 0
 2333              		.syntax unified
 2334              	@ 546 "ChibiOS_3.0.2/os/ext/CMSIS/include/core_cmFunc.h" 1
 2335 008e 84F31188 		MSR basepri, r4
 2336              	@ 0 "" 2
 2337              	.LVL215:
ARM GAS  /tmp/ccH4KobB.s 			page 42


 2338              		.thumb
 2339              		.syntax unified
 2340              	.L213:
 2341              	.LBE634:
 2342              	.LBE633:
 2343              	.LBE632:
 2344              	.LBE631:
 2345              	.LBE630:
 2346              	.LBE635:
 2347              		.loc 1 614 0
 2348 0092 BDE8F081 		pop	{r4, r5, r6, r7, r8, pc}
 2349              	.LVL216:
 2350              	.L232:
 2351 0096 00BF     		.align	2
 2352              	.L231:
 2353 0098 00000000 		.word	.LANCHOR0
 2354              		.cfi_endproc
 2355              	.LFE300:
 2356              		.size	otg_epout_handler.constprop.7, .-otg_epout_handler.constprop.7
 2357              		.section	.text.usb_lld_prepare_transmit,"ax",%progbits
 2358              		.align	1
 2359              		.p2align 4,,15
 2360              		.global	usb_lld_prepare_transmit
 2361              		.syntax unified
 2362              		.thumb
 2363              		.thumb_func
 2364              		.fpu fpv4-sp-d16
 2365              		.type	usb_lld_prepare_transmit, %function
 2366              	usb_lld_prepare_transmit:
 2367              	.LFB285:
 2368              		.loc 1 1183 0
 2369              		.cfi_startproc
 2370              		@ args = 0, pretend = 0, frame = 0
 2371              		@ frame_needed = 0, uses_anonymous_args = 0
 2372              		@ link register save eliminated.
 2373              	.LVL217:
 2374              		.loc 1 1184 0
 2375 0000 00EB8103 		add	r3, r0, r1, lsl #2
 2376              		.loc 1 1183 0
 2377 0004 10B4     		push	{r4}
 2378              		.cfi_def_cfa_offset 4
 2379              		.cfi_offset 4, -4
 2380              		.loc 1 1184 0
 2381 0006 DC68     		ldr	r4, [r3, #12]
 2382 0008 026D     		ldr	r2, [r0, #80]
 2383 000a 6069     		ldr	r0, [r4, #20]
 2384              	.LVL218:
 2385              		.loc 1 1187 0
 2386 000c 4368     		ldr	r3, [r0, #4]
 2387 000e 0361     		str	r3, [r0, #16]
 2388              		.loc 1 1188 0
 2389 0010 9BB1     		cbz	r3, .L238
 2390              	.LBB636:
 2391              		.loc 1 1193 0
 2392 0012 69B1     		cbz	r1, .L239
 2393              	.L236:
 2394              		.loc 1 1197 0
ARM GAS  /tmp/ccH4KobB.s 			page 43


 2395 0014 208A     		ldrh	r0, [r4, #16]
 2396              	.LVL219:
 2397              	.LBE636:
 2398              		.loc 1 1202 0
 2399 0016 5DF8044B 		ldr	r4, [sp], #4
 2400              		.cfi_remember_state
 2401              		.cfi_restore 4
 2402              		.cfi_def_cfa_offset 0
 2403              	.LVL220:
 2404              	.LBB637:
 2405              		.loc 1 1199 0
 2406 001a 02EB4112 		add	r2, r2, r1, lsl #5
 2407              		.loc 1 1197 0
 2408 001e 411E     		subs	r1, r0, #1
 2409              	.LVL221:
 2410 0020 1944     		add	r1, r1, r3
 2411 0022 B1FBF0F1 		udiv	r1, r1, r0
 2412              		.loc 1 1199 0
 2413 0026 43EAC143 		orr	r3, r3, r1, lsl #19
 2414              	.LVL222:
 2415 002a C2F81039 		str	r3, [r2, #2320]
 2416              	.LBE637:
 2417              		.loc 1 1202 0
 2418 002e 7047     		bx	lr
 2419              	.LVL223:
 2420              	.L239:
 2421              		.cfi_restore_state
 2422              	.LBB638:
 2423              		.loc 1 1193 0 discriminator 1
 2424 0030 402B     		cmp	r3, #64
 2425              		.loc 1 1194 0 discriminator 1
 2426 0032 84BF     		itt	hi
 2427 0034 4023     		movhi	r3, #64
 2428 0036 4360     		strhi	r3, [r0, #4]
 2429 0038 ECE7     		b	.L236
 2430              	.L238:
 2431              	.LBE638:
 2432              		.loc 1 1190 0
 2433 003a 02EB4112 		add	r2, r2, r1, lsl #5
 2434 003e 4FF40023 		mov	r3, #524288
 2435 0042 C2F81039 		str	r3, [r2, #2320]
 2436              		.loc 1 1202 0
 2437 0046 5DF8044B 		ldr	r4, [sp], #4
 2438              		.cfi_restore 4
 2439              		.cfi_def_cfa_offset 0
 2440 004a 7047     		bx	lr
 2441              		.cfi_endproc
 2442              	.LFE285:
 2443              		.size	usb_lld_prepare_transmit, .-usb_lld_prepare_transmit
 2444              		.section	.text.otg_epin_handler.constprop.8,"ax",%progbits
 2445              		.align	1
 2446              		.p2align 4,,15
 2447              		.syntax unified
 2448              		.thumb
 2449              		.thumb_func
 2450              		.fpu fpv4-sp-d16
 2451              		.type	otg_epin_handler.constprop.8, %function
ARM GAS  /tmp/ccH4KobB.s 			page 44


 2452              	otg_epin_handler.constprop.8:
 2453              	.LFB299:
 2454              		.loc 1 533 0
 2455              		.cfi_startproc
 2456              		@ args = 0, pretend = 0, frame = 0
 2457              		@ frame_needed = 0, uses_anonymous_args = 0
 2458              	.LVL224:
 2459 0000 2DE9F041 		push	{r4, r5, r6, r7, r8, lr}
 2460              		.cfi_def_cfa_offset 24
 2461              		.cfi_offset 4, -24
 2462              		.cfi_offset 5, -20
 2463              		.cfi_offset 6, -16
 2464              		.cfi_offset 7, -12
 2465              		.cfi_offset 8, -8
 2466              		.cfi_offset 14, -4
 2467              		.loc 1 534 0
 2468 0004 304E     		ldr	r6, .L259
 2469 0006 356D     		ldr	r5, [r6, #80]
 2470              	.LVL225:
 2471              		.loc 1 535 0
 2472 0008 05EB4013 		add	r3, r5, r0, lsl #5
 2473              		.loc 1 533 0
 2474 000c 0746     		mov	r7, r0
 2475              		.loc 1 535 0
 2476 000e D3F80849 		ldr	r4, [r3, #2312]
 2477              	.LVL226:
 2478              		.loc 1 537 0
 2479 0012 C3F80849 		str	r4, [r3, #2312]
 2480              		.loc 1 542 0
 2481 0016 E107     		lsls	r1, r4, #31
 2482 0018 16D5     		bpl	.L241
 2483 001a D5F81038 		ldr	r3, [r5, #2064]
 2484 001e DA07     		lsls	r2, r3, #31
 2485 0020 12D5     		bpl	.L241
 2486              	.LBB639:
 2487              		.loc 1 544 0
 2488 0022 06EB8003 		add	r3, r6, r0, lsl #2
 2489 0026 D968     		ldr	r1, [r3, #12]
 2490 0028 4B69     		ldr	r3, [r1, #20]
 2491              	.LVL227:
 2492              		.loc 1 546 0
 2493 002a 5868     		ldr	r0, [r3, #4]
 2494              	.LVL228:
 2495 002c 1A69     		ldr	r2, [r3, #16]
 2496 002e 9042     		cmp	r0, r2
 2497 0030 2AD3     		bcc	.L257
 2498              		.loc 1 559 0
 2499 0032 3389     		ldrh	r3, [r6, #8]
 2500              	.LVL229:
 2501 0034 D1F80880 		ldr	r8, [r1, #8]
 2502 0038 0122     		movs	r2, #1
 2503 003a BA40     		lsls	r2, r2, r7
 2504 003c 23EA0203 		bic	r3, r3, r2
 2505 0040 3381     		strh	r3, [r6, #8]	@ movhi
 2506 0042 3946     		mov	r1, r7
 2507              	.LVL230:
 2508 0044 3046     		mov	r0, r6
ARM GAS  /tmp/ccH4KobB.s 			page 45


 2509 0046 C047     		blx	r8
 2510              	.LVL231:
 2511              	.L241:
 2512              	.LBE639:
 2513              		.loc 1 562 0
 2514 0048 2306     		lsls	r3, r4, #24
 2515 004a 06D5     		bpl	.L240
 2516              		.loc 1 563 0
 2517 004c 0123     		movs	r3, #1
 2518 004e D5F83428 		ldr	r2, [r5, #2100]
 2519 0052 03FA07F7 		lsl	r7, r3, r7
 2520              		.loc 1 562 0
 2521 0056 1742     		tst	r7, r2
 2522 0058 01D1     		bne	.L258
 2523              	.L240:
 2524              		.loc 1 571 0
 2525 005a BDE8F081 		pop	{r4, r5, r6, r7, r8, pc}
 2526              	.LVL232:
 2527              	.L258:
 2528              	.LBB654:
 2529              	.LBB655:
 2530              	.LBB656:
 2531              	.LBB657:
 2532              	.LBB658:
 2533              	.LBB659:
 2534              		.loc 3 546 0
 2535 005e 2023     		movs	r3, #32
 2536              		.syntax unified
 2537              	@ 546 "ChibiOS_3.0.2/os/ext/CMSIS/include/core_cmFunc.h" 1
 2538 0060 83F31188 		MSR basepri, r3
 2539              	@ 0 "" 2
 2540              	.LVL233:
 2541              		.thumb
 2542              		.syntax unified
 2543              	.LBE659:
 2544              	.LBE658:
 2545              	.LBE657:
 2546              	.LBE656:
 2547              	.LBE655:
 2548              	.LBE654:
 2549              		.loc 1 567 0
 2550 0064 D5F83428 		ldr	r2, [r5, #2100]
 2551              		.loc 1 566 0
 2552 0068 F36D     		ldr	r3, [r6, #92]
 2553              	.LBB660:
 2554              	.LBB661:
 2555              		.loc 4 728 0
 2556 006a 1848     		ldr	r0, .L259+4
 2557              	.LBE661:
 2558              	.LBE660:
 2559              		.loc 1 567 0
 2560 006c 22EA0702 		bic	r2, r2, r7
 2561 0070 C5F83428 		str	r2, [r5, #2100]
 2562              	.LVL234:
 2563              		.loc 1 566 0
 2564 0074 1F43     		orrs	r7, r7, r3
 2565              	.LBB664:
ARM GAS  /tmp/ccH4KobB.s 			page 46


 2566              	.LBB662:
 2567              		.loc 4 728 0
 2568 0076 0021     		movs	r1, #0
 2569              	.LBE662:
 2570              	.LBE664:
 2571              		.loc 1 566 0
 2572 0078 F765     		str	r7, [r6, #92]
 2573              	.LBB665:
 2574              	.LBB663:
 2575              		.loc 4 728 0
 2576 007a FFF7FEFF 		bl	chThdResumeI
 2577              	.LVL235:
 2578              	.LBE663:
 2579              	.LBE665:
 2580              	.LBB666:
 2581              	.LBB667:
 2582              	.LBB668:
 2583              	.LBB669:
 2584              	.LBB670:
 2585              	.LBB671:
 2586              		.loc 3 546 0
 2587 007e 0023     		movs	r3, #0
 2588              		.syntax unified
 2589              	@ 546 "ChibiOS_3.0.2/os/ext/CMSIS/include/core_cmFunc.h" 1
 2590 0080 83F31188 		MSR basepri, r3
 2591              	@ 0 "" 2
 2592              	.LVL236:
 2593              		.thumb
 2594              		.syntax unified
 2595              	.LBE671:
 2596              	.LBE670:
 2597              	.LBE669:
 2598              	.LBE668:
 2599              	.LBE667:
 2600              	.LBE666:
 2601              		.loc 1 571 0
 2602 0084 BDE8F081 		pop	{r4, r5, r6, r7, r8, pc}
 2603              	.LVL237:
 2604              	.L257:
 2605              	.LBB672:
 2606              		.loc 1 550 0
 2607 0088 121A     		subs	r2, r2, r0
 2608              		.loc 1 551 0
 2609 008a 4FF00008 		mov	r8, #0
 2610 008e C3E90128 		strd	r2, r8, [r3, #4]
 2611              		.loc 1 552 0
 2612 0092 3946     		mov	r1, r7
 2613 0094 3046     		mov	r0, r6
 2614 0096 FFF7FEFF 		bl	usb_lld_prepare_transmit
 2615              	.LVL238:
 2616              	.LBB640:
 2617              	.LBB641:
 2618              	.LBB642:
 2619              	.LBB643:
 2620              	.LBB644:
 2621              	.LBB645:
 2622              		.loc 3 546 0
ARM GAS  /tmp/ccH4KobB.s 			page 47


 2623 009a 2023     		movs	r3, #32
 2624              		.syntax unified
 2625              	@ 546 "ChibiOS_3.0.2/os/ext/CMSIS/include/core_cmFunc.h" 1
 2626 009c 83F31188 		MSR basepri, r3
 2627              	@ 0 "" 2
 2628              	.LVL239:
 2629              		.thumb
 2630              		.syntax unified
 2631              	.LBE645:
 2632              	.LBE644:
 2633              	.LBE643:
 2634              	.LBE642:
 2635              	.LBE641:
 2636              	.LBE640:
 2637              	.LBB646:
 2638              	.LBB647:
 2639              		.loc 1 1227 0
 2640 00a0 326D     		ldr	r2, [r6, #80]
 2641 00a2 02EB4710 		add	r0, r2, r7, lsl #5
 2642              		.loc 1 1228 0
 2643 00a6 0123     		movs	r3, #1
 2644              		.loc 1 1227 0
 2645 00a8 D0F80019 		ldr	r1, [r0, #2304]
 2646 00ac 41F00441 		orr	r1, r1, #-2080374784
 2647 00b0 C0F80019 		str	r1, [r0, #2304]
 2648              		.loc 1 1228 0
 2649 00b4 D2F83418 		ldr	r1, [r2, #2100]
 2650 00b8 BB40     		lsls	r3, r3, r7
 2651 00ba 0B43     		orrs	r3, r3, r1
 2652 00bc C2F83438 		str	r3, [r2, #2100]
 2653              	.LVL240:
 2654              	.LBE647:
 2655              	.LBE646:
 2656              	.LBB648:
 2657              	.LBB649:
 2658              	.LBB650:
 2659              	.LBB651:
 2660              	.LBB652:
 2661              	.LBB653:
 2662              		.loc 3 546 0
 2663              		.syntax unified
 2664              	@ 546 "ChibiOS_3.0.2/os/ext/CMSIS/include/core_cmFunc.h" 1
 2665 00c0 88F31188 		MSR basepri, r8
 2666              	@ 0 "" 2
 2667              	.LVL241:
 2668              		.thumb
 2669              		.syntax unified
 2670 00c4 C0E7     		b	.L241
 2671              	.L260:
 2672 00c6 00BF     		.align	2
 2673              	.L259:
 2674 00c8 00000000 		.word	.LANCHOR0
 2675 00cc 60000000 		.word	.LANCHOR0+96
 2676              	.LBE653:
 2677              	.LBE652:
 2678              	.LBE651:
 2679              	.LBE650:
ARM GAS  /tmp/ccH4KobB.s 			page 48


 2680              	.LBE649:
 2681              	.LBE648:
 2682              	.LBE672:
 2683              		.cfi_endproc
 2684              	.LFE299:
 2685              		.size	otg_epin_handler.constprop.8, .-otg_epin_handler.constprop.8
 2686              		.section	.text.Vector14C,"ax",%progbits
 2687              		.align	1
 2688              		.p2align 4,,15
 2689              		.global	Vector14C
 2690              		.syntax unified
 2691              		.thumb
 2692              		.thumb_func
 2693              		.fpu fpv4-sp-d16
 2694              		.type	Vector14C, %function
 2695              	Vector14C:
 2696              	.LFB273:
 2697              		.loc 1 706 0
 2698              		.cfi_startproc
 2699              		@ args = 0, pretend = 0, frame = 0
 2700              		@ frame_needed = 0, uses_anonymous_args = 0
 2701              	.LVL242:
 2702 0000 70B5     		push	{r4, r5, r6, lr}
 2703              		.cfi_def_cfa_offset 16
 2704              		.cfi_offset 4, -16
 2705              		.cfi_offset 5, -12
 2706              		.cfi_offset 6, -8
 2707              		.cfi_offset 14, -4
 2708              	.LBB689:
 2709              	.LBB690:
 2710              		.loc 1 624 0
 2711 0002 3A4D     		ldr	r5, .L330
 2712 0004 2E6D     		ldr	r6, [r5, #80]
 2713              	.LVL243:
 2714              		.loc 1 627 0
 2715 0006 7469     		ldr	r4, [r6, #20]
 2716              	.LVL244:
 2717              		.loc 1 628 0
 2718 0008 B369     		ldr	r3, [r6, #24]
 2719 000a 1C40     		ands	r4, r4, r3
 2720              	.LVL245:
 2721              		.loc 1 632 0
 2722 000c E104     		lsls	r1, r4, #19
 2723              		.loc 1 629 0
 2724 000e 7461     		str	r4, [r6, #20]
 2725              		.loc 1 632 0
 2726 0010 26D4     		bmi	.L320
 2727              	.L263:
 2728              		.loc 1 638 0
 2729 0012 A204     		lsls	r2, r4, #18
 2730              		.loc 1 639 0
 2731 0014 48BF     		it	mi
 2732 0016 D6F80838 		ldrmi	r3, [r6, #2056]
 2733              		.loc 1 643 0
 2734 001a 2307     		lsls	r3, r4, #28
 2735 001c 04D5     		bpl	.L266
 2736              		.loc 1 644 0
ARM GAS  /tmp/ccH4KobB.s 			page 49


 2737 001e 6B68     		ldr	r3, [r5, #4]
 2738 0020 DB68     		ldr	r3, [r3, #12]
 2739 0022 0BB1     		cbz	r3, .L266
 2740 0024 3148     		ldr	r0, .L330
 2741 0026 9847     		blx	r3
 2742              	.LVL246:
 2743              	.L266:
 2744              		.loc 1 648 0
 2745 0028 E506     		lsls	r5, r4, #27
 2746 002a 24D4     		bmi	.L321
 2747              	.L267:
 2748              		.loc 1 659 0
 2749 002c 6003     		lsls	r0, r4, #13
 2750              		.loc 1 658 0
 2751 002e D6F81858 		ldr	r5, [r6, #2072]
 2752              	.LVL247:
 2753              		.loc 1 659 0
 2754 0032 07D5     		bpl	.L269
 2755              		.loc 1 660 0
 2756 0034 E907     		lsls	r1, r5, #31
 2757 0036 4FD4     		bmi	.L322
 2758              		.loc 1 662 0
 2759 0038 AA07     		lsls	r2, r5, #30
 2760 003a 42D4     		bmi	.L323
 2761              	.L271:
 2762              		.loc 1 664 0
 2763 003c 6B07     		lsls	r3, r5, #29
 2764 003e 45D4     		bmi	.L324
 2765              	.L272:
 2766              		.loc 1 666 0
 2767 0040 2E07     		lsls	r6, r5, #28
 2768              	.LVL248:
 2769 0042 4FD4     		bmi	.L325
 2770              	.L269:
 2771              		.loc 1 675 0
 2772 0044 2403     		lsls	r4, r4, #12
 2773              	.LVL249:
 2774 0046 07D5     		bpl	.L275
 2775              		.loc 1 676 0
 2776 0048 E803     		lsls	r0, r5, #15
 2777 004a 2AD4     		bmi	.L326
 2778              		.loc 1 678 0
 2779 004c A903     		lsls	r1, r5, #14
 2780 004e 2DD4     		bmi	.L327
 2781              	.L277:
 2782              		.loc 1 680 0
 2783 0050 6A03     		lsls	r2, r5, #13
 2784 0052 30D4     		bmi	.L328
 2785              	.L278:
 2786              		.loc 1 682 0
 2787 0054 2B03     		lsls	r3, r5, #12
 2788 0056 1DD4     		bmi	.L329
 2789              	.L275:
 2790              	.LVL250:
 2791              	.LBE690:
 2792              	.LBE689:
 2793              		.loc 1 713 0
ARM GAS  /tmp/ccH4KobB.s 			page 50


 2794 0058 BDE87040 		pop	{r4, r5, r6, lr}
 2795              		.cfi_remember_state
 2796              		.cfi_restore 14
 2797              		.cfi_restore 6
 2798              		.cfi_restore 5
 2799              		.cfi_restore 4
 2800              		.cfi_def_cfa_offset 0
 2801              		.loc 1 712 0
 2802 005c FFF7FEBF 		b	_port_irq_epilogue
 2803              	.LVL251:
 2804              	.L320:
 2805              		.cfi_restore_state
 2806              	.LBB709:
 2807              	.LBB707:
 2808              		.loc 1 633 0
 2809 0060 2846     		mov	r0, r5
 2810 0062 FFF7FEFF 		bl	_usb_reset
 2811              	.LVL252:
 2812              		.loc 1 634 0
 2813 0066 6B68     		ldr	r3, [r5, #4]
 2814 0068 1B68     		ldr	r3, [r3]
 2815 006a 002B     		cmp	r3, #0
 2816 006c D1D0     		beq	.L263
 2817 006e 0021     		movs	r1, #0
 2818 0070 2846     		mov	r0, r5
 2819 0072 9847     		blx	r3
 2820              	.LVL253:
 2821 0074 CDE7     		b	.L263
 2822              	.L321:
 2823              	.LVL254:
 2824              	.LBB691:
 2825              	.LBB692:
 2826              	.LBB693:
 2827              	.LBB694:
 2828              	.LBB695:
 2829              	.LBB696:
 2830              		.loc 3 546 0
 2831 0076 2023     		movs	r3, #32
 2832              		.syntax unified
 2833              	@ 546 "ChibiOS_3.0.2/os/ext/CMSIS/include/core_cmFunc.h" 1
 2834 0078 83F31188 		MSR basepri, r3
 2835              	@ 0 "" 2
 2836              	.LVL255:
 2837              		.thumb
 2838              		.syntax unified
 2839              	.LBE696:
 2840              	.LBE695:
 2841              	.LBE694:
 2842              	.LBE693:
 2843              	.LBE692:
 2844              	.LBE691:
 2845              		.loc 1 652 0
 2846 007c B369     		ldr	r3, [r6, #24]
 2847              	.LBB697:
 2848              	.LBB698:
 2849              		.loc 4 728 0
 2850 007e 1C48     		ldr	r0, .L330+4
ARM GAS  /tmp/ccH4KobB.s 			page 51


 2851              	.LBE698:
 2852              	.LBE697:
 2853              		.loc 1 652 0
 2854 0080 23F01003 		bic	r3, r3, #16
 2855 0084 B361     		str	r3, [r6, #24]
 2856              	.LVL256:
 2857              	.LBB700:
 2858              	.LBB699:
 2859              		.loc 4 728 0
 2860 0086 0021     		movs	r1, #0
 2861 0088 FFF7FEFF 		bl	chThdResumeI
 2862              	.LVL257:
 2863              	.LBE699:
 2864              	.LBE700:
 2865              	.LBB701:
 2866              	.LBB702:
 2867              	.LBB703:
 2868              	.LBB704:
 2869              	.LBB705:
 2870              	.LBB706:
 2871              		.loc 3 546 0
 2872 008c 0023     		movs	r3, #0
 2873              		.syntax unified
 2874              	@ 546 "ChibiOS_3.0.2/os/ext/CMSIS/include/core_cmFunc.h" 1
 2875 008e 83F31188 		MSR basepri, r3
 2876              	@ 0 "" 2
 2877              	.LVL258:
 2878              		.thumb
 2879              		.syntax unified
 2880 0092 CBE7     		b	.L267
 2881              	.LVL259:
 2882              	.L329:
 2883              	.LBE706:
 2884              	.LBE705:
 2885              	.LBE704:
 2886              	.LBE703:
 2887              	.LBE702:
 2888              	.LBE701:
 2889              		.loc 1 683 0
 2890 0094 0320     		movs	r0, #3
 2891 0096 FFF7FEFF 		bl	otg_epout_handler.constprop.7
 2892              	.LVL260:
 2893              	.LBE707:
 2894              	.LBE709:
 2895              		.loc 1 713 0
 2896 009a BDE87040 		pop	{r4, r5, r6, lr}
 2897              		.cfi_remember_state
 2898              		.cfi_restore 14
 2899              		.cfi_restore 6
 2900              		.cfi_restore 5
 2901              		.cfi_restore 4
 2902              		.cfi_def_cfa_offset 0
 2903              		.loc 1 712 0
 2904 009e FFF7FEBF 		b	_port_irq_epilogue
 2905              	.LVL261:
 2906              	.L326:
 2907              		.cfi_restore_state
ARM GAS  /tmp/ccH4KobB.s 			page 52


 2908              	.LBB710:
 2909              	.LBB708:
 2910              		.loc 1 677 0
 2911 00a2 0020     		movs	r0, #0
 2912 00a4 FFF7FEFF 		bl	otg_epout_handler.constprop.7
 2913              	.LVL262:
 2914              		.loc 1 678 0
 2915 00a8 A903     		lsls	r1, r5, #14
 2916 00aa D1D5     		bpl	.L277
 2917              	.L327:
 2918              		.loc 1 679 0
 2919 00ac 0120     		movs	r0, #1
 2920 00ae FFF7FEFF 		bl	otg_epout_handler.constprop.7
 2921              	.LVL263:
 2922              		.loc 1 680 0
 2923 00b2 6A03     		lsls	r2, r5, #13
 2924 00b4 CED5     		bpl	.L278
 2925              	.L328:
 2926              		.loc 1 681 0
 2927 00b6 0220     		movs	r0, #2
 2928 00b8 FFF7FEFF 		bl	otg_epout_handler.constprop.7
 2929              	.LVL264:
 2930              		.loc 1 682 0
 2931 00bc 2B03     		lsls	r3, r5, #12
 2932 00be CBD5     		bpl	.L275
 2933 00c0 E8E7     		b	.L329
 2934              	.LVL265:
 2935              	.L323:
 2936              		.loc 1 663 0
 2937 00c2 0120     		movs	r0, #1
 2938 00c4 FFF7FEFF 		bl	otg_epin_handler.constprop.8
 2939              	.LVL266:
 2940              		.loc 1 664 0
 2941 00c8 6B07     		lsls	r3, r5, #29
 2942 00ca B9D5     		bpl	.L272
 2943              	.L324:
 2944              		.loc 1 665 0
 2945 00cc 0220     		movs	r0, #2
 2946 00ce FFF7FEFF 		bl	otg_epin_handler.constprop.8
 2947              	.LVL267:
 2948              		.loc 1 666 0
 2949 00d2 2E07     		lsls	r6, r5, #28
 2950              	.LVL268:
 2951 00d4 B6D5     		bpl	.L269
 2952 00d6 05E0     		b	.L325
 2953              	.LVL269:
 2954              	.L322:
 2955              		.loc 1 661 0
 2956 00d8 0020     		movs	r0, #0
 2957 00da FFF7FEFF 		bl	otg_epin_handler.constprop.8
 2958              	.LVL270:
 2959              		.loc 1 662 0
 2960 00de AA07     		lsls	r2, r5, #30
 2961 00e0 ACD5     		bpl	.L271
 2962 00e2 EEE7     		b	.L323
 2963              	.LVL271:
 2964              	.L325:
ARM GAS  /tmp/ccH4KobB.s 			page 53


 2965              		.loc 1 667 0
 2966 00e4 0320     		movs	r0, #3
 2967 00e6 FFF7FEFF 		bl	otg_epin_handler.constprop.8
 2968              	.LVL272:
 2969 00ea ABE7     		b	.L269
 2970              	.L331:
 2971              		.align	2
 2972              	.L330:
 2973 00ec 00000000 		.word	.LANCHOR0
 2974 00f0 60000000 		.word	.LANCHOR0+96
 2975              	.LBE708:
 2976              	.LBE710:
 2977              		.cfi_endproc
 2978              	.LFE273:
 2979              		.size	Vector14C, .-Vector14C
 2980              		.section	.text.usb_lld_start_out,"ax",%progbits
 2981              		.align	1
 2982              		.p2align 4,,15
 2983              		.global	usb_lld_start_out
 2984              		.syntax unified
 2985              		.thumb
 2986              		.thumb_func
 2987              		.fpu fpv4-sp-d16
 2988              		.type	usb_lld_start_out, %function
 2989              	usb_lld_start_out:
 2990              	.LFB286:
 2991              		.loc 1 1212 0
 2992              		.cfi_startproc
 2993              		@ args = 0, pretend = 0, frame = 0
 2994              		@ frame_needed = 0, uses_anonymous_args = 0
 2995              		@ link register save eliminated.
 2996              	.LVL273:
 2997 0000 036D     		ldr	r3, [r0, #80]
 2998 0002 03EB4111 		add	r1, r3, r1, lsl #5
 2999              	.LVL274:
 3000              		.loc 1 1214 0
 3001 0006 D1F8003B 		ldr	r3, [r1, #2816]
 3002 000a 43F08063 		orr	r3, r3, #67108864
 3003 000e C1F8003B 		str	r3, [r1, #2816]
 3004              		.loc 1 1215 0
 3005 0012 7047     		bx	lr
 3006              		.cfi_endproc
 3007              	.LFE286:
 3008              		.size	usb_lld_start_out, .-usb_lld_start_out
 3009              		.section	.text.usb_lld_start_in,"ax",%progbits
 3010              		.align	1
 3011              		.p2align 4,,15
 3012              		.global	usb_lld_start_in
 3013              		.syntax unified
 3014              		.thumb
 3015              		.thumb_func
 3016              		.fpu fpv4-sp-d16
 3017              		.type	usb_lld_start_in, %function
 3018              	usb_lld_start_in:
 3019              	.LFB287:
 3020              		.loc 1 1225 0
 3021              		.cfi_startproc
ARM GAS  /tmp/ccH4KobB.s 			page 54


 3022              		@ args = 0, pretend = 0, frame = 0
 3023              		@ frame_needed = 0, uses_anonymous_args = 0
 3024              		@ link register save eliminated.
 3025              	.LVL275:
 3026              		.loc 1 1227 0
 3027 0000 026D     		ldr	r2, [r0, #80]
 3028              		.loc 1 1225 0
 3029 0002 10B4     		push	{r4}
 3030              		.cfi_def_cfa_offset 4
 3031              		.cfi_offset 4, -4
 3032 0004 02EB4114 		add	r4, r2, r1, lsl #5
 3033              		.loc 1 1228 0
 3034 0008 0123     		movs	r3, #1
 3035              		.loc 1 1227 0
 3036 000a D4F80009 		ldr	r0, [r4, #2304]
 3037              	.LVL276:
 3038 000e 40F00440 		orr	r0, r0, #-2080374784
 3039 0012 C4F80009 		str	r0, [r4, #2304]
 3040              		.loc 1 1228 0
 3041 0016 D2F83408 		ldr	r0, [r2, #2100]
 3042              		.loc 1 1229 0
 3043 001a 5DF8044B 		ldr	r4, [sp], #4
 3044              		.cfi_restore 4
 3045              		.cfi_def_cfa_offset 0
 3046              		.loc 1 1228 0
 3047 001e 03FA01F1 		lsl	r1, r3, r1
 3048              	.LVL277:
 3049 0022 0143     		orrs	r1, r1, r0
 3050 0024 C2F83418 		str	r1, [r2, #2100]
 3051              		.loc 1 1229 0
 3052 0028 7047     		bx	lr
 3053              		.cfi_endproc
 3054              	.LFE287:
 3055              		.size	usb_lld_start_in, .-usb_lld_start_in
 3056 002a 00BF     		.section	.text.usb_lld_stall_out,"ax",%progbits
 3057              		.align	1
 3058              		.p2align 4,,15
 3059              		.global	usb_lld_stall_out
 3060              		.syntax unified
 3061              		.thumb
 3062              		.thumb_func
 3063              		.fpu fpv4-sp-d16
 3064              		.type	usb_lld_stall_out, %function
 3065              	usb_lld_stall_out:
 3066              	.LFB288:
 3067              		.loc 1 1239 0
 3068              		.cfi_startproc
 3069              		@ args = 0, pretend = 0, frame = 0
 3070              		@ frame_needed = 0, uses_anonymous_args = 0
 3071              		@ link register save eliminated.
 3072              	.LVL278:
 3073 0000 036D     		ldr	r3, [r0, #80]
 3074 0002 03EB4111 		add	r1, r3, r1, lsl #5
 3075              	.LVL279:
 3076              		.loc 1 1241 0
 3077 0006 D1F8003B 		ldr	r3, [r1, #2816]
 3078 000a 43F40013 		orr	r3, r3, #2097152
ARM GAS  /tmp/ccH4KobB.s 			page 55


 3079 000e C1F8003B 		str	r3, [r1, #2816]
 3080              		.loc 1 1242 0
 3081 0012 7047     		bx	lr
 3082              		.cfi_endproc
 3083              	.LFE288:
 3084              		.size	usb_lld_stall_out, .-usb_lld_stall_out
 3085              		.section	.text.usb_lld_stall_in,"ax",%progbits
 3086              		.align	1
 3087              		.p2align 4,,15
 3088              		.global	usb_lld_stall_in
 3089              		.syntax unified
 3090              		.thumb
 3091              		.thumb_func
 3092              		.fpu fpv4-sp-d16
 3093              		.type	usb_lld_stall_in, %function
 3094              	usb_lld_stall_in:
 3095              	.LFB289:
 3096              		.loc 1 1252 0
 3097              		.cfi_startproc
 3098              		@ args = 0, pretend = 0, frame = 0
 3099              		@ frame_needed = 0, uses_anonymous_args = 0
 3100              		@ link register save eliminated.
 3101              	.LVL280:
 3102 0000 036D     		ldr	r3, [r0, #80]
 3103 0002 03EB4111 		add	r1, r3, r1, lsl #5
 3104              	.LVL281:
 3105              		.loc 1 1254 0
 3106 0006 D1F80039 		ldr	r3, [r1, #2304]
 3107 000a 43F40013 		orr	r3, r3, #2097152
 3108 000e C1F80039 		str	r3, [r1, #2304]
 3109              		.loc 1 1255 0
 3110 0012 7047     		bx	lr
 3111              		.cfi_endproc
 3112              	.LFE289:
 3113              		.size	usb_lld_stall_in, .-usb_lld_stall_in
 3114              		.section	.text.usb_lld_clear_out,"ax",%progbits
 3115              		.align	1
 3116              		.p2align 4,,15
 3117              		.global	usb_lld_clear_out
 3118              		.syntax unified
 3119              		.thumb
 3120              		.thumb_func
 3121              		.fpu fpv4-sp-d16
 3122              		.type	usb_lld_clear_out, %function
 3123              	usb_lld_clear_out:
 3124              	.LFB290:
 3125              		.loc 1 1265 0
 3126              		.cfi_startproc
 3127              		@ args = 0, pretend = 0, frame = 0
 3128              		@ frame_needed = 0, uses_anonymous_args = 0
 3129              		@ link register save eliminated.
 3130              	.LVL282:
 3131 0000 036D     		ldr	r3, [r0, #80]
 3132 0002 03EB4111 		add	r1, r3, r1, lsl #5
 3133              	.LVL283:
 3134              		.loc 1 1267 0
 3135 0006 D1F8003B 		ldr	r3, [r1, #2816]
ARM GAS  /tmp/ccH4KobB.s 			page 56


 3136 000a 23F40013 		bic	r3, r3, #2097152
 3137 000e C1F8003B 		str	r3, [r1, #2816]
 3138              		.loc 1 1268 0
 3139 0012 7047     		bx	lr
 3140              		.cfi_endproc
 3141              	.LFE290:
 3142              		.size	usb_lld_clear_out, .-usb_lld_clear_out
 3143              		.section	.text.usb_lld_clear_in,"ax",%progbits
 3144              		.align	1
 3145              		.p2align 4,,15
 3146              		.global	usb_lld_clear_in
 3147              		.syntax unified
 3148              		.thumb
 3149              		.thumb_func
 3150              		.fpu fpv4-sp-d16
 3151              		.type	usb_lld_clear_in, %function
 3152              	usb_lld_clear_in:
 3153              	.LFB291:
 3154              		.loc 1 1278 0
 3155              		.cfi_startproc
 3156              		@ args = 0, pretend = 0, frame = 0
 3157              		@ frame_needed = 0, uses_anonymous_args = 0
 3158              		@ link register save eliminated.
 3159              	.LVL284:
 3160 0000 036D     		ldr	r3, [r0, #80]
 3161 0002 03EB4111 		add	r1, r3, r1, lsl #5
 3162              	.LVL285:
 3163              		.loc 1 1280 0
 3164 0006 D1F80039 		ldr	r3, [r1, #2304]
 3165 000a 23F40013 		bic	r3, r3, #2097152
 3166 000e C1F80039 		str	r3, [r1, #2304]
 3167              		.loc 1 1281 0
 3168 0012 7047     		bx	lr
 3169              		.cfi_endproc
 3170              	.LFE291:
 3171              		.size	usb_lld_clear_in, .-usb_lld_clear_in
 3172              		.global	USBD1
 3173              		.section	.bss.USBD1,"aw",%nobits
 3174              		.align	3
 3175              		.set	.LANCHOR0,. + 0
 3176              		.type	USBD1, %object
 3177              		.size	USBD1, 640
 3178              	USBD1:
 3179 0000 00000000 		.space	640
 3179      00000000 
 3179      00000000 
 3179      00000000 
 3179      00000000 
 3180              		.section	.bss.ep0_state,"aw",%nobits
 3181              		.align	2
 3182              		.type	ep0_state, %object
 3183              		.size	ep0_state, 20
 3184              	ep0_state:
 3185 0000 00000000 		.space	20
 3185      00000000 
 3185      00000000 
 3185      00000000 
ARM GAS  /tmp/ccH4KobB.s 			page 57


 3185      00000000 
 3186              		.section	.bss.ep0setup_buffer,"aw",%nobits
 3187              		.align	2
 3188              		.type	ep0setup_buffer, %object
 3189              		.size	ep0setup_buffer, 8
 3190              	ep0setup_buffer:
 3191 0000 00000000 		.space	8
 3191      00000000 
 3192              		.section	.rodata.ep0config,"a",%progbits
 3193              		.align	2
 3194              		.set	.LANCHOR2,. + 0
 3195              		.type	ep0config, %object
 3196              		.size	ep0config, 36
 3197              	ep0config:
 3198 0000 00000000 		.word	0
 3199 0004 00000000 		.word	_usb_ep0setup
 3200 0008 00000000 		.word	_usb_ep0in
 3201 000c 00000000 		.word	_usb_ep0out
 3202 0010 4000     		.short	64
 3203 0012 4000     		.short	64
 3204 0014 00000000 		.word	ep0_state
 3205 0018 00000000 		.word	ep0_state
 3206 001c 0100     		.short	1
 3207 001e 0000     		.space	2
 3208 0020 00000000 		.word	ep0setup_buffer
 3209              		.section	.rodata.fsparams,"a",%progbits
 3210              		.align	2
 3211              		.set	.LANCHOR1,. + 0
 3212              		.type	fsparams, %object
 3213              		.size	fsparams, 12
 3214              	fsparams:
 3215 0000 00010000 		.word	256
 3216 0004 40010000 		.word	320
 3217 0008 03000000 		.word	3
 3218              		.section	.rodata.usb_lld_pump.str1.4,"aMS",%progbits,1
 3219              		.align	2
 3220              	.LC0:
 3221 0000 7573625F 		.ascii	"usb_lld_pump\000"
 3221      6C6C645F 
 3221      70756D70 
 3221      00
 3222              		.text
 3223              	.Letext0:
 3224              		.file 6 "/usr/lib/gcc/arm-none-eabi/7.3.1/include/stddef.h"
 3225              		.file 7 "/usr/arm-none-eabi/include/machine/_default_types.h"
 3226              		.file 8 "/usr/arm-none-eabi/include/sys/lock.h"
 3227              		.file 9 "/usr/arm-none-eabi/include/sys/_types.h"
 3228              		.file 10 "/usr/arm-none-eabi/include/sys/reent.h"
 3229              		.file 11 "/usr/arm-none-eabi/include/sys/_stdint.h"
 3230              		.file 12 "ChibiOS_3.0.2/os/rt/ports/ARMCMx/compilers/GCC/chtypes.h"
 3231              		.file 13 "ChibiOS_3.0.2/os/rt/include/chsystypes.h"
 3232              		.file 14 "ChibiOS_3.0.2/os/rt/include/chschd.h"
 3233              		.file 15 "ChibiOS_3.0.2/os/ext/CMSIS/include/core_cm4.h"
 3234              		.file 16 "ChibiOS_3.0.2/os/ext/CMSIS/ST/system_stm32f4xx.h"
 3235              		.file 17 "ChibiOS_3.0.2/os/ext/CMSIS/ST/stm32f407xx.h"
 3236              		.file 18 "ChibiOS_3.0.2/os/rt/ports/ARMCMx/chcore.h"
 3237              		.file 19 "ChibiOS_3.0.2/os/rt/ports/ARMCMx/chcore_v7m.h"
ARM GAS  /tmp/ccH4KobB.s 			page 58


 3238              		.file 20 "ChibiOS_3.0.2/os/rt/include/chtm.h"
 3239              		.file 21 "ChibiOS_3.0.2/os/rt/include/chsem.h"
 3240              		.file 22 "ChibiOS_3.0.2/os/rt/include/chmtx.h"
 3241              		.file 23 "ChibiOS_3.0.2/os/rt/include/chevents.h"
 3242              		.file 24 "ChibiOS_3.0.2/os/rt/include/chqueues.h"
 3243              		.file 25 "./conf_general.h"
 3244              		.file 26 "ChibiOS_3.0.2/os/hal/ports/STM32/STM32F4xx/stm32_dma.h"
 3245              		.file 27 "ChibiOS_3.0.2/os/hal/ports/STM32/LLD/GPIOv2/pal_lld.h"
 3246              		.file 28 "ChibiOS_3.0.2/os/hal/include/can.h"
 3247              		.file 29 "ChibiOS_3.0.2/os/hal/ports/STM32/LLD/can_lld.h"
 3248              		.file 30 "ChibiOS_3.0.2/os/hal/include/i2c.h"
 3249              		.file 31 "ChibiOS_3.0.2/os/hal/ports/STM32/LLD/I2Cv1/i2c_lld.h"
 3250              		.file 32 "ChibiOS_3.0.2/os/hal/include/icu.h"
 3251              		.file 33 "ChibiOS_3.0.2/os/hal/ports/STM32/LLD/TIMv1/icu_lld.h"
 3252              		.file 34 "ChibiOS_3.0.2/os/hal/ports/STM32/LLD/TIMv1/stm32_tim.h"
 3253              		.file 35 "ChibiOS_3.0.2/os/hal/include/serial.h"
 3254              		.file 36 "ChibiOS_3.0.2/os/hal/ports/STM32/LLD/USARTv1/serial_lld.h"
 3255              		.file 37 "ChibiOS_3.0.2/os/hal/include/spi.h"
 3256              		.file 38 "ChibiOS_3.0.2/os/hal/ports/STM32/LLD/SPIv1/spi_lld.h"
 3257              		.file 39 "ChibiOS_3.0.2/os/hal/include/usb.h"
 3258              		.file 40 "ChibiOS_3.0.2/os/hal/ports/STM32/LLD/OTGv1/usb_lld.h"
 3259              		.file 41 "ChibiOS_3.0.2/os/hal/ports/STM32/LLD/OTGv1/stm32_otg.h"
 3260              		.file 42 "ChibiOS_3.0.2/os/rt/include/chsys.h"
 3261              		.file 43 "ChibiOS_3.0.2/os/hal/ports/common/ARMCMx/nvic.h"