ARM GAS  /tmp/ccz6CoWy.s 			page 1


   1              		.cpu cortex-m4
   2              		.eabi_attribute 27, 1
   3              		.eabi_attribute 28, 1
   4              		.eabi_attribute 20, 1
   5              		.eabi_attribute 21, 1
   6              		.eabi_attribute 23, 3
   7              		.eabi_attribute 24, 1
   8              		.eabi_attribute 25, 1
   9              		.eabi_attribute 26, 1
  10              		.eabi_attribute 30, 2
  11              		.eabi_attribute 34, 1
  12              		.eabi_attribute 18, 4
  13              		.file	"virtual_motor.c"
  14              		.text
  15              	.Ltext0:
  16              		.cfi_sections	.debug_frame
  17              		.section	.text.terminal_cmd_disconnect_virtual_motor,"ax",%progbits
  18              		.align	1
  19              		.p2align 4,,15
  20              		.syntax unified
  21              		.thumb
  22              		.thumb_func
  23              		.fpu fpv4-sp-d16
  24              		.type	terminal_cmd_disconnect_virtual_motor, %function
  25              	terminal_cmd_disconnect_virtual_motor:
  26              	.LFB233:
  27              		.file 1 "virtual_motor.c"
  28              		.loc 1 387 0
  29              		.cfi_startproc
  30              		@ args = 0, pretend = 0, frame = 24
  31              		@ frame_needed = 0, uses_anonymous_args = 0
  32              	.LVL0:
  33 0000 70B5     		push	{r4, r5, r6, lr}
  34              		.cfi_def_cfa_offset 16
  35              		.cfi_offset 4, -16
  36              		.cfi_offset 5, -12
  37              		.cfi_offset 6, -8
  38              		.cfi_offset 14, -4
  39              	.LBB8:
  40              	.LBB9:
  41              		.loc 1 217 0
  42 0002 184C     		ldr	r4, .L8
  43 0004 94F83830 		ldrb	r3, [r4, #56]	@ zero_extendqisi2
  44              	.LBE9:
  45              	.LBE8:
  46              		.loc 1 387 0
  47 0008 86B0     		sub	sp, sp, #24
  48              		.cfi_def_cfa_offset 40
  49              	.LBB12:
  50              	.LBB11:
  51              		.loc 1 217 0
  52 000a 13B3     		cbz	r3, .L2
  53              	.LBB10:
  54              		.loc 1 218 0
  55 000c 9FED160A 		vldr.32	s0, .L8+4
  56 0010 FFF7FEFF 		bl	mcpwm_foc_set_current
  57              	.LVL1:
ARM GAS  /tmp/ccz6CoWy.s 			page 2


  58              		.loc 1 221 0
  59 0014 0025     		movs	r5, #0
  60              		.loc 1 224 0
  61 0016 154B     		ldr	r3, .L8+8
  62 0018 1549     		ldr	r1, .L8+12
  63 001a 164A     		ldr	r2, .L8+16
  64              		.loc 1 221 0
  65 001c 84F83850 		strb	r5, [r4, #56]
  66              		.loc 1 224 0
  67 0020 0868     		ldr	r0, [r1]
  68 0022 1168     		ldr	r1, [r2]
  69 0024 1A68     		ldr	r2, [r3]
  70 0026 FFF7FEFF 		bl	mcpwm_foc_set_current_offsets
  71              	.LVL2:
  72              		.loc 1 231 0
  73 002a 0126     		movs	r6, #1
  74              		.loc 1 233 0
  75 002c 4FF00054 		mov	r4, #536870912
  76              		.loc 1 234 0
  77 0030 4FF05062 		mov	r2, #218103808
  78              		.loc 1 236 0
  79 0034 0523     		movs	r3, #5
  80              		.loc 1 238 0
  81 0036 6946     		mov	r1, sp
  82 0038 0F48     		ldr	r0, .L8+20
  83              		.loc 1 230 0
  84 003a 0095     		str	r5, [sp]
  85              		.loc 1 232 0
  86 003c 8DF80550 		strb	r5, [sp, #5]
  87              		.loc 1 235 0
  88 0040 0495     		str	r5, [sp, #16]
  89              		.loc 1 231 0
  90 0042 8DF80460 		strb	r6, [sp, #4]
  91              		.loc 1 234 0
  92 0046 CDE90242 		strd	r4, r2, [sp, #8]
  93              		.loc 1 236 0
  94 004a 8DF81430 		strb	r3, [sp, #20]
  95              		.loc 1 238 0
  96 004e FFF7FEFF 		bl	ADC_Init
  97              	.LVL3:
  98              	.L2:
  99              	.LBE10:
 100              	.LBE11:
 101              	.LBE12:
 102              		.loc 1 392 0
 103 0052 0A48     		ldr	r0, .L8+24
 104 0054 FFF7FEFF 		bl	commands_printf
 105              	.LVL4:
 106              		.loc 1 393 0
 107 0058 0948     		ldr	r0, .L8+28
 108 005a FFF7FEFF 		bl	commands_printf
 109              	.LVL5:
 110              		.loc 1 394 0
 111 005e 06B0     		add	sp, sp, #24
 112              		.cfi_def_cfa_offset 16
 113              		@ sp needed
 114 0060 70BD     		pop	{r4, r5, r6, pc}
ARM GAS  /tmp/ccz6CoWy.s 			page 3


 115              	.L9:
 116 0062 00BF     		.align	2
 117              	.L8:
 118 0064 00000000 		.word	.LANCHOR0
 119 0068 00000000 		.word	0
 120 006c 00000000 		.word	.LANCHOR3
 121 0070 00000000 		.word	.LANCHOR1
 122 0074 00000000 		.word	.LANCHOR2
 123 0078 00200140 		.word	1073815552
 124 007c 00000000 		.word	.LC0
 125 0080 1C000000 		.word	.LC1
 126              		.cfi_endproc
 127              	.LFE233:
 128              		.size	terminal_cmd_disconnect_virtual_motor, .-terminal_cmd_disconnect_virtual_motor
 129              		.section	.text.terminal_cmd_connect_virtual_motor,"ax",%progbits
 130              		.align	1
 131              		.p2align 4,,15
 132              		.syntax unified
 133              		.thumb
 134              		.thumb_func
 135              		.fpu fpv4-sp-d16
 136              		.type	terminal_cmd_connect_virtual_motor, %function
 137              	terminal_cmd_connect_virtual_motor:
 138              	.LFB232:
 139              		.loc 1 358 0
 140              		.cfi_startproc
 141              		@ args = 0, pretend = 0, frame = 56
 142              		@ frame_needed = 0, uses_anonymous_args = 0
 143              	.LVL6:
 144 0000 2DE9F04F 		push	{r4, r5, r6, r7, r8, r9, r10, fp, lr}
 145              		.cfi_def_cfa_offset 36
 146              		.cfi_offset 4, -36
 147              		.cfi_offset 5, -32
 148              		.cfi_offset 6, -28
 149              		.cfi_offset 7, -24
 150              		.cfi_offset 8, -20
 151              		.cfi_offset 9, -16
 152              		.cfi_offset 10, -12
 153              		.cfi_offset 11, -8
 154              		.cfi_offset 14, -4
 155 0004 2DED028B 		vpush.64	{d8}
 156              		.cfi_def_cfa_offset 44
 157              		.cfi_offset 80, -44
 158              		.cfi_offset 81, -40
 159              		.loc 1 359 0
 160 0008 0828     		cmp	r0, #8
 161              		.loc 1 358 0
 162 000a 8FB0     		sub	sp, sp, #60
 163              		.cfi_def_cfa_offset 104
 164              		.loc 1 359 0
 165 000c 07D0     		beq	.L15
 166              		.loc 1 380 0
 167 000e 5548     		ldr	r0, .L17
 168              	.LVL7:
 169 0010 FFF7FEFF 		bl	commands_printf
 170              	.LVL8:
 171              		.loc 1 382 0
ARM GAS  /tmp/ccz6CoWy.s 			page 4


 172 0014 0FB0     		add	sp, sp, #60
 173              		.cfi_remember_state
 174              		.cfi_def_cfa_offset 44
 175              		@ sp needed
 176 0016 BDEC028B 		vldm	sp!, {d8}
 177              		.cfi_restore 80
 178              		.cfi_restore 81
 179              		.cfi_def_cfa_offset 36
 180 001a BDE8F08F 		pop	{r4, r5, r6, r7, r8, r9, r10, fp, pc}
 181              	.LVL9:
 182              	.L15:
 183              		.cfi_restore_state
 184 001e 0D46     		mov	r5, r1
 185              	.LVL10:
 186              	.LBB19:
 187              	.LBB20:
 188              		.loc 1 368 0
 189 0020 01AA     		add	r2, sp, #4
 190 0022 5149     		ldr	r1, .L17+4
 191              	.LVL11:
 192 0024 6868     		ldr	r0, [r5, #4]
 193              	.LVL12:
 194              	.LBB21:
 195              	.LBB22:
 196              		.loc 1 156 0
 197 0026 514C     		ldr	r4, .L17+8
 198              	.LBE22:
 199              	.LBE21:
 200              		.loc 1 368 0
 201 0028 FFF7FEFF 		bl	sscanf
 202              	.LVL13:
 203              		.loc 1 369 0
 204 002c 04AA     		add	r2, sp, #16
 205 002e 4E49     		ldr	r1, .L17+4
 206 0030 A868     		ldr	r0, [r5, #8]
 207 0032 FFF7FEFF 		bl	sscanf
 208              	.LVL14:
 209              		.loc 1 370 0
 210 0036 02AA     		add	r2, sp, #8
 211 0038 4B49     		ldr	r1, .L17+4
 212 003a E868     		ldr	r0, [r5, #12]
 213 003c FFF7FEFF 		bl	sscanf
 214              	.LVL15:
 215              		.loc 1 371 0
 216 0040 03AA     		add	r2, sp, #12
 217 0042 4949     		ldr	r1, .L17+4
 218 0044 2869     		ldr	r0, [r5, #16]
 219 0046 FFF7FEFF 		bl	sscanf
 220              	.LVL16:
 221              		.loc 1 372 0
 222 004a 05AA     		add	r2, sp, #20
 223 004c 4649     		ldr	r1, .L17+4
 224 004e 6869     		ldr	r0, [r5, #20]
 225 0050 FFF7FEFF 		bl	sscanf
 226              	.LVL17:
 227              		.loc 1 373 0
 228 0054 06AA     		add	r2, sp, #24
ARM GAS  /tmp/ccz6CoWy.s 			page 5


 229 0056 4449     		ldr	r1, .L17+4
 230 0058 A869     		ldr	r0, [r5, #24]
 231 005a FFF7FEFF 		bl	sscanf
 232              	.LVL18:
 233              		.loc 1 374 0
 234 005e E869     		ldr	r0, [r5, #28]
 235 0060 4149     		ldr	r1, .L17+4
 236 0062 07AA     		add	r2, sp, #28
 237 0064 FFF7FEFF 		bl	sscanf
 238              	.LVL19:
 239              	.LBB28:
 240              	.LBB24:
 241              		.loc 1 156 0
 242 0068 94F83830 		ldrb	r3, [r4, #56]	@ zero_extendqisi2
 243              	.LBE24:
 244              	.LBE28:
 245              		.loc 1 376 0
 246 006c 019E     		ldr	r6, [sp, #4]	@ float
 247 006e DDF810B0 		ldr	fp, [sp, #16]	@ float
 248 0072 DDF808A0 		ldr	r10, [sp, #8]	@ float
 249 0076 DDF80C90 		ldr	r9, [sp, #12]	@ float
 250 007a 059F     		ldr	r7, [sp, #20]	@ float
 251 007c DDF81880 		ldr	r8, [sp, #24]	@ float
 252 0080 9DED078A 		vldr.32	s16, [sp, #28]
 253              	.LVL20:
 254              	.LBB29:
 255              	.LBB25:
 256              		.loc 1 156 0
 257 0084 03F0FF05 		and	r5, r3, #255
 258              	.LVL21:
 259 0088 23B3     		cbz	r3, .L16
 260              	.L12:
 261              		.loc 1 194 0
 262 008a FFF7FEFF 		bl	mcpwm_foc_get_ts
 263              	.LVL22:
 264              		.loc 1 195 0
 265 008e BDEEC88A 		vcvt.s32.f32	s16, s16
 266              	.LVL23:
 267              		.loc 1 194 0
 268 0092 84ED000A 		vstr.32	s0, [r4]
 269              		.loc 1 195 0
 270 0096 84ED068A 		vstr.32	s16, [r4, #24]	@ int
 271              		.loc 1 196 0
 272 009a C4F814B0 		str	fp, [r4, #20]	@ float
 273              		.loc 1 197 0
 274 009e C4F808A0 		str	r10, [r4, #8]	@ float
 275              		.loc 1 198 0
 276 00a2 C4F80C90 		str	r9, [r4, #12]	@ float
 277              		.loc 1 199 0
 278 00a6 C4F81080 		str	r8, [r4, #16]	@ float
 279              		.loc 1 200 0
 280 00aa 6760     		str	r7, [r4, #4]	@ float
 281              		.loc 1 201 0
 282 00ac 2664     		str	r6, [r4, #64]	@ float
 283              		.loc 1 202 0
 284 00ae D4ED006A 		vldr.32	s13, [r4]
 285 00b2 94ED057A 		vldr.32	s14, [r4, #20]
ARM GAS  /tmp/ccz6CoWy.s 			page 6


 286              	.LBE25:
 287              	.LBE29:
 288              		.loc 1 377 0
 289 00b6 2E48     		ldr	r0, .L17+12
 290              	.LBB30:
 291              	.LBB26:
 292              		.loc 1 202 0
 293 00b8 C6EE877A 		vdiv.f32	s15, s13, s14
 294              		.loc 1 204 0
 295 00bc 0123     		movs	r3, #1
 296              		.loc 1 202 0
 297 00be C4ED0F7A 		vstr.32	s15, [r4, #60]
 298              		.loc 1 204 0
 299 00c2 84F83830 		strb	r3, [r4, #56]
 300              	.LVL24:
 301              	.LBE26:
 302              	.LBE30:
 303              		.loc 1 377 0
 304 00c6 FFF7FEFF 		bl	commands_printf
 305              	.LVL25:
 306              	.LBE20:
 307              	.LBE19:
 308              		.loc 1 382 0
 309 00ca 0FB0     		add	sp, sp, #60
 310              		.cfi_remember_state
 311              		.cfi_def_cfa_offset 44
 312              		@ sp needed
 313 00cc BDEC028B 		vldm	sp!, {d8}
 314              		.cfi_restore 80
 315              		.cfi_restore 81
 316              		.cfi_def_cfa_offset 36
 317 00d0 BDE8F08F 		pop	{r4, r5, r6, r7, r8, r9, r10, fp, pc}
 318              	.LVL26:
 319              	.L16:
 320              		.cfi_restore_state
 321              	.LBB33:
 322              	.LBB32:
 323              	.LBB31:
 324              	.LBB27:
 325              	.LBB23:
 326              		.loc 1 158 0
 327 00d4 9FED270A 		vldr.32	s0, .L17+16
 328 00d8 FFF7FEFF 		bl	mcpwm_foc_set_current
 329              	.LVL27:
 330              		.loc 1 168 0
 331 00dc 0523     		movs	r3, #5
 332              		.loc 1 163 0
 333 00de 0122     		movs	r2, #1
 334              		.loc 1 170 0
 335 00e0 08A9     		add	r1, sp, #32
 336 00e2 2548     		ldr	r0, .L17+20
 337              		.loc 1 168 0
 338 00e4 8DF83430 		strb	r3, [sp, #52]
 339              		.loc 1 163 0
 340 00e8 8DF82420 		strb	r2, [sp, #36]
 341              		.loc 1 162 0
 342 00ec 0895     		str	r5, [sp, #32]
ARM GAS  /tmp/ccz6CoWy.s 			page 7


 343              		.loc 1 164 0
 344 00ee 8DF82550 		strb	r5, [sp, #37]
 345              		.loc 1 166 0
 346 00f2 CDE90A55 		strd	r5, r5, [sp, #40]
 347              		.loc 1 167 0
 348 00f6 0C95     		str	r5, [sp, #48]
 349              		.loc 1 170 0
 350 00f8 FFF7FEFF 		bl	ADC_Init
 351              	.LVL28:
 352              		.loc 1 173 0
 353 00fc 1F4A     		ldr	r2, .L17+24
 354 00fe 2049     		ldr	r1, .L17+28
 355 0100 2048     		ldr	r0, .L17+32
 356 0102 FFF7FEFF 		bl	mcpwm_foc_get_current_offsets
 357              	.LVL29:
 358              		.loc 1 177 0
 359 0106 4FF40062 		mov	r2, #2048
 360 010a 1046     		mov	r0, r2
 361 010c 1146     		mov	r1, r2
 362 010e FFF7FEFF 		bl	mcpwm_foc_set_current_offsets
 363              	.LVL30:
 364              		.loc 1 180 0
 365 0112 DFED1D7A 		vldr.32	s15, .L17+36
 366 0116 9FED1D7A 		vldr.32	s14, .L17+40
 367 011a 1D4A     		ldr	r2, .L17+44
 368 011c 68EE277A 		vmul.f32	s15, s16, s15
 369              		.loc 1 181 0
 370 0120 4FF40061 		mov	r1, #2048
 371              		.loc 1 180 0
 372 0124 67EE877A 		vmul.f32	s15, s15, s14
 373 0128 FCEEE77A 		vcvt.u32.f32	s15, s15
 374 012c 17EE903A 		vmov	r3, s15	@ int
 375 0130 9BB2     		uxth	r3, r3
 376 0132 D382     		strh	r3, [r2, #22]	@ movhi
 377              		.loc 1 181 0
 378 0134 1182     		strh	r1, [r2, #16]	@ movhi
 379              		.loc 1 182 0
 380 0136 5182     		strh	r1, [r2, #18]	@ movhi
 381              		.loc 1 188 0
 382 0138 FFF7FEFF 		bl	mcpwm_foc_get_phase
 383              	.LVL31:
 384 013c DFED157A 		vldr.32	s15, .L17+48
 385 0140 9FED157A 		vldr.32	s14, .L17+52
 386 0144 20EE270A 		vmul.f32	s0, s0, s15
 387              		.loc 1 189 0
 388 0148 04F13401 		add	r1, r4, #52
 389              		.loc 1 188 0
 390 014c C0EE077A 		vdiv.f32	s15, s0, s14
 391              		.loc 1 189 0
 392 0150 04F13000 		add	r0, r4, #48
 393              		.loc 1 188 0
 394 0154 C4ED0B7A 		vstr.32	s15, [r4, #44]
 395              		.loc 1 189 0
 396 0158 94ED0B0A 		vldr.32	s0, [r4, #44]
 397 015c FFF7FEFF 		bl	utils_fast_sincos_better
 398              	.LVL32:
 399 0160 93E7     		b	.L12
ARM GAS  /tmp/ccz6CoWy.s 			page 8


 400              	.L18:
 401 0162 00BF     		.align	2
 402              	.L17:
 403 0164 1C000000 		.word	.LC4
 404 0168 00000000 		.word	.LC2
 405 016c 00000000 		.word	.LANCHOR0
 406 0170 04000000 		.word	.LC3
 407 0174 00000000 		.word	0
 408 0178 00200140 		.word	1073815552
 409 017c 00000000 		.word	.LANCHOR3
 410 0180 00000000 		.word	.LANCHOR2
 411 0184 00000000 		.word	.LANCHOR1
 412 0188 5E06A33B 		.word	1000539742
 413 018c CA269B44 		.word	1151018698
 414 0190 00000000 		.word	ADC_Value
 415 0194 DB0F4940 		.word	1078530011
 416 0198 00003443 		.word	1127481344
 417              	.LBE23:
 418              	.LBE27:
 419              	.LBE31:
 420              	.LBE32:
 421              	.LBE33:
 422              		.cfi_endproc
 423              	.LFE232:
 424              		.size	terminal_cmd_connect_virtual_motor, .-terminal_cmd_connect_virtual_motor
 425              		.section	.text.virtual_motor_init,"ax",%progbits
 426              		.align	1
 427              		.p2align 4,,15
 428              		.global	virtual_motor_init
 429              		.syntax unified
 430              		.thumb
 431              		.thumb_func
 432              		.fpu fpv4-sp-d16
 433              		.type	virtual_motor_init, %function
 434              	virtual_motor_init:
 435              	.LFB222:
 436              		.loc 1 85 0
 437              		.cfi_startproc
 438              		@ args = 0, pretend = 0, frame = 0
 439              		@ frame_needed = 0, uses_anonymous_args = 0
 440 0000 70B5     		push	{r4, r5, r6, lr}
 441              		.cfi_def_cfa_offset 16
 442              		.cfi_offset 4, -16
 443              		.cfi_offset 5, -12
 444              		.cfi_offset 6, -8
 445              		.cfi_offset 14, -4
 446              		.loc 1 87 0
 447 0002 104C     		ldr	r4, .L21
 448              		.loc 1 105 0
 449 0004 104B     		ldr	r3, .L21+4
 450 0006 114A     		ldr	r2, .L21+8
 451 0008 1149     		ldr	r1, .L21+12
 452 000a 1248     		ldr	r0, .L21+16
 453              		.loc 1 89 0
 454 000c 0025     		movs	r5, #0
 455              		.loc 1 87 0
 456 000e 0026     		movs	r6, #0
ARM GAS  /tmp/ccz6CoWy.s 			page 9


 457 0010 84F83860 		strb	r6, [r4, #56]
 458              		.loc 1 89 0
 459 0014 6562     		str	r5, [r4, #36]	@ float
 460              		.loc 1 90 0
 461 0016 E564     		str	r5, [r4, #76]	@ float
 462              		.loc 1 91 0
 463 0018 2565     		str	r5, [r4, #80]	@ float
 464              		.loc 1 92 0
 465 001a 6565     		str	r5, [r4, #84]	@ float
 466              		.loc 1 93 0
 467 001c A566     		str	r5, [r4, #104]	@ float
 468              		.loc 1 94 0
 469 001e E566     		str	r5, [r4, #108]	@ float
 470              		.loc 1 95 0
 471 0020 2567     		str	r5, [r4, #112]	@ float
 472              		.loc 1 96 0
 473 0022 A562     		str	r5, [r4, #40]	@ float
 474              		.loc 1 97 0
 475 0024 6564     		str	r5, [r4, #68]	@ float
 476              		.loc 1 98 0
 477 0026 A564     		str	r5, [r4, #72]	@ float
 478              		.loc 1 99 0
 479 0028 2566     		str	r5, [r4, #96]	@ float
 480              		.loc 1 100 0
 481 002a 6566     		str	r5, [r4, #100]	@ float
 482              		.loc 1 101 0
 483 002c E561     		str	r5, [r4, #28]	@ float
 484              		.loc 1 102 0
 485 002e 2562     		str	r5, [r4, #32]	@ float
 486              		.loc 1 105 0
 487 0030 FFF7FEFF 		bl	terminal_register_command_callback
 488              	.LVL33:
 489              		.loc 1 111 0
 490 0034 3246     		mov	r2, r6
 491 0036 084B     		ldr	r3, .L21+20
 492 0038 0849     		ldr	r1, .L21+24
 493 003a 0948     		ldr	r0, .L21+28
 494              		.loc 1 116 0
 495 003c BDE87040 		pop	{r4, r5, r6, lr}
 496              		.cfi_restore 14
 497              		.cfi_restore 6
 498              		.cfi_restore 5
 499              		.cfi_restore 4
 500              		.cfi_def_cfa_offset 0
 501              		.loc 1 111 0
 502 0040 FFF7FEBF 		b	terminal_register_command_callback
 503              	.LVL34:
 504              	.L22:
 505              		.align	2
 506              	.L21:
 507 0044 00000000 		.word	.LANCHOR0
 508 0048 00000000 		.word	terminal_cmd_connect_virtual_motor
 509 004c 00000000 		.word	.LC5
 510 0050 24000000 		.word	.LC6
 511 0054 3C000000 		.word	.LC7
 512 0058 00000000 		.word	terminal_cmd_disconnect_virtual_motor
 513 005c 54000000 		.word	.LC8
ARM GAS  /tmp/ccz6CoWy.s 			page 10


 514 0060 70000000 		.word	.LC9
 515              		.cfi_endproc
 516              	.LFE222:
 517              		.size	virtual_motor_init, .-virtual_motor_init
 518              		.section	.text.virtual_motor_int_handler,"ax",%progbits
 519              		.align	1
 520              		.p2align 4,,15
 521              		.global	virtual_motor_int_handler
 522              		.syntax unified
 523              		.thumb
 524              		.thumb_func
 525              		.fpu fpv4-sp-d16
 526              		.type	virtual_motor_int_handler, %function
 527              	virtual_motor_int_handler:
 528              	.LFB223:
 529              		.loc 1 121 0
 530              		.cfi_startproc
 531              		@ args = 0, pretend = 0, frame = 0
 532              		@ frame_needed = 0, uses_anonymous_args = 0
 533              	.LVL35:
 534 0000 10B5     		push	{r4, lr}
 535              		.cfi_def_cfa_offset 8
 536              		.cfi_offset 4, -8
 537              		.cfi_offset 14, -4
 538              		.loc 1 122 0
 539 0002 CE4C     		ldr	r4, .L40
 540 0004 94F83830 		ldrb	r3, [r4, #56]	@ zero_extendqisi2
 541              		.loc 1 121 0
 542 0008 2DED048B 		vpush.64	{d8, d9}
 543              		.cfi_def_cfa_offset 24
 544              		.cfi_offset 80, -24
 545              		.cfi_offset 81, -20
 546              		.cfi_offset 82, -16
 547              		.cfi_offset 83, -12
 548              		.loc 1 122 0
 549 000c 13B9     		cbnz	r3, .L39
 550              		.loc 1 126 0
 551 000e BDEC048B 		vldm	sp!, {d8-d9}
 552              		.cfi_remember_state
 553              		.cfi_restore 82
 554              		.cfi_restore 83
 555              		.cfi_restore 80
 556              		.cfi_restore 81
 557              		.cfi_def_cfa_offset 8
 558 0012 10BD     		pop	{r4, pc}
 559              	.L39:
 560              		.cfi_restore_state
 561 0014 F0EE408A 		vmov.f32	s17, s0
 562              		.loc 1 123 0
 563 0018 94ED109A 		vldr.32	s18, [r4, #64]
 564              	.LVL36:
 565              	.LBB42:
 566              	.LBB43:
 567              	.LBB44:
 568              		.loc 1 264 0
 569 001c 94ED0B0A 		vldr.32	s0, [r4, #44]
 570              	.LVL37:
ARM GAS  /tmp/ccz6CoWy.s 			page 11


 571 0020 04F13401 		add	r1, r4, #52
 572 0024 04F13000 		add	r0, r4, #48
 573 0028 B0EE608A 		vmov.f32	s16, s1
 574              	.LVL38:
 575 002c FFF7FEFF 		bl	utils_fast_sincos_better
 576              	.LVL39:
 577              		.loc 1 267 0
 578 0030 D4ED0D7A 		vldr.32	s15, [r4, #52]
 579 0034 94ED0C7A 		vldr.32	s14, [r4, #48]
 580 0038 28EE077A 		vmul.f32	s14, s16, s14
 581              	.LBE44:
 582              	.LBE43:
 583              	.LBB47:
 584              	.LBB48:
 585              		.loc 1 292 0
 586 003c F7EE085A 		vmov.f32	s11, #1.5e+0
 587              	.LBE48:
 588              	.LBE47:
 589              	.LBB51:
 590              	.LBB45:
 591              		.loc 1 267 0
 592 0040 A8EEA77A 		vfma.f32	s14, s17, s15
 593              	.LBE45:
 594              	.LBE51:
 595              	.LBB52:
 596              	.LBB49:
 597              		.loc 1 299 0
 598 0044 0023     		movs	r3, #0
 599              	.LBE49:
 600              	.LBE52:
 601              	.LBB53:
 602              	.LBB46:
 603              		.loc 1 267 0
 604 0046 84ED167A 		vstr.32	s14, [r4, #88]
 605              		.loc 1 268 0
 606 004a D4ED0D7A 		vldr.32	s15, [r4, #52]
 607 004e 94ED0C0A 		vldr.32	s0, [r4, #48]
 608 0052 20EE680A 		vnmul.f32	s0, s0, s17
 609 0056 A8EE270A 		vfma.f32	s0, s16, s15
 610 005a 84ED170A 		vstr.32	s0, [r4, #92]
 611              		.loc 1 271 0
 612 005e 94ED167A 		vldr.32	s14, [r4, #88]
 613              		.loc 1 272 0
 614 0062 94ED0A6A 		vldr.32	s12, [r4, #40]
 615 0066 94ED033A 		vldr.32	s6, [r4, #12]
 616 006a D4ED083A 		vldr.32	s7, [r4, #32]
 617              		.loc 1 273 0
 618 006e 94ED014A 		vldr.32	s8, [r4, #4]
 619 0072 D4ED074A 		vldr.32	s9, [r4, #28]
 620              		.loc 1 274 0
 621 0076 D4ED006A 		vldr.32	s13, [r4]
 622 007a 94ED025A 		vldr.32	s10, [r4, #8]
 623              		.loc 1 271 0
 624 007e D4ED077A 		vldr.32	s15, [r4, #28]
 625              		.loc 1 272 0
 626 0082 26EE036A 		vmul.f32	s12, s12, s6
 627              		.loc 1 271 0
ARM GAS  /tmp/ccz6CoWy.s 			page 12


 628 0086 A6EE237A 		vfma.f32	s14, s12, s7
 629              		.loc 1 272 0
 630 008a A4EE647A 		vfms.f32	s14, s8, s9
 631              		.loc 1 274 0
 632 008e 27EE267A 		vmul.f32	s14, s14, s13
 633 0092 C7EE056A 		vdiv.f32	s13, s14, s10
 634              		.loc 1 271 0
 635 0096 76EEA76A 		vadd.f32	s13, s13, s15
 636 009a C4ED076A 		vstr.32	s13, [r4, #28]
 637              		.loc 1 276 0
 638 009e 94ED177A 		vldr.32	s14, [r4, #92]
 639              		.loc 1 277 0
 640 00a2 94ED0A2A 		vldr.32	s4, [r4, #40]
 641 00a6 94ED026A 		vldr.32	s12, [r4, #8]
 642 00aa D4ED072A 		vldr.32	s5, [r4, #28]
 643              		.loc 1 278 0
 644 00ae 94ED013A 		vldr.32	s6, [r4, #4]
 645 00b2 D4ED083A 		vldr.32	s7, [r4, #32]
 646              		.loc 1 279 0
 647 00b6 94ED0A4A 		vldr.32	s8, [r4, #40]
 648 00ba D4ED044A 		vldr.32	s9, [r4, #16]
 649              		.loc 1 280 0
 650 00be D4ED006A 		vldr.32	s13, [r4]
 651 00c2 94ED035A 		vldr.32	s10, [r4, #12]
 652              		.loc 1 276 0
 653 00c6 D4ED087A 		vldr.32	s15, [r4, #32]
 654 00ca 26EE426A 		vnmul.f32	s12, s12, s4
 655 00ce A6EE227A 		vfma.f32	s14, s12, s5
 656              		.loc 1 277 0
 657 00d2 A3EE637A 		vfms.f32	s14, s6, s7
 658              		.loc 1 278 0
 659 00d6 A4EE647A 		vfms.f32	s14, s8, s9
 660              		.loc 1 280 0
 661 00da 27EE267A 		vmul.f32	s14, s14, s13
 662 00de C7EE056A 		vdiv.f32	s13, s14, s10
 663              		.loc 1 276 0
 664 00e2 76EEA76A 		vadd.f32	s13, s13, s15
 665 00e6 C4ED086A 		vstr.32	s13, [r4, #32]
 666              	.LVL40:
 667              	.LBE46:
 668              	.LBE53:
 669              	.LBB54:
 670              	.LBB50:
 671              		.loc 1 292 0
 672 00ea D4ED046A 		vldr.32	s13, [r4, #16]
 673 00ee 94ED087A 		vldr.32	s14, [r4, #32]
 674              		.loc 1 293 0
 675 00f2 D4ED037A 		vldr.32	s15, [r4, #12]
 676 00f6 D4ED024A 		vldr.32	s9, [r4, #8]
 677              		.loc 1 294 0
 678 00fa 94ED075A 		vldr.32	s10, [r4, #28]
 679 00fe 94ED086A 		vldr.32	s12, [r4, #32]
 680              		.loc 1 293 0
 681 0102 77EEE47A 		vsub.f32	s15, s15, s9
 682 0106 67EE857A 		vmul.f32	s15, s15, s10
 683              		.loc 1 294 0
 684 010a 67EE867A 		vmul.f32	s15, s15, s12
ARM GAS  /tmp/ccz6CoWy.s 			page 13


 685              		.loc 1 292 0
 686 010e E6EE877A 		vfma.f32	s15, s13, s14
 687 0112 67EEA57A 		vmul.f32	s15, s15, s11
 688 0116 C4ED097A 		vstr.32	s15, [r4, #36]
 689              		.loc 1 297 0
 690 011a D4ED0A7A 		vldr.32	s15, [r4, #40]
 691 011e D4ED0F6A 		vldr.32	s13, [r4, #60]
 692 0122 94ED097A 		vldr.32	s14, [r4, #36]
 693 0126 37EE497A 		vsub.f32	s14, s14, s18
 694 012a E6EE877A 		vfma.f32	s15, s13, s14
 695              	.LVL41:
 696              		.loc 1 309 0
 697 012e 9FED847A 		vldr.32	s14, .L40+4
 698              		.loc 1 299 0
 699 0132 F5EEC07A 		vcmpe.f32	s15, #0
 700 0136 F1EE10FA 		vmrs	APSR_nzcv, FPSCR
 701              		.loc 1 300 0
 702 013a 4CBF     		ite	mi
 703 013c A362     		strmi	r3, [r4, #40]	@ float
 704              		.loc 1 302 0
 705 013e C4ED0A7A 		vstrpl.32	s15, [r4, #40]
 706              		.loc 1 306 0
 707 0142 94ED0A6A 		vldr.32	s12, [r4, #40]
 708 0146 D4ED006A 		vldr.32	s13, [r4]
 709 014a D4ED0B7A 		vldr.32	s15, [r4, #44]
 710              	.LVL42:
 711 014e E6EE267A 		vfma.f32	s15, s12, s13
 712 0152 C4ED0B7A 		vstr.32	s15, [r4, #44]
 713              		.loc 1 309 0
 714 0156 D4ED0B7A 		vldr.32	s15, [r4, #44]
 715 015a F4EEC77A 		vcmpe.f32	s15, s14
 716 015e F1EE10FA 		vmrs	APSR_nzcv, FPSCR
 717 0162 0EDD     		ble	.L28
 718              		.loc 1 310 0
 719 0164 DFED776A 		vldr.32	s13, .L40+8
 720              	.L30:
 721 0168 D4ED0B7A 		vldr.32	s15, [r4, #44]
 722 016c 77EEE67A 		vsub.f32	s15, s15, s13
 723 0170 C4ED0B7A 		vstr.32	s15, [r4, #44]
 724              		.loc 1 309 0
 725 0174 D4ED0B7A 		vldr.32	s15, [r4, #44]
 726 0178 F4EEC77A 		vcmpe.f32	s15, s14
 727 017c F1EE10FA 		vmrs	APSR_nzcv, FPSCR
 728 0180 F2DC     		bgt	.L30
 729              	.L28:
 730              		.loc 1 313 0
 731 0182 D4ED0B7A 		vldr.32	s15, [r4, #44]
 732 0186 9FED707A 		vldr.32	s14, .L40+12
 733 018a F4EEC77A 		vcmpe.f32	s15, s14
 734 018e F1EE10FA 		vmrs	APSR_nzcv, FPSCR
 735 0192 0ED5     		bpl	.L31
 736              		.loc 1 314 0
 737 0194 DFED6B6A 		vldr.32	s13, .L40+8
 738              	.L33:
 739 0198 D4ED0B7A 		vldr.32	s15, [r4, #44]
 740 019c 77EEA67A 		vadd.f32	s15, s15, s13
 741 01a0 C4ED0B7A 		vstr.32	s15, [r4, #44]
ARM GAS  /tmp/ccz6CoWy.s 			page 14


 742              		.loc 1 313 0
 743 01a4 D4ED0B7A 		vldr.32	s15, [r4, #44]
 744 01a8 F4EEC77A 		vcmpe.f32	s15, s14
 745 01ac F1EE10FA 		vmrs	APSR_nzcv, FPSCR
 746 01b0 F2D4     		bmi	.L33
 747              	.L31:
 748              	.LVL43:
 749              	.LBE50:
 750              	.LBE54:
 751              	.LBB55:
 752              	.LBB56:
 753              		.loc 1 324 0
 754 01b2 D4ED0D3A 		vldr.32	s7, [r4, #52]
 755 01b6 94ED074A 		vldr.32	s8, [r4, #28]
 756              		.loc 1 325 0
 757 01ba D4ED0C4A 		vldr.32	s9, [r4, #48]
 758 01be D4ED086A 		vldr.32	s13, [r4, #32]
 759              		.loc 1 336 0
 760 01c2 9FED627A 		vldr.32	s14, .L40+16
 761              		.loc 1 344 0
 762 01c6 9FED625A 		vldr.32	s10, .L40+20
 763 01ca DFED627A 		vldr.32	s15, .L40+24
 764 01ce 624A     		ldr	r2, .L40+28
 765              		.loc 1 350 0
 766 01d0 DFED625A 		vldr.32	s11, .L40+32
 767 01d4 9FED626A 		vldr.32	s12, .L40+36
 768              		.loc 1 324 0
 769 01d8 66EEE46A 		vnmul.f32	s13, s13, s9
 770              		.loc 1 336 0
 771 01dc FEEE004A 		vmov.f32	s9, #-5.0e-1
 772              		.loc 1 324 0
 773 01e0 E3EE846A 		vfma.f32	s13, s7, s8
 774              	.LBE56:
 775              	.LBE55:
 776              	.LBE42:
 777              		.loc 1 124 0
 778 01e4 0021     		movs	r1, #0
 779 01e6 0846     		mov	r0, r1
 780              	.LBB63:
 781              	.LBB60:
 782              	.LBB57:
 783              		.loc 1 324 0
 784 01e8 C4ED186A 		vstr.32	s13, [r4, #96]
 785              		.loc 1 326 0
 786 01ec D4ED0D3A 		vldr.32	s7, [r4, #52]
 787 01f0 94ED084A 		vldr.32	s8, [r4, #32]
 788              		.loc 1 327 0
 789 01f4 D4ED0C6A 		vldr.32	s13, [r4, #48]
 790 01f8 94ED073A 		vldr.32	s6, [r4, #28]
 791 01fc 66EE836A 		vmul.f32	s13, s13, s6
 792              		.loc 1 326 0
 793 0200 E3EE846A 		vfma.f32	s13, s7, s8
 794 0204 C4ED196A 		vstr.32	s13, [r4, #100]
 795              		.loc 1 329 0
 796 0208 D4ED0D3A 		vldr.32	s7, [r4, #52]
 797 020c 94ED164A 		vldr.32	s8, [r4, #88]
 798              		.loc 1 330 0
ARM GAS  /tmp/ccz6CoWy.s 			page 15


 799 0210 94ED0C3A 		vldr.32	s6, [r4, #48]
 800 0214 D4ED176A 		vldr.32	s13, [r4, #92]
 801              		.loc 1 329 0
 802 0218 66EEC36A 		vnmul.f32	s13, s13, s6
 803 021c E3EE846A 		vfma.f32	s13, s7, s8
 804 0220 C4ED116A 		vstr.32	s13, [r4, #68]
 805              		.loc 1 331 0
 806 0224 D4ED0D3A 		vldr.32	s7, [r4, #52]
 807 0228 94ED174A 		vldr.32	s8, [r4, #92]
 808              		.loc 1 332 0
 809 022c D4ED0C6A 		vldr.32	s13, [r4, #48]
 810 0230 94ED163A 		vldr.32	s6, [r4, #88]
 811 0234 66EE836A 		vmul.f32	s13, s13, s6
 812              		.loc 1 331 0
 813 0238 E3EE846A 		vfma.f32	s13, s7, s8
 814 023c C4ED126A 		vstr.32	s13, [r4, #72]
 815              		.loc 1 335 0
 816 0240 236E     		ldr	r3, [r4, #96]	@ float
 817 0242 A366     		str	r3, [r4, #104]	@ float
 818              		.loc 1 336 0
 819 0244 94ED184A 		vldr.32	s8, [r4, #96]
 820 0248 D4ED196A 		vldr.32	s13, [r4, #100]
 821 024c 66EE876A 		vmul.f32	s13, s13, s14
 822 0250 E4EE246A 		vfma.f32	s13, s8, s9
 823 0254 C4ED1B6A 		vstr.32	s13, [r4, #108]
 824              		.loc 1 337 0
 825 0258 94ED184A 		vldr.32	s8, [r4, #96]
 826 025c D4ED196A 		vldr.32	s13, [r4, #100]
 827 0260 67EE666A 		vnmul.f32	s13, s14, s13
 828 0264 E4EE246A 		vfma.f32	s13, s8, s9
 829 0268 C4ED1C6A 		vstr.32	s13, [r4, #112]
 830              		.loc 1 339 0
 831 026c 636C     		ldr	r3, [r4, #68]	@ float
 832 026e E364     		str	r3, [r4, #76]	@ float
 833              		.loc 1 340 0
 834 0270 94ED114A 		vldr.32	s8, [r4, #68]
 835 0274 D4ED126A 		vldr.32	s13, [r4, #72]
 836 0278 66EE876A 		vmul.f32	s13, s13, s14
 837 027c E4EE246A 		vfma.f32	s13, s8, s9
 838 0280 C4ED146A 		vstr.32	s13, [r4, #80]
 839              		.loc 1 341 0
 840 0284 D4ED116A 		vldr.32	s13, [r4, #68]
 841 0288 94ED124A 		vldr.32	s8, [r4, #72]
 842 028c 27EE447A 		vnmul.f32	s14, s14, s8
 843              	.LBE57:
 844              	.LBE60:
 845              	.LBE63:
 846              		.loc 1 126 0
 847 0290 BDEC048B 		vldm	sp!, {d8-d9}
 848              		.cfi_restore 82
 849              		.cfi_restore 83
 850              		.cfi_restore 80
 851              		.cfi_restore 81
 852              		.cfi_def_cfa_offset 8
 853              	.LVL44:
 854              	.LBB64:
 855              	.LBB61:
ARM GAS  /tmp/ccz6CoWy.s 			page 16


 856              	.LBB58:
 857              		.loc 1 341 0
 858 0294 A6EEA47A 		vfma.f32	s14, s13, s9
 859 0298 84ED157A 		vstr.32	s14, [r4, #84]
 860              		.loc 1 344 0
 861 029c D4ED1A6A 		vldr.32	s13, [r4, #104]
 862 02a0 86EE857A 		vdiv.f32	s14, s13, s10
 863 02a4 37EE277A 		vadd.f32	s14, s14, s15
 864 02a8 BCEEC77A 		vcvt.u32.f32	s14, s14
 865 02ac 17EE103A 		vmov	r3, s14	@ int
 866 02b0 9BB2     		uxth	r3, r3
 867 02b2 D380     		strh	r3, [r2, #6]	@ movhi
 868              		.loc 1 345 0
 869 02b4 D4ED1B6A 		vldr.32	s13, [r4, #108]
 870 02b8 86EE857A 		vdiv.f32	s14, s13, s10
 871 02bc 37EE277A 		vadd.f32	s14, s14, s15
 872 02c0 BCEEC77A 		vcvt.u32.f32	s14, s14
 873 02c4 17EE103A 		vmov	r3, s14	@ int
 874 02c8 9BB2     		uxth	r3, r3
 875 02ca 1381     		strh	r3, [r2, #8]	@ movhi
 876              		.loc 1 347 0
 877 02cc D4ED1C6A 		vldr.32	s13, [r4, #112]
 878 02d0 86EE857A 		vdiv.f32	s14, s13, s10
 879              		.loc 1 350 0
 880 02d4 F0EE676A 		vmov.f32	s13, s15
 881              		.loc 1 347 0
 882 02d8 37EE277A 		vadd.f32	s14, s14, s15
 883 02dc BCEEC77A 		vcvt.u32.f32	s14, s14
 884 02e0 17EE103A 		vmov	r3, s14	@ int
 885 02e4 9BB2     		uxth	r3, r3
 886 02e6 5381     		strh	r3, [r2, #10]	@ movhi
 887              		.loc 1 350 0
 888 02e8 94ED137A 		vldr.32	s14, [r4, #76]
 889 02ec 27EE257A 		vmul.f32	s14, s14, s11
 890 02f0 E7EE066A 		vfma.f32	s13, s14, s12
 891 02f4 BCEEE67A 		vcvt.u32.f32	s14, s13
 892              		.loc 1 351 0
 893 02f8 F0EE676A 		vmov.f32	s13, s15
 894              		.loc 1 350 0
 895 02fc 17EE103A 		vmov	r3, s14	@ int
 896 0300 9BB2     		uxth	r3, r3
 897 0302 1380     		strh	r3, [r2]	@ movhi
 898              		.loc 1 351 0
 899 0304 94ED147A 		vldr.32	s14, [r4, #80]
 900 0308 27EE257A 		vmul.f32	s14, s14, s11
 901 030c E7EE066A 		vfma.f32	s13, s14, s12
 902 0310 BCEEE67A 		vcvt.u32.f32	s14, s13
 903 0314 17EE103A 		vmov	r3, s14	@ int
 904 0318 9BB2     		uxth	r3, r3
 905 031a 5380     		strh	r3, [r2, #2]	@ movhi
 906              		.loc 1 352 0
 907 031c 94ED157A 		vldr.32	s14, [r4, #84]
 908 0320 67EE255A 		vmul.f32	s11, s14, s11
 909              	.LBE58:
 910              	.LBE61:
 911              	.LBE64:
 912              		.loc 1 126 0
ARM GAS  /tmp/ccz6CoWy.s 			page 17


 913 0324 BDE81040 		pop	{r4, lr}
 914              		.cfi_restore 14
 915              		.cfi_restore 4
 916              		.cfi_def_cfa_offset 0
 917              	.LBB65:
 918              	.LBB62:
 919              	.LBB59:
 920              		.loc 1 352 0
 921 0328 E5EE867A 		vfma.f32	s15, s11, s12
 922 032c FCEEE77A 		vcvt.u32.f32	s15, s15
 923 0330 17EE903A 		vmov	r3, s15	@ int
 924 0334 9BB2     		uxth	r3, r3
 925 0336 9380     		strh	r3, [r2, #4]	@ movhi
 926              	.LVL45:
 927              	.LBE59:
 928              	.LBE62:
 929              	.LBE65:
 930              		.loc 1 124 0
 931 0338 FFF7FEBF 		b	mcpwm_foc_adc_int_handler
 932              	.LVL46:
 933              	.L41:
 934              		.align	2
 935              	.L40:
 936 033c 00000000 		.word	.LANCHOR0
 937 0340 DB0F4940 		.word	1078530011
 938 0344 DB0FC940 		.word	1086918619
 939 0348 DB0F49C0 		.word	3226013659
 940 034c D7B35D3F 		.word	1063105495
 941 0350 E64CCE3E 		.word	1053707494
 942 0354 00000045 		.word	1157627904
 943 0358 00000000 		.word	ADC_Value
 944 035c 5E06A33B 		.word	1000539742
 945 0360 CA269B44 		.word	1151018698
 946              		.cfi_endproc
 947              	.LFE223:
 948              		.size	virtual_motor_int_handler, .-virtual_motor_int_handler
 949              		.section	.text.virtual_motor_is_connected,"ax",%progbits
 950              		.align	1
 951              		.p2align 4,,15
 952              		.global	virtual_motor_is_connected
 953              		.syntax unified
 954              		.thumb
 955              		.thumb_func
 956              		.fpu fpv4-sp-d16
 957              		.type	virtual_motor_is_connected, %function
 958              	virtual_motor_is_connected:
 959              	.LFB224:
 960              		.loc 1 128 0
 961              		.cfi_startproc
 962              		@ args = 0, pretend = 0, frame = 0
 963              		@ frame_needed = 0, uses_anonymous_args = 0
 964              		@ link register save eliminated.
 965              		.loc 1 129 0
 966 0000 014B     		ldr	r3, .L43
 967 0002 93F83800 		ldrb	r0, [r3, #56]	@ zero_extendqisi2
 968              		.loc 1 130 0
 969 0006 7047     		bx	lr
ARM GAS  /tmp/ccz6CoWy.s 			page 18


 970              	.L44:
 971              		.align	2
 972              	.L43:
 973 0008 00000000 		.word	.LANCHOR0
 974              		.cfi_endproc
 975              	.LFE224:
 976              		.size	virtual_motor_is_connected, .-virtual_motor_is_connected
 977              		.section	.text.virtual_motor_get_angle_deg,"ax",%progbits
 978              		.align	1
 979              		.p2align 4,,15
 980              		.global	virtual_motor_get_angle_deg
 981              		.syntax unified
 982              		.thumb
 983              		.thumb_func
 984              		.fpu fpv4-sp-d16
 985              		.type	virtual_motor_get_angle_deg, %function
 986              	virtual_motor_get_angle_deg:
 987              	.LFB225:
 988              		.loc 1 132 0
 989              		.cfi_startproc
 990              		@ args = 0, pretend = 0, frame = 0
 991              		@ frame_needed = 0, uses_anonymous_args = 0
 992              		@ link register save eliminated.
 993              		.loc 1 133 0
 994 0000 054B     		ldr	r3, .L46
 995 0002 9FED067A 		vldr.32	s14, .L46+4
 996 0006 D3ED0B7A 		vldr.32	s15, [r3, #44]
 997 000a 9FED050A 		vldr.32	s0, .L46+8
 998 000e 67EE877A 		vmul.f32	s15, s15, s14
 999              		.loc 1 134 0
 1000 0012 87EE800A 		vdiv.f32	s0, s15, s0
 1001 0016 7047     		bx	lr
 1002              	.L47:
 1003              		.align	2
 1004              	.L46:
 1005 0018 00000000 		.word	.LANCHOR0
 1006 001c 00003443 		.word	1127481344
 1007 0020 DB0F4940 		.word	1078530011
 1008              		.cfi_endproc
 1009              	.LFE225:
 1010              		.size	virtual_motor_get_angle_deg, .-virtual_motor_get_angle_deg
 1011              		.section	.bss.m_curr0_offset_backup,"aw",%nobits
 1012              		.align	2
 1013              		.set	.LANCHOR1,. + 0
 1014              		.type	m_curr0_offset_backup, %object
 1015              		.size	m_curr0_offset_backup, 4
 1016              	m_curr0_offset_backup:
 1017 0000 00000000 		.space	4
 1018              		.section	.bss.m_curr1_offset_backup,"aw",%nobits
 1019              		.align	2
 1020              		.set	.LANCHOR2,. + 0
 1021              		.type	m_curr1_offset_backup, %object
 1022              		.size	m_curr1_offset_backup, 4
 1023              	m_curr1_offset_backup:
 1024 0000 00000000 		.space	4
 1025              		.section	.bss.m_curr2_offset_backup,"aw",%nobits
 1026              		.align	2
ARM GAS  /tmp/ccz6CoWy.s 			page 19


 1027              		.set	.LANCHOR3,. + 0
 1028              		.type	m_curr2_offset_backup, %object
 1029              		.size	m_curr2_offset_backup, 4
 1030              	m_curr2_offset_backup:
 1031 0000 00000000 		.space	4
 1032              		.section	.bss.virtual_motor,"aw",%nobits
 1033              		.align	2
 1034              		.set	.LANCHOR0,. + 0
 1035              		.type	virtual_motor, %object
 1036              		.size	virtual_motor, 116
 1037              	virtual_motor:
 1038 0000 00000000 		.space	116
 1038      00000000 
 1038      00000000 
 1038      00000000 
 1038      00000000 
 1039              		.section	.rodata.terminal_cmd_connect_virtual_motor.str1.4,"aMS",%progbits,1
 1040              		.align	2
 1041              	.LC2:
 1042 0000 256600   		.ascii	"%f\000"
 1043 0003 00       		.space	1
 1044              	.LC3:
 1045 0004 76697274 		.ascii	"virtual motor connected\000"
 1045      75616C20 
 1045      6D6F746F 
 1045      7220636F 
 1045      6E6E6563 
 1046              	.LC4:
 1047 001c 61726775 		.ascii	"arguments should be 7\000"
 1047      6D656E74 
 1047      73207368 
 1047      6F756C64 
 1047      20626520 
 1048              		.section	.rodata.terminal_cmd_disconnect_virtual_motor.str1.4,"aMS",%progbits,1
 1049              		.align	2
 1050              	.LC0:
 1051 0000 76697274 		.ascii	"virtual motor disconnected\000"
 1051      75616C20 
 1051      6D6F746F 
 1051      72206469 
 1051      73636F6E 
 1052 001b 00       		.space	1
 1053              	.LC1:
 1054 001c 2000     		.ascii	" \000"
 1055              		.section	.rodata.virtual_motor_init.str1.4,"aMS",%progbits,1
 1056              		.align	2
 1057              	.LC5:
 1058 0000 5B6D6C5D 		.ascii	"[ml][J][Ld][Lq][Rs][lambda][Vbus]\000"
 1058      5B4A5D5B 
 1058      4C645D5B 
 1058      4C715D5B 
 1058      52735D5B 
 1059 0022 0000     		.space	2
 1060              	.LC6:
 1061 0024 636F6E6E 		.ascii	"connects virtual motor\000"
 1061      65637473 
 1061      20766972 
ARM GAS  /tmp/ccz6CoWy.s 			page 20


 1061      7475616C 
 1061      206D6F74 
 1062 003b 00       		.space	1
 1063              	.LC7:
 1064 003c 636F6E6E 		.ascii	"connect_virtual_motor\000"
 1064      6563745F 
 1064      76697274 
 1064      75616C5F 
 1064      6D6F746F 
 1065 0052 0000     		.space	2
 1066              	.LC8:
 1067 0054 64697363 		.ascii	"disconnect virtual motor\000"
 1067      6F6E6E65 
 1067      63742076 
 1067      69727475 
 1067      616C206D 
 1068 006d 000000   		.space	3
 1069              	.LC9:
 1070 0070 64697363 		.ascii	"disconnect_virtual_motor\000"
 1070      6F6E6E65 
 1070      63745F76 
 1070      69727475 
 1070      616C5F6D 
 1071              		.text
 1072              	.Letext0:
 1073              		.file 2 "/usr/arm-none-eabi/include/machine/_default_types.h"
 1074              		.file 3 "/usr/arm-none-eabi/include/sys/_stdint.h"
 1075              		.file 4 "/usr/lib/gcc/arm-none-eabi/7.3.1/include/stddef.h"
 1076              		.file 5 "ChibiOS_3.0.2/os/rt/ports/ARMCMx/compilers/GCC/chtypes.h"
 1077              		.file 6 "ChibiOS_3.0.2/os/rt/include/chsystypes.h"
 1078              		.file 7 "ChibiOS_3.0.2/os/rt/include/chschd.h"
 1079              		.file 8 "ChibiOS_3.0.2/os/ext/CMSIS/include/core_cm4.h"
 1080              		.file 9 "ChibiOS_3.0.2/os/ext/CMSIS/ST/system_stm32f4xx.h"
 1081              		.file 10 "ChibiOS_3.0.2/os/ext/CMSIS/ST/stm32f407xx.h"
 1082              		.file 11 "ChibiOS_3.0.2/os/ext/CMSIS/ST/stm32f4xx.h"
 1083              		.file 12 "ChibiOS_3.0.2/os/rt/ports/ARMCMx/chcore.h"
 1084              		.file 13 "ChibiOS_3.0.2/os/rt/ports/ARMCMx/chcore_v7m.h"
 1085              		.file 14 "ChibiOS_3.0.2/os/rt/include/chtm.h"
 1086              		.file 15 "ChibiOS_3.0.2/os/rt/include/chsem.h"
 1087              		.file 16 "ChibiOS_3.0.2/os/rt/include/chmtx.h"
 1088              		.file 17 "ChibiOS_3.0.2/os/rt/include/chregistry.h"
 1089              		.file 18 "conf_general.h"
 1090              		.file 19 "ChibiOS_3.0.2/ext/stdperiph_stm32f4/inc/stm32f4xx_adc.h"
 1091              		.file 20 "mc_interface.h"
 1092              		.file 21 "/usr/arm-none-eabi/include/sys/lock.h"
 1093              		.file 22 "/usr/arm-none-eabi/include/sys/_types.h"
 1094              		.file 23 "/usr/arm-none-eabi/include/sys/reent.h"
 1095              		.file 24 "/usr/arm-none-eabi/include/math.h"
 1096              		.file 25 "mcpwm_foc.h"
 1097              		.file 26 "commands.h"
 1098              		.file 27 "utils.h"
 1099              		.file 28 "terminal.h"
 1100              		.file 29 "/usr/arm-none-eabi/include/stdio.h"