ARM GAS  /tmp/cc8Y5deU.s 			page 1


   1              		.cpu cortex-m4
   2              		.eabi_attribute 27, 1
   3              		.eabi_attribute 28, 1
   4              		.eabi_attribute 20, 1
   5              		.eabi_attribute 21, 1
   6              		.eabi_attribute 23, 3
   7              		.eabi_attribute 24, 1
   8              		.eabi_attribute 25, 1
   9              		.eabi_attribute 26, 1
  10              		.eabi_attribute 30, 2
  11              		.eabi_attribute 34, 1
  12              		.eabi_attribute 18, 4
  13              		.file	"ws2811.c"
  14              		.text
  15              	.Ltext0:
  16              		.cfi_sections	.debug_frame
  17              		.section	.text.rgb_to_local,"ax",%progbits
  18              		.align	1
  19              		.p2align 4,,15
  20              		.syntax unified
  21              		.thumb
  22              		.thumb_func
  23              		.fpu fpv4-sp-d16
  24              		.type	rgb_to_local, %function
  25              	rgb_to_local:
  26              	.LFB263:
  27              		.file 1 "ws2811.c"
  28              		.loc 1 239 0
  29              		.cfi_startproc
  30              		@ args = 0, pretend = 0, frame = 0
  31              		@ frame_needed = 0, uses_anonymous_args = 0
  32              		@ link register save eliminated.
  33              	.LVL0:
  34              		.loc 1 244 0
  35 0000 104B     		ldr	r3, .L4
  36 0002 1B68     		ldr	r3, [r3]
  37              		.loc 1 239 0
  38 0004 30B4     		push	{r4, r5}
  39              		.cfi_def_cfa_offset 8
  40              		.cfi_offset 4, -8
  41              		.cfi_offset 5, -4
  42              		.loc 1 240 0
  43 0006 C0F30741 		ubfx	r1, r0, #16, #8
  44              		.loc 1 244 0
  45 000a 0F4D     		ldr	r5, .L4+4
  46              		.loc 1 248 0
  47 000c 0F4C     		ldr	r4, .L4+8
  48              	.LVL1:
  49              		.loc 1 244 0
  50 000e 03FB01F1 		mul	r1, r3, r1
  51              	.LVL2:
  52              		.loc 1 241 0
  53 0012 C0F30722 		ubfx	r2, r0, #8, #8
  54              		.loc 1 244 0
  55 0016 A5FB01C1 		umull	ip, r1, r5, r1
  56              	.LVL3:
  57              		.loc 1 242 0
ARM GAS  /tmp/cc8Y5deU.s 			page 2


  58 001a C0B2     		uxtb	r0, r0
  59              	.LVL4:
  60              		.loc 1 245 0
  61 001c 03FB02F2 		mul	r2, r3, r2
  62              	.LVL5:
  63              		.loc 1 244 0
  64 0020 4909     		lsrs	r1, r1, #5
  65              		.loc 1 245 0
  66 0022 A5FB02C2 		umull	ip, r2, r5, r2
  67              	.LVL6:
  68              		.loc 1 246 0
  69 0026 03FB00F3 		mul	r3, r3, r0
  70              	.LVL7:
  71 002a A5FB0303 		umull	r0, r3, r5, r3
  72              	.LVL8:
  73              		.loc 1 245 0
  74 002e 5209     		lsrs	r2, r2, #5
  75              		.loc 1 248 0
  76 0030 605C     		ldrb	r0, [r4, r1]	@ zero_extendqisi2
  77              	.LVL9:
  78              		.loc 1 249 0
  79 0032 A15C     		ldrb	r1, [r4, r2]	@ zero_extendqisi2
  80              	.LVL10:
  81              		.loc 1 246 0
  82 0034 5B09     		lsrs	r3, r3, #5
  83              		.loc 1 252 0
  84 0036 0202     		lsls	r2, r0, #8
  85              		.loc 1 250 0
  86 0038 E05C     		ldrb	r0, [r4, r3]	@ zero_extendqisi2
  87              	.LVL11:
  88              		.loc 1 252 0
  89 003a 42EA0142 		orr	r2, r2, r1, lsl #16
  90              		.loc 1 253 0
  91 003e 1043     		orrs	r0, r0, r2
  92              	.LVL12:
  93 0040 30BC     		pop	{r4, r5}
  94              		.cfi_restore 5
  95              		.cfi_restore 4
  96              		.cfi_def_cfa_offset 0
  97              	.LVL13:
  98 0042 7047     		bx	lr
  99              	.L5:
 100              		.align	2
 101              	.L4:
 102 0044 00000000 		.word	.LANCHOR0
 103 0048 1F85EB51 		.word	1374389535
 104 004c 00000000 		.word	.LANCHOR1
 105              		.cfi_endproc
 106              	.LFE263:
 107              		.size	rgb_to_local, .-rgb_to_local
 108              		.section	.text.ws2811_set_led_color.part.0,"ax",%progbits
 109              		.align	1
 110              		.p2align 4,,15
 111              		.syntax unified
 112              		.thumb
 113              		.thumb_func
 114              		.fpu fpv4-sp-d16
ARM GAS  /tmp/cc8Y5deU.s 			page 3


 115              		.type	ws2811_set_led_color.part.0, %function
 116              	ws2811_set_led_color.part.0:
 117              	.LFB264:
 118              		.loc 1 170 0
 119              		.cfi_startproc
 120              		@ args = 0, pretend = 0, frame = 0
 121              		@ frame_needed = 0, uses_anonymous_args = 0
 122              	.LVL14:
 123 0000 10B5     		push	{r4, lr}
 124              		.cfi_def_cfa_offset 8
 125              		.cfi_offset 4, -8
 126              		.cfi_offset 14, -4
 127              	.LBB9:
 128              		.loc 1 172 0
 129 0002 0E4B     		ldr	r3, .L12
 130              	.LBE9:
 131              		.loc 1 170 0
 132 0004 0446     		mov	r4, r0
 133              	.LBB10:
 134              		.loc 1 174 0
 135 0006 0846     		mov	r0, r1
 136              	.LVL15:
 137              		.loc 1 172 0
 138 0008 43F82410 		str	r1, [r3, r4, lsl #2]
 139              		.loc 1 174 0
 140 000c FFF7FEFF 		bl	rgb_to_local
 141              	.LVL16:
 142 0010 0B4B     		ldr	r3, .L12+4
 143              		.loc 1 181 0
 144 0012 04EB4404 		add	r4, r4, r4, lsl #1
 145              	.LVL17:
 146 0016 2401     		lsls	r4, r4, #4
 147 0018 03F13002 		add	r2, r3, #48
 148 001c 2244     		add	r2, r2, r4
 149 001e 2344     		add	r3, r3, r4
 150              		.loc 1 179 0
 151 0020 5321     		movs	r1, #83
 152              		.loc 1 181 0
 153 0022 1424     		movs	r4, #20
 154              	.LVL18:
 155              	.L9:
 156              		.loc 1 178 0
 157 0024 10F4000F 		tst	r0, #8388608
 158              		.loc 1 179 0
 159 0028 14BF     		ite	ne
 160 002a 1980     		strhne	r1, [r3]	@ movhi
 161              		.loc 1 181 0
 162 002c 1C80     		strheq	r4, [r3]	@ movhi
 163 002e 0233     		adds	r3, r3, #2
 164              		.loc 1 177 0
 165 0030 9342     		cmp	r3, r2
 166              		.loc 1 183 0
 167 0032 4FEA4000 		lsl	r0, r0, #1
 168              	.LVL19:
 169              		.loc 1 177 0
 170 0036 F5D1     		bne	.L9
 171              	.LBE10:
ARM GAS  /tmp/cc8Y5deU.s 			page 4


 172              		.loc 1 186 0
 173 0038 10BD     		pop	{r4, pc}
 174              	.L13:
 175 003a 00BF     		.align	2
 176              	.L12:
 177 003c 00000000 		.word	.LANCHOR2
 178 0040 00000000 		.word	.LANCHOR3
 179              		.cfi_endproc
 180              	.LFE264:
 181              		.size	ws2811_set_led_color.part.0, .-ws2811_set_led_color.part.0
 182              		.section	.text.ws2811_init,"ax",%progbits
 183              		.align	1
 184              		.p2align 4,,15
 185              		.global	ws2811_init
 186              		.syntax unified
 187              		.thumb
 188              		.thumb_func
 189              		.fpu fpv4-sp-d16
 190              		.type	ws2811_init, %function
 191              	ws2811_init:
 192              	.LFB256:
 193              		.loc 1 43 0
 194              		.cfi_startproc
 195              		@ args = 0, pretend = 0, frame = 96
 196              		@ frame_needed = 0, uses_anonymous_args = 0
 197 0000 2DE9F043 		push	{r4, r5, r6, r7, r8, r9, lr}
 198              		.cfi_def_cfa_offset 28
 199              		.cfi_offset 4, -28
 200              		.cfi_offset 5, -24
 201              		.cfi_offset 6, -20
 202              		.cfi_offset 7, -16
 203              		.cfi_offset 8, -12
 204              		.cfi_offset 9, -8
 205              		.cfi_offset 14, -4
 206 0004 2DED028B 		vpush.64	{d8}
 207              		.cfi_def_cfa_offset 36
 208              		.cfi_offset 80, -36
 209              		.cfi_offset 81, -32
 210              		.loc 1 48 0
 211 0008 5A4B     		ldr	r3, .L28
 212 000a DFF89481 		ldr	r8, .L28+44
 213 000e 6422     		movs	r2, #100
 214 0010 1A60     		str	r2, [r3]
 215              	.LVL20:
 216              		.loc 1 43 0
 217 0012 99B0     		sub	sp, sp, #100
 218              		.cfi_def_cfa_offset 136
 219 0014 08F17401 		add	r1, r8, #116
 220              		.loc 1 48 0
 221 0018 4346     		mov	r3, r8
 222              		.loc 1 54 0
 223 001a 0022     		movs	r2, #0
 224              	.LVL21:
 225              	.L15:
 226              		.loc 1 54 0 is_stmt 0 discriminator 3
 227 001c 43F8042F 		str	r2, [r3, #4]!
 228              		.loc 1 53 0 is_stmt 1 discriminator 3
ARM GAS  /tmp/cc8Y5deU.s 			page 5


 229 0020 8B42     		cmp	r3, r1
 230 0022 FBD1     		bne	.L15
 231 0024 544F     		ldr	r7, .L28+4
 232              	.LBB11:
 233              		.loc 1 64 0
 234 0026 1426     		movs	r6, #20
 235 0028 07F13004 		add	r4, r7, #48
 236 002c 07F5B469 		add	r9, r7, #1440
 237              		.loc 1 62 0
 238 0030 5325     		movs	r5, #83
 239              	.L19:
 240              		.loc 1 58 0
 241 0032 58F8040F 		ldr	r0, [r8, #4]!
 242 0036 FFF7FEFF 		bl	rgb_to_local
 243              	.LVL22:
 244 003a A4F13003 		sub	r3, r4, #48
 245              	.LVL23:
 246              	.L18:
 247              		.loc 1 61 0
 248 003e 0202     		lsls	r2, r0, #8
 249              		.loc 1 62 0
 250 0040 4CBF     		ite	mi
 251 0042 1D80     		strhmi	r5, [r3]	@ movhi
 252              		.loc 1 64 0
 253 0044 1E80     		strhpl	r6, [r3]	@ movhi
 254 0046 0233     		adds	r3, r3, #2
 255              		.loc 1 60 0
 256 0048 A342     		cmp	r3, r4
 257              		.loc 1 66 0
 258 004a 4FEA4000 		lsl	r0, r0, #1
 259              	.LVL24:
 260              		.loc 1 60 0
 261 004e F6D1     		bne	.L18
 262 0050 03F13004 		add	r4, r3, #48
 263              	.LBE11:
 264              		.loc 1 57 0 discriminator 2
 265 0054 4C45     		cmp	r4, r9
 266 0056 ECD1     		bne	.L19
 267 0058 484B     		ldr	r3, .L28+8
 268              		.loc 1 73 0
 269 005a 0021     		movs	r1, #0
 270 005c 03F16402 		add	r2, r3, #100
 271              	.L20:
 272              		.loc 1 73 0 is_stmt 0 discriminator 3
 273 0060 23F8021F 		strh	r1, [r3, #2]!	@ movhi
 274              		.loc 1 72 0 is_stmt 1 discriminator 3
 275 0064 9342     		cmp	r3, r2
 276 0066 FBD1     		bne	.L20
 277 0068 454D     		ldr	r5, .L28+12
 278              		.loc 1 78 0
 279 006a 9FED468A 		vldr.32	s16, .L28+16
 280 006e DFED468A 		vldr.32	s17, .L28+20
 281 0072 05F58076 		add	r6, r5, #256
 282              		.loc 1 72 0
 283 0076 2C46     		mov	r4, r5
 284              	.LVL25:
 285              	.L21:
ARM GAS  /tmp/cc8Y5deU.s 			page 6


 286              		.loc 1 78 0 discriminator 3
 287 0078 631B     		subs	r3, r4, r5
 288              	.LVL26:
 289 007a 00EE103A 		vmov	s0, r3	@ int
 290 007e B8EEC00A 		vcvt.f32.s32	s0, s0
 291 0082 F0EE680A 		vmov.f32	s1, s17
 292 0086 80EE080A 		vdiv.f32	s0, s0, s16
 293 008a FFF7FEFF 		bl	powf
 294              	.LVL27:
 295 008e 20EE080A 		vmul.f32	s0, s0, s16
 296 0092 FFF7FEFF 		bl	roundf
 297              	.LVL28:
 298 0096 FDEEC07A 		vcvt.s32.f32	s15, s0
 299 009a 17EE903A 		vmov	r3, s15	@ int
 300 009e 04F8013B 		strb	r3, [r4], #1
 301              	.LVL29:
 302              		.loc 1 77 0 discriminator 3
 303 00a2 A642     		cmp	r6, r4
 304 00a4 E8D1     		bne	.L21
 305              		.loc 1 82 0
 306 00a6 4FF48772 		mov	r2, #270
 307 00aa 8021     		movs	r1, #128
 308 00ac 3748     		ldr	r0, .L28+24
 309 00ae FFF7FEFF 		bl	_pal_lld_setgroupmode
 310              	.LVL30:
 311              		.loc 1 94 0
 312 00b2 0121     		movs	r1, #1
 313 00b4 4FF40010 		mov	r0, #2097152
 314 00b8 FFF7FEFF 		bl	RCC_AHB1PeriphClockCmd
 315              	.LVL31:
 316              		.loc 1 97 0
 317 00bc 3448     		ldr	r0, .L28+28
 318 00be FFF7FEFF 		bl	DMA_DeInit
 319              	.LVL32:
 320              		.loc 1 98 0
 321 00c2 344A     		ldr	r2, .L28+32
 322 00c4 0A92     		str	r2, [sp, #40]
 323              		.loc 1 105 0
 324 00c6 4023     		movs	r3, #64
 325              		.loc 1 108 0
 326 00c8 4FF48065 		mov	r5, #1024
 327              		.loc 1 105 0
 328 00cc 0C93     		str	r3, [sp, #48]
 329              		.loc 1 106 0
 330 00ce 40F2EA22 		movw	r2, #746
 331              		.loc 1 109 0
 332 00d2 4FF40063 		mov	r3, #2048
 333              		.loc 1 106 0
 334 00d6 0D92     		str	r2, [sp, #52]
 335              		.loc 1 109 0
 336 00d8 CDE90F53 		strd	r5, r3, [sp, #60]
 337              		.loc 1 103 0
 338 00dc 4FF08061 		mov	r1, #67108864
 339              		.loc 1 110 0
 340 00e0 4FF40052 		mov	r2, #8192
 341              		.loc 1 111 0
 342 00e4 4FF48073 		mov	r3, #256
ARM GAS  /tmp/cc8Y5deU.s 			page 7


 343              		.loc 1 107 0
 344 00e8 0024     		movs	r4, #0
 345              	.LVL33:
 346              		.loc 1 103 0
 347 00ea 0991     		str	r1, [sp, #36]
 348              		.loc 1 110 0
 349 00ec 1192     		str	r2, [sp, #68]
 350              		.loc 1 111 0
 351 00ee 1293     		str	r3, [sp, #72]
 352              		.loc 1 112 0
 353 00f0 4FF40032 		mov	r2, #131072
 354              		.loc 1 114 0
 355 00f4 0323     		movs	r3, #3
 356              		.loc 1 119 0
 357 00f6 09A9     		add	r1, sp, #36
 358 00f8 2548     		ldr	r0, .L28+28
 359              		.loc 1 112 0
 360 00fa 1392     		str	r2, [sp, #76]
 361              		.loc 1 114 0
 362 00fc 1593     		str	r3, [sp, #84]
 363              		.loc 1 104 0
 364 00fe 0B97     		str	r7, [sp, #44]
 365              		.loc 1 107 0
 366 0100 0E94     		str	r4, [sp, #56]
 367              		.loc 1 113 0
 368 0102 1494     		str	r4, [sp, #80]
 369              		.loc 1 116 0
 370 0104 CDE91644 		strd	r4, r4, [sp, #88]
 371              		.loc 1 119 0
 372 0108 FFF7FEFF 		bl	DMA_Init
 373              	.LVL34:
 374              		.loc 1 124 0
 375 010c 0121     		movs	r1, #1
 376 010e 0420     		movs	r0, #4
 377 0110 FFF7FEFF 		bl	RCC_APB1PeriphClockCmd
 378              	.LVL35:
 379              		.loc 1 128 0
 380 0114 6823     		movs	r3, #104
 381              		.loc 1 133 0
 382 0116 01A9     		add	r1, sp, #4
 383 0118 1F48     		ldr	r0, .L28+36
 384              		.loc 1 128 0
 385 011a 0293     		str	r3, [sp, #8]
 386              		.loc 1 127 0
 387 011c 0194     		str	r4, [sp, #4]
 388              		.loc 1 129 0
 389 011e ADF80C40 		strh	r4, [sp, #12]	@ movhi
 390              		.loc 1 130 0
 391 0122 8DF80E40 		strb	r4, [sp, #14]
 392              		.loc 1 133 0
 393 0126 FFF7FEFF 		bl	TIM_TimeBaseInit
 394              	.LVL36:
 395              		.loc 1 136 0
 396 012a 1C4B     		ldr	r3, .L28+40
 397              		.loc 1 138 0
 398 012c 3A88     		ldrh	r2, [r7]
 399              		.loc 1 142 0
ARM GAS  /tmp/cc8Y5deU.s 			page 8


 400 012e 1A48     		ldr	r0, .L28+36
 401              		.loc 1 136 0
 402 0130 0493     		str	r3, [sp, #16]
 403              		.loc 1 142 0
 404 0132 04A9     		add	r1, sp, #16
 405              		.loc 1 138 0
 406 0134 0692     		str	r2, [sp, #24]
 407              		.loc 1 139 0
 408 0136 ADF81C40 		strh	r4, [sp, #28]	@ movhi
 409              		.loc 1 142 0
 410 013a FFF7FEFF 		bl	TIM_OC2Init
 411              	.LVL37:
 412              		.loc 1 143 0
 413 013e 0821     		movs	r1, #8
 414 0140 1548     		ldr	r0, .L28+36
 415 0142 FFF7FEFF 		bl	TIM_OC2PreloadConfig
 416              	.LVL38:
 417              		.loc 1 150 0
 418 0146 0121     		movs	r1, #1
 419 0148 1348     		ldr	r0, .L28+36
 420 014a FFF7FEFF 		bl	TIM_Cmd
 421              	.LVL39:
 422              		.loc 1 154 0
 423 014e 0121     		movs	r1, #1
 424 0150 0F48     		ldr	r0, .L28+28
 425 0152 FFF7FEFF 		bl	DMA_Cmd
 426              	.LVL40:
 427              		.loc 1 161 0
 428 0156 2946     		mov	r1, r5
 429 0158 0122     		movs	r2, #1
 430 015a 0F48     		ldr	r0, .L28+36
 431 015c FFF7FEFF 		bl	TIM_DMACmd
 432              	.LVL41:
 433              		.loc 1 167 0
 434 0160 0121     		movs	r1, #1
 435 0162 0D48     		ldr	r0, .L28+36
 436 0164 FFF7FEFF 		bl	TIM_CtrlPWMOutputs
 437              	.LVL42:
 438              		.loc 1 168 0
 439 0168 19B0     		add	sp, sp, #100
 440              		.cfi_def_cfa_offset 36
 441              		@ sp needed
 442 016a BDEC028B 		vldm	sp!, {d8}
 443              		.cfi_restore 80
 444              		.cfi_restore 81
 445              		.cfi_def_cfa_offset 28
 446 016e BDE8F083 		pop	{r4, r5, r6, r7, r8, r9, pc}
 447              	.L29:
 448 0172 00BF     		.align	2
 449              	.L28:
 450 0174 00000000 		.word	.LANCHOR0
 451 0178 00000000 		.word	.LANCHOR3
 452 017c 6C050000 		.word	.LANCHOR3+1388
 453 0180 00000000 		.word	.LANCHOR1
 454 0184 00007F43 		.word	1132396544
 455 0188 E4380E40 		.word	1074673892
 456 018c 00040240 		.word	1073873920
ARM GAS  /tmp/cc8Y5deU.s 			page 9


 457 0190 58600240 		.word	1073897560
 458 0194 38080040 		.word	1073743928
 459 0198 00080040 		.word	1073743872
 460 019c 60000100 		.word	65632
 461 01a0 FCFFFFFF 		.word	.LANCHOR2-4
 462              		.cfi_endproc
 463              	.LFE256:
 464              		.size	ws2811_init, .-ws2811_init
 465              		.section	.text.ws2811_set_led_color,"ax",%progbits
 466              		.align	1
 467              		.p2align 4,,15
 468              		.global	ws2811_set_led_color
 469              		.syntax unified
 470              		.thumb
 471              		.thumb_func
 472              		.fpu fpv4-sp-d16
 473              		.type	ws2811_set_led_color, %function
 474              	ws2811_set_led_color:
 475              	.LFB257:
 476              		.loc 1 170 0
 477              		.cfi_startproc
 478              		@ args = 0, pretend = 0, frame = 0
 479              		@ frame_needed = 0, uses_anonymous_args = 0
 480              		@ link register save eliminated.
 481              	.LVL43:
 482              		.loc 1 171 0
 483 0000 1B28     		cmp	r0, #27
 484 0002 01D8     		bhi	.L30
 485 0004 FFF7FEBF 		b	ws2811_set_led_color.part.0
 486              	.LVL44:
 487              	.L30:
 488              		.loc 1 186 0
 489 0008 7047     		bx	lr
 490              		.cfi_endproc
 491              	.LFE257:
 492              		.size	ws2811_set_led_color, .-ws2811_set_led_color
 493 000a 00BF     		.section	.text.ws2811_get_led_color,"ax",%progbits
 494              		.align	1
 495              		.p2align 4,,15
 496              		.global	ws2811_get_led_color
 497              		.syntax unified
 498              		.thumb
 499              		.thumb_func
 500              		.fpu fpv4-sp-d16
 501              		.type	ws2811_get_led_color, %function
 502              	ws2811_get_led_color:
 503              	.LFB258:
 504              		.loc 1 188 0
 505              		.cfi_startproc
 506              		@ args = 0, pretend = 0, frame = 0
 507              		@ frame_needed = 0, uses_anonymous_args = 0
 508              		@ link register save eliminated.
 509              	.LVL45:
 510              		.loc 1 189 0
 511 0000 1B28     		cmp	r0, #27
 512              		.loc 1 190 0
 513 0002 9ABF     		itte	ls
ARM GAS  /tmp/cc8Y5deU.s 			page 10


 514 0004 024B     		ldrls	r3, .L35
 515 0006 53F82000 		ldrls	r0, [r3, r0, lsl #2]
 516              	.LVL46:
 517              		.loc 1 193 0
 518 000a 0020     		movhi	r0, #0
 519              		.loc 1 194 0
 520 000c 7047     		bx	lr
 521              	.L36:
 522 000e 00BF     		.align	2
 523              	.L35:
 524 0010 00000000 		.word	.LANCHOR2
 525              		.cfi_endproc
 526              	.LFE258:
 527              		.size	ws2811_get_led_color, .-ws2811_get_led_color
 528              		.section	.text.ws2811_all_off,"ax",%progbits
 529              		.align	1
 530              		.p2align 4,,15
 531              		.global	ws2811_all_off
 532              		.syntax unified
 533              		.thumb
 534              		.thumb_func
 535              		.fpu fpv4-sp-d16
 536              		.type	ws2811_all_off, %function
 537              	ws2811_all_off:
 538              	.LFB259:
 539              		.loc 1 196 0
 540              		.cfi_startproc
 541              		@ args = 0, pretend = 0, frame = 0
 542              		@ frame_needed = 0, uses_anonymous_args = 0
 543              		@ link register save eliminated.
 544              	.LVL47:
 545 0000 084B     		ldr	r3, .L42
 546              		.loc 1 200 0
 547 0002 0021     		movs	r1, #0
 548 0004 03F17002 		add	r2, r3, #112
 549              	.LVL48:
 550              	.L38:
 551              		.loc 1 200 0 is_stmt 0 discriminator 3
 552 0008 43F8041F 		str	r1, [r3, #4]!
 553              		.loc 1 199 0 is_stmt 1 discriminator 3
 554 000c 9342     		cmp	r3, r2
 555 000e FBD1     		bne	.L38
 556 0010 054B     		ldr	r3, .L42+4
 557              		.loc 1 204 0
 558 0012 1421     		movs	r1, #20
 559 0014 03F5A862 		add	r2, r3, #1344
 560              	.L39:
 561              		.loc 1 204 0 is_stmt 0 discriminator 3
 562 0018 23F8021F 		strh	r1, [r3, #2]!	@ movhi
 563              		.loc 1 203 0 is_stmt 1 discriminator 3
 564 001c 9342     		cmp	r3, r2
 565 001e FBD1     		bne	.L39
 566              		.loc 1 206 0
 567 0020 7047     		bx	lr
 568              	.L43:
 569 0022 00BF     		.align	2
 570              	.L42:
ARM GAS  /tmp/cc8Y5deU.s 			page 11


 571 0024 FCFFFFFF 		.word	.LANCHOR2-4
 572 0028 FEFFFFFF 		.word	.LANCHOR3-2
 573              		.cfi_endproc
 574              	.LFE259:
 575              		.size	ws2811_all_off, .-ws2811_all_off
 576              		.section	.text.ws2811_set_all,"ax",%progbits
 577              		.align	1
 578              		.p2align 4,,15
 579              		.global	ws2811_set_all
 580              		.syntax unified
 581              		.thumb
 582              		.thumb_func
 583              		.fpu fpv4-sp-d16
 584              		.type	ws2811_set_all, %function
 585              	ws2811_set_all:
 586              	.LFB260:
 587              		.loc 1 208 0
 588              		.cfi_startproc
 589              		@ args = 0, pretend = 0, frame = 0
 590              		@ frame_needed = 0, uses_anonymous_args = 0
 591              	.LVL49:
 592 0000 2DE9F843 		push	{r3, r4, r5, r6, r7, r8, r9, lr}
 593              		.cfi_def_cfa_offset 32
 594              		.cfi_offset 3, -32
 595              		.cfi_offset 4, -28
 596              		.cfi_offset 5, -24
 597              		.cfi_offset 6, -20
 598              		.cfi_offset 7, -16
 599              		.cfi_offset 8, -12
 600              		.cfi_offset 9, -8
 601              		.cfi_offset 14, -4
 602 0004 0E4C     		ldr	r4, .L52
 603 0006 DFF83C80 		ldr	r8, .L52+4
 604              		.loc 1 208 0
 605 000a 0746     		mov	r7, r0
 606 000c 04F5A869 		add	r9, r4, #1344
 607              	.LBB12:
 608              		.loc 1 220 0
 609 0010 1426     		movs	r6, #20
 610              		.loc 1 218 0
 611 0012 5325     		movs	r5, #83
 612              	.LVL50:
 613              	.L48:
 614              		.loc 1 214 0
 615 0014 3846     		mov	r0, r7
 616              		.loc 1 212 0
 617 0016 48F8047F 		str	r7, [r8, #4]!
 618              		.loc 1 214 0
 619 001a FFF7FEFF 		bl	rgb_to_local
 620              	.LVL51:
 621 001e A4F13003 		sub	r3, r4, #48
 622              	.LVL52:
 623              	.L47:
 624              		.loc 1 217 0
 625 0022 0202     		lsls	r2, r0, #8
 626              		.loc 1 218 0
 627 0024 4CBF     		ite	mi
ARM GAS  /tmp/cc8Y5deU.s 			page 12


 628 0026 1D80     		strhmi	r5, [r3]	@ movhi
 629              		.loc 1 220 0
 630 0028 1E80     		strhpl	r6, [r3]	@ movhi
 631 002a 0233     		adds	r3, r3, #2
 632              		.loc 1 216 0
 633 002c A342     		cmp	r3, r4
 634              		.loc 1 222 0
 635 002e 4FEA4000 		lsl	r0, r0, #1
 636              	.LVL53:
 637              		.loc 1 216 0
 638 0032 F6D1     		bne	.L47
 639 0034 03F13004 		add	r4, r3, #48
 640              	.LBE12:
 641              		.loc 1 211 0 discriminator 2
 642 0038 4C45     		cmp	r4, r9
 643 003a EBD1     		bne	.L48
 644              		.loc 1 225 0
 645 003c BDE8F883 		pop	{r3, r4, r5, r6, r7, r8, r9, pc}
 646              	.LVL54:
 647              	.L53:
 648              		.align	2
 649              	.L52:
 650 0040 30000000 		.word	.LANCHOR3+48
 651 0044 FCFFFFFF 		.word	.LANCHOR2-4
 652              		.cfi_endproc
 653              	.LFE260:
 654              		.size	ws2811_set_all, .-ws2811_set_all
 655              		.section	.text.ws2811_set_brightness,"ax",%progbits
 656              		.align	1
 657              		.p2align 4,,15
 658              		.global	ws2811_set_brightness
 659              		.syntax unified
 660              		.thumb
 661              		.thumb_func
 662              		.fpu fpv4-sp-d16
 663              		.type	ws2811_set_brightness, %function
 664              	ws2811_set_brightness:
 665              	.LFB261:
 666              		.loc 1 227 0
 667              		.cfi_startproc
 668              		@ args = 0, pretend = 0, frame = 0
 669              		@ frame_needed = 0, uses_anonymous_args = 0
 670              	.LVL55:
 671 0000 38B5     		push	{r3, r4, r5, lr}
 672              		.cfi_def_cfa_offset 16
 673              		.cfi_offset 3, -16
 674              		.cfi_offset 4, -12
 675              		.cfi_offset 5, -8
 676              		.cfi_offset 14, -4
 677              		.loc 1 228 0
 678 0002 064B     		ldr	r3, .L58
 679 0004 064D     		ldr	r5, .L58+4
 680 0006 1860     		str	r0, [r3]
 681              	.LVL56:
 682              	.LBB13:
 683              		.loc 1 230 0
 684 0008 0024     		movs	r4, #0
ARM GAS  /tmp/cc8Y5deU.s 			page 13


 685              	.LVL57:
 686              	.L55:
 687              	.LBB14:
 688              	.LBB15:
 689 000a 2046     		mov	r0, r4
 690 000c 55F8041F 		ldr	r1, [r5, #4]!
 691              	.LBE15:
 692              	.LBE14:
 693 0010 0134     		adds	r4, r4, #1
 694              	.LVL58:
 695              	.LBB17:
 696              	.LBB16:
 697 0012 FFF7FEFF 		bl	ws2811_set_led_color.part.0
 698              	.LVL59:
 699              	.LBE16:
 700              	.LBE17:
 701 0016 1C2C     		cmp	r4, #28
 702 0018 F7D1     		bne	.L55
 703              	.LBE13:
 704              		.loc 1 233 0
 705 001a 38BD     		pop	{r3, r4, r5, pc}
 706              	.LVL60:
 707              	.L59:
 708              		.align	2
 709              	.L58:
 710 001c 00000000 		.word	.LANCHOR0
 711 0020 FCFFFFFF 		.word	.LANCHOR2-4
 712              		.cfi_endproc
 713              	.LFE261:
 714              		.size	ws2811_set_brightness, .-ws2811_set_brightness
 715              		.section	.text.ws2811_get_brightness,"ax",%progbits
 716              		.align	1
 717              		.p2align 4,,15
 718              		.global	ws2811_get_brightness
 719              		.syntax unified
 720              		.thumb
 721              		.thumb_func
 722              		.fpu fpv4-sp-d16
 723              		.type	ws2811_get_brightness, %function
 724              	ws2811_get_brightness:
 725              	.LFB262:
 726              		.loc 1 235 0
 727              		.cfi_startproc
 728              		@ args = 0, pretend = 0, frame = 0
 729              		@ frame_needed = 0, uses_anonymous_args = 0
 730              		@ link register save eliminated.
 731              		.loc 1 236 0
 732 0000 014B     		ldr	r3, .L61
 733              		.loc 1 237 0
 734 0002 1868     		ldr	r0, [r3]
 735 0004 7047     		bx	lr
 736              	.L62:
 737 0006 00BF     		.align	2
 738              	.L61:
 739 0008 00000000 		.word	.LANCHOR0
 740              		.cfi_endproc
 741              	.LFE262:
ARM GAS  /tmp/cc8Y5deU.s 			page 14


 742              		.size	ws2811_get_brightness, .-ws2811_get_brightness
 743              		.section	.bss.RGBdata,"aw",%nobits
 744              		.align	2
 745              		.set	.LANCHOR2,. + 0
 746              		.type	RGBdata, %object
 747              		.size	RGBdata, 116
 748              	RGBdata:
 749 0000 00000000 		.space	116
 749      00000000 
 749      00000000 
 749      00000000 
 749      00000000 
 750              		.section	.bss.bitbuffer,"aw",%nobits
 751              		.align	2
 752              		.set	.LANCHOR3,. + 0
 753              		.type	bitbuffer, %object
 754              		.size	bitbuffer, 1492
 755              	bitbuffer:
 756 0000 00000000 		.space	1492
 756      00000000 
 756      00000000 
 756      00000000 
 756      00000000 
 757              		.section	.bss.brightness,"aw",%nobits
 758              		.align	2
 759              		.set	.LANCHOR0,. + 0
 760              		.type	brightness, %object
 761              		.size	brightness, 4
 762              	brightness:
 763 0000 00000000 		.space	4
 764              		.section	.bss.gamma_table,"aw",%nobits
 765              		.align	2
 766              		.set	.LANCHOR1,. + 0
 767              		.type	gamma_table, %object
 768              		.size	gamma_table, 256
 769              	gamma_table:
 770 0000 00000000 		.space	256
 770      00000000 
 770      00000000 
 770      00000000 
 770      00000000 
 771              		.text
 772              	.Letext0:
 773              		.file 2 "/usr/lib/gcc/arm-none-eabi/7.3.1/include/stddef.h"
 774              		.file 3 "/usr/arm-none-eabi/include/machine/_default_types.h"
 775              		.file 4 "/usr/arm-none-eabi/include/sys/lock.h"
 776              		.file 5 "/usr/arm-none-eabi/include/sys/_types.h"
 777              		.file 6 "/usr/arm-none-eabi/include/sys/reent.h"
 778              		.file 7 "/usr/arm-none-eabi/include/math.h"
 779              		.file 8 "/usr/arm-none-eabi/include/sys/_stdint.h"
 780              		.file 9 "ChibiOS_3.0.2/os/rt/ports/ARMCMx/compilers/GCC/chtypes.h"
 781              		.file 10 "ChibiOS_3.0.2/os/rt/include/chsystypes.h"
 782              		.file 11 "ChibiOS_3.0.2/os/rt/include/chschd.h"
 783              		.file 12 "ChibiOS_3.0.2/os/ext/CMSIS/include/core_cm4.h"
 784              		.file 13 "ChibiOS_3.0.2/os/ext/CMSIS/ST/system_stm32f4xx.h"
 785              		.file 14 "ChibiOS_3.0.2/os/ext/CMSIS/ST/stm32f407xx.h"
 786              		.file 15 "ChibiOS_3.0.2/os/rt/ports/ARMCMx/chcore.h"
ARM GAS  /tmp/cc8Y5deU.s 			page 15


 787              		.file 16 "ChibiOS_3.0.2/os/rt/ports/ARMCMx/chcore_v7m.h"
 788              		.file 17 "ChibiOS_3.0.2/os/rt/include/chtm.h"
 789              		.file 18 "ChibiOS_3.0.2/os/rt/include/chsem.h"
 790              		.file 19 "ChibiOS_3.0.2/os/rt/include/chmtx.h"
 791              		.file 20 "ChibiOS_3.0.2/os/rt/include/chregistry.h"
 792              		.file 21 "ChibiOS_3.0.2/os/rt/include/chevents.h"
 793              		.file 22 "ChibiOS_3.0.2/os/rt/include/chqueues.h"
 794              		.file 23 "conf_general.h"
 795              		.file 24 "ChibiOS_3.0.2/ext/stdperiph_stm32f4/inc/stm32f4xx_dma.h"
 796              		.file 25 "ChibiOS_3.0.2/ext/stdperiph_stm32f4/inc/stm32f4xx_tim.h"
 797              		.file 26 "ChibiOS_3.0.2/os/hal/ports/STM32/STM32F4xx/stm32_dma.h"
 798              		.file 27 "ChibiOS_3.0.2/os/hal/ports/STM32/LLD/GPIOv2/pal_lld.h"
 799              		.file 28 "ChibiOS_3.0.2/os/ext/CMSIS/ST/stm32f4xx.h"
 800              		.file 29 "ChibiOS_3.0.2/os/hal/include/can.h"
 801              		.file 30 "ChibiOS_3.0.2/os/hal/ports/STM32/LLD/can_lld.h"
 802              		.file 31 "ChibiOS_3.0.2/os/hal/include/i2c.h"
 803              		.file 32 "ChibiOS_3.0.2/os/hal/ports/STM32/LLD/I2Cv1/i2c_lld.h"
 804              		.file 33 "ChibiOS_3.0.2/os/hal/include/icu.h"
 805              		.file 34 "ChibiOS_3.0.2/os/hal/ports/STM32/LLD/TIMv1/icu_lld.h"
 806              		.file 35 "ChibiOS_3.0.2/os/hal/ports/STM32/LLD/TIMv1/stm32_tim.h"
 807              		.file 36 "ChibiOS_3.0.2/os/hal/include/serial.h"
 808              		.file 37 "ChibiOS_3.0.2/os/hal/ports/STM32/LLD/USARTv1/serial_lld.h"
 809              		.file 38 "ChibiOS_3.0.2/os/hal/include/spi.h"
 810              		.file 39 "ChibiOS_3.0.2/os/hal/ports/STM32/LLD/SPIv1/spi_lld.h"
 811              		.file 40 "ChibiOS_3.0.2/os/hal/include/usb.h"
 812              		.file 41 "ChibiOS_3.0.2/os/hal/ports/STM32/LLD/OTGv1/usb_lld.h"
 813              		.file 42 "ChibiOS_3.0.2/os/hal/ports/STM32/LLD/OTGv1/stm32_otg.h"
 814              		.file 43 "ChibiOS_3.0.2/ext/stdperiph_stm32f4/inc/stm32f4xx_rcc.h"